
ParaBeepV0.1.elf:     file format elf32-littlearm

Sections:
Idx Name          Size      VMA       LMA       File off  Algn
  0 .text         000045a8  00000000  00000000  00010000  2**3
                  CONTENTS, ALLOC, LOAD, READONLY, CODE
  1 .relocate     00000074  20000000  000045a8  00020000  2**2
                  CONTENTS, ALLOC, LOAD, DATA
  2 .bss          000000dc  20000078  00004620  00020074  2**3
                  ALLOC
  3 .heap         00000204  20000154  000046fc  00020074  2**0
                  ALLOC
  4 .stack        00000400  20000358  00004900  00020074  2**0
                  ALLOC
  5 .ARM.attributes 0000002c  00000000  00000000  00020074  2**0
                  CONTENTS, READONLY
  6 .comment      00000059  00000000  00000000  000200a0  2**0
                  CONTENTS, READONLY
  7 .debug_info   0001887a  00000000  00000000  000200f9  2**0
                  CONTENTS, READONLY, DEBUGGING
  8 .debug_abbrev 00001a03  00000000  00000000  00038973  2**0
                  CONTENTS, READONLY, DEBUGGING
  9 .debug_loc    000014a2  00000000  00000000  0003a376  2**0
                  CONTENTS, READONLY, DEBUGGING
 10 .debug_aranges 00000250  00000000  00000000  0003b818  2**0
                  CONTENTS, READONLY, DEBUGGING
 11 .debug_ranges 000003e8  00000000  00000000  0003ba68  2**0
                  CONTENTS, READONLY, DEBUGGING
 12 .debug_macro  00016df3  00000000  00000000  0003be50  2**0
                  CONTENTS, READONLY, DEBUGGING
 13 .debug_line   00004fc2  00000000  00000000  00052c43  2**0
                  CONTENTS, READONLY, DEBUGGING
 14 .debug_str    0008592e  00000000  00000000  00057c05  2**0
                  CONTENTS, READONLY, DEBUGGING
 15 .debug_frame  000009bc  00000000  00000000  000dd534  2**2
                  CONTENTS, READONLY, DEBUGGING

Disassembly of section .text:

00000000 <exception_table>:
       0:	58 07 00 20 c9 04 00 00 c5 04 00 00 c5 04 00 00     X.. ............
	...
      2c:	c5 04 00 00 00 00 00 00 00 00 00 00 c5 04 00 00     ................
      3c:	c5 04 00 00 c5 04 00 00 c5 04 00 00 a1 04 00 00     ................
      4c:	c5 04 00 00 c5 04 00 00 c5 04 00 00 c5 04 00 00     ................
      5c:	c5 04 00 00 c5 04 00 00 c5 04 00 00 c5 04 00 00     ................
      6c:	c5 04 00 00 c5 04 00 00 c5 04 00 00 c5 04 00 00     ................
      7c:	c5 04 00 00 c5 04 00 00 c5 04 00 00 c5 04 00 00     ................
      8c:	c5 04 00 00 c5 04 00 00 c5 04 00 00 c5 04 00 00     ................
      9c:	c5 04 00 00 c5 04 00 00 c5 04 00 00 c5 04 00 00     ................
      ac:	c5 04 00 00 c5 04 00 00 c5 04 00 00 c5 04 00 00     ................
      bc:	c5 04 00 00 c5 04 00 00 c5 04 00 00 33 04 00 00     ............3...
      cc:	5f 04 00 00 79 04 00 00 c5 04 00 00 c5 04 00 00     _...y...........
      dc:	c5 04 00 00 c5 04 00 00 c5 04 00 00 c5 04 00 00     ................
      ec:	c5 04 00 00 c5 04 00 00                             ........

000000f4 <__do_global_dtors_aux>:
      f4:	b510      	push	{r4, lr}
      f6:	f240 0478 	movw	r4, #120	; 0x78
      fa:	f2c2 0400 	movt	r4, #8192	; 0x2000
      fe:	7823      	ldrb	r3, [r4, #0]
     100:	b963      	cbnz	r3, 11c <__do_global_dtors_aux+0x28>
     102:	f240 0300 	movw	r3, #0
     106:	f2c0 0300 	movt	r3, #0
     10a:	b12b      	cbz	r3, 118 <__do_global_dtors_aux+0x24>
     10c:	f244 50a8 	movw	r0, #17832	; 0x45a8
     110:	f2c0 0000 	movt	r0, #0
     114:	e000      	b.n	118 <__do_global_dtors_aux+0x24>
     116:	bf00      	nop
     118:	2301      	movs	r3, #1
     11a:	7023      	strb	r3, [r4, #0]
     11c:	bd10      	pop	{r4, pc}
     11e:	46c0      	nop			; (mov r8, r8)

00000120 <frame_dummy>:
     120:	f240 0300 	movw	r3, #0
     124:	f2c0 0300 	movt	r3, #0
     128:	b510      	push	{r4, lr}
     12a:	b14b      	cbz	r3, 140 <frame_dummy+0x20>
     12c:	f240 017c 	movw	r1, #124	; 0x7c
     130:	f244 50a8 	movw	r0, #17832	; 0x45a8
     134:	f2c2 0100 	movt	r1, #8192	; 0x2000
     138:	f2c0 0000 	movt	r0, #0
     13c:	e000      	b.n	140 <frame_dummy+0x20>
     13e:	bf00      	nop
     140:	f244 50a8 	movw	r0, #17832	; 0x45a8
     144:	f2c0 0000 	movt	r0, #0
     148:	6803      	ldr	r3, [r0, #0]
     14a:	b903      	cbnz	r3, 14e <frame_dummy+0x2e>
     14c:	bd10      	pop	{r4, pc}
     14e:	f240 0300 	movw	r3, #0
     152:	f2c0 0300 	movt	r3, #0
     156:	2b00      	cmp	r3, #0
     158:	d0f8      	beq.n	14c <frame_dummy+0x2c>
     15a:	4798      	blx	r3
     15c:	e7f6      	b.n	14c <frame_dummy+0x2c>
     15e:	46c0      	nop			; (mov r8, r8)

00000160 <beepms>:
}

void beepms(u16_t dur){
	
	//while (TC0->COUNT16.STATUS.reg != TC_STATUS_STOP ){}
	TC0->COUNT16.PER.reg = dur;
     160:	f241 0300 	movw	r3, #4096	; 0x1000
     164:	f2c4 2300 	movt	r3, #16896	; 0x4200
     168:	8358      	strh	r0, [r3, #26]
	//TC0->COUNT16.COUNT.reg = 0;
	//TC0->COUNT16.INTFLAG.reg = 0xFF;
	//TC0->COUNT16.INTENSET.reg = TC_INTENSET_OVF_Msk;
	TC0->COUNT16.CTRLBSET.reg = TC_CTRLBSET_CMD_RETRIGGER;
     16a:	2220      	movs	r2, #32
     16c:	715a      	strb	r2, [r3, #5]
	
	//TC2->COUNT8.CTRLBSET.reg = TC_CTRLBSET_CMD_UPDATE;
	//buzzing = true;
     16e:	4770      	bx	lr

00000170 <GclkInit>:
static uint32_t cycles_per_ms = 16000000UL / 1000;
static uint32_t cycles_per_us = 16000000UL / 1000000;


void GclkInit(u8_t clk_system) {
    OSCCTRL->OSC16MCTRL.reg = OSCCTRL_OSC16MCTRL_FSEL_16 |
     170:	f241 0300 	movw	r3, #4096	; 0x1000
     174:	f2c4 0300 	movt	r3, #16384	; 0x4000
     178:	220e      	movs	r2, #14
     17a:	761a      	strb	r2, [r3, #24]
                              OSCCTRL_OSC16MCTRL_ENABLE;
    while(!OSCCTRL->STATUS.bit.OSC16MRDY);
     17c:	f241 0200 	movw	r2, #4096	; 0x1000
     180:	f2c4 0200 	movt	r2, #16384	; 0x4000
     184:	6913      	ldr	r3, [r2, #16]
     186:	06db      	lsls	r3, r3, #27
     188:	d5fc      	bpl.n	184 <GclkInit+0x14>
    GCLK->GENCTRL[0].reg = GCLK_GENCTRL_SRC_OSC16M |
     18a:	f641 4300 	movw	r3, #7168	; 0x1c00
     18e:	f2c4 0300 	movt	r3, #16384	; 0x4000
     192:	f240 1205 	movw	r2, #261	; 0x105
     196:	621a      	str	r2, [r3, #32]
                           GCLK_GENCTRL_DIV(0) |
                           GCLK_GENCTRL_GENEN;
    while(GCLK->SYNCBUSY.bit.GENCTRL0);
     198:	f641 4200 	movw	r2, #7168	; 0x1c00
     19c:	f2c4 0200 	movt	r2, #16384	; 0x4000
     1a0:	6853      	ldr	r3, [r2, #4]
     1a2:	075b      	lsls	r3, r3, #29
     1a4:	d4fc      	bmi.n	1a0 <GclkInit+0x30>

}
     1a6:	4770      	bx	lr

000001a8 <setBuzzerFreq>:

u32_t buzzerFreq = 50;

void setBuzzerFreq(u32_t freq) {

    buzzerFreq = ((16000000/1)/16)/freq;
     1a8:	f244 2340 	movw	r3, #16960	; 0x4240
     1ac:	f2c0 030f 	movt	r3, #15
     1b0:	fbb3 f0f0 	udiv	r0, r3, r0
     1b4:	f240 0300 	movw	r3, #0
     1b8:	f2c2 0300 	movt	r3, #8192	; 0x2000
     1bc:	6018      	str	r0, [r3, #0]

    TC2->COUNT16.PERBUF.reg = buzzerFreq;
     1be:	b280      	uxth	r0, r0
     1c0:	f641 0300 	movw	r3, #6144	; 0x1800
     1c4:	f2c4 2300 	movt	r3, #16896	; 0x4200
     1c8:	85d8      	strh	r0, [r3, #46]	; 0x2e
    TC2->COUNT16.CTRLBSET.reg = TC_CTRLBSET_CMD_UPDATE;
     1ca:	2260      	movs	r2, #96	; 0x60
     1cc:	715a      	strb	r2, [r3, #5]


}
     1ce:	4770      	bx	lr

000001d0 <TC2Init>:


void TC2Init() {

    GCLK->GENCTRL[2].reg = GCLK_GENCTRL_SRC_OSC16M |
     1d0:	f641 4300 	movw	r3, #7168	; 0x1c00
     1d4:	f2c4 0300 	movt	r3, #16384	; 0x4000
     1d8:	f240 1205 	movw	r2, #261	; 0x105
     1dc:	f2c0 0201 	movt	r2, #1
     1e0:	629a      	str	r2, [r3, #40]	; 0x28
                           GCLK_GENCTRL_DIV(1) |
                           GCLK_GENCTRL_GENEN;
    while(GCLK->SYNCBUSY.bit.GENCTRL2);
     1e2:	f641 4200 	movw	r2, #7168	; 0x1c00
     1e6:	f2c4 0200 	movt	r2, #16384	; 0x4000
     1ea:	6853      	ldr	r3, [r2, #4]
     1ec:	06db      	lsls	r3, r3, #27
     1ee:	d4fc      	bmi.n	1ea <TC2Init+0x1a>
    GCLK->PCHCTRL[15].reg = GCLK_PCHCTRL_GEN_GCLK2 |
     1f0:	f641 4300 	movw	r3, #7168	; 0x1c00
     1f4:	f2c4 0300 	movt	r3, #16384	; 0x4000
     1f8:	2142      	movs	r1, #66	; 0x42
     1fa:	22bc      	movs	r2, #188	; 0xbc
     1fc:	5099      	str	r1, [r3, r2]
                            GCLK_PCHCTRL_CHEN;

    TC2->COUNT16.CTRLA.reg = TC_CTRLA_SWRST;
     1fe:	f641 0300 	movw	r3, #6144	; 0x1800
     202:	f2c4 2300 	movt	r3, #16896	; 0x4200
     206:	3abb      	subs	r2, #187	; 0xbb
     208:	601a      	str	r2, [r3, #0]
    while(TC2->COUNT16.SYNCBUSY.bit.SWRST);
     20a:	f641 0200 	movw	r2, #6144	; 0x1800
     20e:	f2c4 2200 	movt	r2, #16896	; 0x4200
     212:	6913      	ldr	r3, [r2, #16]
     214:	07db      	lsls	r3, r3, #31
     216:	d4fc      	bmi.n	212 <HEAP_SIZE+0x12>
    TC2->COUNT16.INTENSET.reg = TC_INTENSET_OVF_Msk;
     218:	f641 0300 	movw	r3, #6144	; 0x1800
     21c:	f2c4 2300 	movt	r3, #16896	; 0x4200
     220:	2201      	movs	r2, #1
     222:	725a      	strb	r2, [r3, #9]
    TC2->COUNT16.CTRLA.reg = TC_CTRLA_MODE_COUNT16 |
     224:	f240 4202 	movw	r2, #1026	; 0x402
     228:	601a      	str	r2, [r3, #0]
                             TC_CTRLA_PRESCALER_DIV16 |
                             TC_CTRLA_ENABLE;
    TC2->COUNT16.PER.reg = buzzerFreq;
     22a:	f240 0200 	movw	r2, #0
     22e:	f2c2 0200 	movt	r2, #8192	; 0x2000
     232:	8812      	ldrh	r2, [r2, #0]
     234:	835a      	strh	r2, [r3, #26]


    while(TC2->COUNT16.SYNCBUSY.bit.ENABLE);
     236:	f641 0200 	movw	r2, #6144	; 0x1800
     23a:	f2c4 2200 	movt	r2, #16896	; 0x4200
     23e:	6913      	ldr	r3, [r2, #16]
     240:	079b      	lsls	r3, r3, #30
     242:	d4fc      	bmi.n	23e <HEAP_SIZE+0x3e>
 */
__STATIC_INLINE void __NVIC_EnableIRQ(IRQn_Type IRQn)
{
  if ((int32_t)(IRQn) >= 0)
  {
    NVIC->ISER[(((uint32_t)IRQn) >> 5UL)] = (uint32_t)(1UL << (((uint32_t)IRQn) & 0x1FUL));
     244:	f24e 1300 	movw	r3, #57600	; 0xe100
     248:	f2ce 0300 	movt	r3, #57344	; 0xe000
     24c:	2210      	movs	r2, #16
     24e:	605a      	str	r2, [r3, #4]

    NVIC_EnableIRQ(TC2_IRQn);

}
     250:	4770      	bx	lr

00000252 <TC0Init>:

volatile u16_t TC0Dur = 1000;

void TC0Init() {

    GCLK->GENCTRL[3].reg = GCLK_GENCTRL_SRC_OSCULP32K |
     252:	f641 4300 	movw	r3, #7168	; 0x1c00
     256:	f2c4 0300 	movt	r3, #16384	; 0x4000
     25a:	f240 1203 	movw	r2, #259	; 0x103
     25e:	f2c0 0220 	movt	r2, #32
     262:	62da      	str	r2, [r3, #44]	; 0x2c
                           GCLK_GENCTRL_DIV(32) |
                           GCLK_GENCTRL_GENEN;
    while(GCLK->SYNCBUSY.bit.GENCTRL3);
     264:	f641 4200 	movw	r2, #7168	; 0x1c00
     268:	f2c4 0200 	movt	r2, #16384	; 0x4000
     26c:	6853      	ldr	r3, [r2, #4]
     26e:	069b      	lsls	r3, r3, #26
     270:	d4fc      	bmi.n	26c <TC0Init+0x1a>
    GCLK->PCHCTRL[14].reg = GCLK_PCHCTRL_GEN_GCLK3 |
     272:	f641 4300 	movw	r3, #7168	; 0x1c00
     276:	f2c4 0300 	movt	r3, #16384	; 0x4000
     27a:	2143      	movs	r1, #67	; 0x43
     27c:	22b8      	movs	r2, #184	; 0xb8
     27e:	5099      	str	r1, [r3, r2]
                            GCLK_PCHCTRL_CHEN;

    TC0->COUNT16.CTRLA.reg = TC_CTRLA_SWRST;
     280:	f241 0300 	movw	r3, #4096	; 0x1000
     284:	f2c4 2300 	movt	r3, #16896	; 0x4200
     288:	3ab7      	subs	r2, #183	; 0xb7
     28a:	601a      	str	r2, [r3, #0]
    while(TC0->COUNT16.SYNCBUSY.bit.SWRST);
     28c:	f241 0200 	movw	r2, #4096	; 0x1000
     290:	f2c4 2200 	movt	r2, #16896	; 0x4200
     294:	6913      	ldr	r3, [r2, #16]
     296:	07db      	lsls	r3, r3, #31
     298:	d4fc      	bmi.n	294 <TC0Init+0x42>
    //TC0->COUNT16.CTRLBSET.reg = TC_CTRLBSET_ONESHOT;
    TC0->COUNT16.INTENSET.reg = TC_INTENSET_OVF_Msk;
     29a:	f241 0300 	movw	r3, #4096	; 0x1000
     29e:	f2c4 2300 	movt	r3, #16896	; 0x4200
     2a2:	2201      	movs	r2, #1
     2a4:	725a      	strb	r2, [r3, #9]
    TC0->COUNT16.CTRLA.reg = TC_CTRLA_MODE_COUNT16 |
     2a6:	3201      	adds	r2, #1
     2a8:	601a      	str	r2, [r3, #0]
                             TC_CTRLA_PRESCALER_DIV1 |
                             TC_CTRLA_ENABLE;
    TC0->COUNT16.PER.reg = TC0Dur;
     2aa:	f240 0200 	movw	r2, #0
     2ae:	f2c2 0200 	movt	r2, #8192	; 0x2000
     2b2:	8892      	ldrh	r2, [r2, #4]
     2b4:	b292      	uxth	r2, r2
     2b6:	835a      	strh	r2, [r3, #26]

    while(TC0->COUNT16.SYNCBUSY.bit.ENABLE);
     2b8:	f241 0200 	movw	r2, #4096	; 0x1000
     2bc:	f2c4 2200 	movt	r2, #16896	; 0x4200
     2c0:	6913      	ldr	r3, [r2, #16]
     2c2:	079b      	lsls	r3, r3, #30
     2c4:	d4fc      	bmi.n	2c0 <TC0Init+0x6e>
     2c6:	f24e 1300 	movw	r3, #57600	; 0xe100
     2ca:	f2ce 0300 	movt	r3, #57344	; 0xe000
     2ce:	2204      	movs	r2, #4
     2d0:	605a      	str	r2, [r3, #4]
    NVIC_EnableIRQ(TC0_IRQn);
}
     2d2:	4770      	bx	lr

000002d4 <TC1Init>:

    //GCLK->GENCTRL[4].reg = GCLK_GENCTRL_SRC_OSCULP32K | GCLK_GENCTRL_DIV(32) | GCLK_GENCTRL_GENEN;
    //while(GCLK->SYNCBUSY.bit.GENCTRL4);
    //GCLK->PCHCTRL[14].reg = GCLK_PCHCTRL_GEN_GCLK4 | GCLK_PCHCTRL_CHEN;

    TC1->COUNT8.CTRLA.reg = TC_CTRLA_SWRST;
     2d4:	f241 4300 	movw	r3, #5120	; 0x1400
     2d8:	f2c4 2300 	movt	r3, #16896	; 0x4200
     2dc:	2201      	movs	r2, #1
     2de:	601a      	str	r2, [r3, #0]
    while(TC1->COUNT8.SYNCBUSY.bit.SWRST);
     2e0:	f241 4200 	movw	r2, #5120	; 0x1400
     2e4:	f2c4 2200 	movt	r2, #16896	; 0x4200
     2e8:	6913      	ldr	r3, [r2, #16]
     2ea:	07db      	lsls	r3, r3, #31
     2ec:	d4fc      	bmi.n	2e8 <TC1Init+0x14>
    TC1->COUNT8.INTENSET.reg = TC_INTENSET_OVF_Msk;
     2ee:	f241 4300 	movw	r3, #5120	; 0x1400
     2f2:	f2c4 2300 	movt	r3, #16896	; 0x4200
     2f6:	2201      	movs	r2, #1
     2f8:	725a      	strb	r2, [r3, #9]
    TC1->COUNT8.CTRLA.reg = TC_CTRLA_MODE_COUNT8 |
     2fa:	3205      	adds	r2, #5
     2fc:	601a      	str	r2, [r3, #0]
                            TC_CTRLA_PRESCALER_DIV1 |
                            TC_CTRLA_ENABLE;
    TC1->COUNT8.PER.reg = 50;
     2fe:	322c      	adds	r2, #44	; 0x2c
     300:	76da      	strb	r2, [r3, #27]

    while(TC1->COUNT8.SYNCBUSY.bit.ENABLE);
     302:	f241 4200 	movw	r2, #5120	; 0x1400
     306:	f2c4 2200 	movt	r2, #16896	; 0x4200
     30a:	6913      	ldr	r3, [r2, #16]
     30c:	079b      	lsls	r3, r3, #30
     30e:	d4fc      	bmi.n	30a <TC1Init+0x36>
     310:	f24e 1300 	movw	r3, #57600	; 0xe100
     314:	f2ce 0300 	movt	r3, #57344	; 0xe000
     318:	2208      	movs	r2, #8
     31a:	605a      	str	r2, [r3, #4]
    NVIC_EnableIRQ(TC1_IRQn);
}
     31c:	4770      	bx	lr
	...

00000320 <rtcInit>:


void rtcInit() {
    RTC->MODE1.CTRLA.reg = RTC_MODE1_CTRLA_SWRST;
     320:	f242 4300 	movw	r3, #9216	; 0x2400
     324:	f2c4 0300 	movt	r3, #16384	; 0x4000
     328:	2201      	movs	r2, #1
     32a:	801a      	strh	r2, [r3, #0]
    while (RTC->MODE1.SYNCBUSY.bit.SWRST);
     32c:	f242 4200 	movw	r2, #9216	; 0x2400
     330:	f2c4 0200 	movt	r2, #16384	; 0x4000
     334:	6913      	ldr	r3, [r2, #16]
     336:	07db      	lsls	r3, r3, #31
     338:	d4fc      	bmi.n	334 <rtcInit+0x14>

    OSC32KCTRL->RTCCTRL.reg = OSC32KCTRL_RTCCTRL_RTCSEL_ULP32K;
     33a:	f241 4300 	movw	r3, #5120	; 0x1400
     33e:	f2c4 0300 	movt	r3, #16384	; 0x4000
     342:	2201      	movs	r2, #1
     344:	741a      	strb	r2, [r3, #16]

    RTC->MODE1.INTENSET.reg = RTC_MODE1_INTENSET_OVF_Msk;
     346:	f242 4300 	movw	r3, #9216	; 0x2400
     34a:	f2c4 0300 	movt	r3, #16384	; 0x4000
     34e:	4a0c      	ldr	r2, [pc, #48]	; (380 <rtcInit+0x60>)
     350:	815a      	strh	r2, [r3, #10]

    RTC->MODE1.CTRLA.reg = RTC_MODE1_CTRLA_MODE_COUNT16 |
     352:	4a0c      	ldr	r2, [pc, #48]	; (384 <rtcInit+0x64>)
     354:	801a      	strh	r2, [r3, #0]
                           RTC_MODE1_CTRLA_PRESCALER_DIV32 |
                           RTC_MODE1_CTRLA_COUNTSYNC;
    RTC->MODE1.PER.reg = RTC_MODE1_PER_PER(998);
     356:	f240 32e6 	movw	r2, #998	; 0x3e6
     35a:	839a      	strh	r2, [r3, #28]
    RTC->MODE1.CTRLA.reg |= RTC_MODE1_CTRLA_ENABLE;
     35c:	881a      	ldrh	r2, [r3, #0]
     35e:	2102      	movs	r1, #2
     360:	430a      	orrs	r2, r1
     362:	801a      	strh	r2, [r3, #0]
    while (RTC->MODE1.SYNCBUSY.bit.ENABLE);
     364:	f242 4200 	movw	r2, #9216	; 0x2400
     368:	f2c4 0200 	movt	r2, #16384	; 0x4000
     36c:	6913      	ldr	r3, [r2, #16]
     36e:	079b      	lsls	r3, r3, #30
     370:	d4fc      	bmi.n	36c <rtcInit+0x4c>
     372:	f24e 1300 	movw	r3, #57600	; 0xe100
     376:	f2ce 0300 	movt	r3, #57344	; 0xe000
     37a:	2204      	movs	r2, #4
     37c:	601a      	str	r2, [r3, #0]


    NVIC_EnableIRQ(RTC_IRQn);
}
     37e:	4770      	bx	lr
     380:	ffff8000 	.word	0xffff8000
     384:	ffff8604 	.word	0xffff8604

00000388 <delayInit>:
    NVIC->IPR[_IP_IDX(IRQn)]  = ((uint32_t)(NVIC->IPR[_IP_IDX(IRQn)]  & ~(0xFFUL << _BIT_SHIFT(IRQn))) |
       (((priority << (8U - __NVIC_PRIO_BITS)) & (uint32_t)0xFFUL) << _BIT_SHIFT(IRQn)));
  }
  else
  {
    SCB->SHPR[_SHP_IDX(IRQn)] = ((uint32_t)(SCB->SHPR[_SHP_IDX(IRQn)] & ~(0xFFUL << _BIT_SHIFT(IRQn))) |
     388:	f64e 5200 	movw	r2, #60672	; 0xed00
     38c:	f2ce 0200 	movt	r2, #57344	; 0xe000
     390:	6a13      	ldr	r3, [r2, #32]
     392:	021b      	lsls	r3, r3, #8
     394:	0a1b      	lsrs	r3, r3, #8
     396:	6213      	str	r3, [r2, #32]


void delayInit(void) {
    NVIC_SetPriority(SysTick_IRQn, 0x0);

    SysTick->CTRL = SysTick_CTRL_CLKSOURCE_Msk |
     398:	f24e 0310 	movw	r3, #57360	; 0xe010
     39c:	f2ce 0300 	movt	r3, #57344	; 0xe000
     3a0:	2205      	movs	r2, #5
     3a2:	601a      	str	r2, [r3, #0]
                    TC_INTENSET_OVF |
                    SysTick_CTRL_ENABLE_Msk;
}
     3a4:	4770      	bx	lr

000003a6 <delay_ms>:

void delay_ms(uint32_t n) {
     3a6:	b5f0      	push	{r4, r5, r6, r7, lr}
    while (n--) {
     3a8:	1e44      	subs	r4, r0, #1
     3aa:	b1a8      	cbz	r0, 3d8 <delay_ms+0x32>
#define ATOMIC_SECTION_LEAVE   __asm volatile ("msr primask, %0" : : "r" (__atomic) ); }


static inline void delay_cycles(const uint32_t n) {
    if (n > 0) {
        SysTick->LOAD = n;
     3ac:	f24e 0210 	movw	r2, #57360	; 0xe010
     3b0:	f2ce 0200 	movt	r2, #57344	; 0xe000
     3b4:	f643 6780 	movw	r7, #16000	; 0x3e80
        SysTick->VAL = 0;
     3b8:	2000      	movs	r0, #0
     3ba:	0006      	movs	r6, r0
        SysTick->CTRL = SysTick_CTRL_ENABLE_Msk;
     3bc:	2501      	movs	r5, #1
        while (!(SysTick->CTRL & SysTick_CTRL_COUNTFLAG_Msk)) {};
     3be:	2180      	movs	r1, #128	; 0x80
     3c0:	0249      	lsls	r1, r1, #9
     3c2:	e002      	b.n	3ca <delay_ms+0x24>

        SysTick->CTRL = 0;
     3c4:	6010      	str	r0, [r2, #0]
     3c6:	3c01      	subs	r4, #1
     3c8:	d306      	bcc.n	3d8 <delay_ms+0x32>
        SysTick->LOAD = n;
     3ca:	6057      	str	r7, [r2, #4]
        SysTick->VAL = 0;
     3cc:	6096      	str	r6, [r2, #8]
        SysTick->CTRL = SysTick_CTRL_ENABLE_Msk;
     3ce:	6015      	str	r5, [r2, #0]
        while (!(SysTick->CTRL & SysTick_CTRL_COUNTFLAG_Msk)) {};
     3d0:	6813      	ldr	r3, [r2, #0]
     3d2:	420b      	tst	r3, r1
     3d4:	d0fc      	beq.n	3d0 <delay_ms+0x2a>
     3d6:	e7f5      	b.n	3c4 <delay_ms+0x1e>
        /* divide up to blocks of 1ms */
        delay_cycles(cycles_per_ms);
    }
}
     3d8:	bdf0      	pop	{r4, r5, r6, r7, pc}

000003da <delay_us>:

void delay_us(uint32_t n) {
     3da:	b5f0      	push	{r4, r5, r6, r7, lr}
    while (n--) {
     3dc:	1e44      	subs	r4, r0, #1
     3de:	b1a0      	cbz	r0, 40a <STACK_SIZE+0xa>
        SysTick->LOAD = n;
     3e0:	f24e 0210 	movw	r2, #57360	; 0xe010
     3e4:	f2ce 0200 	movt	r2, #57344	; 0xe000
     3e8:	2710      	movs	r7, #16
        SysTick->VAL = 0;
     3ea:	2000      	movs	r0, #0
     3ec:	0006      	movs	r6, r0
        SysTick->CTRL = SysTick_CTRL_ENABLE_Msk;
     3ee:	2501      	movs	r5, #1
        while (!(SysTick->CTRL & SysTick_CTRL_COUNTFLAG_Msk)) {};
     3f0:	2180      	movs	r1, #128	; 0x80
     3f2:	0249      	lsls	r1, r1, #9
     3f4:	e002      	b.n	3fc <delay_us+0x22>
        SysTick->CTRL = 0;
     3f6:	6010      	str	r0, [r2, #0]
     3f8:	3c01      	subs	r4, #1
     3fa:	d306      	bcc.n	40a <STACK_SIZE+0xa>
        SysTick->LOAD = n;
     3fc:	6057      	str	r7, [r2, #4]
        SysTick->VAL = 0;
     3fe:	6096      	str	r6, [r2, #8]
        SysTick->CTRL = SysTick_CTRL_ENABLE_Msk;
     400:	6015      	str	r5, [r2, #0]
        while (!(SysTick->CTRL & SysTick_CTRL_COUNTFLAG_Msk)) {};
     402:	6813      	ldr	r3, [r2, #0]
     404:	420b      	tst	r3, r1
     406:	d0fc      	beq.n	402 <STACK_SIZE+0x2>
     408:	e7f5      	b.n	3f6 <delay_us+0x1c>
        /* divide up to blocks of 10u */
        delay_cycles(cycles_per_us);
    }
}
     40a:	bdf0      	pop	{r4, r5, r6, r7, pc}

0000040c <millis>:

volatile uint32_t time_ms = 0;

uint32_t millis(void) {
    uint32_t ms;
    ATOMIC_SECTION_ENTER
     40c:	f3ef 8310 	mrs	r3, PRIMASK
     410:	b672      	cpsid	i
    ms = time_ms + RTC->MODE1.COUNT.reg;
     412:	f242 4200 	movw	r2, #9216	; 0x2400
     416:	f2c4 0200 	movt	r2, #16384	; 0x4000
     41a:	8b10      	ldrh	r0, [r2, #24]
     41c:	b280      	uxth	r0, r0
     41e:	f240 0194 	movw	r1, #148	; 0x94
     422:	f2c2 0100 	movt	r1, #8192	; 0x2000
     426:	6809      	ldr	r1, [r1, #0]
    if (RTC->MODE1.INTFLAG.bit.OVF) {
     428:	8992      	ldrh	r2, [r2, #12]
        //ms = time_ms + RTC->MODE1.COUNT.reg + 1000;
    }
    ATOMIC_SECTION_LEAVE
     42a:	f383 8810 	msr	PRIMASK, r3
    ms = time_ms + RTC->MODE1.COUNT.reg;
     42e:	1840      	adds	r0, r0, r1
    return ms;
}
     430:	4770      	bx	lr

00000432 <TC0_Handler>:

void TC0_Handler(void) {

    buzzing = !buzzing;
     432:	f240 02ad 	movw	r2, #173	; 0xad
     436:	f2c2 0200 	movt	r2, #8192	; 0x2000
     43a:	7813      	ldrb	r3, [r2, #0]
     43c:	2101      	movs	r1, #1
     43e:	404b      	eors	r3, r1
     440:	7013      	strb	r3, [r2, #0]

    if (!buzzing) {
     442:	b92b      	cbnz	r3, 450 <TC0_Handler+0x1e>
	PORT->Group[p.group].OUTSET.reg = (1<<p.pin);
}


inline static void pinLow(Pin p) {
	PORT->Group[p.group].OUTCLR.reg = (1<<p.pin);
     444:	f243 0300 	movw	r3, #12288	; 0x3000
     448:	f2c4 0300 	movt	r3, #16384	; 0x4000
     44c:	2220      	movs	r2, #32
     44e:	615a      	str	r2, [r3, #20]
        pinLow(BuzzerPin);
    }

    TC0->COUNT16.INTFLAG.reg = 0xFF;
     450:	f241 0300 	movw	r3, #4096	; 0x1000
     454:	f2c4 2300 	movt	r3, #16896	; 0x4200
     458:	22ff      	movs	r2, #255	; 0xff
     45a:	729a      	strb	r2, [r3, #10]
}
     45c:	4770      	bx	lr

0000045e <TC1_Handler>:

void TC1_Handler(void) {

    takeSample = true;
     45e:	f240 03ac 	movw	r3, #172	; 0xac
     462:	f2c2 0300 	movt	r3, #8192	; 0x2000
     466:	2201      	movs	r2, #1
     468:	701a      	strb	r2, [r3, #0]
    TC1->COUNT8.INTFLAG.reg = 0xFF;
     46a:	f241 4300 	movw	r3, #5120	; 0x1400
     46e:	f2c4 2300 	movt	r3, #16896	; 0x4200
     472:	32fe      	adds	r2, #254	; 0xfe
     474:	729a      	strb	r2, [r3, #10]

}
     476:	4770      	bx	lr

00000478 <TC2_Handler>:

void TC2_Handler(void) {
    if (buzzing) {
     478:	f240 03ad 	movw	r3, #173	; 0xad
     47c:	f2c2 0300 	movt	r3, #8192	; 0x2000
     480:	781b      	ldrb	r3, [r3, #0]
     482:	b12b      	cbz	r3, 490 <TC2_Handler+0x18>
}


inline static void pinToggle(Pin p) {
	PORT->Group[p.group].OUTTGL.reg = (1<<p.pin);
     484:	f243 0300 	movw	r3, #12288	; 0x3000
     488:	f2c4 0300 	movt	r3, #16384	; 0x4000
     48c:	2220      	movs	r2, #32
     48e:	61da      	str	r2, [r3, #28]
        pinToggle(BuzzerPin);
    }
    TC2->COUNT16.INTFLAG.reg = TC_INTFLAG_OVF_Msk;
     490:	f641 0300 	movw	r3, #6144	; 0x1800
     494:	f2c4 2300 	movt	r3, #16896	; 0x4200
     498:	2201      	movs	r2, #1
     49a:	729a      	strb	r2, [r3, #10]
}
     49c:	4770      	bx	lr
	...

000004a0 <RTC_Handler>:

void RTC_Handler(void) {
    time_ms += 1000;
     4a0:	f240 0394 	movw	r3, #148	; 0x94
     4a4:	f2c2 0300 	movt	r3, #8192	; 0x2000
     4a8:	681a      	ldr	r2, [r3, #0]
     4aa:	f240 3ce8 	movw	ip, #1000	; 0x3e8
     4ae:	4462      	add	r2, ip
     4b0:	601a      	str	r2, [r3, #0]
    RTC->MODE1.INTFLAG.reg = RTC_MODE1_INTFLAG_OVF_Msk;
     4b2:	f242 4300 	movw	r3, #9216	; 0x2400
     4b6:	f2c4 0300 	movt	r3, #16384	; 0x4000
     4ba:	4a01      	ldr	r2, [pc, #4]	; (4c0 <RTC_Handler+0x20>)
     4bc:	819a      	strh	r2, [r3, #12]
}
     4be:	4770      	bx	lr
     4c0:	ffff8000 	.word	0xffff8000

000004c4 <Dummy_Handler>:

/**
 * \brief Default interrupt handler for unused IRQs.
 */
void Dummy_Handler(void)
{
     4c4:	e7fe      	b.n	4c4 <Dummy_Handler>
	...

000004c8 <Reset_Handler>:
{
     4c8:	b510      	push	{r4, lr}
        if (pSrc != pDest) {
     4ca:	f244 52a8 	movw	r2, #17832	; 0x45a8
     4ce:	f2c0 0200 	movt	r2, #0
     4d2:	f240 0300 	movw	r3, #0
     4d6:	f2c2 0300 	movt	r3, #8192	; 0x2000
     4da:	429a      	cmp	r2, r3
     4dc:	d020      	beq.n	520 <Reset_Handler+0x58>
                for (; pDest < &_erelocate;) {
     4de:	001a      	movs	r2, r3
     4e0:	f240 0374 	movw	r3, #116	; 0x74
     4e4:	f2c2 0300 	movt	r3, #8192	; 0x2000
     4e8:	429a      	cmp	r2, r3
     4ea:	d219      	bcs.n	520 <Reset_Handler+0x58>
     4ec:	f240 0374 	movw	r3, #116	; 0x74
     4f0:	f2c2 0300 	movt	r3, #8192	; 0x2000
     4f4:	3303      	adds	r3, #3
     4f6:	4a24      	ldr	r2, [pc, #144]	; (588 <Reset_Handler+0xc0>)
     4f8:	1a9b      	subs	r3, r3, r2
     4fa:	089b      	lsrs	r3, r3, #2
     4fc:	3301      	adds	r3, #1
     4fe:	009b      	lsls	r3, r3, #2
     500:	2200      	movs	r2, #0
                        *pDest++ = *pSrc++;
     502:	f240 0100 	movw	r1, #0
     506:	f2c2 0100 	movt	r1, #8192	; 0x2000
     50a:	1851      	adds	r1, r2, r1
     50c:	f244 50a8 	movw	r0, #17832	; 0x45a8
     510:	f2c0 0000 	movt	r0, #0
     514:	1810      	adds	r0, r2, r0
     516:	6800      	ldr	r0, [r0, #0]
     518:	6008      	str	r0, [r1, #0]
     51a:	3204      	adds	r2, #4
                for (; pDest < &_erelocate;) {
     51c:	429a      	cmp	r2, r3
     51e:	d1f0      	bne.n	502 <Reset_Handler+0x3a>
        for (pDest = &_szero; pDest < &_ezero;) {
     520:	f240 0278 	movw	r2, #120	; 0x78
     524:	f2c2 0200 	movt	r2, #8192	; 0x2000
     528:	f240 1354 	movw	r3, #340	; 0x154
     52c:	f2c2 0300 	movt	r3, #8192	; 0x2000
     530:	429a      	cmp	r2, r3
     532:	d213      	bcs.n	55c <Reset_Handler+0x94>
     534:	f240 0278 	movw	r2, #120	; 0x78
     538:	f2c2 0200 	movt	r2, #8192	; 0x2000
     53c:	43d3      	mvns	r3, r2
     53e:	f240 1154 	movw	r1, #340	; 0x154
     542:	f2c2 0100 	movt	r1, #8192	; 0x2000
     546:	468c      	mov	ip, r1
     548:	4463      	add	r3, ip
     54a:	2103      	movs	r1, #3
     54c:	438b      	bics	r3, r1
     54e:	3304      	adds	r3, #4
     550:	4694      	mov	ip, r2
     552:	4463      	add	r3, ip
                *pDest++ = 0;
     554:	2100      	movs	r1, #0
     556:	c202      	stmia	r2!, {r1}
        for (pDest = &_szero; pDest < &_ezero;) {
     558:	4293      	cmp	r3, r2
     55a:	d1fc      	bne.n	556 <Reset_Handler+0x8e>
        SCB->VTOR = ((uint32_t) pSrc & SCB_VTOR_TBLOFF_Msk);
     55c:	f240 0300 	movw	r3, #0
     560:	f2c0 0300 	movt	r3, #0
     564:	227f      	movs	r2, #127	; 0x7f
     566:	4393      	bics	r3, r2
     568:	f64e 5200 	movw	r2, #60672	; 0xed00
     56c:	f2ce 0200 	movt	r2, #57344	; 0xe000
     570:	6093      	str	r3, [r2, #8]
        __libc_init_array();
     572:	f244 3305 	movw	r3, #17157	; 0x4305
     576:	f2c0 0300 	movt	r3, #0
     57a:	4798      	blx	r3
        main();
     57c:	f241 230d 	movw	r3, #4621	; 0x120d
     580:	f2c0 0300 	movt	r3, #0
     584:	4798      	blx	r3
     586:	e7fe      	b.n	586 <Reset_Handler+0xbe>
     588:	20000004 	.word	0x20000004

0000058c <SystemInit>:
 *         Initialize the System and update the SystemCoreClock variable.
 */
void SystemInit(void)
{
    // Keep the default device state after reset
    SystemCoreClock = __SYSTEM_CLOCK;
     58c:	f240 0308 	movw	r3, #8
     590:	f2c2 0300 	movt	r3, #8192	; 0x2000
     594:	f640 1200 	movw	r2, #2304	; 0x900
     598:	f2c0 023d 	movt	r2, #61	; 0x3d
     59c:	601a      	str	r2, [r3, #0]
    return;
}
     59e:	4770      	bx	lr

000005a0 <readMS5803AdcResults>:
#include <MS5803.h>
#include <math.h>

u32_t readMS5803AdcResults() {
     5a0:	b5f0      	push	{r4, r5, r6, r7, lr}
     5a2:	46c6      	mov	lr, r8
     5a4:	b500      	push	{lr}
	PORT->Group[p.group].OUTCLR.reg = (1<<p.pin);
     5a6:	f243 0700 	movw	r7, #12288	; 0x3000
     5aa:	f2c4 0700 	movt	r7, #16384	; 0x4000
     5ae:	2480      	movs	r4, #128	; 0x80
     5b0:	02e4      	lsls	r4, r4, #11
     5b2:	617c      	str	r4, [r7, #20]

	pinLow(cs_baro);
	spiDataOut(SPI1, cmdAdcRead_);
     5b4:	2100      	movs	r1, #0
     5b6:	2001      	movs	r0, #1
     5b8:	f640 53dd 	movw	r3, #3549	; 0xddd
     5bc:	f2c0 0300 	movt	r3, #0
     5c0:	4798      	blx	r3
	u8_t _byte1 = spiDataIn(SPI1);
     5c2:	2001      	movs	r0, #1
     5c4:	f640 55f5 	movw	r5, #3573	; 0xdf5
     5c8:	f2c0 0500 	movt	r5, #0
     5cc:	47a8      	blx	r5
     5ce:	4680      	mov	r8, r0
	u8_t _byte2 = spiDataIn(SPI1);
     5d0:	2001      	movs	r0, #1
     5d2:	47a8      	blx	r5
     5d4:	0006      	movs	r6, r0
	u8_t _byte3 = spiDataIn(SPI1);
     5d6:	2001      	movs	r0, #1
     5d8:	47a8      	blx	r5
	PORT->Group[p.group].OUTSET.reg = (1<<p.pin);
     5da:	61bc      	str	r4, [r7, #24]
	pinHigh(cs_baro);

	u32_t _receive = (_byte1 << 16) | (_byte2 << 8) | (_byte3);
     5dc:	4643      	mov	r3, r8
     5de:	041c      	lsls	r4, r3, #16
     5e0:	0236      	lsls	r6, r6, #8
     5e2:	4334      	orrs	r4, r6
     5e4:	4320      	orrs	r0, r4
	return _receive;
}
     5e6:	bc04      	pop	{r2}
     5e8:	4690      	mov	r8, r2
     5ea:	bdf0      	pop	{r4, r5, r6, r7, pc}

000005ec <ConvertPressureTemperature>:

void ConvertPressureTemperature(u32_t pressureRaw, u32_t tempRaw, u32_t* temperatureCelcus, double* pressureMbar ) {
     5ec:	b5f0      	push	{r4, r5, r6, r7, lr}
     5ee:	46de      	mov	lr, fp
     5f0:	4657      	mov	r7, sl
     5f2:	464e      	mov	r6, r9
     5f4:	4645      	mov	r5, r8
     5f6:	b5e0      	push	{r5, r6, r7, lr}
     5f8:	b089      	sub	sp, #36	; 0x24
     5fa:	9001      	str	r0, [sp, #4]
     5fc:	4692      	mov	sl, r2
     5fe:	469b      	mov	fp, r3
	const u16_t C1 = coefficients_[1];
     600:	f240 039c 	movw	r3, #156	; 0x9c
     604:	f2c2 0300 	movt	r3, #8192	; 0x2000
     608:	885a      	ldrh	r2, [r3, #2]
     60a:	4690      	mov	r8, r2
	const u16_t C2 = coefficients_[2];
     60c:	889f      	ldrh	r7, [r3, #4]
	const u16_t C3 = coefficients_[3];
     60e:	88de      	ldrh	r6, [r3, #6]
	const u16_t C4 = coefficients_[4];
     610:	891a      	ldrh	r2, [r3, #8]
     612:	4691      	mov	r9, r2
	const u16_t C5 = coefficients_[5];
	const u16_t C6 = coefficients_[6];
     614:	899a      	ldrh	r2, [r3, #12]

	// calculate 1st order pressure and temperature (MS5607 1st order algorithm)
	volatile const  int32_t dT = (tempRaw) - ((int32_t)C5 << 8);
     616:	895b      	ldrh	r3, [r3, #10]
     618:	021b      	lsls	r3, r3, #8
     61a:	1ac9      	subs	r1, r1, r3
     61c:	9107      	str	r1, [sp, #28]
	*temperatureCelcus  = 2000 + (((int64_t)dT * C6) >> 23) ;
     61e:	9807      	ldr	r0, [sp, #28]
     620:	17c1      	asrs	r1, r0, #31
     622:	f242 6441 	movw	r4, #9793	; 0x2641
     626:	f2c0 0400 	movt	r4, #0
     62a:	2300      	movs	r3, #0
     62c:	47a0      	blx	r4
     62e:	0249      	lsls	r1, r1, #9
     630:	0dc0      	lsrs	r0, r0, #23
     632:	4308      	orrs	r0, r1
     634:	f240 7cd0 	movw	ip, #2000	; 0x7d0
     638:	4460      	add	r0, ip
     63a:	4653      	mov	r3, sl
     63c:	6018      	str	r0, [r3, #0]

	volatile const  int64_t OFF   = ((int64_t)C2 << 16) + ((C4 * (int64_t)dT) >> 7);
     63e:	9a07      	ldr	r2, [sp, #28]
     640:	17d3      	asrs	r3, r2, #31
     642:	4648      	mov	r0, r9
     644:	2100      	movs	r1, #0
     646:	47a0      	blx	r4
     648:	4684      	mov	ip, r0
     64a:	0648      	lsls	r0, r1, #25
     64c:	4665      	mov	r5, ip
     64e:	09ea      	lsrs	r2, r5, #7
     650:	4302      	orrs	r2, r0
     652:	11cb      	asrs	r3, r1, #7
     654:	2100      	movs	r1, #0
     656:	0438      	lsls	r0, r7, #16
     658:	1812      	adds	r2, r2, r0
     65a:	414b      	adcs	r3, r1
     65c:	9204      	str	r2, [sp, #16]
     65e:	9305      	str	r3, [sp, #20]
	volatile const  int64_t SENS  =  ((int64_t)C1 << 15) + ((C3 * (int64_t)dT) >> 8);
     660:	9a07      	ldr	r2, [sp, #28]
     662:	17d3      	asrs	r3, r2, #31
     664:	0030      	movs	r0, r6
     666:	2100      	movs	r1, #0
     668:	47a0      	blx	r4
     66a:	060e      	lsls	r6, r1, #24
     66c:	0a02      	lsrs	r2, r0, #8
     66e:	4332      	orrs	r2, r6
     670:	120b      	asrs	r3, r1, #8
     672:	2100      	movs	r1, #0
     674:	4645      	mov	r5, r8
     676:	03e8      	lsls	r0, r5, #15
     678:	1812      	adds	r2, r2, r0
     67a:	414b      	adcs	r3, r1
     67c:	9202      	str	r2, [sp, #8]
     67e:	9303      	str	r3, [sp, #12]
	*pressureMbar = ((((pressureRaw * SENS) >> 21) - OFF) >> 15);
     680:	9a02      	ldr	r2, [sp, #8]
     682:	9b03      	ldr	r3, [sp, #12]
     684:	9e04      	ldr	r6, [sp, #16]
     686:	9f05      	ldr	r7, [sp, #20]
     688:	9801      	ldr	r0, [sp, #4]
     68a:	2100      	movs	r1, #0
     68c:	47a0      	blx	r4
     68e:	02cc      	lsls	r4, r1, #11
     690:	0d42      	lsrs	r2, r0, #21
     692:	4322      	orrs	r2, r4
     694:	154b      	asrs	r3, r1, #21
     696:	1b92      	subs	r2, r2, r6
     698:	41bb      	sbcs	r3, r7
     69a:	0459      	lsls	r1, r3, #17
     69c:	0bd0      	lsrs	r0, r2, #15
     69e:	4308      	orrs	r0, r1
     6a0:	13d9      	asrs	r1, r3, #15
     6a2:	f242 639d 	movw	r3, #9885	; 0x269d
     6a6:	f2c0 0300 	movt	r3, #0
     6aa:	4798      	blx	r3
	*pressureMbar = *pressureMbar/100;
     6ac:	f243 54d9 	movw	r4, #13785	; 0x35d9
     6b0:	f2c0 0400 	movt	r4, #0
     6b4:	f241 427b 	movw	r2, #5243	; 0x147b
     6b8:	f2c4 72ae 	movt	r2, #18350	; 0x47ae
     6bc:	f647 23e1 	movw	r3, #31457	; 0x7ae1
     6c0:	f6c3 7384 	movt	r3, #16260	; 0x3f84
     6c4:	47a0      	blx	r4
     6c6:	465b      	mov	r3, fp
     6c8:	6018      	str	r0, [r3, #0]
     6ca:	6059      	str	r1, [r3, #4]
}
     6cc:	b009      	add	sp, #36	; 0x24
     6ce:	bc3c      	pop	{r2, r3, r4, r5}
     6d0:	4690      	mov	r8, r2
     6d2:	4699      	mov	r9, r3
     6d4:	46a2      	mov	sl, r4
     6d6:	46ab      	mov	fp, r5
     6d8:	bdf0      	pop	{r4, r5, r6, r7, pc}

000006da <paToFeetNOAA>:

double paToFeetNOAA(double pressureMbar) {
     6da:	b570      	push	{r4, r5, r6, lr}

	double lower =(((double)(pressureMbar))/1013.25);
     6dc:	f243 54d9 	movw	r4, #13785	; 0x35d9
     6e0:	f2c0 0400 	movt	r4, #0
     6e4:	f248 6208 	movw	r2, #34312	; 0x8608
     6e8:	f6cc 12de 	movt	r2, #51678	; 0xc9de
     6ec:	f642 3374 	movw	r3, #11124	; 0x2b74
     6f0:	f6c3 7350 	movt	r3, #16208	; 0x3f50
     6f4:	47a0      	blx	r4
	double exponent = 0.190284;

	double altFeet = (1-pow(lower,exponent))*145366.45;
     6f6:	f64d 523c 	movw	r2, #56636	; 0xdd3c
     6fa:	f2ce 2279 	movt	r2, #57977	; 0xe279
     6fe:	f645 3339 	movw	r3, #23353	; 0x5b39
     702:	f6c3 73c8 	movt	r3, #16328	; 0x3fc8
     706:	f241 25bd 	movw	r5, #4797	; 0x12bd
     70a:	f2c0 0500 	movt	r5, #0
     70e:	47a8      	blx	r5
     710:	0002      	movs	r2, r0
     712:	000b      	movs	r3, r1
     714:	f643 25e9 	movw	r5, #15081	; 0x3ae9
     718:	f2c0 0500 	movt	r5, #0
     71c:	2000      	movs	r0, #0
     71e:	2100      	movs	r1, #0
     720:	f6c3 71f0 	movt	r1, #16368	; 0x3ff0
     724:	47a8      	blx	r5
     726:	f649 129a 	movw	r2, #39322	; 0x999a
     72a:	f6c9 1299 	movt	r2, #39321	; 0x9999
     72e:	f64b 63b3 	movw	r3, #48819	; 0xbeb3
     732:	f2c4 1301 	movt	r3, #16641	; 0x4101
     736:	47a0      	blx	r4
	return altFeet;

}
     738:	bd70      	pop	{r4, r5, r6, pc}
	...

0000073c <readMS5803Coefficients>:



void readMS5803Coefficients() {
     73c:	b5f8      	push	{r3, r4, r5, r6, r7, lr}
     73e:	46de      	mov	lr, fp
     740:	4657      	mov	r7, sl
     742:	464e      	mov	r6, r9
     744:	4645      	mov	r5, r8
     746:	b5e0      	push	{r5, r6, r7, lr}
     748:	4e1d      	ldr	r6, [pc, #116]	; (7c0 <readMS5803Coefficients+0x84>)
     74a:	24a2      	movs	r4, #162	; 0xa2
	PORT->Group[p.group].OUTCLR.reg = (1<<p.pin);
     74c:	f243 0700 	movw	r7, #12288	; 0x3000
     750:	f2c4 0700 	movt	r7, #16384	; 0x4000
     754:	2380      	movs	r3, #128	; 0x80
     756:	02db      	lsls	r3, r3, #11
     758:	4698      	mov	r8, r3
     75a:	4699      	mov	r9, r3
     75c:	464b      	mov	r3, r9
     75e:	617b      	str	r3, [r7, #20]

	for (u8_t coeff_num = 1; coeff_num < 7 ; ++coeff_num ) {
		u8_t _cmd = MS5803_CMD_PROM_READ + ((coeff_num)*2);
		pinLow(cs_baro);
		delay_us(600);
     760:	f240 2058 	movw	r0, #600	; 0x258
     764:	f240 35db 	movw	r5, #987	; 0x3db
     768:	f2c0 0500 	movt	r5, #0
     76c:	47a8      	blx	r5
		spiDataOut(SPI1, _cmd);
     76e:	0021      	movs	r1, r4
     770:	2001      	movs	r0, #1
     772:	f640 53dd 	movw	r3, #3549	; 0xddd
     776:	f2c0 0300 	movt	r3, #0
     77a:	4798      	blx	r3
		delay_us(600);
     77c:	f240 2058 	movw	r0, #600	; 0x258
     780:	47a8      	blx	r5
		u8_t _byte1 = spiDataIn(SPI1);
     782:	2001      	movs	r0, #1
     784:	f640 5af5 	movw	sl, #3573	; 0xdf5
     788:	f2c0 0a00 	movt	sl, #0
     78c:	47d0      	blx	sl
     78e:	4683      	mov	fp, r0
		u8_t _byte2 = spiDataIn(SPI1);
     790:	2001      	movs	r0, #1
     792:	47d0      	blx	sl
     794:	4682      	mov	sl, r0
	PORT->Group[p.group].OUTSET.reg = (1<<p.pin);
     796:	4643      	mov	r3, r8
     798:	61bb      	str	r3, [r7, #24]
		pinHigh(cs_baro);
		delay_us(600);
     79a:	f240 2058 	movw	r0, #600	; 0x258
     79e:	47a8      	blx	r5

		coefficients_[coeff_num] = (_byte1 << 8) | _byte2;
     7a0:	465b      	mov	r3, fp
     7a2:	021d      	lsls	r5, r3, #8
     7a4:	4653      	mov	r3, sl
     7a6:	431d      	orrs	r5, r3
     7a8:	8035      	strh	r5, [r6, #0]
     7aa:	3402      	adds	r4, #2
     7ac:	b2e4      	uxtb	r4, r4
     7ae:	3602      	adds	r6, #2
	for (u8_t coeff_num = 1; coeff_num < 7 ; ++coeff_num ) {
     7b0:	2cae      	cmp	r4, #174	; 0xae
     7b2:	d1d3      	bne.n	75c <readMS5803Coefficients+0x20>
	}

}
     7b4:	bc3c      	pop	{r2, r3, r4, r5}
     7b6:	4690      	mov	r8, r2
     7b8:	4699      	mov	r9, r3
     7ba:	46a2      	mov	sl, r4
     7bc:	46ab      	mov	fp, r5
     7be:	bdf8      	pop	{r3, r4, r5, r6, r7, pc}
     7c0:	2000009e 	.word	0x2000009e

000007c4 <initMS5803Barometer>:

void initMS5803Barometer() {
     7c4:	b570      	push	{r4, r5, r6, lr}
	PORT->Group[p.group].OUTCLR.reg = (1<<p.pin);
     7c6:	f243 0400 	movw	r4, #12288	; 0x3000
     7ca:	f2c4 0400 	movt	r4, #16384	; 0x4000
     7ce:	2580      	movs	r5, #128	; 0x80
     7d0:	02ed      	lsls	r5, r5, #11
     7d2:	6165      	str	r5, [r4, #20]


	pinLow(cs_baro);
	spiDataOut(SPI1, MS5803_CMD_RES);
     7d4:	211e      	movs	r1, #30
     7d6:	2001      	movs	r0, #1
     7d8:	f640 53dd 	movw	r3, #3549	; 0xddd
     7dc:	f2c0 0300 	movt	r3, #0
     7e0:	4798      	blx	r3
	PORT->Group[p.group].OUTSET.reg = (1<<p.pin);
     7e2:	61a5      	str	r5, [r4, #24]

	pinHigh(cs_baro);
	delay_ms(300);
     7e4:	f240 102c 	movw	r0, #300	; 0x12c
     7e8:	f240 33a7 	movw	r3, #935	; 0x3a7
     7ec:	f2c0 0300 	movt	r3, #0
     7f0:	4798      	blx	r3
	readMS5803Coefficients();
     7f2:	f240 733d 	movw	r3, #1853	; 0x73d
     7f6:	f2c0 0300 	movt	r3, #0
     7fa:	4798      	blx	r3
	

}
     7fc:	bd70      	pop	{r4, r5, r6, pc}

000007fe <GPSInit>:
        }
    }
    return nextComma;
}

void GPSInit() {
     7fe:	b570      	push	{r4, r5, r6, lr}
     800:	b09e      	sub	sp, #120	; 0x78

    u8_t PM2CONFIG[52] = {
     802:	f244 34a8 	movw	r4, #17320	; 0x43a8
     806:	f2c0 0400 	movt	r4, #0
     80a:	2234      	movs	r2, #52	; 0x34
     80c:	0021      	movs	r1, r4
     80e:	a811      	add	r0, sp, #68	; 0x44
     810:	f244 3355 	movw	r3, #17237	; 0x4355
     814:	f2c0 0300 	movt	r3, #0
     818:	4798      	blx	r3
        0x00, 0x00, 0x2C, 0x01, 0x00, 0x00, 0x4F, 0xC1, 0x03, 0x00, 0x86, 0x02, 0x00, 0x00,
        0xFE, 0x00, 0x00, 0x00, 0x64, 0x40, 0x01, 0x00, 0x0C, 0x2A
    };


    u8_t GLLOFF[16] = {0xB5, 0x62, 0x06, 0x01, 0x08, 0x00, 0xF0, 0x01, 0x00, 0x00, 0x00, 0x00, 0x00, 0x00, 0x00,  0x2A};
     81a:	aa0d      	add	r2, sp, #52	; 0x34
     81c:	0023      	movs	r3, r4
     81e:	3334      	adds	r3, #52	; 0x34
     820:	cb23      	ldmia	r3!, {r0, r1, r5}
     822:	c223      	stmia	r2!, {r0, r1, r5}
     824:	681b      	ldr	r3, [r3, #0]
     826:	6013      	str	r3, [r2, #0]
    u8_t GSAOFF[16] = {0xB5, 0x62, 0x06, 0x01, 0x08, 0x00, 0xF0, 0x02, 0x00, 0x00, 0x00, 0x00, 0x00, 0x00, 0x01, 0x31};
     828:	aa09      	add	r2, sp, #36	; 0x24
     82a:	0023      	movs	r3, r4
     82c:	3344      	adds	r3, #68	; 0x44
     82e:	cb23      	ldmia	r3!, {r0, r1, r5}
     830:	c223      	stmia	r2!, {r0, r1, r5}
     832:	681b      	ldr	r3, [r3, #0]
     834:	6013      	str	r3, [r2, #0]
    u8_t GSVOFF[16] = {0xB5, 0x62, 0x06, 0x01, 0x08, 0x00, 0xF0, 0x03, 0x00, 0x00, 0x00, 0x00, 0x00, 0x00, 0x02, 0x38};
     836:	aa05      	add	r2, sp, #20
     838:	0023      	movs	r3, r4
     83a:	3354      	adds	r3, #84	; 0x54
     83c:	cb23      	ldmia	r3!, {r0, r1, r5}
     83e:	c223      	stmia	r2!, {r0, r1, r5}
     840:	681b      	ldr	r3, [r3, #0]
     842:	6013      	str	r3, [r2, #0]
    u8_t VTGOFF[16] = {0xB5, 0x62, 0x06, 0x01, 0x08, 0x00, 0xF0, 0x05, 0x00, 0x00, 0x00, 0x00, 0x00, 0x00, 0x04, 0x46};
     844:	ab01      	add	r3, sp, #4
     846:	3464      	adds	r4, #100	; 0x64
     848:	cc07      	ldmia	r4!, {r0, r1, r2}
     84a:	c307      	stmia	r3!, {r0, r1, r2}
     84c:	001a      	movs	r2, r3
     84e:	6823      	ldr	r3, [r4, #0]
     850:	6013      	str	r3, [r2, #0]
     852:	ac11      	add	r4, sp, #68	; 0x44
     854:	ae1e      	add	r6, sp, #120	; 0x78


    for (u8_t i = 0 ; i < 52; i++) {
        usartDataOut(2, PM2CONFIG[i]);
     856:	f640 65a9 	movw	r5, #3753	; 0xea9
     85a:	f2c0 0500 	movt	r5, #0
     85e:	7821      	ldrb	r1, [r4, #0]
     860:	2002      	movs	r0, #2
     862:	47a8      	blx	r5
     864:	3401      	adds	r4, #1
    for (u8_t i = 0 ; i < 52; i++) {
     866:	42b4      	cmp	r4, r6
     868:	d1f9      	bne.n	85e <GPSInit+0x60>
    }
    delay_ms(200);
     86a:	20c8      	movs	r0, #200	; 0xc8
     86c:	f240 33a7 	movw	r3, #935	; 0x3a7
     870:	f2c0 0300 	movt	r3, #0
     874:	4798      	blx	r3
     876:	ac0d      	add	r4, sp, #52	; 0x34
     878:	ae11      	add	r6, sp, #68	; 0x44
     for (u8_t i = 0 ; i < 16; i++) {
         usartDataOut(2, GLLOFF[i]);
     87a:	f640 65a9 	movw	r5, #3753	; 0xea9
     87e:	f2c0 0500 	movt	r5, #0
     882:	7821      	ldrb	r1, [r4, #0]
     884:	2002      	movs	r0, #2
     886:	47a8      	blx	r5
     888:	3401      	adds	r4, #1
     for (u8_t i = 0 ; i < 16; i++) {
     88a:	42b4      	cmp	r4, r6
     88c:	d1f9      	bne.n	882 <GPSInit+0x84>
     }
     delay_ms(200);
     88e:	20c8      	movs	r0, #200	; 0xc8
     890:	f240 33a7 	movw	r3, #935	; 0x3a7
     894:	f2c0 0300 	movt	r3, #0
     898:	4798      	blx	r3
     89a:	ac09      	add	r4, sp, #36	; 0x24
     89c:	ae0d      	add	r6, sp, #52	; 0x34
     for (u8_t i = 0 ; i < 16; i++) {
         usartDataOut(2, GSAOFF[i]);
     89e:	f640 65a9 	movw	r5, #3753	; 0xea9
     8a2:	f2c0 0500 	movt	r5, #0
     8a6:	7821      	ldrb	r1, [r4, #0]
     8a8:	2002      	movs	r0, #2
     8aa:	47a8      	blx	r5
     8ac:	3401      	adds	r4, #1
     for (u8_t i = 0 ; i < 16; i++) {
     8ae:	42b4      	cmp	r4, r6
     8b0:	d1f9      	bne.n	8a6 <GPSInit+0xa8>
     }
     delay_ms(200);
     8b2:	20c8      	movs	r0, #200	; 0xc8
     8b4:	f240 33a7 	movw	r3, #935	; 0x3a7
     8b8:	f2c0 0300 	movt	r3, #0
     8bc:	4798      	blx	r3
     8be:	ac05      	add	r4, sp, #20
     8c0:	ae09      	add	r6, sp, #36	; 0x24
     for (u8_t i = 0 ; i < 16; i++) {
         usartDataOut(2, GSVOFF[i]);
     8c2:	f640 65a9 	movw	r5, #3753	; 0xea9
     8c6:	f2c0 0500 	movt	r5, #0
     8ca:	7821      	ldrb	r1, [r4, #0]
     8cc:	2002      	movs	r0, #2
     8ce:	47a8      	blx	r5
     8d0:	3401      	adds	r4, #1
     for (u8_t i = 0 ; i < 16; i++) {
     8d2:	42b4      	cmp	r4, r6
     8d4:	d1f9      	bne.n	8ca <GPSInit+0xcc>
     8d6:	ac01      	add	r4, sp, #4
     8d8:	ae05      	add	r6, sp, #20
     }
     for (u8_t i = 0 ; i < 16; i++) {
         usartDataOut(2, VTGOFF[i]);
     8da:	f640 65a9 	movw	r5, #3753	; 0xea9
     8de:	f2c0 0500 	movt	r5, #0
     8e2:	7821      	ldrb	r1, [r4, #0]
     8e4:	2002      	movs	r0, #2
     8e6:	47a8      	blx	r5
     8e8:	3401      	adds	r4, #1
     for (u8_t i = 0 ; i < 16; i++) {
     8ea:	42a6      	cmp	r6, r4
     8ec:	d1f9      	bne.n	8e2 <GPSInit+0xe4>
     }




}
     8ee:	b01e      	add	sp, #120	; 0x78
     8f0:	bd70      	pop	{r4, r5, r6, pc}
	...

000008f4 <parseGPSMessage>:

u8_t BYPASSDATAIN(SercomId id) {
    return sercom(id)->USART.DATA.reg;
}

void parseGPSMessage() {
     8f4:	b570      	push	{r4, r5, r6, lr}
     8f6:	4c8b      	ldr	r4, [pc, #556]	; (b24 <parseGPSMessage+0x230>)
     8f8:	44a5      	add	sp, r4

    if(sercom(2)->USART.INTFLAG.bit.RXC == 1) {
     8fa:	f640 4300 	movw	r3, #3072	; 0xc00
     8fe:	f2c4 2300 	movt	r3, #16896	; 0x4200
     902:	7e1b      	ldrb	r3, [r3, #24]
     904:	075b      	lsls	r3, r3, #29
     906:	d403      	bmi.n	910 <parseGPSMessage+0x1c>

            myMessage.messageReady = true;

        }
    }
}
     908:	f240 2358 	movw	r3, #600	; 0x258
     90c:	449d      	add	sp, r3
     90e:	bd70      	pop	{r4, r5, r6, pc}
     910:	2500      	movs	r5, #0
            while(sercom(2)->SPI.INTFLAG.bit.RXC == 0);
     912:	f640 4400 	movw	r4, #3072	; 0xc00
     916:	f2c4 2400 	movt	r4, #16896	; 0x4200
            u8_t digit = usartDataIn(2);
     91a:	f640 66c1 	movw	r6, #3777	; 0xec1
     91e:	f2c0 0600 	movt	r6, #0
            while(sercom(2)->SPI.INTFLAG.bit.RXC == 0);
     922:	7e23      	ldrb	r3, [r4, #24]
     924:	075b      	lsls	r3, r3, #29
     926:	d5fc      	bpl.n	922 <parseGPSMessage+0x2e>
            u8_t digit = usartDataIn(2);
     928:	2002      	movs	r0, #2
     92a:	47b0      	blx	r6
            if (digit == 0x0A ) {
     92c:	280a      	cmp	r0, #10
     92e:	d004      	beq.n	93a <parseGPSMessage+0x46>
            message[i] = digit;
     930:	466b      	mov	r3, sp
     932:	5558      	strb	r0, [r3, r5]
            messageLength++;
     934:	3501      	adds	r5, #1
     936:	b2ed      	uxtb	r5, r5
        for (u8_t i = 0; i < 600; i++) {
     938:	e7f3      	b.n	922 <parseGPSMessage+0x2e>
        if (message[3] == 0x52 || message[4] == 0x4d) {
     93a:	466b      	mov	r3, sp
     93c:	78dc      	ldrb	r4, [r3, #3]
     93e:	2c52      	cmp	r4, #82	; 0x52
     940:	d100      	bne.n	944 <parseGPSMessage+0x50>
     942:	e101      	b.n	b48 <parseGPSMessage+0x254>
     944:	466b      	mov	r3, sp
     946:	791b      	ldrb	r3, [r3, #4]
     948:	2b4d      	cmp	r3, #77	; 0x4d
     94a:	d100      	bne.n	94e <parseGPSMessage+0x5a>
     94c:	e0fc      	b.n	b48 <parseGPSMessage+0x254>
        char *msgToParse = message;
     94e:	466d      	mov	r5, sp
        if (message[3] == 0x47 || message[4] == 0x47) {
     950:	2c47      	cmp	r4, #71	; 0x47
     952:	d003      	beq.n	95c <parseGPSMessage+0x68>
     954:	466b      	mov	r3, sp
     956:	791b      	ldrb	r3, [r3, #4]
     958:	2b47      	cmp	r3, #71	; 0x47
     95a:	d1d5      	bne.n	908 <parseGPSMessage+0x14>
        if (message[i] == 0x2C) {
     95c:	466b      	mov	r3, sp
     95e:	781b      	ldrb	r3, [r3, #0]
     960:	2b2c      	cmp	r3, #44	; 0x2c
     962:	d00a      	beq.n	97a <parseGPSMessage+0x86>
     964:	2300      	movs	r3, #0
    for (u8_t i = 0;; i++) {
     966:	3301      	adds	r3, #1
     968:	b2db      	uxtb	r3, r3
        if (message[i] == 0x2C) {
     96a:	aa96      	add	r2, sp, #600	; 0x258
     96c:	18d2      	adds	r2, r2, r3
     96e:	496d      	ldr	r1, [pc, #436]	; (b24 <parseGPSMessage+0x230>)
     970:	468c      	mov	ip, r1
     972:	4462      	add	r2, ip
     974:	7812      	ldrb	r2, [r2, #0]
     976:	2a2c      	cmp	r2, #44	; 0x2c
     978:	d1f5      	bne.n	966 <parseGPSMessage+0x72>
            msgToParse = strchr(msgToParse,',') + 1;
     97a:	212c      	movs	r1, #44	; 0x2c
     97c:	0028      	movs	r0, r5
     97e:	f244 3367 	movw	r3, #17255	; 0x4367
     982:	f2c0 0300 	movt	r3, #0
     986:	4798      	blx	r3
     988:	1c44      	adds	r4, r0, #1
        if (message[i] == 0x2C) {
     98a:	7843      	ldrb	r3, [r0, #1]
     98c:	2b2c      	cmp	r3, #44	; 0x2c
     98e:	d100      	bne.n	992 <parseGPSMessage+0x9e>
     990:	e1c9      	b.n	d26 <parseGPSMessage+0x432>
     992:	2300      	movs	r3, #0
    for (u8_t i = 0;; i++) {
     994:	3301      	adds	r3, #1
     996:	b2db      	uxtb	r3, r3
        if (message[i] == 0x2C) {
     998:	001a      	movs	r2, r3
     99a:	5ce1      	ldrb	r1, [r4, r3]
     99c:	292c      	cmp	r1, #44	; 0x2c
     99e:	d1f9      	bne.n	994 <parseGPSMessage+0xa0>
            strncpy(myMessage.time,msgToParse,nextComma);
     9a0:	0021      	movs	r1, r4
     9a2:	4861      	ldr	r0, [pc, #388]	; (b28 <parseGPSMessage+0x234>)
     9a4:	f244 3381 	movw	r3, #17281	; 0x4381
     9a8:	f2c0 0300 	movt	r3, #0
     9ac:	4798      	blx	r3
            msgToParse = strchr(msgToParse,',') + 1;
     9ae:	212c      	movs	r1, #44	; 0x2c
     9b0:	0020      	movs	r0, r4
     9b2:	f244 3367 	movw	r3, #17255	; 0x4367
     9b6:	f2c0 0300 	movt	r3, #0
     9ba:	4798      	blx	r3
     9bc:	1c44      	adds	r4, r0, #1
        if (message[i] == 0x2C) {
     9be:	7843      	ldrb	r3, [r0, #1]
     9c0:	2b2c      	cmp	r3, #44	; 0x2c
     9c2:	d100      	bne.n	9c6 <parseGPSMessage+0xd2>
     9c4:	e1b1      	b.n	d2a <parseGPSMessage+0x436>
     9c6:	2300      	movs	r3, #0
    for (u8_t i = 0;; i++) {
     9c8:	3301      	adds	r3, #1
     9ca:	b2db      	uxtb	r3, r3
        if (message[i] == 0x2C) {
     9cc:	001a      	movs	r2, r3
     9ce:	5ce1      	ldrb	r1, [r4, r3]
     9d0:	292c      	cmp	r1, #44	; 0x2c
     9d2:	d1f9      	bne.n	9c8 <parseGPSMessage+0xd4>
            strncpy(myMessage.quality,msgToParse,nextComma);
     9d4:	0021      	movs	r1, r4
     9d6:	4855      	ldr	r0, [pc, #340]	; (b2c <parseGPSMessage+0x238>)
     9d8:	f244 3381 	movw	r3, #17281	; 0x4381
     9dc:	f2c0 0300 	movt	r3, #0
     9e0:	4798      	blx	r3
            msgToParse = strchr(msgToParse,',') + 1;
     9e2:	212c      	movs	r1, #44	; 0x2c
     9e4:	0020      	movs	r0, r4
     9e6:	f244 3367 	movw	r3, #17255	; 0x4367
     9ea:	f2c0 0300 	movt	r3, #0
     9ee:	4798      	blx	r3
     9f0:	1c44      	adds	r4, r0, #1
        if (message[i] == 0x2C) {
     9f2:	7843      	ldrb	r3, [r0, #1]
     9f4:	2b2c      	cmp	r3, #44	; 0x2c
     9f6:	d100      	bne.n	9fa <parseGPSMessage+0x106>
     9f8:	e199      	b.n	d2e <parseGPSMessage+0x43a>
     9fa:	2300      	movs	r3, #0
    for (u8_t i = 0;; i++) {
     9fc:	3301      	adds	r3, #1
     9fe:	b2db      	uxtb	r3, r3
        if (message[i] == 0x2C) {
     a00:	001a      	movs	r2, r3
     a02:	5ce1      	ldrb	r1, [r4, r3]
     a04:	292c      	cmp	r1, #44	; 0x2c
     a06:	d1f9      	bne.n	9fc <parseGPSMessage+0x108>
            strncpy(myMessage.lat,msgToParse,nextComma);
     a08:	0021      	movs	r1, r4
     a0a:	4849      	ldr	r0, [pc, #292]	; (b30 <parseGPSMessage+0x23c>)
     a0c:	f244 3381 	movw	r3, #17281	; 0x4381
     a10:	f2c0 0300 	movt	r3, #0
     a14:	4798      	blx	r3
            msgToParse = strchr(msgToParse,',') + 1;
     a16:	212c      	movs	r1, #44	; 0x2c
     a18:	0020      	movs	r0, r4
     a1a:	f244 3367 	movw	r3, #17255	; 0x4367
     a1e:	f2c0 0300 	movt	r3, #0
     a22:	4798      	blx	r3
     a24:	1c44      	adds	r4, r0, #1
        if (message[i] == 0x2C) {
     a26:	7843      	ldrb	r3, [r0, #1]
     a28:	2b2c      	cmp	r3, #44	; 0x2c
     a2a:	d100      	bne.n	a2e <parseGPSMessage+0x13a>
     a2c:	e181      	b.n	d32 <parseGPSMessage+0x43e>
     a2e:	2300      	movs	r3, #0
    for (u8_t i = 0;; i++) {
     a30:	3301      	adds	r3, #1
     a32:	b2db      	uxtb	r3, r3
        if (message[i] == 0x2C) {
     a34:	001a      	movs	r2, r3
     a36:	5ce1      	ldrb	r1, [r4, r3]
     a38:	292c      	cmp	r1, #44	; 0x2c
     a3a:	d1f9      	bne.n	a30 <parseGPSMessage+0x13c>
            strncpy(myMessage.northSouth,msgToParse,nextComma);
     a3c:	0021      	movs	r1, r4
     a3e:	483d      	ldr	r0, [pc, #244]	; (b34 <parseGPSMessage+0x240>)
     a40:	f244 3381 	movw	r3, #17281	; 0x4381
     a44:	f2c0 0300 	movt	r3, #0
     a48:	4798      	blx	r3
            msgToParse = strchr(msgToParse,',') + 1;
     a4a:	212c      	movs	r1, #44	; 0x2c
     a4c:	0020      	movs	r0, r4
     a4e:	f244 3367 	movw	r3, #17255	; 0x4367
     a52:	f2c0 0300 	movt	r3, #0
     a56:	4798      	blx	r3
     a58:	1c44      	adds	r4, r0, #1
        if (message[i] == 0x2C) {
     a5a:	7843      	ldrb	r3, [r0, #1]
     a5c:	2b2c      	cmp	r3, #44	; 0x2c
     a5e:	d100      	bne.n	a62 <parseGPSMessage+0x16e>
     a60:	e169      	b.n	d36 <parseGPSMessage+0x442>
     a62:	2300      	movs	r3, #0
    for (u8_t i = 0;; i++) {
     a64:	3301      	adds	r3, #1
     a66:	b2db      	uxtb	r3, r3
        if (message[i] == 0x2C) {
     a68:	001a      	movs	r2, r3
     a6a:	5ce1      	ldrb	r1, [r4, r3]
     a6c:	292c      	cmp	r1, #44	; 0x2c
     a6e:	d1f9      	bne.n	a64 <parseGPSMessage+0x170>
            strncpy(myMessage.longitude,msgToParse,nextComma);
     a70:	0021      	movs	r1, r4
     a72:	4831      	ldr	r0, [pc, #196]	; (b38 <parseGPSMessage+0x244>)
     a74:	f244 3381 	movw	r3, #17281	; 0x4381
     a78:	f2c0 0300 	movt	r3, #0
     a7c:	4798      	blx	r3
            msgToParse = strchr(msgToParse,',') + 1;
     a7e:	212c      	movs	r1, #44	; 0x2c
     a80:	0020      	movs	r0, r4
     a82:	f244 3367 	movw	r3, #17255	; 0x4367
     a86:	f2c0 0300 	movt	r3, #0
     a8a:	4798      	blx	r3
     a8c:	1c44      	adds	r4, r0, #1
        if (message[i] == 0x2C) {
     a8e:	7843      	ldrb	r3, [r0, #1]
     a90:	2b2c      	cmp	r3, #44	; 0x2c
     a92:	d100      	bne.n	a96 <parseGPSMessage+0x1a2>
     a94:	e151      	b.n	d3a <parseGPSMessage+0x446>
     a96:	2300      	movs	r3, #0
    for (u8_t i = 0;; i++) {
     a98:	3301      	adds	r3, #1
     a9a:	b2db      	uxtb	r3, r3
        if (message[i] == 0x2C) {
     a9c:	001a      	movs	r2, r3
     a9e:	5ce1      	ldrb	r1, [r4, r3]
     aa0:	292c      	cmp	r1, #44	; 0x2c
     aa2:	d1f9      	bne.n	a98 <parseGPSMessage+0x1a4>
            strncpy(myMessage.eastWest,msgToParse,nextComma);
     aa4:	0021      	movs	r1, r4
     aa6:	4825      	ldr	r0, [pc, #148]	; (b3c <parseGPSMessage+0x248>)
     aa8:	f244 3381 	movw	r3, #17281	; 0x4381
     aac:	f2c0 0300 	movt	r3, #0
     ab0:	4798      	blx	r3
            msgToParse = strchr(msgToParse,',') + 1;
     ab2:	212c      	movs	r1, #44	; 0x2c
     ab4:	0020      	movs	r0, r4
     ab6:	f244 3367 	movw	r3, #17255	; 0x4367
     aba:	f2c0 0300 	movt	r3, #0
     abe:	4798      	blx	r3
     ac0:	1c44      	adds	r4, r0, #1
        if (message[i] == 0x2C) {
     ac2:	7843      	ldrb	r3, [r0, #1]
     ac4:	2b2c      	cmp	r3, #44	; 0x2c
     ac6:	d100      	bne.n	aca <parseGPSMessage+0x1d6>
     ac8:	e139      	b.n	d3e <parseGPSMessage+0x44a>
     aca:	2300      	movs	r3, #0
    for (u8_t i = 0;; i++) {
     acc:	3301      	adds	r3, #1
     ace:	b2db      	uxtb	r3, r3
        if (message[i] == 0x2C) {
     ad0:	001a      	movs	r2, r3
     ad2:	5ce1      	ldrb	r1, [r4, r3]
     ad4:	292c      	cmp	r1, #44	; 0x2c
     ad6:	d1f9      	bne.n	acc <parseGPSMessage+0x1d8>
            strncpy(myMessage.speedOverGround,msgToParse,nextComma);
     ad8:	0021      	movs	r1, r4
     ada:	4819      	ldr	r0, [pc, #100]	; (b40 <parseGPSMessage+0x24c>)
     adc:	f244 3381 	movw	r3, #17281	; 0x4381
     ae0:	f2c0 0300 	movt	r3, #0
     ae4:	4798      	blx	r3
            msgToParse = strchr(msgToParse,',') + 1;
     ae6:	212c      	movs	r1, #44	; 0x2c
     ae8:	0020      	movs	r0, r4
     aea:	f244 3367 	movw	r3, #17255	; 0x4367
     aee:	f2c0 0300 	movt	r3, #0
     af2:	4798      	blx	r3
     af4:	1c41      	adds	r1, r0, #1
        if (message[i] == 0x2C) {
     af6:	7843      	ldrb	r3, [r0, #1]
     af8:	2b2c      	cmp	r3, #44	; 0x2c
     afa:	d100      	bne.n	afe <parseGPSMessage+0x20a>
     afc:	e121      	b.n	d42 <parseGPSMessage+0x44e>
     afe:	2300      	movs	r3, #0
    for (u8_t i = 0;; i++) {
     b00:	3301      	adds	r3, #1
     b02:	b2db      	uxtb	r3, r3
        if (message[i] == 0x2C) {
     b04:	001a      	movs	r2, r3
     b06:	5cc8      	ldrb	r0, [r1, r3]
     b08:	282c      	cmp	r0, #44	; 0x2c
     b0a:	d1f9      	bne.n	b00 <parseGPSMessage+0x20c>
            strncpy(myMessage.courseOverGround,msgToParse,nextComma);
     b0c:	4c0d      	ldr	r4, [pc, #52]	; (b44 <parseGPSMessage+0x250>)
     b0e:	0020      	movs	r0, r4
     b10:	f244 3381 	movw	r3, #17281	; 0x4381
     b14:	f2c0 0300 	movt	r3, #0
     b18:	4798      	blx	r3
            myMessage.messageReady = true;
     b1a:	3c47      	subs	r4, #71	; 0x47
     b1c:	2301      	movs	r3, #1
     b1e:	7063      	strb	r3, [r4, #1]
}
     b20:	e6f2      	b.n	908 <parseGPSMessage+0x14>
     b22:	46c0      	nop			; (mov r8, r8)
     b24:	fffffda8 	.word	0xfffffda8
     b28:	2000010c 	.word	0x2000010c
     b2c:	2000012c 	.word	0x2000012c
     b30:	20000115 	.word	0x20000115
     b34:	2000011f 	.word	0x2000011f
     b38:	20000120 	.word	0x20000120
     b3c:	2000012b 	.word	0x2000012b
     b40:	2000013d 	.word	0x2000013d
     b44:	20000147 	.word	0x20000147
        if (message[i] == 0x2C) {
     b48:	466b      	mov	r3, sp
     b4a:	781b      	ldrb	r3, [r3, #0]
     b4c:	2b2c      	cmp	r3, #44	; 0x2c
     b4e:	d00a      	beq.n	b66 <parseGPSMessage+0x272>
     b50:	2300      	movs	r3, #0
    for (u8_t i = 0;; i++) {
     b52:	3301      	adds	r3, #1
     b54:	b2db      	uxtb	r3, r3
        if (message[i] == 0x2C) {
     b56:	aa96      	add	r2, sp, #600	; 0x258
     b58:	18d2      	adds	r2, r2, r3
     b5a:	497b      	ldr	r1, [pc, #492]	; (d48 <parseGPSMessage+0x454>)
     b5c:	468c      	mov	ip, r1
     b5e:	4462      	add	r2, ip
     b60:	7812      	ldrb	r2, [r2, #0]
     b62:	2a2c      	cmp	r2, #44	; 0x2c
     b64:	d1f5      	bne.n	b52 <parseGPSMessage+0x25e>
            msgToParse = strchr(msgToParse,',') + 1;
     b66:	212c      	movs	r1, #44	; 0x2c
     b68:	4668      	mov	r0, sp
     b6a:	f244 3367 	movw	r3, #17255	; 0x4367
     b6e:	f2c0 0300 	movt	r3, #0
     b72:	4798      	blx	r3
     b74:	1c45      	adds	r5, r0, #1
        if (message[i] == 0x2C) {
     b76:	7843      	ldrb	r3, [r0, #1]
     b78:	2b2c      	cmp	r3, #44	; 0x2c
     b7a:	d100      	bne.n	b7e <parseGPSMessage+0x28a>
     b7c:	e0c3      	b.n	d06 <parseGPSMessage+0x412>
     b7e:	2300      	movs	r3, #0
    for (u8_t i = 0;; i++) {
     b80:	3301      	adds	r3, #1
     b82:	b2db      	uxtb	r3, r3
        if (message[i] == 0x2C) {
     b84:	001a      	movs	r2, r3
     b86:	5ce9      	ldrb	r1, [r5, r3]
     b88:	292c      	cmp	r1, #44	; 0x2c
     b8a:	d1f9      	bne.n	b80 <parseGPSMessage+0x28c>
            strncpy(myMessage.time,msgToParse,nextComma);
     b8c:	0029      	movs	r1, r5
     b8e:	486f      	ldr	r0, [pc, #444]	; (d4c <parseGPSMessage+0x458>)
     b90:	f244 3381 	movw	r3, #17281	; 0x4381
     b94:	f2c0 0300 	movt	r3, #0
     b98:	4798      	blx	r3
            msgToParse = strchr(msgToParse,',') + 1;
     b9a:	212c      	movs	r1, #44	; 0x2c
     b9c:	0028      	movs	r0, r5
     b9e:	f244 3367 	movw	r3, #17255	; 0x4367
     ba2:	f2c0 0300 	movt	r3, #0
     ba6:	4798      	blx	r3
     ba8:	1c45      	adds	r5, r0, #1
        if (message[i] == 0x2C) {
     baa:	7843      	ldrb	r3, [r0, #1]
     bac:	2b2c      	cmp	r3, #44	; 0x2c
     bae:	d100      	bne.n	bb2 <parseGPSMessage+0x2be>
     bb0:	e0ab      	b.n	d0a <parseGPSMessage+0x416>
     bb2:	2300      	movs	r3, #0
    for (u8_t i = 0;; i++) {
     bb4:	3301      	adds	r3, #1
     bb6:	b2db      	uxtb	r3, r3
        if (message[i] == 0x2C) {
     bb8:	001a      	movs	r2, r3
     bba:	5ce9      	ldrb	r1, [r5, r3]
     bbc:	292c      	cmp	r1, #44	; 0x2c
     bbe:	d1f9      	bne.n	bb4 <parseGPSMessage+0x2c0>
            strncpy(myMessage.quality,msgToParse,nextComma);
     bc0:	0029      	movs	r1, r5
     bc2:	4863      	ldr	r0, [pc, #396]	; (d50 <parseGPSMessage+0x45c>)
     bc4:	f244 3381 	movw	r3, #17281	; 0x4381
     bc8:	f2c0 0300 	movt	r3, #0
     bcc:	4798      	blx	r3
            msgToParse = strchr(msgToParse,',') + 1;
     bce:	212c      	movs	r1, #44	; 0x2c
     bd0:	0028      	movs	r0, r5
     bd2:	f244 3367 	movw	r3, #17255	; 0x4367
     bd6:	f2c0 0300 	movt	r3, #0
     bda:	4798      	blx	r3
     bdc:	1c45      	adds	r5, r0, #1
        if (message[i] == 0x2C) {
     bde:	7843      	ldrb	r3, [r0, #1]
     be0:	2b2c      	cmp	r3, #44	; 0x2c
     be2:	d100      	bne.n	be6 <parseGPSMessage+0x2f2>
     be4:	e093      	b.n	d0e <parseGPSMessage+0x41a>
     be6:	2300      	movs	r3, #0
    for (u8_t i = 0;; i++) {
     be8:	3301      	adds	r3, #1
     bea:	b2db      	uxtb	r3, r3
        if (message[i] == 0x2C) {
     bec:	001a      	movs	r2, r3
     bee:	5ce9      	ldrb	r1, [r5, r3]
     bf0:	292c      	cmp	r1, #44	; 0x2c
     bf2:	d1f9      	bne.n	be8 <parseGPSMessage+0x2f4>
            strncpy(myMessage.lat,msgToParse,nextComma);
     bf4:	0029      	movs	r1, r5
     bf6:	4857      	ldr	r0, [pc, #348]	; (d54 <parseGPSMessage+0x460>)
     bf8:	f244 3381 	movw	r3, #17281	; 0x4381
     bfc:	f2c0 0300 	movt	r3, #0
     c00:	4798      	blx	r3
            msgToParse = strchr(msgToParse,',') + 1;
     c02:	212c      	movs	r1, #44	; 0x2c
     c04:	0028      	movs	r0, r5
     c06:	f244 3367 	movw	r3, #17255	; 0x4367
     c0a:	f2c0 0300 	movt	r3, #0
     c0e:	4798      	blx	r3
     c10:	1c45      	adds	r5, r0, #1
        if (message[i] == 0x2C) {
     c12:	7843      	ldrb	r3, [r0, #1]
     c14:	2b2c      	cmp	r3, #44	; 0x2c
     c16:	d07c      	beq.n	d12 <parseGPSMessage+0x41e>
     c18:	2300      	movs	r3, #0
    for (u8_t i = 0;; i++) {
     c1a:	3301      	adds	r3, #1
     c1c:	b2db      	uxtb	r3, r3
        if (message[i] == 0x2C) {
     c1e:	001a      	movs	r2, r3
     c20:	5ce9      	ldrb	r1, [r5, r3]
     c22:	292c      	cmp	r1, #44	; 0x2c
     c24:	d1f9      	bne.n	c1a <parseGPSMessage+0x326>
            strncpy(myMessage.northSouth,msgToParse,nextComma);
     c26:	0029      	movs	r1, r5
     c28:	484b      	ldr	r0, [pc, #300]	; (d58 <parseGPSMessage+0x464>)
     c2a:	f244 3381 	movw	r3, #17281	; 0x4381
     c2e:	f2c0 0300 	movt	r3, #0
     c32:	4798      	blx	r3
            msgToParse = strchr(msgToParse,',') + 1;
     c34:	212c      	movs	r1, #44	; 0x2c
     c36:	0028      	movs	r0, r5
     c38:	f244 3367 	movw	r3, #17255	; 0x4367
     c3c:	f2c0 0300 	movt	r3, #0
     c40:	4798      	blx	r3
     c42:	1c45      	adds	r5, r0, #1
        if (message[i] == 0x2C) {
     c44:	7843      	ldrb	r3, [r0, #1]
     c46:	2b2c      	cmp	r3, #44	; 0x2c
     c48:	d065      	beq.n	d16 <parseGPSMessage+0x422>
     c4a:	2300      	movs	r3, #0
    for (u8_t i = 0;; i++) {
     c4c:	3301      	adds	r3, #1
     c4e:	b2db      	uxtb	r3, r3
        if (message[i] == 0x2C) {
     c50:	001a      	movs	r2, r3
     c52:	5ce9      	ldrb	r1, [r5, r3]
     c54:	292c      	cmp	r1, #44	; 0x2c
     c56:	d1f9      	bne.n	c4c <parseGPSMessage+0x358>
            strncpy(myMessage.longitude,msgToParse,nextComma);
     c58:	0029      	movs	r1, r5
     c5a:	4840      	ldr	r0, [pc, #256]	; (d5c <parseGPSMessage+0x468>)
     c5c:	f244 3381 	movw	r3, #17281	; 0x4381
     c60:	f2c0 0300 	movt	r3, #0
     c64:	4798      	blx	r3
            msgToParse = strchr(msgToParse,',') + 1;
     c66:	212c      	movs	r1, #44	; 0x2c
     c68:	0028      	movs	r0, r5
     c6a:	f244 3367 	movw	r3, #17255	; 0x4367
     c6e:	f2c0 0300 	movt	r3, #0
     c72:	4798      	blx	r3
     c74:	1c45      	adds	r5, r0, #1
        if (message[i] == 0x2C) {
     c76:	7843      	ldrb	r3, [r0, #1]
     c78:	2b2c      	cmp	r3, #44	; 0x2c
     c7a:	d04e      	beq.n	d1a <parseGPSMessage+0x426>
     c7c:	2300      	movs	r3, #0
    for (u8_t i = 0;; i++) {
     c7e:	3301      	adds	r3, #1
     c80:	b2db      	uxtb	r3, r3
        if (message[i] == 0x2C) {
     c82:	001a      	movs	r2, r3
     c84:	5ce9      	ldrb	r1, [r5, r3]
     c86:	292c      	cmp	r1, #44	; 0x2c
     c88:	d1f9      	bne.n	c7e <parseGPSMessage+0x38a>
            strncpy(myMessage.eastWest,msgToParse,nextComma);
     c8a:	0029      	movs	r1, r5
     c8c:	4834      	ldr	r0, [pc, #208]	; (d60 <parseGPSMessage+0x46c>)
     c8e:	f244 3381 	movw	r3, #17281	; 0x4381
     c92:	f2c0 0300 	movt	r3, #0
     c96:	4798      	blx	r3
            msgToParse = strchr(msgToParse,',') + 1;
     c98:	212c      	movs	r1, #44	; 0x2c
     c9a:	0028      	movs	r0, r5
     c9c:	f244 3367 	movw	r3, #17255	; 0x4367
     ca0:	f2c0 0300 	movt	r3, #0
     ca4:	4798      	blx	r3
     ca6:	1c45      	adds	r5, r0, #1
        if (message[i] == 0x2C) {
     ca8:	7843      	ldrb	r3, [r0, #1]
     caa:	2b2c      	cmp	r3, #44	; 0x2c
     cac:	d037      	beq.n	d1e <parseGPSMessage+0x42a>
     cae:	2300      	movs	r3, #0
    for (u8_t i = 0;; i++) {
     cb0:	3301      	adds	r3, #1
     cb2:	b2db      	uxtb	r3, r3
        if (message[i] == 0x2C) {
     cb4:	001a      	movs	r2, r3
     cb6:	5ce9      	ldrb	r1, [r5, r3]
     cb8:	292c      	cmp	r1, #44	; 0x2c
     cba:	d1f9      	bne.n	cb0 <parseGPSMessage+0x3bc>
            strncpy(myMessage.speedOverGround,msgToParse,nextComma);
     cbc:	0029      	movs	r1, r5
     cbe:	4829      	ldr	r0, [pc, #164]	; (d64 <parseGPSMessage+0x470>)
     cc0:	f244 3381 	movw	r3, #17281	; 0x4381
     cc4:	f2c0 0300 	movt	r3, #0
     cc8:	4798      	blx	r3
            msgToParse = strchr(msgToParse,',') + 1;
     cca:	212c      	movs	r1, #44	; 0x2c
     ccc:	0028      	movs	r0, r5
     cce:	f244 3367 	movw	r3, #17255	; 0x4367
     cd2:	f2c0 0300 	movt	r3, #0
     cd6:	4798      	blx	r3
     cd8:	1c45      	adds	r5, r0, #1
        if (message[i] == 0x2C) {
     cda:	7843      	ldrb	r3, [r0, #1]
     cdc:	2b2c      	cmp	r3, #44	; 0x2c
     cde:	d020      	beq.n	d22 <parseGPSMessage+0x42e>
     ce0:	2300      	movs	r3, #0
    for (u8_t i = 0;; i++) {
     ce2:	3301      	adds	r3, #1
     ce4:	b2db      	uxtb	r3, r3
        if (message[i] == 0x2C) {
     ce6:	001a      	movs	r2, r3
     ce8:	5ce9      	ldrb	r1, [r5, r3]
     cea:	292c      	cmp	r1, #44	; 0x2c
     cec:	d1f9      	bne.n	ce2 <parseGPSMessage+0x3ee>
            strncpy(myMessage.courseOverGround,msgToParse,nextComma);
     cee:	4e1e      	ldr	r6, [pc, #120]	; (d68 <parseGPSMessage+0x474>)
     cf0:	0029      	movs	r1, r5
     cf2:	0030      	movs	r0, r6
     cf4:	f244 3381 	movw	r3, #17281	; 0x4381
     cf8:	f2c0 0300 	movt	r3, #0
     cfc:	4798      	blx	r3
            myMessage.messageReady = true;
     cfe:	3e47      	subs	r6, #71	; 0x47
     d00:	2301      	movs	r3, #1
     d02:	7073      	strb	r3, [r6, #1]
     d04:	e624      	b.n	950 <parseGPSMessage+0x5c>
        if (message[i] == 0x2C) {
     d06:	2200      	movs	r2, #0
     d08:	e740      	b.n	b8c <parseGPSMessage+0x298>
     d0a:	2200      	movs	r2, #0
     d0c:	e758      	b.n	bc0 <parseGPSMessage+0x2cc>
     d0e:	2200      	movs	r2, #0
     d10:	e770      	b.n	bf4 <parseGPSMessage+0x300>
     d12:	2200      	movs	r2, #0
     d14:	e787      	b.n	c26 <parseGPSMessage+0x332>
     d16:	2200      	movs	r2, #0
     d18:	e79e      	b.n	c58 <parseGPSMessage+0x364>
     d1a:	2200      	movs	r2, #0
     d1c:	e7b5      	b.n	c8a <parseGPSMessage+0x396>
     d1e:	2200      	movs	r2, #0
     d20:	e7cc      	b.n	cbc <parseGPSMessage+0x3c8>
     d22:	2200      	movs	r2, #0
     d24:	e7e3      	b.n	cee <parseGPSMessage+0x3fa>
     d26:	2200      	movs	r2, #0
     d28:	e63a      	b.n	9a0 <parseGPSMessage+0xac>
     d2a:	2200      	movs	r2, #0
     d2c:	e652      	b.n	9d4 <parseGPSMessage+0xe0>
     d2e:	2200      	movs	r2, #0
     d30:	e66a      	b.n	a08 <parseGPSMessage+0x114>
     d32:	2200      	movs	r2, #0
     d34:	e682      	b.n	a3c <parseGPSMessage+0x148>
     d36:	2200      	movs	r2, #0
     d38:	e69a      	b.n	a70 <parseGPSMessage+0x17c>
     d3a:	2200      	movs	r2, #0
     d3c:	e6b2      	b.n	aa4 <parseGPSMessage+0x1b0>
     d3e:	2200      	movs	r2, #0
     d40:	e6ca      	b.n	ad8 <parseGPSMessage+0x1e4>
     d42:	2200      	movs	r2, #0
     d44:	e6e2      	b.n	b0c <parseGPSMessage+0x218>
     d46:	46c0      	nop			; (mov r8, r8)
     d48:	fffffda8 	.word	0xfffffda8
     d4c:	2000010c 	.word	0x2000010c
     d50:	2000012c 	.word	0x2000012c
     d54:	20000115 	.word	0x20000115
     d58:	2000011f 	.word	0x2000011f
     d5c:	20000120 	.word	0x20000120
     d60:	2000012b 	.word	0x2000012b
     d64:	2000013d 	.word	0x2000013d
     d68:	20000147 	.word	0x20000147

00000d6c <GPSUSARTBYPASS>:

void GPSUSARTBYPASS() {

    while(1) {

        if(sercom(2)->USART.INTFLAG.bit.RXC == 1) {
     d6c:	f640 4100 	movw	r1, #3072	; 0xc00
     d70:	f2c4 2100 	movt	r1, #16896	; 0x4200
     d74:	20ff      	movs	r0, #255	; 0xff
    sercom(id)->USART.DATA.reg = data;
     d76:	f240 4200 	movw	r2, #1024	; 0x400
     d7a:	f2c4 2200 	movt	r2, #16896	; 0x4200
     d7e:	e002      	b.n	d86 <GPSUSARTBYPASS+0x1a>
            u8_t digit = BYPASSDATAIN(2);
            BYPASSDATAOUT(0, digit);
        }

        if(sercom(0)->USART.INTFLAG.bit.RXC == 1) {
     d80:	7e13      	ldrb	r3, [r2, #24]
     d82:	075b      	lsls	r3, r3, #29
     d84:	d406      	bmi.n	d94 <GPSUSARTBYPASS+0x28>
        if(sercom(2)->USART.INTFLAG.bit.RXC == 1) {
     d86:	7e0b      	ldrb	r3, [r1, #24]
     d88:	075b      	lsls	r3, r3, #29
     d8a:	d5f9      	bpl.n	d80 <GPSUSARTBYPASS+0x14>
    return sercom(id)->USART.DATA.reg;
     d8c:	8d0b      	ldrh	r3, [r1, #40]	; 0x28
     d8e:	4003      	ands	r3, r0
    sercom(id)->USART.DATA.reg = data;
     d90:	8513      	strh	r3, [r2, #40]	; 0x28
     d92:	e7f5      	b.n	d80 <GPSUSARTBYPASS+0x14>
    return sercom(id)->USART.DATA.reg;
     d94:	8d13      	ldrh	r3, [r2, #40]	; 0x28
     d96:	4003      	ands	r3, r0
    sercom(id)->USART.DATA.reg = data;
     d98:	850b      	strh	r3, [r1, #40]	; 0x28
     d9a:	e7f4      	b.n	d86 <GPSUSARTBYPASS+0x1a>

00000d9c <SPIinit>:



void SPIinit(u8_t id){
		// prevent this clock write from changing any other clocks
		GCLK->PCHCTRL[12].reg = GCLK_PCHCTRL_GEN_GCLK2 | GCLK_PCHCTRL_CHEN;
     d9c:	f641 4300 	movw	r3, #7168	; 0x1c00
     da0:	f2c4 0300 	movt	r3, #16384	; 0x4000
     da4:	2142      	movs	r1, #66	; 0x42
     da6:	22b0      	movs	r2, #176	; 0xb0
     da8:	5099      	str	r1, [r3, r2]

    }
}

inline static Sercom* sercom(SercomId id) {
    return (Sercom*) (0x42000400U + id * 1024);
     daa:	0280      	lsls	r0, r0, #10
     dac:	f240 4c00 	movw	ip, #1024	; 0x400
     db0:	f2c4 2c00 	movt	ip, #16896	; 0x4200
     db4:	4460      	add	r0, ip
		//PM->APBCMASK.reg |= 1 << (MCLK_APBCMASK_SERCOM0_Pos + id);



    sercom(id)->SPI.CTRLA.reg = SERCOM_SPI_CTRLA_SWRST;
     db6:	2301      	movs	r3, #1
     db8:	6003      	str	r3, [r0, #0]
    while(sercom(id)->SPI.CTRLA.reg & SERCOM_SPI_CTRLA_SWRST);
     dba:	3aaf      	subs	r2, #175	; 0xaf
     dbc:	6803      	ldr	r3, [r0, #0]
     dbe:	421a      	tst	r2, r3
     dc0:	d1fc      	bne.n	dbc <SPIinit+0x20>

    sercom(id)->SPI.CTRLB.reg
    = SERCOM_SPI_CTRLB_RXEN;
     dc2:	2380      	movs	r3, #128	; 0x80
     dc4:	029b      	lsls	r3, r3, #10
     dc6:	6043      	str	r3, [r0, #4]

    sercom(id)->SPI.BAUD.reg = 0x00;
     dc8:	2300      	movs	r3, #0
     dca:	7303      	strb	r3, [r0, #12]

    sercom(id)->SPI.CTRLA.reg
    = SERCOM_SPI_CTRLA_ENABLE
     dcc:	330e      	adds	r3, #14
     dce:	f2c0 0313 	movt	r3, #19
     dd2:	6003      	str	r3, [r0, #0]
    | SERCOM_SPI_CTRLA_DIPO(0x1)
    | SERCOM_SPI_CTRLA_DOPO(0x3)
    | (0 ? SERCOM_SPI_CTRLA_CPOL : 0)
    | (0 ? SERCOM_SPI_CTRLA_CPHA : 0);

     while  (sercom(id)->SPI.SYNCBUSY.bit.CTRLB);
     dd4:	69c3      	ldr	r3, [r0, #28]
     dd6:	075b      	lsls	r3, r3, #29
     dd8:	d4fc      	bmi.n	dd4 <SPIinit+0x38>
	
}
     dda:	4770      	bx	lr

00000ddc <spiDataOut>:
     ddc:	0280      	lsls	r0, r0, #10
     dde:	f240 4c00 	movw	ip, #1024	; 0x400
     de2:	f2c4 2c00 	movt	ip, #16896	; 0x4200
     de6:	4460      	add	r0, ip
	while(sercom(id)->SPI.INTFLAG.bit.RXC == 0);
	return sercom(id)->SPI.DATA.reg;
}

void spiDataOut(SercomId id, u8_t data) {
	sercom(id)->SPI.DATA.reg = data;
     de8:	6281      	str	r1, [r0, #40]	; 0x28
	while(sercom(id)->SPI.INTFLAG.bit.RXC == 0);
     dea:	7e03      	ldrb	r3, [r0, #24]
     dec:	075b      	lsls	r3, r3, #29
     dee:	d5fc      	bpl.n	dea <spiDataOut+0xe>
	u8_t dummy = sercom(id)->SPI.DATA.reg;
     df0:	6a83      	ldr	r3, [r0, #40]	; 0x28
}
     df2:	4770      	bx	lr

00000df4 <spiDataIn>:
     df4:	0280      	lsls	r0, r0, #10
     df6:	f240 4c00 	movw	ip, #1024	; 0x400
     dfa:	f2c4 2c00 	movt	ip, #16896	; 0x4200
     dfe:	4460      	add	r0, ip

u8_t spiDataIn(SercomId id) {
	sercom(id)->SPI.DATA.reg = 0xFF;
     e00:	23ff      	movs	r3, #255	; 0xff
     e02:	6283      	str	r3, [r0, #40]	; 0x28
	while(sercom(id)->SPI.INTFLAG.bit.RXC == 0);
     e04:	7e03      	ldrb	r3, [r0, #24]
     e06:	075b      	lsls	r3, r3, #29
     e08:	d5fc      	bpl.n	e04 <spiDataIn+0x10>
	return sercom(id)->SPI.DATA.reg;
     e0a:	6a80      	ldr	r0, [r0, #40]	; 0x28
     e0c:	b2c0      	uxtb	r0, r0
     e0e:	4770      	bx	lr

00000e10 <USART0init>:
void USART0init() {


    //float BAUD = 65536*(1-(16*(9600/(16000000/1))));

    GCLK->PCHCTRL[11].reg = GCLK_PCHCTRL_GEN_GCLK2 |
     e10:	f641 4300 	movw	r3, #7168	; 0x1c00
     e14:	f2c4 0300 	movt	r3, #16384	; 0x4000
     e18:	2142      	movs	r1, #66	; 0x42
     e1a:	22ac      	movs	r2, #172	; 0xac
     e1c:	5099      	str	r1, [r3, r2]
                            GCLK_PCHCTRL_CHEN;
    sercom(0)->USART.CTRLA.reg = SERCOM_USART_CTRLA_SWRST;
     e1e:	f240 4300 	movw	r3, #1024	; 0x400
     e22:	f2c4 2300 	movt	r3, #16896	; 0x4200
     e26:	3aab      	subs	r2, #171	; 0xab
     e28:	601a      	str	r2, [r3, #0]
    while(sercom(0)->USART.CTRLA.reg & SERCOM_USART_CTRLA_SWRST);
     e2a:	f240 4200 	movw	r2, #1024	; 0x400
     e2e:	f2c4 2200 	movt	r2, #16896	; 0x4200
     e32:	3941      	subs	r1, #65	; 0x41
     e34:	6813      	ldr	r3, [r2, #0]
     e36:	4219      	tst	r1, r3
     e38:	d1fc      	bne.n	e34 <USART0init+0x24>

    //sercom(0)->USART.BAUD.reg = 57986;
    sercom(0)->USART.BAUD.reg = 64906;
     e3a:	f240 4300 	movw	r3, #1024	; 0x400
     e3e:	f2c4 2300 	movt	r3, #16896	; 0x4200
     e42:	4a05      	ldr	r2, [pc, #20]	; (e58 <USART0init+0x48>)
     e44:	819a      	strh	r2, [r3, #12]
    sercom(0)->USART.CTRLA.reg = SERCOM_USART_CTRLA_ENABLE |
     e46:	2206      	movs	r2, #6
     e48:	f2c4 0201 	movt	r2, #16385	; 0x4001
     e4c:	601a      	str	r2, [r3, #0]
                                 SERCOM_USART_CTRLA_MODE(1) |
                                 SERCOM_USART_CTRLA_RXPO(0) |
                                 SERCOM_USART_CTRLA_TXPO(1) |
                                 SERCOM_USART_CTRLA_DORD;
    sercom(0)->USART.CTRLB.reg = SERCOM_USART_CTRLB_RXEN |
     e4e:	22c0      	movs	r2, #192	; 0xc0
     e50:	0292      	lsls	r2, r2, #10
     e52:	605a      	str	r2, [r3, #4]
                                 SERCOM_USART_CTRLB_TXEN;
}
     e54:	4770      	bx	lr
     e56:	46c0      	nop			; (mov r8, r8)
     e58:	fffffd8a 	.word	0xfffffd8a

00000e5c <USART2init>:

void USART2init() {
    //float BAUD = 65536*(1-(16*(9600/(16000000/1))));

    GCLK->PCHCTRL[13].reg = GCLK_PCHCTRL_GEN_GCLK2 |
     e5c:	f641 4300 	movw	r3, #7168	; 0x1c00
     e60:	f2c4 0300 	movt	r3, #16384	; 0x4000
     e64:	2142      	movs	r1, #66	; 0x42
     e66:	22b4      	movs	r2, #180	; 0xb4
     e68:	5099      	str	r1, [r3, r2]
                            GCLK_PCHCTRL_CHEN;
    sercom(2)->USART.CTRLA.reg = SERCOM_USART_CTRLA_SWRST;
     e6a:	f640 4300 	movw	r3, #3072	; 0xc00
     e6e:	f2c4 2300 	movt	r3, #16896	; 0x4200
     e72:	3ab3      	subs	r2, #179	; 0xb3
     e74:	601a      	str	r2, [r3, #0]
    while(sercom(2)->USART.CTRLA.reg & SERCOM_USART_CTRLA_SWRST);
     e76:	f640 4200 	movw	r2, #3072	; 0xc00
     e7a:	f2c4 2200 	movt	r2, #16896	; 0x4200
     e7e:	3941      	subs	r1, #65	; 0x41
     e80:	6813      	ldr	r3, [r2, #0]
     e82:	4219      	tst	r1, r3
     e84:	d1fc      	bne.n	e80 <USART2init+0x24>

    sercom(2)->USART.BAUD.reg = 64906;
     e86:	f640 4300 	movw	r3, #3072	; 0xc00
     e8a:	f2c4 2300 	movt	r3, #16896	; 0x4200
     e8e:	4a05      	ldr	r2, [pc, #20]	; (ea4 <USART2init+0x48>)
     e90:	819a      	strh	r2, [r3, #12]
	//sercom(2)->USART.BAUD.reg = 57986;
    sercom(2)->USART.CTRLA.reg = SERCOM_USART_CTRLA_ENABLE |
     e92:	2206      	movs	r2, #6
     e94:	f2c4 0231 	movt	r2, #16433	; 0x4031
     e98:	601a      	str	r2, [r3, #0]
                                 SERCOM_USART_CTRLA_MODE(1) |
                                 SERCOM_USART_CTRLA_RXPO(3) |
                                 SERCOM_USART_CTRLA_TXPO(1) |
                                 SERCOM_USART_CTRLA_DORD;
    sercom(2)->USART.CTRLB.reg = SERCOM_USART_CTRLB_RXEN |
     e9a:	22c0      	movs	r2, #192	; 0xc0
     e9c:	0292      	lsls	r2, r2, #10
     e9e:	605a      	str	r2, [r3, #4]
                                 SERCOM_USART_CTRLB_TXEN;
}
     ea0:	4770      	bx	lr
     ea2:	46c0      	nop			; (mov r8, r8)
     ea4:	fffffd8a 	.word	0xfffffd8a

00000ea8 <usartDataOut>:
     ea8:	0280      	lsls	r0, r0, #10
     eaa:	f240 4c00 	movw	ip, #1024	; 0x400
     eae:	f2c4 2c00 	movt	ip, #16896	; 0x4200
     eb2:	4460      	add	r0, ip


void usartDataOut(SercomId id, u8_t data) {
    sercom(id)->USART.DATA.reg = data;
     eb4:	b289      	uxth	r1, r1
     eb6:	8501      	strh	r1, [r0, #40]	; 0x28
		//this needs to be enabled normally!!!!!!!
	while(sercom(id)->USART.INTFLAG.bit.TXC == 0);
     eb8:	7e03      	ldrb	r3, [r0, #24]
     eba:	079b      	lsls	r3, r3, #30
     ebc:	d5fc      	bpl.n	eb8 <usartDataOut+0x10>
}
     ebe:	4770      	bx	lr

00000ec0 <usartDataIn>:
     ec0:	0280      	lsls	r0, r0, #10
     ec2:	f240 4c00 	movw	ip, #1024	; 0x400
     ec6:	f2c4 2c00 	movt	ip, #16896	; 0x4200
     eca:	4460      	add	r0, ip

u8_t usartDataIn(SercomId id) {
    return sercom(id)->USART.DATA.reg;
     ecc:	8d00      	ldrh	r0, [r0, #40]	; 0x28
     ece:	b2c0      	uxtb	r0, r0
	//this needs to be enabled normally!!!!!!!
	while(sercom(id)->USART.INTFLAG.bit.RXC == 0);
}
     ed0:	4770      	bx	lr

00000ed2 <init>:


#include "sam.h"
#include "util.h"

void init() {
     ed2:	b5f8      	push	{r3, r4, r5, r6, r7, lr}
     ed4:	46de      	mov	lr, fp
     ed6:	4657      	mov	r7, sl
     ed8:	464e      	mov	r6, r9
     eda:	4645      	mov	r5, r8
     edc:	b5e0      	push	{r5, r6, r7, lr}
	PORT->Group[p.group].PINCFG[p.pin].bit.PMUXEN = 0;
     ede:	f243 0300 	movw	r3, #12288	; 0x3000
     ee2:	f2c4 0300 	movt	r3, #16384	; 0x4000
     ee6:	2045      	movs	r0, #69	; 0x45
     ee8:	5c19      	ldrb	r1, [r3, r0]
     eea:	2201      	movs	r2, #1
     eec:	4391      	bics	r1, r2
     eee:	5419      	strb	r1, [r3, r0]
	PORT->Group[p.group].DIRSET.reg = (1<<p.pin);
     ef0:	2120      	movs	r1, #32
     ef2:	6099      	str	r1, [r3, #8]
	PORT->Group[p.group].PINCFG[p.pin].bit.PMUXEN = 0;
     ef4:	2650      	movs	r6, #80	; 0x50
     ef6:	5d99      	ldrb	r1, [r3, r6]
     ef8:	4391      	bics	r1, r2
     efa:	5599      	strb	r1, [r3, r6]
	PORT->Group[p.group].DIRSET.reg = (1<<p.pin);
     efc:	2180      	movs	r1, #128	; 0x80
     efe:	0249      	lsls	r1, r1, #9
     f00:	6099      	str	r1, [r3, #8]
	PORT->Group[p.group].PINCFG[p.pin].bit.PMUXEN = 0;
     f02:	f240 0953 	movw	r9, #83	; 0x53
     f06:	4649      	mov	r1, r9
     f08:	5c59      	ldrb	r1, [r3, r1]
     f0a:	4391      	bics	r1, r2
     f0c:	4648      	mov	r0, r9
     f0e:	5419      	strb	r1, [r3, r0]
	PORT->Group[p.group].DIRSET.reg = (1<<p.pin);
     f10:	2180      	movs	r1, #128	; 0x80
     f12:	0309      	lsls	r1, r1, #12
     f14:	6099      	str	r1, [r3, #8]
	PORT->Group[p.group].PINCFG[p.pin].bit.PMUXEN = 0;
     f16:	2551      	movs	r5, #81	; 0x51
     f18:	5d59      	ldrb	r1, [r3, r5]
     f1a:	4391      	bics	r1, r2
     f1c:	5559      	strb	r1, [r3, r5]
	PORT->Group[p.group].PINCFG[p.pin].bit.INEN = 1;
     f1e:	5d59      	ldrb	r1, [r3, r5]
     f20:	2402      	movs	r4, #2
     f22:	4321      	orrs	r1, r4
     f24:	5559      	strb	r1, [r3, r5]
	PORT->Group[p.group].DIRCLR.reg = (1<<p.pin);
     f26:	2180      	movs	r1, #128	; 0x80
     f28:	0289      	lsls	r1, r1, #10
     f2a:	6059      	str	r1, [r3, #4]
		PORT->Group[p.group].PMUX[p.pin/2].bit.PMUXO = p.mux;
     f2c:	f240 0c38 	movw	ip, #56	; 0x38
     f30:	4661      	mov	r1, ip
     f32:	5c59      	ldrb	r1, [r3, r1]
     f34:	f240 080f 	movw	r8, #15
     f38:	f240 0b0f 	movw	fp, #15
     f3c:	4658      	mov	r0, fp
     f3e:	4001      	ands	r1, r0
     f40:	2720      	movs	r7, #32
     f42:	4339      	orrs	r1, r7
     f44:	4660      	mov	r0, ip
     f46:	5419      	strb	r1, [r3, r0]
	PORT->Group[p.group].PINCFG[p.pin].bit.PMUXEN = 1;
     f48:	5d59      	ldrb	r1, [r3, r5]
     f4a:	468a      	mov	sl, r1
     f4c:	2101      	movs	r1, #1
     f4e:	4650      	mov	r0, sl
     f50:	4308      	orrs	r0, r1
     f52:	5558      	strb	r0, [r3, r5]
		PORT->Group[p.group].PMUX[p.pin/2].bit.PMUXO = p.mux;
     f54:	f240 0a39 	movw	sl, #57	; 0x39
     f58:	4650      	mov	r0, sl
     f5a:	5c1d      	ldrb	r5, [r3, r0]
     f5c:	4658      	mov	r0, fp
     f5e:	4005      	ands	r5, r0
     f60:	433d      	orrs	r5, r7
     f62:	4650      	mov	r0, sl
     f64:	541d      	strb	r5, [r3, r0]
	PORT->Group[p.group].PINCFG[p.pin].bit.PMUXEN = 1;
     f66:	4648      	mov	r0, r9
     f68:	5c1d      	ldrb	r5, [r3, r0]
     f6a:	430d      	orrs	r5, r1
     f6c:	541d      	strb	r5, [r3, r0]
		PORT->Group[p.group].PMUX[p.pin/2].bit.PMUXE = p.mux;
     f6e:	4660      	mov	r0, ip
     f70:	5c1d      	ldrb	r5, [r3, r0]
     f72:	4640      	mov	r0, r8
     f74:	4385      	bics	r5, r0
     f76:	4325      	orrs	r5, r4
     f78:	4660      	mov	r0, ip
     f7a:	541d      	strb	r5, [r3, r0]
	PORT->Group[p.group].PINCFG[p.pin].bit.PMUXEN = 1;
     f7c:	5d9d      	ldrb	r5, [r3, r6]
     f7e:	430d      	orrs	r5, r1
     f80:	559d      	strb	r5, [r3, r6]
	PORT->Group[p.group].PINCFG[p.pin].bit.PMUXEN = 0;
     f82:	f240 0c58 	movw	ip, #88	; 0x58
     f86:	4660      	mov	r0, ip
     f88:	5c1d      	ldrb	r5, [r3, r0]
     f8a:	4395      	bics	r5, r2
     f8c:	541d      	strb	r5, [r3, r0]
	PORT->Group[p.group].DIRSET.reg = (1<<p.pin);
     f8e:	2580      	movs	r5, #128	; 0x80
     f90:	046d      	lsls	r5, r5, #17
     f92:	609d      	str	r5, [r3, #8]
	PORT->Group[p.group].PINCFG[p.pin].bit.PMUXEN = 0;
     f94:	2556      	movs	r5, #86	; 0x56
     f96:	5d5e      	ldrb	r6, [r3, r5]
     f98:	4396      	bics	r6, r2
     f9a:	555e      	strb	r6, [r3, r5]
	PORT->Group[p.group].PINCFG[p.pin].bit.INEN = 1;
     f9c:	5d5e      	ldrb	r6, [r3, r5]
     f9e:	4326      	orrs	r6, r4
     fa0:	555e      	strb	r6, [r3, r5]
	PORT->Group[p.group].DIRCLR.reg = (1<<p.pin);
     fa2:	2680      	movs	r6, #128	; 0x80
     fa4:	03f6      	lsls	r6, r6, #15
     fa6:	605e      	str	r6, [r3, #4]
		PORT->Group[p.group].PMUX[p.pin/2].bit.PMUXE = p.mux;
     fa8:	f240 093c 	movw	r9, #60	; 0x3c
     fac:	4648      	mov	r0, r9
     fae:	5c1e      	ldrb	r6, [r3, r0]
     fb0:	4640      	mov	r0, r8
     fb2:	4386      	bics	r6, r0
     fb4:	4326      	orrs	r6, r4
     fb6:	4648      	mov	r0, r9
     fb8:	541e      	strb	r6, [r3, r0]
	PORT->Group[p.group].PINCFG[p.pin].bit.PMUXEN = 1;
     fba:	4660      	mov	r0, ip
     fbc:	5c1e      	ldrb	r6, [r3, r0]
     fbe:	430e      	orrs	r6, r1
     fc0:	541e      	strb	r6, [r3, r0]
		PORT->Group[p.group].PMUX[p.pin/2].bit.PMUXE = p.mux;
     fc2:	f240 0c3b 	movw	ip, #59	; 0x3b
     fc6:	4660      	mov	r0, ip
     fc8:	5c1e      	ldrb	r6, [r3, r0]
     fca:	4640      	mov	r0, r8
     fcc:	4386      	bics	r6, r0
     fce:	4326      	orrs	r6, r4
     fd0:	4660      	mov	r0, ip
     fd2:	541e      	strb	r6, [r3, r0]
	PORT->Group[p.group].PINCFG[p.pin].bit.PMUXEN = 1;
     fd4:	5d5e      	ldrb	r6, [r3, r5]
     fd6:	430e      	orrs	r6, r1
     fd8:	555e      	strb	r6, [r3, r5]
	PORT->Group[p.group].PINCFG[p.pin].bit.PMUXEN = 0;
     fda:	f240 094e 	movw	r9, #78	; 0x4e
     fde:	4648      	mov	r0, r9
     fe0:	5c1d      	ldrb	r5, [r3, r0]
     fe2:	4395      	bics	r5, r2
     fe4:	541d      	strb	r5, [r3, r0]
	PORT->Group[p.group].DIRSET.reg = (1<<p.pin);
     fe6:	f244 0500 	movw	r5, #16384	; 0x4000
     fea:	609d      	str	r5, [r3, #8]
	PORT->Group[p.group].PINCFG[p.pin].bit.PMUXEN = 0;
     fec:	254f      	movs	r5, #79	; 0x4f
     fee:	5d5e      	ldrb	r6, [r3, r5]
     ff0:	4396      	bics	r6, r2
     ff2:	555e      	strb	r6, [r3, r5]
	PORT->Group[p.group].PINCFG[p.pin].bit.INEN = 1;
     ff4:	5d5e      	ldrb	r6, [r3, r5]
     ff6:	4326      	orrs	r6, r4
     ff8:	555e      	strb	r6, [r3, r5]
	PORT->Group[p.group].DIRCLR.reg = (1<<p.pin);
     ffa:	f248 0600 	movw	r6, #32768	; 0x8000
     ffe:	605e      	str	r6, [r3, #4]
		PORT->Group[p.group].PMUX[p.pin/2].bit.PMUXE = p.mux;
    1000:	f240 0c37 	movw	ip, #55	; 0x37
    1004:	4660      	mov	r0, ip
    1006:	5c1e      	ldrb	r6, [r3, r0]
    1008:	4640      	mov	r0, r8
    100a:	4386      	bics	r6, r0
    100c:	4334      	orrs	r4, r6
    100e:	4660      	mov	r0, ip
    1010:	541c      	strb	r4, [r3, r0]
	PORT->Group[p.group].PINCFG[p.pin].bit.PMUXEN = 1;
    1012:	4648      	mov	r0, r9
    1014:	5c1c      	ldrb	r4, [r3, r0]
    1016:	430c      	orrs	r4, r1
    1018:	541c      	strb	r4, [r3, r0]
		PORT->Group[p.group].PMUX[p.pin/2].bit.PMUXO = p.mux;
    101a:	4660      	mov	r0, ip
    101c:	5c1c      	ldrb	r4, [r3, r0]
    101e:	4658      	mov	r0, fp
    1020:	4020      	ands	r0, r4
    1022:	4338      	orrs	r0, r7
    1024:	4664      	mov	r4, ip
    1026:	5518      	strb	r0, [r3, r4]
	PORT->Group[p.group].PINCFG[p.pin].bit.PMUXEN = 1;
    1028:	5d58      	ldrb	r0, [r3, r5]
    102a:	4301      	orrs	r1, r0
    102c:	5559      	strb	r1, [r3, r5]
	PORT->Group[p.group].PINCFG[p.pin].bit.PMUXEN = 0;
    102e:	204b      	movs	r0, #75	; 0x4b
    1030:	5c19      	ldrb	r1, [r3, r0]
    1032:	4391      	bics	r1, r2
    1034:	5419      	strb	r1, [r3, r0]
	PORT->Group[p.group].DIRSET.reg = (1<<p.pin);
    1036:	f640 0100 	movw	r1, #2048	; 0x800
    103a:	6099      	str	r1, [r3, #8]
	PORT->Group[p.group].PINCFG[p.pin].bit.PMUXEN = 0;
    103c:	3007      	adds	r0, #7
    103e:	5c19      	ldrb	r1, [r3, r0]
    1040:	4391      	bics	r1, r2
    1042:	5419      	strb	r1, [r3, r0]
	PORT->Group[p.group].DIRSET.reg = (1<<p.pin);
    1044:	2280      	movs	r2, #128	; 0x80
    1046:	02d2      	lsls	r2, r2, #11
    1048:	609a      	str	r2, [r3, #8]
	PORT->Group[p.group].OUTSET.reg = (1<<p.pin);
    104a:	619a      	str	r2, [r3, #24]

    pinOut(cs_baro);
    pinHigh(cs_baro);


    delayInit();
    104c:	f240 3389 	movw	r3, #905	; 0x389
    1050:	f2c0 0300 	movt	r3, #0
    1054:	4798      	blx	r3
    GclkInit(0);
    1056:	2000      	movs	r0, #0
    1058:	f240 1371 	movw	r3, #369	; 0x171
    105c:	f2c0 0300 	movt	r3, #0
    1060:	4798      	blx	r3
    TC2Init();
    1062:	f240 13d1 	movw	r3, #465	; 0x1d1
    1066:	f2c0 0300 	movt	r3, #0
    106a:	4798      	blx	r3
    rtcInit();
    106c:	f240 3321 	movw	r3, #801	; 0x321
    1070:	f2c0 0300 	movt	r3, #0
    1074:	4798      	blx	r3
    TC0Init();
    1076:	f240 2353 	movw	r3, #595	; 0x253
    107a:	f2c0 0300 	movt	r3, #0
    107e:	4798      	blx	r3
    TC1Init();
    1080:	f240 23d5 	movw	r3, #725	; 0x2d5
    1084:	f2c0 0300 	movt	r3, #0
    1088:	4798      	blx	r3
    SPIinit(1);
    108a:	2001      	movs	r0, #1
    108c:	f640 539d 	movw	r3, #3485	; 0xd9d
    1090:	f2c0 0300 	movt	r3, #0
    1094:	4798      	blx	r3
    USART0init();
    1096:	f640 6311 	movw	r3, #3601	; 0xe11
    109a:	f2c0 0300 	movt	r3, #0
    109e:	4798      	blx	r3
    USART2init();
    10a0:	f640 635d 	movw	r3, #3677	; 0xe5d
    10a4:	f2c0 0300 	movt	r3, #0
    10a8:	4798      	blx	r3
}
    10aa:	bc3c      	pop	{r2, r3, r4, r5}
    10ac:	4690      	mov	r8, r2
    10ae:	4699      	mov	r9, r3
    10b0:	46a2      	mov	sl, r4
    10b2:	46ab      	mov	fp, r5
    10b4:	bdf8      	pop	{r3, r4, r5, r6, r7, pc}
	...

000010b8 <getAltitude>:


void getAltitude() {
    10b8:	b5f0      	push	{r4, r5, r6, r7, lr}
    10ba:	46c6      	mov	lr, r8
    10bc:	b500      	push	{lr}
    10be:	b084      	sub	sp, #16
	PORT->Group[p.group].OUTCLR.reg = (1<<p.pin);
    10c0:	f243 0400 	movw	r4, #12288	; 0x3000
    10c4:	f2c4 0400 	movt	r4, #16384	; 0x4000
    10c8:	2780      	movs	r7, #128	; 0x80
    10ca:	02ff      	lsls	r7, r7, #11
    10cc:	6167      	str	r7, [r4, #20]

    pinLow(cs_baro);
    spiDataOut(SPI1, cmdAdcD2_4096_);
    10ce:	2158      	movs	r1, #88	; 0x58
    10d0:	2001      	movs	r0, #1
    10d2:	f640 58dd 	movw	r8, #3549	; 0xddd
    10d6:	f2c0 0800 	movt	r8, #0
    10da:	47c0      	blx	r8
	PORT->Group[p.group].OUTSET.reg = (1<<p.pin);
    10dc:	61a7      	str	r7, [r4, #24]
    pinHigh(cs_baro);
    delay_us(9040);
    10de:	f242 3050 	movw	r0, #9040	; 0x2350
    10e2:	f240 36db 	movw	r6, #987	; 0x3db
    10e6:	f2c0 0600 	movt	r6, #0
    10ea:	47b0      	blx	r6
    volatile uint32_t tempRaw = readMS5803AdcResults();
    10ec:	f240 55a1 	movw	r5, #1441	; 0x5a1
    10f0:	f2c0 0500 	movt	r5, #0
    10f4:	47a8      	blx	r5
    10f6:	9003      	str	r0, [sp, #12]
	PORT->Group[p.group].OUTCLR.reg = (1<<p.pin);
    10f8:	6167      	str	r7, [r4, #20]

    pinLow(cs_baro);
    spiDataOut(SPI1, cmdAdcD1_4096_);
    10fa:	2148      	movs	r1, #72	; 0x48
    10fc:	2001      	movs	r0, #1
    10fe:	47c0      	blx	r8
	PORT->Group[p.group].OUTSET.reg = (1<<p.pin);
    1100:	61a7      	str	r7, [r4, #24]
    pinHigh(cs_baro);

    delay_us(9040);
    1102:	f242 3050 	movw	r0, #9040	; 0x2350
    1106:	47b0      	blx	r6

    volatile u32_t PressureRaw = readMS5803AdcResults();
    1108:	47a8      	blx	r5
    110a:	9002      	str	r0, [sp, #8]
    ConvertPressureTemperature(PressureRaw, tempRaw, &sample.temperatureCelcus, &sample.pressureMbar);
    110c:	9802      	ldr	r0, [sp, #8]
    110e:	9903      	ldr	r1, [sp, #12]
    1110:	4f32      	ldr	r7, [pc, #200]	; (11dc <getAltitude+0x124>)
    1112:	003a      	movs	r2, r7
    1114:	3208      	adds	r2, #8
    1116:	003b      	movs	r3, r7
    1118:	f240 55ed 	movw	r5, #1517	; 0x5ed
    111c:	f2c0 0500 	movt	r5, #0
    1120:	47a8      	blx	r5

    sample.lastSampleAltitude = sample.pressureAltitude;
    1122:	3f08      	subs	r7, #8
    1124:	69bb      	ldr	r3, [r7, #24]
    1126:	69fc      	ldr	r4, [r7, #28]
    1128:	623b      	str	r3, [r7, #32]
    112a:	627c      	str	r4, [r7, #36]	; 0x24
    sample.lastSampleTime = sample.sampleTime;
    112c:	6afb      	ldr	r3, [r7, #44]	; 0x2c
    112e:	62bb      	str	r3, [r7, #40]	; 0x28
    sample.sampleTime = millis();
    1130:	f240 430d 	movw	r3, #1037	; 0x40d
    1134:	f2c0 0300 	movt	r3, #0
    1138:	4798      	blx	r3
    113a:	62f8      	str	r0, [r7, #44]	; 0x2c
    sample.dT = sample.sampleTime - sample.lastSampleTime;
    113c:	6abb      	ldr	r3, [r7, #40]	; 0x28
    113e:	1ac0      	subs	r0, r0, r3
    1140:	6338      	str	r0, [r7, #48]	; 0x30

    sample.pressureAltitude = paToFeetNOAA(sample.pressureMbar);
    1142:	68b8      	ldr	r0, [r7, #8]
    1144:	68f9      	ldr	r1, [r7, #12]
    1146:	f240 63db 	movw	r3, #1755	; 0x6db
    114a:	f2c0 0300 	movt	r3, #0
    114e:	4798      	blx	r3
    1150:	61b8      	str	r0, [r7, #24]
    1152:	61f9      	str	r1, [r7, #28]
    sample.dX = sample.pressureAltitude - sample.lastSampleAltitude;
    1154:	f643 24e9 	movw	r4, #15081	; 0x3ae9
    1158:	f2c0 0400 	movt	r4, #0
    115c:	6a3a      	ldr	r2, [r7, #32]
    115e:	6a7b      	ldr	r3, [r7, #36]	; 0x24
    1160:	47a0      	blx	r4
    1162:	0004      	movs	r4, r0
    1164:	000d      	movs	r5, r1
    1166:	63bc      	str	r4, [r7, #56]	; 0x38
    1168:	63fd      	str	r5, [r7, #60]	; 0x3c

    sample.dxdt = sample.dX/sample.dT;
    116a:	f244 2349 	movw	r3, #16969	; 0x4249
    116e:	f2c0 0300 	movt	r3, #0
    1172:	6b38      	ldr	r0, [r7, #48]	; 0x30
    1174:	4798      	blx	r3
    1176:	0002      	movs	r2, r0
    1178:	000b      	movs	r3, r1
    117a:	f642 5689 	movw	r6, #11657	; 0x2d89
    117e:	f2c0 0600 	movt	r6, #0
    1182:	0020      	movs	r0, r4
    1184:	0029      	movs	r1, r5
    1186:	47b0      	blx	r6
    1188:	0004      	movs	r4, r0
    118a:	000d      	movs	r5, r1
    118c:	643c      	str	r4, [r7, #64]	; 0x40
    118e:	647d      	str	r5, [r7, #68]	; 0x44

    sample.AVGdXdT = sample.AVGdXdT*0.75 + sample.dxdt*0.25;
    1190:	f243 56d9 	movw	r6, #13785	; 0x35d9
    1194:	f2c0 0600 	movt	r6, #0
    1198:	2200      	movs	r2, #0
    119a:	2300      	movs	r3, #0
    119c:	f6c3 73e8 	movt	r3, #16360	; 0x3fe8
    11a0:	6cb8      	ldr	r0, [r7, #72]	; 0x48
    11a2:	6cf9      	ldr	r1, [r7, #76]	; 0x4c
    11a4:	47b0      	blx	r6
    11a6:	9000      	str	r0, [sp, #0]
    11a8:	9101      	str	r1, [sp, #4]
    11aa:	2200      	movs	r2, #0
    11ac:	2300      	movs	r3, #0
    11ae:	f6c3 73d0 	movt	r3, #16336	; 0x3fd0
    11b2:	0020      	movs	r0, r4
    11b4:	0029      	movs	r1, r5
    11b6:	47b0      	blx	r6
    11b8:	0002      	movs	r2, r0
    11ba:	000b      	movs	r3, r1
    11bc:	f242 64c9 	movw	r4, #9929	; 0x26c9
    11c0:	f2c0 0400 	movt	r4, #0
    11c4:	9800      	ldr	r0, [sp, #0]
    11c6:	9901      	ldr	r1, [sp, #4]
    11c8:	47a0      	blx	r4
    11ca:	64b8      	str	r0, [r7, #72]	; 0x48
    11cc:	64f9      	str	r1, [r7, #76]	; 0x4c

    ++sample.sampleCount;
    11ce:	683b      	ldr	r3, [r7, #0]
    11d0:	3301      	adds	r3, #1
    11d2:	603b      	str	r3, [r7, #0]
}
    11d4:	b004      	add	sp, #16
    11d6:	bc04      	pop	{r2}
    11d8:	4690      	mov	r8, r2
    11da:	bdf0      	pop	{r4, r5, r6, r7, pc}
    11dc:	200000b8 	.word	0x200000b8

000011e0 <warmUp>:

void warmUp() {
    11e0:	b570      	push	{r4, r5, r6, lr}
    //warm up baro
    while (sample.sampleCount < 10) {
    11e2:	f240 05b0 	movw	r5, #176	; 0xb0
    11e6:	f2c2 0500 	movt	r5, #8192	; 0x2000
        if (takeSample) {
    11ea:	f240 04ac 	movw	r4, #172	; 0xac
    11ee:	f2c2 0400 	movt	r4, #8192	; 0x2000
            getAltitude();
    11f2:	f241 06b9 	movw	r6, #4281	; 0x10b9
    11f6:	f2c0 0600 	movt	r6, #0
    while (sample.sampleCount < 10) {
    11fa:	682b      	ldr	r3, [r5, #0]
        if (takeSample) {
    11fc:	7822      	ldrb	r2, [r4, #0]
    while (sample.sampleCount < 10) {
    11fe:	2b09      	cmp	r3, #9
    1200:	d803      	bhi.n	120a <warmUp+0x2a>
        if (takeSample) {
    1202:	2a00      	cmp	r2, #0
    1204:	d0fb      	beq.n	11fe <warmUp+0x1e>
            getAltitude();
    1206:	47b0      	blx	r6
    1208:	e7f7      	b.n	11fa <warmUp+0x1a>
        }
    }

}
    120a:	bd70      	pop	{r4, r5, r6, pc}

0000120c <main>:


u32_t samples = 0;
u32_t notsamples = 0;

int main(void) {
    120c:	b570      	push	{r4, r5, r6, lr}
    /* Initialize the SAM system */
    SystemInit();
    120e:	f240 538d 	movw	r3, #1421	; 0x58d
    1212:	f2c0 0300 	movt	r3, #0
    1216:	4798      	blx	r3
    init();
    1218:	f640 63d3 	movw	r3, #3795	; 0xed3
    121c:	f2c0 0300 	movt	r3, #0
    1220:	4798      	blx	r3
    initMS5803Barometer();
    1222:	f240 73c5 	movw	r3, #1989	; 0x7c5
    1226:	f2c0 0300 	movt	r3, #0
    122a:	4798      	blx	r3

    buzzing = false;
    122c:	f240 03ad 	movw	r3, #173	; 0xad
    1230:	f2c2 0300 	movt	r3, #8192	; 0x2000
    1234:	2400      	movs	r4, #0
    1236:	701c      	strb	r4, [r3, #0]
    warmUp();
    1238:	f241 13e1 	movw	r3, #4577	; 0x11e1
    123c:	f2c0 0300 	movt	r3, #0
    1240:	4798      	blx	r3

    u32_t beep = 900;
    setBuzzerFreq(beep);
    1242:	f240 3084 	movw	r0, #900	; 0x384
    1246:	f240 13a9 	movw	r3, #425	; 0x1a9
    124a:	f2c0 0300 	movt	r3, #0
    124e:	4798      	blx	r3
    beepms(90000/beep);
    1250:	2064      	movs	r0, #100	; 0x64
    1252:	f240 1361 	movw	r3, #353	; 0x161
    1256:	f2c0 0300 	movt	r3, #0
    125a:	4798      	blx	r3
    TC2->COUNT16.CTRLA.reg = 0;
    125c:	f641 0300 	movw	r3, #6144	; 0x1800
    1260:	f2c4 2300 	movt	r3, #16896	; 0x4200
    1264:	601c      	str	r4, [r3, #0]
    1266:	f243 0300 	movw	r3, #12288	; 0x3000
    126a:	f2c4 0300 	movt	r3, #16384	; 0x4000
    126e:	f640 0200 	movw	r2, #2048	; 0x800
    1272:	619a      	str	r2, [r3, #24]


    //pinLow(GPSINT);
    pinHigh(GPSINT);

    GPSInit();
    1274:	f240 73ff 	movw	r3, #2047	; 0x7ff
    1278:	f2c0 0300 	movt	r3, #0
    127c:	4798      	blx	r3

    //streamAlt();
    u8_t message[255];


    GPSUSARTBYPASS();
    127e:	f640 536d 	movw	r3, #3437	; 0xd6d
    1282:	f2c0 0300 	movt	r3, #0
    1286:	4798      	blx	r3
        //    delay_ms(100);
        //    lasttime = millis();
        //    TC2->COUNT16.CTRLA.reg = 0;
        //}

        delay_us(1);
    1288:	f240 35db 	movw	r5, #987	; 0x3db
    128c:	f2c0 0500 	movt	r5, #0
//
//             for (u8_t j = 0; j < messageLength; j++) {
//                 usartDataOut(0, message[j]);
//             }

        if (takeSample) {
    1290:	f240 04ac 	movw	r4, #172	; 0xac
    1294:	f2c2 0400 	movt	r4, #8192	; 0x2000

            getAltitude();
    1298:	f241 06b9 	movw	r6, #4281	; 0x10b9
    129c:	f2c0 0600 	movt	r6, #0
        delay_us(1);
    12a0:	2001      	movs	r0, #1
    12a2:	47a8      	blx	r5
        if (takeSample) {
    12a4:	7823      	ldrb	r3, [r4, #0]
    12a6:	2b00      	cmp	r3, #0
    12a8:	d0fa      	beq.n	12a0 <main+0x94>
            getAltitude();
    12aa:	47b0      	blx	r6
            takeSample = false;
    12ac:	2300      	movs	r3, #0
    12ae:	7023      	strb	r3, [r4, #0]



            parseGPSMessage();
    12b0:	f640 03f5 	movw	r3, #2293	; 0x8f5
    12b4:	f2c0 0300 	movt	r3, #0
    12b8:	4798      	blx	r3
    12ba:	e7f1      	b.n	12a0 <main+0x94>

000012bc <pow>:
    12bc:	b5f0      	push	{r4, r5, r6, r7, lr}
    12be:	4646      	mov	r6, r8
    12c0:	46d6      	mov	lr, sl
    12c2:	464f      	mov	r7, r9
    12c4:	b5c0      	push	{r6, r7, lr}
    12c6:	f240 060c 	movw	r6, #12
    12ca:	b08e      	sub	sp, #56	; 0x38
    12cc:	001d      	movs	r5, r3
    12ce:	0014      	movs	r4, r2
    12d0:	9000      	str	r0, [sp, #0]
    12d2:	9101      	str	r1, [sp, #4]
    12d4:	f000 f99e 	bl	1614 <__ieee754_pow>
    12d8:	2300      	movs	r3, #0
    12da:	f2c2 0600 	movt	r6, #8192	; 0x2000
    12de:	56f3      	ldrsb	r3, [r6, r3]
    12e0:	9002      	str	r0, [sp, #8]
    12e2:	9103      	str	r1, [sp, #12]
    12e4:	4698      	mov	r8, r3
    12e6:	3301      	adds	r3, #1
    12e8:	d040      	beq.n	136c <pow+0xb0>
    12ea:	0022      	movs	r2, r4
    12ec:	002b      	movs	r3, r5
    12ee:	0020      	movs	r0, r4
    12f0:	0029      	movs	r1, r5
    12f2:	f002 ff45 	bl	4180 <__aeabi_dcmpun>
    12f6:	4682      	mov	sl, r0
    12f8:	bbc0      	cbnz	r0, 136c <pow+0xb0>
    12fa:	9800      	ldr	r0, [sp, #0]
    12fc:	9901      	ldr	r1, [sp, #4]
    12fe:	0002      	movs	r2, r0
    1300:	000b      	movs	r3, r1
    1302:	f002 ff3d 	bl	4180 <__aeabi_dcmpun>
    1306:	2200      	movs	r2, #0
    1308:	4681      	mov	r9, r0
    130a:	2800      	cmp	r0, #0
    130c:	d000      	beq.n	1310 <pow+0x54>
    130e:	e0b4      	b.n	147a <pow+0x1be>
    1310:	9800      	ldr	r0, [sp, #0]
    1312:	9901      	ldr	r1, [sp, #4]
    1314:	2300      	movs	r3, #0
    1316:	f001 f965 	bl	25e4 <__aeabi_dcmpeq>
    131a:	2800      	cmp	r0, #0
    131c:	d02e      	beq.n	137c <pow+0xc0>
    131e:	2200      	movs	r2, #0
    1320:	2300      	movs	r3, #0
    1322:	0020      	movs	r0, r4
    1324:	0029      	movs	r1, r5
    1326:	f001 f95d 	bl	25e4 <__aeabi_dcmpeq>
    132a:	4682      	mov	sl, r0
    132c:	2800      	cmp	r0, #0
    132e:	d100      	bne.n	1332 <pow+0x76>
    1330:	e074      	b.n	141c <pow+0x160>
    1332:	2301      	movs	r3, #1
    1334:	9304      	str	r3, [sp, #16]
    1336:	f244 43ec 	movw	r3, #17644	; 0x44ec
    133a:	af04      	add	r7, sp, #16
    133c:	f2c0 0300 	movt	r3, #0
    1340:	607b      	str	r3, [r7, #4]
    1342:	464b      	mov	r3, r9
    1344:	613c      	str	r4, [r7, #16]
    1346:	617d      	str	r5, [r7, #20]
    1348:	623b      	str	r3, [r7, #32]
    134a:	2400      	movs	r4, #0
    134c:	9a00      	ldr	r2, [sp, #0]
    134e:	9b01      	ldr	r3, [sp, #4]
    1350:	60ba      	str	r2, [r7, #8]
    1352:	60fb      	str	r3, [r7, #12]
    1354:	2300      	movs	r3, #0
    1356:	61bb      	str	r3, [r7, #24]
    1358:	61fc      	str	r4, [r7, #28]
    135a:	4643      	mov	r3, r8
    135c:	2b00      	cmp	r3, #0
    135e:	d04e      	beq.n	13fe <pow+0x142>
    1360:	2400      	movs	r4, #0
    1362:	2300      	movs	r3, #0
    1364:	f6c3 74f0 	movt	r4, #16368	; 0x3ff0
    1368:	9302      	str	r3, [sp, #8]
    136a:	9403      	str	r4, [sp, #12]
    136c:	9802      	ldr	r0, [sp, #8]
    136e:	9903      	ldr	r1, [sp, #12]
    1370:	b00e      	add	sp, #56	; 0x38
    1372:	bc1c      	pop	{r2, r3, r4}
    1374:	4690      	mov	r8, r2
    1376:	4699      	mov	r9, r3
    1378:	46a2      	mov	sl, r4
    137a:	bdf0      	pop	{r4, r5, r6, r7, pc}
    137c:	9802      	ldr	r0, [sp, #8]
    137e:	9903      	ldr	r1, [sp, #12]
    1380:	f000 ffe6 	bl	2350 <finite>
    1384:	4680      	mov	r8, r0
    1386:	2800      	cmp	r0, #0
    1388:	d100      	bne.n	138c <pow+0xd0>
    138a:	e09a      	b.n	14c2 <pow+0x206>
    138c:	9802      	ldr	r0, [sp, #8]
    138e:	9903      	ldr	r1, [sp, #12]
    1390:	2200      	movs	r2, #0
    1392:	2300      	movs	r3, #0
    1394:	f001 f926 	bl	25e4 <__aeabi_dcmpeq>
    1398:	2800      	cmp	r0, #0
    139a:	d0e7      	beq.n	136c <pow+0xb0>
    139c:	9800      	ldr	r0, [sp, #0]
    139e:	9901      	ldr	r1, [sp, #4]
    13a0:	f000 ffd6 	bl	2350 <finite>
    13a4:	2800      	cmp	r0, #0
    13a6:	d0e1      	beq.n	136c <pow+0xb0>
    13a8:	0020      	movs	r0, r4
    13aa:	0029      	movs	r1, r5
    13ac:	f000 ffd0 	bl	2350 <finite>
    13b0:	2800      	cmp	r0, #0
    13b2:	d0db      	beq.n	136c <pow+0xb0>
    13b4:	2304      	movs	r3, #4
    13b6:	9304      	str	r3, [sp, #16]
    13b8:	f244 43ec 	movw	r3, #17644	; 0x44ec
    13bc:	af04      	add	r7, sp, #16
    13be:	f2c0 0300 	movt	r3, #0
    13c2:	607b      	str	r3, [r7, #4]
    13c4:	2300      	movs	r3, #0
    13c6:	613c      	str	r4, [r7, #16]
    13c8:	617d      	str	r5, [r7, #20]
    13ca:	623b      	str	r3, [r7, #32]
    13cc:	2400      	movs	r4, #0
    13ce:	9a00      	ldr	r2, [sp, #0]
    13d0:	9b01      	ldr	r3, [sp, #4]
    13d2:	60ba      	str	r2, [r7, #8]
    13d4:	60fb      	str	r3, [r7, #12]
    13d6:	2300      	movs	r3, #0
    13d8:	61bb      	str	r3, [r7, #24]
    13da:	61fc      	str	r4, [r7, #28]
    13dc:	2300      	movs	r3, #0
    13de:	56f3      	ldrsb	r3, [r6, r3]
    13e0:	2b02      	cmp	r3, #2
    13e2:	d003      	beq.n	13ec <pow+0x130>
    13e4:	0038      	movs	r0, r7
    13e6:	f000 ffbd 	bl	2364 <matherr>
    13ea:	b960      	cbnz	r0, 1406 <pow+0x14a>
    13ec:	f002 ff84 	bl	42f8 <__errno>
    13f0:	2322      	movs	r3, #34	; 0x22
    13f2:	6003      	str	r3, [r0, #0]
    13f4:	e007      	b.n	1406 <pow+0x14a>
    13f6:	2300      	movs	r3, #0
    13f8:	2400      	movs	r4, #0
    13fa:	61bb      	str	r3, [r7, #24]
    13fc:	61fc      	str	r4, [r7, #28]
    13fe:	0038      	movs	r0, r7
    1400:	f000 ffb0 	bl	2364 <matherr>
    1404:	b3a0      	cbz	r0, 1470 <pow+0x1b4>
    1406:	6a3b      	ldr	r3, [r7, #32]
    1408:	b11b      	cbz	r3, 1412 <pow+0x156>
    140a:	f002 ff75 	bl	42f8 <__errno>
    140e:	6a3b      	ldr	r3, [r7, #32]
    1410:	6003      	str	r3, [r0, #0]
    1412:	69bb      	ldr	r3, [r7, #24]
    1414:	69fc      	ldr	r4, [r7, #28]
    1416:	9302      	str	r3, [sp, #8]
    1418:	9403      	str	r4, [sp, #12]
    141a:	e7a7      	b.n	136c <pow+0xb0>
    141c:	0020      	movs	r0, r4
    141e:	0029      	movs	r1, r5
    1420:	f000 ff96 	bl	2350 <finite>
    1424:	2800      	cmp	r0, #0
    1426:	d0a1      	beq.n	136c <pow+0xb0>
    1428:	2200      	movs	r2, #0
    142a:	2300      	movs	r3, #0
    142c:	0020      	movs	r0, r4
    142e:	0029      	movs	r1, r5
    1430:	f001 f8de 	bl	25f0 <__aeabi_dcmplt>
    1434:	2800      	cmp	r0, #0
    1436:	d099      	beq.n	136c <pow+0xb0>
    1438:	2301      	movs	r3, #1
    143a:	9304      	str	r3, [sp, #16]
    143c:	f244 43ec 	movw	r3, #17644	; 0x44ec
    1440:	af04      	add	r7, sp, #16
    1442:	f2c0 0300 	movt	r3, #0
    1446:	607b      	str	r3, [r7, #4]
    1448:	4653      	mov	r3, sl
    144a:	623b      	str	r3, [r7, #32]
    144c:	9a00      	ldr	r2, [sp, #0]
    144e:	9b01      	ldr	r3, [sp, #4]
    1450:	60ba      	str	r2, [r7, #8]
    1452:	60fb      	str	r3, [r7, #12]
    1454:	2300      	movs	r3, #0
    1456:	56f3      	ldrsb	r3, [r6, r3]
    1458:	613c      	str	r4, [r7, #16]
    145a:	617d      	str	r5, [r7, #20]
    145c:	2b00      	cmp	r3, #0
    145e:	d0ca      	beq.n	13f6 <pow+0x13a>
    1460:	2100      	movs	r1, #0
    1462:	2000      	movs	r0, #0
    1464:	f6cf 71f0 	movt	r1, #65520	; 0xfff0
    1468:	61b8      	str	r0, [r7, #24]
    146a:	61f9      	str	r1, [r7, #28]
    146c:	2b02      	cmp	r3, #2
    146e:	d1c6      	bne.n	13fe <pow+0x142>
    1470:	f002 ff42 	bl	42f8 <__errno>
    1474:	2321      	movs	r3, #33	; 0x21
    1476:	6003      	str	r3, [r0, #0]
    1478:	e7c5      	b.n	1406 <pow+0x14a>
    147a:	2300      	movs	r3, #0
    147c:	0020      	movs	r0, r4
    147e:	0029      	movs	r1, r5
    1480:	f001 f8b0 	bl	25e4 <__aeabi_dcmpeq>
    1484:	2800      	cmp	r0, #0
    1486:	d100      	bne.n	148a <pow+0x1ce>
    1488:	e770      	b.n	136c <pow+0xb0>
    148a:	2301      	movs	r3, #1
    148c:	9304      	str	r3, [sp, #16]
    148e:	f244 43ec 	movw	r3, #17644	; 0x44ec
    1492:	af04      	add	r7, sp, #16
    1494:	f2c0 0300 	movt	r3, #0
    1498:	607b      	str	r3, [r7, #4]
    149a:	4653      	mov	r3, sl
    149c:	623b      	str	r3, [r7, #32]
    149e:	9a00      	ldr	r2, [sp, #0]
    14a0:	9b01      	ldr	r3, [sp, #4]
    14a2:	60ba      	str	r2, [r7, #8]
    14a4:	60fb      	str	r3, [r7, #12]
    14a6:	2300      	movs	r3, #0
    14a8:	2200      	movs	r2, #0
    14aa:	f6c3 73f0 	movt	r3, #16368	; 0x3ff0
    14ae:	61ba      	str	r2, [r7, #24]
    14b0:	61fb      	str	r3, [r7, #28]
    14b2:	9202      	str	r2, [sp, #8]
    14b4:	9303      	str	r3, [sp, #12]
    14b6:	4643      	mov	r3, r8
    14b8:	613c      	str	r4, [r7, #16]
    14ba:	617d      	str	r5, [r7, #20]
    14bc:	2b02      	cmp	r3, #2
    14be:	d19e      	bne.n	13fe <pow+0x142>
    14c0:	e754      	b.n	136c <pow+0xb0>
    14c2:	9800      	ldr	r0, [sp, #0]
    14c4:	9901      	ldr	r1, [sp, #4]
    14c6:	f000 ff43 	bl	2350 <finite>
    14ca:	2800      	cmp	r0, #0
    14cc:	d100      	bne.n	14d0 <pow+0x214>
    14ce:	e75d      	b.n	138c <pow+0xd0>
    14d0:	0020      	movs	r0, r4
    14d2:	0029      	movs	r1, r5
    14d4:	f000 ff3c 	bl	2350 <finite>
    14d8:	2800      	cmp	r0, #0
    14da:	d100      	bne.n	14de <pow+0x222>
    14dc:	e756      	b.n	138c <pow+0xd0>
    14de:	9802      	ldr	r0, [sp, #8]
    14e0:	9903      	ldr	r1, [sp, #12]
    14e2:	0002      	movs	r2, r0
    14e4:	000b      	movs	r3, r1
    14e6:	f002 fe4b 	bl	4180 <__aeabi_dcmpun>
    14ea:	af04      	add	r7, sp, #16
    14ec:	2800      	cmp	r0, #0
    14ee:	d170      	bne.n	15d2 <pow+0x316>
    14f0:	2303      	movs	r3, #3
    14f2:	9304      	str	r3, [sp, #16]
    14f4:	f244 43ec 	movw	r3, #17644	; 0x44ec
    14f8:	f2c0 0300 	movt	r3, #0
    14fc:	607b      	str	r3, [r7, #4]
    14fe:	6238      	str	r0, [r7, #32]
    1500:	9800      	ldr	r0, [sp, #0]
    1502:	9901      	ldr	r1, [sp, #4]
    1504:	000b      	movs	r3, r1
    1506:	0002      	movs	r2, r0
    1508:	60ba      	str	r2, [r7, #8]
    150a:	60fb      	str	r3, [r7, #12]
    150c:	2300      	movs	r3, #0
    150e:	56f3      	ldrsb	r3, [r6, r3]
    1510:	613c      	str	r4, [r7, #16]
    1512:	617d      	str	r5, [r7, #20]
    1514:	4698      	mov	r8, r3
    1516:	bb8b      	cbnz	r3, 157c <pow+0x2c0>
    1518:	22e0      	movs	r2, #224	; 0xe0
    151a:	f64f 73ff 	movw	r3, #65535	; 0xffff
    151e:	0612      	lsls	r2, r2, #24
    1520:	f2c4 73ef 	movt	r3, #18415	; 0x47ef
    1524:	61ba      	str	r2, [r7, #24]
    1526:	61fb      	str	r3, [r7, #28]
    1528:	2200      	movs	r2, #0
    152a:	2300      	movs	r3, #0
    152c:	f001 f860 	bl	25f0 <__aeabi_dcmplt>
    1530:	2800      	cmp	r0, #0
    1532:	d100      	bne.n	1536 <pow+0x27a>
    1534:	e756      	b.n	13e4 <pow+0x128>
    1536:	2300      	movs	r3, #0
    1538:	2200      	movs	r2, #0
    153a:	f6c3 73e0 	movt	r3, #16352	; 0x3fe0
    153e:	0020      	movs	r0, r4
    1540:	0029      	movs	r1, r5
    1542:	f002 f849 	bl	35d8 <__aeabi_dmul>
    1546:	0004      	movs	r4, r0
    1548:	000d      	movs	r5, r1
    154a:	f000 ff13 	bl	2374 <rint>
    154e:	0002      	movs	r2, r0
    1550:	000b      	movs	r3, r1
    1552:	0020      	movs	r0, r4
    1554:	0029      	movs	r1, r5
    1556:	f001 f845 	bl	25e4 <__aeabi_dcmpeq>
    155a:	bbb0      	cbnz	r0, 15ca <pow+0x30e>
    155c:	22e0      	movs	r2, #224	; 0xe0
    155e:	f64f 73ff 	movw	r3, #65535	; 0xffff
    1562:	0612      	lsls	r2, r2, #24
    1564:	f2cc 73ef 	movt	r3, #51183	; 0xc7ef
    1568:	61ba      	str	r2, [r7, #24]
    156a:	61fb      	str	r3, [r7, #28]
    156c:	2300      	movs	r3, #0
    156e:	56f3      	ldrsb	r3, [r6, r3]
    1570:	4698      	mov	r8, r3
    1572:	4643      	mov	r3, r8
    1574:	2b02      	cmp	r3, #2
    1576:	d000      	beq.n	157a <pow+0x2be>
    1578:	e734      	b.n	13e4 <pow+0x128>
    157a:	e737      	b.n	13ec <pow+0x130>
    157c:	2300      	movs	r3, #0
    157e:	9800      	ldr	r0, [sp, #0]
    1580:	9901      	ldr	r1, [sp, #4]
    1582:	2200      	movs	r2, #0
    1584:	f6c7 73f0 	movt	r3, #32752	; 0x7ff0
    1588:	61ba      	str	r2, [r7, #24]
    158a:	61fb      	str	r3, [r7, #28]
    158c:	2200      	movs	r2, #0
    158e:	2300      	movs	r3, #0
    1590:	f001 f82e 	bl	25f0 <__aeabi_dcmplt>
    1594:	2800      	cmp	r0, #0
    1596:	d0ec      	beq.n	1572 <pow+0x2b6>
    1598:	2300      	movs	r3, #0
    159a:	2200      	movs	r2, #0
    159c:	f6c3 73e0 	movt	r3, #16352	; 0x3fe0
    15a0:	0020      	movs	r0, r4
    15a2:	0029      	movs	r1, r5
    15a4:	f002 f818 	bl	35d8 <__aeabi_dmul>
    15a8:	0004      	movs	r4, r0
    15aa:	000d      	movs	r5, r1
    15ac:	f000 fee2 	bl	2374 <rint>
    15b0:	0002      	movs	r2, r0
    15b2:	000b      	movs	r3, r1
    15b4:	0020      	movs	r0, r4
    15b6:	0029      	movs	r1, r5
    15b8:	f001 f814 	bl	25e4 <__aeabi_dcmpeq>
    15bc:	b928      	cbnz	r0, 15ca <pow+0x30e>
    15be:	2300      	movs	r3, #0
    15c0:	2200      	movs	r2, #0
    15c2:	f6cf 73f0 	movt	r3, #65520	; 0xfff0
    15c6:	61ba      	str	r2, [r7, #24]
    15c8:	61fb      	str	r3, [r7, #28]
    15ca:	2300      	movs	r3, #0
    15cc:	56f3      	ldrsb	r3, [r6, r3]
    15ce:	4698      	mov	r8, r3
    15d0:	e7cf      	b.n	1572 <pow+0x2b6>
    15d2:	2301      	movs	r3, #1
    15d4:	9304      	str	r3, [sp, #16]
    15d6:	f244 43ec 	movw	r3, #17644	; 0x44ec
    15da:	613c      	str	r4, [r7, #16]
    15dc:	617d      	str	r5, [r7, #20]
    15de:	2400      	movs	r4, #0
    15e0:	f2c0 0300 	movt	r3, #0
    15e4:	607b      	str	r3, [r7, #4]
    15e6:	4643      	mov	r3, r8
    15e8:	5734      	ldrsb	r4, [r6, r4]
    15ea:	623b      	str	r3, [r7, #32]
    15ec:	9a00      	ldr	r2, [sp, #0]
    15ee:	9b01      	ldr	r3, [sp, #4]
    15f0:	60ba      	str	r2, [r7, #8]
    15f2:	60fb      	str	r3, [r7, #12]
    15f4:	2c00      	cmp	r4, #0
    15f6:	d100      	bne.n	15fa <pow+0x33e>
    15f8:	e6fd      	b.n	13f6 <pow+0x13a>
    15fa:	2200      	movs	r2, #0
    15fc:	2300      	movs	r3, #0
    15fe:	0010      	movs	r0, r2
    1600:	0019      	movs	r1, r3
    1602:	f001 fbc1 	bl	2d88 <__aeabi_ddiv>
    1606:	61b8      	str	r0, [r7, #24]
    1608:	61f9      	str	r1, [r7, #28]
    160a:	2c02      	cmp	r4, #2
    160c:	d100      	bne.n	1610 <pow+0x354>
    160e:	e72f      	b.n	1470 <pow+0x1b4>
    1610:	e6f5      	b.n	13fe <pow+0x142>
    1612:	46c0      	nop			; (mov r8, r8)

00001614 <__ieee754_pow>:
    1614:	b5f0      	push	{r4, r5, r6, r7, lr}
    1616:	4657      	mov	r7, sl
    1618:	464e      	mov	r6, r9
    161a:	4645      	mov	r5, r8
    161c:	46de      	mov	lr, fp
    161e:	001c      	movs	r4, r3
    1620:	0013      	movs	r3, r2
    1622:	b5e0      	push	{r5, r6, r7, lr}
    1624:	0065      	lsls	r5, r4, #1
    1626:	b091      	sub	sp, #68	; 0x44
    1628:	086d      	lsrs	r5, r5, #1
    162a:	9300      	str	r3, [sp, #0]
    162c:	9401      	str	r4, [sp, #4]
    162e:	432b      	orrs	r3, r5
    1630:	0007      	movs	r7, r0
    1632:	000e      	movs	r6, r1
    1634:	4680      	mov	r8, r0
    1636:	4689      	mov	r9, r1
    1638:	46a2      	mov	sl, r4
    163a:	b3f3      	cbz	r3, 16ba <__ieee754_pow+0xa6>
    163c:	2300      	movs	r3, #0
    163e:	0074      	lsls	r4, r6, #1
    1640:	f6c7 73f0 	movt	r3, #32752	; 0x7ff0
    1644:	0864      	lsrs	r4, r4, #1
    1646:	429c      	cmp	r4, r3
    1648:	dc30      	bgt.n	16ac <__ieee754_pow+0x98>
    164a:	d02e      	beq.n	16aa <__ieee754_pow+0x96>
    164c:	429d      	cmp	r5, r3
    164e:	dc2d      	bgt.n	16ac <__ieee754_pow+0x98>
    1650:	2300      	movs	r3, #0
    1652:	f6c7 73f0 	movt	r3, #32752	; 0x7ff0
    1656:	429d      	cmp	r5, r3
    1658:	d100      	bne.n	165c <__ieee754_pow+0x48>
    165a:	e0cb      	b.n	17f4 <__ieee754_pow+0x1e0>
    165c:	464b      	mov	r3, r9
    165e:	f240 0b00 	movw	fp, #0
    1662:	2b00      	cmp	r3, #0
    1664:	da00      	bge.n	1668 <__ieee754_pow+0x54>
    1666:	e092      	b.n	178e <__ieee754_pow+0x17a>
    1668:	2a00      	cmp	r2, #0
    166a:	d13a      	bne.n	16e2 <__ieee754_pow+0xce>
    166c:	2300      	movs	r3, #0
    166e:	f6c7 73f0 	movt	r3, #32752	; 0x7ff0
    1672:	429d      	cmp	r5, r3
    1674:	d100      	bne.n	1678 <__ieee754_pow+0x64>
    1676:	e0c1      	b.n	17fc <__ieee754_pow+0x1e8>
    1678:	2300      	movs	r3, #0
    167a:	f6c3 73f0 	movt	r3, #16368	; 0x3ff0
    167e:	429d      	cmp	r5, r3
    1680:	d100      	bne.n	1684 <__ieee754_pow+0x70>
    1682:	e0a8      	b.n	17d6 <__ieee754_pow+0x1c2>
    1684:	2380      	movs	r3, #128	; 0x80
    1686:	05db      	lsls	r3, r3, #23
    1688:	459a      	cmp	sl, r3
    168a:	d101      	bne.n	1690 <__ieee754_pow+0x7c>
    168c:	f000 fc27 	bl	1ede <__ieee754_pow+0x8ca>
    1690:	2300      	movs	r3, #0
    1692:	f6c3 73e0 	movt	r3, #16352	; 0x3fe0
    1696:	459a      	cmp	sl, r3
    1698:	d123      	bne.n	16e2 <__ieee754_pow+0xce>
    169a:	464b      	mov	r3, r9
    169c:	2b00      	cmp	r3, #0
    169e:	db20      	blt.n	16e2 <__ieee754_pow+0xce>
    16a0:	0038      	movs	r0, r7
    16a2:	0031      	movs	r1, r6
    16a4:	f000 fd6e 	bl	2184 <__ieee754_sqrt>
    16a8:	e00b      	b.n	16c2 <__ieee754_pow+0xae>
    16aa:	b188      	cbz	r0, 16d0 <__ieee754_pow+0xbc>
    16ac:	2300      	movs	r3, #0
    16ae:	f2cc 0310 	movt	r3, #49168	; 0xc010
    16b2:	469c      	mov	ip, r3
    16b4:	4464      	add	r4, ip
    16b6:	4327      	orrs	r7, r4
    16b8:	b967      	cbnz	r7, 16d4 <__ieee754_pow+0xc0>
    16ba:	2100      	movs	r1, #0
    16bc:	2000      	movs	r0, #0
    16be:	f6c3 71f0 	movt	r1, #16368	; 0x3ff0
    16c2:	b011      	add	sp, #68	; 0x44
    16c4:	bc3c      	pop	{r2, r3, r4, r5}
    16c6:	4690      	mov	r8, r2
    16c8:	4699      	mov	r9, r3
    16ca:	46a2      	mov	sl, r4
    16cc:	46ab      	mov	fp, r5
    16ce:	bdf0      	pop	{r4, r5, r6, r7, pc}
    16d0:	42a5      	cmp	r5, r4
    16d2:	ddbd      	ble.n	1650 <__ieee754_pow+0x3c>
    16d4:	f244 40f0 	movw	r0, #17648	; 0x44f0
    16d8:	f2c0 0000 	movt	r0, #0
    16dc:	f000 fe44 	bl	2368 <nan>
    16e0:	e7ef      	b.n	16c2 <__ieee754_pow+0xae>
    16e2:	0038      	movs	r0, r7
    16e4:	0031      	movs	r1, r6
    16e6:	f000 fe2f 	bl	2348 <fabs>
    16ea:	4643      	mov	r3, r8
    16ec:	bb13      	cbnz	r3, 1734 <__ieee754_pow+0x120>
    16ee:	b134      	cbz	r4, 16fe <__ieee754_pow+0xea>
    16f0:	2200      	movs	r2, #0
    16f2:	00b3      	lsls	r3, r6, #2
    16f4:	f6c3 72f0 	movt	r2, #16368	; 0x3ff0
    16f8:	089b      	lsrs	r3, r3, #2
    16fa:	4293      	cmp	r3, r2
    16fc:	d11a      	bne.n	1734 <__ieee754_pow+0x120>
    16fe:	4653      	mov	r3, sl
    1700:	2b00      	cmp	r3, #0
    1702:	da01      	bge.n	1708 <__ieee754_pow+0xf4>
    1704:	f000 fc3f 	bl	1f86 <__ieee754_pow+0x972>
    1708:	464b      	mov	r3, r9
    170a:	2b00      	cmp	r3, #0
    170c:	dad9      	bge.n	16c2 <__ieee754_pow+0xae>
    170e:	2300      	movs	r3, #0
    1710:	f2cc 0310 	movt	r3, #49168	; 0xc010
    1714:	469c      	mov	ip, r3
    1716:	465b      	mov	r3, fp
    1718:	4464      	add	r4, ip
    171a:	431c      	orrs	r4, r3
    171c:	2c00      	cmp	r4, #0
    171e:	d101      	bne.n	1724 <__ieee754_pow+0x110>
    1720:	f000 fd01 	bl	2126 <__ieee754_pow+0xb12>
    1724:	465b      	mov	r3, fp
    1726:	2b01      	cmp	r3, #1
    1728:	d1cb      	bne.n	16c2 <__ieee754_pow+0xae>
    172a:	2480      	movs	r4, #128	; 0x80
    172c:	0624      	lsls	r4, r4, #24
    172e:	190b      	adds	r3, r1, r4
    1730:	0019      	movs	r1, r3
    1732:	e7c6      	b.n	16c2 <__ieee754_pow+0xae>
    1734:	0ff3      	lsrs	r3, r6, #31
    1736:	3b01      	subs	r3, #1
    1738:	4698      	mov	r8, r3
    173a:	465b      	mov	r3, fp
    173c:	4642      	mov	r2, r8
    173e:	4313      	orrs	r3, r2
    1740:	2b00      	cmp	r3, #0
    1742:	d076      	beq.n	1832 <__ieee754_pow+0x21e>
    1744:	2300      	movs	r3, #0
    1746:	f2c4 13e0 	movt	r3, #16864	; 0x41e0
    174a:	429d      	cmp	r5, r3
    174c:	dc00      	bgt.n	1750 <__ieee754_pow+0x13c>
    174e:	e07d      	b.n	184c <__ieee754_pow+0x238>
    1750:	2300      	movs	r3, #0
    1752:	f2c4 33f0 	movt	r3, #17392	; 0x43f0
    1756:	429d      	cmp	r5, r3
    1758:	dc01      	bgt.n	175e <__ieee754_pow+0x14a>
    175a:	f000 fc29 	bl	1fb0 <__ieee754_pow+0x99c>
    175e:	f64f 73ff 	movw	r3, #65535	; 0xffff
    1762:	f6c3 73ef 	movt	r3, #16367	; 0x3fef
    1766:	429c      	cmp	r4, r3
    1768:	dc01      	bgt.n	176e <__ieee754_pow+0x15a>
    176a:	f000 fc16 	bl	1f9a <__ieee754_pow+0x986>
    176e:	4653      	mov	r3, sl
    1770:	2b00      	cmp	r3, #0
    1772:	dd58      	ble.n	1826 <__ieee754_pow+0x212>
    1774:	f247 529c 	movw	r2, #30108	; 0x759c
    1778:	f24e 433c 	movw	r3, #58428	; 0xe43c
    177c:	f6c8 0200 	movt	r2, #34816	; 0x8800
    1780:	f6c7 6337 	movt	r3, #32311	; 0x7e37
    1784:	0010      	movs	r0, r2
    1786:	0019      	movs	r1, r3
    1788:	f001 ff26 	bl	35d8 <__aeabi_dmul>
    178c:	e799      	b.n	16c2 <__ieee754_pow+0xae>
    178e:	f64f 73ff 	movw	r3, #65535	; 0xffff
    1792:	f2c4 333f 	movt	r3, #17215	; 0x433f
    1796:	429d      	cmp	r5, r3
    1798:	dc48      	bgt.n	182c <__ieee754_pow+0x218>
    179a:	f64f 73ff 	movw	r3, #65535	; 0xffff
    179e:	f6c3 73ef 	movt	r3, #16367	; 0x3fef
    17a2:	429d      	cmp	r5, r3
    17a4:	dc00      	bgt.n	17a8 <__ieee754_pow+0x194>
    17a6:	e75f      	b.n	1668 <__ieee754_pow+0x54>
    17a8:	4927      	ldr	r1, [pc, #156]	; (1848 <__ieee754_pow+0x234>)
    17aa:	152b      	asrs	r3, r5, #20
    17ac:	468c      	mov	ip, r1
    17ae:	4463      	add	r3, ip
    17b0:	2b14      	cmp	r3, #20
    17b2:	dc01      	bgt.n	17b8 <__ieee754_pow+0x1a4>
    17b4:	f000 fc97 	bl	20e6 <__ieee754_pow+0xad2>
    17b8:	2134      	movs	r1, #52	; 0x34
    17ba:	1acb      	subs	r3, r1, r3
    17bc:	9900      	ldr	r1, [sp, #0]
    17be:	40d9      	lsrs	r1, r3
    17c0:	0008      	movs	r0, r1
    17c2:	4098      	lsls	r0, r3
    17c4:	4282      	cmp	r2, r0
    17c6:	d000      	beq.n	17ca <__ieee754_pow+0x1b6>
    17c8:	e74e      	b.n	1668 <__ieee754_pow+0x54>
    17ca:	2301      	movs	r3, #1
    17cc:	4019      	ands	r1, r3
    17ce:	3301      	adds	r3, #1
    17d0:	1a5b      	subs	r3, r3, r1
    17d2:	469b      	mov	fp, r3
    17d4:	e748      	b.n	1668 <__ieee754_pow+0x54>
    17d6:	4653      	mov	r3, sl
    17d8:	0038      	movs	r0, r7
    17da:	0031      	movs	r1, r6
    17dc:	2b00      	cmp	r3, #0
    17de:	db00      	blt.n	17e2 <__ieee754_pow+0x1ce>
    17e0:	e76f      	b.n	16c2 <__ieee754_pow+0xae>
    17e2:	2100      	movs	r1, #0
    17e4:	003a      	movs	r2, r7
    17e6:	0033      	movs	r3, r6
    17e8:	2000      	movs	r0, #0
    17ea:	f6c3 71f0 	movt	r1, #16368	; 0x3ff0
    17ee:	f001 facb 	bl	2d88 <__aeabi_ddiv>
    17f2:	e766      	b.n	16c2 <__ieee754_pow+0xae>
    17f4:	2a00      	cmp	r2, #0
    17f6:	d100      	bne.n	17fa <__ieee754_pow+0x1e6>
    17f8:	e730      	b.n	165c <__ieee754_pow+0x48>
    17fa:	e757      	b.n	16ac <__ieee754_pow+0x98>
    17fc:	2300      	movs	r3, #0
    17fe:	f2cc 0310 	movt	r3, #49168	; 0xc010
    1802:	18e3      	adds	r3, r4, r3
    1804:	431f      	orrs	r7, r3
    1806:	2f00      	cmp	r7, #0
    1808:	d100      	bne.n	180c <__ieee754_pow+0x1f8>
    180a:	e756      	b.n	16ba <__ieee754_pow+0xa6>
    180c:	f64f 73ff 	movw	r3, #65535	; 0xffff
    1810:	f6c3 73ef 	movt	r3, #16367	; 0x3fef
    1814:	429c      	cmp	r4, r3
    1816:	dc00      	bgt.n	181a <__ieee754_pow+0x206>
    1818:	e369      	b.n	1eee <__ieee754_pow+0x8da>
    181a:	9800      	ldr	r0, [sp, #0]
    181c:	9901      	ldr	r1, [sp, #4]
    181e:	4653      	mov	r3, sl
    1820:	2b00      	cmp	r3, #0
    1822:	db00      	blt.n	1826 <__ieee754_pow+0x212>
    1824:	e74d      	b.n	16c2 <__ieee754_pow+0xae>
    1826:	2000      	movs	r0, #0
    1828:	2100      	movs	r1, #0
    182a:	e74a      	b.n	16c2 <__ieee754_pow+0xae>
    182c:	f240 0b02 	movw	fp, #2
    1830:	e71a      	b.n	1668 <__ieee754_pow+0x54>
    1832:	003a      	movs	r2, r7
    1834:	0033      	movs	r3, r6
    1836:	0038      	movs	r0, r7
    1838:	0031      	movs	r1, r6
    183a:	f002 f955 	bl	3ae8 <__aeabi_dsub>
    183e:	0002      	movs	r2, r0
    1840:	000b      	movs	r3, r1
    1842:	f001 faa1 	bl	2d88 <__aeabi_ddiv>
    1846:	e73c      	b.n	16c2 <__ieee754_pow+0xae>
    1848:	fffffc01 	.word	0xfffffc01
    184c:	f64f 73ff 	movw	r3, #65535	; 0xffff
    1850:	f2c0 030f 	movt	r3, #15
    1854:	2200      	movs	r2, #0
    1856:	429c      	cmp	r4, r3
    1858:	dc08      	bgt.n	186c <__ieee754_pow+0x258>
    185a:	2300      	movs	r3, #0
    185c:	2200      	movs	r2, #0
    185e:	f2c4 3340 	movt	r3, #17216	; 0x4340
    1862:	f001 feb9 	bl	35d8 <__aeabi_dmul>
    1866:	2235      	movs	r2, #53	; 0x35
    1868:	000c      	movs	r4, r1
    186a:	4252      	negs	r2, r2
    186c:	4de1      	ldr	r5, [pc, #900]	; (1bf4 <__ieee754_pow+0x5e0>)
    186e:	1523      	asrs	r3, r4, #20
    1870:	46ac      	mov	ip, r5
    1872:	4463      	add	r3, ip
    1874:	4699      	mov	r9, r3
    1876:	2500      	movs	r5, #0
    1878:	f649 038e 	movw	r3, #39054	; 0x988e
    187c:	0324      	lsls	r4, r4, #12
    187e:	0b24      	lsrs	r4, r4, #12
    1880:	f6c3 75f0 	movt	r5, #16368	; 0x3ff0
    1884:	f2c0 0303 	movt	r3, #3
    1888:	4491      	add	r9, r2
    188a:	4325      	orrs	r5, r4
    188c:	429c      	cmp	r4, r3
    188e:	dd0f      	ble.n	18b0 <__ieee754_pow+0x29c>
    1890:	f24b 6379 	movw	r3, #46713	; 0xb679
    1894:	f2c0 030b 	movt	r3, #11
    1898:	429c      	cmp	r4, r3
    189a:	dc01      	bgt.n	18a0 <__ieee754_pow+0x28c>
    189c:	f000 fc4d 	bl	213a <__ieee754_pow+0xb26>
    18a0:	2300      	movs	r3, #0
    18a2:	f240 0c01 	movw	ip, #1
    18a6:	f6cf 73f0 	movt	r3, #65520	; 0xfff0
    18aa:	44e1      	add	r9, ip
    18ac:	469c      	mov	ip, r3
    18ae:	4465      	add	r5, ip
    18b0:	2300      	movs	r3, #0
    18b2:	2400      	movs	r4, #0
    18b4:	9308      	str	r3, [sp, #32]
    18b6:	9409      	str	r4, [sp, #36]	; 0x24
    18b8:	930c      	str	r3, [sp, #48]	; 0x30
    18ba:	940d      	str	r4, [sp, #52]	; 0x34
    18bc:	2300      	movs	r3, #0
    18be:	2200      	movs	r2, #0
    18c0:	2400      	movs	r4, #0
    18c2:	f6c3 73f0 	movt	r3, #16368	; 0x3ff0
    18c6:	9206      	str	r2, [sp, #24]
    18c8:	9307      	str	r3, [sp, #28]
    18ca:	9a06      	ldr	r2, [sp, #24]
    18cc:	9b07      	ldr	r3, [sp, #28]
    18ce:	0029      	movs	r1, r5
    18d0:	900a      	str	r0, [sp, #40]	; 0x28
    18d2:	910b      	str	r1, [sp, #44]	; 0x2c
    18d4:	f002 f908 	bl	3ae8 <__aeabi_dsub>
    18d8:	9a06      	ldr	r2, [sp, #24]
    18da:	9b07      	ldr	r3, [sp, #28]
    18dc:	0006      	movs	r6, r0
    18de:	000f      	movs	r7, r1
    18e0:	980a      	ldr	r0, [sp, #40]	; 0x28
    18e2:	990b      	ldr	r1, [sp, #44]	; 0x2c
    18e4:	f000 fef0 	bl	26c8 <__aeabi_dadd>
    18e8:	000b      	movs	r3, r1
    18ea:	2100      	movs	r1, #0
    18ec:	0002      	movs	r2, r0
    18ee:	f6c3 71f0 	movt	r1, #16368	; 0x3ff0
    18f2:	2000      	movs	r0, #0
    18f4:	f001 fa48 	bl	2d88 <__aeabi_ddiv>
    18f8:	000a      	movs	r2, r1
    18fa:	0001      	movs	r1, r0
    18fc:	0013      	movs	r3, r2
    18fe:	910e      	str	r1, [sp, #56]	; 0x38
    1900:	920f      	str	r2, [sp, #60]	; 0x3c
    1902:	0002      	movs	r2, r0
    1904:	0039      	movs	r1, r7
    1906:	0030      	movs	r0, r6
    1908:	f001 fe66 	bl	35d8 <__aeabi_dmul>
    190c:	000a      	movs	r2, r1
    190e:	0001      	movs	r1, r0
    1910:	2080      	movs	r0, #128	; 0x80
    1912:	9104      	str	r1, [sp, #16]
    1914:	9205      	str	r2, [sp, #20]
    1916:	0013      	movs	r3, r2
    1918:	2200      	movs	r2, #0
    191a:	1069      	asrs	r1, r5, #1
    191c:	2580      	movs	r5, #128	; 0x80
    191e:	0300      	lsls	r0, r0, #12
    1920:	4684      	mov	ip, r0
    1922:	9202      	str	r2, [sp, #8]
    1924:	9303      	str	r3, [sp, #12]
    1926:	2200      	movs	r2, #0
    1928:	05ad      	lsls	r5, r5, #22
    192a:	430d      	orrs	r5, r1
    192c:	4465      	add	r5, ip
    192e:	192b      	adds	r3, r5, r4
    1930:	9802      	ldr	r0, [sp, #8]
    1932:	9903      	ldr	r1, [sp, #12]
    1934:	0014      	movs	r4, r2
    1936:	001d      	movs	r5, r3
    1938:	f001 fe4e 	bl	35d8 <__aeabi_dmul>
    193c:	0002      	movs	r2, r0
    193e:	000b      	movs	r3, r1
    1940:	0030      	movs	r0, r6
    1942:	0039      	movs	r1, r7
    1944:	f002 f8d0 	bl	3ae8 <__aeabi_dsub>
    1948:	9a06      	ldr	r2, [sp, #24]
    194a:	9b07      	ldr	r3, [sp, #28]
    194c:	0006      	movs	r6, r0
    194e:	000f      	movs	r7, r1
    1950:	0020      	movs	r0, r4
    1952:	0029      	movs	r1, r5
    1954:	f002 f8c8 	bl	3ae8 <__aeabi_dsub>
    1958:	0002      	movs	r2, r0
    195a:	000b      	movs	r3, r1
    195c:	980a      	ldr	r0, [sp, #40]	; 0x28
    195e:	990b      	ldr	r1, [sp, #44]	; 0x2c
    1960:	f002 f8c2 	bl	3ae8 <__aeabi_dsub>
    1964:	9a02      	ldr	r2, [sp, #8]
    1966:	9b03      	ldr	r3, [sp, #12]
    1968:	f001 fe36 	bl	35d8 <__aeabi_dmul>
    196c:	0002      	movs	r2, r0
    196e:	000b      	movs	r3, r1
    1970:	0030      	movs	r0, r6
    1972:	0039      	movs	r1, r7
    1974:	f002 f8b8 	bl	3ae8 <__aeabi_dsub>
    1978:	9a0e      	ldr	r2, [sp, #56]	; 0x38
    197a:	9b0f      	ldr	r3, [sp, #60]	; 0x3c
    197c:	f001 fe2c 	bl	35d8 <__aeabi_dmul>
    1980:	9d04      	ldr	r5, [sp, #16]
    1982:	9e05      	ldr	r6, [sp, #20]
    1984:	9006      	str	r0, [sp, #24]
    1986:	9107      	str	r1, [sp, #28]
    1988:	002a      	movs	r2, r5
    198a:	0033      	movs	r3, r6
    198c:	0028      	movs	r0, r5
    198e:	0031      	movs	r1, r6
    1990:	f001 fe22 	bl	35d8 <__aeabi_dmul>
    1994:	f644 62ef 	movw	r2, #20207	; 0x4eef
    1998:	f647 6328 	movw	r3, #32296	; 0x7e28
    199c:	f6c4 2245 	movt	r2, #19013	; 0x4a45
    19a0:	f6c3 73ca 	movt	r3, #16330	; 0x3fca
    19a4:	0006      	movs	r6, r0
    19a6:	000f      	movs	r7, r1
    19a8:	f001 fe16 	bl	35d8 <__aeabi_dmul>
    19ac:	f64d 3265 	movw	r2, #56165	; 0xdb65
    19b0:	f248 634a 	movw	r3, #34378	; 0x864a
    19b4:	f2c9 32c9 	movt	r2, #37833	; 0x93c9
    19b8:	f6c3 73cd 	movt	r3, #16333	; 0x3fcd
    19bc:	f000 fe84 	bl	26c8 <__aeabi_dadd>
    19c0:	0032      	movs	r2, r6
    19c2:	003b      	movs	r3, r7
    19c4:	f001 fe08 	bl	35d8 <__aeabi_dmul>
    19c8:	f244 1201 	movw	r2, #16641	; 0x4101
    19cc:	f247 4360 	movw	r3, #29792	; 0x7460
    19d0:	f6ca 121d 	movt	r2, #43293	; 0xa91d
    19d4:	f6c3 73d1 	movt	r3, #16337	; 0x3fd1
    19d8:	f000 fe76 	bl	26c8 <__aeabi_dadd>
    19dc:	0032      	movs	r2, r6
    19de:	003b      	movs	r3, r7
    19e0:	f001 fdfa 	bl	35d8 <__aeabi_dmul>
    19e4:	f242 624d 	movw	r2, #9805	; 0x264d
    19e8:	f245 5355 	movw	r3, #21845	; 0x5555
    19ec:	f2c5 128f 	movt	r2, #20879	; 0x518f
    19f0:	f6c3 73d5 	movt	r3, #16341	; 0x3fd5
    19f4:	f000 fe68 	bl	26c8 <__aeabi_dadd>
    19f8:	0032      	movs	r2, r6
    19fa:	003b      	movs	r3, r7
    19fc:	f001 fdec 	bl	35d8 <__aeabi_dmul>
    1a00:	f64a 32ff 	movw	r2, #44031	; 0xabff
    1a04:	f646 53b6 	movw	r3, #28086	; 0x6db6
    1a08:	f6cd 326f 	movt	r2, #56175	; 0xdb6f
    1a0c:	f6c3 73db 	movt	r3, #16347	; 0x3fdb
    1a10:	f000 fe5a 	bl	26c8 <__aeabi_dadd>
    1a14:	0032      	movs	r2, r6
    1a16:	003b      	movs	r3, r7
    1a18:	f001 fdde 	bl	35d8 <__aeabi_dmul>
    1a1c:	f243 3203 	movw	r2, #13059	; 0x3303
    1a20:	f243 3333 	movw	r3, #13107	; 0x3333
    1a24:	f2c3 3233 	movt	r2, #13107	; 0x3333
    1a28:	f6c3 73e3 	movt	r3, #16355	; 0x3fe3
    1a2c:	f000 fe4c 	bl	26c8 <__aeabi_dadd>
    1a30:	0032      	movs	r2, r6
    1a32:	0004      	movs	r4, r0
    1a34:	000d      	movs	r5, r1
    1a36:	003b      	movs	r3, r7
    1a38:	0030      	movs	r0, r6
    1a3a:	0039      	movs	r1, r7
    1a3c:	f001 fdcc 	bl	35d8 <__aeabi_dmul>
    1a40:	0002      	movs	r2, r0
    1a42:	000b      	movs	r3, r1
    1a44:	0020      	movs	r0, r4
    1a46:	0029      	movs	r1, r5
    1a48:	f001 fdc6 	bl	35d8 <__aeabi_dmul>
    1a4c:	9e02      	ldr	r6, [sp, #8]
    1a4e:	9f03      	ldr	r7, [sp, #12]
    1a50:	0004      	movs	r4, r0
    1a52:	000d      	movs	r5, r1
    1a54:	9804      	ldr	r0, [sp, #16]
    1a56:	9905      	ldr	r1, [sp, #20]
    1a58:	0032      	movs	r2, r6
    1a5a:	003b      	movs	r3, r7
    1a5c:	f000 fe34 	bl	26c8 <__aeabi_dadd>
    1a60:	9a06      	ldr	r2, [sp, #24]
    1a62:	9b07      	ldr	r3, [sp, #28]
    1a64:	f001 fdb8 	bl	35d8 <__aeabi_dmul>
    1a68:	0022      	movs	r2, r4
    1a6a:	002b      	movs	r3, r5
    1a6c:	f000 fe2c 	bl	26c8 <__aeabi_dadd>
    1a70:	0032      	movs	r2, r6
    1a72:	900a      	str	r0, [sp, #40]	; 0x28
    1a74:	910b      	str	r1, [sp, #44]	; 0x2c
    1a76:	003b      	movs	r3, r7
    1a78:	0030      	movs	r0, r6
    1a7a:	0039      	movs	r1, r7
    1a7c:	9602      	str	r6, [sp, #8]
    1a7e:	9703      	str	r7, [sp, #12]
    1a80:	f001 fdaa 	bl	35d8 <__aeabi_dmul>
    1a84:	2300      	movs	r3, #0
    1a86:	2200      	movs	r2, #0
    1a88:	f2c4 0308 	movt	r3, #16392	; 0x4008
    1a8c:	0004      	movs	r4, r0
    1a8e:	000d      	movs	r5, r1
    1a90:	f000 fe1a 	bl	26c8 <__aeabi_dadd>
    1a94:	9a0a      	ldr	r2, [sp, #40]	; 0x28
    1a96:	9b0b      	ldr	r3, [sp, #44]	; 0x2c
    1a98:	f000 fe16 	bl	26c8 <__aeabi_dadd>
    1a9c:	2600      	movs	r6, #0
    1a9e:	000f      	movs	r7, r1
    1aa0:	0032      	movs	r2, r6
    1aa2:	000b      	movs	r3, r1
    1aa4:	9802      	ldr	r0, [sp, #8]
    1aa6:	9903      	ldr	r1, [sp, #12]
    1aa8:	f001 fd96 	bl	35d8 <__aeabi_dmul>
    1aac:	2300      	movs	r3, #0
    1aae:	9002      	str	r0, [sp, #8]
    1ab0:	9103      	str	r1, [sp, #12]
    1ab2:	2200      	movs	r2, #0
    1ab4:	f2c4 0308 	movt	r3, #16392	; 0x4008
    1ab8:	0030      	movs	r0, r6
    1aba:	0039      	movs	r1, r7
    1abc:	f002 f814 	bl	3ae8 <__aeabi_dsub>
    1ac0:	0022      	movs	r2, r4
    1ac2:	002b      	movs	r3, r5
    1ac4:	f002 f810 	bl	3ae8 <__aeabi_dsub>
    1ac8:	0002      	movs	r2, r0
    1aca:	000b      	movs	r3, r1
    1acc:	980a      	ldr	r0, [sp, #40]	; 0x28
    1ace:	990b      	ldr	r1, [sp, #44]	; 0x2c
    1ad0:	f002 f80a 	bl	3ae8 <__aeabi_dsub>
    1ad4:	9a04      	ldr	r2, [sp, #16]
    1ad6:	9b05      	ldr	r3, [sp, #20]
    1ad8:	f001 fd7e 	bl	35d8 <__aeabi_dmul>
    1adc:	0032      	movs	r2, r6
    1ade:	0004      	movs	r4, r0
    1ae0:	000d      	movs	r5, r1
    1ae2:	9806      	ldr	r0, [sp, #24]
    1ae4:	9907      	ldr	r1, [sp, #28]
    1ae6:	003b      	movs	r3, r7
    1ae8:	f001 fd76 	bl	35d8 <__aeabi_dmul>
    1aec:	0002      	movs	r2, r0
    1aee:	000b      	movs	r3, r1
    1af0:	0020      	movs	r0, r4
    1af2:	0029      	movs	r1, r5
    1af4:	f000 fde8 	bl	26c8 <__aeabi_dadd>
    1af8:	0004      	movs	r4, r0
    1afa:	000d      	movs	r5, r1
    1afc:	0002      	movs	r2, r0
    1afe:	000b      	movs	r3, r1
    1b00:	9802      	ldr	r0, [sp, #8]
    1b02:	9903      	ldr	r1, [sp, #12]
    1b04:	f000 fde0 	bl	26c8 <__aeabi_dadd>
    1b08:	2600      	movs	r6, #0
    1b0a:	22e0      	movs	r2, #224	; 0xe0
    1b0c:	f24c 7309 	movw	r3, #50953	; 0xc709
    1b10:	0612      	lsls	r2, r2, #24
    1b12:	f6c3 73ee 	movt	r3, #16366	; 0x3fee
    1b16:	0030      	movs	r0, r6
    1b18:	000f      	movs	r7, r1
    1b1a:	f001 fd5d 	bl	35d8 <__aeabi_dmul>
    1b1e:	9a02      	ldr	r2, [sp, #8]
    1b20:	9b03      	ldr	r3, [sp, #12]
    1b22:	9004      	str	r0, [sp, #16]
    1b24:	9105      	str	r1, [sp, #20]
    1b26:	0030      	movs	r0, r6
    1b28:	0039      	movs	r1, r7
    1b2a:	f001 ffdd 	bl	3ae8 <__aeabi_dsub>
    1b2e:	0002      	movs	r2, r0
    1b30:	000b      	movs	r3, r1
    1b32:	0020      	movs	r0, r4
    1b34:	0029      	movs	r1, r5
    1b36:	f001 ffd7 	bl	3ae8 <__aeabi_dsub>
    1b3a:	f240 32fd 	movw	r2, #1021	; 0x3fd
    1b3e:	f24c 7309 	movw	r3, #50953	; 0xc709
    1b42:	f6cd 423a 	movt	r2, #56378	; 0xdc3a
    1b46:	f6c3 73ee 	movt	r3, #16366	; 0x3fee
    1b4a:	f001 fd45 	bl	35d8 <__aeabi_dmul>
    1b4e:	f240 12f5 	movw	r2, #501	; 0x1f5
    1b52:	f642 73e0 	movw	r3, #12256	; 0x2fe0
    1b56:	0004      	movs	r4, r0
    1b58:	000d      	movs	r5, r1
    1b5a:	f2c1 425b 	movt	r2, #5211	; 0x145b
    1b5e:	f6cb 633e 	movt	r3, #48702	; 0xbe3e
    1b62:	0030      	movs	r0, r6
    1b64:	0039      	movs	r1, r7
    1b66:	f001 fd37 	bl	35d8 <__aeabi_dmul>
    1b6a:	0002      	movs	r2, r0
    1b6c:	000b      	movs	r3, r1
    1b6e:	0020      	movs	r0, r4
    1b70:	0029      	movs	r1, r5
    1b72:	f000 fda9 	bl	26c8 <__aeabi_dadd>
    1b76:	9a0c      	ldr	r2, [sp, #48]	; 0x30
    1b78:	9b0d      	ldr	r3, [sp, #52]	; 0x34
    1b7a:	f000 fda5 	bl	26c8 <__aeabi_dadd>
    1b7e:	0006      	movs	r6, r0
    1b80:	4648      	mov	r0, r9
    1b82:	000f      	movs	r7, r1
    1b84:	f002 fb1e 	bl	41c4 <__aeabi_i2d>
    1b88:	0004      	movs	r4, r0
    1b8a:	000d      	movs	r5, r1
    1b8c:	9804      	ldr	r0, [sp, #16]
    1b8e:	9905      	ldr	r1, [sp, #20]
    1b90:	0032      	movs	r2, r6
    1b92:	003b      	movs	r3, r7
    1b94:	f000 fd98 	bl	26c8 <__aeabi_dadd>
    1b98:	9a08      	ldr	r2, [sp, #32]
    1b9a:	9b09      	ldr	r3, [sp, #36]	; 0x24
    1b9c:	f000 fd94 	bl	26c8 <__aeabi_dadd>
    1ba0:	0022      	movs	r2, r4
    1ba2:	002b      	movs	r3, r5
    1ba4:	f000 fd90 	bl	26c8 <__aeabi_dadd>
    1ba8:	2000      	movs	r0, #0
    1baa:	0022      	movs	r2, r4
    1bac:	002b      	movs	r3, r5
    1bae:	9002      	str	r0, [sp, #8]
    1bb0:	9103      	str	r1, [sp, #12]
    1bb2:	f001 ff99 	bl	3ae8 <__aeabi_dsub>
    1bb6:	9a08      	ldr	r2, [sp, #32]
    1bb8:	9b09      	ldr	r3, [sp, #36]	; 0x24
    1bba:	f001 ff95 	bl	3ae8 <__aeabi_dsub>
    1bbe:	9a04      	ldr	r2, [sp, #16]
    1bc0:	9b05      	ldr	r3, [sp, #20]
    1bc2:	f001 ff91 	bl	3ae8 <__aeabi_dsub>
    1bc6:	0002      	movs	r2, r0
    1bc8:	000b      	movs	r3, r1
    1bca:	0030      	movs	r0, r6
    1bcc:	0039      	movs	r1, r7
    1bce:	f001 ff8b 	bl	3ae8 <__aeabi_dsub>
    1bd2:	9004      	str	r0, [sp, #16]
    1bd4:	9105      	str	r1, [sp, #20]
    1bd6:	465b      	mov	r3, fp
    1bd8:	4642      	mov	r2, r8
    1bda:	3b01      	subs	r3, #1
    1bdc:	4313      	orrs	r3, r2
    1bde:	2b00      	cmp	r3, #0
    1be0:	d100      	bne.n	1be4 <__ieee754_pow+0x5d0>
    1be2:	e1c9      	b.n	1f78 <__ieee754_pow+0x964>
    1be4:	2400      	movs	r4, #0
    1be6:	2300      	movs	r3, #0
    1be8:	f6c3 74f0 	movt	r4, #16368	; 0x3ff0
    1bec:	9306      	str	r3, [sp, #24]
    1bee:	9407      	str	r4, [sp, #28]
    1bf0:	e002      	b.n	1bf8 <__ieee754_pow+0x5e4>
    1bf2:	46c0      	nop			; (mov r8, r8)
    1bf4:	fffffc01 	.word	0xfffffc01
    1bf8:	9800      	ldr	r0, [sp, #0]
    1bfa:	9901      	ldr	r1, [sp, #4]
    1bfc:	2600      	movs	r6, #0
    1bfe:	000b      	movs	r3, r1
    1c00:	0032      	movs	r2, r6
    1c02:	000f      	movs	r7, r1
    1c04:	f001 ff70 	bl	3ae8 <__aeabi_dsub>
    1c08:	9a02      	ldr	r2, [sp, #8]
    1c0a:	9b03      	ldr	r3, [sp, #12]
    1c0c:	f001 fce4 	bl	35d8 <__aeabi_dmul>
    1c10:	9a00      	ldr	r2, [sp, #0]
    1c12:	9b01      	ldr	r3, [sp, #4]
    1c14:	0004      	movs	r4, r0
    1c16:	000d      	movs	r5, r1
    1c18:	9804      	ldr	r0, [sp, #16]
    1c1a:	9905      	ldr	r1, [sp, #20]
    1c1c:	f001 fcdc 	bl	35d8 <__aeabi_dmul>
    1c20:	0002      	movs	r2, r0
    1c22:	000b      	movs	r3, r1
    1c24:	0020      	movs	r0, r4
    1c26:	0029      	movs	r1, r5
    1c28:	f000 fd4e 	bl	26c8 <__aeabi_dadd>
    1c2c:	0004      	movs	r4, r0
    1c2e:	000d      	movs	r5, r1
    1c30:	9802      	ldr	r0, [sp, #8]
    1c32:	9903      	ldr	r1, [sp, #12]
    1c34:	0032      	movs	r2, r6
    1c36:	003b      	movs	r3, r7
    1c38:	9400      	str	r4, [sp, #0]
    1c3a:	9501      	str	r5, [sp, #4]
    1c3c:	f001 fccc 	bl	35d8 <__aeabi_dmul>
    1c40:	0002      	movs	r2, r0
    1c42:	000b      	movs	r3, r1
    1c44:	0006      	movs	r6, r0
    1c46:	000f      	movs	r7, r1
    1c48:	0020      	movs	r0, r4
    1c4a:	0029      	movs	r1, r5
    1c4c:	f000 fd3c 	bl	26c8 <__aeabi_dadd>
    1c50:	f64f 73ff 	movw	r3, #65535	; 0xffff
    1c54:	f2c4 038f 	movt	r3, #16527	; 0x408f
    1c58:	0004      	movs	r4, r0
    1c5a:	000d      	movs	r5, r1
    1c5c:	0002      	movs	r2, r0
    1c5e:	468b      	mov	fp, r1
    1c60:	4299      	cmp	r1, r3
    1c62:	dc00      	bgt.n	1c66 <__ieee754_pow+0x652>
    1c64:	e152      	b.n	1f0c <__ieee754_pow+0x8f8>
    1c66:	2300      	movs	r3, #0
    1c68:	f6cb 7370 	movt	r3, #49008	; 0xbf70
    1c6c:	18cb      	adds	r3, r1, r3
    1c6e:	4303      	orrs	r3, r0
    1c70:	2b00      	cmp	r3, #0
    1c72:	d000      	beq.n	1c76 <__ieee754_pow+0x662>
    1c74:	e21f      	b.n	20b6 <__ieee754_pow+0xaa2>
    1c76:	9800      	ldr	r0, [sp, #0]
    1c78:	9901      	ldr	r1, [sp, #4]
    1c7a:	f248 22fe 	movw	r2, #33534	; 0x82fe
    1c7e:	f241 5347 	movw	r3, #5447	; 0x1547
    1c82:	f2c6 522b 	movt	r2, #25899	; 0x652b
    1c86:	f6c3 4397 	movt	r3, #15511	; 0x3c97
    1c8a:	f000 fd1d 	bl	26c8 <__aeabi_dadd>
    1c8e:	0032      	movs	r2, r6
    1c90:	9002      	str	r0, [sp, #8]
    1c92:	9103      	str	r1, [sp, #12]
    1c94:	003b      	movs	r3, r7
    1c96:	0020      	movs	r0, r4
    1c98:	0029      	movs	r1, r5
    1c9a:	f001 ff25 	bl	3ae8 <__aeabi_dsub>
    1c9e:	0002      	movs	r2, r0
    1ca0:	000b      	movs	r3, r1
    1ca2:	9802      	ldr	r0, [sp, #8]
    1ca4:	9903      	ldr	r1, [sp, #12]
    1ca6:	f000 fcb7 	bl	2618 <__aeabi_dcmpgt>
    1caa:	46aa      	mov	sl, r5
    1cac:	2800      	cmp	r0, #0
    1cae:	d000      	beq.n	1cb2 <__ieee754_pow+0x69e>
    1cb0:	e201      	b.n	20b6 <__ieee754_pow+0xaa2>
    1cb2:	4abd      	ldr	r2, [pc, #756]	; (1fa8 <__ieee754_pow+0x994>)
    1cb4:	4653      	mov	r3, sl
    1cb6:	4694      	mov	ip, r2
    1cb8:	2280      	movs	r2, #128	; 0x80
    1cba:	0352      	lsls	r2, r2, #13
    1cbc:	0011      	movs	r1, r2
    1cbe:	151b      	asrs	r3, r3, #20
    1cc0:	4463      	add	r3, ip
    1cc2:	4119      	asrs	r1, r3
    1cc4:	000b      	movs	r3, r1
    1cc6:	4690      	mov	r8, r2
    1cc8:	4ab8      	ldr	r2, [pc, #736]	; (1fac <__ieee754_pow+0x998>)
    1cca:	f64f 75ff 	movw	r5, #65535	; 0xffff
    1cce:	4694      	mov	ip, r2
    1cd0:	445b      	add	r3, fp
    1cd2:	005c      	lsls	r4, r3, #1
    1cd4:	0d64      	lsrs	r4, r4, #21
    1cd6:	4464      	add	r4, ip
    1cd8:	f2c0 050f 	movt	r5, #15
    1cdc:	4125      	asrs	r5, r4
    1cde:	001a      	movs	r2, r3
    1ce0:	43aa      	bics	r2, r5
    1ce2:	0011      	movs	r1, r2
    1ce4:	4642      	mov	r2, r8
    1ce6:	031b      	lsls	r3, r3, #12
    1ce8:	0b1b      	lsrs	r3, r3, #12
    1cea:	4313      	orrs	r3, r2
    1cec:	2214      	movs	r2, #20
    1cee:	1b14      	subs	r4, r2, r4
    1cf0:	4123      	asrs	r3, r4
    1cf2:	4699      	mov	r9, r3
    1cf4:	465b      	mov	r3, fp
    1cf6:	2000      	movs	r0, #0
    1cf8:	2b00      	cmp	r3, #0
    1cfa:	da00      	bge.n	1cfe <__ieee754_pow+0x6ea>
    1cfc:	e239      	b.n	2172 <__ieee754_pow+0xb5e>
    1cfe:	0002      	movs	r2, r0
    1d00:	000b      	movs	r3, r1
    1d02:	0030      	movs	r0, r6
    1d04:	0039      	movs	r1, r7
    1d06:	f001 feef 	bl	3ae8 <__aeabi_dsub>
    1d0a:	000b      	movs	r3, r1
    1d0c:	0002      	movs	r2, r0
    1d0e:	0006      	movs	r6, r0
    1d10:	000f      	movs	r7, r1
    1d12:	9800      	ldr	r0, [sp, #0]
    1d14:	9901      	ldr	r1, [sp, #4]
    1d16:	f000 fcd7 	bl	26c8 <__aeabi_dadd>
    1d1a:	464b      	mov	r3, r9
    1d1c:	051b      	lsls	r3, r3, #20
    1d1e:	000d      	movs	r5, r1
    1d20:	4698      	mov	r8, r3
    1d22:	2400      	movs	r4, #0
    1d24:	f642 6343 	movw	r3, #11843	; 0x2e43
    1d28:	2200      	movs	r2, #0
    1d2a:	f6c3 73e6 	movt	r3, #16358	; 0x3fe6
    1d2e:	0020      	movs	r0, r4
    1d30:	0029      	movs	r1, r5
    1d32:	f001 fc51 	bl	35d8 <__aeabi_dmul>
    1d36:	0032      	movs	r2, r6
    1d38:	9002      	str	r0, [sp, #8]
    1d3a:	9103      	str	r1, [sp, #12]
    1d3c:	003b      	movs	r3, r7
    1d3e:	0020      	movs	r0, r4
    1d40:	0029      	movs	r1, r5
    1d42:	f001 fed1 	bl	3ae8 <__aeabi_dsub>
    1d46:	0002      	movs	r2, r0
    1d48:	000b      	movs	r3, r1
    1d4a:	9800      	ldr	r0, [sp, #0]
    1d4c:	9901      	ldr	r1, [sp, #4]
    1d4e:	f001 fecb 	bl	3ae8 <__aeabi_dsub>
    1d52:	f643 12ef 	movw	r2, #14831	; 0x39ef
    1d56:	f642 6342 	movw	r3, #11842	; 0x2e42
    1d5a:	f6cf 62fa 	movt	r2, #65274	; 0xfefa
    1d5e:	f6c3 73e6 	movt	r3, #16358	; 0x3fe6
    1d62:	f001 fc39 	bl	35d8 <__aeabi_dmul>
    1d66:	f646 4239 	movw	r2, #27705	; 0x6c39
    1d6a:	f645 4361 	movw	r3, #23649	; 0x5c61
    1d6e:	0006      	movs	r6, r0
    1d70:	000f      	movs	r7, r1
    1d72:	f6c0 42a8 	movt	r2, #3240	; 0xca8
    1d76:	f6cb 6320 	movt	r3, #48672	; 0xbe20
    1d7a:	0020      	movs	r0, r4
    1d7c:	0029      	movs	r1, r5
    1d7e:	f001 fc2b 	bl	35d8 <__aeabi_dmul>
    1d82:	0002      	movs	r2, r0
    1d84:	000b      	movs	r3, r1
    1d86:	0030      	movs	r0, r6
    1d88:	0039      	movs	r1, r7
    1d8a:	f000 fc9d 	bl	26c8 <__aeabi_dadd>
    1d8e:	0004      	movs	r4, r0
    1d90:	000d      	movs	r5, r1
    1d92:	0002      	movs	r2, r0
    1d94:	000b      	movs	r3, r1
    1d96:	9802      	ldr	r0, [sp, #8]
    1d98:	9903      	ldr	r1, [sp, #12]
    1d9a:	f000 fc95 	bl	26c8 <__aeabi_dadd>
    1d9e:	9a02      	ldr	r2, [sp, #8]
    1da0:	9b03      	ldr	r3, [sp, #12]
    1da2:	0006      	movs	r6, r0
    1da4:	000f      	movs	r7, r1
    1da6:	f001 fe9f 	bl	3ae8 <__aeabi_dsub>
    1daa:	0002      	movs	r2, r0
    1dac:	000b      	movs	r3, r1
    1dae:	0020      	movs	r0, r4
    1db0:	0029      	movs	r1, r5
    1db2:	f001 fe99 	bl	3ae8 <__aeabi_dsub>
    1db6:	0032      	movs	r2, r6
    1db8:	9000      	str	r0, [sp, #0]
    1dba:	9101      	str	r1, [sp, #4]
    1dbc:	003b      	movs	r3, r7
    1dbe:	0030      	movs	r0, r6
    1dc0:	0039      	movs	r1, r7
    1dc2:	f001 fc09 	bl	35d8 <__aeabi_dmul>
    1dc6:	f24a 42d0 	movw	r2, #42192	; 0xa4d0
    1dca:	f243 7369 	movw	r3, #14185	; 0x3769
    1dce:	f2c7 22be 	movt	r2, #29374	; 0x72be
    1dd2:	f6c3 6366 	movt	r3, #15974	; 0x3e66
    1dd6:	0004      	movs	r4, r0
    1dd8:	000d      	movs	r5, r1
    1dda:	f001 fbfd 	bl	35d8 <__aeabi_dmul>
    1dde:	f646 32f1 	movw	r2, #27633	; 0x6bf1
    1de2:	f64b 5341 	movw	r3, #48449	; 0xbd41
    1de6:	f2cc 52d2 	movt	r2, #50642	; 0xc5d2
    1dea:	f6c3 63bb 	movt	r3, #16059	; 0x3ebb
    1dee:	f001 fe7b 	bl	3ae8 <__aeabi_dsub>
    1df2:	0022      	movs	r2, r4
    1df4:	002b      	movs	r3, r5
    1df6:	f001 fbef 	bl	35d8 <__aeabi_dmul>
    1dfa:	f64d 622c 	movw	r2, #56876	; 0xde2c
    1dfe:	f245 636a 	movw	r3, #22122	; 0x566a
    1e02:	f6ca 7225 	movt	r2, #44837	; 0xaf25
    1e06:	f6c3 7311 	movt	r3, #16145	; 0x3f11
    1e0a:	f000 fc5d 	bl	26c8 <__aeabi_dadd>
    1e0e:	0022      	movs	r2, r4
    1e10:	002b      	movs	r3, r5
    1e12:	f001 fbe1 	bl	35d8 <__aeabi_dmul>
    1e16:	f64b 5293 	movw	r2, #48531	; 0xbd93
    1e1a:	f24c 136c 	movw	r3, #49516	; 0xc16c
    1e1e:	f2c1 62be 	movt	r2, #5822	; 0x16be
    1e22:	f6c3 7366 	movt	r3, #16230	; 0x3f66
    1e26:	f001 fe5f 	bl	3ae8 <__aeabi_dsub>
    1e2a:	0022      	movs	r2, r4
    1e2c:	002b      	movs	r3, r5
    1e2e:	f001 fbd3 	bl	35d8 <__aeabi_dmul>
    1e32:	f245 523e 	movw	r2, #21822	; 0x553e
    1e36:	f245 5355 	movw	r3, #21845	; 0x5555
    1e3a:	f2c5 5255 	movt	r2, #21845	; 0x5555
    1e3e:	f6c3 73c5 	movt	r3, #16325	; 0x3fc5
    1e42:	f000 fc41 	bl	26c8 <__aeabi_dadd>
    1e46:	0022      	movs	r2, r4
    1e48:	002b      	movs	r3, r5
    1e4a:	f001 fbc5 	bl	35d8 <__aeabi_dmul>
    1e4e:	0002      	movs	r2, r0
    1e50:	000b      	movs	r3, r1
    1e52:	0030      	movs	r0, r6
    1e54:	0039      	movs	r1, r7
    1e56:	f001 fe47 	bl	3ae8 <__aeabi_dsub>
    1e5a:	0004      	movs	r4, r0
    1e5c:	000d      	movs	r5, r1
    1e5e:	0002      	movs	r2, r0
    1e60:	000b      	movs	r3, r1
    1e62:	0030      	movs	r0, r6
    1e64:	0039      	movs	r1, r7
    1e66:	f001 fbb7 	bl	35d8 <__aeabi_dmul>
    1e6a:	2380      	movs	r3, #128	; 0x80
    1e6c:	9002      	str	r0, [sp, #8]
    1e6e:	9103      	str	r1, [sp, #12]
    1e70:	2200      	movs	r2, #0
    1e72:	05db      	lsls	r3, r3, #23
    1e74:	0020      	movs	r0, r4
    1e76:	0029      	movs	r1, r5
    1e78:	f001 fe36 	bl	3ae8 <__aeabi_dsub>
    1e7c:	0002      	movs	r2, r0
    1e7e:	000b      	movs	r3, r1
    1e80:	9802      	ldr	r0, [sp, #8]
    1e82:	9903      	ldr	r1, [sp, #12]
    1e84:	f000 ff80 	bl	2d88 <__aeabi_ddiv>
    1e88:	9a00      	ldr	r2, [sp, #0]
    1e8a:	9b01      	ldr	r3, [sp, #4]
    1e8c:	0004      	movs	r4, r0
    1e8e:	000d      	movs	r5, r1
    1e90:	0030      	movs	r0, r6
    1e92:	0039      	movs	r1, r7
    1e94:	f001 fba0 	bl	35d8 <__aeabi_dmul>
    1e98:	9a00      	ldr	r2, [sp, #0]
    1e9a:	9b01      	ldr	r3, [sp, #4]
    1e9c:	f000 fc14 	bl	26c8 <__aeabi_dadd>
    1ea0:	0002      	movs	r2, r0
    1ea2:	000b      	movs	r3, r1
    1ea4:	0020      	movs	r0, r4
    1ea6:	0029      	movs	r1, r5
    1ea8:	f001 fe1e 	bl	3ae8 <__aeabi_dsub>
    1eac:	0032      	movs	r2, r6
    1eae:	003b      	movs	r3, r7
    1eb0:	f001 fe1a 	bl	3ae8 <__aeabi_dsub>
    1eb4:	000b      	movs	r3, r1
    1eb6:	2100      	movs	r1, #0
    1eb8:	0002      	movs	r2, r0
    1eba:	f6c3 71f0 	movt	r1, #16368	; 0x3ff0
    1ebe:	2000      	movs	r0, #0
    1ec0:	f001 fe12 	bl	3ae8 <__aeabi_dsub>
    1ec4:	4643      	mov	r3, r8
    1ec6:	185b      	adds	r3, r3, r1
    1ec8:	151a      	asrs	r2, r3, #20
    1eca:	2a00      	cmp	r2, #0
    1ecc:	dc00      	bgt.n	1ed0 <__ieee754_pow+0x8bc>
    1ece:	e154      	b.n	217a <__ieee754_pow+0xb66>
    1ed0:	0019      	movs	r1, r3
    1ed2:	9a06      	ldr	r2, [sp, #24]
    1ed4:	9b07      	ldr	r3, [sp, #28]
    1ed6:	f001 fb7f 	bl	35d8 <__aeabi_dmul>
    1eda:	f7ff fbf2 	bl	16c2 <__ieee754_pow+0xae>
    1ede:	003a      	movs	r2, r7
    1ee0:	0033      	movs	r3, r6
    1ee2:	0038      	movs	r0, r7
    1ee4:	0031      	movs	r1, r6
    1ee6:	f001 fb77 	bl	35d8 <__aeabi_dmul>
    1eea:	f7ff fbea 	bl	16c2 <__ieee754_pow+0xae>
    1eee:	4653      	mov	r3, sl
    1ef0:	2b00      	cmp	r3, #0
    1ef2:	db00      	blt.n	1ef6 <__ieee754_pow+0x8e2>
    1ef4:	e497      	b.n	1826 <__ieee754_pow+0x212>
    1ef6:	9b00      	ldr	r3, [sp, #0]
    1ef8:	9c01      	ldr	r4, [sp, #4]
    1efa:	2280      	movs	r2, #128	; 0x80
    1efc:	0612      	lsls	r2, r2, #24
    1efe:	0018      	movs	r0, r3
    1f00:	4694      	mov	ip, r2
    1f02:	0023      	movs	r3, r4
    1f04:	4463      	add	r3, ip
    1f06:	0019      	movs	r1, r3
    1f08:	f7ff fbdb 	bl	16c2 <__ieee754_pow+0xae>
    1f0c:	004b      	lsls	r3, r1, #1
    1f0e:	085b      	lsrs	r3, r3, #1
    1f10:	469a      	mov	sl, r3
    1f12:	f64c 33ff 	movw	r3, #52223	; 0xcbff
    1f16:	f2c4 0390 	movt	r3, #16528	; 0x4090
    1f1a:	459a      	cmp	sl, r3
    1f1c:	dc00      	bgt.n	1f20 <__ieee754_pow+0x90c>
    1f1e:	e0f7      	b.n	2110 <__ieee754_pow+0xafc>
    1f20:	f243 4300 	movw	r3, #13312	; 0x3400
    1f24:	f6c3 736f 	movt	r3, #16239	; 0x3f6f
    1f28:	445b      	add	r3, fp
    1f2a:	431a      	orrs	r2, r3
    1f2c:	b962      	cbnz	r2, 1f48 <__ieee754_pow+0x934>
    1f2e:	0032      	movs	r2, r6
    1f30:	003b      	movs	r3, r7
    1f32:	f001 fdd9 	bl	3ae8 <__aeabi_dsub>
    1f36:	0002      	movs	r2, r0
    1f38:	000b      	movs	r3, r1
    1f3a:	9800      	ldr	r0, [sp, #0]
    1f3c:	9901      	ldr	r1, [sp, #4]
    1f3e:	f000 fb61 	bl	2604 <__aeabi_dcmple>
    1f42:	2800      	cmp	r0, #0
    1f44:	d100      	bne.n	1f48 <__ieee754_pow+0x934>
    1f46:	e6b4      	b.n	1cb2 <__ieee754_pow+0x69e>
    1f48:	9806      	ldr	r0, [sp, #24]
    1f4a:	9907      	ldr	r1, [sp, #28]
    1f4c:	f24f 3259 	movw	r2, #62297	; 0xf359
    1f50:	f646 631f 	movw	r3, #28191	; 0x6e1f
    1f54:	f2cc 22f8 	movt	r2, #49912	; 0xc2f8
    1f58:	f2c0 13a5 	movt	r3, #421	; 0x1a5
    1f5c:	f001 fb3c 	bl	35d8 <__aeabi_dmul>
    1f60:	f24f 3259 	movw	r2, #62297	; 0xf359
    1f64:	f646 631f 	movw	r3, #28191	; 0x6e1f
    1f68:	f2cc 22f8 	movt	r2, #49912	; 0xc2f8
    1f6c:	f2c0 13a5 	movt	r3, #421	; 0x1a5
    1f70:	f001 fb32 	bl	35d8 <__aeabi_dmul>
    1f74:	f7ff fba5 	bl	16c2 <__ieee754_pow+0xae>
    1f78:	2400      	movs	r4, #0
    1f7a:	2300      	movs	r3, #0
    1f7c:	f6cb 74f0 	movt	r4, #49136	; 0xbff0
    1f80:	9306      	str	r3, [sp, #24]
    1f82:	9407      	str	r4, [sp, #28]
    1f84:	e638      	b.n	1bf8 <__ieee754_pow+0x5e4>
    1f86:	000b      	movs	r3, r1
    1f88:	2100      	movs	r1, #0
    1f8a:	0002      	movs	r2, r0
    1f8c:	f6c3 71f0 	movt	r1, #16368	; 0x3ff0
    1f90:	2000      	movs	r0, #0
    1f92:	f000 fef9 	bl	2d88 <__aeabi_ddiv>
    1f96:	f7ff fbb7 	bl	1708 <__ieee754_pow+0xf4>
    1f9a:	4653      	mov	r3, sl
    1f9c:	2b00      	cmp	r3, #0
    1f9e:	db00      	blt.n	1fa2 <__ieee754_pow+0x98e>
    1fa0:	e441      	b.n	1826 <__ieee754_pow+0x212>
    1fa2:	f7ff fbe7 	bl	1774 <__ieee754_pow+0x160>
    1fa6:	46c0      	nop			; (mov r8, r8)
    1fa8:	fffffc02 	.word	0xfffffc02
    1fac:	fffffc01 	.word	0xfffffc01
    1fb0:	f64f 73fe 	movw	r3, #65534	; 0xfffe
    1fb4:	f6c3 73ef 	movt	r3, #16367	; 0x3fef
    1fb8:	429c      	cmp	r4, r3
    1fba:	ddee      	ble.n	1f9a <__ieee754_pow+0x986>
    1fbc:	2300      	movs	r3, #0
    1fbe:	f6c3 73f0 	movt	r3, #16368	; 0x3ff0
    1fc2:	429c      	cmp	r4, r3
    1fc4:	dd01      	ble.n	1fca <__ieee754_pow+0x9b6>
    1fc6:	f7ff fbd2 	bl	176e <__ieee754_pow+0x15a>
    1fca:	2300      	movs	r3, #0
    1fcc:	2200      	movs	r2, #0
    1fce:	f6c3 73f0 	movt	r3, #16368	; 0x3ff0
    1fd2:	f001 fd89 	bl	3ae8 <__aeabi_dsub>
    1fd6:	22c0      	movs	r2, #192	; 0xc0
    1fd8:	f241 5347 	movw	r3, #5447	; 0x1547
    1fdc:	05d2      	lsls	r2, r2, #23
    1fde:	f6c3 73f7 	movt	r3, #16375	; 0x3ff7
    1fe2:	0004      	movs	r4, r0
    1fe4:	000d      	movs	r5, r1
    1fe6:	f001 faf7 	bl	35d8 <__aeabi_dmul>
    1fea:	f64d 7244 	movw	r2, #57156	; 0xdf44
    1fee:	f64a 630b 	movw	r3, #44555	; 0xae0b
    1ff2:	0006      	movs	r6, r0
    1ff4:	000f      	movs	r7, r1
    1ff6:	f6cf 025d 	movt	r2, #63581	; 0xf85d
    1ffa:	f6c3 6354 	movt	r3, #15956	; 0x3e54
    1ffe:	0020      	movs	r0, r4
    2000:	0029      	movs	r1, r5
    2002:	f001 fae9 	bl	35d8 <__aeabi_dmul>
    2006:	2300      	movs	r3, #0
    2008:	9002      	str	r0, [sp, #8]
    200a:	9103      	str	r1, [sp, #12]
    200c:	2200      	movs	r2, #0
    200e:	f6c3 73d0 	movt	r3, #16336	; 0x3fd0
    2012:	0020      	movs	r0, r4
    2014:	0029      	movs	r1, r5
    2016:	f001 fadf 	bl	35d8 <__aeabi_dmul>
    201a:	0002      	movs	r2, r0
    201c:	000b      	movs	r3, r1
    201e:	f245 5055 	movw	r0, #21845	; 0x5555
    2022:	f245 5155 	movw	r1, #21845	; 0x5555
    2026:	f2c5 5055 	movt	r0, #21845	; 0x5555
    202a:	f6c3 71d5 	movt	r1, #16341	; 0x3fd5
    202e:	f001 fd5b 	bl	3ae8 <__aeabi_dsub>
    2032:	0022      	movs	r2, r4
    2034:	002b      	movs	r3, r5
    2036:	f001 facf 	bl	35d8 <__aeabi_dmul>
    203a:	000b      	movs	r3, r1
    203c:	2100      	movs	r1, #0
    203e:	0002      	movs	r2, r0
    2040:	f6c3 71e0 	movt	r1, #16352	; 0x3fe0
    2044:	2000      	movs	r0, #0
    2046:	f001 fd4f 	bl	3ae8 <__aeabi_dsub>
    204a:	0022      	movs	r2, r4
    204c:	9004      	str	r0, [sp, #16]
    204e:	9105      	str	r1, [sp, #20]
    2050:	002b      	movs	r3, r5
    2052:	0020      	movs	r0, r4
    2054:	0029      	movs	r1, r5
    2056:	f001 fabf 	bl	35d8 <__aeabi_dmul>
    205a:	0002      	movs	r2, r0
    205c:	000b      	movs	r3, r1
    205e:	9804      	ldr	r0, [sp, #16]
    2060:	9905      	ldr	r1, [sp, #20]
    2062:	f001 fab9 	bl	35d8 <__aeabi_dmul>
    2066:	f248 22fe 	movw	r2, #33534	; 0x82fe
    206a:	f241 5347 	movw	r3, #5447	; 0x1547
    206e:	f2c6 522b 	movt	r2, #25899	; 0x652b
    2072:	f6c3 73f7 	movt	r3, #16375	; 0x3ff7
    2076:	f001 faaf 	bl	35d8 <__aeabi_dmul>
    207a:	0002      	movs	r2, r0
    207c:	000b      	movs	r3, r1
    207e:	9802      	ldr	r0, [sp, #8]
    2080:	9903      	ldr	r1, [sp, #12]
    2082:	f001 fd31 	bl	3ae8 <__aeabi_dsub>
    2086:	0002      	movs	r2, r0
    2088:	000b      	movs	r3, r1
    208a:	0004      	movs	r4, r0
    208c:	000d      	movs	r5, r1
    208e:	0030      	movs	r0, r6
    2090:	0039      	movs	r1, r7
    2092:	f000 fb19 	bl	26c8 <__aeabi_dadd>
    2096:	2000      	movs	r0, #0
    2098:	0032      	movs	r2, r6
    209a:	003b      	movs	r3, r7
    209c:	9002      	str	r0, [sp, #8]
    209e:	9103      	str	r1, [sp, #12]
    20a0:	f001 fd22 	bl	3ae8 <__aeabi_dsub>
    20a4:	0002      	movs	r2, r0
    20a6:	000b      	movs	r3, r1
    20a8:	0020      	movs	r0, r4
    20aa:	0029      	movs	r1, r5
    20ac:	f001 fd1c 	bl	3ae8 <__aeabi_dsub>
    20b0:	9004      	str	r0, [sp, #16]
    20b2:	9105      	str	r1, [sp, #20]
    20b4:	e58f      	b.n	1bd6 <__ieee754_pow+0x5c2>
    20b6:	f247 529c 	movw	r2, #30108	; 0x759c
    20ba:	9806      	ldr	r0, [sp, #24]
    20bc:	9907      	ldr	r1, [sp, #28]
    20be:	f24e 433c 	movw	r3, #58428	; 0xe43c
    20c2:	f6c8 0200 	movt	r2, #34816	; 0x8800
    20c6:	f6c7 6337 	movt	r3, #32311	; 0x7e37
    20ca:	f001 fa85 	bl	35d8 <__aeabi_dmul>
    20ce:	f247 529c 	movw	r2, #30108	; 0x759c
    20d2:	f24e 433c 	movw	r3, #58428	; 0xe43c
    20d6:	f6c8 0200 	movt	r2, #34816	; 0x8800
    20da:	f6c7 6337 	movt	r3, #32311	; 0x7e37
    20de:	f001 fa7b 	bl	35d8 <__aeabi_dmul>
    20e2:	f7ff faee 	bl	16c2 <__ieee754_pow+0xae>
    20e6:	2a00      	cmp	r2, #0
    20e8:	d001      	beq.n	20ee <__ieee754_pow+0xada>
    20ea:	f7ff fafa 	bl	16e2 <__ieee754_pow+0xce>
    20ee:	3214      	adds	r2, #20
    20f0:	1ad3      	subs	r3, r2, r3
    20f2:	002a      	movs	r2, r5
    20f4:	411a      	asrs	r2, r3
    20f6:	0011      	movs	r1, r2
    20f8:	4099      	lsls	r1, r3
    20fa:	428d      	cmp	r5, r1
    20fc:	d001      	beq.n	2102 <__ieee754_pow+0xaee>
    20fe:	f7ff fabb 	bl	1678 <__ieee754_pow+0x64>
    2102:	2301      	movs	r3, #1
    2104:	401a      	ands	r2, r3
    2106:	18db      	adds	r3, r3, r3
    2108:	1a9b      	subs	r3, r3, r2
    210a:	469b      	mov	fp, r3
    210c:	f7ff fab4 	bl	1678 <__ieee754_pow+0x64>
    2110:	2300      	movs	r3, #0
    2112:	f6c3 73e0 	movt	r3, #16352	; 0x3fe0
    2116:	f240 0800 	movw	r8, #0
    211a:	f240 0900 	movw	r9, #0
    211e:	459a      	cmp	sl, r3
    2120:	dc00      	bgt.n	2124 <__ieee754_pow+0xb10>
    2122:	e5fe      	b.n	1d22 <__ieee754_pow+0x70e>
    2124:	e5c5      	b.n	1cb2 <__ieee754_pow+0x69e>
    2126:	0002      	movs	r2, r0
    2128:	000b      	movs	r3, r1
    212a:	f001 fcdd 	bl	3ae8 <__aeabi_dsub>
    212e:	0002      	movs	r2, r0
    2130:	000b      	movs	r3, r1
    2132:	f000 fe29 	bl	2d88 <__aeabi_ddiv>
    2136:	f7ff fac4 	bl	16c2 <__ieee754_pow+0xae>
    213a:	2380      	movs	r3, #128	; 0x80
    213c:	f64b 0403 	movw	r4, #47107	; 0xb803
    2140:	05db      	lsls	r3, r3, #23
    2142:	f6c3 74e2 	movt	r4, #16354	; 0x3fe2
    2146:	9308      	str	r3, [sp, #32]
    2148:	9409      	str	r4, [sp, #36]	; 0x24
    214a:	f24d 0306 	movw	r3, #53254	; 0xd006
    214e:	f64f 54eb 	movw	r4, #65003	; 0xfdeb
    2152:	f2c4 33cf 	movt	r3, #17359	; 0x43cf
    2156:	f6c3 644c 	movt	r4, #15948	; 0x3e4c
    215a:	930c      	str	r3, [sp, #48]	; 0x30
    215c:	940d      	str	r4, [sp, #52]	; 0x34
    215e:	2300      	movs	r3, #0
    2160:	2480      	movs	r4, #128	; 0x80
    2162:	2200      	movs	r2, #0
    2164:	f6c3 73f8 	movt	r3, #16376	; 0x3ff8
    2168:	02e4      	lsls	r4, r4, #11
    216a:	9206      	str	r2, [sp, #24]
    216c:	9307      	str	r3, [sp, #28]
    216e:	f7ff fbac 	bl	18ca <__ieee754_pow+0x2b6>
    2172:	464b      	mov	r3, r9
    2174:	425b      	negs	r3, r3
    2176:	4699      	mov	r9, r3
    2178:	e5c1      	b.n	1cfe <__ieee754_pow+0x6ea>
    217a:	464a      	mov	r2, r9
    217c:	f000 f9a2 	bl	24c4 <scalbn>
    2180:	e6a7      	b.n	1ed2 <__ieee754_pow+0x8be>
    2182:	46c0      	nop			; (mov r8, r8)

00002184 <__ieee754_sqrt>:
    2184:	2300      	movs	r3, #0
    2186:	f6c7 73f0 	movt	r3, #32752	; 0x7ff0
    218a:	b5f0      	push	{r4, r5, r6, r7, lr}
    218c:	000a      	movs	r2, r1
    218e:	4646      	mov	r6, r8
    2190:	000d      	movs	r5, r1
    2192:	46d6      	mov	lr, sl
    2194:	464f      	mov	r7, r9
    2196:	0019      	movs	r1, r3
    2198:	b5c0      	push	{r6, r7, lr}
    219a:	0004      	movs	r4, r0
    219c:	0006      	movs	r6, r0
    219e:	4029      	ands	r1, r5
    21a0:	4299      	cmp	r1, r3
    21a2:	d100      	bne.n	21a6 <__ieee754_sqrt+0x22>
    21a4:	e0aa      	b.n	22fc <__ieee754_sqrt+0x178>
    21a6:	2d00      	cmp	r5, #0
    21a8:	dc00      	bgt.n	21ac <__ieee754_sqrt+0x28>
    21aa:	e084      	b.n	22b6 <__ieee754_sqrt+0x132>
    21ac:	152f      	asrs	r7, r5, #20
    21ae:	2f00      	cmp	r7, #0
    21b0:	d100      	bne.n	21b4 <__ieee754_sqrt+0x30>
    21b2:	e090      	b.n	22d6 <__ieee754_sqrt+0x152>
    21b4:	4b63      	ldr	r3, [pc, #396]	; (2344 <__ieee754_sqrt+0x1c0>)
    21b6:	0312      	lsls	r2, r2, #12
    21b8:	469c      	mov	ip, r3
    21ba:	2380      	movs	r3, #128	; 0x80
    21bc:	0b12      	lsrs	r2, r2, #12
    21be:	035b      	lsls	r3, r3, #13
    21c0:	4467      	add	r7, ip
    21c2:	431a      	orrs	r2, r3
    21c4:	07fb      	lsls	r3, r7, #31
    21c6:	d46a      	bmi.n	229e <__ieee754_sqrt+0x11a>
    21c8:	107b      	asrs	r3, r7, #1
    21ca:	469c      	mov	ip, r3
    21cc:	0fe3      	lsrs	r3, r4, #31
    21ce:	189b      	adds	r3, r3, r2
    21d0:	189b      	adds	r3, r3, r2
    21d2:	2280      	movs	r2, #128	; 0x80
    21d4:	2116      	movs	r1, #22
    21d6:	2600      	movs	r6, #0
    21d8:	2500      	movs	r5, #0
    21da:	0064      	lsls	r4, r4, #1
    21dc:	0392      	lsls	r2, r2, #14
    21de:	18a8      	adds	r0, r5, r2
    21e0:	4298      	cmp	r0, r3
    21e2:	dc02      	bgt.n	21ea <__ieee754_sqrt+0x66>
    21e4:	1885      	adds	r5, r0, r2
    21e6:	1a1b      	subs	r3, r3, r0
    21e8:	18b6      	adds	r6, r6, r2
    21ea:	0fe0      	lsrs	r0, r4, #31
    21ec:	005b      	lsls	r3, r3, #1
    21ee:	3901      	subs	r1, #1
    21f0:	181b      	adds	r3, r3, r0
    21f2:	0064      	lsls	r4, r4, #1
    21f4:	0852      	lsrs	r2, r2, #1
    21f6:	2900      	cmp	r1, #0
    21f8:	d1f1      	bne.n	21de <__ieee754_sqrt+0x5a>
    21fa:	2280      	movs	r2, #128	; 0x80
    21fc:	2020      	movs	r0, #32
    21fe:	f240 0a00 	movw	sl, #0
    2202:	f240 0800 	movw	r8, #0
    2206:	0612      	lsls	r2, r2, #24
    2208:	e008      	b.n	221c <__ieee754_sqrt+0x98>
    220a:	42ab      	cmp	r3, r5
    220c:	d039      	beq.n	2282 <__ieee754_sqrt+0xfe>
    220e:	0fe1      	lsrs	r1, r4, #31
    2210:	18c9      	adds	r1, r1, r3
    2212:	3801      	subs	r0, #1
    2214:	18cb      	adds	r3, r1, r3
    2216:	0064      	lsls	r4, r4, #1
    2218:	0852      	lsrs	r2, r2, #1
    221a:	b1c0      	cbz	r0, 224e <__ieee754_sqrt+0xca>
    221c:	4641      	mov	r1, r8
    221e:	1851      	adds	r1, r2, r1
    2220:	42ab      	cmp	r3, r5
    2222:	ddf2      	ble.n	220a <__ieee754_sqrt+0x86>
    2224:	188f      	adds	r7, r1, r2
    2226:	46b8      	mov	r8, r7
    2228:	46a9      	mov	r9, r5
    222a:	2900      	cmp	r1, #0
    222c:	db32      	blt.n	2294 <__ieee754_sqrt+0x110>
    222e:	1b5b      	subs	r3, r3, r5
    2230:	428c      	cmp	r4, r1
    2232:	41ad      	sbcs	r5, r5
    2234:	426d      	negs	r5, r5
    2236:	1b5b      	subs	r3, r3, r5
    2238:	1a64      	subs	r4, r4, r1
    223a:	0fe1      	lsrs	r1, r4, #31
    223c:	18c9      	adds	r1, r1, r3
    223e:	3801      	subs	r0, #1
    2240:	4492      	add	sl, r2
    2242:	464d      	mov	r5, r9
    2244:	18cb      	adds	r3, r1, r3
    2246:	0064      	lsls	r4, r4, #1
    2248:	0852      	lsrs	r2, r2, #1
    224a:	2800      	cmp	r0, #0
    224c:	d1e6      	bne.n	221c <__ieee754_sqrt+0x98>
    224e:	4323      	orrs	r3, r4
    2250:	bb53      	cbnz	r3, 22a8 <__ieee754_sqrt+0x124>
    2252:	4653      	mov	r3, sl
    2254:	085b      	lsrs	r3, r3, #1
    2256:	2100      	movs	r1, #0
    2258:	f6c3 71e0 	movt	r1, #16352	; 0x3fe0
    225c:	4688      	mov	r8, r1
    225e:	1072      	asrs	r2, r6, #1
    2260:	4442      	add	r2, r8
    2262:	07f1      	lsls	r1, r6, #31
    2264:	d502      	bpl.n	226c <__ieee754_sqrt+0xe8>
    2266:	2180      	movs	r1, #128	; 0x80
    2268:	0609      	lsls	r1, r1, #24
    226a:	430b      	orrs	r3, r1
    226c:	4661      	mov	r1, ip
    226e:	001e      	movs	r6, r3
    2270:	050f      	lsls	r7, r1, #20
    2272:	18bd      	adds	r5, r7, r2
    2274:	0030      	movs	r0, r6
    2276:	0029      	movs	r1, r5
    2278:	bc1c      	pop	{r2, r3, r4}
    227a:	4690      	mov	r8, r2
    227c:	4699      	mov	r9, r3
    227e:	46a2      	mov	sl, r4
    2280:	bdf0      	pop	{r4, r5, r6, r7, pc}
    2282:	42a1      	cmp	r1, r4
    2284:	d8c3      	bhi.n	220e <__ieee754_sqrt+0x8a>
    2286:	188f      	adds	r7, r1, r2
    2288:	46b8      	mov	r8, r7
    228a:	2900      	cmp	r1, #0
    228c:	db42      	blt.n	2314 <__ieee754_sqrt+0x190>
    228e:	4699      	mov	r9, r3
    2290:	2300      	movs	r3, #0
    2292:	e7d1      	b.n	2238 <__ieee754_sqrt+0xb4>
    2294:	2f00      	cmp	r7, #0
    2296:	db2f      	blt.n	22f8 <__ieee754_sqrt+0x174>
    2298:	1c6f      	adds	r7, r5, #1
    229a:	46b9      	mov	r9, r7
    229c:	e7c7      	b.n	222e <__ieee754_sqrt+0xaa>
    229e:	0fe1      	lsrs	r1, r4, #31
    22a0:	0052      	lsls	r2, r2, #1
    22a2:	188a      	adds	r2, r1, r2
    22a4:	0064      	lsls	r4, r4, #1
    22a6:	e78f      	b.n	21c8 <__ieee754_sqrt+0x44>
    22a8:	4653      	mov	r3, sl
    22aa:	3301      	adds	r3, #1
    22ac:	d035      	beq.n	231a <__ieee754_sqrt+0x196>
    22ae:	4653      	mov	r3, sl
    22b0:	3301      	adds	r3, #1
    22b2:	085b      	lsrs	r3, r3, #1
    22b4:	e7cf      	b.n	2256 <__ieee754_sqrt+0xd2>
    22b6:	006b      	lsls	r3, r5, #1
    22b8:	085b      	lsrs	r3, r3, #1
    22ba:	4303      	orrs	r3, r0
    22bc:	2b00      	cmp	r3, #0
    22be:	d0d9      	beq.n	2274 <__ieee754_sqrt+0xf0>
    22c0:	2700      	movs	r7, #0
    22c2:	bb95      	cbnz	r5, 232a <__ieee754_sqrt+0x1a6>
    22c4:	0ae2      	lsrs	r2, r4, #11
    22c6:	3f15      	subs	r7, #21
    22c8:	0564      	lsls	r4, r4, #21
    22ca:	2a00      	cmp	r2, #0
    22cc:	d0fa      	beq.n	22c4 <__ieee754_sqrt+0x140>
    22ce:	2380      	movs	r3, #128	; 0x80
    22d0:	035b      	lsls	r3, r3, #13
    22d2:	421a      	tst	r2, r3
    22d4:	d124      	bne.n	2320 <__ieee754_sqrt+0x19c>
    22d6:	2080      	movs	r0, #128	; 0x80
    22d8:	2300      	movs	r3, #0
    22da:	0340      	lsls	r0, r0, #13
    22dc:	e000      	b.n	22e0 <__ieee754_sqrt+0x15c>
    22de:	000b      	movs	r3, r1
    22e0:	0052      	lsls	r2, r2, #1
    22e2:	1c59      	adds	r1, r3, #1
    22e4:	4202      	tst	r2, r0
    22e6:	d0fa      	beq.n	22de <__ieee754_sqrt+0x15a>
    22e8:	2020      	movs	r0, #32
    22ea:	1a40      	subs	r0, r0, r1
    22ec:	1aff      	subs	r7, r7, r3
    22ee:	0023      	movs	r3, r4
    22f0:	40c3      	lsrs	r3, r0
    22f2:	408c      	lsls	r4, r1
    22f4:	431a      	orrs	r2, r3
    22f6:	e75d      	b.n	21b4 <__ieee754_sqrt+0x30>
    22f8:	46a9      	mov	r9, r5
    22fa:	e798      	b.n	222e <__ieee754_sqrt+0xaa>
    22fc:	002b      	movs	r3, r5
    22fe:	0002      	movs	r2, r0
    2300:	0029      	movs	r1, r5
    2302:	f001 f969 	bl	35d8 <__aeabi_dmul>
    2306:	0032      	movs	r2, r6
    2308:	002b      	movs	r3, r5
    230a:	f000 f9dd 	bl	26c8 <__aeabi_dadd>
    230e:	0006      	movs	r6, r0
    2310:	000d      	movs	r5, r1
    2312:	e7af      	b.n	2274 <__ieee754_sqrt+0xf0>
    2314:	2f00      	cmp	r7, #0
    2316:	dabf      	bge.n	2298 <__ieee754_sqrt+0x114>
    2318:	e7b9      	b.n	228e <__ieee754_sqrt+0x10a>
    231a:	3601      	adds	r6, #1
    231c:	2300      	movs	r3, #0
    231e:	e79a      	b.n	2256 <__ieee754_sqrt+0xd2>
    2320:	2301      	movs	r3, #1
    2322:	2100      	movs	r1, #0
    2324:	2020      	movs	r0, #32
    2326:	425b      	negs	r3, r3
    2328:	e7e0      	b.n	22ec <__ieee754_sqrt+0x168>
    232a:	002b      	movs	r3, r5
    232c:	0002      	movs	r2, r0
    232e:	0029      	movs	r1, r5
    2330:	f001 fbda 	bl	3ae8 <__aeabi_dsub>
    2334:	0002      	movs	r2, r0
    2336:	000b      	movs	r3, r1
    2338:	f000 fd26 	bl	2d88 <__aeabi_ddiv>
    233c:	0006      	movs	r6, r0
    233e:	000d      	movs	r5, r1
    2340:	e798      	b.n	2274 <__ieee754_sqrt+0xf0>
    2342:	46c0      	nop			; (mov r8, r8)
    2344:	fffffc01 	.word	0xfffffc01

00002348 <fabs>:
    2348:	0049      	lsls	r1, r1, #1
    234a:	084b      	lsrs	r3, r1, #1
    234c:	0019      	movs	r1, r3
    234e:	4770      	bx	lr

00002350 <finite>:
    2350:	2300      	movs	r3, #0
    2352:	f2c8 0310 	movt	r3, #32784	; 0x8010
    2356:	469c      	mov	ip, r3
    2358:	0048      	lsls	r0, r1, #1
    235a:	0840      	lsrs	r0, r0, #1
    235c:	4460      	add	r0, ip
    235e:	0fc0      	lsrs	r0, r0, #31
    2360:	4770      	bx	lr
    2362:	46c0      	nop			; (mov r8, r8)

00002364 <matherr>:
    2364:	2000      	movs	r0, #0
    2366:	4770      	bx	lr

00002368 <nan>:
    2368:	2100      	movs	r1, #0
    236a:	2000      	movs	r0, #0
    236c:	f6c7 71f8 	movt	r1, #32760	; 0x7ff8
    2370:	4770      	bx	lr
    2372:	46c0      	nop			; (mov r8, r8)

00002374 <rint>:
    2374:	b5f0      	push	{r4, r5, r6, r7, lr}
    2376:	46c6      	mov	lr, r8
    2378:	b500      	push	{lr}
    237a:	0fcb      	lsrs	r3, r1, #31
    237c:	4698      	mov	r8, r3
    237e:	4c4f      	ldr	r4, [pc, #316]	; (24bc <rint+0x148>)
    2380:	004b      	lsls	r3, r1, #1
    2382:	0d5b      	lsrs	r3, r3, #21
    2384:	191e      	adds	r6, r3, r4
    2386:	b082      	sub	sp, #8
    2388:	0007      	movs	r7, r0
    238a:	000a      	movs	r2, r1
    238c:	2e13      	cmp	r6, #19
    238e:	dc3a      	bgt.n	2406 <rint+0x92>
    2390:	2e00      	cmp	r6, #0
    2392:	db5c      	blt.n	244e <rint+0xda>
    2394:	f64f 73ff 	movw	r3, #65535	; 0xffff
    2398:	f2c0 030f 	movt	r3, #15
    239c:	4133      	asrs	r3, r6
    239e:	001f      	movs	r7, r3
    23a0:	400f      	ands	r7, r1
    23a2:	4307      	orrs	r7, r0
    23a4:	0004      	movs	r4, r0
    23a6:	000d      	movs	r5, r1
    23a8:	b33f      	cbz	r7, 23fa <rint+0x86>
    23aa:	085b      	lsrs	r3, r3, #1
    23ac:	001c      	movs	r4, r3
    23ae:	400c      	ands	r4, r1
    23b0:	4320      	orrs	r0, r4
    23b2:	2700      	movs	r7, #0
    23b4:	b138      	cbz	r0, 23c6 <rint+0x52>
    23b6:	2e13      	cmp	r6, #19
    23b8:	d100      	bne.n	23bc <rint+0x48>
    23ba:	e07b      	b.n	24b4 <rint+0x140>
    23bc:	2280      	movs	r2, #128	; 0x80
    23be:	02d2      	lsls	r2, r2, #11
    23c0:	4132      	asrs	r2, r6
    23c2:	4399      	bics	r1, r3
    23c4:	430a      	orrs	r2, r1
    23c6:	4643      	mov	r3, r8
    23c8:	00de      	lsls	r6, r3, #3
    23ca:	f244 43f8 	movw	r3, #17656	; 0x44f8
    23ce:	f2c0 0300 	movt	r3, #0
    23d2:	469c      	mov	ip, r3
    23d4:	4466      	add	r6, ip
    23d6:	6834      	ldr	r4, [r6, #0]
    23d8:	6875      	ldr	r5, [r6, #4]
    23da:	0011      	movs	r1, r2
    23dc:	002b      	movs	r3, r5
    23de:	0022      	movs	r2, r4
    23e0:	0038      	movs	r0, r7
    23e2:	f000 f971 	bl	26c8 <__aeabi_dadd>
    23e6:	9000      	str	r0, [sp, #0]
    23e8:	9101      	str	r1, [sp, #4]
    23ea:	9800      	ldr	r0, [sp, #0]
    23ec:	9901      	ldr	r1, [sp, #4]
    23ee:	0022      	movs	r2, r4
    23f0:	002b      	movs	r3, r5
    23f2:	f001 fb79 	bl	3ae8 <__aeabi_dsub>
    23f6:	0004      	movs	r4, r0
    23f8:	000d      	movs	r5, r1
    23fa:	0020      	movs	r0, r4
    23fc:	0029      	movs	r1, r5
    23fe:	b002      	add	sp, #8
    2400:	bc04      	pop	{r2}
    2402:	4690      	mov	r8, r2
    2404:	bdf0      	pop	{r4, r5, r6, r7, pc}
    2406:	2e33      	cmp	r6, #51	; 0x33
    2408:	dd0c      	ble.n	2424 <rint+0xb0>
    240a:	f240 4300 	movw	r3, #1024	; 0x400
    240e:	0004      	movs	r4, r0
    2410:	000d      	movs	r5, r1
    2412:	429e      	cmp	r6, r3
    2414:	d1f1      	bne.n	23fa <rint+0x86>
    2416:	0002      	movs	r2, r0
    2418:	000b      	movs	r3, r1
    241a:	f000 f955 	bl	26c8 <__aeabi_dadd>
    241e:	0004      	movs	r4, r0
    2420:	000d      	movs	r5, r1
    2422:	e7ea      	b.n	23fa <rint+0x86>
    2424:	4c26      	ldr	r4, [pc, #152]	; (24c0 <rint+0x14c>)
    2426:	000d      	movs	r5, r1
    2428:	46a4      	mov	ip, r4
    242a:	2401      	movs	r4, #1
    242c:	4463      	add	r3, ip
    242e:	4264      	negs	r4, r4
    2430:	40dc      	lsrs	r4, r3
    2432:	46a4      	mov	ip, r4
    2434:	4661      	mov	r1, ip
    2436:	0004      	movs	r4, r0
    2438:	4201      	tst	r1, r0
    243a:	d0de      	beq.n	23fa <rint+0x86>
    243c:	0849      	lsrs	r1, r1, #1
    243e:	4201      	tst	r1, r0
    2440:	d0c1      	beq.n	23c6 <rint+0x52>
    2442:	2780      	movs	r7, #128	; 0x80
    2444:	05ff      	lsls	r7, r7, #23
    2446:	411f      	asrs	r7, r3
    2448:	4388      	bics	r0, r1
    244a:	4307      	orrs	r7, r0
    244c:	e7bb      	b.n	23c6 <rint+0x52>
    244e:	004b      	lsls	r3, r1, #1
    2450:	085b      	lsrs	r3, r3, #1
    2452:	4303      	orrs	r3, r0
    2454:	0004      	movs	r4, r0
    2456:	000d      	movs	r5, r1
    2458:	2b00      	cmp	r3, #0
    245a:	d0ce      	beq.n	23fa <rint+0x86>
    245c:	030b      	lsls	r3, r1, #12
    245e:	0b1b      	lsrs	r3, r3, #12
    2460:	4303      	orrs	r3, r0
    2462:	001a      	movs	r2, r3
    2464:	425b      	negs	r3, r3
    2466:	4313      	orrs	r3, r2
    2468:	2280      	movs	r2, #128	; 0x80
    246a:	0b1b      	lsrs	r3, r3, #12
    246c:	0312      	lsls	r2, r2, #12
    246e:	4013      	ands	r3, r2
    2470:	0c4a      	lsrs	r2, r1, #17
    2472:	0452      	lsls	r2, r2, #17
    2474:	4313      	orrs	r3, r2
    2476:	f244 42f8 	movw	r2, #17656	; 0x44f8
    247a:	0019      	movs	r1, r3
    247c:	f2c0 0200 	movt	r2, #0
    2480:	4643      	mov	r3, r8
    2482:	4694      	mov	ip, r2
    2484:	00db      	lsls	r3, r3, #3
    2486:	4463      	add	r3, ip
    2488:	681c      	ldr	r4, [r3, #0]
    248a:	685d      	ldr	r5, [r3, #4]
    248c:	0022      	movs	r2, r4
    248e:	002b      	movs	r3, r5
    2490:	f000 f91a 	bl	26c8 <__aeabi_dadd>
    2494:	9000      	str	r0, [sp, #0]
    2496:	9101      	str	r1, [sp, #4]
    2498:	9800      	ldr	r0, [sp, #0]
    249a:	9901      	ldr	r1, [sp, #4]
    249c:	0022      	movs	r2, r4
    249e:	002b      	movs	r3, r5
    24a0:	f001 fb22 	bl	3ae8 <__aeabi_dsub>
    24a4:	4642      	mov	r2, r8
    24a6:	004b      	lsls	r3, r1, #1
    24a8:	085b      	lsrs	r3, r3, #1
    24aa:	07d6      	lsls	r6, r2, #31
    24ac:	4333      	orrs	r3, r6
    24ae:	0004      	movs	r4, r0
    24b0:	001d      	movs	r5, r3
    24b2:	e7a2      	b.n	23fa <rint+0x86>
    24b4:	2780      	movs	r7, #128	; 0x80
    24b6:	063f      	lsls	r7, r7, #24
    24b8:	e780      	b.n	23bc <rint+0x48>
    24ba:	46c0      	nop			; (mov r8, r8)
    24bc:	fffffc01 	.word	0xfffffc01
    24c0:	fffffbed 	.word	0xfffffbed

000024c4 <scalbn>:
    24c4:	b570      	push	{r4, r5, r6, lr}
    24c6:	f240 75ff 	movw	r5, #2047	; 0x7ff
    24ca:	150b      	asrs	r3, r1, #20
    24cc:	402b      	ands	r3, r5
    24ce:	0014      	movs	r4, r2
    24d0:	000a      	movs	r2, r1
    24d2:	bb03      	cbnz	r3, 2516 <scalbn+0x52>
    24d4:	004b      	lsls	r3, r1, #1
    24d6:	085b      	lsrs	r3, r3, #1
    24d8:	4303      	orrs	r3, r0
    24da:	b1db      	cbz	r3, 2514 <scalbn+0x50>
    24dc:	2300      	movs	r3, #0
    24de:	2200      	movs	r2, #0
    24e0:	f2c4 3350 	movt	r3, #17232	; 0x4350
    24e4:	f001 f878 	bl	35d8 <__aeabi_dmul>
    24e8:	4b31      	ldr	r3, [pc, #196]	; (25b0 <scalbn+0xec>)
    24ea:	000a      	movs	r2, r1
    24ec:	429c      	cmp	r4, r3
    24ee:	db2c      	blt.n	254a <scalbn+0x86>
    24f0:	150b      	asrs	r3, r1, #20
    24f2:	402b      	ands	r3, r5
    24f4:	3b36      	subs	r3, #54	; 0x36
    24f6:	f240 75fe 	movw	r5, #2046	; 0x7fe
    24fa:	18e3      	adds	r3, r4, r3
    24fc:	42ab      	cmp	r3, r5
    24fe:	dc2f      	bgt.n	2560 <scalbn+0x9c>
    2500:	2b00      	cmp	r3, #0
    2502:	dd0f      	ble.n	2524 <scalbn+0x60>
    2504:	f64f 74ff 	movw	r4, #65535	; 0xffff
    2508:	f2c8 040f 	movt	r4, #32783	; 0x800f
    250c:	4022      	ands	r2, r4
    250e:	051b      	lsls	r3, r3, #20
    2510:	431a      	orrs	r2, r3
    2512:	0011      	movs	r1, r2
    2514:	bd70      	pop	{r4, r5, r6, pc}
    2516:	42ab      	cmp	r3, r5
    2518:	d1ed      	bne.n	24f6 <scalbn+0x32>
    251a:	0002      	movs	r2, r0
    251c:	000b      	movs	r3, r1
    251e:	f000 f8d3 	bl	26c8 <__aeabi_dadd>
    2522:	e7f7      	b.n	2514 <scalbn+0x50>
    2524:	001d      	movs	r5, r3
    2526:	3535      	adds	r5, #53	; 0x35
    2528:	da31      	bge.n	258e <scalbn+0xca>
    252a:	f24c 3350 	movw	r3, #50000	; 0xc350
    252e:	0002      	movs	r2, r0
    2530:	429c      	cmp	r4, r3
    2532:	dc16      	bgt.n	2562 <scalbn+0x9e>
    2534:	000b      	movs	r3, r1
    2536:	f24f 3059 	movw	r0, #62297	; 0xf359
    253a:	f646 611f 	movw	r1, #28191	; 0x6e1f
    253e:	f2cc 20f8 	movt	r0, #49912	; 0xc2f8
    2542:	f2c0 11a5 	movt	r1, #421	; 0x1a5
    2546:	f000 f835 	bl	25b4 <copysign>
    254a:	f24f 3259 	movw	r2, #62297	; 0xf359
    254e:	f646 631f 	movw	r3, #28191	; 0x6e1f
    2552:	f2cc 22f8 	movt	r2, #49912	; 0xc2f8
    2556:	f2c0 13a5 	movt	r3, #421	; 0x1a5
    255a:	f001 f83d 	bl	35d8 <__aeabi_dmul>
    255e:	e7d9      	b.n	2514 <scalbn+0x50>
    2560:	0002      	movs	r2, r0
    2562:	000b      	movs	r3, r1
    2564:	f247 509c 	movw	r0, #30108	; 0x759c
    2568:	f24e 413c 	movw	r1, #58428	; 0xe43c
    256c:	f6c8 0000 	movt	r0, #34816	; 0x8800
    2570:	f6c7 6137 	movt	r1, #32311	; 0x7e37
    2574:	f000 f81e 	bl	25b4 <copysign>
    2578:	f247 529c 	movw	r2, #30108	; 0x759c
    257c:	f24e 433c 	movw	r3, #58428	; 0xe43c
    2580:	f6c8 0200 	movt	r2, #34816	; 0x8800
    2584:	f6c7 6337 	movt	r3, #32311	; 0x7e37
    2588:	f001 f826 	bl	35d8 <__aeabi_dmul>
    258c:	e7c2      	b.n	2514 <scalbn+0x50>
    258e:	f64f 74ff 	movw	r4, #65535	; 0xffff
    2592:	3336      	adds	r3, #54	; 0x36
    2594:	f2c8 040f 	movt	r4, #32783	; 0x800f
    2598:	4022      	ands	r2, r4
    259a:	051b      	lsls	r3, r3, #20
    259c:	4313      	orrs	r3, r2
    259e:	0019      	movs	r1, r3
    25a0:	2300      	movs	r3, #0
    25a2:	2200      	movs	r2, #0
    25a4:	f6c3 4390 	movt	r3, #15504	; 0x3c90
    25a8:	f001 f816 	bl	35d8 <__aeabi_dmul>
    25ac:	e7b2      	b.n	2514 <scalbn+0x50>
    25ae:	46c0      	nop			; (mov r8, r8)
    25b0:	ffff3cb0 	.word	0xffff3cb0

000025b4 <copysign>:
    25b4:	b530      	push	{r4, r5, lr}
    25b6:	004a      	lsls	r2, r1, #1
    25b8:	0fdb      	lsrs	r3, r3, #31
    25ba:	07db      	lsls	r3, r3, #31
    25bc:	0852      	lsrs	r2, r2, #1
    25be:	431a      	orrs	r2, r3
    25c0:	0011      	movs	r1, r2
    25c2:	bd30      	pop	{r4, r5, pc}

000025c4 <__aeabi_cdrcmple>:
    25c4:	4684      	mov	ip, r0
    25c6:	1c10      	adds	r0, r2, #0
    25c8:	4662      	mov	r2, ip
    25ca:	468c      	mov	ip, r1
    25cc:	1c19      	adds	r1, r3, #0
    25ce:	4663      	mov	r3, ip
    25d0:	e000      	b.n	25d4 <__aeabi_cdcmpeq>
    25d2:	46c0      	nop			; (mov r8, r8)

000025d4 <__aeabi_cdcmpeq>:
    25d4:	b51f      	push	{r0, r1, r2, r3, r4, lr}
    25d6:	f000 ff9d 	bl	3514 <__ledf2>
    25da:	2800      	cmp	r0, #0
    25dc:	d401      	bmi.n	25e2 <__aeabi_cdcmpeq+0xe>
    25de:	2100      	movs	r1, #0
    25e0:	42c8      	cmn	r0, r1
    25e2:	bd1f      	pop	{r0, r1, r2, r3, r4, pc}

000025e4 <__aeabi_dcmpeq>:
    25e4:	b510      	push	{r4, lr}
    25e6:	f000 fef7 	bl	33d8 <__eqdf2>
    25ea:	4240      	negs	r0, r0
    25ec:	3001      	adds	r0, #1
    25ee:	bd10      	pop	{r4, pc}

000025f0 <__aeabi_dcmplt>:
    25f0:	b510      	push	{r4, lr}
    25f2:	f000 ff8f 	bl	3514 <__ledf2>
    25f6:	2800      	cmp	r0, #0
    25f8:	db01      	blt.n	25fe <__aeabi_dcmplt+0xe>
    25fa:	2000      	movs	r0, #0
    25fc:	bd10      	pop	{r4, pc}
    25fe:	2001      	movs	r0, #1
    2600:	bd10      	pop	{r4, pc}
    2602:	46c0      	nop			; (mov r8, r8)

00002604 <__aeabi_dcmple>:
    2604:	b510      	push	{r4, lr}
    2606:	f000 ff85 	bl	3514 <__ledf2>
    260a:	2800      	cmp	r0, #0
    260c:	dd01      	ble.n	2612 <__aeabi_dcmple+0xe>
    260e:	2000      	movs	r0, #0
    2610:	bd10      	pop	{r4, pc}
    2612:	2001      	movs	r0, #1
    2614:	bd10      	pop	{r4, pc}
    2616:	46c0      	nop			; (mov r8, r8)

00002618 <__aeabi_dcmpgt>:
    2618:	b510      	push	{r4, lr}
    261a:	f000 ff19 	bl	3450 <__gedf2>
    261e:	2800      	cmp	r0, #0
    2620:	dc01      	bgt.n	2626 <__aeabi_dcmpgt+0xe>
    2622:	2000      	movs	r0, #0
    2624:	bd10      	pop	{r4, pc}
    2626:	2001      	movs	r0, #1
    2628:	bd10      	pop	{r4, pc}
    262a:	46c0      	nop			; (mov r8, r8)

0000262c <__aeabi_dcmpge>:
    262c:	b510      	push	{r4, lr}
    262e:	f000 ff0f 	bl	3450 <__gedf2>
    2632:	2800      	cmp	r0, #0
    2634:	da01      	bge.n	263a <__aeabi_dcmpge+0xe>
    2636:	2000      	movs	r0, #0
    2638:	bd10      	pop	{r4, pc}
    263a:	2001      	movs	r0, #1
    263c:	bd10      	pop	{r4, pc}
    263e:	46c0      	nop			; (mov r8, r8)

00002640 <__aeabi_lmul>:
    2640:	b5f0      	push	{r4, r5, r6, r7, lr}
    2642:	f64f 75ff 	movw	r5, #65535	; 0xffff
    2646:	46ce      	mov	lr, r9
    2648:	4647      	mov	r7, r8
    264a:	002c      	movs	r4, r5
    264c:	4015      	ands	r5, r2
    264e:	4699      	mov	r9, r3
    2650:	002b      	movs	r3, r5
    2652:	4004      	ands	r4, r0
    2654:	0c16      	lsrs	r6, r2, #16
    2656:	b580      	push	{r7, lr}
    2658:	0c07      	lsrs	r7, r0, #16
    265a:	4363      	muls	r3, r4
    265c:	437d      	muls	r5, r7
    265e:	4377      	muls	r7, r6
    2660:	4366      	muls	r6, r4
    2662:	0c1c      	lsrs	r4, r3, #16
    2664:	1976      	adds	r6, r6, r5
    2666:	19a4      	adds	r4, r4, r6
    2668:	469c      	mov	ip, r3
    266a:	42a5      	cmp	r5, r4
    266c:	d903      	bls.n	2676 <__aeabi_lmul+0x36>
    266e:	2380      	movs	r3, #128	; 0x80
    2670:	025b      	lsls	r3, r3, #9
    2672:	4698      	mov	r8, r3
    2674:	4447      	add	r7, r8
    2676:	0c25      	lsrs	r5, r4, #16
    2678:	19ef      	adds	r7, r5, r7
    267a:	4663      	mov	r3, ip
    267c:	f64f 75ff 	movw	r5, #65535	; 0xffff
    2680:	401d      	ands	r5, r3
    2682:	464b      	mov	r3, r9
    2684:	4351      	muls	r1, r2
    2686:	4343      	muls	r3, r0
    2688:	0424      	lsls	r4, r4, #16
    268a:	1964      	adds	r4, r4, r5
    268c:	1859      	adds	r1, r3, r1
    268e:	19c9      	adds	r1, r1, r7
    2690:	0020      	movs	r0, r4
    2692:	bc0c      	pop	{r2, r3}
    2694:	4690      	mov	r8, r2
    2696:	4699      	mov	r9, r3
    2698:	bdf0      	pop	{r4, r5, r6, r7, pc}
    269a:	46c0      	nop			; (mov r8, r8)

0000269c <__aeabi_l2d>:
    269c:	b570      	push	{r4, r5, r6, lr}
    269e:	0006      	movs	r6, r0
    26a0:	0008      	movs	r0, r1
    26a2:	f001 fd8f 	bl	41c4 <__aeabi_i2d>
    26a6:	2300      	movs	r3, #0
    26a8:	2200      	movs	r2, #0
    26aa:	f2c4 13f0 	movt	r3, #16880	; 0x41f0
    26ae:	f000 ff93 	bl	35d8 <__aeabi_dmul>
    26b2:	000d      	movs	r5, r1
    26b4:	0004      	movs	r4, r0
    26b6:	0030      	movs	r0, r6
    26b8:	f001 fdc6 	bl	4248 <__aeabi_ui2d>
    26bc:	002b      	movs	r3, r5
    26be:	0022      	movs	r2, r4
    26c0:	f000 f802 	bl	26c8 <__aeabi_dadd>
    26c4:	bd70      	pop	{r4, r5, r6, pc}
    26c6:	46c0      	nop			; (mov r8, r8)

000026c8 <__aeabi_dadd>:
    26c8:	b5f8      	push	{r3, r4, r5, r6, r7, lr}
    26ca:	4657      	mov	r7, sl
    26cc:	4645      	mov	r5, r8
    26ce:	46de      	mov	lr, fp
    26d0:	464e      	mov	r6, r9
    26d2:	030c      	lsls	r4, r1, #12
    26d4:	b5e0      	push	{r5, r6, r7, lr}
    26d6:	004d      	lsls	r5, r1, #1
    26d8:	0fcf      	lsrs	r7, r1, #31
    26da:	0a61      	lsrs	r1, r4, #9
    26dc:	0f44      	lsrs	r4, r0, #29
    26de:	430c      	orrs	r4, r1
    26e0:	00c6      	lsls	r6, r0, #3
    26e2:	0319      	lsls	r1, r3, #12
    26e4:	0058      	lsls	r0, r3, #1
    26e6:	0fdb      	lsrs	r3, r3, #31
    26e8:	469b      	mov	fp, r3
    26ea:	0a4b      	lsrs	r3, r1, #9
    26ec:	0f51      	lsrs	r1, r2, #29
    26ee:	430b      	orrs	r3, r1
    26f0:	0d6d      	lsrs	r5, r5, #21
    26f2:	0019      	movs	r1, r3
    26f4:	00d3      	lsls	r3, r2, #3
    26f6:	46a8      	mov	r8, r5
    26f8:	0d40      	lsrs	r0, r0, #21
    26fa:	003d      	movs	r5, r7
    26fc:	469a      	mov	sl, r3
    26fe:	455f      	cmp	r7, fp
    2700:	d100      	bne.n	2704 <__aeabi_dadd+0x3c>
    2702:	e0b7      	b.n	2874 <__aeabi_dadd+0x1ac>
    2704:	4645      	mov	r5, r8
    2706:	1a2d      	subs	r5, r5, r0
    2708:	2d00      	cmp	r5, #0
    270a:	dc00      	bgt.n	270e <__aeabi_dadd+0x46>
    270c:	e109      	b.n	2922 <__aeabi_dadd+0x25a>
    270e:	b998      	cbnz	r0, 2738 <__aeabi_dadd+0x70>
    2710:	000b      	movs	r3, r1
    2712:	4652      	mov	r2, sl
    2714:	4313      	orrs	r3, r2
    2716:	2b00      	cmp	r3, #0
    2718:	d100      	bne.n	271c <__aeabi_dadd+0x54>
    271a:	e0e8      	b.n	28ee <__aeabi_dadd+0x226>
    271c:	1e6b      	subs	r3, r5, #1
    271e:	2b00      	cmp	r3, #0
    2720:	d000      	beq.n	2724 <__aeabi_dadd+0x5c>
    2722:	e159      	b.n	29d8 <__aeabi_dadd+0x310>
    2724:	1ab2      	subs	r2, r6, r2
    2726:	4296      	cmp	r6, r2
    2728:	41b6      	sbcs	r6, r6
    272a:	1a64      	subs	r4, r4, r1
    272c:	4276      	negs	r6, r6
    272e:	1ba4      	subs	r4, r4, r6
    2730:	f240 0801 	movw	r8, #1
    2734:	0016      	movs	r6, r2
    2736:	e021      	b.n	277c <__aeabi_dadd+0xb4>
    2738:	f240 73ff 	movw	r3, #2047	; 0x7ff
    273c:	4598      	cmp	r8, r3
    273e:	d04b      	beq.n	27d8 <__aeabi_dadd+0x110>
    2740:	2380      	movs	r3, #128	; 0x80
    2742:	041b      	lsls	r3, r3, #16
    2744:	4319      	orrs	r1, r3
    2746:	2d38      	cmp	r5, #56	; 0x38
    2748:	dd00      	ble.n	274c <__aeabi_dadd+0x84>
    274a:	e123      	b.n	2994 <__aeabi_dadd+0x2cc>
    274c:	2d1f      	cmp	r5, #31
    274e:	dd00      	ble.n	2752 <__aeabi_dadd+0x8a>
    2750:	e15a      	b.n	2a08 <__aeabi_dadd+0x340>
    2752:	2020      	movs	r0, #32
    2754:	000b      	movs	r3, r1
    2756:	1b40      	subs	r0, r0, r5
    2758:	4083      	lsls	r3, r0
    275a:	001a      	movs	r2, r3
    275c:	4653      	mov	r3, sl
    275e:	40eb      	lsrs	r3, r5
    2760:	4313      	orrs	r3, r2
    2762:	4652      	mov	r2, sl
    2764:	4082      	lsls	r2, r0
    2766:	1e50      	subs	r0, r2, #1
    2768:	4182      	sbcs	r2, r0
    276a:	40e9      	lsrs	r1, r5
    276c:	431a      	orrs	r2, r3
    276e:	1ab2      	subs	r2, r6, r2
    2770:	1a61      	subs	r1, r4, r1
    2772:	4296      	cmp	r6, r2
    2774:	41a4      	sbcs	r4, r4
    2776:	0016      	movs	r6, r2
    2778:	4264      	negs	r4, r4
    277a:	1b0c      	subs	r4, r1, r4
    277c:	0223      	lsls	r3, r4, #8
    277e:	d569      	bpl.n	2854 <__aeabi_dadd+0x18c>
    2780:	0264      	lsls	r4, r4, #9
    2782:	0a65      	lsrs	r5, r4, #9
    2784:	2d00      	cmp	r5, #0
    2786:	d100      	bne.n	278a <__aeabi_dadd+0xc2>
    2788:	e0ea      	b.n	2960 <__aeabi_dadd+0x298>
    278a:	0028      	movs	r0, r5
    278c:	f001 fd96 	bl	42bc <__clzsi2>
    2790:	0003      	movs	r3, r0
    2792:	3b08      	subs	r3, #8
    2794:	2b1f      	cmp	r3, #31
    2796:	dd00      	ble.n	279a <__aeabi_dadd+0xd2>
    2798:	e0eb      	b.n	2972 <__aeabi_dadd+0x2aa>
    279a:	2220      	movs	r2, #32
    279c:	0034      	movs	r4, r6
    279e:	1ad2      	subs	r2, r2, r3
    27a0:	40d4      	lsrs	r4, r2
    27a2:	409d      	lsls	r5, r3
    27a4:	409e      	lsls	r6, r3
    27a6:	4325      	orrs	r5, r4
    27a8:	4642      	mov	r2, r8
    27aa:	4598      	cmp	r8, r3
    27ac:	dd00      	ble.n	27b0 <__aeabi_dadd+0xe8>
    27ae:	e0e8      	b.n	2982 <__aeabi_dadd+0x2ba>
    27b0:	1a9b      	subs	r3, r3, r2
    27b2:	1c5a      	adds	r2, r3, #1
    27b4:	2a1f      	cmp	r2, #31
    27b6:	dd00      	ble.n	27ba <__aeabi_dadd+0xf2>
    27b8:	e115      	b.n	29e6 <__aeabi_dadd+0x31e>
    27ba:	2320      	movs	r3, #32
    27bc:	0030      	movs	r0, r6
    27be:	0029      	movs	r1, r5
    27c0:	1a9b      	subs	r3, r3, r2
    27c2:	40d0      	lsrs	r0, r2
    27c4:	4099      	lsls	r1, r3
    27c6:	409e      	lsls	r6, r3
    27c8:	002c      	movs	r4, r5
    27ca:	4301      	orrs	r1, r0
    27cc:	1e70      	subs	r0, r6, #1
    27ce:	4186      	sbcs	r6, r0
    27d0:	40d4      	lsrs	r4, r2
    27d2:	f240 0800 	movw	r8, #0
    27d6:	430e      	orrs	r6, r1
    27d8:	0773      	lsls	r3, r6, #29
    27da:	d009      	beq.n	27f0 <__aeabi_dadd+0x128>
    27dc:	230f      	movs	r3, #15
    27de:	4033      	ands	r3, r6
    27e0:	2b04      	cmp	r3, #4
    27e2:	d005      	beq.n	27f0 <__aeabi_dadd+0x128>
    27e4:	1d33      	adds	r3, r6, #4
    27e6:	42b3      	cmp	r3, r6
    27e8:	41b6      	sbcs	r6, r6
    27ea:	4276      	negs	r6, r6
    27ec:	19a4      	adds	r4, r4, r6
    27ee:	001e      	movs	r6, r3
    27f0:	0223      	lsls	r3, r4, #8
    27f2:	d531      	bpl.n	2858 <__aeabi_dadd+0x190>
    27f4:	4643      	mov	r3, r8
    27f6:	f240 72ff 	movw	r2, #2047	; 0x7ff
    27fa:	3301      	adds	r3, #1
    27fc:	4293      	cmp	r3, r2
    27fe:	d100      	bne.n	2802 <__aeabi_dadd+0x13a>
    2800:	e0c4      	b.n	298c <__aeabi_dadd+0x2c4>
    2802:	003d      	movs	r5, r7
    2804:	49ce      	ldr	r1, [pc, #824]	; (2b40 <__aeabi_dadd+0x478>)
    2806:	08f6      	lsrs	r6, r6, #3
    2808:	400c      	ands	r4, r1
    280a:	0760      	lsls	r0, r4, #29
    280c:	0264      	lsls	r4, r4, #9
    280e:	4306      	orrs	r6, r0
    2810:	0b24      	lsrs	r4, r4, #12
    2812:	401a      	ands	r2, r3
    2814:	2100      	movs	r1, #0
    2816:	0324      	lsls	r4, r4, #12
    2818:	0b23      	lsrs	r3, r4, #12
    281a:	0d0c      	lsrs	r4, r1, #20
    281c:	0524      	lsls	r4, r4, #20
    281e:	431c      	orrs	r4, r3
    2820:	0513      	lsls	r3, r2, #20
    2822:	f64f 72ff 	movw	r2, #65535	; 0xffff
    2826:	f2c8 020f 	movt	r2, #32783	; 0x800f
    282a:	4014      	ands	r4, r2
    282c:	4323      	orrs	r3, r4
    282e:	005b      	lsls	r3, r3, #1
    2830:	07ed      	lsls	r5, r5, #31
    2832:	085b      	lsrs	r3, r3, #1
    2834:	432b      	orrs	r3, r5
    2836:	0030      	movs	r0, r6
    2838:	0019      	movs	r1, r3
    283a:	bc3c      	pop	{r2, r3, r4, r5}
    283c:	4690      	mov	r8, r2
    283e:	4699      	mov	r9, r3
    2840:	46a2      	mov	sl, r4
    2842:	46ab      	mov	fp, r5
    2844:	bdf8      	pop	{r3, r4, r5, r6, r7, pc}
    2846:	4664      	mov	r4, ip
    2848:	4304      	orrs	r4, r0
    284a:	2c00      	cmp	r4, #0
    284c:	d100      	bne.n	2850 <__aeabi_dadd+0x188>
    284e:	e254      	b.n	2cfa <__aeabi_dadd+0x632>
    2850:	0004      	movs	r4, r0
    2852:	4666      	mov	r6, ip
    2854:	0773      	lsls	r3, r6, #29
    2856:	d1c1      	bne.n	27dc <__aeabi_dadd+0x114>
    2858:	003d      	movs	r5, r7
    285a:	0760      	lsls	r0, r4, #29
    285c:	08f6      	lsrs	r6, r6, #3
    285e:	4306      	orrs	r6, r0
    2860:	08e4      	lsrs	r4, r4, #3
    2862:	f240 72ff 	movw	r2, #2047	; 0x7ff
    2866:	4590      	cmp	r8, r2
    2868:	d034      	beq.n	28d4 <__aeabi_dadd+0x20c>
    286a:	4643      	mov	r3, r8
    286c:	0324      	lsls	r4, r4, #12
    286e:	0b24      	lsrs	r4, r4, #12
    2870:	401a      	ands	r2, r3
    2872:	e7cf      	b.n	2814 <__aeabi_dadd+0x14c>
    2874:	4643      	mov	r3, r8
    2876:	1a1b      	subs	r3, r3, r0
    2878:	2b00      	cmp	r3, #0
    287a:	dc00      	bgt.n	287e <__aeabi_dadd+0x1b6>
    287c:	e090      	b.n	29a0 <__aeabi_dadd+0x2d8>
    287e:	b3c0      	cbz	r0, 28f2 <__aeabi_dadd+0x22a>
    2880:	f240 70ff 	movw	r0, #2047	; 0x7ff
    2884:	4580      	cmp	r8, r0
    2886:	d0a7      	beq.n	27d8 <__aeabi_dadd+0x110>
    2888:	2080      	movs	r0, #128	; 0x80
    288a:	0400      	lsls	r0, r0, #16
    288c:	4301      	orrs	r1, r0
    288e:	2b38      	cmp	r3, #56	; 0x38
    2890:	dc00      	bgt.n	2894 <__aeabi_dadd+0x1cc>
    2892:	e100      	b.n	2a96 <__aeabi_dadd+0x3ce>
    2894:	4652      	mov	r2, sl
    2896:	430a      	orrs	r2, r1
    2898:	1e51      	subs	r1, r2, #1
    289a:	418a      	sbcs	r2, r1
    289c:	2100      	movs	r1, #0
    289e:	1992      	adds	r2, r2, r6
    28a0:	42b2      	cmp	r2, r6
    28a2:	41b6      	sbcs	r6, r6
    28a4:	1909      	adds	r1, r1, r4
    28a6:	4274      	negs	r4, r6
    28a8:	0016      	movs	r6, r2
    28aa:	190c      	adds	r4, r1, r4
    28ac:	0223      	lsls	r3, r4, #8
    28ae:	d5d1      	bpl.n	2854 <__aeabi_dadd+0x18c>
    28b0:	f240 0c01 	movw	ip, #1
    28b4:	f240 73ff 	movw	r3, #2047	; 0x7ff
    28b8:	44e0      	add	r8, ip
    28ba:	4598      	cmp	r8, r3
    28bc:	d100      	bne.n	28c0 <__aeabi_dadd+0x1f8>
    28be:	e154      	b.n	2b6a <__aeabi_dadd+0x4a2>
    28c0:	2001      	movs	r0, #1
    28c2:	4b9f      	ldr	r3, [pc, #636]	; (2b40 <__aeabi_dadd+0x478>)
    28c4:	401c      	ands	r4, r3
    28c6:	0873      	lsrs	r3, r6, #1
    28c8:	4006      	ands	r6, r0
    28ca:	431e      	orrs	r6, r3
    28cc:	07e0      	lsls	r0, r4, #31
    28ce:	4306      	orrs	r6, r0
    28d0:	0864      	lsrs	r4, r4, #1
    28d2:	e781      	b.n	27d8 <__aeabi_dadd+0x110>
    28d4:	0023      	movs	r3, r4
    28d6:	4333      	orrs	r3, r6
    28d8:	2b00      	cmp	r3, #0
    28da:	d100      	bne.n	28de <__aeabi_dadd+0x216>
    28dc:	e206      	b.n	2cec <__aeabi_dadd+0x624>
    28de:	2380      	movs	r3, #128	; 0x80
    28e0:	031b      	lsls	r3, r3, #12
    28e2:	431c      	orrs	r4, r3
    28e4:	0324      	lsls	r4, r4, #12
    28e6:	0b24      	lsrs	r4, r4, #12
    28e8:	f240 72ff 	movw	r2, #2047	; 0x7ff
    28ec:	e792      	b.n	2814 <__aeabi_dadd+0x14c>
    28ee:	46a8      	mov	r8, r5
    28f0:	e772      	b.n	27d8 <__aeabi_dadd+0x110>
    28f2:	0008      	movs	r0, r1
    28f4:	4652      	mov	r2, sl
    28f6:	4310      	orrs	r0, r2
    28f8:	2800      	cmp	r0, #0
    28fa:	d100      	bne.n	28fe <__aeabi_dadd+0x236>
    28fc:	e0c9      	b.n	2a92 <__aeabi_dadd+0x3ca>
    28fe:	1e58      	subs	r0, r3, #1
    2900:	2800      	cmp	r0, #0
    2902:	d000      	beq.n	2906 <__aeabi_dadd+0x23e>
    2904:	e0ee      	b.n	2ae4 <__aeabi_dadd+0x41c>
    2906:	18b2      	adds	r2, r6, r2
    2908:	42b2      	cmp	r2, r6
    290a:	419b      	sbcs	r3, r3
    290c:	1864      	adds	r4, r4, r1
    290e:	425b      	negs	r3, r3
    2910:	18e4      	adds	r4, r4, r3
    2912:	0016      	movs	r6, r2
    2914:	f240 0801 	movw	r8, #1
    2918:	0223      	lsls	r3, r4, #8
    291a:	d59b      	bpl.n	2854 <__aeabi_dadd+0x18c>
    291c:	f240 0802 	movw	r8, #2
    2920:	e7ce      	b.n	28c0 <__aeabi_dadd+0x1f8>
    2922:	2d00      	cmp	r5, #0
    2924:	d000      	beq.n	2928 <__aeabi_dadd+0x260>
    2926:	e080      	b.n	2a2a <__aeabi_dadd+0x362>
    2928:	4640      	mov	r0, r8
    292a:	1c45      	adds	r5, r0, #1
    292c:	f240 70ff 	movw	r0, #2047	; 0x7ff
    2930:	4028      	ands	r0, r5
    2932:	2801      	cmp	r0, #1
    2934:	dc00      	bgt.n	2938 <__aeabi_dadd+0x270>
    2936:	e105      	b.n	2b44 <__aeabi_dadd+0x47c>
    2938:	1af0      	subs	r0, r6, r3
    293a:	4684      	mov	ip, r0
    293c:	4286      	cmp	r6, r0
    293e:	4180      	sbcs	r0, r0
    2940:	1a65      	subs	r5, r4, r1
    2942:	4240      	negs	r0, r0
    2944:	1a2d      	subs	r5, r5, r0
    2946:	022a      	lsls	r2, r5, #8
    2948:	d400      	bmi.n	294c <__aeabi_dadd+0x284>
    294a:	e097      	b.n	2a7c <__aeabi_dadd+0x3b4>
    294c:	1b9e      	subs	r6, r3, r6
    294e:	45b2      	cmp	sl, r6
    2950:	4192      	sbcs	r2, r2
    2952:	1b0c      	subs	r4, r1, r4
    2954:	4252      	negs	r2, r2
    2956:	1aa5      	subs	r5, r4, r2
    2958:	465f      	mov	r7, fp
    295a:	2d00      	cmp	r5, #0
    295c:	d000      	beq.n	2960 <__aeabi_dadd+0x298>
    295e:	e714      	b.n	278a <__aeabi_dadd+0xc2>
    2960:	0030      	movs	r0, r6
    2962:	f001 fcab 	bl	42bc <__clzsi2>
    2966:	3020      	adds	r0, #32
    2968:	0003      	movs	r3, r0
    296a:	3b08      	subs	r3, #8
    296c:	2b1f      	cmp	r3, #31
    296e:	dc00      	bgt.n	2972 <__aeabi_dadd+0x2aa>
    2970:	e713      	b.n	279a <__aeabi_dadd+0xd2>
    2972:	0035      	movs	r5, r6
    2974:	3828      	subs	r0, #40	; 0x28
    2976:	4085      	lsls	r5, r0
    2978:	2600      	movs	r6, #0
    297a:	4642      	mov	r2, r8
    297c:	4598      	cmp	r8, r3
    297e:	dc00      	bgt.n	2982 <__aeabi_dadd+0x2ba>
    2980:	e716      	b.n	27b0 <__aeabi_dadd+0xe8>
    2982:	4c6f      	ldr	r4, [pc, #444]	; (2b40 <__aeabi_dadd+0x478>)
    2984:	1ad3      	subs	r3, r2, r3
    2986:	4698      	mov	r8, r3
    2988:	402c      	ands	r4, r5
    298a:	e725      	b.n	27d8 <__aeabi_dadd+0x110>
    298c:	003d      	movs	r5, r7
    298e:	2400      	movs	r4, #0
    2990:	2600      	movs	r6, #0
    2992:	e73f      	b.n	2814 <__aeabi_dadd+0x14c>
    2994:	4652      	mov	r2, sl
    2996:	430a      	orrs	r2, r1
    2998:	1e51      	subs	r1, r2, #1
    299a:	418a      	sbcs	r2, r1
    299c:	2100      	movs	r1, #0
    299e:	e6e6      	b.n	276e <__aeabi_dadd+0xa6>
    29a0:	2b00      	cmp	r3, #0
    29a2:	d000      	beq.n	29a6 <__aeabi_dadd+0x2de>
    29a4:	e0f8      	b.n	2b98 <__aeabi_dadd+0x4d0>
    29a6:	f240 70ff 	movw	r0, #2047	; 0x7ff
    29aa:	4643      	mov	r3, r8
    29ac:	0002      	movs	r2, r0
    29ae:	3301      	adds	r3, #1
    29b0:	401a      	ands	r2, r3
    29b2:	2a01      	cmp	r2, #1
    29b4:	dc00      	bgt.n	29b8 <__aeabi_dadd+0x2f0>
    29b6:	e0a4      	b.n	2b02 <__aeabi_dadd+0x43a>
    29b8:	4283      	cmp	r3, r0
    29ba:	d100      	bne.n	29be <__aeabi_dadd+0x2f6>
    29bc:	e0d3      	b.n	2b66 <__aeabi_dadd+0x49e>
    29be:	4652      	mov	r2, sl
    29c0:	18b2      	adds	r2, r6, r2
    29c2:	42b2      	cmp	r2, r6
    29c4:	41b6      	sbcs	r6, r6
    29c6:	1864      	adds	r4, r4, r1
    29c8:	4276      	negs	r6, r6
    29ca:	19a4      	adds	r4, r4, r6
    29cc:	07e6      	lsls	r6, r4, #31
    29ce:	0852      	lsrs	r2, r2, #1
    29d0:	4316      	orrs	r6, r2
    29d2:	0864      	lsrs	r4, r4, #1
    29d4:	4698      	mov	r8, r3
    29d6:	e6ff      	b.n	27d8 <__aeabi_dadd+0x110>
    29d8:	f240 70ff 	movw	r0, #2047	; 0x7ff
    29dc:	4285      	cmp	r5, r0
    29de:	d100      	bne.n	29e2 <__aeabi_dadd+0x31a>
    29e0:	e088      	b.n	2af4 <__aeabi_dadd+0x42c>
    29e2:	001d      	movs	r5, r3
    29e4:	e6af      	b.n	2746 <__aeabi_dadd+0x7e>
    29e6:	0029      	movs	r1, r5
    29e8:	3b1f      	subs	r3, #31
    29ea:	40d9      	lsrs	r1, r3
    29ec:	2a20      	cmp	r2, #32
    29ee:	d100      	bne.n	29f2 <__aeabi_dadd+0x32a>
    29f0:	e083      	b.n	2afa <__aeabi_dadd+0x432>
    29f2:	2340      	movs	r3, #64	; 0x40
    29f4:	1a9a      	subs	r2, r3, r2
    29f6:	4095      	lsls	r5, r2
    29f8:	432e      	orrs	r6, r5
    29fa:	1e75      	subs	r5, r6, #1
    29fc:	41ae      	sbcs	r6, r5
    29fe:	2400      	movs	r4, #0
    2a00:	430e      	orrs	r6, r1
    2a02:	f240 0800 	movw	r8, #0
    2a06:	e725      	b.n	2854 <__aeabi_dadd+0x18c>
    2a08:	002b      	movs	r3, r5
    2a0a:	0008      	movs	r0, r1
    2a0c:	3b20      	subs	r3, #32
    2a0e:	40d8      	lsrs	r0, r3
    2a10:	0003      	movs	r3, r0
    2a12:	2d20      	cmp	r5, #32
    2a14:	d073      	beq.n	2afe <__aeabi_dadd+0x436>
    2a16:	2040      	movs	r0, #64	; 0x40
    2a18:	1b45      	subs	r5, r0, r5
    2a1a:	40a9      	lsls	r1, r5
    2a1c:	4652      	mov	r2, sl
    2a1e:	430a      	orrs	r2, r1
    2a20:	1e51      	subs	r1, r2, #1
    2a22:	418a      	sbcs	r2, r1
    2a24:	2100      	movs	r1, #0
    2a26:	431a      	orrs	r2, r3
    2a28:	e6a1      	b.n	276e <__aeabi_dadd+0xa6>
    2a2a:	4642      	mov	r2, r8
    2a2c:	2a00      	cmp	r2, #0
    2a2e:	d047      	beq.n	2ac0 <__aeabi_dadd+0x3f8>
    2a30:	f240 77ff 	movw	r7, #2047	; 0x7ff
    2a34:	42b8      	cmp	r0, r7
    2a36:	d04f      	beq.n	2ad8 <__aeabi_dadd+0x410>
    2a38:	2780      	movs	r7, #128	; 0x80
    2a3a:	043f      	lsls	r7, r7, #16
    2a3c:	426d      	negs	r5, r5
    2a3e:	433c      	orrs	r4, r7
    2a40:	2d38      	cmp	r5, #56	; 0x38
    2a42:	dd00      	ble.n	2a46 <__aeabi_dadd+0x37e>
    2a44:	e0ee      	b.n	2c24 <__aeabi_dadd+0x55c>
    2a46:	2d1f      	cmp	r5, #31
    2a48:	dd00      	ble.n	2a4c <__aeabi_dadd+0x384>
    2a4a:	e159      	b.n	2d00 <__aeabi_dadd+0x638>
    2a4c:	2720      	movs	r7, #32
    2a4e:	1b7a      	subs	r2, r7, r5
    2a50:	0027      	movs	r7, r4
    2a52:	4694      	mov	ip, r2
    2a54:	4097      	lsls	r7, r2
    2a56:	0032      	movs	r2, r6
    2a58:	40ea      	lsrs	r2, r5
    2a5a:	4317      	orrs	r7, r2
    2a5c:	4662      	mov	r2, ip
    2a5e:	4096      	lsls	r6, r2
    2a60:	1e72      	subs	r2, r6, #1
    2a62:	4196      	sbcs	r6, r2
    2a64:	40ec      	lsrs	r4, r5
    2a66:	433e      	orrs	r6, r7
    2a68:	4653      	mov	r3, sl
    2a6a:	1b9e      	subs	r6, r3, r6
    2a6c:	45b2      	cmp	sl, r6
    2a6e:	4192      	sbcs	r2, r2
    2a70:	1b0c      	subs	r4, r1, r4
    2a72:	4252      	negs	r2, r2
    2a74:	1aa4      	subs	r4, r4, r2
    2a76:	4680      	mov	r8, r0
    2a78:	465f      	mov	r7, fp
    2a7a:	e67f      	b.n	277c <__aeabi_dadd+0xb4>
    2a7c:	4664      	mov	r4, ip
    2a7e:	432c      	orrs	r4, r5
    2a80:	4666      	mov	r6, ip
    2a82:	2c00      	cmp	r4, #0
    2a84:	d000      	beq.n	2a88 <__aeabi_dadd+0x3c0>
    2a86:	e67d      	b.n	2784 <__aeabi_dadd+0xbc>
    2a88:	2500      	movs	r5, #0
    2a8a:	f240 0800 	movw	r8, #0
    2a8e:	2600      	movs	r6, #0
    2a90:	e6e7      	b.n	2862 <__aeabi_dadd+0x19a>
    2a92:	4698      	mov	r8, r3
    2a94:	e6a0      	b.n	27d8 <__aeabi_dadd+0x110>
    2a96:	2b1f      	cmp	r3, #31
    2a98:	dc6a      	bgt.n	2b70 <__aeabi_dadd+0x4a8>
    2a9a:	2020      	movs	r0, #32
    2a9c:	1ac2      	subs	r2, r0, r3
    2a9e:	0008      	movs	r0, r1
    2aa0:	4694      	mov	ip, r2
    2aa2:	4090      	lsls	r0, r2
    2aa4:	4652      	mov	r2, sl
    2aa6:	40da      	lsrs	r2, r3
    2aa8:	4310      	orrs	r0, r2
    2aaa:	4681      	mov	r9, r0
    2aac:	4662      	mov	r2, ip
    2aae:	4650      	mov	r0, sl
    2ab0:	4090      	lsls	r0, r2
    2ab2:	0002      	movs	r2, r0
    2ab4:	1e50      	subs	r0, r2, #1
    2ab6:	4182      	sbcs	r2, r0
    2ab8:	4648      	mov	r0, r9
    2aba:	40d9      	lsrs	r1, r3
    2abc:	4302      	orrs	r2, r0
    2abe:	e6ee      	b.n	289e <__aeabi_dadd+0x1d6>
    2ac0:	0027      	movs	r7, r4
    2ac2:	4337      	orrs	r7, r6
    2ac4:	2f00      	cmp	r7, #0
    2ac6:	d100      	bne.n	2aca <__aeabi_dadd+0x402>
    2ac8:	e0a7      	b.n	2c1a <__aeabi_dadd+0x552>
    2aca:	43ed      	mvns	r5, r5
    2acc:	2d00      	cmp	r5, #0
    2ace:	d0cb      	beq.n	2a68 <__aeabi_dadd+0x3a0>
    2ad0:	f240 77ff 	movw	r7, #2047	; 0x7ff
    2ad4:	42b8      	cmp	r0, r7
    2ad6:	d1b3      	bne.n	2a40 <__aeabi_dadd+0x378>
    2ad8:	000c      	movs	r4, r1
    2ada:	4656      	mov	r6, sl
    2adc:	f240 78ff 	movw	r8, #2047	; 0x7ff
    2ae0:	465f      	mov	r7, fp
    2ae2:	e679      	b.n	27d8 <__aeabi_dadd+0x110>
    2ae4:	f240 7cff 	movw	ip, #2047	; 0x7ff
    2ae8:	4563      	cmp	r3, ip
    2aea:	d003      	beq.n	2af4 <__aeabi_dadd+0x42c>
    2aec:	0003      	movs	r3, r0
    2aee:	e6ce      	b.n	288e <__aeabi_dadd+0x1c6>
    2af0:	000c      	movs	r4, r1
    2af2:	4656      	mov	r6, sl
    2af4:	f240 78ff 	movw	r8, #2047	; 0x7ff
    2af8:	e66e      	b.n	27d8 <__aeabi_dadd+0x110>
    2afa:	2500      	movs	r5, #0
    2afc:	e77c      	b.n	29f8 <__aeabi_dadd+0x330>
    2afe:	2100      	movs	r1, #0
    2b00:	e78c      	b.n	2a1c <__aeabi_dadd+0x354>
    2b02:	4643      	mov	r3, r8
    2b04:	2b00      	cmp	r3, #0
    2b06:	d000      	beq.n	2b0a <__aeabi_dadd+0x442>
    2b08:	e0d2      	b.n	2cb0 <__aeabi_dadd+0x5e8>
    2b0a:	0023      	movs	r3, r4
    2b0c:	4333      	orrs	r3, r6
    2b0e:	2b00      	cmp	r3, #0
    2b10:	d100      	bne.n	2b14 <__aeabi_dadd+0x44c>
    2b12:	e117      	b.n	2d44 <__aeabi_dadd+0x67c>
    2b14:	000b      	movs	r3, r1
    2b16:	4652      	mov	r2, sl
    2b18:	4313      	orrs	r3, r2
    2b1a:	2b00      	cmp	r3, #0
    2b1c:	d100      	bne.n	2b20 <__aeabi_dadd+0x458>
    2b1e:	e65b      	b.n	27d8 <__aeabi_dadd+0x110>
    2b20:	18b2      	adds	r2, r6, r2
    2b22:	42b2      	cmp	r2, r6
    2b24:	41b6      	sbcs	r6, r6
    2b26:	1864      	adds	r4, r4, r1
    2b28:	4276      	negs	r6, r6
    2b2a:	19a4      	adds	r4, r4, r6
    2b2c:	0223      	lsls	r3, r4, #8
    2b2e:	d400      	bmi.n	2b32 <__aeabi_dadd+0x46a>
    2b30:	e126      	b.n	2d80 <__aeabi_dadd+0x6b8>
    2b32:	4b03      	ldr	r3, [pc, #12]	; (2b40 <__aeabi_dadd+0x478>)
    2b34:	0016      	movs	r6, r2
    2b36:	401c      	ands	r4, r3
    2b38:	f240 0801 	movw	r8, #1
    2b3c:	e64c      	b.n	27d8 <__aeabi_dadd+0x110>
    2b3e:	46c0      	nop			; (mov r8, r8)
    2b40:	ff7fffff 	.word	0xff7fffff
    2b44:	0020      	movs	r0, r4
    2b46:	4642      	mov	r2, r8
    2b48:	4330      	orrs	r0, r6
    2b4a:	2a00      	cmp	r2, #0
    2b4c:	d159      	bne.n	2c02 <__aeabi_dadd+0x53a>
    2b4e:	2800      	cmp	r0, #0
    2b50:	d000      	beq.n	2b54 <__aeabi_dadd+0x48c>
    2b52:	e096      	b.n	2c82 <__aeabi_dadd+0x5ba>
    2b54:	000c      	movs	r4, r1
    2b56:	431c      	orrs	r4, r3
    2b58:	2c00      	cmp	r4, #0
    2b5a:	d100      	bne.n	2b5e <__aeabi_dadd+0x496>
    2b5c:	e0cd      	b.n	2cfa <__aeabi_dadd+0x632>
    2b5e:	000c      	movs	r4, r1
    2b60:	001e      	movs	r6, r3
    2b62:	465f      	mov	r7, fp
    2b64:	e638      	b.n	27d8 <__aeabi_dadd+0x110>
    2b66:	f240 78ff 	movw	r8, #2047	; 0x7ff
    2b6a:	2400      	movs	r4, #0
    2b6c:	2600      	movs	r6, #0
    2b6e:	e678      	b.n	2862 <__aeabi_dadd+0x19a>
    2b70:	0018      	movs	r0, r3
    2b72:	000a      	movs	r2, r1
    2b74:	3820      	subs	r0, #32
    2b76:	40c2      	lsrs	r2, r0
    2b78:	0010      	movs	r0, r2
    2b7a:	2b20      	cmp	r3, #32
    2b7c:	d100      	bne.n	2b80 <__aeabi_dadd+0x4b8>
    2b7e:	e0ba      	b.n	2cf6 <__aeabi_dadd+0x62e>
    2b80:	f240 0c40 	movw	ip, #64	; 0x40
    2b84:	4662      	mov	r2, ip
    2b86:	1ad3      	subs	r3, r2, r3
    2b88:	4099      	lsls	r1, r3
    2b8a:	4652      	mov	r2, sl
    2b8c:	430a      	orrs	r2, r1
    2b8e:	1e51      	subs	r1, r2, #1
    2b90:	418a      	sbcs	r2, r1
    2b92:	2100      	movs	r1, #0
    2b94:	4302      	orrs	r2, r0
    2b96:	e682      	b.n	289e <__aeabi_dadd+0x1d6>
    2b98:	4642      	mov	r2, r8
    2b9a:	2a00      	cmp	r2, #0
    2b9c:	d147      	bne.n	2c2e <__aeabi_dadd+0x566>
    2b9e:	0022      	movs	r2, r4
    2ba0:	4332      	orrs	r2, r6
    2ba2:	2a00      	cmp	r2, #0
    2ba4:	d100      	bne.n	2ba8 <__aeabi_dadd+0x4e0>
    2ba6:	e0bd      	b.n	2d24 <__aeabi_dadd+0x65c>
    2ba8:	43db      	mvns	r3, r3
    2baa:	469b      	mov	fp, r3
    2bac:	b30b      	cbz	r3, 2bf2 <__aeabi_dadd+0x52a>
    2bae:	f240 7cff 	movw	ip, #2047	; 0x7ff
    2bb2:	4560      	cmp	r0, ip
    2bb4:	d09c      	beq.n	2af0 <__aeabi_dadd+0x428>
    2bb6:	465b      	mov	r3, fp
    2bb8:	2b38      	cmp	r3, #56	; 0x38
    2bba:	dd00      	ble.n	2bbe <__aeabi_dadd+0x4f6>
    2bbc:	e0bd      	b.n	2d3a <__aeabi_dadd+0x672>
    2bbe:	2b1f      	cmp	r3, #31
    2bc0:	dd00      	ble.n	2bc4 <__aeabi_dadd+0x4fc>
    2bc2:	e0c2      	b.n	2d4a <__aeabi_dadd+0x682>
    2bc4:	f240 0820 	movw	r8, #32
    2bc8:	4642      	mov	r2, r8
    2bca:	1ad2      	subs	r2, r2, r3
    2bcc:	4690      	mov	r8, r2
    2bce:	0022      	movs	r2, r4
    2bd0:	4643      	mov	r3, r8
    2bd2:	409a      	lsls	r2, r3
    2bd4:	465b      	mov	r3, fp
    2bd6:	4694      	mov	ip, r2
    2bd8:	0032      	movs	r2, r6
    2bda:	40da      	lsrs	r2, r3
    2bdc:	4691      	mov	r9, r2
    2bde:	4662      	mov	r2, ip
    2be0:	464b      	mov	r3, r9
    2be2:	431a      	orrs	r2, r3
    2be4:	4643      	mov	r3, r8
    2be6:	409e      	lsls	r6, r3
    2be8:	1e73      	subs	r3, r6, #1
    2bea:	419e      	sbcs	r6, r3
    2bec:	465b      	mov	r3, fp
    2bee:	40dc      	lsrs	r4, r3
    2bf0:	4316      	orrs	r6, r2
    2bf2:	4456      	add	r6, sl
    2bf4:	4556      	cmp	r6, sl
    2bf6:	4192      	sbcs	r2, r2
    2bf8:	1864      	adds	r4, r4, r1
    2bfa:	4252      	negs	r2, r2
    2bfc:	18a4      	adds	r4, r4, r2
    2bfe:	4680      	mov	r8, r0
    2c00:	e654      	b.n	28ac <__aeabi_dadd+0x1e4>
    2c02:	b9f8      	cbnz	r0, 2c44 <__aeabi_dadd+0x57c>
    2c04:	0008      	movs	r0, r1
    2c06:	4318      	orrs	r0, r3
    2c08:	2800      	cmp	r0, #0
    2c0a:	d100      	bne.n	2c0e <__aeabi_dadd+0x546>
    2c0c:	e08e      	b.n	2d2c <__aeabi_dadd+0x664>
    2c0e:	000c      	movs	r4, r1
    2c10:	001e      	movs	r6, r3
    2c12:	465f      	mov	r7, fp
    2c14:	f240 78ff 	movw	r8, #2047	; 0x7ff
    2c18:	e5de      	b.n	27d8 <__aeabi_dadd+0x110>
    2c1a:	000c      	movs	r4, r1
    2c1c:	001e      	movs	r6, r3
    2c1e:	4680      	mov	r8, r0
    2c20:	465f      	mov	r7, fp
    2c22:	e5d9      	b.n	27d8 <__aeabi_dadd+0x110>
    2c24:	4326      	orrs	r6, r4
    2c26:	1e74      	subs	r4, r6, #1
    2c28:	41a6      	sbcs	r6, r4
    2c2a:	2400      	movs	r4, #0
    2c2c:	e71c      	b.n	2a68 <__aeabi_dadd+0x3a0>
    2c2e:	f240 7cff 	movw	ip, #2047	; 0x7ff
    2c32:	4560      	cmp	r0, ip
    2c34:	d100      	bne.n	2c38 <__aeabi_dadd+0x570>
    2c36:	e75b      	b.n	2af0 <__aeabi_dadd+0x428>
    2c38:	2280      	movs	r2, #128	; 0x80
    2c3a:	425b      	negs	r3, r3
    2c3c:	0412      	lsls	r2, r2, #16
    2c3e:	469b      	mov	fp, r3
    2c40:	4314      	orrs	r4, r2
    2c42:	e7b8      	b.n	2bb6 <__aeabi_dadd+0x4ee>
    2c44:	0008      	movs	r0, r1
    2c46:	4318      	orrs	r0, r3
    2c48:	f240 78ff 	movw	r8, #2047	; 0x7ff
    2c4c:	2800      	cmp	r0, #0
    2c4e:	d100      	bne.n	2c52 <__aeabi_dadd+0x58a>
    2c50:	e5c2      	b.n	27d8 <__aeabi_dadd+0x110>
    2c52:	08f0      	lsrs	r0, r6, #3
    2c54:	0766      	lsls	r6, r4, #29
    2c56:	4306      	orrs	r6, r0
    2c58:	2080      	movs	r0, #128	; 0x80
    2c5a:	08e4      	lsrs	r4, r4, #3
    2c5c:	0300      	lsls	r0, r0, #12
    2c5e:	4204      	tst	r4, r0
    2c60:	d008      	beq.n	2c74 <__aeabi_dadd+0x5ac>
    2c62:	08cd      	lsrs	r5, r1, #3
    2c64:	4205      	tst	r5, r0
    2c66:	d105      	bne.n	2c74 <__aeabi_dadd+0x5ac>
    2c68:	08da      	lsrs	r2, r3, #3
    2c6a:	0749      	lsls	r1, r1, #29
    2c6c:	4311      	orrs	r1, r2
    2c6e:	000e      	movs	r6, r1
    2c70:	002c      	movs	r4, r5
    2c72:	465f      	mov	r7, fp
    2c74:	0f73      	lsrs	r3, r6, #29
    2c76:	00e4      	lsls	r4, r4, #3
    2c78:	431c      	orrs	r4, r3
    2c7a:	00f6      	lsls	r6, r6, #3
    2c7c:	f240 78ff 	movw	r8, #2047	; 0x7ff
    2c80:	e5aa      	b.n	27d8 <__aeabi_dadd+0x110>
    2c82:	0008      	movs	r0, r1
    2c84:	4318      	orrs	r0, r3
    2c86:	2800      	cmp	r0, #0
    2c88:	d100      	bne.n	2c8c <__aeabi_dadd+0x5c4>
    2c8a:	e5a5      	b.n	27d8 <__aeabi_dadd+0x110>
    2c8c:	1af2      	subs	r2, r6, r3
    2c8e:	4296      	cmp	r6, r2
    2c90:	41ad      	sbcs	r5, r5
    2c92:	1a60      	subs	r0, r4, r1
    2c94:	426d      	negs	r5, r5
    2c96:	1b40      	subs	r0, r0, r5
    2c98:	4694      	mov	ip, r2
    2c9a:	0202      	lsls	r2, r0, #8
    2c9c:	d400      	bmi.n	2ca0 <__aeabi_dadd+0x5d8>
    2c9e:	e5d2      	b.n	2846 <__aeabi_dadd+0x17e>
    2ca0:	1b9e      	subs	r6, r3, r6
    2ca2:	45b2      	cmp	sl, r6
    2ca4:	4192      	sbcs	r2, r2
    2ca6:	1b0c      	subs	r4, r1, r4
    2ca8:	4252      	negs	r2, r2
    2caa:	1aa4      	subs	r4, r4, r2
    2cac:	465f      	mov	r7, fp
    2cae:	e593      	b.n	27d8 <__aeabi_dadd+0x110>
    2cb0:	0023      	movs	r3, r4
    2cb2:	4333      	orrs	r3, r6
    2cb4:	2b00      	cmp	r3, #0
    2cb6:	d100      	bne.n	2cba <__aeabi_dadd+0x5f2>
    2cb8:	e71a      	b.n	2af0 <__aeabi_dadd+0x428>
    2cba:	000b      	movs	r3, r1
    2cbc:	4652      	mov	r2, sl
    2cbe:	4313      	orrs	r3, r2
    2cc0:	f240 78ff 	movw	r8, #2047	; 0x7ff
    2cc4:	2b00      	cmp	r3, #0
    2cc6:	d100      	bne.n	2cca <__aeabi_dadd+0x602>
    2cc8:	e586      	b.n	27d8 <__aeabi_dadd+0x110>
    2cca:	08f0      	lsrs	r0, r6, #3
    2ccc:	0766      	lsls	r6, r4, #29
    2cce:	4306      	orrs	r6, r0
    2cd0:	2080      	movs	r0, #128	; 0x80
    2cd2:	08e4      	lsrs	r4, r4, #3
    2cd4:	0300      	lsls	r0, r0, #12
    2cd6:	4204      	tst	r4, r0
    2cd8:	d0cc      	beq.n	2c74 <__aeabi_dadd+0x5ac>
    2cda:	08cb      	lsrs	r3, r1, #3
    2cdc:	4203      	tst	r3, r0
    2cde:	d1c9      	bne.n	2c74 <__aeabi_dadd+0x5ac>
    2ce0:	08d2      	lsrs	r2, r2, #3
    2ce2:	0749      	lsls	r1, r1, #29
    2ce4:	4311      	orrs	r1, r2
    2ce6:	000e      	movs	r6, r1
    2ce8:	001c      	movs	r4, r3
    2cea:	e7c3      	b.n	2c74 <__aeabi_dadd+0x5ac>
    2cec:	2600      	movs	r6, #0
    2cee:	f240 72ff 	movw	r2, #2047	; 0x7ff
    2cf2:	2400      	movs	r4, #0
    2cf4:	e58e      	b.n	2814 <__aeabi_dadd+0x14c>
    2cf6:	2100      	movs	r1, #0
    2cf8:	e747      	b.n	2b8a <__aeabi_dadd+0x4c2>
    2cfa:	2500      	movs	r5, #0
    2cfc:	2600      	movs	r6, #0
    2cfe:	e5b0      	b.n	2862 <__aeabi_dadd+0x19a>
    2d00:	002f      	movs	r7, r5
    2d02:	0022      	movs	r2, r4
    2d04:	3f20      	subs	r7, #32
    2d06:	40fa      	lsrs	r2, r7
    2d08:	0017      	movs	r7, r2
    2d0a:	2d20      	cmp	r5, #32
    2d0c:	d036      	beq.n	2d7c <__aeabi_dadd+0x6b4>
    2d0e:	f240 0c40 	movw	ip, #64	; 0x40
    2d12:	4662      	mov	r2, ip
    2d14:	1b55      	subs	r5, r2, r5
    2d16:	40ac      	lsls	r4, r5
    2d18:	4326      	orrs	r6, r4
    2d1a:	1e74      	subs	r4, r6, #1
    2d1c:	41a6      	sbcs	r6, r4
    2d1e:	2400      	movs	r4, #0
    2d20:	433e      	orrs	r6, r7
    2d22:	e6a1      	b.n	2a68 <__aeabi_dadd+0x3a0>
    2d24:	000c      	movs	r4, r1
    2d26:	4656      	mov	r6, sl
    2d28:	4680      	mov	r8, r0
    2d2a:	e555      	b.n	27d8 <__aeabi_dadd+0x110>
    2d2c:	2480      	movs	r4, #128	; 0x80
    2d2e:	2500      	movs	r5, #0
    2d30:	0324      	lsls	r4, r4, #12
    2d32:	f240 78ff 	movw	r8, #2047	; 0x7ff
    2d36:	2600      	movs	r6, #0
    2d38:	e593      	b.n	2862 <__aeabi_dadd+0x19a>
    2d3a:	4326      	orrs	r6, r4
    2d3c:	1e74      	subs	r4, r6, #1
    2d3e:	41a6      	sbcs	r6, r4
    2d40:	2400      	movs	r4, #0
    2d42:	e756      	b.n	2bf2 <__aeabi_dadd+0x52a>
    2d44:	000c      	movs	r4, r1
    2d46:	4656      	mov	r6, sl
    2d48:	e546      	b.n	27d8 <__aeabi_dadd+0x110>
    2d4a:	2320      	movs	r3, #32
    2d4c:	425b      	negs	r3, r3
    2d4e:	469c      	mov	ip, r3
    2d50:	44dc      	add	ip, fp
    2d52:	4663      	mov	r3, ip
    2d54:	0022      	movs	r2, r4
    2d56:	40da      	lsrs	r2, r3
    2d58:	465b      	mov	r3, fp
    2d5a:	4694      	mov	ip, r2
    2d5c:	2b20      	cmp	r3, #32
    2d5e:	d011      	beq.n	2d84 <__aeabi_dadd+0x6bc>
    2d60:	f240 0840 	movw	r8, #64	; 0x40
    2d64:	465a      	mov	r2, fp
    2d66:	4643      	mov	r3, r8
    2d68:	1a9b      	subs	r3, r3, r2
    2d6a:	409c      	lsls	r4, r3
    2d6c:	4326      	orrs	r6, r4
    2d6e:	1e74      	subs	r4, r6, #1
    2d70:	41a6      	sbcs	r6, r4
    2d72:	4663      	mov	r3, ip
    2d74:	4333      	orrs	r3, r6
    2d76:	001e      	movs	r6, r3
    2d78:	2400      	movs	r4, #0
    2d7a:	e73a      	b.n	2bf2 <__aeabi_dadd+0x52a>
    2d7c:	2400      	movs	r4, #0
    2d7e:	e7cb      	b.n	2d18 <__aeabi_dadd+0x650>
    2d80:	0016      	movs	r6, r2
    2d82:	e567      	b.n	2854 <__aeabi_dadd+0x18c>
    2d84:	2400      	movs	r4, #0
    2d86:	e7f1      	b.n	2d6c <__aeabi_dadd+0x6a4>

00002d88 <__aeabi_ddiv>:
    2d88:	b5f0      	push	{r4, r5, r6, r7, lr}
    2d8a:	4657      	mov	r7, sl
    2d8c:	4645      	mov	r5, r8
    2d8e:	46de      	mov	lr, fp
    2d90:	464e      	mov	r6, r9
    2d92:	b5e0      	push	{r5, r6, r7, lr}
    2d94:	004c      	lsls	r4, r1, #1
    2d96:	001e      	movs	r6, r3
    2d98:	030f      	lsls	r7, r1, #12
    2d9a:	0fcb      	lsrs	r3, r1, #31
    2d9c:	0d64      	lsrs	r4, r4, #21
    2d9e:	b085      	sub	sp, #20
    2da0:	4683      	mov	fp, r0
    2da2:	4692      	mov	sl, r2
    2da4:	0005      	movs	r5, r0
    2da6:	0b3f      	lsrs	r7, r7, #12
    2da8:	4698      	mov	r8, r3
    2daa:	2c00      	cmp	r4, #0
    2dac:	d053      	beq.n	2e56 <__aeabi_ddiv+0xce>
    2dae:	f240 73ff 	movw	r3, #2047	; 0x7ff
    2db2:	429c      	cmp	r4, r3
    2db4:	d035      	beq.n	2e22 <__aeabi_ddiv+0x9a>
    2db6:	2380      	movs	r3, #128	; 0x80
    2db8:	0f42      	lsrs	r2, r0, #29
    2dba:	041b      	lsls	r3, r3, #16
    2dbc:	00ff      	lsls	r7, r7, #3
    2dbe:	4313      	orrs	r3, r2
    2dc0:	433b      	orrs	r3, r7
    2dc2:	4699      	mov	r9, r3
    2dc4:	4b71      	ldr	r3, [pc, #452]	; (2f8c <__aeabi_ddiv+0x204>)
    2dc6:	2700      	movs	r7, #0
    2dc8:	469c      	mov	ip, r3
    2dca:	2300      	movs	r3, #0
    2dcc:	00c5      	lsls	r5, r0, #3
    2dce:	4464      	add	r4, ip
    2dd0:	9302      	str	r3, [sp, #8]
    2dd2:	0333      	lsls	r3, r6, #12
    2dd4:	0b1b      	lsrs	r3, r3, #12
    2dd6:	469b      	mov	fp, r3
    2dd8:	0073      	lsls	r3, r6, #1
    2dda:	0d5b      	lsrs	r3, r3, #21
    2ddc:	0ff6      	lsrs	r6, r6, #31
    2dde:	4650      	mov	r0, sl
    2de0:	9601      	str	r6, [sp, #4]
    2de2:	2b00      	cmp	r3, #0
    2de4:	d063      	beq.n	2eae <__aeabi_ddiv+0x126>
    2de6:	f240 72ff 	movw	r2, #2047	; 0x7ff
    2dea:	4293      	cmp	r3, r2
    2dec:	d055      	beq.n	2e9a <__aeabi_ddiv+0x112>
    2dee:	465a      	mov	r2, fp
    2df0:	00d1      	lsls	r1, r2, #3
    2df2:	2280      	movs	r2, #128	; 0x80
    2df4:	0f40      	lsrs	r0, r0, #29
    2df6:	0412      	lsls	r2, r2, #16
    2df8:	4302      	orrs	r2, r0
    2dfa:	430a      	orrs	r2, r1
    2dfc:	4963      	ldr	r1, [pc, #396]	; (2f8c <__aeabi_ddiv+0x204>)
    2dfe:	4693      	mov	fp, r2
    2e00:	4652      	mov	r2, sl
    2e02:	1858      	adds	r0, r3, r1
    2e04:	2100      	movs	r1, #0
    2e06:	00d2      	lsls	r2, r2, #3
    2e08:	4643      	mov	r3, r8
    2e0a:	1a20      	subs	r0, r4, r0
    2e0c:	4073      	eors	r3, r6
    2e0e:	469c      	mov	ip, r3
    2e10:	9000      	str	r0, [sp, #0]
    2e12:	430f      	orrs	r7, r1
    2e14:	2f0f      	cmp	r7, #15
    2e16:	d900      	bls.n	2e1a <__aeabi_ddiv+0x92>
    2e18:	e0be      	b.n	2f98 <__aeabi_ddiv+0x210>
    2e1a:	485d      	ldr	r0, [pc, #372]	; (2f90 <__aeabi_ddiv+0x208>)
    2e1c:	00bf      	lsls	r7, r7, #2
    2e1e:	59c0      	ldr	r0, [r0, r7]
    2e20:	4687      	mov	pc, r0
    2e22:	0003      	movs	r3, r0
    2e24:	433b      	orrs	r3, r7
    2e26:	4699      	mov	r9, r3
    2e28:	2b00      	cmp	r3, #0
    2e2a:	d175      	bne.n	2f18 <__aeabi_ddiv+0x190>
    2e2c:	2302      	movs	r3, #2
    2e2e:	2500      	movs	r5, #0
    2e30:	2708      	movs	r7, #8
    2e32:	f240 74ff 	movw	r4, #2047	; 0x7ff
    2e36:	9302      	str	r3, [sp, #8]
    2e38:	e7cb      	b.n	2dd2 <__aeabi_ddiv+0x4a>
    2e3a:	4643      	mov	r3, r8
    2e3c:	46cb      	mov	fp, r9
    2e3e:	002a      	movs	r2, r5
    2e40:	9902      	ldr	r1, [sp, #8]
    2e42:	9301      	str	r3, [sp, #4]
    2e44:	2902      	cmp	r1, #2
    2e46:	d000      	beq.n	2e4a <__aeabi_ddiv+0xc2>
    2e48:	e1bd      	b.n	31c6 <__aeabi_ddiv+0x43e>
    2e4a:	9b01      	ldr	r3, [sp, #4]
    2e4c:	f240 76ff 	movw	r6, #2047	; 0x7ff
    2e50:	2400      	movs	r4, #0
    2e52:	2500      	movs	r5, #0
    2e54:	e06d      	b.n	2f32 <__aeabi_ddiv+0x1aa>
    2e56:	0003      	movs	r3, r0
    2e58:	433b      	orrs	r3, r7
    2e5a:	4699      	mov	r9, r3
    2e5c:	2b00      	cmp	r3, #0
    2e5e:	d055      	beq.n	2f0c <__aeabi_ddiv+0x184>
    2e60:	2f00      	cmp	r7, #0
    2e62:	d100      	bne.n	2e66 <__aeabi_ddiv+0xde>
    2e64:	e1c8      	b.n	31f8 <__aeabi_ddiv+0x470>
    2e66:	0038      	movs	r0, r7
    2e68:	f001 fa28 	bl	42bc <__clzsi2>
    2e6c:	0003      	movs	r3, r0
    2e6e:	3b0b      	subs	r3, #11
    2e70:	2b1c      	cmp	r3, #28
    2e72:	dd00      	ble.n	2e76 <__aeabi_ddiv+0xee>
    2e74:	e1b9      	b.n	31ea <__aeabi_ddiv+0x462>
    2e76:	221d      	movs	r2, #29
    2e78:	1ad3      	subs	r3, r2, r3
    2e7a:	465a      	mov	r2, fp
    2e7c:	0001      	movs	r1, r0
    2e7e:	40da      	lsrs	r2, r3
    2e80:	3908      	subs	r1, #8
    2e82:	408f      	lsls	r7, r1
    2e84:	0013      	movs	r3, r2
    2e86:	465d      	mov	r5, fp
    2e88:	433b      	orrs	r3, r7
    2e8a:	4699      	mov	r9, r3
    2e8c:	408d      	lsls	r5, r1
    2e8e:	2300      	movs	r3, #0
    2e90:	4c40      	ldr	r4, [pc, #256]	; (2f94 <__aeabi_ddiv+0x20c>)
    2e92:	2700      	movs	r7, #0
    2e94:	1a24      	subs	r4, r4, r0
    2e96:	9302      	str	r3, [sp, #8]
    2e98:	e79b      	b.n	2dd2 <__aeabi_ddiv+0x4a>
    2e9a:	4652      	mov	r2, sl
    2e9c:	465b      	mov	r3, fp
    2e9e:	431a      	orrs	r2, r3
    2ea0:	bb7a      	cbnz	r2, 2f02 <__aeabi_ddiv+0x17a>
    2ea2:	f240 0b00 	movw	fp, #0
    2ea6:	f240 70ff 	movw	r0, #2047	; 0x7ff
    2eaa:	2102      	movs	r1, #2
    2eac:	e7ac      	b.n	2e08 <__aeabi_ddiv+0x80>
    2eae:	465a      	mov	r2, fp
    2eb0:	4302      	orrs	r2, r0
    2eb2:	b30a      	cbz	r2, 2ef8 <__aeabi_ddiv+0x170>
    2eb4:	465b      	mov	r3, fp
    2eb6:	2b00      	cmp	r3, #0
    2eb8:	d100      	bne.n	2ebc <__aeabi_ddiv+0x134>
    2eba:	e1a8      	b.n	320e <__aeabi_ddiv+0x486>
    2ebc:	4658      	mov	r0, fp
    2ebe:	f001 f9fd 	bl	42bc <__clzsi2>
    2ec2:	0003      	movs	r3, r0
    2ec4:	3b0b      	subs	r3, #11
    2ec6:	2b1c      	cmp	r3, #28
    2ec8:	dd00      	ble.n	2ecc <__aeabi_ddiv+0x144>
    2eca:	e199      	b.n	3200 <__aeabi_ddiv+0x478>
    2ecc:	0002      	movs	r2, r0
    2ece:	4659      	mov	r1, fp
    2ed0:	3a08      	subs	r2, #8
    2ed2:	4091      	lsls	r1, r2
    2ed4:	f240 0c1d 	movw	ip, #29
    2ed8:	468b      	mov	fp, r1
    2eda:	4661      	mov	r1, ip
    2edc:	1acb      	subs	r3, r1, r3
    2ede:	4651      	mov	r1, sl
    2ee0:	40d9      	lsrs	r1, r3
    2ee2:	000b      	movs	r3, r1
    2ee4:	4659      	mov	r1, fp
    2ee6:	430b      	orrs	r3, r1
    2ee8:	469b      	mov	fp, r3
    2eea:	4653      	mov	r3, sl
    2eec:	4093      	lsls	r3, r2
    2eee:	001a      	movs	r2, r3
    2ef0:	4b28      	ldr	r3, [pc, #160]	; (2f94 <__aeabi_ddiv+0x20c>)
    2ef2:	2100      	movs	r1, #0
    2ef4:	1a18      	subs	r0, r3, r0
    2ef6:	e787      	b.n	2e08 <__aeabi_ddiv+0x80>
    2ef8:	f240 0b00 	movw	fp, #0
    2efc:	2000      	movs	r0, #0
    2efe:	2101      	movs	r1, #1
    2f00:	e782      	b.n	2e08 <__aeabi_ddiv+0x80>
    2f02:	4652      	mov	r2, sl
    2f04:	f240 70ff 	movw	r0, #2047	; 0x7ff
    2f08:	2103      	movs	r1, #3
    2f0a:	e77d      	b.n	2e08 <__aeabi_ddiv+0x80>
    2f0c:	2301      	movs	r3, #1
    2f0e:	2500      	movs	r5, #0
    2f10:	2704      	movs	r7, #4
    2f12:	2400      	movs	r4, #0
    2f14:	9302      	str	r3, [sp, #8]
    2f16:	e75c      	b.n	2dd2 <__aeabi_ddiv+0x4a>
    2f18:	2303      	movs	r3, #3
    2f1a:	46b9      	mov	r9, r7
    2f1c:	f240 74ff 	movw	r4, #2047	; 0x7ff
    2f20:	270c      	movs	r7, #12
    2f22:	9302      	str	r3, [sp, #8]
    2f24:	e755      	b.n	2dd2 <__aeabi_ddiv+0x4a>
    2f26:	2480      	movs	r4, #128	; 0x80
    2f28:	2300      	movs	r3, #0
    2f2a:	2500      	movs	r5, #0
    2f2c:	0324      	lsls	r4, r4, #12
    2f2e:	f240 76ff 	movw	r6, #2047	; 0x7ff
    2f32:	2100      	movs	r1, #0
    2f34:	0028      	movs	r0, r5
    2f36:	f64f 75ff 	movw	r5, #65535	; 0xffff
    2f3a:	0324      	lsls	r4, r4, #12
    2f3c:	0b22      	lsrs	r2, r4, #12
    2f3e:	0d0c      	lsrs	r4, r1, #20
    2f40:	0524      	lsls	r4, r4, #20
    2f42:	4314      	orrs	r4, r2
    2f44:	f2c8 050f 	movt	r5, #32783	; 0x800f
    2f48:	0532      	lsls	r2, r6, #20
    2f4a:	402c      	ands	r4, r5
    2f4c:	4322      	orrs	r2, r4
    2f4e:	0052      	lsls	r2, r2, #1
    2f50:	07db      	lsls	r3, r3, #31
    2f52:	0852      	lsrs	r2, r2, #1
    2f54:	431a      	orrs	r2, r3
    2f56:	0011      	movs	r1, r2
    2f58:	b005      	add	sp, #20
    2f5a:	bc3c      	pop	{r2, r3, r4, r5}
    2f5c:	4690      	mov	r8, r2
    2f5e:	4699      	mov	r9, r3
    2f60:	46a2      	mov	sl, r4
    2f62:	46ab      	mov	fp, r5
    2f64:	bdf0      	pop	{r4, r5, r6, r7, pc}
    2f66:	2201      	movs	r2, #1
    2f68:	4252      	negs	r2, r2
    2f6a:	2301      	movs	r3, #1
    2f6c:	1b99      	subs	r1, r3, r6
    2f6e:	2938      	cmp	r1, #56	; 0x38
    2f70:	dc00      	bgt.n	2f74 <__aeabi_ddiv+0x1ec>
    2f72:	e1bc      	b.n	32ee <__aeabi_ddiv+0x566>
    2f74:	4662      	mov	r2, ip
    2f76:	4013      	ands	r3, r2
    2f78:	2600      	movs	r6, #0
    2f7a:	2400      	movs	r4, #0
    2f7c:	2500      	movs	r5, #0
    2f7e:	e7d8      	b.n	2f32 <__aeabi_ddiv+0x1aa>
    2f80:	f240 76ff 	movw	r6, #2047	; 0x7ff
    2f84:	2400      	movs	r4, #0
    2f86:	2500      	movs	r5, #0
    2f88:	e7d3      	b.n	2f32 <__aeabi_ddiv+0x1aa>
    2f8a:	46c0      	nop			; (mov r8, r8)
    2f8c:	fffffc01 	.word	0xfffffc01
    2f90:	00004508 	.word	0x00004508
    2f94:	fffffc0d 	.word	0xfffffc0d
    2f98:	45d9      	cmp	r9, fp
    2f9a:	d900      	bls.n	2f9e <__aeabi_ddiv+0x216>
    2f9c:	e13e      	b.n	321c <__aeabi_ddiv+0x494>
    2f9e:	d100      	bne.n	2fa2 <__aeabi_ddiv+0x21a>
    2fa0:	e139      	b.n	3216 <__aeabi_ddiv+0x48e>
    2fa2:	9b00      	ldr	r3, [sp, #0]
    2fa4:	002f      	movs	r7, r5
    2fa6:	3b01      	subs	r3, #1
    2fa8:	9300      	str	r3, [sp, #0]
    2faa:	2500      	movs	r5, #0
    2fac:	464b      	mov	r3, r9
    2fae:	4659      	mov	r1, fp
    2fb0:	0e10      	lsrs	r0, r2, #24
    2fb2:	0209      	lsls	r1, r1, #8
    2fb4:	4301      	orrs	r1, r0
    2fb6:	0c08      	lsrs	r0, r1, #16
    2fb8:	0216      	lsls	r6, r2, #8
    2fba:	f64f 72ff 	movw	r2, #65535	; 0xffff
    2fbe:	fbb3 f8f0 	udiv	r8, r3, r0
    2fc2:	400a      	ands	r2, r1
    2fc4:	0014      	movs	r4, r2
    2fc6:	9201      	str	r2, [sp, #4]
    2fc8:	4642      	mov	r2, r8
    2fca:	4362      	muls	r2, r4
    2fcc:	4644      	mov	r4, r8
    2fce:	4344      	muls	r4, r0
    2fd0:	1b1b      	subs	r3, r3, r4
    2fd2:	041b      	lsls	r3, r3, #16
    2fd4:	4699      	mov	r9, r3
    2fd6:	464c      	mov	r4, r9
    2fd8:	0c3b      	lsrs	r3, r7, #16
    2fda:	4323      	orrs	r3, r4
    2fdc:	429a      	cmp	r2, r3
    2fde:	d90f      	bls.n	3000 <__aeabi_ddiv+0x278>
    2fe0:	2401      	movs	r4, #1
    2fe2:	4264      	negs	r4, r4
    2fe4:	4444      	add	r4, r8
    2fe6:	185b      	adds	r3, r3, r1
    2fe8:	46a1      	mov	r9, r4
    2fea:	4299      	cmp	r1, r3
    2fec:	d900      	bls.n	2ff0 <__aeabi_ddiv+0x268>
    2fee:	e13d      	b.n	326c <__aeabi_ddiv+0x4e4>
    2ff0:	429a      	cmp	r2, r3
    2ff2:	d800      	bhi.n	2ff6 <__aeabi_ddiv+0x26e>
    2ff4:	e13a      	b.n	326c <__aeabi_ddiv+0x4e4>
    2ff6:	2402      	movs	r4, #2
    2ff8:	4264      	negs	r4, r4
    2ffa:	46a1      	mov	r9, r4
    2ffc:	185b      	adds	r3, r3, r1
    2ffe:	44c8      	add	r8, r9
    3000:	1a9b      	subs	r3, r3, r2
    3002:	fbb3 fbf0 	udiv	fp, r3, r0
    3006:	465a      	mov	r2, fp
    3008:	9c01      	ldr	r4, [sp, #4]
    300a:	f64f 7aff 	movw	sl, #65535	; 0xffff
    300e:	4362      	muls	r2, r4
    3010:	465c      	mov	r4, fp
    3012:	4344      	muls	r4, r0
    3014:	1b1b      	subs	r3, r3, r4
    3016:	4654      	mov	r4, sl
    3018:	041b      	lsls	r3, r3, #16
    301a:	403c      	ands	r4, r7
    301c:	4323      	orrs	r3, r4
    301e:	429a      	cmp	r2, r3
    3020:	d90d      	bls.n	303e <__aeabi_ddiv+0x2b6>
    3022:	465c      	mov	r4, fp
    3024:	185b      	adds	r3, r3, r1
    3026:	1e67      	subs	r7, r4, #1
    3028:	4299      	cmp	r1, r3
    302a:	d900      	bls.n	302e <__aeabi_ddiv+0x2a6>
    302c:	e120      	b.n	3270 <__aeabi_ddiv+0x4e8>
    302e:	429a      	cmp	r2, r3
    3030:	d800      	bhi.n	3034 <__aeabi_ddiv+0x2ac>
    3032:	e11d      	b.n	3270 <__aeabi_ddiv+0x4e8>
    3034:	2402      	movs	r4, #2
    3036:	4264      	negs	r4, r4
    3038:	46a1      	mov	r9, r4
    303a:	185b      	adds	r3, r3, r1
    303c:	44cb      	add	fp, r9
    303e:	1a9a      	subs	r2, r3, r2
    3040:	4643      	mov	r3, r8
    3042:	465c      	mov	r4, fp
    3044:	f64f 78ff 	movw	r8, #65535	; 0xffff
    3048:	041b      	lsls	r3, r3, #16
    304a:	431c      	orrs	r4, r3
    304c:	0c33      	lsrs	r3, r6, #16
    304e:	469a      	mov	sl, r3
    3050:	4643      	mov	r3, r8
    3052:	0c27      	lsrs	r7, r4, #16
    3054:	4023      	ands	r3, r4
    3056:	46a3      	mov	fp, r4
    3058:	4644      	mov	r4, r8
    305a:	4034      	ands	r4, r6
    305c:	9403      	str	r4, [sp, #12]
    305e:	435c      	muls	r4, r3
    3060:	9402      	str	r4, [sp, #8]
    3062:	9c03      	ldr	r4, [sp, #12]
    3064:	437c      	muls	r4, r7
    3066:	46a1      	mov	r9, r4
    3068:	4654      	mov	r4, sl
    306a:	4363      	muls	r3, r4
    306c:	4367      	muls	r7, r4
    306e:	9c02      	ldr	r4, [sp, #8]
    3070:	444b      	add	r3, r9
    3072:	0c24      	lsrs	r4, r4, #16
    3074:	46a0      	mov	r8, r4
    3076:	4443      	add	r3, r8
    3078:	4599      	cmp	r9, r3
    307a:	d903      	bls.n	3084 <__aeabi_ddiv+0x2fc>
    307c:	2480      	movs	r4, #128	; 0x80
    307e:	0264      	lsls	r4, r4, #9
    3080:	46a0      	mov	r8, r4
    3082:	4447      	add	r7, r8
    3084:	0c1c      	lsrs	r4, r3, #16
    3086:	46a1      	mov	r9, r4
    3088:	44b9      	add	r9, r7
    308a:	f64f 77ff 	movw	r7, #65535	; 0xffff
    308e:	9c02      	ldr	r4, [sp, #8]
    3090:	041b      	lsls	r3, r3, #16
    3092:	4027      	ands	r7, r4
    3094:	19db      	adds	r3, r3, r7
    3096:	454a      	cmp	r2, r9
    3098:	d200      	bcs.n	309c <__aeabi_ddiv+0x314>
    309a:	e0cb      	b.n	3234 <__aeabi_ddiv+0x4ac>
    309c:	d100      	bne.n	30a0 <__aeabi_ddiv+0x318>
    309e:	e0c5      	b.n	322c <__aeabi_ddiv+0x4a4>
    30a0:	464c      	mov	r4, r9
    30a2:	1b17      	subs	r7, r2, r4
    30a4:	1aeb      	subs	r3, r5, r3
    30a6:	429d      	cmp	r5, r3
    30a8:	41ad      	sbcs	r5, r5
    30aa:	426d      	negs	r5, r5
    30ac:	1b7f      	subs	r7, r7, r5
    30ae:	42b9      	cmp	r1, r7
    30b0:	d100      	bne.n	30b4 <__aeabi_ddiv+0x32c>
    30b2:	e107      	b.n	32c4 <__aeabi_ddiv+0x53c>
    30b4:	fbb7 f2f0 	udiv	r2, r7, r0
    30b8:	0004      	movs	r4, r0
    30ba:	9d01      	ldr	r5, [sp, #4]
    30bc:	4354      	muls	r4, r2
    30be:	4355      	muls	r5, r2
    30c0:	1b3f      	subs	r7, r7, r4
    30c2:	043f      	lsls	r7, r7, #16
    30c4:	0c1c      	lsrs	r4, r3, #16
    30c6:	4327      	orrs	r7, r4
    30c8:	42bd      	cmp	r5, r7
    30ca:	d90a      	bls.n	30e2 <__aeabi_ddiv+0x35a>
    30cc:	1e54      	subs	r4, r2, #1
    30ce:	187f      	adds	r7, r7, r1
    30d0:	46a0      	mov	r8, r4
    30d2:	42b9      	cmp	r1, r7
    30d4:	d900      	bls.n	30d8 <__aeabi_ddiv+0x350>
    30d6:	e0ff      	b.n	32d8 <__aeabi_ddiv+0x550>
    30d8:	42bd      	cmp	r5, r7
    30da:	d800      	bhi.n	30de <__aeabi_ddiv+0x356>
    30dc:	e0fc      	b.n	32d8 <__aeabi_ddiv+0x550>
    30de:	3a02      	subs	r2, #2
    30e0:	187f      	adds	r7, r7, r1
    30e2:	1b7f      	subs	r7, r7, r5
    30e4:	fbb7 f5f0 	udiv	r5, r7, r0
    30e8:	4368      	muls	r0, r5
    30ea:	1a3f      	subs	r7, r7, r0
    30ec:	f64f 70ff 	movw	r0, #65535	; 0xffff
    30f0:	9c01      	ldr	r4, [sp, #4]
    30f2:	043f      	lsls	r7, r7, #16
    30f4:	436c      	muls	r4, r5
    30f6:	4003      	ands	r3, r0
    30f8:	46a0      	mov	r8, r4
    30fa:	433b      	orrs	r3, r7
    30fc:	429c      	cmp	r4, r3
    30fe:	d909      	bls.n	3114 <__aeabi_ddiv+0x38c>
    3100:	185b      	adds	r3, r3, r1
    3102:	1e68      	subs	r0, r5, #1
    3104:	4299      	cmp	r1, r3
    3106:	d900      	bls.n	310a <__aeabi_ddiv+0x382>
    3108:	e0e8      	b.n	32dc <__aeabi_ddiv+0x554>
    310a:	429c      	cmp	r4, r3
    310c:	d800      	bhi.n	3110 <__aeabi_ddiv+0x388>
    310e:	e0e5      	b.n	32dc <__aeabi_ddiv+0x554>
    3110:	3d02      	subs	r5, #2
    3112:	185b      	adds	r3, r3, r1
    3114:	4640      	mov	r0, r8
    3116:	0412      	lsls	r2, r2, #16
    3118:	432a      	orrs	r2, r5
    311a:	9c03      	ldr	r4, [sp, #12]
    311c:	0c15      	lsrs	r5, r2, #16
    311e:	1a1b      	subs	r3, r3, r0
    3120:	f64f 70ff 	movw	r0, #65535	; 0xffff
    3124:	0027      	movs	r7, r4
    3126:	436c      	muls	r4, r5
    3128:	46a0      	mov	r8, r4
    312a:	4654      	mov	r4, sl
    312c:	4010      	ands	r0, r2
    312e:	4347      	muls	r7, r0
    3130:	4365      	muls	r5, r4
    3132:	4360      	muls	r0, r4
    3134:	0c3c      	lsrs	r4, r7, #16
    3136:	46a1      	mov	r9, r4
    3138:	4440      	add	r0, r8
    313a:	4448      	add	r0, r9
    313c:	4580      	cmp	r8, r0
    313e:	d903      	bls.n	3148 <__aeabi_ddiv+0x3c0>
    3140:	2480      	movs	r4, #128	; 0x80
    3142:	0264      	lsls	r4, r4, #9
    3144:	46a0      	mov	r8, r4
    3146:	4445      	add	r5, r8
    3148:	0c04      	lsrs	r4, r0, #16
    314a:	46a0      	mov	r8, r4
    314c:	4445      	add	r5, r8
    314e:	f64f 78ff 	movw	r8, #65535	; 0xffff
    3152:	4644      	mov	r4, r8
    3154:	0400      	lsls	r0, r0, #16
    3156:	403c      	ands	r4, r7
    3158:	1900      	adds	r0, r0, r4
    315a:	42ab      	cmp	r3, r5
    315c:	d200      	bcs.n	3160 <__aeabi_ddiv+0x3d8>
    315e:	e099      	b.n	3294 <__aeabi_ddiv+0x50c>
    3160:	d100      	bne.n	3164 <__aeabi_ddiv+0x3dc>
    3162:	e094      	b.n	328e <__aeabi_ddiv+0x506>
    3164:	2301      	movs	r3, #1
    3166:	431a      	orrs	r2, r3
    3168:	f240 33ff 	movw	r3, #1023	; 0x3ff
    316c:	9900      	ldr	r1, [sp, #0]
    316e:	18ce      	adds	r6, r1, r3
    3170:	2e00      	cmp	r6, #0
    3172:	dc00      	bgt.n	3176 <__aeabi_ddiv+0x3ee>
    3174:	e6f9      	b.n	2f6a <__aeabi_ddiv+0x1e2>
    3176:	0753      	lsls	r3, r2, #29
    3178:	d000      	beq.n	317c <__aeabi_ddiv+0x3f4>
    317a:	e097      	b.n	32ac <__aeabi_ddiv+0x524>
    317c:	465b      	mov	r3, fp
    317e:	01db      	lsls	r3, r3, #7
    3180:	d507      	bpl.n	3192 <__aeabi_ddiv+0x40a>
    3182:	4659      	mov	r1, fp
    3184:	4b93      	ldr	r3, [pc, #588]	; (33d4 <__aeabi_ddiv+0x64c>)
    3186:	4019      	ands	r1, r3
    3188:	f240 4300 	movw	r3, #1024	; 0x400
    318c:	468b      	mov	fp, r1
    318e:	9900      	ldr	r1, [sp, #0]
    3190:	18ce      	adds	r6, r1, r3
    3192:	f240 73fe 	movw	r3, #2046	; 0x7fe
    3196:	429e      	cmp	r6, r3
    3198:	dd6c      	ble.n	3274 <__aeabi_ddiv+0x4ec>
    319a:	2301      	movs	r3, #1
    319c:	4662      	mov	r2, ip
    319e:	f240 76ff 	movw	r6, #2047	; 0x7ff
    31a2:	4013      	ands	r3, r2
    31a4:	2400      	movs	r4, #0
    31a6:	2500      	movs	r5, #0
    31a8:	e6c3      	b.n	2f32 <__aeabi_ddiv+0x1aa>
    31aa:	2480      	movs	r4, #128	; 0x80
    31ac:	464b      	mov	r3, r9
    31ae:	0324      	lsls	r4, r4, #12
    31b0:	4223      	tst	r3, r4
    31b2:	d015      	beq.n	31e0 <__aeabi_ddiv+0x458>
    31b4:	465b      	mov	r3, fp
    31b6:	4223      	tst	r3, r4
    31b8:	d111      	bne.n	31de <__aeabi_ddiv+0x456>
    31ba:	431c      	orrs	r4, r3
    31bc:	0324      	lsls	r4, r4, #12
    31be:	0b24      	lsrs	r4, r4, #12
    31c0:	0033      	movs	r3, r6
    31c2:	0015      	movs	r5, r2
    31c4:	e6b3      	b.n	2f2e <__aeabi_ddiv+0x1a6>
    31c6:	2903      	cmp	r1, #3
    31c8:	d100      	bne.n	31cc <__aeabi_ddiv+0x444>
    31ca:	e0f9      	b.n	33c0 <__aeabi_ddiv+0x638>
    31cc:	9b01      	ldr	r3, [sp, #4]
    31ce:	2901      	cmp	r1, #1
    31d0:	d000      	beq.n	31d4 <__aeabi_ddiv+0x44c>
    31d2:	e08a      	b.n	32ea <__aeabi_ddiv+0x562>
    31d4:	400b      	ands	r3, r1
    31d6:	2600      	movs	r6, #0
    31d8:	2400      	movs	r4, #0
    31da:	2500      	movs	r5, #0
    31dc:	e6a9      	b.n	2f32 <__aeabi_ddiv+0x1aa>
    31de:	464b      	mov	r3, r9
    31e0:	431c      	orrs	r4, r3
    31e2:	0324      	lsls	r4, r4, #12
    31e4:	0b24      	lsrs	r4, r4, #12
    31e6:	4643      	mov	r3, r8
    31e8:	e6a1      	b.n	2f2e <__aeabi_ddiv+0x1a6>
    31ea:	0003      	movs	r3, r0
    31ec:	465a      	mov	r2, fp
    31ee:	3b28      	subs	r3, #40	; 0x28
    31f0:	409a      	lsls	r2, r3
    31f2:	2500      	movs	r5, #0
    31f4:	4691      	mov	r9, r2
    31f6:	e64a      	b.n	2e8e <__aeabi_ddiv+0x106>
    31f8:	f001 f860 	bl	42bc <__clzsi2>
    31fc:	3020      	adds	r0, #32
    31fe:	e635      	b.n	2e6c <__aeabi_ddiv+0xe4>
    3200:	0003      	movs	r3, r0
    3202:	4652      	mov	r2, sl
    3204:	3b28      	subs	r3, #40	; 0x28
    3206:	409a      	lsls	r2, r3
    3208:	4693      	mov	fp, r2
    320a:	2200      	movs	r2, #0
    320c:	e670      	b.n	2ef0 <__aeabi_ddiv+0x168>
    320e:	f001 f855 	bl	42bc <__clzsi2>
    3212:	3020      	adds	r0, #32
    3214:	e655      	b.n	2ec2 <__aeabi_ddiv+0x13a>
    3216:	4295      	cmp	r5, r2
    3218:	d200      	bcs.n	321c <__aeabi_ddiv+0x494>
    321a:	e6c2      	b.n	2fa2 <__aeabi_ddiv+0x21a>
    321c:	4649      	mov	r1, r9
    321e:	464b      	mov	r3, r9
    3220:	07cf      	lsls	r7, r1, #31
    3222:	0869      	lsrs	r1, r5, #1
    3224:	085b      	lsrs	r3, r3, #1
    3226:	430f      	orrs	r7, r1
    3228:	07ed      	lsls	r5, r5, #31
    322a:	e6c0      	b.n	2fae <__aeabi_ddiv+0x226>
    322c:	2700      	movs	r7, #0
    322e:	429d      	cmp	r5, r3
    3230:	d300      	bcc.n	3234 <__aeabi_ddiv+0x4ac>
    3232:	e737      	b.n	30a4 <__aeabi_ddiv+0x31c>
    3234:	19ad      	adds	r5, r5, r6
    3236:	42b5      	cmp	r5, r6
    3238:	41bf      	sbcs	r7, r7
    323a:	2401      	movs	r4, #1
    323c:	427f      	negs	r7, r7
    323e:	4264      	negs	r4, r4
    3240:	187f      	adds	r7, r7, r1
    3242:	445c      	add	r4, fp
    3244:	18ba      	adds	r2, r7, r2
    3246:	46a0      	mov	r8, r4
    3248:	4291      	cmp	r1, r2
    324a:	d207      	bcs.n	325c <__aeabi_ddiv+0x4d4>
    324c:	4591      	cmp	r9, r2
    324e:	d872      	bhi.n	3336 <__aeabi_ddiv+0x5ae>
    3250:	d100      	bne.n	3254 <__aeabi_ddiv+0x4cc>
    3252:	e0aa      	b.n	33aa <__aeabi_ddiv+0x622>
    3254:	464c      	mov	r4, r9
    3256:	46c3      	mov	fp, r8
    3258:	1b17      	subs	r7, r2, r4
    325a:	e723      	b.n	30a4 <__aeabi_ddiv+0x31c>
    325c:	4291      	cmp	r1, r2
    325e:	d1f9      	bne.n	3254 <__aeabi_ddiv+0x4cc>
    3260:	42ae      	cmp	r6, r5
    3262:	d9f3      	bls.n	324c <__aeabi_ddiv+0x4c4>
    3264:	464a      	mov	r2, r9
    3266:	46a3      	mov	fp, r4
    3268:	1a8f      	subs	r7, r1, r2
    326a:	e71b      	b.n	30a4 <__aeabi_ddiv+0x31c>
    326c:	46c8      	mov	r8, r9
    326e:	e6c7      	b.n	3000 <__aeabi_ddiv+0x278>
    3270:	46bb      	mov	fp, r7
    3272:	e6e4      	b.n	303e <__aeabi_ddiv+0x2b6>
    3274:	465b      	mov	r3, fp
    3276:	08d2      	lsrs	r2, r2, #3
    3278:	075d      	lsls	r5, r3, #29
    327a:	4315      	orrs	r5, r2
    327c:	f240 72ff 	movw	r2, #2047	; 0x7ff
    3280:	025c      	lsls	r4, r3, #9
    3282:	4016      	ands	r6, r2
    3284:	2301      	movs	r3, #1
    3286:	4662      	mov	r2, ip
    3288:	0b24      	lsrs	r4, r4, #12
    328a:	4013      	ands	r3, r2
    328c:	e651      	b.n	2f32 <__aeabi_ddiv+0x1aa>
    328e:	2800      	cmp	r0, #0
    3290:	d100      	bne.n	3294 <__aeabi_ddiv+0x50c>
    3292:	e769      	b.n	3168 <__aeabi_ddiv+0x3e0>
    3294:	18cb      	adds	r3, r1, r3
    3296:	1e57      	subs	r7, r2, #1
    3298:	4299      	cmp	r1, r3
    329a:	d921      	bls.n	32e0 <__aeabi_ddiv+0x558>
    329c:	003a      	movs	r2, r7
    329e:	42ab      	cmp	r3, r5
    32a0:	d000      	beq.n	32a4 <__aeabi_ddiv+0x51c>
    32a2:	e75f      	b.n	3164 <__aeabi_ddiv+0x3dc>
    32a4:	42b0      	cmp	r0, r6
    32a6:	d000      	beq.n	32aa <__aeabi_ddiv+0x522>
    32a8:	e75c      	b.n	3164 <__aeabi_ddiv+0x3dc>
    32aa:	e75d      	b.n	3168 <__aeabi_ddiv+0x3e0>
    32ac:	230f      	movs	r3, #15
    32ae:	4013      	ands	r3, r2
    32b0:	2b04      	cmp	r3, #4
    32b2:	d100      	bne.n	32b6 <__aeabi_ddiv+0x52e>
    32b4:	e762      	b.n	317c <__aeabi_ddiv+0x3f4>
    32b6:	0013      	movs	r3, r2
    32b8:	1d1a      	adds	r2, r3, #4
    32ba:	429a      	cmp	r2, r3
    32bc:	419b      	sbcs	r3, r3
    32be:	425b      	negs	r3, r3
    32c0:	449b      	add	fp, r3
    32c2:	e75b      	b.n	317c <__aeabi_ddiv+0x3f4>
    32c4:	f240 33ff 	movw	r3, #1023	; 0x3ff
    32c8:	9a00      	ldr	r2, [sp, #0]
    32ca:	18d6      	adds	r6, r2, r3
    32cc:	2e00      	cmp	r6, #0
    32ce:	dc00      	bgt.n	32d2 <__aeabi_ddiv+0x54a>
    32d0:	e649      	b.n	2f66 <__aeabi_ddiv+0x1de>
    32d2:	2301      	movs	r3, #1
    32d4:	425b      	negs	r3, r3
    32d6:	e7ef      	b.n	32b8 <__aeabi_ddiv+0x530>
    32d8:	4642      	mov	r2, r8
    32da:	e702      	b.n	30e2 <__aeabi_ddiv+0x35a>
    32dc:	0005      	movs	r5, r0
    32de:	e719      	b.n	3114 <__aeabi_ddiv+0x38c>
    32e0:	429d      	cmp	r5, r3
    32e2:	d835      	bhi.n	3350 <__aeabi_ddiv+0x5c8>
    32e4:	d066      	beq.n	33b4 <__aeabi_ddiv+0x62c>
    32e6:	003a      	movs	r2, r7
    32e8:	e73c      	b.n	3164 <__aeabi_ddiv+0x3dc>
    32ea:	469c      	mov	ip, r3
    32ec:	e73c      	b.n	3168 <__aeabi_ddiv+0x3e0>
    32ee:	291f      	cmp	r1, #31
    32f0:	dc37      	bgt.n	3362 <__aeabi_ddiv+0x5da>
    32f2:	2320      	movs	r3, #32
    32f4:	0014      	movs	r4, r2
    32f6:	4658      	mov	r0, fp
    32f8:	1a5b      	subs	r3, r3, r1
    32fa:	409a      	lsls	r2, r3
    32fc:	4098      	lsls	r0, r3
    32fe:	40cc      	lsrs	r4, r1
    3300:	1e53      	subs	r3, r2, #1
    3302:	419a      	sbcs	r2, r3
    3304:	4320      	orrs	r0, r4
    3306:	465c      	mov	r4, fp
    3308:	4310      	orrs	r0, r2
    330a:	40cc      	lsrs	r4, r1
    330c:	0743      	lsls	r3, r0, #29
    330e:	d009      	beq.n	3324 <__aeabi_ddiv+0x59c>
    3310:	230f      	movs	r3, #15
    3312:	4003      	ands	r3, r0
    3314:	2b04      	cmp	r3, #4
    3316:	d005      	beq.n	3324 <__aeabi_ddiv+0x59c>
    3318:	0002      	movs	r2, r0
    331a:	1d10      	adds	r0, r2, #4
    331c:	4290      	cmp	r0, r2
    331e:	419b      	sbcs	r3, r3
    3320:	425b      	negs	r3, r3
    3322:	18e4      	adds	r4, r4, r3
    3324:	0223      	lsls	r3, r4, #8
    3326:	d535      	bpl.n	3394 <__aeabi_ddiv+0x60c>
    3328:	2301      	movs	r3, #1
    332a:	4662      	mov	r2, ip
    332c:	2601      	movs	r6, #1
    332e:	4013      	ands	r3, r2
    3330:	2400      	movs	r4, #0
    3332:	2500      	movs	r5, #0
    3334:	e5fd      	b.n	2f32 <__aeabi_ddiv+0x1aa>
    3336:	19ad      	adds	r5, r5, r6
    3338:	42b5      	cmp	r5, r6
    333a:	41bf      	sbcs	r7, r7
    333c:	2402      	movs	r4, #2
    333e:	427f      	negs	r7, r7
    3340:	4264      	negs	r4, r4
    3342:	187f      	adds	r7, r7, r1
    3344:	18bf      	adds	r7, r7, r2
    3346:	46a0      	mov	r8, r4
    3348:	464a      	mov	r2, r9
    334a:	44c3      	add	fp, r8
    334c:	1abf      	subs	r7, r7, r2
    334e:	e6a9      	b.n	30a4 <__aeabi_ddiv+0x31c>
    3350:	1e97      	subs	r7, r2, #2
    3352:	0072      	lsls	r2, r6, #1
    3354:	42b2      	cmp	r2, r6
    3356:	41b6      	sbcs	r6, r6
    3358:	4276      	negs	r6, r6
    335a:	1871      	adds	r1, r6, r1
    335c:	185b      	adds	r3, r3, r1
    335e:	0016      	movs	r6, r2
    3360:	e79c      	b.n	329c <__aeabi_ddiv+0x514>
    3362:	231f      	movs	r3, #31
    3364:	465d      	mov	r5, fp
    3366:	425b      	negs	r3, r3
    3368:	1b9e      	subs	r6, r3, r6
    336a:	40f5      	lsrs	r5, r6
    336c:	2920      	cmp	r1, #32
    336e:	d025      	beq.n	33bc <__aeabi_ddiv+0x634>
    3370:	335f      	adds	r3, #95	; 0x5f
    3372:	1a59      	subs	r1, r3, r1
    3374:	465b      	mov	r3, fp
    3376:	408b      	lsls	r3, r1
    3378:	431a      	orrs	r2, r3
    337a:	1e53      	subs	r3, r2, #1
    337c:	419a      	sbcs	r2, r3
    337e:	432a      	orrs	r2, r5
    3380:	2507      	movs	r5, #7
    3382:	4015      	ands	r5, r2
    3384:	2400      	movs	r4, #0
    3386:	b14d      	cbz	r5, 339c <__aeabi_ddiv+0x614>
    3388:	230f      	movs	r3, #15
    338a:	2400      	movs	r4, #0
    338c:	4013      	ands	r3, r2
    338e:	0010      	movs	r0, r2
    3390:	2b04      	cmp	r3, #4
    3392:	d1c2      	bne.n	331a <__aeabi_ddiv+0x592>
    3394:	0002      	movs	r2, r0
    3396:	0765      	lsls	r5, r4, #29
    3398:	0264      	lsls	r4, r4, #9
    339a:	0b24      	lsrs	r4, r4, #12
    339c:	08d2      	lsrs	r2, r2, #3
    339e:	4315      	orrs	r5, r2
    33a0:	2301      	movs	r3, #1
    33a2:	4662      	mov	r2, ip
    33a4:	2600      	movs	r6, #0
    33a6:	4013      	ands	r3, r2
    33a8:	e5c3      	b.n	2f32 <__aeabi_ddiv+0x1aa>
    33aa:	42ab      	cmp	r3, r5
    33ac:	d8c3      	bhi.n	3336 <__aeabi_ddiv+0x5ae>
    33ae:	46c3      	mov	fp, r8
    33b0:	2700      	movs	r7, #0
    33b2:	e677      	b.n	30a4 <__aeabi_ddiv+0x31c>
    33b4:	4286      	cmp	r6, r0
    33b6:	d3cb      	bcc.n	3350 <__aeabi_ddiv+0x5c8>
    33b8:	003a      	movs	r2, r7
    33ba:	e773      	b.n	32a4 <__aeabi_ddiv+0x51c>
    33bc:	2300      	movs	r3, #0
    33be:	e7db      	b.n	3378 <__aeabi_ddiv+0x5f0>
    33c0:	2480      	movs	r4, #128	; 0x80
    33c2:	465b      	mov	r3, fp
    33c4:	0324      	lsls	r4, r4, #12
    33c6:	431c      	orrs	r4, r3
    33c8:	0324      	lsls	r4, r4, #12
    33ca:	0b24      	lsrs	r4, r4, #12
    33cc:	9b01      	ldr	r3, [sp, #4]
    33ce:	0015      	movs	r5, r2
    33d0:	e5ad      	b.n	2f2e <__aeabi_ddiv+0x1a6>
    33d2:	46c0      	nop			; (mov r8, r8)
    33d4:	feffffff 	.word	0xfeffffff

000033d8 <__eqdf2>:
    33d8:	b5f0      	push	{r4, r5, r6, r7, lr}
    33da:	464f      	mov	r7, r9
    33dc:	4646      	mov	r6, r8
    33de:	46d6      	mov	lr, sl
    33e0:	005c      	lsls	r4, r3, #1
    33e2:	b5c0      	push	{r6, r7, lr}
    33e4:	031f      	lsls	r7, r3, #12
    33e6:	0fdb      	lsrs	r3, r3, #31
    33e8:	469a      	mov	sl, r3
    33ea:	f240 73ff 	movw	r3, #2047	; 0x7ff
    33ee:	030e      	lsls	r6, r1, #12
    33f0:	004d      	lsls	r5, r1, #1
    33f2:	4684      	mov	ip, r0
    33f4:	4680      	mov	r8, r0
    33f6:	0b36      	lsrs	r6, r6, #12
    33f8:	0d6d      	lsrs	r5, r5, #21
    33fa:	0fc9      	lsrs	r1, r1, #31
    33fc:	4691      	mov	r9, r2
    33fe:	0b3f      	lsrs	r7, r7, #12
    3400:	0d64      	lsrs	r4, r4, #21
    3402:	2001      	movs	r0, #1
    3404:	429d      	cmp	r5, r3
    3406:	d008      	beq.n	341a <__eqdf2+0x42>
    3408:	429c      	cmp	r4, r3
    340a:	d001      	beq.n	3410 <__eqdf2+0x38>
    340c:	42a5      	cmp	r5, r4
    340e:	d00d      	beq.n	342c <__eqdf2+0x54>
    3410:	bc1c      	pop	{r2, r3, r4}
    3412:	4690      	mov	r8, r2
    3414:	4699      	mov	r9, r3
    3416:	46a2      	mov	sl, r4
    3418:	bdf0      	pop	{r4, r5, r6, r7, pc}
    341a:	4663      	mov	r3, ip
    341c:	4333      	orrs	r3, r6
    341e:	2b00      	cmp	r3, #0
    3420:	d1f6      	bne.n	3410 <__eqdf2+0x38>
    3422:	42ac      	cmp	r4, r5
    3424:	d1f4      	bne.n	3410 <__eqdf2+0x38>
    3426:	433a      	orrs	r2, r7
    3428:	2a00      	cmp	r2, #0
    342a:	d1f1      	bne.n	3410 <__eqdf2+0x38>
    342c:	2001      	movs	r0, #1
    342e:	42be      	cmp	r6, r7
    3430:	d1ee      	bne.n	3410 <__eqdf2+0x38>
    3432:	45c8      	cmp	r8, r9
    3434:	d1ec      	bne.n	3410 <__eqdf2+0x38>
    3436:	4551      	cmp	r1, sl
    3438:	d007      	beq.n	344a <__eqdf2+0x72>
    343a:	2d00      	cmp	r5, #0
    343c:	d1e8      	bne.n	3410 <__eqdf2+0x38>
    343e:	4663      	mov	r3, ip
    3440:	431e      	orrs	r6, r3
    3442:	0030      	movs	r0, r6
    3444:	1e46      	subs	r6, r0, #1
    3446:	41b0      	sbcs	r0, r6
    3448:	e7e2      	b.n	3410 <__eqdf2+0x38>
    344a:	2000      	movs	r0, #0
    344c:	e7e0      	b.n	3410 <__eqdf2+0x38>
    344e:	46c0      	nop			; (mov r8, r8)

00003450 <__gedf2>:
    3450:	b5f0      	push	{r4, r5, r6, r7, lr}
    3452:	464e      	mov	r6, r9
    3454:	4645      	mov	r5, r8
    3456:	46de      	mov	lr, fp
    3458:	4657      	mov	r7, sl
    345a:	f240 79ff 	movw	r9, #2047	; 0x7ff
    345e:	b5e0      	push	{r5, r6, r7, lr}
    3460:	031f      	lsls	r7, r3, #12
    3462:	0b3d      	lsrs	r5, r7, #12
    3464:	030e      	lsls	r6, r1, #12
    3466:	004c      	lsls	r4, r1, #1
    3468:	46ab      	mov	fp, r5
    346a:	005d      	lsls	r5, r3, #1
    346c:	4684      	mov	ip, r0
    346e:	0b36      	lsrs	r6, r6, #12
    3470:	0d64      	lsrs	r4, r4, #21
    3472:	0fc9      	lsrs	r1, r1, #31
    3474:	4690      	mov	r8, r2
    3476:	0d6d      	lsrs	r5, r5, #21
    3478:	0fdb      	lsrs	r3, r3, #31
    347a:	454c      	cmp	r4, r9
    347c:	d02e      	beq.n	34dc <__gedf2+0x8c>
    347e:	f240 79ff 	movw	r9, #2047	; 0x7ff
    3482:	454d      	cmp	r5, r9
    3484:	d01d      	beq.n	34c2 <__gedf2+0x72>
    3486:	b96c      	cbnz	r4, 34a4 <__gedf2+0x54>
    3488:	4330      	orrs	r0, r6
    348a:	0007      	movs	r7, r0
    348c:	4681      	mov	r9, r0
    348e:	4278      	negs	r0, r7
    3490:	4178      	adcs	r0, r7
    3492:	b2c0      	uxtb	r0, r0
    3494:	b9e5      	cbnz	r5, 34d0 <__gedf2+0x80>
    3496:	465f      	mov	r7, fp
    3498:	433a      	orrs	r2, r7
    349a:	b9ca      	cbnz	r2, 34d0 <__gedf2+0x80>
    349c:	464b      	mov	r3, r9
    349e:	2000      	movs	r0, #0
    34a0:	b14b      	cbz	r3, 34b6 <__gedf2+0x66>
    34a2:	e005      	b.n	34b0 <__gedf2+0x60>
    34a4:	b915      	cbnz	r5, 34ac <__gedf2+0x5c>
    34a6:	4658      	mov	r0, fp
    34a8:	4302      	orrs	r2, r0
    34aa:	b10a      	cbz	r2, 34b0 <__gedf2+0x60>
    34ac:	4299      	cmp	r1, r3
    34ae:	d01a      	beq.n	34e6 <__gedf2+0x96>
    34b0:	4248      	negs	r0, r1
    34b2:	2101      	movs	r1, #1
    34b4:	4308      	orrs	r0, r1
    34b6:	bc3c      	pop	{r2, r3, r4, r5}
    34b8:	4690      	mov	r8, r2
    34ba:	4699      	mov	r9, r3
    34bc:	46a2      	mov	sl, r4
    34be:	46ab      	mov	fp, r5
    34c0:	bdf0      	pop	{r4, r5, r6, r7, pc}
    34c2:	465f      	mov	r7, fp
    34c4:	4317      	orrs	r7, r2
    34c6:	2f00      	cmp	r7, #0
    34c8:	d0dd      	beq.n	3486 <__gedf2+0x36>
    34ca:	2002      	movs	r0, #2
    34cc:	4240      	negs	r0, r0
    34ce:	e7f2      	b.n	34b6 <__gedf2+0x66>
    34d0:	2800      	cmp	r0, #0
    34d2:	d0eb      	beq.n	34ac <__gedf2+0x5c>
    34d4:	2001      	movs	r0, #1
    34d6:	3b01      	subs	r3, #1
    34d8:	4318      	orrs	r0, r3
    34da:	e7ec      	b.n	34b6 <__gedf2+0x66>
    34dc:	0037      	movs	r7, r6
    34de:	4307      	orrs	r7, r0
    34e0:	2f00      	cmp	r7, #0
    34e2:	d0cc      	beq.n	347e <__gedf2+0x2e>
    34e4:	e7f1      	b.n	34ca <__gedf2+0x7a>
    34e6:	42ac      	cmp	r4, r5
    34e8:	dce2      	bgt.n	34b0 <__gedf2+0x60>
    34ea:	da03      	bge.n	34f4 <__gedf2+0xa4>
    34ec:	1e48      	subs	r0, r1, #1
    34ee:	2101      	movs	r1, #1
    34f0:	4308      	orrs	r0, r1
    34f2:	e7e0      	b.n	34b6 <__gedf2+0x66>
    34f4:	455e      	cmp	r6, fp
    34f6:	d8db      	bhi.n	34b0 <__gedf2+0x60>
    34f8:	d006      	beq.n	3508 <__gedf2+0xb8>
    34fa:	2000      	movs	r0, #0
    34fc:	455e      	cmp	r6, fp
    34fe:	d2da      	bcs.n	34b6 <__gedf2+0x66>
    3500:	2301      	movs	r3, #1
    3502:	1e48      	subs	r0, r1, #1
    3504:	4318      	orrs	r0, r3
    3506:	e7d6      	b.n	34b6 <__gedf2+0x66>
    3508:	45c4      	cmp	ip, r8
    350a:	d8d1      	bhi.n	34b0 <__gedf2+0x60>
    350c:	2000      	movs	r0, #0
    350e:	45c4      	cmp	ip, r8
    3510:	d3f6      	bcc.n	3500 <__gedf2+0xb0>
    3512:	e7d0      	b.n	34b6 <__gedf2+0x66>

00003514 <__ledf2>:
    3514:	b5f0      	push	{r4, r5, r6, r7, lr}
    3516:	4657      	mov	r7, sl
    3518:	464e      	mov	r6, r9
    351a:	4645      	mov	r5, r8
    351c:	46de      	mov	lr, fp
    351e:	005c      	lsls	r4, r3, #1
    3520:	b5e0      	push	{r5, r6, r7, lr}
    3522:	031f      	lsls	r7, r3, #12
    3524:	0fdb      	lsrs	r3, r3, #31
    3526:	469a      	mov	sl, r3
    3528:	f240 73ff 	movw	r3, #2047	; 0x7ff
    352c:	030e      	lsls	r6, r1, #12
    352e:	004d      	lsls	r5, r1, #1
    3530:	0fc9      	lsrs	r1, r1, #31
    3532:	4680      	mov	r8, r0
    3534:	0b36      	lsrs	r6, r6, #12
    3536:	0d6d      	lsrs	r5, r5, #21
    3538:	468b      	mov	fp, r1
    353a:	4691      	mov	r9, r2
    353c:	0b3f      	lsrs	r7, r7, #12
    353e:	0d64      	lsrs	r4, r4, #21
    3540:	429d      	cmp	r5, r3
    3542:	d023      	beq.n	358c <__ledf2+0x78>
    3544:	f240 73ff 	movw	r3, #2047	; 0x7ff
    3548:	429c      	cmp	r4, r3
    354a:	d019      	beq.n	3580 <__ledf2+0x6c>
    354c:	b985      	cbnz	r5, 3570 <__ledf2+0x5c>
    354e:	4330      	orrs	r0, r6
    3550:	4243      	negs	r3, r0
    3552:	4143      	adcs	r3, r0
    3554:	b2db      	uxtb	r3, r3
    3556:	b1fc      	cbz	r4, 3598 <__ledf2+0x84>
    3558:	b15b      	cbz	r3, 3572 <__ledf2+0x5e>
    355a:	4653      	mov	r3, sl
    355c:	2001      	movs	r0, #1
    355e:	3b01      	subs	r3, #1
    3560:	4303      	orrs	r3, r0
    3562:	0018      	movs	r0, r3
    3564:	bc3c      	pop	{r2, r3, r4, r5}
    3566:	4690      	mov	r8, r2
    3568:	4699      	mov	r9, r3
    356a:	46a2      	mov	sl, r4
    356c:	46ab      	mov	fp, r5
    356e:	bdf0      	pop	{r4, r5, r6, r7, pc}
    3570:	b1cc      	cbz	r4, 35a6 <__ledf2+0x92>
    3572:	45d3      	cmp	fp, sl
    3574:	d01b      	beq.n	35ae <__ledf2+0x9a>
    3576:	465b      	mov	r3, fp
    3578:	4259      	negs	r1, r3
    357a:	2301      	movs	r3, #1
    357c:	430b      	orrs	r3, r1
    357e:	e7f0      	b.n	3562 <__ledf2+0x4e>
    3580:	0039      	movs	r1, r7
    3582:	4311      	orrs	r1, r2
    3584:	2302      	movs	r3, #2
    3586:	2900      	cmp	r1, #0
    3588:	d1eb      	bne.n	3562 <__ledf2+0x4e>
    358a:	e7df      	b.n	354c <__ledf2+0x38>
    358c:	0031      	movs	r1, r6
    358e:	4301      	orrs	r1, r0
    3590:	2302      	movs	r3, #2
    3592:	2900      	cmp	r1, #0
    3594:	d1e5      	bne.n	3562 <__ledf2+0x4e>
    3596:	e7d5      	b.n	3544 <__ledf2+0x30>
    3598:	433a      	orrs	r2, r7
    359a:	2a00      	cmp	r2, #0
    359c:	d1dc      	bne.n	3558 <__ledf2+0x44>
    359e:	2300      	movs	r3, #0
    35a0:	2800      	cmp	r0, #0
    35a2:	d0de      	beq.n	3562 <__ledf2+0x4e>
    35a4:	e7e7      	b.n	3576 <__ledf2+0x62>
    35a6:	433a      	orrs	r2, r7
    35a8:	2a00      	cmp	r2, #0
    35aa:	d1e2      	bne.n	3572 <__ledf2+0x5e>
    35ac:	e7e3      	b.n	3576 <__ledf2+0x62>
    35ae:	42a5      	cmp	r5, r4
    35b0:	dce1      	bgt.n	3576 <__ledf2+0x62>
    35b2:	db05      	blt.n	35c0 <__ledf2+0xac>
    35b4:	42be      	cmp	r6, r7
    35b6:	d8de      	bhi.n	3576 <__ledf2+0x62>
    35b8:	d007      	beq.n	35ca <__ledf2+0xb6>
    35ba:	2300      	movs	r3, #0
    35bc:	42be      	cmp	r6, r7
    35be:	d2d0      	bcs.n	3562 <__ledf2+0x4e>
    35c0:	4659      	mov	r1, fp
    35c2:	2301      	movs	r3, #1
    35c4:	3901      	subs	r1, #1
    35c6:	430b      	orrs	r3, r1
    35c8:	e7cb      	b.n	3562 <__ledf2+0x4e>
    35ca:	45c8      	cmp	r8, r9
    35cc:	d8d3      	bhi.n	3576 <__ledf2+0x62>
    35ce:	2300      	movs	r3, #0
    35d0:	45c8      	cmp	r8, r9
    35d2:	d3f5      	bcc.n	35c0 <__ledf2+0xac>
    35d4:	e7c5      	b.n	3562 <__ledf2+0x4e>
    35d6:	46c0      	nop			; (mov r8, r8)

000035d8 <__aeabi_dmul>:
    35d8:	b5f0      	push	{r4, r5, r6, r7, lr}
    35da:	464e      	mov	r6, r9
    35dc:	46de      	mov	lr, fp
    35de:	4657      	mov	r7, sl
    35e0:	4645      	mov	r5, r8
    35e2:	b5e0      	push	{r5, r6, r7, lr}
    35e4:	4699      	mov	r9, r3
    35e6:	004e      	lsls	r6, r1, #1
    35e8:	030b      	lsls	r3, r1, #12
    35ea:	0b1b      	lsrs	r3, r3, #12
    35ec:	0d76      	lsrs	r6, r6, #21
    35ee:	b087      	sub	sp, #28
    35f0:	0004      	movs	r4, r0
    35f2:	4692      	mov	sl, r2
    35f4:	469b      	mov	fp, r3
    35f6:	0fcd      	lsrs	r5, r1, #31
    35f8:	2e00      	cmp	r6, #0
    35fa:	d100      	bne.n	35fe <__aeabi_dmul+0x26>
    35fc:	e076      	b.n	36ec <__aeabi_dmul+0x114>
    35fe:	f240 73ff 	movw	r3, #2047	; 0x7ff
    3602:	429e      	cmp	r6, r3
    3604:	d03a      	beq.n	367c <__aeabi_dmul+0xa4>
    3606:	465b      	mov	r3, fp
    3608:	00da      	lsls	r2, r3, #3
    360a:	2380      	movs	r3, #128	; 0x80
    360c:	0f41      	lsrs	r1, r0, #29
    360e:	041b      	lsls	r3, r3, #16
    3610:	430b      	orrs	r3, r1
    3612:	4313      	orrs	r3, r2
    3614:	469b      	mov	fp, r3
    3616:	4b71      	ldr	r3, [pc, #452]	; (37dc <__aeabi_dmul+0x204>)
    3618:	f240 0800 	movw	r8, #0
    361c:	469c      	mov	ip, r3
    361e:	2300      	movs	r3, #0
    3620:	00c7      	lsls	r7, r0, #3
    3622:	4466      	add	r6, ip
    3624:	9302      	str	r3, [sp, #8]
    3626:	464b      	mov	r3, r9
    3628:	005a      	lsls	r2, r3, #1
    362a:	031c      	lsls	r4, r3, #12
    362c:	0d52      	lsrs	r2, r2, #21
    362e:	0fdb      	lsrs	r3, r3, #31
    3630:	4650      	mov	r0, sl
    3632:	0b24      	lsrs	r4, r4, #12
    3634:	4699      	mov	r9, r3
    3636:	2a00      	cmp	r2, #0
    3638:	d100      	bne.n	363c <__aeabi_dmul+0x64>
    363a:	e082      	b.n	3742 <__aeabi_dmul+0x16a>
    363c:	f240 73ff 	movw	r3, #2047	; 0x7ff
    3640:	429a      	cmp	r2, r3
    3642:	d100      	bne.n	3646 <__aeabi_dmul+0x6e>
    3644:	e075      	b.n	3732 <__aeabi_dmul+0x15a>
    3646:	2380      	movs	r3, #128	; 0x80
    3648:	0f41      	lsrs	r1, r0, #29
    364a:	041b      	lsls	r3, r3, #16
    364c:	430b      	orrs	r3, r1
    364e:	4963      	ldr	r1, [pc, #396]	; (37dc <__aeabi_dmul+0x204>)
    3650:	00e4      	lsls	r4, r4, #3
    3652:	431c      	orrs	r4, r3
    3654:	00c3      	lsls	r3, r0, #3
    3656:	1850      	adds	r0, r2, r1
    3658:	2200      	movs	r2, #0
    365a:	4649      	mov	r1, r9
    365c:	1836      	adds	r6, r6, r0
    365e:	4640      	mov	r0, r8
    3660:	4069      	eors	r1, r5
    3662:	9100      	str	r1, [sp, #0]
    3664:	1c71      	adds	r1, r6, #1
    3666:	9101      	str	r1, [sp, #4]
    3668:	4310      	orrs	r0, r2
    366a:	280f      	cmp	r0, #15
    366c:	d900      	bls.n	3670 <__aeabi_dmul+0x98>
    366e:	e0bb      	b.n	37e8 <__aeabi_dmul+0x210>
    3670:	0080      	lsls	r0, r0, #2
    3672:	4680      	mov	r8, r0
    3674:	4641      	mov	r1, r8
    3676:	485a      	ldr	r0, [pc, #360]	; (37e0 <__aeabi_dmul+0x208>)
    3678:	5841      	ldr	r1, [r0, r1]
    367a:	468f      	mov	pc, r1
    367c:	465f      	mov	r7, fp
    367e:	4307      	orrs	r7, r0
    3680:	2f00      	cmp	r7, #0
    3682:	d000      	beq.n	3686 <__aeabi_dmul+0xae>
    3684:	e092      	b.n	37ac <__aeabi_dmul+0x1d4>
    3686:	2302      	movs	r3, #2
    3688:	f240 0b00 	movw	fp, #0
    368c:	f240 0808 	movw	r8, #8
    3690:	f240 76ff 	movw	r6, #2047	; 0x7ff
    3694:	9302      	str	r3, [sp, #8]
    3696:	e7c6      	b.n	3626 <__aeabi_dmul+0x4e>
    3698:	4649      	mov	r1, r9
    369a:	9100      	str	r1, [sp, #0]
    369c:	2a02      	cmp	r2, #2
    369e:	d06c      	beq.n	377a <__aeabi_dmul+0x1a2>
    36a0:	2a03      	cmp	r2, #3
    36a2:	d100      	bne.n	36a6 <__aeabi_dmul+0xce>
    36a4:	e214      	b.n	3ad0 <__aeabi_dmul+0x4f8>
    36a6:	2a01      	cmp	r2, #1
    36a8:	d000      	beq.n	36ac <__aeabi_dmul+0xd4>
    36aa:	e16c      	b.n	3986 <__aeabi_dmul+0x3ae>
    36ac:	9900      	ldr	r1, [sp, #0]
    36ae:	2400      	movs	r4, #0
    36b0:	4011      	ands	r1, r2
    36b2:	2700      	movs	r7, #0
    36b4:	2200      	movs	r2, #0
    36b6:	b2cd      	uxtb	r5, r1
    36b8:	2100      	movs	r1, #0
    36ba:	0312      	lsls	r2, r2, #12
    36bc:	0d0b      	lsrs	r3, r1, #20
    36be:	0b12      	lsrs	r2, r2, #12
    36c0:	051b      	lsls	r3, r3, #20
    36c2:	4313      	orrs	r3, r2
    36c4:	f64f 72ff 	movw	r2, #65535	; 0xffff
    36c8:	f2c8 020f 	movt	r2, #32783	; 0x800f
    36cc:	4013      	ands	r3, r2
    36ce:	0524      	lsls	r4, r4, #20
    36d0:	431c      	orrs	r4, r3
    36d2:	0064      	lsls	r4, r4, #1
    36d4:	07ed      	lsls	r5, r5, #31
    36d6:	0864      	lsrs	r4, r4, #1
    36d8:	432c      	orrs	r4, r5
    36da:	0038      	movs	r0, r7
    36dc:	0021      	movs	r1, r4
    36de:	b007      	add	sp, #28
    36e0:	bc3c      	pop	{r2, r3, r4, r5}
    36e2:	4690      	mov	r8, r2
    36e4:	4699      	mov	r9, r3
    36e6:	46a2      	mov	sl, r4
    36e8:	46ab      	mov	fp, r5
    36ea:	bdf0      	pop	{r4, r5, r6, r7, pc}
    36ec:	001f      	movs	r7, r3
    36ee:	4307      	orrs	r7, r0
    36f0:	2f00      	cmp	r7, #0
    36f2:	d053      	beq.n	379c <__aeabi_dmul+0x1c4>
    36f4:	2b00      	cmp	r3, #0
    36f6:	d100      	bne.n	36fa <__aeabi_dmul+0x122>
    36f8:	e192      	b.n	3a20 <__aeabi_dmul+0x448>
    36fa:	0018      	movs	r0, r3
    36fc:	f000 fdde 	bl	42bc <__clzsi2>
    3700:	0003      	movs	r3, r0
    3702:	3b0b      	subs	r3, #11
    3704:	2b1c      	cmp	r3, #28
    3706:	dd00      	ble.n	370a <__aeabi_dmul+0x132>
    3708:	e184      	b.n	3a14 <__aeabi_dmul+0x43c>
    370a:	221d      	movs	r2, #29
    370c:	1ad3      	subs	r3, r2, r3
    370e:	0022      	movs	r2, r4
    3710:	0001      	movs	r1, r0
    3712:	465e      	mov	r6, fp
    3714:	40da      	lsrs	r2, r3
    3716:	3908      	subs	r1, #8
    3718:	408e      	lsls	r6, r1
    371a:	0013      	movs	r3, r2
    371c:	408c      	lsls	r4, r1
    371e:	4333      	orrs	r3, r6
    3720:	469b      	mov	fp, r3
    3722:	0027      	movs	r7, r4
    3724:	2300      	movs	r3, #0
    3726:	4e2f      	ldr	r6, [pc, #188]	; (37e4 <__aeabi_dmul+0x20c>)
    3728:	f240 0800 	movw	r8, #0
    372c:	1a36      	subs	r6, r6, r0
    372e:	9302      	str	r3, [sp, #8]
    3730:	e779      	b.n	3626 <__aeabi_dmul+0x4e>
    3732:	4653      	mov	r3, sl
    3734:	4323      	orrs	r3, r4
    3736:	bb63      	cbnz	r3, 3792 <__aeabi_dmul+0x1ba>
    3738:	2400      	movs	r4, #0
    373a:	f240 70ff 	movw	r0, #2047	; 0x7ff
    373e:	2202      	movs	r2, #2
    3740:	e78b      	b.n	365a <__aeabi_dmul+0x82>
    3742:	4653      	mov	r3, sl
    3744:	4323      	orrs	r3, r4
    3746:	b303      	cbz	r3, 378a <__aeabi_dmul+0x1b2>
    3748:	2c00      	cmp	r4, #0
    374a:	d100      	bne.n	374e <__aeabi_dmul+0x176>
    374c:	e15e      	b.n	3a0c <__aeabi_dmul+0x434>
    374e:	0020      	movs	r0, r4
    3750:	f000 fdb4 	bl	42bc <__clzsi2>
    3754:	0003      	movs	r3, r0
    3756:	3b0b      	subs	r3, #11
    3758:	2b1c      	cmp	r3, #28
    375a:	dd00      	ble.n	375e <__aeabi_dmul+0x186>
    375c:	e150      	b.n	3a00 <__aeabi_dmul+0x428>
    375e:	211d      	movs	r1, #29
    3760:	1acb      	subs	r3, r1, r3
    3762:	4651      	mov	r1, sl
    3764:	0002      	movs	r2, r0
    3766:	40d9      	lsrs	r1, r3
    3768:	4653      	mov	r3, sl
    376a:	3a08      	subs	r2, #8
    376c:	4094      	lsls	r4, r2
    376e:	4093      	lsls	r3, r2
    3770:	430c      	orrs	r4, r1
    3772:	4a1c      	ldr	r2, [pc, #112]	; (37e4 <__aeabi_dmul+0x20c>)
    3774:	1a10      	subs	r0, r2, r0
    3776:	2200      	movs	r2, #0
    3778:	e76f      	b.n	365a <__aeabi_dmul+0x82>
    377a:	2501      	movs	r5, #1
    377c:	9b00      	ldr	r3, [sp, #0]
    377e:	f240 74ff 	movw	r4, #2047	; 0x7ff
    3782:	401d      	ands	r5, r3
    3784:	2200      	movs	r2, #0
    3786:	2700      	movs	r7, #0
    3788:	e796      	b.n	36b8 <__aeabi_dmul+0xe0>
    378a:	2400      	movs	r4, #0
    378c:	2000      	movs	r0, #0
    378e:	2201      	movs	r2, #1
    3790:	e763      	b.n	365a <__aeabi_dmul+0x82>
    3792:	4653      	mov	r3, sl
    3794:	f240 70ff 	movw	r0, #2047	; 0x7ff
    3798:	2203      	movs	r2, #3
    379a:	e75e      	b.n	365a <__aeabi_dmul+0x82>
    379c:	2301      	movs	r3, #1
    379e:	f240 0b00 	movw	fp, #0
    37a2:	f240 0804 	movw	r8, #4
    37a6:	2600      	movs	r6, #0
    37a8:	9302      	str	r3, [sp, #8]
    37aa:	e73c      	b.n	3626 <__aeabi_dmul+0x4e>
    37ac:	2303      	movs	r3, #3
    37ae:	0007      	movs	r7, r0
    37b0:	f240 080c 	movw	r8, #12
    37b4:	f240 76ff 	movw	r6, #2047	; 0x7ff
    37b8:	9302      	str	r3, [sp, #8]
    37ba:	e734      	b.n	3626 <__aeabi_dmul+0x4e>
    37bc:	2280      	movs	r2, #128	; 0x80
    37be:	2500      	movs	r5, #0
    37c0:	2700      	movs	r7, #0
    37c2:	0312      	lsls	r2, r2, #12
    37c4:	f240 74ff 	movw	r4, #2047	; 0x7ff
    37c8:	e776      	b.n	36b8 <__aeabi_dmul+0xe0>
    37ca:	465c      	mov	r4, fp
    37cc:	003b      	movs	r3, r7
    37ce:	9a02      	ldr	r2, [sp, #8]
    37d0:	e764      	b.n	369c <__aeabi_dmul+0xc4>
    37d2:	465c      	mov	r4, fp
    37d4:	003b      	movs	r3, r7
    37d6:	9500      	str	r5, [sp, #0]
    37d8:	9a02      	ldr	r2, [sp, #8]
    37da:	e75f      	b.n	369c <__aeabi_dmul+0xc4>
    37dc:	fffffc01 	.word	0xfffffc01
    37e0:	00004548 	.word	0x00004548
    37e4:	fffffc0d 	.word	0xfffffc0d
    37e8:	f64f 75ff 	movw	r5, #65535	; 0xffff
    37ec:	0c3a      	lsrs	r2, r7, #16
    37ee:	4694      	mov	ip, r2
    37f0:	0c1a      	lsrs	r2, r3, #16
    37f2:	402b      	ands	r3, r5
    37f4:	0019      	movs	r1, r3
    37f6:	402f      	ands	r7, r5
    37f8:	4379      	muls	r1, r7
    37fa:	4689      	mov	r9, r1
    37fc:	4661      	mov	r1, ip
    37fe:	4648      	mov	r0, r9
    3800:	4359      	muls	r1, r3
    3802:	0015      	movs	r5, r2
    3804:	4688      	mov	r8, r1
    3806:	4661      	mov	r1, ip
    3808:	0c00      	lsrs	r0, r0, #16
    380a:	4682      	mov	sl, r0
    380c:	437d      	muls	r5, r7
    380e:	4351      	muls	r1, r2
    3810:	4445      	add	r5, r8
    3812:	4455      	add	r5, sl
    3814:	9102      	str	r1, [sp, #8]
    3816:	45a8      	cmp	r8, r5
    3818:	d904      	bls.n	3824 <__aeabi_dmul+0x24c>
    381a:	2080      	movs	r0, #128	; 0x80
    381c:	0240      	lsls	r0, r0, #9
    381e:	4680      	mov	r8, r0
    3820:	4441      	add	r1, r8
    3822:	9102      	str	r1, [sp, #8]
    3824:	f64f 78ff 	movw	r8, #65535	; 0xffff
    3828:	0c29      	lsrs	r1, r5, #16
    382a:	4640      	mov	r0, r8
    382c:	9103      	str	r1, [sp, #12]
    382e:	4649      	mov	r1, r9
    3830:	042d      	lsls	r5, r5, #16
    3832:	4001      	ands	r1, r0
    3834:	4689      	mov	r9, r1
    3836:	0029      	movs	r1, r5
    3838:	0c25      	lsrs	r5, r4, #16
    383a:	4449      	add	r1, r9
    383c:	4004      	ands	r4, r0
    383e:	9104      	str	r1, [sp, #16]
    3840:	0021      	movs	r1, r4
    3842:	4379      	muls	r1, r7
    3844:	4688      	mov	r8, r1
    3846:	4661      	mov	r1, ip
    3848:	4361      	muls	r1, r4
    384a:	4689      	mov	r9, r1
    384c:	4661      	mov	r1, ip
    384e:	4369      	muls	r1, r5
    3850:	468c      	mov	ip, r1
    3852:	4641      	mov	r1, r8
    3854:	0c09      	lsrs	r1, r1, #16
    3856:	468a      	mov	sl, r1
    3858:	436f      	muls	r7, r5
    385a:	444f      	add	r7, r9
    385c:	4457      	add	r7, sl
    385e:	45b9      	cmp	r9, r7
    3860:	d903      	bls.n	386a <__aeabi_dmul+0x292>
    3862:	2180      	movs	r1, #128	; 0x80
    3864:	0249      	lsls	r1, r1, #9
    3866:	4689      	mov	r9, r1
    3868:	44cc      	add	ip, r9
    386a:	0c39      	lsrs	r1, r7, #16
    386c:	4461      	add	r1, ip
    386e:	f64f 7cff 	movw	ip, #65535	; 0xffff
    3872:	9105      	str	r1, [sp, #20]
    3874:	4660      	mov	r0, ip
    3876:	4641      	mov	r1, r8
    3878:	4001      	ands	r1, r0
    387a:	4688      	mov	r8, r1
    387c:	9903      	ldr	r1, [sp, #12]
    387e:	043f      	lsls	r7, r7, #16
    3880:	4447      	add	r7, r8
    3882:	4688      	mov	r8, r1
    3884:	44b8      	add	r8, r7
    3886:	4641      	mov	r1, r8
    3888:	9103      	str	r1, [sp, #12]
    388a:	4659      	mov	r1, fp
    388c:	0c09      	lsrs	r1, r1, #16
    388e:	4688      	mov	r8, r1
    3890:	4658      	mov	r0, fp
    3892:	4661      	mov	r1, ip
    3894:	4001      	ands	r1, r0
    3896:	468c      	mov	ip, r1
    3898:	4359      	muls	r1, r3
    389a:	4689      	mov	r9, r1
    389c:	4641      	mov	r1, r8
    389e:	434b      	muls	r3, r1
    38a0:	4351      	muls	r1, r2
    38a2:	468a      	mov	sl, r1
    38a4:	4661      	mov	r1, ip
    38a6:	434a      	muls	r2, r1
    38a8:	4649      	mov	r1, r9
    38aa:	0c09      	lsrs	r1, r1, #16
    38ac:	468b      	mov	fp, r1
    38ae:	18d2      	adds	r2, r2, r3
    38b0:	445a      	add	r2, fp
    38b2:	4293      	cmp	r3, r2
    38b4:	d903      	bls.n	38be <__aeabi_dmul+0x2e6>
    38b6:	2380      	movs	r3, #128	; 0x80
    38b8:	025b      	lsls	r3, r3, #9
    38ba:	469b      	mov	fp, r3
    38bc:	44da      	add	sl, fp
    38be:	0c13      	lsrs	r3, r2, #16
    38c0:	4453      	add	r3, sl
    38c2:	f64f 7aff 	movw	sl, #65535	; 0xffff
    38c6:	4648      	mov	r0, r9
    38c8:	4651      	mov	r1, sl
    38ca:	4001      	ands	r1, r0
    38cc:	4689      	mov	r9, r1
    38ce:	4641      	mov	r1, r8
    38d0:	4361      	muls	r1, r4
    38d2:	468a      	mov	sl, r1
    38d4:	4641      	mov	r1, r8
    38d6:	4369      	muls	r1, r5
    38d8:	0412      	lsls	r2, r2, #16
    38da:	4491      	add	r9, r2
    38dc:	4688      	mov	r8, r1
    38de:	4662      	mov	r2, ip
    38e0:	4661      	mov	r1, ip
    38e2:	4362      	muls	r2, r4
    38e4:	434d      	muls	r5, r1
    38e6:	0c14      	lsrs	r4, r2, #16
    38e8:	4455      	add	r5, sl
    38ea:	1964      	adds	r4, r4, r5
    38ec:	45a2      	cmp	sl, r4
    38ee:	d903      	bls.n	38f8 <__aeabi_dmul+0x320>
    38f0:	2180      	movs	r1, #128	; 0x80
    38f2:	0249      	lsls	r1, r1, #9
    38f4:	468c      	mov	ip, r1
    38f6:	44e0      	add	r8, ip
    38f8:	9803      	ldr	r0, [sp, #12]
    38fa:	9902      	ldr	r1, [sp, #8]
    38fc:	4684      	mov	ip, r0
    38fe:	4461      	add	r1, ip
    3900:	42b9      	cmp	r1, r7
    3902:	41bf      	sbcs	r7, r7
    3904:	f64f 7cff 	movw	ip, #65535	; 0xffff
    3908:	000d      	movs	r5, r1
    390a:	4279      	negs	r1, r7
    390c:	468a      	mov	sl, r1
    390e:	9805      	ldr	r0, [sp, #20]
    3910:	4661      	mov	r1, ip
    3912:	4684      	mov	ip, r0
    3914:	0427      	lsls	r7, r4, #16
    3916:	4011      	ands	r1, r2
    3918:	187a      	adds	r2, r7, r1
    391a:	4462      	add	r2, ip
    391c:	444d      	add	r5, r9
    391e:	4694      	mov	ip, r2
    3920:	002f      	movs	r7, r5
    3922:	454d      	cmp	r5, r9
    3924:	41ad      	sbcs	r5, r5
    3926:	44d4      	add	ip, sl
    3928:	426d      	negs	r5, r5
    392a:	469b      	mov	fp, r3
    392c:	4282      	cmp	r2, r0
    392e:	4192      	sbcs	r2, r2
    3930:	45d4      	cmp	ip, sl
    3932:	4189      	sbcs	r1, r1
    3934:	46a9      	mov	r9, r5
    3936:	44e3      	add	fp, ip
    3938:	4252      	negs	r2, r2
    393a:	4249      	negs	r1, r1
    393c:	44d9      	add	r9, fp
    393e:	0c24      	lsrs	r4, r4, #16
    3940:	430a      	orrs	r2, r1
    3942:	1912      	adds	r2, r2, r4
    3944:	45a9      	cmp	r9, r5
    3946:	41ad      	sbcs	r5, r5
    3948:	459b      	cmp	fp, r3
    394a:	41a4      	sbcs	r4, r4
    394c:	464b      	mov	r3, r9
    394e:	426d      	negs	r5, r5
    3950:	4264      	negs	r4, r4
    3952:	432c      	orrs	r4, r5
    3954:	1914      	adds	r4, r2, r4
    3956:	4444      	add	r4, r8
    3958:	0ddb      	lsrs	r3, r3, #23
    395a:	0264      	lsls	r4, r4, #9
    395c:	431c      	orrs	r4, r3
    395e:	9b04      	ldr	r3, [sp, #16]
    3960:	027d      	lsls	r5, r7, #9
    3962:	431d      	orrs	r5, r3
    3964:	002b      	movs	r3, r5
    3966:	1e5d      	subs	r5, r3, #1
    3968:	41ab      	sbcs	r3, r5
    396a:	0dff      	lsrs	r7, r7, #23
    396c:	431f      	orrs	r7, r3
    396e:	464b      	mov	r3, r9
    3970:	025b      	lsls	r3, r3, #9
    3972:	433b      	orrs	r3, r7
    3974:	01e2      	lsls	r2, r4, #7
    3976:	d557      	bpl.n	3a28 <__aeabi_dmul+0x450>
    3978:	2701      	movs	r7, #1
    397a:	085a      	lsrs	r2, r3, #1
    397c:	403b      	ands	r3, r7
    397e:	4313      	orrs	r3, r2
    3980:	07e7      	lsls	r7, r4, #31
    3982:	433b      	orrs	r3, r7
    3984:	0864      	lsrs	r4, r4, #1
    3986:	f240 32ff 	movw	r2, #1023	; 0x3ff
    398a:	9901      	ldr	r1, [sp, #4]
    398c:	188e      	adds	r6, r1, r2
    398e:	2e00      	cmp	r6, #0
    3990:	dd4c      	ble.n	3a2c <__aeabi_dmul+0x454>
    3992:	075a      	lsls	r2, r3, #29
    3994:	d009      	beq.n	39aa <__aeabi_dmul+0x3d2>
    3996:	220f      	movs	r2, #15
    3998:	401a      	ands	r2, r3
    399a:	2a04      	cmp	r2, #4
    399c:	d005      	beq.n	39aa <__aeabi_dmul+0x3d2>
    399e:	1d1a      	adds	r2, r3, #4
    39a0:	429a      	cmp	r2, r3
    39a2:	419b      	sbcs	r3, r3
    39a4:	425b      	negs	r3, r3
    39a6:	18e4      	adds	r4, r4, r3
    39a8:	0013      	movs	r3, r2
    39aa:	01e2      	lsls	r2, r4, #7
    39ac:	d505      	bpl.n	39ba <__aeabi_dmul+0x3e2>
    39ae:	4a4d      	ldr	r2, [pc, #308]	; (3ae4 <__aeabi_dmul+0x50c>)
    39b0:	9901      	ldr	r1, [sp, #4]
    39b2:	4014      	ands	r4, r2
    39b4:	f240 4200 	movw	r2, #1024	; 0x400
    39b8:	188e      	adds	r6, r1, r2
    39ba:	f240 72fe 	movw	r2, #2046	; 0x7fe
    39be:	4296      	cmp	r6, r2
    39c0:	dd00      	ble.n	39c4 <__aeabi_dmul+0x3ec>
    39c2:	e6da      	b.n	377a <__aeabi_dmul+0x1a2>
    39c4:	0767      	lsls	r7, r4, #29
    39c6:	0264      	lsls	r4, r4, #9
    39c8:	0b22      	lsrs	r2, r4, #12
    39ca:	2501      	movs	r5, #1
    39cc:	f240 74ff 	movw	r4, #2047	; 0x7ff
    39d0:	08db      	lsrs	r3, r3, #3
    39d2:	431f      	orrs	r7, r3
    39d4:	9b00      	ldr	r3, [sp, #0]
    39d6:	4034      	ands	r4, r6
    39d8:	401d      	ands	r5, r3
    39da:	e66d      	b.n	36b8 <__aeabi_dmul+0xe0>
    39dc:	2280      	movs	r2, #128	; 0x80
    39de:	4659      	mov	r1, fp
    39e0:	0312      	lsls	r2, r2, #12
    39e2:	4211      	tst	r1, r2
    39e4:	d007      	beq.n	39f6 <__aeabi_dmul+0x41e>
    39e6:	4214      	tst	r4, r2
    39e8:	d105      	bne.n	39f6 <__aeabi_dmul+0x41e>
    39ea:	4322      	orrs	r2, r4
    39ec:	0312      	lsls	r2, r2, #12
    39ee:	0b12      	lsrs	r2, r2, #12
    39f0:	464d      	mov	r5, r9
    39f2:	001f      	movs	r7, r3
    39f4:	e6e6      	b.n	37c4 <__aeabi_dmul+0x1ec>
    39f6:	465b      	mov	r3, fp
    39f8:	431a      	orrs	r2, r3
    39fa:	0312      	lsls	r2, r2, #12
    39fc:	0b12      	lsrs	r2, r2, #12
    39fe:	e6e1      	b.n	37c4 <__aeabi_dmul+0x1ec>
    3a00:	0003      	movs	r3, r0
    3a02:	4654      	mov	r4, sl
    3a04:	3b28      	subs	r3, #40	; 0x28
    3a06:	409c      	lsls	r4, r3
    3a08:	2300      	movs	r3, #0
    3a0a:	e6b2      	b.n	3772 <__aeabi_dmul+0x19a>
    3a0c:	f000 fc56 	bl	42bc <__clzsi2>
    3a10:	3020      	adds	r0, #32
    3a12:	e69f      	b.n	3754 <__aeabi_dmul+0x17c>
    3a14:	0003      	movs	r3, r0
    3a16:	3b28      	subs	r3, #40	; 0x28
    3a18:	409c      	lsls	r4, r3
    3a1a:	2700      	movs	r7, #0
    3a1c:	46a3      	mov	fp, r4
    3a1e:	e681      	b.n	3724 <__aeabi_dmul+0x14c>
    3a20:	f000 fc4c 	bl	42bc <__clzsi2>
    3a24:	3020      	adds	r0, #32
    3a26:	e66b      	b.n	3700 <__aeabi_dmul+0x128>
    3a28:	9601      	str	r6, [sp, #4]
    3a2a:	e7ac      	b.n	3986 <__aeabi_dmul+0x3ae>
    3a2c:	2501      	movs	r5, #1
    3a2e:	1baa      	subs	r2, r5, r6
    3a30:	2a38      	cmp	r2, #56	; 0x38
    3a32:	dd05      	ble.n	3a40 <__aeabi_dmul+0x468>
    3a34:	9b00      	ldr	r3, [sp, #0]
    3a36:	2400      	movs	r4, #0
    3a38:	401d      	ands	r5, r3
    3a3a:	2200      	movs	r2, #0
    3a3c:	2700      	movs	r7, #0
    3a3e:	e63b      	b.n	36b8 <__aeabi_dmul+0xe0>
    3a40:	2a1f      	cmp	r2, #31
    3a42:	dc20      	bgt.n	3a86 <__aeabi_dmul+0x4ae>
    3a44:	2520      	movs	r5, #32
    3a46:	0020      	movs	r0, r4
    3a48:	1aad      	subs	r5, r5, r2
    3a4a:	001e      	movs	r6, r3
    3a4c:	40ab      	lsls	r3, r5
    3a4e:	40a8      	lsls	r0, r5
    3a50:	40d6      	lsrs	r6, r2
    3a52:	1e5d      	subs	r5, r3, #1
    3a54:	41ab      	sbcs	r3, r5
    3a56:	4330      	orrs	r0, r6
    3a58:	4318      	orrs	r0, r3
    3a5a:	40d4      	lsrs	r4, r2
    3a5c:	0743      	lsls	r3, r0, #29
    3a5e:	d009      	beq.n	3a74 <__aeabi_dmul+0x49c>
    3a60:	230f      	movs	r3, #15
    3a62:	4003      	ands	r3, r0
    3a64:	2b04      	cmp	r3, #4
    3a66:	d005      	beq.n	3a74 <__aeabi_dmul+0x49c>
    3a68:	0003      	movs	r3, r0
    3a6a:	1d18      	adds	r0, r3, #4
    3a6c:	4298      	cmp	r0, r3
    3a6e:	419b      	sbcs	r3, r3
    3a70:	425b      	negs	r3, r3
    3a72:	18e4      	adds	r4, r4, r3
    3a74:	0223      	lsls	r3, r4, #8
    3a76:	d51e      	bpl.n	3ab6 <__aeabi_dmul+0x4de>
    3a78:	2501      	movs	r5, #1
    3a7a:	9b00      	ldr	r3, [sp, #0]
    3a7c:	2401      	movs	r4, #1
    3a7e:	401d      	ands	r5, r3
    3a80:	2200      	movs	r2, #0
    3a82:	2700      	movs	r7, #0
    3a84:	e618      	b.n	36b8 <__aeabi_dmul+0xe0>
    3a86:	201f      	movs	r0, #31
    3a88:	0027      	movs	r7, r4
    3a8a:	4240      	negs	r0, r0
    3a8c:	1b86      	subs	r6, r0, r6
    3a8e:	40f7      	lsrs	r7, r6
    3a90:	2a20      	cmp	r2, #32
    3a92:	d01b      	beq.n	3acc <__aeabi_dmul+0x4f4>
    3a94:	305f      	adds	r0, #95	; 0x5f
    3a96:	1a82      	subs	r2, r0, r2
    3a98:	4094      	lsls	r4, r2
    3a9a:	4323      	orrs	r3, r4
    3a9c:	1e5c      	subs	r4, r3, #1
    3a9e:	41a3      	sbcs	r3, r4
    3aa0:	433b      	orrs	r3, r7
    3aa2:	2707      	movs	r7, #7
    3aa4:	401f      	ands	r7, r3
    3aa6:	2200      	movs	r2, #0
    3aa8:	b14f      	cbz	r7, 3abe <__aeabi_dmul+0x4e6>
    3aaa:	220f      	movs	r2, #15
    3aac:	2400      	movs	r4, #0
    3aae:	401a      	ands	r2, r3
    3ab0:	0018      	movs	r0, r3
    3ab2:	2a04      	cmp	r2, #4
    3ab4:	d1d9      	bne.n	3a6a <__aeabi_dmul+0x492>
    3ab6:	0003      	movs	r3, r0
    3ab8:	0767      	lsls	r7, r4, #29
    3aba:	0264      	lsls	r4, r4, #9
    3abc:	0b22      	lsrs	r2, r4, #12
    3abe:	2501      	movs	r5, #1
    3ac0:	08db      	lsrs	r3, r3, #3
    3ac2:	431f      	orrs	r7, r3
    3ac4:	9b00      	ldr	r3, [sp, #0]
    3ac6:	2400      	movs	r4, #0
    3ac8:	401d      	ands	r5, r3
    3aca:	e5f5      	b.n	36b8 <__aeabi_dmul+0xe0>
    3acc:	2400      	movs	r4, #0
    3ace:	e7e4      	b.n	3a9a <__aeabi_dmul+0x4c2>
    3ad0:	2280      	movs	r2, #128	; 0x80
    3ad2:	2501      	movs	r5, #1
    3ad4:	0312      	lsls	r2, r2, #12
    3ad6:	4322      	orrs	r2, r4
    3ad8:	9900      	ldr	r1, [sp, #0]
    3ada:	0312      	lsls	r2, r2, #12
    3adc:	0b12      	lsrs	r2, r2, #12
    3ade:	400d      	ands	r5, r1
    3ae0:	001f      	movs	r7, r3
    3ae2:	e66f      	b.n	37c4 <__aeabi_dmul+0x1ec>
    3ae4:	feffffff 	.word	0xfeffffff

00003ae8 <__aeabi_dsub>:
    3ae8:	b5f0      	push	{r4, r5, r6, r7, lr}
    3aea:	464f      	mov	r7, r9
    3aec:	4646      	mov	r6, r8
    3aee:	46d6      	mov	lr, sl
    3af0:	030c      	lsls	r4, r1, #12
    3af2:	b5c0      	push	{r6, r7, lr}
    3af4:	0fcd      	lsrs	r5, r1, #31
    3af6:	004f      	lsls	r7, r1, #1
    3af8:	0a61      	lsrs	r1, r4, #9
    3afa:	0f44      	lsrs	r4, r0, #29
    3afc:	430c      	orrs	r4, r1
    3afe:	00c1      	lsls	r1, r0, #3
    3b00:	0058      	lsls	r0, r3, #1
    3b02:	0d40      	lsrs	r0, r0, #21
    3b04:	4684      	mov	ip, r0
    3b06:	f240 79ff 	movw	r9, #2047	; 0x7ff
    3b0a:	468a      	mov	sl, r1
    3b0c:	000e      	movs	r6, r1
    3b0e:	0319      	lsls	r1, r3, #12
    3b10:	0f50      	lsrs	r0, r2, #29
    3b12:	0a49      	lsrs	r1, r1, #9
    3b14:	0d7f      	lsrs	r7, r7, #21
    3b16:	46a8      	mov	r8, r5
    3b18:	0fdb      	lsrs	r3, r3, #31
    3b1a:	4301      	orrs	r1, r0
    3b1c:	00d2      	lsls	r2, r2, #3
    3b1e:	45cc      	cmp	ip, r9
    3b20:	d100      	bne.n	3b24 <__aeabi_dsub+0x3c>
    3b22:	e0df      	b.n	3ce4 <__aeabi_dsub+0x1fc>
    3b24:	f240 0901 	movw	r9, #1
    3b28:	4648      	mov	r0, r9
    3b2a:	4043      	eors	r3, r0
    3b2c:	42ab      	cmp	r3, r5
    3b2e:	d100      	bne.n	3b32 <__aeabi_dsub+0x4a>
    3b30:	e0aa      	b.n	3c88 <__aeabi_dsub+0x1a0>
    3b32:	4660      	mov	r0, ip
    3b34:	1a3d      	subs	r5, r7, r0
    3b36:	2d00      	cmp	r5, #0
    3b38:	dc00      	bgt.n	3b3c <__aeabi_dsub+0x54>
    3b3a:	e10f      	b.n	3d5c <__aeabi_dsub+0x274>
    3b3c:	b988      	cbnz	r0, 3b62 <__aeabi_dsub+0x7a>
    3b3e:	000b      	movs	r3, r1
    3b40:	4313      	orrs	r3, r2
    3b42:	2b00      	cmp	r3, #0
    3b44:	d100      	bne.n	3b48 <__aeabi_dsub+0x60>
    3b46:	e0e0      	b.n	3d0a <__aeabi_dsub+0x222>
    3b48:	1e6b      	subs	r3, r5, #1
    3b4a:	2b00      	cmp	r3, #0
    3b4c:	d000      	beq.n	3b50 <__aeabi_dsub+0x68>
    3b4e:	e160      	b.n	3e12 <__aeabi_dsub+0x32a>
    3b50:	4653      	mov	r3, sl
    3b52:	1a9e      	subs	r6, r3, r2
    3b54:	45b2      	cmp	sl, r6
    3b56:	4180      	sbcs	r0, r0
    3b58:	1a64      	subs	r4, r4, r1
    3b5a:	4240      	negs	r0, r0
    3b5c:	1a24      	subs	r4, r4, r0
    3b5e:	2701      	movs	r7, #1
    3b60:	e01f      	b.n	3ba2 <__aeabi_dsub+0xba>
    3b62:	f240 73ff 	movw	r3, #2047	; 0x7ff
    3b66:	429f      	cmp	r7, r3
    3b68:	d048      	beq.n	3bfc <__aeabi_dsub+0x114>
    3b6a:	2380      	movs	r3, #128	; 0x80
    3b6c:	041b      	lsls	r3, r3, #16
    3b6e:	4319      	orrs	r1, r3
    3b70:	2d38      	cmp	r5, #56	; 0x38
    3b72:	dd00      	ble.n	3b76 <__aeabi_dsub+0x8e>
    3b74:	e12d      	b.n	3dd2 <__aeabi_dsub+0x2ea>
    3b76:	2d1f      	cmp	r5, #31
    3b78:	dd00      	ble.n	3b7c <__aeabi_dsub+0x94>
    3b7a:	e160      	b.n	3e3e <__aeabi_dsub+0x356>
    3b7c:	2320      	movs	r3, #32
    3b7e:	000e      	movs	r6, r1
    3b80:	1b5b      	subs	r3, r3, r5
    3b82:	0010      	movs	r0, r2
    3b84:	409a      	lsls	r2, r3
    3b86:	409e      	lsls	r6, r3
    3b88:	40e8      	lsrs	r0, r5
    3b8a:	1e53      	subs	r3, r2, #1
    3b8c:	419a      	sbcs	r2, r3
    3b8e:	40e9      	lsrs	r1, r5
    3b90:	4306      	orrs	r6, r0
    3b92:	4316      	orrs	r6, r2
    3b94:	4653      	mov	r3, sl
    3b96:	1b9e      	subs	r6, r3, r6
    3b98:	1a61      	subs	r1, r4, r1
    3b9a:	45b2      	cmp	sl, r6
    3b9c:	41a4      	sbcs	r4, r4
    3b9e:	4264      	negs	r4, r4
    3ba0:	1b0c      	subs	r4, r1, r4
    3ba2:	0223      	lsls	r3, r4, #8
    3ba4:	d400      	bmi.n	3ba8 <__aeabi_dsub+0xc0>
    3ba6:	e0ce      	b.n	3d46 <__aeabi_dsub+0x25e>
    3ba8:	0264      	lsls	r4, r4, #9
    3baa:	0a65      	lsrs	r5, r4, #9
    3bac:	2d00      	cmp	r5, #0
    3bae:	d100      	bne.n	3bb2 <__aeabi_dsub+0xca>
    3bb0:	e0f3      	b.n	3d9a <__aeabi_dsub+0x2b2>
    3bb2:	0028      	movs	r0, r5
    3bb4:	f000 fb82 	bl	42bc <__clzsi2>
    3bb8:	0003      	movs	r3, r0
    3bba:	3b08      	subs	r3, #8
    3bbc:	2b1f      	cmp	r3, #31
    3bbe:	dd00      	ble.n	3bc2 <__aeabi_dsub+0xda>
    3bc0:	e0f4      	b.n	3dac <__aeabi_dsub+0x2c4>
    3bc2:	2220      	movs	r2, #32
    3bc4:	0034      	movs	r4, r6
    3bc6:	1ad2      	subs	r2, r2, r3
    3bc8:	409d      	lsls	r5, r3
    3bca:	40d4      	lsrs	r4, r2
    3bcc:	409e      	lsls	r6, r3
    3bce:	4325      	orrs	r5, r4
    3bd0:	429f      	cmp	r7, r3
    3bd2:	dd00      	ble.n	3bd6 <__aeabi_dsub+0xee>
    3bd4:	e0f1      	b.n	3dba <__aeabi_dsub+0x2d2>
    3bd6:	1bdf      	subs	r7, r3, r7
    3bd8:	1c7b      	adds	r3, r7, #1
    3bda:	2b1f      	cmp	r3, #31
    3bdc:	dd00      	ble.n	3be0 <__aeabi_dsub+0xf8>
    3bde:	e11f      	b.n	3e20 <__aeabi_dsub+0x338>
    3be0:	2220      	movs	r2, #32
    3be2:	0030      	movs	r0, r6
    3be4:	1ad2      	subs	r2, r2, r3
    3be6:	0029      	movs	r1, r5
    3be8:	4096      	lsls	r6, r2
    3bea:	002c      	movs	r4, r5
    3bec:	4091      	lsls	r1, r2
    3bee:	40d8      	lsrs	r0, r3
    3bf0:	1e72      	subs	r2, r6, #1
    3bf2:	4196      	sbcs	r6, r2
    3bf4:	40dc      	lsrs	r4, r3
    3bf6:	2700      	movs	r7, #0
    3bf8:	4301      	orrs	r1, r0
    3bfa:	430e      	orrs	r6, r1
    3bfc:	0773      	lsls	r3, r6, #29
    3bfe:	d009      	beq.n	3c14 <__aeabi_dsub+0x12c>
    3c00:	230f      	movs	r3, #15
    3c02:	4033      	ands	r3, r6
    3c04:	2b04      	cmp	r3, #4
    3c06:	d005      	beq.n	3c14 <__aeabi_dsub+0x12c>
    3c08:	1d33      	adds	r3, r6, #4
    3c0a:	42b3      	cmp	r3, r6
    3c0c:	41b6      	sbcs	r6, r6
    3c0e:	4276      	negs	r6, r6
    3c10:	19a4      	adds	r4, r4, r6
    3c12:	001e      	movs	r6, r3
    3c14:	0223      	lsls	r3, r4, #8
    3c16:	d528      	bpl.n	3c6a <__aeabi_dsub+0x182>
    3c18:	f240 73ff 	movw	r3, #2047	; 0x7ff
    3c1c:	3701      	adds	r7, #1
    3c1e:	429f      	cmp	r7, r3
    3c20:	d100      	bne.n	3c24 <__aeabi_dsub+0x13c>
    3c22:	e0ce      	b.n	3dc2 <__aeabi_dsub+0x2da>
    3c24:	401f      	ands	r7, r3
    3c26:	2501      	movs	r5, #1
    3c28:	4643      	mov	r3, r8
    3c2a:	4ac1      	ldr	r2, [pc, #772]	; (3f30 <__aeabi_dsub+0x448>)
    3c2c:	08f6      	lsrs	r6, r6, #3
    3c2e:	4014      	ands	r4, r2
    3c30:	0762      	lsls	r2, r4, #29
    3c32:	0264      	lsls	r4, r4, #9
    3c34:	4316      	orrs	r6, r2
    3c36:	0b24      	lsrs	r4, r4, #12
    3c38:	401d      	ands	r5, r3
    3c3a:	2100      	movs	r1, #0
    3c3c:	f64f 72ff 	movw	r2, #65535	; 0xffff
    3c40:	0324      	lsls	r4, r4, #12
    3c42:	0b23      	lsrs	r3, r4, #12
    3c44:	0d0c      	lsrs	r4, r1, #20
    3c46:	0524      	lsls	r4, r4, #20
    3c48:	431c      	orrs	r4, r3
    3c4a:	f2c8 020f 	movt	r2, #32783	; 0x800f
    3c4e:	053b      	lsls	r3, r7, #20
    3c50:	4014      	ands	r4, r2
    3c52:	4323      	orrs	r3, r4
    3c54:	005b      	lsls	r3, r3, #1
    3c56:	07ed      	lsls	r5, r5, #31
    3c58:	085b      	lsrs	r3, r3, #1
    3c5a:	432b      	orrs	r3, r5
    3c5c:	0030      	movs	r0, r6
    3c5e:	0019      	movs	r1, r3
    3c60:	bc1c      	pop	{r2, r3, r4}
    3c62:	4690      	mov	r8, r2
    3c64:	4699      	mov	r9, r3
    3c66:	46a2      	mov	sl, r4
    3c68:	bdf0      	pop	{r4, r5, r6, r7, pc}
    3c6a:	2501      	movs	r5, #1
    3c6c:	4643      	mov	r3, r8
    3c6e:	0762      	lsls	r2, r4, #29
    3c70:	08f6      	lsrs	r6, r6, #3
    3c72:	4316      	orrs	r6, r2
    3c74:	08e4      	lsrs	r4, r4, #3
    3c76:	401d      	ands	r5, r3
    3c78:	f240 73ff 	movw	r3, #2047	; 0x7ff
    3c7c:	429f      	cmp	r7, r3
    3c7e:	d037      	beq.n	3cf0 <__aeabi_dsub+0x208>
    3c80:	0324      	lsls	r4, r4, #12
    3c82:	0b24      	lsrs	r4, r4, #12
    3c84:	401f      	ands	r7, r3
    3c86:	e7d8      	b.n	3c3a <__aeabi_dsub+0x152>
    3c88:	4663      	mov	r3, ip
    3c8a:	1afb      	subs	r3, r7, r3
    3c8c:	2b00      	cmp	r3, #0
    3c8e:	dc00      	bgt.n	3c92 <__aeabi_dsub+0x1aa>
    3c90:	e0a5      	b.n	3dde <__aeabi_dsub+0x2f6>
    3c92:	4660      	mov	r0, ip
    3c94:	b3d8      	cbz	r0, 3d0e <__aeabi_dsub+0x226>
    3c96:	f240 7cff 	movw	ip, #2047	; 0x7ff
    3c9a:	4567      	cmp	r7, ip
    3c9c:	d0ae      	beq.n	3bfc <__aeabi_dsub+0x114>
    3c9e:	2680      	movs	r6, #128	; 0x80
    3ca0:	0436      	lsls	r6, r6, #16
    3ca2:	4331      	orrs	r1, r6
    3ca4:	2b38      	cmp	r3, #56	; 0x38
    3ca6:	dc00      	bgt.n	3caa <__aeabi_dsub+0x1c2>
    3ca8:	e10a      	b.n	3ec0 <__aeabi_dsub+0x3d8>
    3caa:	430a      	orrs	r2, r1
    3cac:	0016      	movs	r6, r2
    3cae:	2100      	movs	r1, #0
    3cb0:	1e72      	subs	r2, r6, #1
    3cb2:	4196      	sbcs	r6, r2
    3cb4:	4456      	add	r6, sl
    3cb6:	4556      	cmp	r6, sl
    3cb8:	4180      	sbcs	r0, r0
    3cba:	1909      	adds	r1, r1, r4
    3cbc:	4244      	negs	r4, r0
    3cbe:	190c      	adds	r4, r1, r4
    3cc0:	0223      	lsls	r3, r4, #8
    3cc2:	d540      	bpl.n	3d46 <__aeabi_dsub+0x25e>
    3cc4:	f240 73ff 	movw	r3, #2047	; 0x7ff
    3cc8:	3701      	adds	r7, #1
    3cca:	429f      	cmp	r7, r3
    3ccc:	d100      	bne.n	3cd0 <__aeabi_dsub+0x1e8>
    3cce:	e15e      	b.n	3f8e <__aeabi_dsub+0x4a6>
    3cd0:	2201      	movs	r2, #1
    3cd2:	4b97      	ldr	r3, [pc, #604]	; (3f30 <__aeabi_dsub+0x448>)
    3cd4:	401c      	ands	r4, r3
    3cd6:	0873      	lsrs	r3, r6, #1
    3cd8:	4016      	ands	r6, r2
    3cda:	431e      	orrs	r6, r3
    3cdc:	07e2      	lsls	r2, r4, #31
    3cde:	4316      	orrs	r6, r2
    3ce0:	0864      	lsrs	r4, r4, #1
    3ce2:	e78b      	b.n	3bfc <__aeabi_dsub+0x114>
    3ce4:	0008      	movs	r0, r1
    3ce6:	4310      	orrs	r0, r2
    3ce8:	2800      	cmp	r0, #0
    3cea:	d000      	beq.n	3cee <__aeabi_dsub+0x206>
    3cec:	e71e      	b.n	3b2c <__aeabi_dsub+0x44>
    3cee:	e719      	b.n	3b24 <__aeabi_dsub+0x3c>
    3cf0:	0023      	movs	r3, r4
    3cf2:	4333      	orrs	r3, r6
    3cf4:	2b00      	cmp	r3, #0
    3cf6:	d100      	bne.n	3cfa <__aeabi_dsub+0x212>
    3cf8:	e1df      	b.n	40ba <__aeabi_dsub+0x5d2>
    3cfa:	2380      	movs	r3, #128	; 0x80
    3cfc:	031b      	lsls	r3, r3, #12
    3cfe:	431c      	orrs	r4, r3
    3d00:	0324      	lsls	r4, r4, #12
    3d02:	0b24      	lsrs	r4, r4, #12
    3d04:	f240 77ff 	movw	r7, #2047	; 0x7ff
    3d08:	e797      	b.n	3c3a <__aeabi_dsub+0x152>
    3d0a:	002f      	movs	r7, r5
    3d0c:	e776      	b.n	3bfc <__aeabi_dsub+0x114>
    3d0e:	0008      	movs	r0, r1
    3d10:	4310      	orrs	r0, r2
    3d12:	2800      	cmp	r0, #0
    3d14:	d100      	bne.n	3d18 <__aeabi_dsub+0x230>
    3d16:	e0d1      	b.n	3ebc <__aeabi_dsub+0x3d4>
    3d18:	1e58      	subs	r0, r3, #1
    3d1a:	2800      	cmp	r0, #0
    3d1c:	d000      	beq.n	3d20 <__aeabi_dsub+0x238>
    3d1e:	e0f3      	b.n	3f08 <__aeabi_dsub+0x420>
    3d20:	4452      	add	r2, sl
    3d22:	4552      	cmp	r2, sl
    3d24:	4180      	sbcs	r0, r0
    3d26:	1864      	adds	r4, r4, r1
    3d28:	4240      	negs	r0, r0
    3d2a:	1824      	adds	r4, r4, r0
    3d2c:	0016      	movs	r6, r2
    3d2e:	2701      	movs	r7, #1
    3d30:	0223      	lsls	r3, r4, #8
    3d32:	d508      	bpl.n	3d46 <__aeabi_dsub+0x25e>
    3d34:	2702      	movs	r7, #2
    3d36:	e7cb      	b.n	3cd0 <__aeabi_dsub+0x1e8>
    3d38:	4664      	mov	r4, ip
    3d3a:	432c      	orrs	r4, r5
    3d3c:	2c00      	cmp	r4, #0
    3d3e:	d100      	bne.n	3d42 <__aeabi_dsub+0x25a>
    3d40:	e1dc      	b.n	40fc <__aeabi_dsub+0x614>
    3d42:	002c      	movs	r4, r5
    3d44:	4666      	mov	r6, ip
    3d46:	0773      	lsls	r3, r6, #29
    3d48:	d000      	beq.n	3d4c <__aeabi_dsub+0x264>
    3d4a:	e759      	b.n	3c00 <__aeabi_dsub+0x118>
    3d4c:	0763      	lsls	r3, r4, #29
    3d4e:	08f6      	lsrs	r6, r6, #3
    3d50:	431e      	orrs	r6, r3
    3d52:	2501      	movs	r5, #1
    3d54:	4643      	mov	r3, r8
    3d56:	08e4      	lsrs	r4, r4, #3
    3d58:	401d      	ands	r5, r3
    3d5a:	e78d      	b.n	3c78 <__aeabi_dsub+0x190>
    3d5c:	2d00      	cmp	r5, #0
    3d5e:	d17d      	bne.n	3e5c <__aeabi_dsub+0x374>
    3d60:	f240 75ff 	movw	r5, #2047	; 0x7ff
    3d64:	1c78      	adds	r0, r7, #1
    3d66:	4005      	ands	r5, r0
    3d68:	2d01      	cmp	r5, #1
    3d6a:	dc00      	bgt.n	3d6e <__aeabi_dsub+0x286>
    3d6c:	e0fe      	b.n	3f6c <__aeabi_dsub+0x484>
    3d6e:	4650      	mov	r0, sl
    3d70:	1a80      	subs	r0, r0, r2
    3d72:	4582      	cmp	sl, r0
    3d74:	41b6      	sbcs	r6, r6
    3d76:	1a65      	subs	r5, r4, r1
    3d78:	4276      	negs	r6, r6
    3d7a:	1bad      	subs	r5, r5, r6
    3d7c:	4684      	mov	ip, r0
    3d7e:	0228      	lsls	r0, r5, #8
    3d80:	d400      	bmi.n	3d84 <__aeabi_dsub+0x29c>
    3d82:	e091      	b.n	3ea8 <__aeabi_dsub+0x3c0>
    3d84:	4650      	mov	r0, sl
    3d86:	1a16      	subs	r6, r2, r0
    3d88:	42b2      	cmp	r2, r6
    3d8a:	4192      	sbcs	r2, r2
    3d8c:	1b0c      	subs	r4, r1, r4
    3d8e:	4255      	negs	r5, r2
    3d90:	1b65      	subs	r5, r4, r5
    3d92:	4698      	mov	r8, r3
    3d94:	2d00      	cmp	r5, #0
    3d96:	d000      	beq.n	3d9a <__aeabi_dsub+0x2b2>
    3d98:	e70b      	b.n	3bb2 <__aeabi_dsub+0xca>
    3d9a:	0030      	movs	r0, r6
    3d9c:	f000 fa8e 	bl	42bc <__clzsi2>
    3da0:	3020      	adds	r0, #32
    3da2:	0003      	movs	r3, r0
    3da4:	3b08      	subs	r3, #8
    3da6:	2b1f      	cmp	r3, #31
    3da8:	dc00      	bgt.n	3dac <__aeabi_dsub+0x2c4>
    3daa:	e70a      	b.n	3bc2 <__aeabi_dsub+0xda>
    3dac:	0035      	movs	r5, r6
    3dae:	3828      	subs	r0, #40	; 0x28
    3db0:	4085      	lsls	r5, r0
    3db2:	2600      	movs	r6, #0
    3db4:	429f      	cmp	r7, r3
    3db6:	dc00      	bgt.n	3dba <__aeabi_dsub+0x2d2>
    3db8:	e70d      	b.n	3bd6 <__aeabi_dsub+0xee>
    3dba:	4c5d      	ldr	r4, [pc, #372]	; (3f30 <__aeabi_dsub+0x448>)
    3dbc:	1aff      	subs	r7, r7, r3
    3dbe:	402c      	ands	r4, r5
    3dc0:	e71c      	b.n	3bfc <__aeabi_dsub+0x114>
    3dc2:	2501      	movs	r5, #1
    3dc4:	4643      	mov	r3, r8
    3dc6:	f240 77ff 	movw	r7, #2047	; 0x7ff
    3dca:	401d      	ands	r5, r3
    3dcc:	2400      	movs	r4, #0
    3dce:	2600      	movs	r6, #0
    3dd0:	e733      	b.n	3c3a <__aeabi_dsub+0x152>
    3dd2:	430a      	orrs	r2, r1
    3dd4:	0016      	movs	r6, r2
    3dd6:	2100      	movs	r1, #0
    3dd8:	1e72      	subs	r2, r6, #1
    3dda:	4196      	sbcs	r6, r2
    3ddc:	e6da      	b.n	3b94 <__aeabi_dsub+0xac>
    3dde:	2b00      	cmp	r3, #0
    3de0:	d000      	beq.n	3de4 <__aeabi_dsub+0x2fc>
    3de2:	e0ea      	b.n	3fba <__aeabi_dsub+0x4d2>
    3de4:	f240 7cff 	movw	ip, #2047	; 0x7ff
    3de8:	4660      	mov	r0, ip
    3dea:	1c7b      	adds	r3, r7, #1
    3dec:	4018      	ands	r0, r3
    3dee:	2801      	cmp	r0, #1
    3df0:	dc00      	bgt.n	3df4 <__aeabi_dsub+0x30c>
    3df2:	e09f      	b.n	3f34 <__aeabi_dsub+0x44c>
    3df4:	4563      	cmp	r3, ip
    3df6:	d100      	bne.n	3dfa <__aeabi_dsub+0x312>
    3df8:	e0c7      	b.n	3f8a <__aeabi_dsub+0x4a2>
    3dfa:	4452      	add	r2, sl
    3dfc:	4552      	cmp	r2, sl
    3dfe:	4180      	sbcs	r0, r0
    3e00:	1864      	adds	r4, r4, r1
    3e02:	4240      	negs	r0, r0
    3e04:	1824      	adds	r4, r4, r0
    3e06:	07e6      	lsls	r6, r4, #31
    3e08:	0852      	lsrs	r2, r2, #1
    3e0a:	4316      	orrs	r6, r2
    3e0c:	0864      	lsrs	r4, r4, #1
    3e0e:	001f      	movs	r7, r3
    3e10:	e6f4      	b.n	3bfc <__aeabi_dsub+0x114>
    3e12:	f240 7cff 	movw	ip, #2047	; 0x7ff
    3e16:	4565      	cmp	r5, ip
    3e18:	d100      	bne.n	3e1c <__aeabi_dsub+0x334>
    3e1a:	e082      	b.n	3f22 <__aeabi_dsub+0x43a>
    3e1c:	001d      	movs	r5, r3
    3e1e:	e6a7      	b.n	3b70 <__aeabi_dsub+0x88>
    3e20:	0029      	movs	r1, r5
    3e22:	3f1f      	subs	r7, #31
    3e24:	40f9      	lsrs	r1, r7
    3e26:	2b20      	cmp	r3, #32
    3e28:	d07e      	beq.n	3f28 <__aeabi_dsub+0x440>
    3e2a:	2240      	movs	r2, #64	; 0x40
    3e2c:	1ad3      	subs	r3, r2, r3
    3e2e:	409d      	lsls	r5, r3
    3e30:	432e      	orrs	r6, r5
    3e32:	1e75      	subs	r5, r6, #1
    3e34:	41ae      	sbcs	r6, r5
    3e36:	2400      	movs	r4, #0
    3e38:	430e      	orrs	r6, r1
    3e3a:	2700      	movs	r7, #0
    3e3c:	e783      	b.n	3d46 <__aeabi_dsub+0x25e>
    3e3e:	002b      	movs	r3, r5
    3e40:	000e      	movs	r6, r1
    3e42:	3b20      	subs	r3, #32
    3e44:	40de      	lsrs	r6, r3
    3e46:	2d20      	cmp	r5, #32
    3e48:	d070      	beq.n	3f2c <__aeabi_dsub+0x444>
    3e4a:	2340      	movs	r3, #64	; 0x40
    3e4c:	1b5d      	subs	r5, r3, r5
    3e4e:	40a9      	lsls	r1, r5
    3e50:	430a      	orrs	r2, r1
    3e52:	1e51      	subs	r1, r2, #1
    3e54:	418a      	sbcs	r2, r1
    3e56:	2100      	movs	r1, #0
    3e58:	4316      	orrs	r6, r2
    3e5a:	e69b      	b.n	3b94 <__aeabi_dsub+0xac>
    3e5c:	2f00      	cmp	r7, #0
    3e5e:	d040      	beq.n	3ee2 <__aeabi_dsub+0x3fa>
    3e60:	f240 76ff 	movw	r6, #2047	; 0x7ff
    3e64:	45b4      	cmp	ip, r6
    3e66:	d049      	beq.n	3efc <__aeabi_dsub+0x414>
    3e68:	2680      	movs	r6, #128	; 0x80
    3e6a:	0436      	lsls	r6, r6, #16
    3e6c:	426d      	negs	r5, r5
    3e6e:	4334      	orrs	r4, r6
    3e70:	2d38      	cmp	r5, #56	; 0x38
    3e72:	dd00      	ble.n	3e76 <__aeabi_dsub+0x38e>
    3e74:	e0c5      	b.n	4002 <__aeabi_dsub+0x51a>
    3e76:	2d1f      	cmp	r5, #31
    3e78:	dd00      	ble.n	3e7c <__aeabi_dsub+0x394>
    3e7a:	e142      	b.n	4102 <__aeabi_dsub+0x61a>
    3e7c:	2720      	movs	r7, #32
    3e7e:	0026      	movs	r6, r4
    3e80:	4650      	mov	r0, sl
    3e82:	1b7f      	subs	r7, r7, r5
    3e84:	40be      	lsls	r6, r7
    3e86:	40e8      	lsrs	r0, r5
    3e88:	4306      	orrs	r6, r0
    3e8a:	4650      	mov	r0, sl
    3e8c:	40b8      	lsls	r0, r7
    3e8e:	1e47      	subs	r7, r0, #1
    3e90:	41b8      	sbcs	r0, r7
    3e92:	40ec      	lsrs	r4, r5
    3e94:	4330      	orrs	r0, r6
    3e96:	1a16      	subs	r6, r2, r0
    3e98:	42b2      	cmp	r2, r6
    3e9a:	4192      	sbcs	r2, r2
    3e9c:	1b0c      	subs	r4, r1, r4
    3e9e:	4252      	negs	r2, r2
    3ea0:	1aa4      	subs	r4, r4, r2
    3ea2:	4667      	mov	r7, ip
    3ea4:	4698      	mov	r8, r3
    3ea6:	e67c      	b.n	3ba2 <__aeabi_dsub+0xba>
    3ea8:	4664      	mov	r4, ip
    3eaa:	432c      	orrs	r4, r5
    3eac:	4666      	mov	r6, ip
    3eae:	2c00      	cmp	r4, #0
    3eb0:	d000      	beq.n	3eb4 <__aeabi_dsub+0x3cc>
    3eb2:	e67b      	b.n	3bac <__aeabi_dsub+0xc4>
    3eb4:	2500      	movs	r5, #0
    3eb6:	2700      	movs	r7, #0
    3eb8:	2600      	movs	r6, #0
    3eba:	e6dd      	b.n	3c78 <__aeabi_dsub+0x190>
    3ebc:	001f      	movs	r7, r3
    3ebe:	e69d      	b.n	3bfc <__aeabi_dsub+0x114>
    3ec0:	2b1f      	cmp	r3, #31
    3ec2:	dc67      	bgt.n	3f94 <__aeabi_dsub+0x4ac>
    3ec4:	2620      	movs	r6, #32
    3ec6:	1af0      	subs	r0, r6, r3
    3ec8:	000e      	movs	r6, r1
    3eca:	4684      	mov	ip, r0
    3ecc:	4086      	lsls	r6, r0
    3ece:	0010      	movs	r0, r2
    3ed0:	40d8      	lsrs	r0, r3
    3ed2:	4306      	orrs	r6, r0
    3ed4:	4660      	mov	r0, ip
    3ed6:	4082      	lsls	r2, r0
    3ed8:	1e50      	subs	r0, r2, #1
    3eda:	4182      	sbcs	r2, r0
    3edc:	40d9      	lsrs	r1, r3
    3ede:	4316      	orrs	r6, r2
    3ee0:	e6e8      	b.n	3cb4 <__aeabi_dsub+0x1cc>
    3ee2:	0026      	movs	r6, r4
    3ee4:	4650      	mov	r0, sl
    3ee6:	4306      	orrs	r6, r0
    3ee8:	2e00      	cmp	r6, #0
    3eea:	d100      	bne.n	3eee <__aeabi_dsub+0x406>
    3eec:	e084      	b.n	3ff8 <__aeabi_dsub+0x510>
    3eee:	43ed      	mvns	r5, r5
    3ef0:	2d00      	cmp	r5, #0
    3ef2:	d0d0      	beq.n	3e96 <__aeabi_dsub+0x3ae>
    3ef4:	f240 76ff 	movw	r6, #2047	; 0x7ff
    3ef8:	45b4      	cmp	ip, r6
    3efa:	d1b9      	bne.n	3e70 <__aeabi_dsub+0x388>
    3efc:	000c      	movs	r4, r1
    3efe:	0016      	movs	r6, r2
    3f00:	f240 77ff 	movw	r7, #2047	; 0x7ff
    3f04:	4698      	mov	r8, r3
    3f06:	e679      	b.n	3bfc <__aeabi_dsub+0x114>
    3f08:	f240 79ff 	movw	r9, #2047	; 0x7ff
    3f0c:	454b      	cmp	r3, r9
    3f0e:	d008      	beq.n	3f22 <__aeabi_dsub+0x43a>
    3f10:	0003      	movs	r3, r0
    3f12:	e6c7      	b.n	3ca4 <__aeabi_dsub+0x1bc>
    3f14:	f240 76ff 	movw	r6, #2047	; 0x7ff
    3f18:	45b4      	cmp	ip, r6
    3f1a:	d000      	beq.n	3f1e <__aeabi_dsub+0x436>
    3f1c:	e080      	b.n	4020 <__aeabi_dsub+0x538>
    3f1e:	000c      	movs	r4, r1
    3f20:	0016      	movs	r6, r2
    3f22:	f240 77ff 	movw	r7, #2047	; 0x7ff
    3f26:	e669      	b.n	3bfc <__aeabi_dsub+0x114>
    3f28:	2500      	movs	r5, #0
    3f2a:	e781      	b.n	3e30 <__aeabi_dsub+0x348>
    3f2c:	2100      	movs	r1, #0
    3f2e:	e78f      	b.n	3e50 <__aeabi_dsub+0x368>
    3f30:	ff7fffff 	.word	0xff7fffff
    3f34:	0023      	movs	r3, r4
    3f36:	4650      	mov	r0, sl
    3f38:	4303      	orrs	r3, r0
    3f3a:	2f00      	cmp	r7, #0
    3f3c:	d000      	beq.n	3f40 <__aeabi_dsub+0x458>
    3f3e:	e0c1      	b.n	40c4 <__aeabi_dsub+0x5dc>
    3f40:	2b00      	cmp	r3, #0
    3f42:	d100      	bne.n	3f46 <__aeabi_dsub+0x45e>
    3f44:	e101      	b.n	414a <__aeabi_dsub+0x662>
    3f46:	000b      	movs	r3, r1
    3f48:	4313      	orrs	r3, r2
    3f4a:	2b00      	cmp	r3, #0
    3f4c:	d100      	bne.n	3f50 <__aeabi_dsub+0x468>
    3f4e:	e655      	b.n	3bfc <__aeabi_dsub+0x114>
    3f50:	4452      	add	r2, sl
    3f52:	4552      	cmp	r2, sl
    3f54:	4180      	sbcs	r0, r0
    3f56:	1864      	adds	r4, r4, r1
    3f58:	4240      	negs	r0, r0
    3f5a:	1824      	adds	r4, r4, r0
    3f5c:	0016      	movs	r6, r2
    3f5e:	0223      	lsls	r3, r4, #8
    3f60:	d400      	bmi.n	3f64 <__aeabi_dsub+0x47c>
    3f62:	e6f0      	b.n	3d46 <__aeabi_dsub+0x25e>
    3f64:	4b85      	ldr	r3, [pc, #532]	; (417c <__aeabi_dsub+0x694>)
    3f66:	3701      	adds	r7, #1
    3f68:	401c      	ands	r4, r3
    3f6a:	e647      	b.n	3bfc <__aeabi_dsub+0x114>
    3f6c:	0025      	movs	r5, r4
    3f6e:	4650      	mov	r0, sl
    3f70:	4305      	orrs	r5, r0
    3f72:	bba7      	cbnz	r7, 3fde <__aeabi_dsub+0x4f6>
    3f74:	2d00      	cmp	r5, #0
    3f76:	d168      	bne.n	404a <__aeabi_dsub+0x562>
    3f78:	000c      	movs	r4, r1
    3f7a:	4314      	orrs	r4, r2
    3f7c:	2c00      	cmp	r4, #0
    3f7e:	d100      	bne.n	3f82 <__aeabi_dsub+0x49a>
    3f80:	e0bc      	b.n	40fc <__aeabi_dsub+0x614>
    3f82:	000c      	movs	r4, r1
    3f84:	0016      	movs	r6, r2
    3f86:	4698      	mov	r8, r3
    3f88:	e638      	b.n	3bfc <__aeabi_dsub+0x114>
    3f8a:	f240 77ff 	movw	r7, #2047	; 0x7ff
    3f8e:	2400      	movs	r4, #0
    3f90:	2600      	movs	r6, #0
    3f92:	e671      	b.n	3c78 <__aeabi_dsub+0x190>
    3f94:	001e      	movs	r6, r3
    3f96:	0008      	movs	r0, r1
    3f98:	3e20      	subs	r6, #32
    3f9a:	40f0      	lsrs	r0, r6
    3f9c:	0006      	movs	r6, r0
    3f9e:	2b20      	cmp	r3, #32
    3fa0:	d100      	bne.n	3fa4 <__aeabi_dsub+0x4bc>
    3fa2:	e0a9      	b.n	40f8 <__aeabi_dsub+0x610>
    3fa4:	f240 0c40 	movw	ip, #64	; 0x40
    3fa8:	4660      	mov	r0, ip
    3faa:	1ac3      	subs	r3, r0, r3
    3fac:	4099      	lsls	r1, r3
    3fae:	430a      	orrs	r2, r1
    3fb0:	1e51      	subs	r1, r2, #1
    3fb2:	418a      	sbcs	r2, r1
    3fb4:	2100      	movs	r1, #0
    3fb6:	4316      	orrs	r6, r2
    3fb8:	e67c      	b.n	3cb4 <__aeabi_dsub+0x1cc>
    3fba:	bb47      	cbnz	r7, 400e <__aeabi_dsub+0x526>
    3fbc:	0026      	movs	r6, r4
    3fbe:	4650      	mov	r0, sl
    3fc0:	4306      	orrs	r6, r0
    3fc2:	2e00      	cmp	r6, #0
    3fc4:	d100      	bne.n	3fc8 <__aeabi_dsub+0x4e0>
    3fc6:	e0ad      	b.n	4124 <__aeabi_dsub+0x63c>
    3fc8:	43db      	mvns	r3, r3
    3fca:	2b00      	cmp	r3, #0
    3fcc:	d1a2      	bne.n	3f14 <__aeabi_dsub+0x42c>
    3fce:	1886      	adds	r6, r0, r2
    3fd0:	4296      	cmp	r6, r2
    3fd2:	4192      	sbcs	r2, r2
    3fd4:	1864      	adds	r4, r4, r1
    3fd6:	4252      	negs	r2, r2
    3fd8:	18a4      	adds	r4, r4, r2
    3fda:	4667      	mov	r7, ip
    3fdc:	e670      	b.n	3cc0 <__aeabi_dsub+0x1d8>
    3fde:	2d00      	cmp	r5, #0
    3fe0:	d14c      	bne.n	407c <__aeabi_dsub+0x594>
    3fe2:	0008      	movs	r0, r1
    3fe4:	4310      	orrs	r0, r2
    3fe6:	2800      	cmp	r0, #0
    3fe8:	d100      	bne.n	3fec <__aeabi_dsub+0x504>
    3fea:	e09f      	b.n	412c <__aeabi_dsub+0x644>
    3fec:	000c      	movs	r4, r1
    3fee:	0016      	movs	r6, r2
    3ff0:	4698      	mov	r8, r3
    3ff2:	f240 77ff 	movw	r7, #2047	; 0x7ff
    3ff6:	e601      	b.n	3bfc <__aeabi_dsub+0x114>
    3ff8:	000c      	movs	r4, r1
    3ffa:	0016      	movs	r6, r2
    3ffc:	4667      	mov	r7, ip
    3ffe:	4698      	mov	r8, r3
    4000:	e5fc      	b.n	3bfc <__aeabi_dsub+0x114>
    4002:	4650      	mov	r0, sl
    4004:	4320      	orrs	r0, r4
    4006:	1e44      	subs	r4, r0, #1
    4008:	41a0      	sbcs	r0, r4
    400a:	2400      	movs	r4, #0
    400c:	e743      	b.n	3e96 <__aeabi_dsub+0x3ae>
    400e:	f240 76ff 	movw	r6, #2047	; 0x7ff
    4012:	45b4      	cmp	ip, r6
    4014:	d100      	bne.n	4018 <__aeabi_dsub+0x530>
    4016:	e782      	b.n	3f1e <__aeabi_dsub+0x436>
    4018:	2680      	movs	r6, #128	; 0x80
    401a:	0436      	lsls	r6, r6, #16
    401c:	425b      	negs	r3, r3
    401e:	4334      	orrs	r4, r6
    4020:	2b38      	cmp	r3, #56	; 0x38
    4022:	dd00      	ble.n	4026 <__aeabi_dsub+0x53e>
    4024:	e089      	b.n	413a <__aeabi_dsub+0x652>
    4026:	2b1f      	cmp	r3, #31
    4028:	dd00      	ble.n	402c <__aeabi_dsub+0x544>
    402a:	e091      	b.n	4150 <__aeabi_dsub+0x668>
    402c:	2720      	movs	r7, #32
    402e:	0026      	movs	r6, r4
    4030:	4650      	mov	r0, sl
    4032:	1aff      	subs	r7, r7, r3
    4034:	40be      	lsls	r6, r7
    4036:	40d8      	lsrs	r0, r3
    4038:	4306      	orrs	r6, r0
    403a:	4650      	mov	r0, sl
    403c:	40b8      	lsls	r0, r7
    403e:	1e47      	subs	r7, r0, #1
    4040:	41b8      	sbcs	r0, r7
    4042:	4306      	orrs	r6, r0
    4044:	40dc      	lsrs	r4, r3
    4046:	18b6      	adds	r6, r6, r2
    4048:	e7c2      	b.n	3fd0 <__aeabi_dsub+0x4e8>
    404a:	000d      	movs	r5, r1
    404c:	4315      	orrs	r5, r2
    404e:	2d00      	cmp	r5, #0
    4050:	d100      	bne.n	4054 <__aeabi_dsub+0x56c>
    4052:	e5d3      	b.n	3bfc <__aeabi_dsub+0x114>
    4054:	4650      	mov	r0, sl
    4056:	1a80      	subs	r0, r0, r2
    4058:	4582      	cmp	sl, r0
    405a:	41b6      	sbcs	r6, r6
    405c:	1a65      	subs	r5, r4, r1
    405e:	4276      	negs	r6, r6
    4060:	1bad      	subs	r5, r5, r6
    4062:	4684      	mov	ip, r0
    4064:	0228      	lsls	r0, r5, #8
    4066:	d400      	bmi.n	406a <__aeabi_dsub+0x582>
    4068:	e666      	b.n	3d38 <__aeabi_dsub+0x250>
    406a:	4650      	mov	r0, sl
    406c:	1a16      	subs	r6, r2, r0
    406e:	42b2      	cmp	r2, r6
    4070:	4192      	sbcs	r2, r2
    4072:	1b0c      	subs	r4, r1, r4
    4074:	4252      	negs	r2, r2
    4076:	1aa4      	subs	r4, r4, r2
    4078:	4698      	mov	r8, r3
    407a:	e5bf      	b.n	3bfc <__aeabi_dsub+0x114>
    407c:	000d      	movs	r5, r1
    407e:	4315      	orrs	r5, r2
    4080:	f240 77ff 	movw	r7, #2047	; 0x7ff
    4084:	2d00      	cmp	r5, #0
    4086:	d100      	bne.n	408a <__aeabi_dsub+0x5a2>
    4088:	e5b8      	b.n	3bfc <__aeabi_dsub+0x114>
    408a:	4650      	mov	r0, sl
    408c:	0766      	lsls	r6, r4, #29
    408e:	08c0      	lsrs	r0, r0, #3
    4090:	4306      	orrs	r6, r0
    4092:	2080      	movs	r0, #128	; 0x80
    4094:	08e4      	lsrs	r4, r4, #3
    4096:	0300      	lsls	r0, r0, #12
    4098:	4204      	tst	r4, r0
    409a:	d007      	beq.n	40ac <__aeabi_dsub+0x5c4>
    409c:	08cd      	lsrs	r5, r1, #3
    409e:	4205      	tst	r5, r0
    40a0:	d104      	bne.n	40ac <__aeabi_dsub+0x5c4>
    40a2:	002c      	movs	r4, r5
    40a4:	4698      	mov	r8, r3
    40a6:	08d6      	lsrs	r6, r2, #3
    40a8:	0749      	lsls	r1, r1, #29
    40aa:	430e      	orrs	r6, r1
    40ac:	0f73      	lsrs	r3, r6, #29
    40ae:	00e4      	lsls	r4, r4, #3
    40b0:	431c      	orrs	r4, r3
    40b2:	00f6      	lsls	r6, r6, #3
    40b4:	f240 77ff 	movw	r7, #2047	; 0x7ff
    40b8:	e5a0      	b.n	3bfc <__aeabi_dsub+0x114>
    40ba:	2600      	movs	r6, #0
    40bc:	f240 77ff 	movw	r7, #2047	; 0x7ff
    40c0:	2400      	movs	r4, #0
    40c2:	e5ba      	b.n	3c3a <__aeabi_dsub+0x152>
    40c4:	2b00      	cmp	r3, #0
    40c6:	d100      	bne.n	40ca <__aeabi_dsub+0x5e2>
    40c8:	e729      	b.n	3f1e <__aeabi_dsub+0x436>
    40ca:	000b      	movs	r3, r1
    40cc:	4313      	orrs	r3, r2
    40ce:	f240 77ff 	movw	r7, #2047	; 0x7ff
    40d2:	2b00      	cmp	r3, #0
    40d4:	d100      	bne.n	40d8 <__aeabi_dsub+0x5f0>
    40d6:	e591      	b.n	3bfc <__aeabi_dsub+0x114>
    40d8:	08c0      	lsrs	r0, r0, #3
    40da:	0766      	lsls	r6, r4, #29
    40dc:	4306      	orrs	r6, r0
    40de:	2080      	movs	r0, #128	; 0x80
    40e0:	08e4      	lsrs	r4, r4, #3
    40e2:	0300      	lsls	r0, r0, #12
    40e4:	4204      	tst	r4, r0
    40e6:	d0e1      	beq.n	40ac <__aeabi_dsub+0x5c4>
    40e8:	08cb      	lsrs	r3, r1, #3
    40ea:	4203      	tst	r3, r0
    40ec:	d1de      	bne.n	40ac <__aeabi_dsub+0x5c4>
    40ee:	08d6      	lsrs	r6, r2, #3
    40f0:	0749      	lsls	r1, r1, #29
    40f2:	430e      	orrs	r6, r1
    40f4:	001c      	movs	r4, r3
    40f6:	e7d9      	b.n	40ac <__aeabi_dsub+0x5c4>
    40f8:	2100      	movs	r1, #0
    40fa:	e758      	b.n	3fae <__aeabi_dsub+0x4c6>
    40fc:	2500      	movs	r5, #0
    40fe:	2600      	movs	r6, #0
    4100:	e5ba      	b.n	3c78 <__aeabi_dsub+0x190>
    4102:	002e      	movs	r6, r5
    4104:	0020      	movs	r0, r4
    4106:	3e20      	subs	r6, #32
    4108:	40f0      	lsrs	r0, r6
    410a:	0006      	movs	r6, r0
    410c:	2d20      	cmp	r5, #32
    410e:	d031      	beq.n	4174 <__aeabi_dsub+0x68c>
    4110:	2740      	movs	r7, #64	; 0x40
    4112:	1b7d      	subs	r5, r7, r5
    4114:	40ac      	lsls	r4, r5
    4116:	4650      	mov	r0, sl
    4118:	4320      	orrs	r0, r4
    411a:	1e44      	subs	r4, r0, #1
    411c:	41a0      	sbcs	r0, r4
    411e:	2400      	movs	r4, #0
    4120:	4330      	orrs	r0, r6
    4122:	e6b8      	b.n	3e96 <__aeabi_dsub+0x3ae>
    4124:	000c      	movs	r4, r1
    4126:	0016      	movs	r6, r2
    4128:	4667      	mov	r7, ip
    412a:	e567      	b.n	3bfc <__aeabi_dsub+0x114>
    412c:	2480      	movs	r4, #128	; 0x80
    412e:	2500      	movs	r5, #0
    4130:	0324      	lsls	r4, r4, #12
    4132:	f240 77ff 	movw	r7, #2047	; 0x7ff
    4136:	2600      	movs	r6, #0
    4138:	e59e      	b.n	3c78 <__aeabi_dsub+0x190>
    413a:	4650      	mov	r0, sl
    413c:	4320      	orrs	r0, r4
    413e:	0006      	movs	r6, r0
    4140:	1e70      	subs	r0, r6, #1
    4142:	4186      	sbcs	r6, r0
    4144:	2400      	movs	r4, #0
    4146:	18b6      	adds	r6, r6, r2
    4148:	e742      	b.n	3fd0 <__aeabi_dsub+0x4e8>
    414a:	000c      	movs	r4, r1
    414c:	0016      	movs	r6, r2
    414e:	e555      	b.n	3bfc <__aeabi_dsub+0x114>
    4150:	001e      	movs	r6, r3
    4152:	0020      	movs	r0, r4
    4154:	3e20      	subs	r6, #32
    4156:	40f0      	lsrs	r0, r6
    4158:	0006      	movs	r6, r0
    415a:	2b20      	cmp	r3, #32
    415c:	d00c      	beq.n	4178 <__aeabi_dsub+0x690>
    415e:	2740      	movs	r7, #64	; 0x40
    4160:	1afb      	subs	r3, r7, r3
    4162:	409c      	lsls	r4, r3
    4164:	4650      	mov	r0, sl
    4166:	4320      	orrs	r0, r4
    4168:	1e44      	subs	r4, r0, #1
    416a:	41a0      	sbcs	r0, r4
    416c:	4306      	orrs	r6, r0
    416e:	2400      	movs	r4, #0
    4170:	18b6      	adds	r6, r6, r2
    4172:	e72d      	b.n	3fd0 <__aeabi_dsub+0x4e8>
    4174:	2400      	movs	r4, #0
    4176:	e7ce      	b.n	4116 <__aeabi_dsub+0x62e>
    4178:	2400      	movs	r4, #0
    417a:	e7f3      	b.n	4164 <__aeabi_dsub+0x67c>
    417c:	ff7fffff 	.word	0xff7fffff

00004180 <__aeabi_dcmpun>:
    4180:	b570      	push	{r4, r5, r6, lr}
    4182:	f240 76ff 	movw	r6, #2047	; 0x7ff
    4186:	030d      	lsls	r5, r1, #12
    4188:	031c      	lsls	r4, r3, #12
    418a:	0049      	lsls	r1, r1, #1
    418c:	005b      	lsls	r3, r3, #1
    418e:	0b2d      	lsrs	r5, r5, #12
    4190:	0d49      	lsrs	r1, r1, #21
    4192:	0b24      	lsrs	r4, r4, #12
    4194:	0d5b      	lsrs	r3, r3, #21
    4196:	42b1      	cmp	r1, r6
    4198:	d005      	beq.n	41a6 <__aeabi_dcmpun+0x26>
    419a:	f240 71ff 	movw	r1, #2047	; 0x7ff
    419e:	2000      	movs	r0, #0
    41a0:	428b      	cmp	r3, r1
    41a2:	d009      	beq.n	41b8 <__aeabi_dcmpun+0x38>
    41a4:	bd70      	pop	{r4, r5, r6, pc}
    41a6:	4305      	orrs	r5, r0
    41a8:	2001      	movs	r0, #1
    41aa:	2d00      	cmp	r5, #0
    41ac:	d1fa      	bne.n	41a4 <__aeabi_dcmpun+0x24>
    41ae:	f240 71ff 	movw	r1, #2047	; 0x7ff
    41b2:	2000      	movs	r0, #0
    41b4:	428b      	cmp	r3, r1
    41b6:	d1f5      	bne.n	41a4 <__aeabi_dcmpun+0x24>
    41b8:	4314      	orrs	r4, r2
    41ba:	0020      	movs	r0, r4
    41bc:	1e44      	subs	r4, r0, #1
    41be:	41a0      	sbcs	r0, r4
    41c0:	e7f0      	b.n	41a4 <__aeabi_dcmpun+0x24>
    41c2:	46c0      	nop			; (mov r8, r8)

000041c4 <__aeabi_i2d>:
    41c4:	b570      	push	{r4, r5, r6, lr}
    41c6:	2800      	cmp	r0, #0
    41c8:	d038      	beq.n	423c <__aeabi_i2d+0x78>
    41ca:	17c3      	asrs	r3, r0, #31
    41cc:	18c4      	adds	r4, r0, r3
    41ce:	405c      	eors	r4, r3
    41d0:	0fc5      	lsrs	r5, r0, #31
    41d2:	0020      	movs	r0, r4
    41d4:	f000 f872 	bl	42bc <__clzsi2>
    41d8:	f240 431e 	movw	r3, #1054	; 0x41e
    41dc:	f240 4233 	movw	r2, #1075	; 0x433
    41e0:	1a1b      	subs	r3, r3, r0
    41e2:	1ad2      	subs	r2, r2, r3
    41e4:	2a1f      	cmp	r2, #31
    41e6:	dd1d      	ble.n	4224 <__aeabi_i2d+0x60>
    41e8:	f240 4213 	movw	r2, #1043	; 0x413
    41ec:	1ad2      	subs	r2, r2, r3
    41ee:	4094      	lsls	r4, r2
    41f0:	f240 72ff 	movw	r2, #2047	; 0x7ff
    41f4:	4013      	ands	r3, r2
    41f6:	2200      	movs	r2, #0
    41f8:	0324      	lsls	r4, r4, #12
    41fa:	0b24      	lsrs	r4, r4, #12
    41fc:	2100      	movs	r1, #0
    41fe:	0010      	movs	r0, r2
    4200:	0324      	lsls	r4, r4, #12
    4202:	0d0a      	lsrs	r2, r1, #20
    4204:	0b24      	lsrs	r4, r4, #12
    4206:	0512      	lsls	r2, r2, #20
    4208:	4322      	orrs	r2, r4
    420a:	f64f 74ff 	movw	r4, #65535	; 0xffff
    420e:	f2c8 040f 	movt	r4, #32783	; 0x800f
    4212:	4022      	ands	r2, r4
    4214:	051b      	lsls	r3, r3, #20
    4216:	4313      	orrs	r3, r2
    4218:	005b      	lsls	r3, r3, #1
    421a:	07ed      	lsls	r5, r5, #31
    421c:	085b      	lsrs	r3, r3, #1
    421e:	432b      	orrs	r3, r5
    4220:	0019      	movs	r1, r3
    4222:	bd70      	pop	{r4, r5, r6, pc}
    4224:	0021      	movs	r1, r4
    4226:	4091      	lsls	r1, r2
    4228:	000a      	movs	r2, r1
    422a:	210b      	movs	r1, #11
    422c:	1a08      	subs	r0, r1, r0
    422e:	40c4      	lsrs	r4, r0
    4230:	f240 71ff 	movw	r1, #2047	; 0x7ff
    4234:	0324      	lsls	r4, r4, #12
    4236:	0b24      	lsrs	r4, r4, #12
    4238:	400b      	ands	r3, r1
    423a:	e7df      	b.n	41fc <__aeabi_i2d+0x38>
    423c:	2500      	movs	r5, #0
    423e:	2300      	movs	r3, #0
    4240:	2400      	movs	r4, #0
    4242:	2200      	movs	r2, #0
    4244:	e7da      	b.n	41fc <__aeabi_i2d+0x38>
    4246:	46c0      	nop			; (mov r8, r8)

00004248 <__aeabi_ui2d>:
    4248:	b510      	push	{r4, lr}
    424a:	0004      	movs	r4, r0
    424c:	2800      	cmp	r0, #0
    424e:	d030      	beq.n	42b2 <__aeabi_ui2d+0x6a>
    4250:	f000 f834 	bl	42bc <__clzsi2>
    4254:	f240 431e 	movw	r3, #1054	; 0x41e
    4258:	f240 4233 	movw	r2, #1075	; 0x433
    425c:	1a1b      	subs	r3, r3, r0
    425e:	1ad2      	subs	r2, r2, r3
    4260:	2a1f      	cmp	r2, #31
    4262:	dd1a      	ble.n	429a <__aeabi_ui2d+0x52>
    4264:	f240 4213 	movw	r2, #1043	; 0x413
    4268:	1ad2      	subs	r2, r2, r3
    426a:	4094      	lsls	r4, r2
    426c:	f240 72ff 	movw	r2, #2047	; 0x7ff
    4270:	4013      	ands	r3, r2
    4272:	2200      	movs	r2, #0
    4274:	0324      	lsls	r4, r4, #12
    4276:	0b24      	lsrs	r4, r4, #12
    4278:	2100      	movs	r1, #0
    427a:	0010      	movs	r0, r2
    427c:	0324      	lsls	r4, r4, #12
    427e:	0d0a      	lsrs	r2, r1, #20
    4280:	0b24      	lsrs	r4, r4, #12
    4282:	0512      	lsls	r2, r2, #20
    4284:	4322      	orrs	r2, r4
    4286:	f64f 74ff 	movw	r4, #65535	; 0xffff
    428a:	f2c8 040f 	movt	r4, #32783	; 0x800f
    428e:	4022      	ands	r2, r4
    4290:	051b      	lsls	r3, r3, #20
    4292:	4313      	orrs	r3, r2
    4294:	005b      	lsls	r3, r3, #1
    4296:	0859      	lsrs	r1, r3, #1
    4298:	bd10      	pop	{r4, pc}
    429a:	0021      	movs	r1, r4
    429c:	4091      	lsls	r1, r2
    429e:	000a      	movs	r2, r1
    42a0:	210b      	movs	r1, #11
    42a2:	1a08      	subs	r0, r1, r0
    42a4:	40c4      	lsrs	r4, r0
    42a6:	f240 71ff 	movw	r1, #2047	; 0x7ff
    42aa:	0324      	lsls	r4, r4, #12
    42ac:	0b24      	lsrs	r4, r4, #12
    42ae:	400b      	ands	r3, r1
    42b0:	e7e2      	b.n	4278 <__aeabi_ui2d+0x30>
    42b2:	2300      	movs	r3, #0
    42b4:	2400      	movs	r4, #0
    42b6:	2200      	movs	r2, #0
    42b8:	e7de      	b.n	4278 <__aeabi_ui2d+0x30>
    42ba:	46c0      	nop			; (mov r8, r8)

000042bc <__clzsi2>:
    42bc:	211c      	movs	r1, #28
    42be:	2301      	movs	r3, #1
    42c0:	041b      	lsls	r3, r3, #16
    42c2:	4298      	cmp	r0, r3
    42c4:	d301      	bcc.n	42ca <__clzsi2+0xe>
    42c6:	0c00      	lsrs	r0, r0, #16
    42c8:	3910      	subs	r1, #16
    42ca:	0a1b      	lsrs	r3, r3, #8
    42cc:	4298      	cmp	r0, r3
    42ce:	d301      	bcc.n	42d4 <__clzsi2+0x18>
    42d0:	0a00      	lsrs	r0, r0, #8
    42d2:	3908      	subs	r1, #8
    42d4:	091b      	lsrs	r3, r3, #4
    42d6:	4298      	cmp	r0, r3
    42d8:	d301      	bcc.n	42de <__clzsi2+0x22>
    42da:	0900      	lsrs	r0, r0, #4
    42dc:	3904      	subs	r1, #4
    42de:	a202      	add	r2, pc, #8	; (adr r2, 42e8 <__clzsi2+0x2c>)
    42e0:	5c10      	ldrb	r0, [r2, r0]
    42e2:	1840      	adds	r0, r0, r1
    42e4:	4770      	bx	lr
    42e6:	46c0      	nop			; (mov r8, r8)
    42e8:	02020304 	.word	0x02020304
    42ec:	01010101 	.word	0x01010101
	...

000042f8 <__errno>:
    42f8:	4b01      	ldr	r3, [pc, #4]	; (4300 <__errno+0x8>)
    42fa:	6818      	ldr	r0, [r3, #0]
    42fc:	4770      	bx	lr
    42fe:	46c0      	nop			; (mov r8, r8)
    4300:	20000010 	.word	0x20000010

00004304 <__libc_init_array>:
    4304:	b570      	push	{r4, r5, r6, lr}
    4306:	2500      	movs	r5, #0
    4308:	4b0e      	ldr	r3, [pc, #56]	; (4344 <__libc_init_array+0x40>)
    430a:	4c0f      	ldr	r4, [pc, #60]	; (4348 <__libc_init_array+0x44>)
    430c:	1ae4      	subs	r4, r4, r3
    430e:	10a4      	asrs	r4, r4, #2
    4310:	42a5      	cmp	r5, r4
    4312:	d109      	bne.n	4328 <__libc_init_array+0x24>
    4314:	2500      	movs	r5, #0
    4316:	f000 f937 	bl	4588 <_init>
    431a:	4c0c      	ldr	r4, [pc, #48]	; (434c <__libc_init_array+0x48>)
    431c:	4b0c      	ldr	r3, [pc, #48]	; (4350 <__libc_init_array+0x4c>)
    431e:	1ae4      	subs	r4, r4, r3
    4320:	10a4      	asrs	r4, r4, #2
    4322:	42a5      	cmp	r5, r4
    4324:	d107      	bne.n	4336 <__libc_init_array+0x32>
    4326:	bd70      	pop	{r4, r5, r6, pc}
    4328:	4a06      	ldr	r2, [pc, #24]	; (4344 <__libc_init_array+0x40>)
    432a:	00ab      	lsls	r3, r5, #2
    432c:	189b      	adds	r3, r3, r2
    432e:	681b      	ldr	r3, [r3, #0]
    4330:	4798      	blx	r3
    4332:	3501      	adds	r5, #1
    4334:	e7ec      	b.n	4310 <__libc_init_array+0xc>
    4336:	4a06      	ldr	r2, [pc, #24]	; (4350 <__libc_init_array+0x4c>)
    4338:	00ab      	lsls	r3, r5, #2
    433a:	189b      	adds	r3, r3, r2
    433c:	681b      	ldr	r3, [r3, #0]
    433e:	4798      	blx	r3
    4340:	3501      	adds	r5, #1
    4342:	e7ee      	b.n	4322 <__libc_init_array+0x1e>
    4344:	00004594 	.word	0x00004594
    4348:	00004594 	.word	0x00004594
    434c:	00004598 	.word	0x00004598
    4350:	00004594 	.word	0x00004594

00004354 <memcpy>:
    4354:	2300      	movs	r3, #0
    4356:	b510      	push	{r4, lr}
    4358:	429a      	cmp	r2, r3
    435a:	d100      	bne.n	435e <memcpy+0xa>
    435c:	bd10      	pop	{r4, pc}
    435e:	5ccc      	ldrb	r4, [r1, r3]
    4360:	54c4      	strb	r4, [r0, r3]
    4362:	3301      	adds	r3, #1
    4364:	e7f8      	b.n	4358 <memcpy+0x4>

00004366 <strchr>:
    4366:	b2c9      	uxtb	r1, r1
    4368:	7803      	ldrb	r3, [r0, #0]
    436a:	b123      	cbz	r3, 4376 <strchr+0x10>
    436c:	4299      	cmp	r1, r3
    436e:	d100      	bne.n	4372 <strchr+0xc>
    4370:	4770      	bx	lr
    4372:	3001      	adds	r0, #1
    4374:	e7f8      	b.n	4368 <strchr+0x2>
    4376:	424b      	negs	r3, r1
    4378:	4159      	adcs	r1, r3
    437a:	4249      	negs	r1, r1
    437c:	4008      	ands	r0, r1
    437e:	e7f7      	b.n	4370 <strchr+0xa>

00004380 <strncpy>:
    4380:	b570      	push	{r4, r5, r6, lr}
    4382:	0004      	movs	r4, r0
    4384:	b902      	cbnz	r2, 4388 <strncpy+0x8>
    4386:	bd70      	pop	{r4, r5, r6, pc}
    4388:	780d      	ldrb	r5, [r1, #0]
    438a:	1e56      	subs	r6, r2, #1
    438c:	1c63      	adds	r3, r4, #1
    438e:	7025      	strb	r5, [r4, #0]
    4390:	3101      	adds	r1, #1
    4392:	b92d      	cbnz	r5, 43a0 <strncpy+0x20>
    4394:	18a4      	adds	r4, r4, r2
    4396:	429c      	cmp	r4, r3
    4398:	d0f5      	beq.n	4386 <strncpy+0x6>
    439a:	701d      	strb	r5, [r3, #0]
    439c:	3301      	adds	r3, #1
    439e:	e7fa      	b.n	4396 <strncpy+0x16>
    43a0:	001c      	movs	r4, r3
    43a2:	0032      	movs	r2, r6
    43a4:	e7ee      	b.n	4384 <strncpy+0x4>
    43a6:	0000      	movs	r0, r0
    43a8:	3b0662b5 	.word	0x3b0662b5
    43ac:	0601002c 	.word	0x0601002c
    43b0:	106e0000 	.word	0x106e0000
    43b4:	27100140 	.word	0x27100140
    43b8:	27100000 	.word	0x27100000
	...
    43c4:	012c0000 	.word	0x012c0000
    43c8:	c14f0000 	.word	0xc14f0000
    43cc:	02860003 	.word	0x02860003
    43d0:	00fe0000 	.word	0x00fe0000
    43d4:	40640000 	.word	0x40640000
    43d8:	2a0c0001 	.word	0x2a0c0001
    43dc:	010662b5 	.word	0x010662b5
    43e0:	01f00008 	.word	0x01f00008
    43e4:	00000000 	.word	0x00000000
    43e8:	2a000000 	.word	0x2a000000
    43ec:	010662b5 	.word	0x010662b5
    43f0:	02f00008 	.word	0x02f00008
    43f4:	00000000 	.word	0x00000000
    43f8:	31010000 	.word	0x31010000
    43fc:	010662b5 	.word	0x010662b5
    4400:	03f00008 	.word	0x03f00008
    4404:	00000000 	.word	0x00000000
    4408:	38020000 	.word	0x38020000
    440c:	010662b5 	.word	0x010662b5
    4410:	05f00008 	.word	0x05f00008
    4414:	00000000 	.word	0x00000000
    4418:	46040000 	.word	0x46040000

0000441c <COM_TYPE_RTCM3>:
    441c:	04010220                                          

0000441d <COM_TYPE_NMEA>:
    441d:	03040102                                         .

0000441e <COM_TYPE_UBX>:
    441e:	02030401                                         .

0000441f <COM_PORT_SPI>:
    441f:	01020304                                         .

00004420 <COM_PORT_USB>:
    4420:	00010203                                         .

00004421 <COM_PORT_UART2>:
    4421:	01000102                                         .

00004422 <COM_PORT_UART1>:
    4422:	00010001                                         .

00004423 <COM_PORT_I2C>:
	...

00004424 <SVIN_MODE_ENABLE>:
    4424:	14150001                                         .

00004425 <SVIN_MODE_DISABLE>:
	...

00004426 <UBX_ESF_INS>:
    4426:	10131415                                         .

00004427 <UBX_ESF_ALG>:
    4427:	03101314                                         .

00004428 <UBX_ESF_RESETALG>:
    4428:	02031013                                         .

00004429 <UBX_ESF_STATUS>:
    4429:	02020310                                         .

0000442a <UBX_ESF_RAW>:
    442a:	01020203                                         .

0000442b <UBX_ESF_MEAS>:
    442b:	00010202                                         .

0000442c <UBX_ACK_NONE>:
    442c:	fd000102                                         .

0000442d <UBX_ACK_ACK>:
    442d:	fefd0001                                         .

0000442e <UBX_ACK_NACK>:
	...

0000442f <UBX_RTCM_4072_1>:
    442f:	7fe6fefd                                         .

00004430 <UBX_RTCM_4072_0>:
    4430:	7c7fe6fe                                         .

00004431 <UBX_RTCM_1230>:
    4431:	617c7fe6                                         .

00004432 <UBX_RTCM_1127>:
    4432:	5e617c7f                                         .

00004433 <UBX_RTCM_1124>:
    4433:	575e617c                                         |

00004434 <UBX_RTCM_1097>:
    4434:	54575e61                                         a

00004435 <UBX_RTCM_1094>:
    4435:	4d54575e                                         ^

00004436 <UBX_RTCM_1087>:
    4436:	4a4d5457                                         W

00004437 <UBX_RTCM_1084>:
    4437:	054a4d54                                         T

00004438 <UBX_RTCM_1077>:
    4438:	f5054a4d                                         M

00004439 <UBX_RTCM_1074>:
    4439:	14f5054a                                         J

0000443a <UBX_RTCM_1005>:
    443a:	0614f505                                         .

0000443b <UBX_RTCM_MSB>:
    443b:	010614f5                                         .

0000443c <UBX_UPD_SOS>:
    443c:	03010614                                         .

0000443d <UBX_TIM_VRFY>:
    443d:	03030106                                         .

0000443e <UBX_TIM_TP>:
    443e:	13030301                                         .

0000443f <UBX_TIM_TM2>:
    443f:	32130303                                         .

00004440 <UBX_SEC_UNIQID>:
    4440:	59321303                                         .

00004441 <UBX_RXM_SFRBX>:
    4441:	15593213                                         .

00004442 <UBX_RXM_RTCM>:
    4442:	41155932                                         2

00004443 <UBX_RXM_RLM>:
    4443:	14411559                                         Y

00004444 <UBX_RXM_RAWX>:
    4444:	12144115                                         .

00004445 <UBX_RXM_PMREQ>:
    4445:	11121441                                         A

00004446 <UBX_RXM_MEASX>:
    4446:	21111214                                         .

00004447 <UBX_NAV_VELNED>:
    4447:	26211112                                         .

00004448 <UBX_NAV_VELECEF>:
    4448:	20262111                                         .

00004449 <UBX_NAV_TIMEUTC>:
    4449:	23202621                                         !

0000444a <UBX_NAV_TIMELS>:
    444a:	25232026                                         &

0000444b <UBX_NAV_TIMEGPS>:
    444b:	24252320                                          

0000444c <UBX_NAV_TIMEGLO>:
    444c:	3b242523                                         #

0000444d <UBX_NAV_TIMEGAL>:
    444d:	033b2425                                         %

0000444e <UBX_NAV_TIMEBDS>:
    444e:	43033b24                                         $

0000444f <UBX_NAV_SVIN>:
    444f:	3543033b                                         ;

00004450 <UBX_NAV_STATUS>:
    4450:	10354303                                         .

00004451 <UBX_NAV_SIG>:
    4451:	3c103543                                         C

00004452 <UBX_NAV_SAT>:
    4452:	073c1035                                         5

00004453 <UBX_NAV_RESETODO>:
    4453:	02073c10                                         .

00004454 <UBX_NAV_RELPOSNED>:
    4454:	0102073c                                         <

00004455 <UBX_NAV_PVT>:
    4455:	34010207                                         .

00004456 <UBX_NAV_POSLLH>:
    4456:	09340102                                         .

00004457 <UBX_NAV_POSECEF>:
    4457:	14093401                                         .

00004458 <UBX_NAV_ORB>:
    4458:	13140934                                         4

00004459 <UBX_NAV_ODO>:
    4459:	39131409                                         .

0000445a <UBX_NAV_HPPOSLLH>:
    445a:	61391314                                         .

0000445b <UBX_NAV_HPPOSECEF>:
    445b:	04613913                                         .

0000445c <UBX_NAV_GEOFENCE>:
    445c:	22046139                                         9

0000445d <UBX_NAV_EOE>:
    445d:	05220461                                         a

0000445e <UBX_NAV_DOP>:
    445e:	04052204                                         .

0000445f <UBX_NAV_CLOCK>:
    445f:	08040522                                         "

00004460 <UBX_NAV_ATT>:
    4460:	21080405                                         .

00004461 <UBX_MON_VER>:
    4461:	07210804                                         .

00004462 <UBX_MON_TXBUF>:
    4462:	38072108                                         .

00004463 <UBX_MON_RXR>:
    4463:	27380721                                         !

00004464 <UBX_MON_RXBUF>:
    4464:	06273807                                         .

00004465 <UBX_MON_RF>:
    4465:	02062738                                         8

00004466 <UBX_MON_PATCH>:
    4466:	09020627                                         '

00004467 <UBX_MON_MSGPP>:
    4467:	37090206                                         .

00004468 <UBX_MON_IO>:
    4468:	0b370902                                         .

00004469 <UBX_MON_HW>:
    4469:	280b3709                                         .

0000446a <UBX_MON_HW3>:
    446a:	36280b37                                         7

0000446b <UBX_MON_HW2>:
    446b:	0536280b                                         .

0000446c <UBX_MON_GNSS>:
    446c:	05053628                                         (

0000446d <UBX_MON_COMMS>:
    446d:	05050536                                         6

0000446e <UBX_MGA_QZAA_HEALTH>:
    446e:	40050505                                         .

0000446f <UBX_MGA_QZSS_ALM>:
    446f:	40400505                                         .

00004470 <UBX_MGA_QZSS_EPH>:
    4470:	40404005                                         .

00004471 <UBX_MGA_INI_EOP>:
    4471:	40404040                                         @

00004472 <UBX_MGA_INI_FREQ>:
    4472:	40404040                                         @

00004473 <UBX_MGA_INI_CLKD>:
    4473:	40404040                                         @

00004474 <UBX_MGA_INI_TIME_GNSS>:
    4474:	40404040                                         @

00004475 <UBX_MGA_INI_TIME_UTC>:
    4475:	00404040                                         @

00004476 <UBX_MGA_INI_POS_LLH>:
    4476:	00004040                                         @

00004477 <UBX_MGA_INI_POS_XYZ>:
    4477:	00000040                                         @

00004478 <UBX_MGA_GPS_IONO>:
	...

00004479 <UBX_MGA_GPS_UTC>:
	...

0000447a <UBX_MGA_GPS_HEALTH>:
	...

0000447b <UBX_MGA_GPS_ALM>:
	...

0000447c <UBX_MGA_GPS_EPH>:
	...

0000447d <UBX_MGA_GLO_TIMEOFFSET>:
    447d:	02060606                                         .

0000447e <UBX_MGA_GLO_ALM>:
    447e:	02020606                                         .

0000447f <UBX_MGA_GLO_EPH>:
    447f:	02020206                                         .

00004480 <UBX_MGA_GAL_UTC>:
    4480:	02020202                                         .

00004481 <UBX_MGA_GAL_TIMOFFSET>:
    4481:	80020202                                         .

00004482 <UBX_MGA_GAL_ALM>:
    4482:	03800202                                         .

00004483 <UBX_MGA_GAL_EPH>:
    4483:	03038002                                         .

00004484 <UBX_MGA_DBD>:
    4484:	03030380                                         .

00004485 <UBX_MGA_BDS_IONO>:
    4485:	03030303                                         .

00004486 <UBX_MGA_BDS_UTC>:
    4486:	03030303                                         .

00004487 <UBX_MGA_BDS_HEALTH>:
    4487:	60030303                                         .

00004488 <UBX_MGA_BDS_ALM>:
    4488:	04600303                                         .

00004489 <UBX_MGA_BDS_EPH>:
    4489:	09046003                                         .

0000448a <UBX_MGA_ACK_DATA0>:
    448a:	0d090460                                         `

0000448b <UBX_LOG_STRING>:
    448b:	0b0d0904                                         .

0000448c <UBX_LOG_RETRIEVE>:
    448c:	0f0b0d09                                         .

0000448d <UBX_LOG_RETRIEVESTRING>:
    448d:	080f0b0d                                         .

0000448e <UBX_LOG_RETRIEVEPOS>:
    448e:	0e080f0b                                         .

0000448f <UBX_LOG_RETRIEVEPOSEXTRA>:
    448f:	030e080f                                         .

00004490 <UBX_LOG_INFO>:
    4490:	07030e08                                         .

00004491 <UBX_LOG_FINDTIME>:
    4491:	0107030e                                         .

00004492 <UBX_LOG_ERASE>:
    4492:	03010703                                         .

00004493 <UBX_LOG_CREATE>:
    4493:	02030107                                         .

00004494 <UBX_INF_WARNING>:
    4494:	00020301                                         .

00004495 <UBX_INF_TEST>:
    4495:	04000203                                         .

00004496 <UBX_INF_NOTICE>:
    4496:	04040002                                         .

00004497 <UBX_INF_ERROR>:
	...

00004498 <UBX_INF_DEBUG>:
    4498:	02000404                                         .

00004499 <UBX_INF_CLASS>:
    4499:	01020004                                         .

0000449a <UBX_HNR_PVT>:
	...

0000449b <UBX_HNR_INS>:
    449b:	00010102                                         .

0000449c <UBX_HNR_ATT>:
    449c:	05000101                                         .

0000449d <UBX_NMEA_GSVTALKERID_MAIN>:
    449d:	04050001                                         .

0000449e <UBX_NMEA_GSVTALKERID_GNSS>:
	...

0000449f <UBX_NMEA_MAINTALKERID_GB>:
    449f:	02030405                                         .

000044a0 <UBX_NMEA_MAINTALKERID_GA>:
    44a0:	01020304                                         .

000044a1 <UBX_NMEA_MAINTALKERID_GN>:
    44a1:	00010203                                         .

000044a2 <UBX_NMEA_MAINTALKERID_GL>:
    44a2:	08000102                                         .

000044a3 <UBX_NMEA_MAINTALKERID_GP>:
    44a3:	05080001                                         .

000044a4 <UBX_NMEA_MAINTALKERID_NOTOVERRIDDEN>:
	...

000044a5 <UBX_NMEA_ZDA>:
    44a5:	410f0508                                         .

000044a6 <UBX_NMEA_VTG>:
    44a6:	04410f05                                         .

000044a7 <UBX_NMEA_VLW>:
    44a7:	0304410f                                         .

000044a8 <UBX_NMEA_TXT>:
    44a8:	07030441                                         A

000044a9 <UBX_NMEA_RMC>:
    44a9:	02070304                                         .

000044aa <UBX_NMEA_GSV>:
    44aa:	06020703                                         .

000044ab <UBX_NMEA_GST>:
    44ab:	40060207                                         .

000044ac <UBX_NMEA_GSA>:
    44ac:	0d400602                                         .

000044ad <UBX_NMEA_GRS>:
    44ad:	420d4006                                         .

000044ae <UBX_NMEA_GPQ>:
    44ae:	43420d40                                         @

000044af <UBX_NMEA_GNS>:
    44af:	0143420d                                         .

000044b0 <UBX_NMEA_GNQ>:
    44b0:	00014342                                         B

000044b1 <UBX_NMEA_GLQ>:
    44b1:	09000143                                         C

000044b2 <UBX_NMEA_GLL>:
    44b2:	44090001                                         .

000044b3 <UBX_NMEA_GGA>:
	...

000044b4 <UBX_NMEA_GBS>:
    44b4:	0a454409                                         .

000044b5 <UBX_NMEA_GBQ>:
    44b5:	f00a4544                                         D

000044b6 <UBX_NMEA_GAQ>:
    44b6:	8af00a45                                         E

000044b7 <UBX_NMEA_DTM>:
    44b7:	8b8af00a                                         .

000044b8 <UBX_NMEA_MSB>:
    44b8:	8c8b8af0                                         .

000044b9 <UBX_CFG_VALSET>:
    44b9:	1b8c8b8a                                         .

000044ba <UBX_CFG_VALGET>:
    44ba:	311b8c8b                                         .

000044bb <UBX_CFG_VALDEL>:
    44bb:	71311b8c                                         .

000044bc <UBX_CFG_USB>:
    44bc:	1671311b                                         .

000044bd <UBX_CFG_TP5>:
    44bd:	11167131                                         1

000044be <UBX_CFG_TMODE3>:
    44be:	04111671                                         q

000044bf <UBX_CFG_SBAS>:
    44bf:	34041116                                         .

000044c0 <UBX_CFG_RXM>:
    44c0:	08340411                                         .

000044c1 <UBX_CFG_RST>:
    44c1:	57083404                                         .

000044c2 <UBX_CFG_RINV>:
    44c2:	00570834                                         4

000044c3 <UBX_CFG_RATE>:
    44c3:	86005708                                         .

000044c4 <UBX_CFG_PWR>:
    44c4:	3b860057                                         W

000044c5 <UBX_CFG_PRT>:
	...

000044c6 <UBX_CFG_PMS>:
    44c6:	171e3b86                                         .

000044c7 <UBX_CFG_PM2>:
    44c7:	23171e3b                                         ;

000044c8 <UBX_CFG_ODO>:
    44c8:	2423171e                                         .

000044c9 <UBX_CFG_NMEA>:
    44c9:	01242317                                         .

000044ca <UBX_CFG_NAVX5>:
    44ca:	47012423                                         #

000044cb <UBX_CFG_NAV5>:
    44cb:	39470124                                         $

000044cc <UBX_CFG_MSG>:
    44cc:	02394701                                         .

000044cd <UBX_CFG_LOGFILTER>:
    44cd:	5c023947                                         G

000044ce <UBX_CFG_ITFM>:
    44ce:	3e5c0239                                         9

000044cf <UBX_CFG_INF>:
    44cf:	693e5c02                                         .

000044d0 <UBX_CFG_HNR>:
    44d0:	4d693e5c                                         \

000044d1 <UBX_CFG_GNSS>:
    44d1:	4c4d693e                                         >

000044d2 <UBX_CFG_GEOFENCE>:
    44d2:	564c4d69                                         i

000044d3 <UBX_CFG_ESFG>:
    44d3:	70564c4d                                         M

000044d4 <UBX_CFG_ESFA>:
    44d4:	0670564c                                         L

000044d5 <UBX_CFG_ESFALG>:
    44d5:	09067056                                         V

000044d6 <UBX_CFG_DGNSS>:
    44d6:	93090670                                         p

000044d7 <UBX_CFG_DAT>:
    44d7:	13930906                                         .

000044d8 <UBX_CFG_CFG>:
    44d8:	f0139309                                         .

000044d9 <UBX_CFG_BATCH>:
    44d9:	28f01393                                         .

000044da <UBX_CFG_ANT>:
    44da:	2728f013                                         .

000044db <UBX_CLASS_NMEA>:
    44db:	212728f0                                         .

000044dc <UBX_CLASS_HNR>:
    44dc:	13212728                                         (

000044dd <UBX_CLASS_SEC>:
    44dd:	10132127                                         '

000044de <UBX_CLASS_LOG>:
    44de:	0d101321                                         !

000044df <UBX_CLASS_MGA>:
    44df:	0b0d1013                                         .

000044e0 <UBX_CLASS_ESF>:
    44e0:	0a0b0d10                                         .

000044e1 <UBX_CLASS_TIM>:
    44e1:	090a0b0d                                         .

000044e2 <UBX_CLASS_AID>:
    44e2:	06090a0b                                         .

000044e3 <UBX_CLASS_MON>:
    44e3:	0506090a                                         .

000044e4 <UBX_CLASS_UPD>:
    44e4:	04050609                                         .

000044e5 <UBX_CLASS_CFG>:
    44e5:	02040506                                         .

000044e6 <UBX_CLASS_ACK>:
    44e6:	01020405                                         .

000044e7 <UBX_CLASS_INF>:
    44e7:	62010204                                         .

000044e8 <UBX_CLASS_RXM>:
    44e8:	b5620102                                         .

000044e9 <UBX_CLASS_NAV>:
    44e9:	70b56201                                         .

000044ea <UBX_SYNCH_2>:
    44ea:	6f70b562                                         b

000044eb <UBX_SYNCH_1>:
    44eb:	776f70b5 00000000 00000000 00000000              .pow.........

000044f8 <TWO52>:
    44f8:	00000000 43300000 00000000 c3300000     ......0C......0.
    4508:	00002f98 00002f80 00002f78 00002e44     ./.../..x/..D...
    4518:	00002f78 00002f26 00002f78 00002e44     x/..&/..x/..D...
    4528:	00002f80 00002f80 00002f26 00002e44     ./.../..&/..D...
    4538:	00002e3a 00002e3a 00002e3a 000031aa     :...:...:....1..
    4548:	000037e8 0000369c 0000369c 00003698     .7...6...6...6..
    4558:	000037ca 000037ca 000037bc 00003698     .7...7...7...6..
    4568:	000037ca 000037bc 000037ca 00003698     .7...7...7...6..
    4578:	000037d2 000037d2 000037d2 000039dc     .7...7...7...9..

00004588 <_init>:
    4588:	b5f8      	push	{r3, r4, r5, r6, r7, lr}
    458a:	46c0      	nop			; (mov r8, r8)
    458c:	bcf8      	pop	{r3, r4, r5, r6, r7}
    458e:	bc08      	pop	{r3}
    4590:	469e      	mov	lr, r3
    4592:	4770      	bx	lr

00004594 <__init_array_start>:
    4594:	00000121 	.word	0x00000121

00004598 <_fini>:
    4598:	b5f8      	push	{r3, r4, r5, r6, r7, lr}
    459a:	46c0      	nop			; (mov r8, r8)
    459c:	bcf8      	pop	{r3, r4, r5, r6, r7}
    459e:	bc08      	pop	{r3}
    45a0:	469e      	mov	lr, r3
    45a2:	4770      	bx	lr

000045a4 <__fini_array_start>:
    45a4:	000000f5 	.word	0x000000f5
