
DasAltimeter.elf:     file format elf32-littlearm

Sections:
Idx Name          Size      VMA       LMA       File off  Algn
  0 .text         000035d8  00000000  00000000  00010000  2**2
                  CONTENTS, ALLOC, LOAD, READONLY, CODE
  1 .relocate     00000438  20000000  000035d8  00020000  2**3
                  CONTENTS, ALLOC, LOAD, DATA
  2 .bss          000001b0  20000440  00003a20  00020440  2**4
                  ALLOC
  3 .stack        00002000  200005f0  00003bd0  00020440  2**0
                  ALLOC
  4 .ARM.attributes 00000028  00000000  00000000  00020438  2**0
                  CONTENTS, READONLY
  5 .comment      00000059  00000000  00000000  00020460  2**0
                  CONTENTS, READONLY
  6 .debug_frame  00000428  00000000  00000000  000204bc  2**2
                  CONTENTS, READONLY, DEBUGGING

Disassembly of section .text:

00000000 <exception_table>:
       0:	f0 25 00 20 19 01 00 00 15 01 00 00 15 01 00 00     .%. ............
	...
      2c:	15 01 00 00 00 00 00 00 00 00 00 00 15 01 00 00     ................
      3c:	15 01 00 00 15 01 00 00 15 01 00 00 15 01 00 00     ................
      4c:	d5 0d 00 00 15 01 00 00 15 01 00 00 15 01 00 00     ................
      5c:	15 01 00 00 15 01 00 00 15 01 00 00 15 01 00 00     ................
      6c:	15 01 00 00 15 01 00 00 15 01 00 00 15 01 00 00     ................
      7c:	15 01 00 00 15 01 00 00 15 01 00 00 15 01 00 00     ................
      8c:	79 0e 00 00 e1 0e 00 00 00 00 00 00 00 00 00 00     y...............
      9c:	15 01 00 00 15 01 00 00 15 01 00 00 15 01 00 00     ................
      ac:	15 01 00 00 00 00 00 00                             ........

000000b4 <__do_global_dtors_aux>:
      b4:	b510      	push	{r4, lr}
      b6:	4c06      	ldr	r4, [pc, #24]	; (d0 <__do_global_dtors_aux+0x1c>)
      b8:	7823      	ldrb	r3, [r4, #0]
      ba:	2b00      	cmp	r3, #0
      bc:	d107      	bne.n	ce <__do_global_dtors_aux+0x1a>
      be:	4b05      	ldr	r3, [pc, #20]	; (d4 <__do_global_dtors_aux+0x20>)
      c0:	2b00      	cmp	r3, #0
      c2:	d002      	beq.n	ca <__do_global_dtors_aux+0x16>
      c4:	4804      	ldr	r0, [pc, #16]	; (d8 <__do_global_dtors_aux+0x24>)
      c6:	e000      	b.n	ca <__do_global_dtors_aux+0x16>
      c8:	bf00      	nop
      ca:	2301      	movs	r3, #1
      cc:	7023      	strb	r3, [r4, #0]
      ce:	bd10      	pop	{r4, pc}
      d0:	20000440 	.word	0x20000440
      d4:	00000000 	.word	0x00000000
      d8:	000035d8 	.word	0x000035d8

000000dc <frame_dummy>:
      dc:	4b08      	ldr	r3, [pc, #32]	; (100 <frame_dummy+0x24>)
      de:	b510      	push	{r4, lr}
      e0:	2b00      	cmp	r3, #0
      e2:	d003      	beq.n	ec <frame_dummy+0x10>
      e4:	4907      	ldr	r1, [pc, #28]	; (104 <frame_dummy+0x28>)
      e6:	4808      	ldr	r0, [pc, #32]	; (108 <frame_dummy+0x2c>)
      e8:	e000      	b.n	ec <frame_dummy+0x10>
      ea:	bf00      	nop
      ec:	4807      	ldr	r0, [pc, #28]	; (10c <frame_dummy+0x30>)
      ee:	6803      	ldr	r3, [r0, #0]
      f0:	2b00      	cmp	r3, #0
      f2:	d100      	bne.n	f6 <frame_dummy+0x1a>
      f4:	bd10      	pop	{r4, pc}
      f6:	4b06      	ldr	r3, [pc, #24]	; (110 <frame_dummy+0x34>)
      f8:	2b00      	cmp	r3, #0
      fa:	d0fb      	beq.n	f4 <frame_dummy+0x18>
      fc:	4798      	blx	r3
      fe:	e7f9      	b.n	f4 <frame_dummy+0x18>
     100:	00000000 	.word	0x00000000
     104:	20000444 	.word	0x20000444
     108:	000035d8 	.word	0x000035d8
     10c:	000035d8 	.word	0x000035d8
     110:	00000000 	.word	0x00000000

00000114 <Dummy_Handler>:
     114:	e7fe      	b.n	114 <Dummy_Handler>
	...

00000118 <Reset_Handler>:
     118:	4821      	ldr	r0, [pc, #132]	; (1a0 <Reset_Handler+0x88>)
     11a:	4922      	ldr	r1, [pc, #136]	; (1a4 <Reset_Handler+0x8c>)
     11c:	b570      	push	{r4, r5, r6, lr}
     11e:	4288      	cmp	r0, r1
     120:	d004      	beq.n	12c <Reset_Handler+0x14>
     122:	2300      	movs	r3, #0
     124:	4c20      	ldr	r4, [pc, #128]	; (1a8 <Reset_Handler+0x90>)
     126:	18ca      	adds	r2, r1, r3
     128:	42a2      	cmp	r2, r4
     12a:	d332      	bcc.n	192 <Reset_Handler+0x7a>
     12c:	2100      	movs	r1, #0
     12e:	4b1f      	ldr	r3, [pc, #124]	; (1ac <Reset_Handler+0x94>)
     130:	4a1f      	ldr	r2, [pc, #124]	; (1b0 <Reset_Handler+0x98>)
     132:	4293      	cmp	r3, r2
     134:	d331      	bcc.n	19a <Reset_Handler+0x82>
     136:	21ff      	movs	r1, #255	; 0xff
     138:	4b1e      	ldr	r3, [pc, #120]	; (1b4 <Reset_Handler+0x9c>)
     13a:	4a1f      	ldr	r2, [pc, #124]	; (1b8 <Reset_Handler+0xa0>)
     13c:	438b      	bics	r3, r1
     13e:	6093      	str	r3, [r2, #8]
     140:	2202      	movs	r2, #2
     142:	250c      	movs	r5, #12
     144:	2408      	movs	r4, #8
     146:	2630      	movs	r6, #48	; 0x30
     148:	4b1c      	ldr	r3, [pc, #112]	; (1bc <Reset_Handler+0xa4>)
     14a:	481d      	ldr	r0, [pc, #116]	; (1c0 <Reset_Handler+0xa8>)
     14c:	625a      	str	r2, [r3, #36]	; 0x24
     14e:	78c3      	ldrb	r3, [r0, #3]
     150:	39fc      	subs	r1, #252	; 0xfc
     152:	438b      	bics	r3, r1
     154:	4313      	orrs	r3, r2
     156:	70c3      	strb	r3, [r0, #3]
     158:	78c3      	ldrb	r3, [r0, #3]
     15a:	43ab      	bics	r3, r5
     15c:	4323      	orrs	r3, r4
     15e:	70c3      	strb	r3, [r0, #3]
     160:	4b18      	ldr	r3, [pc, #96]	; (1c4 <Reset_Handler+0xac>)
     162:	7b98      	ldrb	r0, [r3, #14]
     164:	43b0      	bics	r0, r6
     166:	0006      	movs	r6, r0
     168:	2020      	movs	r0, #32
     16a:	4330      	orrs	r0, r6
     16c:	7398      	strb	r0, [r3, #14]
     16e:	7b98      	ldrb	r0, [r3, #14]
     170:	43a8      	bics	r0, r5
     172:	4304      	orrs	r4, r0
     174:	739c      	strb	r4, [r3, #14]
     176:	7b98      	ldrb	r0, [r3, #14]
     178:	4388      	bics	r0, r1
     17a:	4302      	orrs	r2, r0
     17c:	739a      	strb	r2, [r3, #14]
     17e:	2380      	movs	r3, #128	; 0x80
     180:	4a11      	ldr	r2, [pc, #68]	; (1c8 <Reset_Handler+0xb0>)
     182:	6851      	ldr	r1, [r2, #4]
     184:	430b      	orrs	r3, r1
     186:	6053      	str	r3, [r2, #4]
     188:	4b10      	ldr	r3, [pc, #64]	; (1cc <Reset_Handler+0xb4>)
     18a:	4798      	blx	r3
     18c:	4b10      	ldr	r3, [pc, #64]	; (1d0 <Reset_Handler+0xb8>)
     18e:	4798      	blx	r3
     190:	e7fe      	b.n	190 <Reset_Handler+0x78>
     192:	58c5      	ldr	r5, [r0, r3]
     194:	3304      	adds	r3, #4
     196:	6015      	str	r5, [r2, #0]
     198:	e7c5      	b.n	126 <Reset_Handler+0xe>
     19a:	c302      	stmia	r3!, {r1}
     19c:	e7c9      	b.n	132 <Reset_Handler+0x1a>
     19e:	46c0      	nop			; (mov r8, r8)
     1a0:	000035d8 	.word	0x000035d8
     1a4:	20000000 	.word	0x20000000
     1a8:	20000438 	.word	0x20000438
     1ac:	20000440 	.word	0x20000440
     1b0:	200005f0 	.word	0x200005f0
     1b4:	00000000 	.word	0x00000000
     1b8:	e000ed00 	.word	0xe000ed00
     1bc:	410070fc 	.word	0x410070fc
     1c0:	41005000 	.word	0x41005000
     1c4:	41004800 	.word	0x41004800
     1c8:	41004000 	.word	0x41004000
     1cc:	00003139 	.word	0x00003139
     1d0:	00000849 	.word	0x00000849

000001d4 <SystemInit>:
     1d4:	4a01      	ldr	r2, [pc, #4]	; (1dc <SystemInit+0x8>)
     1d6:	4b02      	ldr	r3, [pc, #8]	; (1e0 <SystemInit+0xc>)
     1d8:	601a      	str	r2, [r3, #0]
     1da:	4770      	bx	lr
     1dc:	000f4240 	.word	0x000f4240
     1e0:	20000000 	.word	0x20000000

000001e4 <readMS5803AdcResults>:
     1e4:	2380      	movs	r3, #128	; 0x80
     1e6:	b5f0      	push	{r4, r5, r6, r7, lr}
     1e8:	4f24      	ldr	r7, [pc, #144]	; (27c <readMS5803AdcResults+0x98>)
     1ea:	021b      	lsls	r3, r3, #8
     1ec:	617b      	str	r3, [r7, #20]
     1ee:	2300      	movs	r3, #0
     1f0:	4d23      	ldr	r5, [pc, #140]	; (280 <readMS5803AdcResults+0x9c>)
     1f2:	b087      	sub	sp, #28
     1f4:	79a9      	ldrb	r1, [r5, #6]
     1f6:	796c      	ldrb	r4, [r5, #5]
     1f8:	9300      	str	r3, [sp, #0]
     1fa:	786b      	ldrb	r3, [r5, #1]
     1fc:	782a      	ldrb	r2, [r5, #0]
     1fe:	0209      	lsls	r1, r1, #8
     200:	4321      	orrs	r1, r4
     202:	021b      	lsls	r3, r3, #8
     204:	79ec      	ldrb	r4, [r5, #7]
     206:	4313      	orrs	r3, r2
     208:	78aa      	ldrb	r2, [r5, #2]
     20a:	0424      	lsls	r4, r4, #16
     20c:	4321      	orrs	r1, r4
     20e:	0412      	lsls	r2, r2, #16
     210:	7a2c      	ldrb	r4, [r5, #8]
     212:	4313      	orrs	r3, r2
     214:	78ea      	ldrb	r2, [r5, #3]
     216:	0624      	lsls	r4, r4, #24
     218:	430c      	orrs	r4, r1
     21a:	0612      	lsls	r2, r2, #24
     21c:	7a69      	ldrb	r1, [r5, #9]
     21e:	431a      	orrs	r2, r3
     220:	0020      	movs	r0, r4
     222:	792b      	ldrb	r3, [r5, #4]
     224:	4e17      	ldr	r6, [pc, #92]	; (284 <readMS5803AdcResults+0xa0>)
     226:	9102      	str	r1, [sp, #8]
     228:	47b0      	blx	r6
     22a:	7aeb      	ldrb	r3, [r5, #11]
     22c:	7aaa      	ldrb	r2, [r5, #10]
     22e:	021b      	lsls	r3, r3, #8
     230:	431a      	orrs	r2, r3
     232:	7b2b      	ldrb	r3, [r5, #12]
     234:	4e14      	ldr	r6, [pc, #80]	; (288 <readMS5803AdcResults+0xa4>)
     236:	041b      	lsls	r3, r3, #16
     238:	4313      	orrs	r3, r2
     23a:	7b6a      	ldrb	r2, [r5, #13]
     23c:	7bad      	ldrb	r5, [r5, #14]
     23e:	0612      	lsls	r2, r2, #24
     240:	431a      	orrs	r2, r3
     242:	9902      	ldr	r1, [sp, #8]
     244:	002b      	movs	r3, r5
     246:	0020      	movs	r0, r4
     248:	9203      	str	r2, [sp, #12]
     24a:	47b0      	blx	r6
     24c:	9a03      	ldr	r2, [sp, #12]
     24e:	9004      	str	r0, [sp, #16]
     250:	002b      	movs	r3, r5
     252:	9902      	ldr	r1, [sp, #8]
     254:	0020      	movs	r0, r4
     256:	47b0      	blx	r6
     258:	9a03      	ldr	r2, [sp, #12]
     25a:	9005      	str	r0, [sp, #20]
     25c:	002b      	movs	r3, r5
     25e:	0020      	movs	r0, r4
     260:	9902      	ldr	r1, [sp, #8]
     262:	47b0      	blx	r6
     264:	2380      	movs	r3, #128	; 0x80
     266:	021b      	lsls	r3, r3, #8
     268:	61bb      	str	r3, [r7, #24]
     26a:	9b04      	ldr	r3, [sp, #16]
     26c:	9a05      	ldr	r2, [sp, #20]
     26e:	041b      	lsls	r3, r3, #16
     270:	0215      	lsls	r5, r2, #8
     272:	431d      	orrs	r5, r3
     274:	4328      	orrs	r0, r5
     276:	b007      	add	sp, #28
     278:	bdf0      	pop	{r4, r5, r6, r7, pc}
     27a:	46c0      	nop			; (mov r8, r8)
     27c:	41004400 	.word	0x41004400
     280:	00003344 	.word	0x00003344
     284:	00000b5d 	.word	0x00000b5d
     288:	00000bc9 	.word	0x00000bc9

0000028c <ConvertPressureTemperature>:
     28c:	b5f0      	push	{r4, r5, r6, r7, lr}
     28e:	240a      	movs	r4, #10
     290:	b08b      	sub	sp, #44	; 0x2c
     292:	8803      	ldrh	r3, [r0, #0]
     294:	aa02      	add	r2, sp, #8
     296:	8093      	strh	r3, [r2, #4]
     298:	8843      	ldrh	r3, [r0, #2]
     29a:	18a4      	adds	r4, r4, r2
     29c:	80d3      	strh	r3, [r2, #6]
     29e:	8883      	ldrh	r3, [r0, #4]
     2a0:	1d95      	adds	r5, r2, #6
     2a2:	8113      	strh	r3, [r2, #8]
     2a4:	88c3      	ldrh	r3, [r0, #6]
     2a6:	0006      	movs	r6, r0
     2a8:	8023      	strh	r3, [r4, #0]
     2aa:	8902      	ldrh	r2, [r0, #8]
     2ac:	ab05      	add	r3, sp, #20
     2ae:	801a      	strh	r2, [r3, #0]
     2b0:	220e      	movs	r2, #14
     2b2:	8941      	ldrh	r1, [r0, #10]
     2b4:	a802      	add	r0, sp, #8
     2b6:	1812      	adds	r2, r2, r0
     2b8:	8011      	strh	r1, [r2, #0]
     2ba:	881b      	ldrh	r3, [r3, #0]
     2bc:	6931      	ldr	r1, [r6, #16]
     2be:	021b      	lsls	r3, r3, #8
     2c0:	8810      	ldrh	r0, [r2, #0]
     2c2:	1acb      	subs	r3, r1, r3
     2c4:	9300      	str	r3, [sp, #0]
     2c6:	17db      	asrs	r3, r3, #31
     2c8:	9301      	str	r3, [sp, #4]
     2ca:	9a00      	ldr	r2, [sp, #0]
     2cc:	4f29      	ldr	r7, [pc, #164]	; (374 <ConvertPressureTemperature+0xe8>)
     2ce:	b280      	uxth	r0, r0
     2d0:	2100      	movs	r1, #0
     2d2:	47b8      	blx	r7
     2d4:	23fa      	movs	r3, #250	; 0xfa
     2d6:	00db      	lsls	r3, r3, #3
     2d8:	18c9      	adds	r1, r1, r3
     2da:	882b      	ldrh	r3, [r5, #0]
     2dc:	8820      	ldrh	r0, [r4, #0]
     2de:	b29b      	uxth	r3, r3
     2e0:	6171      	str	r1, [r6, #20]
     2e2:	001f      	movs	r7, r3
     2e4:	9a00      	ldr	r2, [sp, #0]
     2e6:	9b01      	ldr	r3, [sp, #4]
     2e8:	4c22      	ldr	r4, [pc, #136]	; (374 <ConvertPressureTemperature+0xe8>)
     2ea:	b280      	uxth	r0, r0
     2ec:	2100      	movs	r1, #0
     2ee:	47a0      	blx	r4
     2f0:	064b      	lsls	r3, r1, #25
     2f2:	09c4      	lsrs	r4, r0, #7
     2f4:	431c      	orrs	r4, r3
     2f6:	2300      	movs	r3, #0
     2f8:	11cd      	asrs	r5, r1, #7
     2fa:	043a      	lsls	r2, r7, #16
     2fc:	1912      	adds	r2, r2, r4
     2fe:	416b      	adcs	r3, r5
     300:	9206      	str	r2, [sp, #24]
     302:	9307      	str	r3, [sp, #28]
     304:	ab02      	add	r3, sp, #8
     306:	889c      	ldrh	r4, [r3, #4]
     308:	8918      	ldrh	r0, [r3, #8]
     30a:	9a00      	ldr	r2, [sp, #0]
     30c:	9b01      	ldr	r3, [sp, #4]
     30e:	4d19      	ldr	r5, [pc, #100]	; (374 <ConvertPressureTemperature+0xe8>)
     310:	b280      	uxth	r0, r0
     312:	2100      	movs	r1, #0
     314:	47a8      	blx	r5
     316:	060d      	lsls	r5, r1, #24
     318:	120b      	asrs	r3, r1, #8
     31a:	2100      	movs	r1, #0
     31c:	b2a4      	uxth	r4, r4
     31e:	0a02      	lsrs	r2, r0, #8
     320:	432a      	orrs	r2, r5
     322:	03e0      	lsls	r0, r4, #15
     324:	1812      	adds	r2, r2, r0
     326:	414b      	adcs	r3, r1
     328:	9208      	str	r2, [sp, #32]
     32a:	9309      	str	r3, [sp, #36]	; 0x24
     32c:	9a08      	ldr	r2, [sp, #32]
     32e:	9b09      	ldr	r3, [sp, #36]	; 0x24
     330:	9c06      	ldr	r4, [sp, #24]
     332:	9d07      	ldr	r5, [sp, #28]
     334:	4f0f      	ldr	r7, [pc, #60]	; (374 <ConvertPressureTemperature+0xe8>)
     336:	68f0      	ldr	r0, [r6, #12]
     338:	47b8      	blx	r7
     33a:	17cb      	asrs	r3, r1, #31
     33c:	02db      	lsls	r3, r3, #11
     33e:	469c      	mov	ip, r3
     340:	4667      	mov	r7, ip
     342:	2300      	movs	r3, #0
     344:	0afa      	lsrs	r2, r7, #11
     346:	1880      	adds	r0, r0, r2
     348:	4159      	adcs	r1, r3
     34a:	02cb      	lsls	r3, r1, #11
     34c:	469c      	mov	ip, r3
     34e:	4667      	mov	r7, ip
     350:	0d42      	lsrs	r2, r0, #21
     352:	433a      	orrs	r2, r7
     354:	154b      	asrs	r3, r1, #21
     356:	1b12      	subs	r2, r2, r4
     358:	41ab      	sbcs	r3, r5
     35a:	2100      	movs	r1, #0
     35c:	17dc      	asrs	r4, r3, #31
     35e:	0464      	lsls	r4, r4, #17
     360:	0c60      	lsrs	r0, r4, #17
     362:	1812      	adds	r2, r2, r0
     364:	414b      	adcs	r3, r1
     366:	0011      	movs	r1, r2
     368:	045b      	lsls	r3, r3, #17
     36a:	0bca      	lsrs	r2, r1, #15
     36c:	431a      	orrs	r2, r3
     36e:	61f2      	str	r2, [r6, #28]
     370:	b00b      	add	sp, #44	; 0x2c
     372:	bdf0      	pop	{r4, r5, r6, r7, pc}
     374:	00001595 	.word	0x00001595

00000378 <pascalToCent>:
     378:	210a      	movs	r1, #10
     37a:	69c3      	ldr	r3, [r0, #28]
     37c:	b570      	push	{r4, r5, r6, lr}
     37e:	4359      	muls	r1, r3
     380:	0004      	movs	r4, r0
     382:	6181      	str	r1, [r0, #24]
     384:	480f      	ldr	r0, [pc, #60]	; (3c4 <pascalToCent+0x4c>)
     386:	4281      	cmp	r1, r0
     388:	d902      	bls.n	390 <pascalToCent+0x18>
     38a:	4b0f      	ldr	r3, [pc, #60]	; (3c8 <pascalToCent+0x50>)
     38c:	6223      	str	r3, [r4, #32]
     38e:	bd70      	pop	{r4, r5, r6, pc}
     390:	1a43      	subs	r3, r0, r1
     392:	0a9b      	lsrs	r3, r3, #10
     394:	2b4b      	cmp	r3, #75	; 0x4b
     396:	d901      	bls.n	39c <pascalToCent+0x24>
     398:	4b0c      	ldr	r3, [pc, #48]	; (3cc <pascalToCent+0x54>)
     39a:	e7f7      	b.n	38c <pascalToCent+0x14>
     39c:	4d0c      	ldr	r5, [pc, #48]	; (3d0 <pascalToCent+0x58>)
     39e:	009a      	lsls	r2, r3, #2
     3a0:	029e      	lsls	r6, r3, #10
     3a2:	3301      	adds	r3, #1
     3a4:	009b      	lsls	r3, r3, #2
     3a6:	1b80      	subs	r0, r0, r6
     3a8:	18eb      	adds	r3, r5, r3
     3aa:	18aa      	adds	r2, r5, r2
     3ac:	6912      	ldr	r2, [r2, #16]
     3ae:	1a41      	subs	r1, r0, r1
     3b0:	6918      	ldr	r0, [r3, #16]
     3b2:	4b08      	ldr	r3, [pc, #32]	; (3d4 <pascalToCent+0x5c>)
     3b4:	1a80      	subs	r0, r0, r2
     3b6:	4348      	muls	r0, r1
     3b8:	0a80      	lsrs	r0, r0, #10
     3ba:	1880      	adds	r0, r0, r2
     3bc:	4798      	blx	r3
     3be:	6220      	str	r0, [r4, #32]
     3c0:	e7e5      	b.n	38e <pascalToCent+0x16>
     3c2:	46c0      	nop			; (mov r8, r8)
     3c4:	000199cc 	.word	0x000199cc
     3c8:	c6e5c000 	.word	0xc6e5c000
     3cc:	497048e0 	.word	0x497048e0
     3d0:	00003344 	.word	0x00003344
     3d4:	00002115 	.word	0x00002115

000003d8 <readMS5803Coefficients>:
     3d8:	b5f0      	push	{r4, r5, r6, r7, lr}
     3da:	27a2      	movs	r7, #162	; 0xa2
     3dc:	b087      	sub	sp, #28
     3de:	9002      	str	r0, [sp, #8]
     3e0:	2096      	movs	r0, #150	; 0x96
     3e2:	4c28      	ldr	r4, [pc, #160]	; (484 <readMS5803Coefficients+0xac>)
     3e4:	0080      	lsls	r0, r0, #2
     3e6:	47a0      	blx	r4
     3e8:	2096      	movs	r0, #150	; 0x96
     3ea:	0080      	lsls	r0, r0, #2
     3ec:	47a0      	blx	r4
     3ee:	2280      	movs	r2, #128	; 0x80
     3f0:	4c25      	ldr	r4, [pc, #148]	; (488 <readMS5803Coefficients+0xb0>)
     3f2:	4b26      	ldr	r3, [pc, #152]	; (48c <readMS5803Coefficients+0xb4>)
     3f4:	0212      	lsls	r2, r2, #8
     3f6:	615a      	str	r2, [r3, #20]
     3f8:	7863      	ldrb	r3, [r4, #1]
     3fa:	7822      	ldrb	r2, [r4, #0]
     3fc:	79a1      	ldrb	r1, [r4, #6]
     3fe:	7966      	ldrb	r6, [r4, #5]
     400:	021b      	lsls	r3, r3, #8
     402:	4313      	orrs	r3, r2
     404:	0209      	lsls	r1, r1, #8
     406:	78a2      	ldrb	r2, [r4, #2]
     408:	430e      	orrs	r6, r1
     40a:	79e1      	ldrb	r1, [r4, #7]
     40c:	0412      	lsls	r2, r2, #16
     40e:	4313      	orrs	r3, r2
     410:	7a20      	ldrb	r0, [r4, #8]
     412:	78e2      	ldrb	r2, [r4, #3]
     414:	0409      	lsls	r1, r1, #16
     416:	4331      	orrs	r1, r6
     418:	7a66      	ldrb	r6, [r4, #9]
     41a:	0612      	lsls	r2, r2, #24
     41c:	0600      	lsls	r0, r0, #24
     41e:	4308      	orrs	r0, r1
     420:	431a      	orrs	r2, r3
     422:	9700      	str	r7, [sp, #0]
     424:	7923      	ldrb	r3, [r4, #4]
     426:	0031      	movs	r1, r6
     428:	4d19      	ldr	r5, [pc, #100]	; (490 <readMS5803Coefficients+0xb8>)
     42a:	9003      	str	r0, [sp, #12]
     42c:	47a8      	blx	r5
     42e:	0022      	movs	r2, r4
     430:	7ad3      	ldrb	r3, [r2, #11]
     432:	7aa4      	ldrb	r4, [r4, #10]
     434:	021b      	lsls	r3, r3, #8
     436:	4323      	orrs	r3, r4
     438:	7b14      	ldrb	r4, [r2, #12]
     43a:	7b95      	ldrb	r5, [r2, #14]
     43c:	0424      	lsls	r4, r4, #16
     43e:	4323      	orrs	r3, r4
     440:	7b54      	ldrb	r4, [r2, #13]
     442:	0031      	movs	r1, r6
     444:	0624      	lsls	r4, r4, #24
     446:	431c      	orrs	r4, r3
     448:	0022      	movs	r2, r4
     44a:	002b      	movs	r3, r5
     44c:	9404      	str	r4, [sp, #16]
     44e:	9803      	ldr	r0, [sp, #12]
     450:	4c10      	ldr	r4, [pc, #64]	; (494 <readMS5803Coefficients+0xbc>)
     452:	47a0      	blx	r4
     454:	002b      	movs	r3, r5
     456:	9005      	str	r0, [sp, #20]
     458:	9a04      	ldr	r2, [sp, #16]
     45a:	9803      	ldr	r0, [sp, #12]
     45c:	0031      	movs	r1, r6
     45e:	4c0d      	ldr	r4, [pc, #52]	; (494 <readMS5803Coefficients+0xbc>)
     460:	47a0      	blx	r4
     462:	2280      	movs	r2, #128	; 0x80
     464:	4b09      	ldr	r3, [pc, #36]	; (48c <readMS5803Coefficients+0xb4>)
     466:	0212      	lsls	r2, r2, #8
     468:	619a      	str	r2, [r3, #24]
     46a:	9b05      	ldr	r3, [sp, #20]
     46c:	3702      	adds	r7, #2
     46e:	021d      	lsls	r5, r3, #8
     470:	9b02      	ldr	r3, [sp, #8]
     472:	4328      	orrs	r0, r5
     474:	8018      	strh	r0, [r3, #0]
     476:	b2ff      	uxtb	r7, r7
     478:	3302      	adds	r3, #2
     47a:	9302      	str	r3, [sp, #8]
     47c:	2fae      	cmp	r7, #174	; 0xae
     47e:	d1af      	bne.n	3e0 <readMS5803Coefficients+0x8>
     480:	b007      	add	sp, #28
     482:	bdf0      	pop	{r4, r5, r6, r7, pc}
     484:	00000d7d 	.word	0x00000d7d
     488:	00003344 	.word	0x00003344
     48c:	41004400 	.word	0x41004400
     490:	00000b5d 	.word	0x00000b5d
     494:	00000bc9 	.word	0x00000bc9

00000498 <initMS5803Barometer>:
     498:	b5f7      	push	{r0, r1, r2, r4, r5, r6, r7, lr}
     49a:	2680      	movs	r6, #128	; 0x80
     49c:	231e      	movs	r3, #30
     49e:	0004      	movs	r4, r0
     4a0:	4918      	ldr	r1, [pc, #96]	; (504 <initMS5803Barometer+0x6c>)
     4a2:	4d19      	ldr	r5, [pc, #100]	; (508 <initMS5803Barometer+0x70>)
     4a4:	0236      	lsls	r6, r6, #8
     4a6:	616e      	str	r6, [r5, #20]
     4a8:	9300      	str	r3, [sp, #0]
     4aa:	784b      	ldrb	r3, [r1, #1]
     4ac:	780a      	ldrb	r2, [r1, #0]
     4ae:	021b      	lsls	r3, r3, #8
     4b0:	4313      	orrs	r3, r2
     4b2:	788a      	ldrb	r2, [r1, #2]
     4b4:	1d4f      	adds	r7, r1, #5
     4b6:	0412      	lsls	r2, r2, #16
     4b8:	4313      	orrs	r3, r2
     4ba:	78ca      	ldrb	r2, [r1, #3]
     4bc:	7948      	ldrb	r0, [r1, #5]
     4be:	0612      	lsls	r2, r2, #24
     4c0:	431a      	orrs	r2, r3
     4c2:	790b      	ldrb	r3, [r1, #4]
     4c4:	7989      	ldrb	r1, [r1, #6]
     4c6:	0209      	lsls	r1, r1, #8
     4c8:	4301      	orrs	r1, r0
     4ca:	78b8      	ldrb	r0, [r7, #2]
     4cc:	0400      	lsls	r0, r0, #16
     4ce:	4301      	orrs	r1, r0
     4d0:	78f8      	ldrb	r0, [r7, #3]
     4d2:	0600      	lsls	r0, r0, #24
     4d4:	4308      	orrs	r0, r1
     4d6:	7939      	ldrb	r1, [r7, #4]
     4d8:	4f0c      	ldr	r7, [pc, #48]	; (50c <initMS5803Barometer+0x74>)
     4da:	47b8      	blx	r7
     4dc:	61ae      	str	r6, [r5, #24]
     4de:	20c8      	movs	r0, #200	; 0xc8
     4e0:	4b0b      	ldr	r3, [pc, #44]	; (510 <initMS5803Barometer+0x78>)
     4e2:	4798      	blx	r3
     4e4:	0020      	movs	r0, r4
     4e6:	4b0b      	ldr	r3, [pc, #44]	; (514 <initMS5803Barometer+0x7c>)
     4e8:	4798      	blx	r3
     4ea:	4b0b      	ldr	r3, [pc, #44]	; (518 <initMS5803Barometer+0x80>)
     4ec:	6223      	str	r3, [r4, #32]
     4ee:	4b0b      	ldr	r3, [pc, #44]	; (51c <initMS5803Barometer+0x84>)
     4f0:	61a3      	str	r3, [r4, #24]
     4f2:	4b0b      	ldr	r3, [pc, #44]	; (520 <initMS5803Barometer+0x88>)
     4f4:	60e3      	str	r3, [r4, #12]
     4f6:	4b0b      	ldr	r3, [pc, #44]	; (524 <initMS5803Barometer+0x8c>)
     4f8:	6123      	str	r3, [r4, #16]
     4fa:	23fa      	movs	r3, #250	; 0xfa
     4fc:	00db      	lsls	r3, r3, #3
     4fe:	6163      	str	r3, [r4, #20]
     500:	bdf7      	pop	{r0, r1, r2, r4, r5, r6, r7, pc}
     502:	46c0      	nop			; (mov r8, r8)
     504:	00003344 	.word	0x00003344
     508:	41004400 	.word	0x41004400
     50c:	00000b5d 	.word	0x00000b5d
     510:	00000da9 	.word	0x00000da9
     514:	000003d9 	.word	0x000003d9
     518:	457a0000 	.word	0x457a0000
     51c:	00002710 	.word	0x00002710
     520:	0041c9fe 	.word	0x0041c9fe
     524:	007ffae4 	.word	0x007ffae4

00000528 <init>:
     528:	b5f0      	push	{r4, r5, r6, r7, lr}
     52a:	4bb7      	ldr	r3, [pc, #732]	; (808 <init+0x2e0>)
     52c:	b085      	sub	sp, #20
     52e:	4798      	blx	r3
     530:	4bb6      	ldr	r3, [pc, #728]	; (80c <init+0x2e4>)
     532:	4798      	blx	r3
     534:	4bb6      	ldr	r3, [pc, #728]	; (810 <init+0x2e8>)
     536:	4798      	blx	r3
     538:	4bb6      	ldr	r3, [pc, #728]	; (814 <init+0x2ec>)
     53a:	4798      	blx	r3
     53c:	4bb6      	ldr	r3, [pc, #728]	; (818 <init+0x2f0>)
     53e:	4798      	blx	r3
     540:	4bb6      	ldr	r3, [pc, #728]	; (81c <init+0x2f4>)
     542:	4798      	blx	r3
     544:	2240      	movs	r2, #64	; 0x40
     546:	21c1      	movs	r1, #193	; 0xc1
     548:	4bb5      	ldr	r3, [pc, #724]	; (820 <init+0x2f8>)
     54a:	0089      	lsls	r1, r1, #2
     54c:	601a      	str	r2, [r3, #0]
     54e:	585a      	ldr	r2, [r3, r1]
     550:	48b4      	ldr	r0, [pc, #720]	; (824 <init+0x2fc>)
     552:	2401      	movs	r4, #1
     554:	4002      	ands	r2, r0
     556:	505a      	str	r2, [r3, r1]
     558:	4bb3      	ldr	r3, [pc, #716]	; (828 <init+0x300>)
     55a:	0019      	movs	r1, r3
     55c:	3154      	adds	r1, #84	; 0x54
     55e:	780a      	ldrb	r2, [r1, #0]
     560:	0018      	movs	r0, r3
     562:	43a2      	bics	r2, r4
     564:	700a      	strb	r2, [r1, #0]
     566:	2280      	movs	r2, #128	; 0x80
     568:	0352      	lsls	r2, r2, #13
     56a:	609a      	str	r2, [r3, #8]
     56c:	220f      	movs	r2, #15
     56e:	3033      	adds	r0, #51	; 0x33
     570:	7801      	ldrb	r1, [r0, #0]
     572:	001e      	movs	r6, r3
     574:	4391      	bics	r1, r2
     576:	4321      	orrs	r1, r4
     578:	7001      	strb	r1, [r0, #0]
     57a:	7cc1      	ldrb	r1, [r0, #19]
     57c:	36c3      	adds	r6, #195	; 0xc3
     57e:	4321      	orrs	r1, r4
     580:	74c1      	strb	r1, [r0, #19]
     582:	0019      	movs	r1, r3
     584:	2010      	movs	r0, #16
     586:	31b1      	adds	r1, #177	; 0xb1
     588:	780d      	ldrb	r5, [r1, #0]
     58a:	001f      	movs	r7, r3
     58c:	4015      	ands	r5, r2
     58e:	4305      	orrs	r5, r0
     590:	700d      	strb	r5, [r1, #0]
     592:	7835      	ldrb	r5, [r6, #0]
     594:	3788      	adds	r7, #136	; 0x88
     596:	4325      	orrs	r5, r4
     598:	7035      	strb	r5, [r6, #0]
     59a:	780d      	ldrb	r5, [r1, #0]
     59c:	4015      	ands	r5, r2
     59e:	4305      	orrs	r5, r0
     5a0:	700d      	strb	r5, [r1, #0]
     5a2:	7835      	ldrb	r5, [r6, #0]
     5a4:	4325      	orrs	r5, r4
     5a6:	7035      	strb	r5, [r6, #0]
     5a8:	7d35      	ldrb	r5, [r6, #20]
     5aa:	43a5      	bics	r5, r4
     5ac:	7535      	strb	r5, [r6, #20]
     5ae:	2580      	movs	r5, #128	; 0x80
     5b0:	042d      	lsls	r5, r5, #16
     5b2:	9703      	str	r7, [sp, #12]
     5b4:	603d      	str	r5, [r7, #0]
     5b6:	60fd      	str	r5, [r7, #12]
     5b8:	780d      	ldrb	r5, [r1, #0]
     5ba:	003e      	movs	r6, r7
     5bc:	4395      	bics	r5, r2
     5be:	4325      	orrs	r5, r4
     5c0:	700d      	strb	r5, [r1, #0]
     5c2:	25c2      	movs	r5, #194	; 0xc2
     5c4:	46ac      	mov	ip, r5
     5c6:	449c      	add	ip, r3
     5c8:	4665      	mov	r5, ip
     5ca:	4667      	mov	r7, ip
     5cc:	782d      	ldrb	r5, [r5, #0]
     5ce:	4325      	orrs	r5, r4
     5d0:	703d      	strb	r5, [r7, #0]
     5d2:	780d      	ldrb	r5, [r1, #0]
     5d4:	4395      	bics	r5, r2
     5d6:	4325      	orrs	r5, r4
     5d8:	700d      	strb	r5, [r1, #0]
     5da:	001d      	movs	r5, r3
     5dc:	7839      	ldrb	r1, [r7, #0]
     5de:	35d6      	adds	r5, #214	; 0xd6
     5e0:	4321      	orrs	r1, r4
     5e2:	7039      	strb	r1, [r7, #0]
     5e4:	7829      	ldrb	r1, [r5, #0]
     5e6:	2702      	movs	r7, #2
     5e8:	43a1      	bics	r1, r4
     5ea:	7029      	strb	r1, [r5, #0]
     5ec:	2180      	movs	r1, #128	; 0x80
     5ee:	9d03      	ldr	r5, [sp, #12]
     5f0:	03c9      	lsls	r1, r1, #15
     5f2:	6029      	str	r1, [r5, #0]
     5f4:	001d      	movs	r5, r3
     5f6:	60f1      	str	r1, [r6, #12]
     5f8:	3531      	adds	r5, #49	; 0x31
     5fa:	7829      	ldrb	r1, [r5, #0]
     5fc:	3e3f      	subs	r6, #63	; 0x3f
     5fe:	4011      	ands	r1, r2
     600:	4308      	orrs	r0, r1
     602:	7028      	strb	r0, [r5, #0]
     604:	0018      	movs	r0, r3
     606:	3043      	adds	r0, #67	; 0x43
     608:	7801      	ldrb	r1, [r0, #0]
     60a:	3801      	subs	r0, #1
     60c:	4321      	orrs	r1, r4
     60e:	7041      	strb	r1, [r0, #1]
     610:	7dc1      	ldrb	r1, [r0, #23]
     612:	46bc      	mov	ip, r7
     614:	43a1      	bics	r1, r4
     616:	75c1      	strb	r1, [r0, #23]
     618:	2180      	movs	r1, #128	; 0x80
     61a:	0489      	lsls	r1, r1, #18
     61c:	6099      	str	r1, [r3, #8]
     61e:	6159      	str	r1, [r3, #20]
     620:	7829      	ldrb	r1, [r5, #0]
     622:	4391      	bics	r1, r2
     624:	4321      	orrs	r1, r4
     626:	7029      	strb	r1, [r5, #0]
     628:	7801      	ldrb	r1, [r0, #0]
     62a:	4321      	orrs	r1, r4
     62c:	7001      	strb	r1, [r0, #0]
     62e:	7d81      	ldrb	r1, [r0, #22]
     630:	43a1      	bics	r1, r4
     632:	7581      	strb	r1, [r0, #22]
     634:	2180      	movs	r1, #128	; 0x80
     636:	0449      	lsls	r1, r1, #17
     638:	6099      	str	r1, [r3, #8]
     63a:	6159      	str	r1, [r3, #20]
     63c:	7de9      	ldrb	r1, [r5, #23]
     63e:	43a1      	bics	r1, r4
     640:	75e9      	strb	r1, [r5, #23]
     642:	2180      	movs	r1, #128	; 0x80
     644:	0049      	lsls	r1, r1, #1
     646:	6099      	str	r1, [r3, #8]
     648:	7831      	ldrb	r1, [r6, #0]
     64a:	43a1      	bics	r1, r4
     64c:	7031      	strb	r1, [r6, #0]
     64e:	2180      	movs	r1, #128	; 0x80
     650:	0089      	lsls	r1, r1, #2
     652:	6099      	str	r1, [r3, #8]
     654:	0019      	movs	r1, r3
     656:	314b      	adds	r1, #75	; 0x4b
     658:	7808      	ldrb	r0, [r1, #0]
     65a:	43a0      	bics	r0, r4
     65c:	7008      	strb	r0, [r1, #0]
     65e:	7808      	ldrb	r0, [r1, #0]
     660:	4338      	orrs	r0, r7
     662:	7008      	strb	r0, [r1, #0]
     664:	2080      	movs	r0, #128	; 0x80
     666:	0100      	lsls	r0, r0, #4
     668:	6058      	str	r0, [r3, #4]
     66a:	4870      	ldr	r0, [pc, #448]	; (82c <init+0x304>)
     66c:	371e      	adds	r7, #30
     66e:	7800      	ldrb	r0, [r0, #0]
     670:	4010      	ands	r0, r2
     672:	4338      	orrs	r0, r7
     674:	4f6d      	ldr	r7, [pc, #436]	; (82c <init+0x304>)
     676:	7038      	strb	r0, [r7, #0]
     678:	7808      	ldrb	r0, [r1, #0]
     67a:	2720      	movs	r7, #32
     67c:	4320      	orrs	r0, r4
     67e:	7008      	strb	r0, [r1, #0]
     680:	0018      	movs	r0, r3
     682:	3034      	adds	r0, #52	; 0x34
     684:	7801      	ldrb	r1, [r0, #0]
     686:	4011      	ands	r1, r2
     688:	4339      	orrs	r1, r7
     68a:	7001      	strb	r1, [r0, #0]
     68c:	7831      	ldrb	r1, [r6, #0]
     68e:	4667      	mov	r7, ip
     690:	4321      	orrs	r1, r4
     692:	7031      	strb	r1, [r6, #0]
     694:	4666      	mov	r6, ip
     696:	7801      	ldrb	r1, [r0, #0]
     698:	4391      	bics	r1, r2
     69a:	4331      	orrs	r1, r6
     69c:	7001      	strb	r1, [r0, #0]
     69e:	7de9      	ldrb	r1, [r5, #23]
     6a0:	3096      	adds	r0, #150	; 0x96
     6a2:	4321      	orrs	r1, r4
     6a4:	75e9      	strb	r1, [r5, #23]
     6a6:	7801      	ldrb	r1, [r0, #0]
     6a8:	001e      	movs	r6, r3
     6aa:	43a1      	bics	r1, r4
     6ac:	7001      	strb	r1, [r0, #0]
     6ae:	2180      	movs	r1, #128	; 0x80
     6b0:	9803      	ldr	r0, [sp, #12]
     6b2:	00c9      	lsls	r1, r1, #3
     6b4:	6001      	str	r1, [r0, #0]
     6b6:	0018      	movs	r0, r3
     6b8:	3098      	adds	r0, #152	; 0x98
     6ba:	6001      	str	r1, [r0, #0]
     6bc:	7e68      	ldrb	r0, [r5, #25]
     6be:	3651      	adds	r6, #81	; 0x51
     6c0:	43a0      	bics	r0, r4
     6c2:	7668      	strb	r0, [r5, #25]
     6c4:	6099      	str	r1, [r3, #8]
     6c6:	6199      	str	r1, [r3, #24]
     6c8:	7fe9      	ldrb	r1, [r5, #31]
     6ca:	43a1      	bics	r1, r4
     6cc:	77e9      	strb	r1, [r5, #31]
     6ce:	2180      	movs	r1, #128	; 0x80
     6d0:	0249      	lsls	r1, r1, #9
     6d2:	6099      	str	r1, [r3, #8]
     6d4:	7831      	ldrb	r1, [r6, #0]
     6d6:	43a1      	bics	r1, r4
     6d8:	7031      	strb	r1, [r6, #0]
     6da:	2180      	movs	r1, #128	; 0x80
     6dc:	0289      	lsls	r1, r1, #10
     6de:	6099      	str	r1, [r3, #8]
     6e0:	0019      	movs	r1, r3
     6e2:	3153      	adds	r1, #83	; 0x53
     6e4:	7808      	ldrb	r0, [r1, #0]
     6e6:	391b      	subs	r1, #27
     6e8:	43a0      	bics	r0, r4
     6ea:	76c8      	strb	r0, [r1, #27]
     6ec:	7ec8      	ldrb	r0, [r1, #27]
     6ee:	4338      	orrs	r0, r7
     6f0:	76c8      	strb	r0, [r1, #27]
     6f2:	001f      	movs	r7, r3
     6f4:	2080      	movs	r0, #128	; 0x80
     6f6:	3739      	adds	r7, #57	; 0x39
     6f8:	0300      	lsls	r0, r0, #12
     6fa:	6058      	str	r0, [r3, #4]
     6fc:	9703      	str	r7, [sp, #12]
     6fe:	7838      	ldrb	r0, [r7, #0]
     700:	2720      	movs	r7, #32
     702:	4010      	ands	r0, r2
     704:	4338      	orrs	r0, r7
     706:	9f03      	ldr	r7, [sp, #12]
     708:	7038      	strb	r0, [r7, #0]
     70a:	2720      	movs	r7, #32
     70c:	7ec8      	ldrb	r0, [r1, #27]
     70e:	4320      	orrs	r0, r4
     710:	76c8      	strb	r0, [r1, #27]
     712:	7808      	ldrb	r0, [r1, #0]
     714:	4010      	ands	r0, r2
     716:	4338      	orrs	r0, r7
     718:	7008      	strb	r0, [r1, #0]
     71a:	7830      	ldrb	r0, [r6, #0]
     71c:	4320      	orrs	r0, r4
     71e:	7030      	strb	r0, [r6, #0]
     720:	4666      	mov	r6, ip
     722:	7808      	ldrb	r0, [r1, #0]
     724:	4390      	bics	r0, r2
     726:	4330      	orrs	r0, r6
     728:	7008      	strb	r0, [r1, #0]
     72a:	0018      	movs	r0, r3
     72c:	7fe9      	ldrb	r1, [r5, #31]
     72e:	3052      	adds	r0, #82	; 0x52
     730:	4321      	orrs	r1, r4
     732:	77e9      	strb	r1, [r5, #31]
     734:	7801      	ldrb	r1, [r0, #0]
     736:	3806      	subs	r0, #6
     738:	43a1      	bics	r1, r4
     73a:	7181      	strb	r1, [r0, #6]
     73c:	2180      	movs	r1, #128	; 0x80
     73e:	02c9      	lsls	r1, r1, #11
     740:	6099      	str	r1, [r3, #8]
     742:	6199      	str	r1, [r3, #24]
     744:	7801      	ldrb	r1, [r0, #0]
     746:	2500      	movs	r5, #0
     748:	43a1      	bics	r1, r4
     74a:	7001      	strb	r1, [r0, #0]
     74c:	2180      	movs	r1, #128	; 0x80
     74e:	0149      	lsls	r1, r1, #5
     750:	6099      	str	r1, [r3, #8]
     752:	7881      	ldrb	r1, [r0, #2]
     754:	43a1      	bics	r1, r4
     756:	7081      	strb	r1, [r0, #2]
     758:	2180      	movs	r1, #128	; 0x80
     75a:	01c9      	lsls	r1, r1, #7
     75c:	6099      	str	r1, [r3, #8]
     75e:	0019      	movs	r1, r3
     760:	314d      	adds	r1, #77	; 0x4d
     762:	7808      	ldrb	r0, [r1, #0]
     764:	43a0      	bics	r0, r4
     766:	7008      	strb	r0, [r1, #0]
     768:	7808      	ldrb	r0, [r1, #0]
     76a:	4330      	orrs	r0, r6
     76c:	7008      	strb	r0, [r1, #0]
     76e:	2180      	movs	r1, #128	; 0x80
     770:	0018      	movs	r0, r3
     772:	0189      	lsls	r1, r1, #6
     774:	6059      	str	r1, [r3, #4]
     776:	304f      	adds	r0, #79	; 0x4f
     778:	7801      	ldrb	r1, [r0, #0]
     77a:	43a1      	bics	r1, r4
     77c:	7001      	strb	r1, [r0, #0]
     77e:	2180      	movs	r1, #128	; 0x80
     780:	0209      	lsls	r1, r1, #8
     782:	6099      	str	r1, [r3, #8]
     784:	6199      	str	r1, [r3, #24]
     786:	0019      	movs	r1, r3
     788:	3155      	adds	r1, #85	; 0x55
     78a:	7808      	ldrb	r0, [r1, #0]
     78c:	43a0      	bics	r0, r4
     78e:	7008      	strb	r0, [r1, #0]
     790:	2080      	movs	r0, #128	; 0x80
     792:	0380      	lsls	r0, r0, #14
     794:	6098      	str	r0, [r3, #8]
     796:	2040      	movs	r0, #64	; 0x40
     798:	7008      	strb	r0, [r1, #0]
     79a:	7848      	ldrb	r0, [r1, #1]
     79c:	43a0      	bics	r0, r4
     79e:	7048      	strb	r0, [r1, #1]
     7a0:	2080      	movs	r0, #128	; 0x80
     7a2:	03c0      	lsls	r0, r0, #15
     7a4:	6098      	str	r0, [r3, #8]
     7a6:	333b      	adds	r3, #59	; 0x3b
     7a8:	7818      	ldrb	r0, [r3, #0]
     7aa:	4390      	bics	r0, r2
     7ac:	0002      	movs	r2, r0
     7ae:	4332      	orrs	r2, r6
     7b0:	701a      	strb	r2, [r3, #0]
     7b2:	784b      	ldrb	r3, [r1, #1]
     7b4:	4e1e      	ldr	r6, [pc, #120]	; (830 <init+0x308>)
     7b6:	4323      	orrs	r3, r4
     7b8:	704b      	strb	r3, [r1, #1]
     7ba:	2204      	movs	r2, #4
     7bc:	2103      	movs	r1, #3
     7be:	2000      	movs	r0, #0
     7c0:	47b0      	blx	r6
     7c2:	002b      	movs	r3, r5
     7c4:	002a      	movs	r2, r5
     7c6:	0028      	movs	r0, r5
     7c8:	4f1a      	ldr	r7, [pc, #104]	; (834 <init+0x30c>)
     7ca:	9501      	str	r5, [sp, #4]
     7cc:	9500      	str	r5, [sp, #0]
     7ce:	2103      	movs	r1, #3
     7d0:	47b8      	blx	r7
     7d2:	0020      	movs	r0, r4
     7d4:	2204      	movs	r2, #4
     7d6:	2103      	movs	r1, #3
     7d8:	47b0      	blx	r6
     7da:	002b      	movs	r3, r5
     7dc:	002a      	movs	r2, r5
     7de:	0020      	movs	r0, r4
     7e0:	9501      	str	r5, [sp, #4]
     7e2:	9500      	str	r5, [sp, #0]
     7e4:	2103      	movs	r1, #3
     7e6:	47b8      	blx	r7
     7e8:	2208      	movs	r2, #8
     7ea:	2104      	movs	r1, #4
     7ec:	2003      	movs	r0, #3
     7ee:	47b0      	blx	r6
     7f0:	0021      	movs	r1, r4
     7f2:	002a      	movs	r2, r5
     7f4:	2003      	movs	r0, #3
     7f6:	4b10      	ldr	r3, [pc, #64]	; (838 <init+0x310>)
     7f8:	4c10      	ldr	r4, [pc, #64]	; (83c <init+0x314>)
     7fa:	47a0      	blx	r4
     7fc:	4b10      	ldr	r3, [pc, #64]	; (840 <init+0x318>)
     7fe:	4798      	blx	r3
     800:	4b10      	ldr	r3, [pc, #64]	; (844 <init+0x31c>)
     802:	4798      	blx	r3
     804:	b005      	add	sp, #20
     806:	bdf0      	pop	{r4, r5, r6, r7, pc}
     808:	000001d5 	.word	0x000001d5
     80c:	00000c1d 	.word	0x00000c1d
     810:	00000cb1 	.word	0x00000cb1
     814:	00000d5d 	.word	0x00000d5d
     818:	00000a7d 	.word	0x00000a7d
     81c:	00000ef9 	.word	0x00000ef9
     820:	e000e100 	.word	0xe000e100
     824:	ff00ffff 	.word	0xff00ffff
     828:	41004400 	.word	0x41004400
     82c:	41004435 	.word	0x41004435
     830:	000013e1 	.word	0x000013e1
     834:	00001441 	.word	0x00001441
     838:	0000f972 	.word	0x0000f972
     83c:	000014a5 	.word	0x000014a5
     840:	00000e29 	.word	0x00000e29
     844:	00000e91 	.word	0x00000e91

00000848 <main>:
     848:	b5f0      	push	{r4, r5, r6, r7, lr}
     84a:	4b6b      	ldr	r3, [pc, #428]	; (9f8 <main+0x1b0>)
     84c:	b0af      	sub	sp, #188	; 0xbc
     84e:	4798      	blx	r3
     850:	2300      	movs	r3, #0
     852:	ac0b      	add	r4, sp, #44	; 0x2c
     854:	7023      	strb	r3, [r4, #0]
     856:	a80d      	add	r0, sp, #52	; 0x34
     858:	4b68      	ldr	r3, [pc, #416]	; (9fc <main+0x1b4>)
     85a:	4798      	blx	r3
     85c:	25c8      	movs	r5, #200	; 0xc8
     85e:	4b68      	ldr	r3, [pc, #416]	; (a00 <main+0x1b8>)
     860:	4798      	blx	r3
     862:	006d      	lsls	r5, r5, #1
     864:	4b67      	ldr	r3, [pc, #412]	; (a04 <main+0x1bc>)
     866:	0020      	movs	r0, r4
     868:	4798      	blx	r3
     86a:	9809      	ldr	r0, [sp, #36]	; 0x24
     86c:	4e66      	ldr	r6, [pc, #408]	; (a08 <main+0x1c0>)
     86e:	4967      	ldr	r1, [pc, #412]	; (a0c <main+0x1c4>)
     870:	47b0      	blx	r6
     872:	9f09      	ldr	r7, [sp, #36]	; 0x24
     874:	4b66      	ldr	r3, [pc, #408]	; (a10 <main+0x1c8>)
     876:	1c01      	adds	r1, r0, #0
     878:	1c38      	adds	r0, r7, #0
     87a:	4798      	blx	r3
     87c:	9009      	str	r0, [sp, #36]	; 0x24
     87e:	9f09      	ldr	r7, [sp, #36]	; 0x24
     880:	4962      	ldr	r1, [pc, #392]	; (a0c <main+0x1c4>)
     882:	6ae0      	ldr	r0, [r4, #44]	; 0x2c
     884:	47b0      	blx	r6
     886:	4b63      	ldr	r3, [pc, #396]	; (a14 <main+0x1cc>)
     888:	1c39      	adds	r1, r7, #0
     88a:	4798      	blx	r3
     88c:	3d01      	subs	r5, #1
     88e:	9009      	str	r0, [sp, #36]	; 0x24
     890:	4b61      	ldr	r3, [pc, #388]	; (a18 <main+0x1d0>)
     892:	2096      	movs	r0, #150	; 0x96
     894:	b2ad      	uxth	r5, r5
     896:	4798      	blx	r3
     898:	2d00      	cmp	r5, #0
     89a:	d1e3      	bne.n	864 <main+0x1c>
     89c:	9b09      	ldr	r3, [sp, #36]	; 0x24
     89e:	6065      	str	r5, [r4, #4]
     8a0:	9308      	str	r3, [sp, #32]
     8a2:	4b5e      	ldr	r3, [pc, #376]	; (a1c <main+0x1d4>)
     8a4:	4798      	blx	r3
     8a6:	4d5e      	ldr	r5, [pc, #376]	; (a20 <main+0x1d8>)
     8a8:	782b      	ldrb	r3, [r5, #0]
     8aa:	2b00      	cmp	r3, #0
     8ac:	d01a      	beq.n	8e4 <main+0x9c>
     8ae:	0020      	movs	r0, r4
     8b0:	4b54      	ldr	r3, [pc, #336]	; (a04 <main+0x1bc>)
     8b2:	4798      	blx	r3
     8b4:	0020      	movs	r0, r4
     8b6:	4b5b      	ldr	r3, [pc, #364]	; (a24 <main+0x1dc>)
     8b8:	4798      	blx	r3
     8ba:	2300      	movs	r3, #0
     8bc:	2168      	movs	r1, #104	; 0x68
     8be:	702b      	strb	r3, [r5, #0]
     8c0:	2003      	movs	r0, #3
     8c2:	4d59      	ldr	r5, [pc, #356]	; (a28 <main+0x1e0>)
     8c4:	47a8      	blx	r5
     8c6:	2165      	movs	r1, #101	; 0x65
     8c8:	2003      	movs	r0, #3
     8ca:	47a8      	blx	r5
     8cc:	216c      	movs	r1, #108	; 0x6c
     8ce:	2003      	movs	r0, #3
     8d0:	47a8      	blx	r5
     8d2:	216c      	movs	r1, #108	; 0x6c
     8d4:	2003      	movs	r0, #3
     8d6:	47a8      	blx	r5
     8d8:	216f      	movs	r1, #111	; 0x6f
     8da:	2003      	movs	r0, #3
     8dc:	47a8      	blx	r5
     8de:	2121      	movs	r1, #33	; 0x21
     8e0:	2003      	movs	r0, #3
     8e2:	47a8      	blx	r5
     8e4:	4b51      	ldr	r3, [pc, #324]	; (a2c <main+0x1e4>)
     8e6:	781b      	ldrb	r3, [r3, #0]
     8e8:	2b00      	cmp	r3, #0
     8ea:	d002      	beq.n	8f2 <main+0xaa>
     8ec:	6863      	ldr	r3, [r4, #4]
     8ee:	3301      	adds	r3, #1
     8f0:	6063      	str	r3, [r4, #4]
     8f2:	9808      	ldr	r0, [sp, #32]
     8f4:	4d44      	ldr	r5, [pc, #272]	; (a08 <main+0x1c0>)
     8f6:	494e      	ldr	r1, [pc, #312]	; (a30 <main+0x1e8>)
     8f8:	47a8      	blx	r5
     8fa:	9f08      	ldr	r7, [sp, #32]
     8fc:	4e44      	ldr	r6, [pc, #272]	; (a10 <main+0x1c8>)
     8fe:	1c01      	adds	r1, r0, #0
     900:	1c38      	adds	r0, r7, #0
     902:	47b0      	blx	r6
     904:	9008      	str	r0, [sp, #32]
     906:	9f08      	ldr	r7, [sp, #32]
     908:	4949      	ldr	r1, [pc, #292]	; (a30 <main+0x1e8>)
     90a:	6ae0      	ldr	r0, [r4, #44]	; 0x2c
     90c:	47a8      	blx	r5
     90e:	4b41      	ldr	r3, [pc, #260]	; (a14 <main+0x1cc>)
     910:	1c39      	adds	r1, r7, #0
     912:	4798      	blx	r3
     914:	9008      	str	r0, [sp, #32]
     916:	9807      	ldr	r0, [sp, #28]
     918:	4946      	ldr	r1, [pc, #280]	; (a34 <main+0x1ec>)
     91a:	47a8      	blx	r5
     91c:	9f07      	ldr	r7, [sp, #28]
     91e:	1c01      	adds	r1, r0, #0
     920:	1c38      	adds	r0, r7, #0
     922:	47b0      	blx	r6
     924:	9007      	str	r0, [sp, #28]
     926:	9f07      	ldr	r7, [sp, #28]
     928:	4942      	ldr	r1, [pc, #264]	; (a34 <main+0x1ec>)
     92a:	6f60      	ldr	r0, [r4, #116]	; 0x74
     92c:	47a8      	blx	r5
     92e:	4b39      	ldr	r3, [pc, #228]	; (a14 <main+0x1cc>)
     930:	1c39      	adds	r1, r7, #0
     932:	4798      	blx	r3
     934:	9007      	str	r0, [sp, #28]
     936:	9804      	ldr	r0, [sp, #16]
     938:	493f      	ldr	r1, [pc, #252]	; (a38 <main+0x1f0>)
     93a:	47a8      	blx	r5
     93c:	9f04      	ldr	r7, [sp, #16]
     93e:	1c01      	adds	r1, r0, #0
     940:	1c38      	adds	r0, r7, #0
     942:	47b0      	blx	r6
     944:	9004      	str	r0, [sp, #16]
     946:	9f04      	ldr	r7, [sp, #16]
     948:	493b      	ldr	r1, [pc, #236]	; (a38 <main+0x1f0>)
     94a:	6be0      	ldr	r0, [r4, #60]	; 0x3c
     94c:	47a8      	blx	r5
     94e:	4b31      	ldr	r3, [pc, #196]	; (a14 <main+0x1cc>)
     950:	1c39      	adds	r1, r7, #0
     952:	4798      	blx	r3
     954:	9004      	str	r0, [sp, #16]
     956:	9805      	ldr	r0, [sp, #20]
     958:	4937      	ldr	r1, [pc, #220]	; (a38 <main+0x1f0>)
     95a:	9f05      	ldr	r7, [sp, #20]
     95c:	47a8      	blx	r5
     95e:	1c01      	adds	r1, r0, #0
     960:	1c38      	adds	r0, r7, #0
     962:	47b0      	blx	r6
     964:	9005      	str	r0, [sp, #20]
     966:	9f05      	ldr	r7, [sp, #20]
     968:	4933      	ldr	r1, [pc, #204]	; (a38 <main+0x1f0>)
     96a:	6c60      	ldr	r0, [r4, #68]	; 0x44
     96c:	47a8      	blx	r5
     96e:	4b29      	ldr	r3, [pc, #164]	; (a14 <main+0x1cc>)
     970:	1c39      	adds	r1, r7, #0
     972:	4798      	blx	r3
     974:	9005      	str	r0, [sp, #20]
     976:	9806      	ldr	r0, [sp, #24]
     978:	492f      	ldr	r1, [pc, #188]	; (a38 <main+0x1f0>)
     97a:	47a8      	blx	r5
     97c:	9f06      	ldr	r7, [sp, #24]
     97e:	1c01      	adds	r1, r0, #0
     980:	1c38      	adds	r0, r7, #0
     982:	47b0      	blx	r6
     984:	9006      	str	r0, [sp, #24]
     986:	9e06      	ldr	r6, [sp, #24]
     988:	492b      	ldr	r1, [pc, #172]	; (a38 <main+0x1f0>)
     98a:	6ca0      	ldr	r0, [r4, #72]	; 0x48
     98c:	47a8      	blx	r5
     98e:	1c31      	adds	r1, r6, #0
     990:	4b20      	ldr	r3, [pc, #128]	; (a14 <main+0x1cc>)
     992:	4798      	blx	r3
     994:	9006      	str	r0, [sp, #24]
     996:	9804      	ldr	r0, [sp, #16]
     998:	9904      	ldr	r1, [sp, #16]
     99a:	9b05      	ldr	r3, [sp, #20]
     99c:	9f05      	ldr	r7, [sp, #20]
     99e:	9301      	str	r3, [sp, #4]
     9a0:	9b06      	ldr	r3, [sp, #24]
     9a2:	4d26      	ldr	r5, [pc, #152]	; (a3c <main+0x1f4>)
     9a4:	9302      	str	r3, [sp, #8]
     9a6:	9b06      	ldr	r3, [sp, #24]
     9a8:	9303      	str	r3, [sp, #12]
     9aa:	47a8      	blx	r5
     9ac:	1c39      	adds	r1, r7, #0
     9ae:	1c06      	adds	r6, r0, #0
     9b0:	9801      	ldr	r0, [sp, #4]
     9b2:	47a8      	blx	r5
     9b4:	4b17      	ldr	r3, [pc, #92]	; (a14 <main+0x1cc>)
     9b6:	1c01      	adds	r1, r0, #0
     9b8:	1c30      	adds	r0, r6, #0
     9ba:	4798      	blx	r3
     9bc:	9903      	ldr	r1, [sp, #12]
     9be:	1c06      	adds	r6, r0, #0
     9c0:	9802      	ldr	r0, [sp, #8]
     9c2:	47a8      	blx	r5
     9c4:	4b13      	ldr	r3, [pc, #76]	; (a14 <main+0x1cc>)
     9c6:	1c01      	adds	r1, r0, #0
     9c8:	1c30      	adds	r0, r6, #0
     9ca:	4798      	blx	r3
     9cc:	900a      	str	r0, [sp, #40]	; 0x28
     9ce:	4b1c      	ldr	r3, [pc, #112]	; (a40 <main+0x1f8>)
     9d0:	980a      	ldr	r0, [sp, #40]	; 0x28
     9d2:	4798      	blx	r3
     9d4:	4d1b      	ldr	r5, [pc, #108]	; (a44 <main+0x1fc>)
     9d6:	4a1c      	ldr	r2, [pc, #112]	; (a48 <main+0x200>)
     9d8:	4b1c      	ldr	r3, [pc, #112]	; (a4c <main+0x204>)
     9da:	47a8      	blx	r5
     9dc:	25fa      	movs	r5, #250	; 0xfa
     9de:	006d      	lsls	r5, r5, #1
     9e0:	2800      	cmp	r0, #0
     9e2:	d100      	bne.n	9e6 <main+0x19e>
     9e4:	e75d      	b.n	8a2 <main+0x5a>
     9e6:	3d01      	subs	r5, #1
     9e8:	207a      	movs	r0, #122	; 0x7a
     9ea:	4b0b      	ldr	r3, [pc, #44]	; (a18 <main+0x1d0>)
     9ec:	b2ad      	uxth	r5, r5
     9ee:	4798      	blx	r3
     9f0:	2d00      	cmp	r5, #0
     9f2:	d1f8      	bne.n	9e6 <main+0x19e>
     9f4:	e755      	b.n	8a2 <main+0x5a>
     9f6:	46c0      	nop			; (mov r8, r8)
     9f8:	00000529 	.word	0x00000529
     9fc:	00000499 	.word	0x00000499
     a00:	00000a51 	.word	0x00000a51
     a04:	00000fc5 	.word	0x00000fc5
     a08:	0000190d 	.word	0x0000190d
     a0c:	42480000 	.word	0x42480000
     a10:	00001ddd 	.word	0x00001ddd
     a14:	000015e9 	.word	0x000015e9
     a18:	00000d7d 	.word	0x00000d7d
     a1c:	00000df1 	.word	0x00000df1
     a20:	20000462 	.word	0x20000462
     a24:	00000f59 	.word	0x00000f59
     a28:	00001501 	.word	0x00001501
     a2c:	20000460 	.word	0x20000460
     a30:	41a00000 	.word	0x41a00000
     a34:	41200000 	.word	0x41200000
     a38:	40400000 	.word	0x40400000
     a3c:	00001b9d 	.word	0x00001b9d
     a40:	00002f45 	.word	0x00002f45
     a44:	0000156d 	.word	0x0000156d
     a48:	cccccccd 	.word	0xcccccccd
     a4c:	3ff4cccc 	.word	0x3ff4cccc

00000a50 <IMUinit>:
     a50:	b570      	push	{r4, r5, r6, lr}
     a52:	4c08      	ldr	r4, [pc, #32]	; (a74 <IMUinit+0x24>)
     a54:	2580      	movs	r5, #128	; 0x80
     a56:	0023      	movs	r3, r4
     a58:	00ed      	lsls	r5, r5, #3
     a5a:	3394      	adds	r3, #148	; 0x94
     a5c:	601d      	str	r5, [r3, #0]
     a5e:	4e06      	ldr	r6, [pc, #24]	; (a78 <IMUinit+0x28>)
     a60:	210f      	movs	r1, #15
     a62:	2000      	movs	r0, #0
     a64:	47b0      	blx	r6
     a66:	3498      	adds	r4, #152	; 0x98
     a68:	210c      	movs	r1, #12
     a6a:	2000      	movs	r0, #0
     a6c:	47b0      	blx	r6
     a6e:	6025      	str	r5, [r4, #0]
     a70:	bd70      	pop	{r4, r5, r6, pc}
     a72:	46c0      	nop			; (mov r8, r8)
     a74:	41004400 	.word	0x41004400
     a78:	000014e9 	.word	0x000014e9

00000a7c <adcInit>:
     a7c:	2380      	movs	r3, #128	; 0x80
     a7e:	4a10      	ldr	r2, [pc, #64]	; (ac0 <adcInit+0x44>)
     a80:	025b      	lsls	r3, r3, #9
     a82:	6a11      	ldr	r1, [r2, #32]
     a84:	480f      	ldr	r0, [pc, #60]	; (ac4 <adcInit+0x48>)
     a86:	430b      	orrs	r3, r1
     a88:	21e0      	movs	r1, #224	; 0xe0
     a8a:	6213      	str	r3, [r2, #32]
     a8c:	4b0e      	ldr	r3, [pc, #56]	; (ac8 <adcInit+0x4c>)
     a8e:	4a0f      	ldr	r2, [pc, #60]	; (acc <adcInit+0x50>)
     a90:	00c9      	lsls	r1, r1, #3
     a92:	8099      	strh	r1, [r3, #4]
     a94:	8050      	strh	r0, [r2, #2]
     a96:	4a0e      	ldr	r2, [pc, #56]	; (ad0 <adcInit+0x54>)
     a98:	6810      	ldr	r0, [r2, #0]
     a9a:	0142      	lsls	r2, r0, #5
     a9c:	0010      	movs	r0, r2
     a9e:	4011      	ands	r1, r2
     aa0:	4a0c      	ldr	r2, [pc, #48]	; (ad4 <adcInit+0x58>)
     aa2:	6812      	ldr	r2, [r2, #0]
     aa4:	0ed2      	lsrs	r2, r2, #27
     aa6:	4302      	orrs	r2, r0
     aa8:	b2d2      	uxtb	r2, r2
     aaa:	430a      	orrs	r2, r1
     aac:	851a      	strh	r2, [r3, #40]	; 0x28
     aae:	2202      	movs	r2, #2
     ab0:	705a      	strb	r2, [r3, #1]
     ab2:	701a      	strb	r2, [r3, #0]
     ab4:	7e5a      	ldrb	r2, [r3, #25]
     ab6:	b252      	sxtb	r2, r2
     ab8:	2a00      	cmp	r2, #0
     aba:	dbfb      	blt.n	ab4 <adcInit+0x38>
     abc:	4770      	bx	lr
     abe:	46c0      	nop			; (mov r8, r8)
     ac0:	40000400 	.word	0x40000400
     ac4:	0000401e 	.word	0x0000401e
     ac8:	42004000 	.word	0x42004000
     acc:	40000c00 	.word	0x40000c00
     ad0:	00806024 	.word	0x00806024
     ad4:	00806020 	.word	0x00806020

00000ad8 <adcSample>:
     ad8:	2202      	movs	r2, #2
     ada:	4b04      	ldr	r3, [pc, #16]	; (aec <adcSample+0x14>)
     adc:	731a      	strb	r2, [r3, #12]
     ade:	3a01      	subs	r2, #1
     ae0:	7e19      	ldrb	r1, [r3, #24]
     ae2:	4211      	tst	r1, r2
     ae4:	d0fc      	beq.n	ae0 <adcSample+0x8>
     ae6:	8b58      	ldrh	r0, [r3, #26]
     ae8:	b280      	uxth	r0, r0
     aea:	4770      	bx	lr
     aec:	42004000 	.word	0x42004000

00000af0 <adc_read>:
     af0:	b537      	push	{r0, r1, r2, r4, r5, lr}
     af2:	9101      	str	r1, [sp, #4]
     af4:	2101      	movs	r1, #1
     af6:	0c02      	lsrs	r2, r0, #16
     af8:	9000      	str	r0, [sp, #0]
     afa:	b2d2      	uxtb	r2, r2
     afc:	0e00      	lsrs	r0, r0, #24
     afe:	0843      	lsrs	r3, r0, #1
     b00:	01d2      	lsls	r2, r2, #7
     b02:	189b      	adds	r3, r3, r2
     b04:	4208      	tst	r0, r1
     b06:	d01a      	beq.n	b3e <adc_read+0x4e>
     b08:	240f      	movs	r4, #15
     b0a:	4910      	ldr	r1, [pc, #64]	; (b4c <adc_read+0x5c>)
     b0c:	185b      	adds	r3, r3, r1
     b0e:	7819      	ldrb	r1, [r3, #0]
     b10:	400c      	ands	r4, r1
     b12:	2110      	movs	r1, #16
     b14:	4321      	orrs	r1, r4
     b16:	7019      	strb	r1, [r3, #0]
     b18:	4b0d      	ldr	r3, [pc, #52]	; (b50 <adc_read+0x60>)
     b1a:	1880      	adds	r0, r0, r2
     b1c:	18c0      	adds	r0, r0, r3
     b1e:	2301      	movs	r3, #1
     b20:	7802      	ldrb	r2, [r0, #0]
     b22:	4313      	orrs	r3, r2
     b24:	7003      	strb	r3, [r0, #0]
     b26:	466b      	mov	r3, sp
     b28:	221f      	movs	r2, #31
     b2a:	791b      	ldrb	r3, [r3, #4]
     b2c:	401a      	ands	r2, r3
     b2e:	23c0      	movs	r3, #192	; 0xc0
     b30:	015b      	lsls	r3, r3, #5
     b32:	4313      	orrs	r3, r2
     b34:	4a07      	ldr	r2, [pc, #28]	; (b54 <adc_read+0x64>)
     b36:	6113      	str	r3, [r2, #16]
     b38:	4b07      	ldr	r3, [pc, #28]	; (b58 <adc_read+0x68>)
     b3a:	4798      	blx	r3
     b3c:	bd3e      	pop	{r1, r2, r3, r4, r5, pc}
     b3e:	250f      	movs	r5, #15
     b40:	4c02      	ldr	r4, [pc, #8]	; (b4c <adc_read+0x5c>)
     b42:	191b      	adds	r3, r3, r4
     b44:	781c      	ldrb	r4, [r3, #0]
     b46:	43ac      	bics	r4, r5
     b48:	e7e4      	b.n	b14 <adc_read+0x24>
     b4a:	46c0      	nop			; (mov r8, r8)
     b4c:	41004430 	.word	0x41004430
     b50:	41004440 	.word	0x41004440
     b54:	42004000 	.word	0x42004000
     b58:	00000ad9 	.word	0x00000ad9

00000b5c <byteOut>:
     b5c:	0c01      	lsrs	r1, r0, #16
     b5e:	0c13      	lsrs	r3, r2, #16
     b60:	b5f0      	push	{r4, r5, r6, r7, lr}
     b62:	b2cd      	uxtb	r5, r1
     b64:	b2d9      	uxtb	r1, r3
     b66:	2301      	movs	r3, #1
     b68:	001e      	movs	r6, r3
     b6a:	0e12      	lsrs	r2, r2, #24
     b6c:	4093      	lsls	r3, r2
     b6e:	0e00      	lsrs	r0, r0, #24
     b70:	4086      	lsls	r6, r0
     b72:	001a      	movs	r2, r3
     b74:	2308      	movs	r3, #8
     b76:	0030      	movs	r0, r6
     b78:	4e11      	ldr	r6, [pc, #68]	; (bc0 <byteOut+0x64>)
     b7a:	01c9      	lsls	r1, r1, #7
     b7c:	b087      	sub	sp, #28
     b7e:	198f      	adds	r7, r1, r6
     b80:	4e10      	ldr	r6, [pc, #64]	; (bc4 <byteOut+0x68>)
     b82:	ac0c      	add	r4, sp, #48	; 0x30
     b84:	01ed      	lsls	r5, r5, #7
     b86:	19ae      	adds	r6, r5, r6
     b88:	7824      	ldrb	r4, [r4, #0]
     b8a:	9601      	str	r6, [sp, #4]
     b8c:	4e0c      	ldr	r6, [pc, #48]	; (bc0 <byteOut+0x64>)
     b8e:	46b4      	mov	ip, r6
     b90:	44ac      	add	ip, r5
     b92:	4666      	mov	r6, ip
     b94:	6030      	str	r0, [r6, #0]
     b96:	b266      	sxtb	r6, r4
     b98:	2e00      	cmp	r6, #0
     b9a:	da0e      	bge.n	bba <byteOut+0x5e>
     b9c:	4e09      	ldr	r6, [pc, #36]	; (bc4 <byteOut+0x68>)
     b9e:	46b4      	mov	ip, r6
     ba0:	448c      	add	ip, r1
     ba2:	4666      	mov	r6, ip
     ba4:	6032      	str	r2, [r6, #0]
     ba6:	9e01      	ldr	r6, [sp, #4]
     ba8:	3b01      	subs	r3, #1
     baa:	0064      	lsls	r4, r4, #1
     bac:	b2db      	uxtb	r3, r3
     bae:	6030      	str	r0, [r6, #0]
     bb0:	b2e4      	uxtb	r4, r4
     bb2:	2b00      	cmp	r3, #0
     bb4:	d1ea      	bne.n	b8c <byteOut+0x30>
     bb6:	b007      	add	sp, #28
     bb8:	bdf0      	pop	{r4, r5, r6, r7, pc}
     bba:	603a      	str	r2, [r7, #0]
     bbc:	e7f3      	b.n	ba6 <byteOut+0x4a>
     bbe:	46c0      	nop			; (mov r8, r8)
     bc0:	41004414 	.word	0x41004414
     bc4:	41004418 	.word	0x41004418

00000bc8 <byteIn>:
     bc8:	b5f0      	push	{r4, r5, r6, r7, lr}
     bca:	2501      	movs	r5, #1
     bcc:	b085      	sub	sp, #20
     bce:	0c06      	lsrs	r6, r0, #16
     bd0:	9301      	str	r3, [sp, #4]
     bd2:	b2f3      	uxtb	r3, r6
     bd4:	002e      	movs	r6, r5
     bd6:	9103      	str	r1, [sp, #12]
     bd8:	0011      	movs	r1, r2
     bda:	0c14      	lsrs	r4, r2, #16
     bdc:	9200      	str	r2, [sp, #0]
     bde:	0e02      	lsrs	r2, r0, #24
     be0:	9002      	str	r0, [sp, #8]
     be2:	4096      	lsls	r6, r2
     be4:	2000      	movs	r0, #0
     be6:	b2e2      	uxtb	r2, r4
     be8:	2408      	movs	r4, #8
     bea:	0e09      	lsrs	r1, r1, #24
     bec:	408d      	lsls	r5, r1
     bee:	490a      	ldr	r1, [pc, #40]	; (c18 <byteIn+0x50>)
     bf0:	01db      	lsls	r3, r3, #7
     bf2:	01d2      	lsls	r2, r2, #7
     bf4:	185b      	adds	r3, r3, r1
     bf6:	1852      	adds	r2, r2, r1
     bf8:	615e      	str	r6, [r3, #20]
     bfa:	6a11      	ldr	r1, [r2, #32]
     bfc:	0040      	lsls	r0, r0, #1
     bfe:	4029      	ands	r1, r5
     c00:	1e4f      	subs	r7, r1, #1
     c02:	41b9      	sbcs	r1, r7
     c04:	3c01      	subs	r4, #1
     c06:	4308      	orrs	r0, r1
     c08:	b2e4      	uxtb	r4, r4
     c0a:	b2c0      	uxtb	r0, r0
     c0c:	619e      	str	r6, [r3, #24]
     c0e:	2c00      	cmp	r4, #0
     c10:	d1f2      	bne.n	bf8 <byteIn+0x30>
     c12:	b005      	add	sp, #20
     c14:	bdf0      	pop	{r4, r5, r6, r7, pc}
     c16:	46c0      	nop			; (mov r8, r8)
     c18:	41004400 	.word	0x41004400

00000c1c <GclkInit>:
     c1c:	22c2      	movs	r2, #194	; 0xc2
     c1e:	4b19      	ldr	r3, [pc, #100]	; (c84 <GclkInit+0x68>)
     c20:	00d2      	lsls	r2, r2, #3
     c22:	b510      	push	{r4, lr}
     c24:	609a      	str	r2, [r3, #8]
     c26:	2202      	movs	r2, #2
     c28:	4817      	ldr	r0, [pc, #92]	; (c88 <GclkInit+0x6c>)
     c2a:	6841      	ldr	r1, [r0, #4]
     c2c:	4311      	orrs	r1, r2
     c2e:	6041      	str	r1, [r0, #4]
     c30:	4916      	ldr	r1, [pc, #88]	; (c8c <GclkInit+0x70>)
     c32:	8299      	strh	r1, [r3, #20]
     c34:	68d9      	ldr	r1, [r3, #12]
     c36:	4211      	tst	r1, r2
     c38:	d0fc      	beq.n	c34 <GclkInit+0x18>
     c3a:	4a15      	ldr	r2, [pc, #84]	; (c90 <GclkInit+0x74>)
     c3c:	6812      	ldr	r2, [r2, #0]
     c3e:	0e92      	lsrs	r2, r2, #26
     c40:	2a3f      	cmp	r2, #63	; 0x3f
     c42:	d100      	bne.n	c46 <GclkInit+0x2a>
     c44:	3a20      	subs	r2, #32
     c46:	4913      	ldr	r1, [pc, #76]	; (c94 <GclkInit+0x78>)
     c48:	4813      	ldr	r0, [pc, #76]	; (c98 <GclkInit+0x7c>)
     c4a:	6809      	ldr	r1, [r1, #0]
     c4c:	0589      	lsls	r1, r1, #22
     c4e:	0d89      	lsrs	r1, r1, #22
     c50:	4281      	cmp	r1, r0
     c52:	d100      	bne.n	c56 <GclkInit+0x3a>
     c54:	4911      	ldr	r1, [pc, #68]	; (c9c <GclkInit+0x80>)
     c56:	4812      	ldr	r0, [pc, #72]	; (ca0 <GclkInit+0x84>)
     c58:	8498      	strh	r0, [r3, #36]	; 0x24
     c5a:	2010      	movs	r0, #16
     c5c:	68dc      	ldr	r4, [r3, #12]
     c5e:	4204      	tst	r4, r0
     c60:	d0fc      	beq.n	c5c <GclkInit+0x40>
     c62:	0292      	lsls	r2, r2, #10
     c64:	430a      	orrs	r2, r1
     c66:	629a      	str	r2, [r3, #40]	; 0x28
     c68:	2210      	movs	r2, #16
     c6a:	68d9      	ldr	r1, [r3, #12]
     c6c:	4211      	tst	r1, r2
     c6e:	d0fc      	beq.n	c6a <GclkInit+0x4e>
     c70:	4a0c      	ldr	r2, [pc, #48]	; (ca4 <GclkInit+0x88>)
     c72:	849a      	strh	r2, [r3, #36]	; 0x24
     c74:	2280      	movs	r2, #128	; 0x80
     c76:	4b0c      	ldr	r3, [pc, #48]	; (ca8 <GclkInit+0x8c>)
     c78:	0052      	lsls	r2, r2, #1
     c7a:	609a      	str	r2, [r3, #8]
     c7c:	4a0b      	ldr	r2, [pc, #44]	; (cac <GclkInit+0x90>)
     c7e:	605a      	str	r2, [r3, #4]
     c80:	bd10      	pop	{r4, pc}
     c82:	46c0      	nop			; (mov r8, r8)
     c84:	40000800 	.word	0x40000800
     c88:	41004000 	.word	0x41004000
     c8c:	0000060e 	.word	0x0000060e
     c90:	00806024 	.word	0x00806024
     c94:	00806028 	.word	0x00806028
     c98:	000003ff 	.word	0x000003ff
     c9c:	000001ff 	.word	0x000001ff
     ca0:	00000522 	.word	0x00000522
     ca4:	000005a2 	.word	0x000005a2
     ca8:	40000c00 	.word	0x40000c00
     cac:	00010700 	.word	0x00010700

00000cb0 <RtcInit>:
     cb0:	2281      	movs	r2, #129	; 0x81
     cb2:	4b17      	ldr	r3, [pc, #92]	; (d10 <RtcInit+0x60>)
     cb4:	0052      	lsls	r2, r2, #1
     cb6:	609a      	str	r2, [r3, #8]
     cb8:	4a16      	ldr	r2, [pc, #88]	; (d14 <RtcInit+0x64>)
     cba:	605a      	str	r2, [r3, #4]
     cbc:	785a      	ldrb	r2, [r3, #1]
     cbe:	b252      	sxtb	r2, r2
     cc0:	2a00      	cmp	r2, #0
     cc2:	dbfb      	blt.n	cbc <RtcInit+0xc>
     cc4:	4a14      	ldr	r2, [pc, #80]	; (d18 <RtcInit+0x68>)
     cc6:	805a      	strh	r2, [r3, #2]
     cc8:	2204      	movs	r2, #4
     cca:	4b14      	ldr	r3, [pc, #80]	; (d1c <RtcInit+0x6c>)
     ccc:	801a      	strh	r2, [r3, #0]
     cce:	7a9a      	ldrb	r2, [r3, #10]
     cd0:	09d2      	lsrs	r2, r2, #7
     cd2:	d1fc      	bne.n	cce <RtcInit+0x1e>
     cd4:	22a0      	movs	r2, #160	; 0xa0
     cd6:	8819      	ldrh	r1, [r3, #0]
     cd8:	00d2      	lsls	r2, r2, #3
     cda:	430a      	orrs	r2, r1
     cdc:	801a      	strh	r2, [r3, #0]
     cde:	7a9a      	ldrb	r2, [r3, #10]
     ce0:	09d2      	lsrs	r2, r2, #7
     ce2:	d1fc      	bne.n	cde <RtcInit+0x2e>
     ce4:	4a0e      	ldr	r2, [pc, #56]	; (d20 <RtcInit+0x70>)
     ce6:	829a      	strh	r2, [r3, #20]
     ce8:	7a9a      	ldrb	r2, [r3, #10]
     cea:	09d2      	lsrs	r2, r2, #7
     cec:	d1fc      	bne.n	ce8 <RtcInit+0x38>
     cee:	8859      	ldrh	r1, [r3, #2]
     cf0:	4a0c      	ldr	r2, [pc, #48]	; (d24 <RtcInit+0x74>)
     cf2:	430a      	orrs	r2, r1
     cf4:	805a      	strh	r2, [r3, #2]
     cf6:	2280      	movs	r2, #128	; 0x80
     cf8:	71da      	strb	r2, [r3, #7]
     cfa:	8819      	ldrh	r1, [r3, #0]
     cfc:	3a7e      	subs	r2, #126	; 0x7e
     cfe:	430a      	orrs	r2, r1
     d00:	801a      	strh	r2, [r3, #0]
     d02:	7a9a      	ldrb	r2, [r3, #10]
     d04:	09d2      	lsrs	r2, r2, #7
     d06:	d1fc      	bne.n	d02 <RtcInit+0x52>
     d08:	4b07      	ldr	r3, [pc, #28]	; (d28 <RtcInit+0x78>)
     d0a:	3208      	adds	r2, #8
     d0c:	601a      	str	r2, [r3, #0]
     d0e:	4770      	bx	lr
     d10:	40000c00 	.word	0x40000c00
     d14:	00230002 	.word	0x00230002
     d18:	00004204 	.word	0x00004204
     d1c:	40001400 	.word	0x40001400
     d20:	000003e6 	.word	0x000003e6
     d24:	00004010 	.word	0x00004010
     d28:	e000e100 	.word	0xe000e100

00000d2c <gclkEnable>:
     d2c:	230f      	movs	r3, #15
     d2e:	4003      	ands	r3, r0
     d30:	4808      	ldr	r0, [pc, #32]	; (d54 <gclkEnable+0x28>)
     d32:	0212      	lsls	r2, r2, #8
     d34:	4002      	ands	r2, r0
     d36:	20f8      	movs	r0, #248	; 0xf8
     d38:	0209      	lsls	r1, r1, #8
     d3a:	0140      	lsls	r0, r0, #5
     d3c:	4001      	ands	r1, r0
     d3e:	2080      	movs	r0, #128	; 0x80
     d40:	b510      	push	{r4, lr}
     d42:	0240      	lsls	r0, r0, #9
     d44:	4c04      	ldr	r4, [pc, #16]	; (d58 <gclkEnable+0x2c>)
     d46:	4308      	orrs	r0, r1
     d48:	431a      	orrs	r2, r3
     d4a:	4318      	orrs	r0, r3
     d4c:	60a2      	str	r2, [r4, #8]
     d4e:	6060      	str	r0, [r4, #4]
     d50:	bd10      	pop	{r4, pc}
     d52:	46c0      	nop			; (mov r8, r8)
     d54:	00ffff00 	.word	0x00ffff00
     d58:	40000c00 	.word	0x40000c00

00000d5c <delayInit>:
     d5c:	4b04      	ldr	r3, [pc, #16]	; (d70 <delayInit+0x14>)
     d5e:	4a05      	ldr	r2, [pc, #20]	; (d74 <delayInit+0x18>)
     d60:	601a      	str	r2, [r3, #0]
     d62:	2230      	movs	r2, #48	; 0x30
     d64:	605a      	str	r2, [r3, #4]
     d66:	4b04      	ldr	r3, [pc, #16]	; (d78 <delayInit+0x1c>)
     d68:	3a2b      	subs	r2, #43	; 0x2b
     d6a:	601a      	str	r2, [r3, #0]
     d6c:	4770      	bx	lr
     d6e:	46c0      	nop			; (mov r8, r8)
     d70:	20000004 	.word	0x20000004
     d74:	0000bb80 	.word	0x0000bb80
     d78:	e000e010 	.word	0xe000e010

00000d7c <delay_us>:
     d7c:	b530      	push	{r4, r5, lr}
     d7e:	2480      	movs	r4, #128	; 0x80
     d80:	2100      	movs	r1, #0
     d82:	4b07      	ldr	r3, [pc, #28]	; (da0 <delay_us+0x24>)
     d84:	0264      	lsls	r4, r4, #9
     d86:	685a      	ldr	r2, [r3, #4]
     d88:	4b06      	ldr	r3, [pc, #24]	; (da4 <delay_us+0x28>)
     d8a:	3801      	subs	r0, #1
     d8c:	d200      	bcs.n	d90 <delay_us+0x14>
     d8e:	bd30      	pop	{r4, r5, pc}
     d90:	2a00      	cmp	r2, #0
     d92:	d0fa      	beq.n	d8a <delay_us+0xe>
     d94:	605a      	str	r2, [r3, #4]
     d96:	6099      	str	r1, [r3, #8]
     d98:	681d      	ldr	r5, [r3, #0]
     d9a:	4225      	tst	r5, r4
     d9c:	d0fc      	beq.n	d98 <delay_us+0x1c>
     d9e:	e7f4      	b.n	d8a <delay_us+0xe>
     da0:	20000004 	.word	0x20000004
     da4:	e000e010 	.word	0xe000e010

00000da8 <delay_ms>:
     da8:	b530      	push	{r4, r5, lr}
     daa:	2480      	movs	r4, #128	; 0x80
     dac:	2100      	movs	r1, #0
     dae:	4b07      	ldr	r3, [pc, #28]	; (dcc <delay_ms+0x24>)
     db0:	0264      	lsls	r4, r4, #9
     db2:	681a      	ldr	r2, [r3, #0]
     db4:	4b06      	ldr	r3, [pc, #24]	; (dd0 <delay_ms+0x28>)
     db6:	3801      	subs	r0, #1
     db8:	d200      	bcs.n	dbc <delay_ms+0x14>
     dba:	bd30      	pop	{r4, r5, pc}
     dbc:	2a00      	cmp	r2, #0
     dbe:	d0fa      	beq.n	db6 <delay_ms+0xe>
     dc0:	605a      	str	r2, [r3, #4]
     dc2:	6099      	str	r1, [r3, #8]
     dc4:	681d      	ldr	r5, [r3, #0]
     dc6:	4225      	tst	r5, r4
     dc8:	d0fc      	beq.n	dc4 <delay_ms+0x1c>
     dca:	e7f4      	b.n	db6 <delay_ms+0xe>
     dcc:	20000004 	.word	0x20000004
     dd0:	e000e010 	.word	0xe000e010

00000dd4 <RTC_Handler>:
     dd4:	21fa      	movs	r1, #250	; 0xfa
     dd6:	4a04      	ldr	r2, [pc, #16]	; (de8 <RTC_Handler+0x14>)
     dd8:	0089      	lsls	r1, r1, #2
     dda:	6813      	ldr	r3, [r2, #0]
     ddc:	185b      	adds	r3, r3, r1
     dde:	6013      	str	r3, [r2, #0]
     de0:	22ff      	movs	r2, #255	; 0xff
     de2:	4b02      	ldr	r3, [pc, #8]	; (dec <RTC_Handler+0x18>)
     de4:	721a      	strb	r2, [r3, #8]
     de6:	4770      	bx	lr
     de8:	2000045c 	.word	0x2000045c
     dec:	40001400 	.word	0x40001400

00000df0 <millis>:
     df0:	b530      	push	{r4, r5, lr}
     df2:	f3ef 8110 	mrs	r1, PRIMASK
     df6:	b672      	cpsid	i
     df8:	4b09      	ldr	r3, [pc, #36]	; (e20 <millis+0x30>)
     dfa:	4c0a      	ldr	r4, [pc, #40]	; (e24 <millis+0x34>)
     dfc:	8a18      	ldrh	r0, [r3, #16]
     dfe:	6825      	ldr	r5, [r4, #0]
     e00:	7a1a      	ldrb	r2, [r3, #8]
     e02:	b280      	uxth	r0, r0
     e04:	09d2      	lsrs	r2, r2, #7
     e06:	1940      	adds	r0, r0, r5
     e08:	2a00      	cmp	r2, #0
     e0a:	d005      	beq.n	e18 <millis+0x28>
     e0c:	22fa      	movs	r2, #250	; 0xfa
     e0e:	8a1b      	ldrh	r3, [r3, #16]
     e10:	6820      	ldr	r0, [r4, #0]
     e12:	0092      	lsls	r2, r2, #2
     e14:	1880      	adds	r0, r0, r2
     e16:	18c0      	adds	r0, r0, r3
     e18:	f381 8810 	msr	PRIMASK, r1
     e1c:	bd30      	pop	{r4, r5, pc}
     e1e:	46c0      	nop			; (mov r8, r8)
     e20:	40001400 	.word	0x40001400
     e24:	2000045c 	.word	0x2000045c

00000e28 <TC4Init>:
     e28:	4a0d      	ldr	r2, [pc, #52]	; (e60 <TC4Init+0x38>)
     e2a:	4b0e      	ldr	r3, [pc, #56]	; (e64 <TC4Init+0x3c>)
     e2c:	805a      	strh	r2, [r3, #2]
     e2e:	2380      	movs	r3, #128	; 0x80
     e30:	4a0d      	ldr	r2, [pc, #52]	; (e68 <TC4Init+0x40>)
     e32:	015b      	lsls	r3, r3, #5
     e34:	6a11      	ldr	r1, [r2, #32]
     e36:	430b      	orrs	r3, r1
     e38:	6213      	str	r3, [r2, #32]
     e3a:	4b0c      	ldr	r3, [pc, #48]	; (e6c <TC4Init+0x44>)
     e3c:	4a0c      	ldr	r2, [pc, #48]	; (e70 <TC4Init+0x48>)
     e3e:	801a      	strh	r2, [r3, #0]
     e40:	2241      	movs	r2, #65	; 0x41
     e42:	751a      	strb	r2, [r3, #20]
     e44:	3a40      	subs	r2, #64	; 0x40
     e46:	735a      	strb	r2, [r3, #13]
     e48:	32ff      	adds	r2, #255	; 0xff
     e4a:	815a      	strh	r2, [r3, #10]
     e4c:	8819      	ldrh	r1, [r3, #0]
     e4e:	3afe      	subs	r2, #254	; 0xfe
     e50:	430a      	orrs	r2, r1
     e52:	801a      	strh	r2, [r3, #0]
     e54:	2280      	movs	r2, #128	; 0x80
     e56:	4b07      	ldr	r3, [pc, #28]	; (e74 <TC4Init+0x4c>)
     e58:	0312      	lsls	r2, r2, #12
     e5a:	601a      	str	r2, [r3, #0]
     e5c:	4770      	bx	lr
     e5e:	46c0      	nop			; (mov r8, r8)
     e60:	0000421c 	.word	0x0000421c
     e64:	40000c00 	.word	0x40000c00
     e68:	40000400 	.word	0x40000400
     e6c:	42003000 	.word	0x42003000
     e70:	00000904 	.word	0x00000904
     e74:	e000e100 	.word	0xe000e100

00000e78 <TC4_Handler>:
     e78:	22ff      	movs	r2, #255	; 0xff
     e7a:	4b03      	ldr	r3, [pc, #12]	; (e88 <TC4_Handler+0x10>)
     e7c:	739a      	strb	r2, [r3, #14]
     e7e:	4b03      	ldr	r3, [pc, #12]	; (e8c <TC4_Handler+0x14>)
     e80:	3afe      	subs	r2, #254	; 0xfe
     e82:	701a      	strb	r2, [r3, #0]
     e84:	4770      	bx	lr
     e86:	46c0      	nop			; (mov r8, r8)
     e88:	42003000 	.word	0x42003000
     e8c:	20000462 	.word	0x20000462

00000e90 <TC5Init>:
     e90:	4a0d      	ldr	r2, [pc, #52]	; (ec8 <TC5Init+0x38>)
     e92:	4b0e      	ldr	r3, [pc, #56]	; (ecc <TC5Init+0x3c>)
     e94:	805a      	strh	r2, [r3, #2]
     e96:	2380      	movs	r3, #128	; 0x80
     e98:	4a0d      	ldr	r2, [pc, #52]	; (ed0 <TC5Init+0x40>)
     e9a:	019b      	lsls	r3, r3, #6
     e9c:	6a11      	ldr	r1, [r2, #32]
     e9e:	430b      	orrs	r3, r1
     ea0:	6213      	str	r3, [r2, #32]
     ea2:	4b0c      	ldr	r3, [pc, #48]	; (ed4 <TC5Init+0x44>)
     ea4:	4a0c      	ldr	r2, [pc, #48]	; (ed8 <TC5Init+0x48>)
     ea6:	801a      	strh	r2, [r3, #0]
     ea8:	2280      	movs	r2, #128	; 0x80
     eaa:	751a      	strb	r2, [r3, #20]
     eac:	3a7f      	subs	r2, #127	; 0x7f
     eae:	735a      	strb	r2, [r3, #13]
     eb0:	32ff      	adds	r2, #255	; 0xff
     eb2:	815a      	strh	r2, [r3, #10]
     eb4:	8819      	ldrh	r1, [r3, #0]
     eb6:	3afe      	subs	r2, #254	; 0xfe
     eb8:	430a      	orrs	r2, r1
     eba:	801a      	strh	r2, [r3, #0]
     ebc:	2280      	movs	r2, #128	; 0x80
     ebe:	4b07      	ldr	r3, [pc, #28]	; (edc <TC5Init+0x4c>)
     ec0:	0352      	lsls	r2, r2, #13
     ec2:	601a      	str	r2, [r3, #0]
     ec4:	4770      	bx	lr
     ec6:	46c0      	nop			; (mov r8, r8)
     ec8:	0000421c 	.word	0x0000421c
     ecc:	40000c00 	.word	0x40000c00
     ed0:	40000400 	.word	0x40000400
     ed4:	42003400 	.word	0x42003400
     ed8:	00000e04 	.word	0x00000e04
     edc:	e000e100 	.word	0xe000e100

00000ee0 <TC5_Handler>:
     ee0:	22ff      	movs	r2, #255	; 0xff
     ee2:	4b03      	ldr	r3, [pc, #12]	; (ef0 <TC5_Handler+0x10>)
     ee4:	739a      	strb	r2, [r3, #14]
     ee6:	2280      	movs	r2, #128	; 0x80
     ee8:	4b02      	ldr	r3, [pc, #8]	; (ef4 <TC5_Handler+0x14>)
     eea:	0352      	lsls	r2, r2, #13
     eec:	61da      	str	r2, [r3, #28]
     eee:	4770      	bx	lr
     ef0:	42003400 	.word	0x42003400
     ef4:	41004400 	.word	0x41004400

00000ef8 <dmaInit>:
     ef8:	b5f8      	push	{r3, r4, r5, r6, r7, lr}
     efa:	27c0      	movs	r7, #192	; 0xc0
     efc:	4d10      	ldr	r5, [pc, #64]	; (f40 <dmaInit+0x48>)
     efe:	003a      	movs	r2, r7
     f00:	4e10      	ldr	r6, [pc, #64]	; (f44 <dmaInit+0x4c>)
     f02:	0028      	movs	r0, r5
     f04:	2100      	movs	r1, #0
     f06:	47b0      	blx	r6
     f08:	4c0f      	ldr	r4, [pc, #60]	; (f48 <dmaInit+0x50>)
     f0a:	003a      	movs	r2, r7
     f0c:	2100      	movs	r1, #0
     f0e:	0020      	movs	r0, r4
     f10:	47b0      	blx	r6
     f12:	2220      	movs	r2, #32
     f14:	4b0d      	ldr	r3, [pc, #52]	; (f4c <dmaInit+0x54>)
     f16:	6959      	ldr	r1, [r3, #20]
     f18:	430a      	orrs	r2, r1
     f1a:	615a      	str	r2, [r3, #20]
     f1c:	2210      	movs	r2, #16
     f1e:	69d9      	ldr	r1, [r3, #28]
     f20:	430a      	orrs	r2, r1
     f22:	2102      	movs	r1, #2
     f24:	61da      	str	r2, [r3, #28]
     f26:	4b0a      	ldr	r3, [pc, #40]	; (f50 <dmaInit+0x58>)
     f28:	881a      	ldrh	r2, [r3, #0]
     f2a:	438a      	bics	r2, r1
     f2c:	801a      	strh	r2, [r3, #0]
     f2e:	2201      	movs	r2, #1
     f30:	8819      	ldrh	r1, [r3, #0]
     f32:	430a      	orrs	r2, r1
     f34:	801a      	strh	r2, [r3, #0]
     f36:	4a07      	ldr	r2, [pc, #28]	; (f54 <dmaInit+0x5c>)
     f38:	635d      	str	r5, [r3, #52]	; 0x34
     f3a:	639c      	str	r4, [r3, #56]	; 0x38
     f3c:	801a      	strh	r2, [r3, #0]
     f3e:	bdf8      	pop	{r3, r4, r5, r6, r7, pc}
     f40:	20000530 	.word	0x20000530
     f44:	00003181 	.word	0x00003181
     f48:	20000470 	.word	0x20000470
     f4c:	40000400 	.word	0x40000400
     f50:	41004800 	.word	0x41004800
     f54:	00000f02 	.word	0x00000f02

00000f58 <flight>:
     f58:	b5f8      	push	{r3, r4, r5, r6, r7, lr}
     f5a:	7803      	ldrb	r3, [r0, #0]
     f5c:	0004      	movs	r4, r0
     f5e:	2b00      	cmp	r3, #0
     f60:	d123      	bne.n	faa <flight+0x52>
     f62:	6b80      	ldr	r0, [r0, #56]	; 0x38
     f64:	4b11      	ldr	r3, [pc, #68]	; (fac <flight+0x54>)
     f66:	4798      	blx	r3
     f68:	4d11      	ldr	r5, [pc, #68]	; (fb0 <flight+0x58>)
     f6a:	2200      	movs	r2, #0
     f6c:	4b11      	ldr	r3, [pc, #68]	; (fb4 <flight+0x5c>)
     f6e:	47a8      	blx	r5
     f70:	4b0e      	ldr	r3, [pc, #56]	; (fac <flight+0x54>)
     f72:	0006      	movs	r6, r0
     f74:	6ca0      	ldr	r0, [r4, #72]	; 0x48
     f76:	000f      	movs	r7, r1
     f78:	4798      	blx	r3
     f7a:	2200      	movs	r2, #0
     f7c:	4b0d      	ldr	r3, [pc, #52]	; (fb4 <flight+0x5c>)
     f7e:	47a8      	blx	r5
     f80:	4d0d      	ldr	r5, [pc, #52]	; (fb8 <flight+0x60>)
     f82:	0002      	movs	r2, r0
     f84:	000b      	movs	r3, r1
     f86:	0030      	movs	r0, r6
     f88:	0039      	movs	r1, r7
     f8a:	47a8      	blx	r5
     f8c:	4b0b      	ldr	r3, [pc, #44]	; (fbc <flight+0x64>)
     f8e:	4798      	blx	r3
     f90:	4d0b      	ldr	r5, [pc, #44]	; (fc0 <flight+0x68>)
     f92:	63a0      	str	r0, [r4, #56]	; 0x38
     f94:	47a8      	blx	r5
     f96:	6b23      	ldr	r3, [r4, #48]	; 0x30
     f98:	1ac0      	subs	r0, r0, r3
     f9a:	23fa      	movs	r3, #250	; 0xfa
     f9c:	00db      	lsls	r3, r3, #3
     f9e:	4298      	cmp	r0, r3
     fa0:	d903      	bls.n	faa <flight+0x52>
     fa2:	6ba3      	ldr	r3, [r4, #56]	; 0x38
     fa4:	6363      	str	r3, [r4, #52]	; 0x34
     fa6:	47a8      	blx	r5
     fa8:	6320      	str	r0, [r4, #48]	; 0x30
     faa:	bdf8      	pop	{r3, r4, r5, r6, r7, pc}
     fac:	00002f45 	.word	0x00002f45
     fb0:	000029c1 	.word	0x000029c1
     fb4:	3fe00000 	.word	0x3fe00000
     fb8:	000021a1 	.word	0x000021a1
     fbc:	00002fe9 	.word	0x00002fe9
     fc0:	00000df1 	.word	0x00000df1

00000fc4 <sampleTick>:
     fc4:	b5f0      	push	{r4, r5, r6, r7, lr}
     fc6:	0007      	movs	r7, r0
     fc8:	b087      	sub	sp, #28
     fca:	4bec      	ldr	r3, [pc, #944]	; (137c <sampleTick+0x3b8>)
     fcc:	4798      	blx	r3
     fce:	003b      	movs	r3, r7
     fd0:	4ceb      	ldr	r4, [pc, #940]	; (1380 <sampleTick+0x3bc>)
     fd2:	3308      	adds	r3, #8
     fd4:	67d8      	str	r0, [r3, #124]	; 0x7c
     fd6:	7863      	ldrb	r3, [r4, #1]
     fd8:	7820      	ldrb	r0, [r4, #0]
     fda:	021b      	lsls	r3, r3, #8
     fdc:	4303      	orrs	r3, r0
     fde:	78a0      	ldrb	r0, [r4, #2]
     fe0:	4de8      	ldr	r5, [pc, #928]	; (1384 <sampleTick+0x3c0>)
     fe2:	0400      	lsls	r0, r0, #16
     fe4:	4303      	orrs	r3, r0
     fe6:	78e0      	ldrb	r0, [r4, #3]
     fe8:	7921      	ldrb	r1, [r4, #4]
     fea:	0600      	lsls	r0, r0, #24
     fec:	4318      	orrs	r0, r3
     fee:	47a8      	blx	r5
     ff0:	4be5      	ldr	r3, [pc, #916]	; (1388 <sampleTick+0x3c4>)
     ff2:	4798      	blx	r3
     ff4:	4ae5      	ldr	r2, [pc, #916]	; (138c <sampleTick+0x3c8>)
     ff6:	4be6      	ldr	r3, [pc, #920]	; (1390 <sampleTick+0x3cc>)
     ff8:	4ee6      	ldr	r6, [pc, #920]	; (1394 <sampleTick+0x3d0>)
     ffa:	47b0      	blx	r6
     ffc:	4ee6      	ldr	r6, [pc, #920]	; (1398 <sampleTick+0x3d4>)
     ffe:	47b0      	blx	r6
    1000:	79a3      	ldrb	r3, [r4, #6]
    1002:	67b8      	str	r0, [r7, #120]	; 0x78
    1004:	7960      	ldrb	r0, [r4, #5]
    1006:	021b      	lsls	r3, r3, #8
    1008:	4303      	orrs	r3, r0
    100a:	79e0      	ldrb	r0, [r4, #7]
    100c:	7a61      	ldrb	r1, [r4, #9]
    100e:	0400      	lsls	r0, r0, #16
    1010:	4303      	orrs	r3, r0
    1012:	7a20      	ldrb	r0, [r4, #8]
    1014:	0600      	lsls	r0, r0, #24
    1016:	4318      	orrs	r0, r3
    1018:	47a8      	blx	r5
    101a:	003b      	movs	r3, r7
    101c:	337c      	adds	r3, #124	; 0x7c
    101e:	8018      	strh	r0, [r3, #0]
    1020:	7ae3      	ldrb	r3, [r4, #11]
    1022:	7aa0      	ldrb	r0, [r4, #10]
    1024:	021b      	lsls	r3, r3, #8
    1026:	4303      	orrs	r3, r0
    1028:	7b20      	ldrb	r0, [r4, #12]
    102a:	7ba1      	ldrb	r1, [r4, #14]
    102c:	0400      	lsls	r0, r0, #16
    102e:	4303      	orrs	r3, r0
    1030:	7b60      	ldrb	r0, [r4, #13]
    1032:	0600      	lsls	r0, r0, #24
    1034:	4318      	orrs	r0, r3
    1036:	47a8      	blx	r5
    1038:	003b      	movs	r3, r7
    103a:	337e      	adds	r3, #126	; 0x7e
    103c:	8018      	strh	r0, [r3, #0]
    103e:	7c23      	ldrb	r3, [r4, #16]
    1040:	7be0      	ldrb	r0, [r4, #15]
    1042:	021b      	lsls	r3, r3, #8
    1044:	4303      	orrs	r3, r0
    1046:	7c60      	ldrb	r0, [r4, #17]
    1048:	7ce1      	ldrb	r1, [r4, #19]
    104a:	0400      	lsls	r0, r0, #16
    104c:	4303      	orrs	r3, r0
    104e:	7ca0      	ldrb	r0, [r4, #18]
    1050:	0600      	lsls	r0, r0, #24
    1052:	4318      	orrs	r0, r3
    1054:	47a8      	blx	r5
    1056:	003b      	movs	r3, r7
    1058:	3380      	adds	r3, #128	; 0x80
    105a:	8018      	strh	r0, [r3, #0]
    105c:	7d63      	ldrb	r3, [r4, #21]
    105e:	7d20      	ldrb	r0, [r4, #20]
    1060:	021b      	lsls	r3, r3, #8
    1062:	4303      	orrs	r3, r0
    1064:	7da0      	ldrb	r0, [r4, #22]
    1066:	7e21      	ldrb	r1, [r4, #24]
    1068:	0400      	lsls	r0, r0, #16
    106a:	4303      	orrs	r3, r0
    106c:	7de0      	ldrb	r0, [r4, #23]
    106e:	0600      	lsls	r0, r0, #24
    1070:	4318      	orrs	r0, r3
    1072:	47a8      	blx	r5
    1074:	003b      	movs	r3, r7
    1076:	3382      	adds	r3, #130	; 0x82
    1078:	8018      	strh	r0, [r3, #0]
    107a:	7ea3      	ldrb	r3, [r4, #26]
    107c:	7e60      	ldrb	r0, [r4, #25]
    107e:	021b      	lsls	r3, r3, #8
    1080:	4303      	orrs	r3, r0
    1082:	7ee0      	ldrb	r0, [r4, #27]
    1084:	7f61      	ldrb	r1, [r4, #29]
    1086:	0400      	lsls	r0, r0, #16
    1088:	4303      	orrs	r3, r0
    108a:	7f20      	ldrb	r0, [r4, #28]
    108c:	0600      	lsls	r0, r0, #24
    108e:	4318      	orrs	r0, r3
    1090:	47a8      	blx	r5
    1092:	003b      	movs	r3, r7
    1094:	3370      	adds	r3, #112	; 0x70
    1096:	8018      	strh	r0, [r3, #0]
    1098:	4bc0      	ldr	r3, [pc, #768]	; (139c <sampleTick+0x3d8>)
    109a:	18c0      	adds	r0, r0, r3
    109c:	4bba      	ldr	r3, [pc, #744]	; (1388 <sampleTick+0x3c4>)
    109e:	4798      	blx	r3
    10a0:	4abf      	ldr	r2, [pc, #764]	; (13a0 <sampleTick+0x3dc>)
    10a2:	4bc0      	ldr	r3, [pc, #768]	; (13a4 <sampleTick+0x3e0>)
    10a4:	4dbb      	ldr	r5, [pc, #748]	; (1394 <sampleTick+0x3d0>)
    10a6:	47a8      	blx	r5
    10a8:	47b0      	blx	r6
    10aa:	2680      	movs	r6, #128	; 0x80
    10ac:	2250      	movs	r2, #80	; 0x50
    10ae:	0021      	movs	r1, r4
    10b0:	6bfb      	ldr	r3, [r7, #60]	; 0x3c
    10b2:	0236      	lsls	r6, r6, #8
    10b4:	643b      	str	r3, [r7, #64]	; 0x40
    10b6:	4bbc      	ldr	r3, [pc, #752]	; (13a8 <sampleTick+0x3e4>)
    10b8:	6778      	str	r0, [r7, #116]	; 0x74
    10ba:	615e      	str	r6, [r3, #20]
    10bc:	0023      	movs	r3, r4
    10be:	9200      	str	r2, [sp, #0]
    10c0:	7fe2      	ldrb	r2, [r4, #31]
    10c2:	7fa5      	ldrb	r5, [r4, #30]
    10c4:	311e      	adds	r1, #30
    10c6:	0212      	lsls	r2, r2, #8
    10c8:	432a      	orrs	r2, r5
    10ca:	788d      	ldrb	r5, [r1, #2]
    10cc:	3323      	adds	r3, #35	; 0x23
    10ce:	042d      	lsls	r5, r5, #16
    10d0:	432a      	orrs	r2, r5
    10d2:	78cd      	ldrb	r5, [r1, #3]
    10d4:	24ff      	movs	r4, #255	; 0xff
    10d6:	062d      	lsls	r5, r5, #24
    10d8:	4315      	orrs	r5, r2
    10da:	790a      	ldrb	r2, [r1, #4]
    10dc:	7819      	ldrb	r1, [r3, #0]
    10de:	9203      	str	r2, [sp, #12]
    10e0:	785a      	ldrb	r2, [r3, #1]
    10e2:	9502      	str	r5, [sp, #8]
    10e4:	0212      	lsls	r2, r2, #8
    10e6:	4311      	orrs	r1, r2
    10e8:	789a      	ldrb	r2, [r3, #2]
    10ea:	0412      	lsls	r2, r2, #16
    10ec:	430a      	orrs	r2, r1
    10ee:	78d9      	ldrb	r1, [r3, #3]
    10f0:	791b      	ldrb	r3, [r3, #4]
    10f2:	0609      	lsls	r1, r1, #24
    10f4:	4311      	orrs	r1, r2
    10f6:	9305      	str	r3, [sp, #20]
    10f8:	002a      	movs	r2, r5
    10fa:	0008      	movs	r0, r1
    10fc:	9104      	str	r1, [sp, #16]
    10fe:	9b03      	ldr	r3, [sp, #12]
    1100:	9905      	ldr	r1, [sp, #20]
    1102:	4daa      	ldr	r5, [pc, #680]	; (13ac <sampleTick+0x3e8>)
    1104:	47a8      	blx	r5
    1106:	20fa      	movs	r0, #250	; 0xfa
    1108:	4ba7      	ldr	r3, [pc, #668]	; (13a8 <sampleTick+0x3e4>)
    110a:	0040      	lsls	r0, r0, #1
    110c:	619e      	str	r6, [r3, #24]
    110e:	4ba8      	ldr	r3, [pc, #672]	; (13b0 <sampleTick+0x3ec>)
    1110:	4798      	blx	r3
    1112:	4ba8      	ldr	r3, [pc, #672]	; (13b4 <sampleTick+0x3f0>)
    1114:	4798      	blx	r3
    1116:	4ba4      	ldr	r3, [pc, #656]	; (13a8 <sampleTick+0x3e4>)
    1118:	61b8      	str	r0, [r7, #24]
    111a:	615e      	str	r6, [r3, #20]
    111c:	2342      	movs	r3, #66	; 0x42
    111e:	9a02      	ldr	r2, [sp, #8]
    1120:	9300      	str	r3, [sp, #0]
    1122:	9804      	ldr	r0, [sp, #16]
    1124:	9b03      	ldr	r3, [sp, #12]
    1126:	9905      	ldr	r1, [sp, #20]
    1128:	4da0      	ldr	r5, [pc, #640]	; (13ac <sampleTick+0x3e8>)
    112a:	47a8      	blx	r5
    112c:	2280      	movs	r2, #128	; 0x80
    112e:	4b9e      	ldr	r3, [pc, #632]	; (13a8 <sampleTick+0x3e4>)
    1130:	00d2      	lsls	r2, r2, #3
    1132:	619e      	str	r6, [r3, #24]
    1134:	4ba0      	ldr	r3, [pc, #640]	; (13b8 <sampleTick+0x3f4>)
    1136:	4ea1      	ldr	r6, [pc, #644]	; (13bc <sampleTick+0x3f8>)
    1138:	601a      	str	r2, [r3, #0]
    113a:	2182      	movs	r1, #130	; 0x82
    113c:	2000      	movs	r0, #0
    113e:	47b0      	blx	r6
    1140:	0021      	movs	r1, r4
    1142:	2000      	movs	r0, #0
    1144:	47b0      	blx	r6
    1146:	003b      	movs	r3, r7
    1148:	3359      	adds	r3, #89	; 0x59
    114a:	7018      	strb	r0, [r3, #0]
    114c:	0021      	movs	r1, r4
    114e:	2000      	movs	r0, #0
    1150:	9303      	str	r3, [sp, #12]
    1152:	47b0      	blx	r6
    1154:	003b      	movs	r3, r7
    1156:	3358      	adds	r3, #88	; 0x58
    1158:	7018      	strb	r0, [r3, #0]
    115a:	0021      	movs	r1, r4
    115c:	2000      	movs	r0, #0
    115e:	9302      	str	r3, [sp, #8]
    1160:	47b0      	blx	r6
    1162:	003b      	movs	r3, r7
    1164:	335d      	adds	r3, #93	; 0x5d
    1166:	7018      	strb	r0, [r3, #0]
    1168:	0021      	movs	r1, r4
    116a:	2000      	movs	r0, #0
    116c:	003d      	movs	r5, r7
    116e:	9304      	str	r3, [sp, #16]
    1170:	47b0      	blx	r6
    1172:	355c      	adds	r5, #92	; 0x5c
    1174:	7028      	strb	r0, [r5, #0]
    1176:	0021      	movs	r1, r4
    1178:	2000      	movs	r0, #0
    117a:	47b0      	blx	r6
    117c:	003b      	movs	r3, r7
    117e:	3361      	adds	r3, #97	; 0x61
    1180:	7018      	strb	r0, [r3, #0]
    1182:	0021      	movs	r1, r4
    1184:	2000      	movs	r0, #0
    1186:	9305      	str	r3, [sp, #20]
    1188:	47b0      	blx	r6
    118a:	003b      	movs	r3, r7
    118c:	2280      	movs	r2, #128	; 0x80
    118e:	3360      	adds	r3, #96	; 0x60
    1190:	7018      	strb	r0, [r3, #0]
    1192:	4b8b      	ldr	r3, [pc, #556]	; (13c0 <sampleTick+0x3fc>)
    1194:	00d2      	lsls	r2, r2, #3
    1196:	601a      	str	r2, [r3, #0]
    1198:	9b02      	ldr	r3, [sp, #8]
    119a:	003c      	movs	r4, r7
    119c:	781b      	ldrb	r3, [r3, #0]
    119e:	9a03      	ldr	r2, [sp, #12]
    11a0:	469c      	mov	ip, r3
    11a2:	782b      	ldrb	r3, [r5, #0]
    11a4:	345a      	adds	r4, #90	; 0x5a
    11a6:	9302      	str	r3, [sp, #8]
    11a8:	4663      	mov	r3, ip
    11aa:	7811      	ldrb	r1, [r2, #0]
    11ac:	021b      	lsls	r3, r3, #8
    11ae:	4319      	orrs	r1, r3
    11b0:	b209      	sxth	r1, r1
    11b2:	9a04      	ldr	r2, [sp, #16]
    11b4:	8021      	strh	r1, [r4, #0]
    11b6:	9b02      	ldr	r3, [sp, #8]
    11b8:	7812      	ldrb	r2, [r2, #0]
    11ba:	021b      	lsls	r3, r3, #8
    11bc:	431a      	orrs	r2, r3
    11be:	003b      	movs	r3, r7
    11c0:	b212      	sxth	r2, r2
    11c2:	335e      	adds	r3, #94	; 0x5e
    11c4:	801a      	strh	r2, [r3, #0]
    11c6:	9303      	str	r3, [sp, #12]
    11c8:	9b05      	ldr	r3, [sp, #20]
    11ca:	0205      	lsls	r5, r0, #8
    11cc:	781b      	ldrb	r3, [r3, #0]
    11ce:	003e      	movs	r6, r7
    11d0:	432b      	orrs	r3, r5
    11d2:	4665      	mov	r5, ip
    11d4:	b21b      	sxth	r3, r3
    11d6:	3662      	adds	r6, #98	; 0x62
    11d8:	8033      	strh	r3, [r6, #0]
    11da:	2d01      	cmp	r5, #1
    11dc:	d001      	beq.n	11e2 <sampleTick+0x21e>
    11de:	1109      	asrs	r1, r1, #4
    11e0:	8021      	strh	r1, [r4, #0]
    11e2:	9902      	ldr	r1, [sp, #8]
    11e4:	2901      	cmp	r1, #1
    11e6:	d002      	beq.n	11ee <sampleTick+0x22a>
    11e8:	9903      	ldr	r1, [sp, #12]
    11ea:	1112      	asrs	r2, r2, #4
    11ec:	800a      	strh	r2, [r1, #0]
    11ee:	2801      	cmp	r0, #1
    11f0:	d001      	beq.n	11f6 <sampleTick+0x232>
    11f2:	111b      	asrs	r3, r3, #4
    11f4:	8033      	strh	r3, [r6, #0]
    11f6:	2300      	movs	r3, #0
    11f8:	5ee0      	ldrsh	r0, [r4, r3]
    11fa:	4b63      	ldr	r3, [pc, #396]	; (1388 <sampleTick+0x3c4>)
    11fc:	4798      	blx	r3
    11fe:	4c65      	ldr	r4, [pc, #404]	; (1394 <sampleTick+0x3d0>)
    1200:	4a70      	ldr	r2, [pc, #448]	; (13c4 <sampleTick+0x400>)
    1202:	4b71      	ldr	r3, [pc, #452]	; (13c8 <sampleTick+0x404>)
    1204:	47a0      	blx	r4
    1206:	4e64      	ldr	r6, [pc, #400]	; (1398 <sampleTick+0x3d4>)
    1208:	47b0      	blx	r6
    120a:	003b      	movs	r3, r7
    120c:	63f8      	str	r0, [r7, #60]	; 0x3c
    120e:	335e      	adds	r3, #94	; 0x5e
    1210:	2000      	movs	r0, #0
    1212:	5e18      	ldrsh	r0, [r3, r0]
    1214:	4b5c      	ldr	r3, [pc, #368]	; (1388 <sampleTick+0x3c4>)
    1216:	4798      	blx	r3
    1218:	4a6a      	ldr	r2, [pc, #424]	; (13c4 <sampleTick+0x400>)
    121a:	4b6b      	ldr	r3, [pc, #428]	; (13c8 <sampleTick+0x404>)
    121c:	47a0      	blx	r4
    121e:	47b0      	blx	r6
    1220:	003b      	movs	r3, r7
    1222:	6478      	str	r0, [r7, #68]	; 0x44
    1224:	3362      	adds	r3, #98	; 0x62
    1226:	2000      	movs	r0, #0
    1228:	5e18      	ldrsh	r0, [r3, r0]
    122a:	4b57      	ldr	r3, [pc, #348]	; (1388 <sampleTick+0x3c4>)
    122c:	4798      	blx	r3
    122e:	4a65      	ldr	r2, [pc, #404]	; (13c4 <sampleTick+0x400>)
    1230:	4b65      	ldr	r3, [pc, #404]	; (13c8 <sampleTick+0x404>)
    1232:	47a0      	blx	r4
    1234:	47b0      	blx	r6
    1236:	2380      	movs	r3, #128	; 0x80
    1238:	4a5b      	ldr	r2, [pc, #364]	; (13a8 <sampleTick+0x3e4>)
    123a:	00db      	lsls	r3, r3, #3
    123c:	4e5f      	ldr	r6, [pc, #380]	; (13bc <sampleTick+0x3f8>)
    123e:	64b8      	str	r0, [r7, #72]	; 0x48
    1240:	2182      	movs	r1, #130	; 0x82
    1242:	6153      	str	r3, [r2, #20]
    1244:	2000      	movs	r0, #0
    1246:	47b0      	blx	r6
    1248:	21ff      	movs	r1, #255	; 0xff
    124a:	2000      	movs	r0, #0
    124c:	47b0      	blx	r6
    124e:	003b      	movs	r3, r7
    1250:	3365      	adds	r3, #101	; 0x65
    1252:	7018      	strb	r0, [r3, #0]
    1254:	21ff      	movs	r1, #255	; 0xff
    1256:	2000      	movs	r0, #0
    1258:	001d      	movs	r5, r3
    125a:	47b0      	blx	r6
    125c:	003b      	movs	r3, r7
    125e:	3364      	adds	r3, #100	; 0x64
    1260:	7018      	strb	r0, [r3, #0]
    1262:	21ff      	movs	r1, #255	; 0xff
    1264:	2000      	movs	r0, #0
    1266:	9302      	str	r3, [sp, #8]
    1268:	47b0      	blx	r6
    126a:	003b      	movs	r3, r7
    126c:	3369      	adds	r3, #105	; 0x69
    126e:	7018      	strb	r0, [r3, #0]
    1270:	21ff      	movs	r1, #255	; 0xff
    1272:	2000      	movs	r0, #0
    1274:	9303      	str	r3, [sp, #12]
    1276:	47b0      	blx	r6
    1278:	003b      	movs	r3, r7
    127a:	3368      	adds	r3, #104	; 0x68
    127c:	7018      	strb	r0, [r3, #0]
    127e:	21ff      	movs	r1, #255	; 0xff
    1280:	2000      	movs	r0, #0
    1282:	9304      	str	r3, [sp, #16]
    1284:	47b0      	blx	r6
    1286:	003b      	movs	r3, r7
    1288:	336d      	adds	r3, #109	; 0x6d
    128a:	7018      	strb	r0, [r3, #0]
    128c:	21ff      	movs	r1, #255	; 0xff
    128e:	2000      	movs	r0, #0
    1290:	9305      	str	r3, [sp, #20]
    1292:	47b0      	blx	r6
    1294:	003b      	movs	r3, r7
    1296:	336c      	adds	r3, #108	; 0x6c
    1298:	7018      	strb	r0, [r3, #0]
    129a:	2380      	movs	r3, #128	; 0x80
    129c:	4a42      	ldr	r2, [pc, #264]	; (13a8 <sampleTick+0x3e4>)
    129e:	00db      	lsls	r3, r3, #3
    12a0:	6193      	str	r3, [r2, #24]
    12a2:	9b02      	ldr	r3, [sp, #8]
    12a4:	9a03      	ldr	r2, [sp, #12]
    12a6:	781e      	ldrb	r6, [r3, #0]
    12a8:	9b04      	ldr	r3, [sp, #16]
    12aa:	781b      	ldrb	r3, [r3, #0]
    12ac:	9302      	str	r3, [sp, #8]
    12ae:	7829      	ldrb	r1, [r5, #0]
    12b0:	0233      	lsls	r3, r6, #8
    12b2:	4319      	orrs	r1, r3
    12b4:	2366      	movs	r3, #102	; 0x66
    12b6:	469c      	mov	ip, r3
    12b8:	44bc      	add	ip, r7
    12ba:	4663      	mov	r3, ip
    12bc:	b209      	sxth	r1, r1
    12be:	8019      	strh	r1, [r3, #0]
    12c0:	9b02      	ldr	r3, [sp, #8]
    12c2:	7812      	ldrb	r2, [r2, #0]
    12c4:	021b      	lsls	r3, r3, #8
    12c6:	431a      	orrs	r2, r3
    12c8:	b213      	sxth	r3, r2
    12ca:	9303      	str	r3, [sp, #12]
    12cc:	466b      	mov	r3, sp
    12ce:	899b      	ldrh	r3, [r3, #12]
    12d0:	3505      	adds	r5, #5
    12d2:	802b      	strh	r3, [r5, #0]
    12d4:	0203      	lsls	r3, r0, #8
    12d6:	001a      	movs	r2, r3
    12d8:	9b05      	ldr	r3, [sp, #20]
    12da:	781b      	ldrb	r3, [r3, #0]
    12dc:	4313      	orrs	r3, r2
    12de:	003a      	movs	r2, r7
    12e0:	b21b      	sxth	r3, r3
    12e2:	326e      	adds	r2, #110	; 0x6e
    12e4:	9204      	str	r2, [sp, #16]
    12e6:	8013      	strh	r3, [r2, #0]
    12e8:	2e01      	cmp	r6, #1
    12ea:	d002      	beq.n	12f2 <sampleTick+0x32e>
    12ec:	4662      	mov	r2, ip
    12ee:	1109      	asrs	r1, r1, #4
    12f0:	8011      	strh	r1, [r2, #0]
    12f2:	9a02      	ldr	r2, [sp, #8]
    12f4:	2a01      	cmp	r2, #1
    12f6:	d002      	beq.n	12fe <sampleTick+0x33a>
    12f8:	9a03      	ldr	r2, [sp, #12]
    12fa:	1112      	asrs	r2, r2, #4
    12fc:	802a      	strh	r2, [r5, #0]
    12fe:	2801      	cmp	r0, #1
    1300:	d002      	beq.n	1308 <sampleTick+0x344>
    1302:	9a04      	ldr	r2, [sp, #16]
    1304:	111b      	asrs	r3, r3, #4
    1306:	8013      	strh	r3, [r2, #0]
    1308:	003b      	movs	r3, r7
    130a:	3366      	adds	r3, #102	; 0x66
    130c:	2000      	movs	r0, #0
    130e:	5e18      	ldrsh	r0, [r3, r0]
    1310:	4e1d      	ldr	r6, [pc, #116]	; (1388 <sampleTick+0x3c4>)
    1312:	47b0      	blx	r6
    1314:	4a2b      	ldr	r2, [pc, #172]	; (13c4 <sampleTick+0x400>)
    1316:	4b2c      	ldr	r3, [pc, #176]	; (13c8 <sampleTick+0x404>)
    1318:	47a0      	blx	r4
    131a:	4d1f      	ldr	r5, [pc, #124]	; (1398 <sampleTick+0x3d4>)
    131c:	47a8      	blx	r5
    131e:	003b      	movs	r3, r7
    1320:	64f8      	str	r0, [r7, #76]	; 0x4c
    1322:	336a      	adds	r3, #106	; 0x6a
    1324:	2000      	movs	r0, #0
    1326:	5e18      	ldrsh	r0, [r3, r0]
    1328:	47b0      	blx	r6
    132a:	4a26      	ldr	r2, [pc, #152]	; (13c4 <sampleTick+0x400>)
    132c:	4b26      	ldr	r3, [pc, #152]	; (13c8 <sampleTick+0x404>)
    132e:	47a0      	blx	r4
    1330:	47a8      	blx	r5
    1332:	003b      	movs	r3, r7
    1334:	6538      	str	r0, [r7, #80]	; 0x50
    1336:	336e      	adds	r3, #110	; 0x6e
    1338:	2000      	movs	r0, #0
    133a:	5e18      	ldrsh	r0, [r3, r0]
    133c:	47b0      	blx	r6
    133e:	4a21      	ldr	r2, [pc, #132]	; (13c4 <sampleTick+0x400>)
    1340:	4b21      	ldr	r3, [pc, #132]	; (13c8 <sampleTick+0x404>)
    1342:	47a0      	blx	r4
    1344:	47a8      	blx	r5
    1346:	6578      	str	r0, [r7, #84]	; 0x54
    1348:	20c8      	movs	r0, #200	; 0xc8
    134a:	4b19      	ldr	r3, [pc, #100]	; (13b0 <sampleTick+0x3ec>)
    134c:	0080      	lsls	r0, r0, #2
    134e:	4798      	blx	r3
    1350:	003e      	movs	r6, r7
    1352:	4b18      	ldr	r3, [pc, #96]	; (13b4 <sampleTick+0x3f0>)
    1354:	4798      	blx	r3
    1356:	3608      	adds	r6, #8
    1358:	6178      	str	r0, [r7, #20]
    135a:	4b1c      	ldr	r3, [pc, #112]	; (13cc <sampleTick+0x408>)
    135c:	0030      	movs	r0, r6
    135e:	4798      	blx	r3
    1360:	0030      	movs	r0, r6
    1362:	4b1b      	ldr	r3, [pc, #108]	; (13d0 <sampleTick+0x40c>)
    1364:	4798      	blx	r3
    1366:	4b1b      	ldr	r3, [pc, #108]	; (13d4 <sampleTick+0x410>)
    1368:	6ab8      	ldr	r0, [r7, #40]	; 0x28
    136a:	4798      	blx	r3
    136c:	4a1a      	ldr	r2, [pc, #104]	; (13d8 <sampleTick+0x414>)
    136e:	4b1b      	ldr	r3, [pc, #108]	; (13dc <sampleTick+0x418>)
    1370:	47a0      	blx	r4
    1372:	47a8      	blx	r5
    1374:	62f8      	str	r0, [r7, #44]	; 0x2c
    1376:	b007      	add	sp, #28
    1378:	bdf0      	pop	{r4, r5, r6, r7, pc}
    137a:	46c0      	nop			; (mov r8, r8)
    137c:	00000df1 	.word	0x00000df1
    1380:	00003488 	.word	0x00003488
    1384:	00000af1 	.word	0x00000af1
    1388:	00002ec1 	.word	0x00002ec1
    138c:	eaa2a0a9 	.word	0xeaa2a0a9
    1390:	3f5f3a57 	.word	0x3f5f3a57
    1394:	000029c1 	.word	0x000029c1
    1398:	00002fe9 	.word	0x00002fe9
    139c:	fffff0da 	.word	0xfffff0da
    13a0:	367a0f91 	.word	0x367a0f91
    13a4:	bf973eab 	.word	0xbf973eab
    13a8:	41004400 	.word	0x41004400
    13ac:	00000b5d 	.word	0x00000b5d
    13b0:	00000d7d 	.word	0x00000d7d
    13b4:	000001e5 	.word	0x000001e5
    13b8:	41004494 	.word	0x41004494
    13bc:	000014e9 	.word	0x000014e9
    13c0:	41004498 	.word	0x41004498
    13c4:	e94ee393 	.word	0xe94ee393
    13c8:	3f7ffd60 	.word	0x3f7ffd60
    13cc:	0000028d 	.word	0x0000028d
    13d0:	00000379 	.word	0x00000379
    13d4:	00002f45 	.word	0x00002f45
    13d8:	e9f6a93f 	.word	0xe9f6a93f
    13dc:	3fa0cc78 	.word	0x3fa0cc78

000013e0 <sercomClockEnable>:
    13e0:	b570      	push	{r4, r5, r6, lr}
    13e2:	0005      	movs	r5, r0
    13e4:	2301      	movs	r3, #1
    13e6:	1cae      	adds	r6, r5, #2
    13e8:	40b3      	lsls	r3, r6
    13ea:	000c      	movs	r4, r1
    13ec:	490b      	ldr	r1, [pc, #44]	; (141c <sercomClockEnable+0x3c>)
    13ee:	6a08      	ldr	r0, [r1, #32]
    13f0:	4303      	orrs	r3, r0
    13f2:	620b      	str	r3, [r1, #32]
    13f4:	2c00      	cmp	r4, #0
    13f6:	d003      	beq.n	1400 <sercomClockEnable+0x20>
    13f8:	2107      	movs	r1, #7
    13fa:	0020      	movs	r0, r4
    13fc:	4b08      	ldr	r3, [pc, #32]	; (1420 <sercomClockEnable+0x40>)
    13fe:	4798      	blx	r3
    1400:	23f0      	movs	r3, #240	; 0xf0
    1402:	0224      	lsls	r4, r4, #8
    1404:	011b      	lsls	r3, r3, #4
    1406:	401c      	ands	r4, r3
    1408:	2380      	movs	r3, #128	; 0x80
    140a:	01db      	lsls	r3, r3, #7
    140c:	431c      	orrs	r4, r3
    140e:	233f      	movs	r3, #63	; 0x3f
    1410:	3514      	adds	r5, #20
    1412:	401d      	ands	r5, r3
    1414:	4b03      	ldr	r3, [pc, #12]	; (1424 <sercomClockEnable+0x44>)
    1416:	4325      	orrs	r5, r4
    1418:	805d      	strh	r5, [r3, #2]
    141a:	bd70      	pop	{r4, r5, r6, pc}
    141c:	40000400 	.word	0x40000400
    1420:	00000d2d 	.word	0x00000d2d
    1424:	40000c00 	.word	0x40000c00

00001428 <sercomReset>:
    1428:	4b04      	ldr	r3, [pc, #16]	; (143c <sercomReset+0x14>)
    142a:	0280      	lsls	r0, r0, #10
    142c:	18c0      	adds	r0, r0, r3
    142e:	2301      	movs	r3, #1
    1430:	6003      	str	r3, [r0, #0]
    1432:	6802      	ldr	r2, [r0, #0]
    1434:	421a      	tst	r2, r3
    1436:	d1fc      	bne.n	1432 <sercomReset+0xa>
    1438:	4770      	bx	lr
    143a:	46c0      	nop			; (mov r8, r8)
    143c:	42000800 	.word	0x42000800

00001440 <sercomSpiMasterInit>:
    1440:	b5f7      	push	{r0, r1, r2, r4, r5, r6, r7, lr}
    1442:	0004      	movs	r4, r0
    1444:	9300      	str	r3, [sp, #0]
    1446:	ab08      	add	r3, sp, #32
    1448:	781b      	ldrb	r3, [r3, #0]
    144a:	0016      	movs	r6, r2
    144c:	9301      	str	r3, [sp, #4]
    144e:	ab09      	add	r3, sp, #36	; 0x24
    1450:	781f      	ldrb	r7, [r3, #0]
    1452:	4b12      	ldr	r3, [pc, #72]	; (149c <sercomSpiMasterInit+0x5c>)
    1454:	000d      	movs	r5, r1
    1456:	4798      	blx	r3
    1458:	4b11      	ldr	r3, [pc, #68]	; (14a0 <sercomSpiMasterInit+0x60>)
    145a:	02a4      	lsls	r4, r4, #10
    145c:	18e4      	adds	r4, r4, r3
    145e:	2380      	movs	r3, #128	; 0x80
    1460:	029b      	lsls	r3, r3, #10
    1462:	6063      	str	r3, [r4, #4]
    1464:	23c0      	movs	r3, #192	; 0xc0
    1466:	052d      	lsls	r5, r5, #20
    1468:	039b      	lsls	r3, r3, #14
    146a:	401d      	ands	r5, r3
    146c:	23c0      	movs	r3, #192	; 0xc0
    146e:	0436      	lsls	r6, r6, #16
    1470:	029b      	lsls	r3, r3, #10
    1472:	401e      	ands	r6, r3
    1474:	230e      	movs	r3, #14
    1476:	431e      	orrs	r6, r3
    1478:	9b00      	ldr	r3, [sp, #0]
    147a:	4335      	orrs	r5, r6
    147c:	1e5a      	subs	r2, r3, #1
    147e:	4193      	sbcs	r3, r2
    1480:	9a01      	ldr	r2, [sp, #4]
    1482:	075b      	lsls	r3, r3, #29
    1484:	1e51      	subs	r1, r2, #1
    1486:	418a      	sbcs	r2, r1
    1488:	431d      	orrs	r5, r3
    148a:	0712      	lsls	r2, r2, #28
    148c:	4315      	orrs	r5, r2
    148e:	7327      	strb	r7, [r4, #12]
    1490:	6025      	str	r5, [r4, #0]
    1492:	69e3      	ldr	r3, [r4, #28]
    1494:	075b      	lsls	r3, r3, #29
    1496:	d4fc      	bmi.n	1492 <sercomSpiMasterInit+0x52>
    1498:	bdf7      	pop	{r0, r1, r2, r4, r5, r6, r7, pc}
    149a:	46c0      	nop			; (mov r8, r8)
    149c:	00001429 	.word	0x00001429
    14a0:	42000800 	.word	0x42000800

000014a4 <sercomUartInit>:
    14a4:	b5f8      	push	{r3, r4, r5, r6, r7, lr}
    14a6:	0007      	movs	r7, r0
    14a8:	001e      	movs	r6, r3
    14aa:	4b0c      	ldr	r3, [pc, #48]	; (14dc <sercomUartInit+0x38>)
    14ac:	000d      	movs	r5, r1
    14ae:	0014      	movs	r4, r2
    14b0:	4798      	blx	r3
    14b2:	4b0b      	ldr	r3, [pc, #44]	; (14e0 <sercomUartInit+0x3c>)
    14b4:	02b8      	lsls	r0, r7, #10
    14b6:	18c0      	adds	r0, r0, r3
    14b8:	2304      	movs	r3, #4
    14ba:	22c0      	movs	r2, #192	; 0xc0
    14bc:	6003      	str	r3, [r0, #0]
    14be:	23c0      	movs	r3, #192	; 0xc0
    14c0:	0392      	lsls	r2, r2, #14
    14c2:	052d      	lsls	r5, r5, #20
    14c4:	4015      	ands	r5, r2
    14c6:	4a07      	ldr	r2, [pc, #28]	; (14e4 <sercomUartInit+0x40>)
    14c8:	029b      	lsls	r3, r3, #10
    14ca:	0424      	lsls	r4, r4, #16
    14cc:	432a      	orrs	r2, r5
    14ce:	401c      	ands	r4, r3
    14d0:	b2b6      	uxth	r6, r6
    14d2:	4322      	orrs	r2, r4
    14d4:	8186      	strh	r6, [r0, #12]
    14d6:	6043      	str	r3, [r0, #4]
    14d8:	6002      	str	r2, [r0, #0]
    14da:	bdf8      	pop	{r3, r4, r5, r6, r7, pc}
    14dc:	00001429 	.word	0x00001429
    14e0:	42000800 	.word	0x42000800
    14e4:	40000006 	.word	0x40000006

000014e8 <spiDataTransfer>:
    14e8:	4b04      	ldr	r3, [pc, #16]	; (14fc <spiDataTransfer+0x14>)
    14ea:	0280      	lsls	r0, r0, #10
    14ec:	18c0      	adds	r0, r0, r3
    14ee:	6281      	str	r1, [r0, #40]	; 0x28
    14f0:	7e03      	ldrb	r3, [r0, #24]
    14f2:	075b      	lsls	r3, r3, #29
    14f4:	d5fc      	bpl.n	14f0 <spiDataTransfer+0x8>
    14f6:	6a80      	ldr	r0, [r0, #40]	; 0x28
    14f8:	b2c0      	uxtb	r0, r0
    14fa:	4770      	bx	lr
    14fc:	42000800 	.word	0x42000800

00001500 <usartDataOut>:
    1500:	4b04      	ldr	r3, [pc, #16]	; (1514 <usartDataOut+0x14>)
    1502:	0280      	lsls	r0, r0, #10
    1504:	18c0      	adds	r0, r0, r3
    1506:	b289      	uxth	r1, r1
    1508:	8501      	strh	r1, [r0, #40]	; 0x28
    150a:	7e03      	ldrb	r3, [r0, #24]
    150c:	07db      	lsls	r3, r3, #31
    150e:	d5fc      	bpl.n	150a <usartDataOut+0xa>
    1510:	4770      	bx	lr
    1512:	46c0      	nop			; (mov r8, r8)
    1514:	42000800 	.word	0x42000800

00001518 <__aeabi_cdrcmple>:
    1518:	4684      	mov	ip, r0
    151a:	1c10      	adds	r0, r2, #0
    151c:	4662      	mov	r2, ip
    151e:	468c      	mov	ip, r1
    1520:	1c19      	adds	r1, r3, #0
    1522:	4663      	mov	r3, ip
    1524:	e000      	b.n	1528 <__aeabi_cdcmpeq>
    1526:	46c0      	nop			; (mov r8, r8)

00001528 <__aeabi_cdcmpeq>:
    1528:	b51f      	push	{r0, r1, r2, r3, r4, lr}
    152a:	f001 f9e7 	bl	28fc <__ledf2>
    152e:	2800      	cmp	r0, #0
    1530:	d401      	bmi.n	1536 <__aeabi_cdcmpeq+0xe>
    1532:	2100      	movs	r1, #0
    1534:	42c8      	cmn	r0, r1
    1536:	bd1f      	pop	{r0, r1, r2, r3, r4, pc}

00001538 <__aeabi_dcmpeq>:
    1538:	b510      	push	{r4, lr}
    153a:	f001 f941 	bl	27c0 <__eqdf2>
    153e:	4240      	negs	r0, r0
    1540:	3001      	adds	r0, #1
    1542:	bd10      	pop	{r4, pc}

00001544 <__aeabi_dcmplt>:
    1544:	b510      	push	{r4, lr}
    1546:	f001 f9d9 	bl	28fc <__ledf2>
    154a:	2800      	cmp	r0, #0
    154c:	db01      	blt.n	1552 <__aeabi_dcmplt+0xe>
    154e:	2000      	movs	r0, #0
    1550:	bd10      	pop	{r4, pc}
    1552:	2001      	movs	r0, #1
    1554:	bd10      	pop	{r4, pc}
    1556:	46c0      	nop			; (mov r8, r8)

00001558 <__aeabi_dcmple>:
    1558:	b510      	push	{r4, lr}
    155a:	f001 f9cf 	bl	28fc <__ledf2>
    155e:	2800      	cmp	r0, #0
    1560:	dd01      	ble.n	1566 <__aeabi_dcmple+0xe>
    1562:	2000      	movs	r0, #0
    1564:	bd10      	pop	{r4, pc}
    1566:	2001      	movs	r0, #1
    1568:	bd10      	pop	{r4, pc}
    156a:	46c0      	nop			; (mov r8, r8)

0000156c <__aeabi_dcmpgt>:
    156c:	b510      	push	{r4, lr}
    156e:	f001 f961 	bl	2834 <__gedf2>
    1572:	2800      	cmp	r0, #0
    1574:	dc01      	bgt.n	157a <__aeabi_dcmpgt+0xe>
    1576:	2000      	movs	r0, #0
    1578:	bd10      	pop	{r4, pc}
    157a:	2001      	movs	r0, #1
    157c:	bd10      	pop	{r4, pc}
    157e:	46c0      	nop			; (mov r8, r8)

00001580 <__aeabi_dcmpge>:
    1580:	b510      	push	{r4, lr}
    1582:	f001 f957 	bl	2834 <__gedf2>
    1586:	2800      	cmp	r0, #0
    1588:	da01      	bge.n	158e <__aeabi_dcmpge+0xe>
    158a:	2000      	movs	r0, #0
    158c:	bd10      	pop	{r4, pc}
    158e:	2001      	movs	r0, #1
    1590:	bd10      	pop	{r4, pc}
    1592:	46c0      	nop			; (mov r8, r8)

00001594 <__aeabi_lmul>:
    1594:	b5f0      	push	{r4, r5, r6, r7, lr}
    1596:	46ce      	mov	lr, r9
    1598:	4647      	mov	r7, r8
    159a:	0415      	lsls	r5, r2, #16
    159c:	0c2d      	lsrs	r5, r5, #16
    159e:	002e      	movs	r6, r5
    15a0:	b580      	push	{r7, lr}
    15a2:	0407      	lsls	r7, r0, #16
    15a4:	0c14      	lsrs	r4, r2, #16
    15a6:	0c3f      	lsrs	r7, r7, #16
    15a8:	4699      	mov	r9, r3
    15aa:	0c03      	lsrs	r3, r0, #16
    15ac:	437e      	muls	r6, r7
    15ae:	435d      	muls	r5, r3
    15b0:	4367      	muls	r7, r4
    15b2:	4363      	muls	r3, r4
    15b4:	197f      	adds	r7, r7, r5
    15b6:	0c34      	lsrs	r4, r6, #16
    15b8:	19e4      	adds	r4, r4, r7
    15ba:	469c      	mov	ip, r3
    15bc:	42a5      	cmp	r5, r4
    15be:	d903      	bls.n	15c8 <__aeabi_lmul+0x34>
    15c0:	2380      	movs	r3, #128	; 0x80
    15c2:	025b      	lsls	r3, r3, #9
    15c4:	4698      	mov	r8, r3
    15c6:	44c4      	add	ip, r8
    15c8:	464b      	mov	r3, r9
    15ca:	4351      	muls	r1, r2
    15cc:	4343      	muls	r3, r0
    15ce:	0436      	lsls	r6, r6, #16
    15d0:	0c36      	lsrs	r6, r6, #16
    15d2:	0c25      	lsrs	r5, r4, #16
    15d4:	0424      	lsls	r4, r4, #16
    15d6:	4465      	add	r5, ip
    15d8:	19a4      	adds	r4, r4, r6
    15da:	1859      	adds	r1, r3, r1
    15dc:	1949      	adds	r1, r1, r5
    15de:	0020      	movs	r0, r4
    15e0:	bc0c      	pop	{r2, r3}
    15e2:	4690      	mov	r8, r2
    15e4:	4699      	mov	r9, r3
    15e6:	bdf0      	pop	{r4, r5, r6, r7, pc}

000015e8 <__aeabi_fadd>:
    15e8:	b5f0      	push	{r4, r5, r6, r7, lr}
    15ea:	46c6      	mov	lr, r8
    15ec:	024e      	lsls	r6, r1, #9
    15ee:	0247      	lsls	r7, r0, #9
    15f0:	0a76      	lsrs	r6, r6, #9
    15f2:	0a7b      	lsrs	r3, r7, #9
    15f4:	0044      	lsls	r4, r0, #1
    15f6:	0fc5      	lsrs	r5, r0, #31
    15f8:	00f7      	lsls	r7, r6, #3
    15fa:	0048      	lsls	r0, r1, #1
    15fc:	4698      	mov	r8, r3
    15fe:	b500      	push	{lr}
    1600:	0e24      	lsrs	r4, r4, #24
    1602:	002a      	movs	r2, r5
    1604:	00db      	lsls	r3, r3, #3
    1606:	0e00      	lsrs	r0, r0, #24
    1608:	0fc9      	lsrs	r1, r1, #31
    160a:	46bc      	mov	ip, r7
    160c:	428d      	cmp	r5, r1
    160e:	d067      	beq.n	16e0 <__aeabi_fadd+0xf8>
    1610:	1a22      	subs	r2, r4, r0
    1612:	2a00      	cmp	r2, #0
    1614:	dc00      	bgt.n	1618 <__aeabi_fadd+0x30>
    1616:	e0a5      	b.n	1764 <__aeabi_fadd+0x17c>
    1618:	2800      	cmp	r0, #0
    161a:	d13a      	bne.n	1692 <__aeabi_fadd+0xaa>
    161c:	2f00      	cmp	r7, #0
    161e:	d100      	bne.n	1622 <__aeabi_fadd+0x3a>
    1620:	e093      	b.n	174a <__aeabi_fadd+0x162>
    1622:	1e51      	subs	r1, r2, #1
    1624:	2900      	cmp	r1, #0
    1626:	d000      	beq.n	162a <__aeabi_fadd+0x42>
    1628:	e0bc      	b.n	17a4 <__aeabi_fadd+0x1bc>
    162a:	2401      	movs	r4, #1
    162c:	1bdb      	subs	r3, r3, r7
    162e:	015a      	lsls	r2, r3, #5
    1630:	d546      	bpl.n	16c0 <__aeabi_fadd+0xd8>
    1632:	019b      	lsls	r3, r3, #6
    1634:	099e      	lsrs	r6, r3, #6
    1636:	0030      	movs	r0, r6
    1638:	f001 fd60 	bl	30fc <__clzsi2>
    163c:	3805      	subs	r0, #5
    163e:	4086      	lsls	r6, r0
    1640:	4284      	cmp	r4, r0
    1642:	dd00      	ble.n	1646 <__aeabi_fadd+0x5e>
    1644:	e09d      	b.n	1782 <__aeabi_fadd+0x19a>
    1646:	1b04      	subs	r4, r0, r4
    1648:	0032      	movs	r2, r6
    164a:	2020      	movs	r0, #32
    164c:	3401      	adds	r4, #1
    164e:	40e2      	lsrs	r2, r4
    1650:	1b04      	subs	r4, r0, r4
    1652:	40a6      	lsls	r6, r4
    1654:	0033      	movs	r3, r6
    1656:	1e5e      	subs	r6, r3, #1
    1658:	41b3      	sbcs	r3, r6
    165a:	2400      	movs	r4, #0
    165c:	4313      	orrs	r3, r2
    165e:	075a      	lsls	r2, r3, #29
    1660:	d004      	beq.n	166c <__aeabi_fadd+0x84>
    1662:	220f      	movs	r2, #15
    1664:	401a      	ands	r2, r3
    1666:	2a04      	cmp	r2, #4
    1668:	d000      	beq.n	166c <__aeabi_fadd+0x84>
    166a:	3304      	adds	r3, #4
    166c:	015a      	lsls	r2, r3, #5
    166e:	d529      	bpl.n	16c4 <__aeabi_fadd+0xdc>
    1670:	3401      	adds	r4, #1
    1672:	2cff      	cmp	r4, #255	; 0xff
    1674:	d100      	bne.n	1678 <__aeabi_fadd+0x90>
    1676:	e081      	b.n	177c <__aeabi_fadd+0x194>
    1678:	002a      	movs	r2, r5
    167a:	019b      	lsls	r3, r3, #6
    167c:	0a5b      	lsrs	r3, r3, #9
    167e:	b2e4      	uxtb	r4, r4
    1680:	025b      	lsls	r3, r3, #9
    1682:	05e4      	lsls	r4, r4, #23
    1684:	0a58      	lsrs	r0, r3, #9
    1686:	07d2      	lsls	r2, r2, #31
    1688:	4320      	orrs	r0, r4
    168a:	4310      	orrs	r0, r2
    168c:	bc04      	pop	{r2}
    168e:	4690      	mov	r8, r2
    1690:	bdf0      	pop	{r4, r5, r6, r7, pc}
    1692:	2cff      	cmp	r4, #255	; 0xff
    1694:	d0e3      	beq.n	165e <__aeabi_fadd+0x76>
    1696:	2180      	movs	r1, #128	; 0x80
    1698:	0038      	movs	r0, r7
    169a:	04c9      	lsls	r1, r1, #19
    169c:	4308      	orrs	r0, r1
    169e:	4684      	mov	ip, r0
    16a0:	2a1b      	cmp	r2, #27
    16a2:	dd00      	ble.n	16a6 <__aeabi_fadd+0xbe>
    16a4:	e082      	b.n	17ac <__aeabi_fadd+0x1c4>
    16a6:	2020      	movs	r0, #32
    16a8:	4661      	mov	r1, ip
    16aa:	40d1      	lsrs	r1, r2
    16ac:	1a82      	subs	r2, r0, r2
    16ae:	4660      	mov	r0, ip
    16b0:	4090      	lsls	r0, r2
    16b2:	0002      	movs	r2, r0
    16b4:	1e50      	subs	r0, r2, #1
    16b6:	4182      	sbcs	r2, r0
    16b8:	430a      	orrs	r2, r1
    16ba:	1a9b      	subs	r3, r3, r2
    16bc:	015a      	lsls	r2, r3, #5
    16be:	d4b8      	bmi.n	1632 <__aeabi_fadd+0x4a>
    16c0:	075a      	lsls	r2, r3, #29
    16c2:	d1ce      	bne.n	1662 <__aeabi_fadd+0x7a>
    16c4:	08de      	lsrs	r6, r3, #3
    16c6:	002a      	movs	r2, r5
    16c8:	2cff      	cmp	r4, #255	; 0xff
    16ca:	d13a      	bne.n	1742 <__aeabi_fadd+0x15a>
    16cc:	2e00      	cmp	r6, #0
    16ce:	d100      	bne.n	16d2 <__aeabi_fadd+0xea>
    16d0:	e0ae      	b.n	1830 <__aeabi_fadd+0x248>
    16d2:	2380      	movs	r3, #128	; 0x80
    16d4:	03db      	lsls	r3, r3, #15
    16d6:	4333      	orrs	r3, r6
    16d8:	025b      	lsls	r3, r3, #9
    16da:	0a5b      	lsrs	r3, r3, #9
    16dc:	24ff      	movs	r4, #255	; 0xff
    16de:	e7cf      	b.n	1680 <__aeabi_fadd+0x98>
    16e0:	1a21      	subs	r1, r4, r0
    16e2:	2900      	cmp	r1, #0
    16e4:	dd52      	ble.n	178c <__aeabi_fadd+0x1a4>
    16e6:	2800      	cmp	r0, #0
    16e8:	d031      	beq.n	174e <__aeabi_fadd+0x166>
    16ea:	2cff      	cmp	r4, #255	; 0xff
    16ec:	d0b7      	beq.n	165e <__aeabi_fadd+0x76>
    16ee:	2080      	movs	r0, #128	; 0x80
    16f0:	003e      	movs	r6, r7
    16f2:	04c0      	lsls	r0, r0, #19
    16f4:	4306      	orrs	r6, r0
    16f6:	46b4      	mov	ip, r6
    16f8:	291b      	cmp	r1, #27
    16fa:	dd00      	ble.n	16fe <__aeabi_fadd+0x116>
    16fc:	e0aa      	b.n	1854 <__aeabi_fadd+0x26c>
    16fe:	2620      	movs	r6, #32
    1700:	4660      	mov	r0, ip
    1702:	40c8      	lsrs	r0, r1
    1704:	1a71      	subs	r1, r6, r1
    1706:	4666      	mov	r6, ip
    1708:	408e      	lsls	r6, r1
    170a:	0031      	movs	r1, r6
    170c:	1e4e      	subs	r6, r1, #1
    170e:	41b1      	sbcs	r1, r6
    1710:	4301      	orrs	r1, r0
    1712:	185b      	adds	r3, r3, r1
    1714:	0159      	lsls	r1, r3, #5
    1716:	d5d3      	bpl.n	16c0 <__aeabi_fadd+0xd8>
    1718:	3401      	adds	r4, #1
    171a:	2cff      	cmp	r4, #255	; 0xff
    171c:	d100      	bne.n	1720 <__aeabi_fadd+0x138>
    171e:	e087      	b.n	1830 <__aeabi_fadd+0x248>
    1720:	2201      	movs	r2, #1
    1722:	4978      	ldr	r1, [pc, #480]	; (1904 <__aeabi_fadd+0x31c>)
    1724:	401a      	ands	r2, r3
    1726:	085b      	lsrs	r3, r3, #1
    1728:	400b      	ands	r3, r1
    172a:	4313      	orrs	r3, r2
    172c:	e797      	b.n	165e <__aeabi_fadd+0x76>
    172e:	2c00      	cmp	r4, #0
    1730:	d000      	beq.n	1734 <__aeabi_fadd+0x14c>
    1732:	e0a7      	b.n	1884 <__aeabi_fadd+0x29c>
    1734:	2b00      	cmp	r3, #0
    1736:	d000      	beq.n	173a <__aeabi_fadd+0x152>
    1738:	e0b6      	b.n	18a8 <__aeabi_fadd+0x2c0>
    173a:	1e3b      	subs	r3, r7, #0
    173c:	d162      	bne.n	1804 <__aeabi_fadd+0x21c>
    173e:	2600      	movs	r6, #0
    1740:	2200      	movs	r2, #0
    1742:	0273      	lsls	r3, r6, #9
    1744:	0a5b      	lsrs	r3, r3, #9
    1746:	b2e4      	uxtb	r4, r4
    1748:	e79a      	b.n	1680 <__aeabi_fadd+0x98>
    174a:	0014      	movs	r4, r2
    174c:	e787      	b.n	165e <__aeabi_fadd+0x76>
    174e:	2f00      	cmp	r7, #0
    1750:	d04d      	beq.n	17ee <__aeabi_fadd+0x206>
    1752:	1e48      	subs	r0, r1, #1
    1754:	2800      	cmp	r0, #0
    1756:	d157      	bne.n	1808 <__aeabi_fadd+0x220>
    1758:	4463      	add	r3, ip
    175a:	2401      	movs	r4, #1
    175c:	015a      	lsls	r2, r3, #5
    175e:	d5af      	bpl.n	16c0 <__aeabi_fadd+0xd8>
    1760:	2402      	movs	r4, #2
    1762:	e7dd      	b.n	1720 <__aeabi_fadd+0x138>
    1764:	2a00      	cmp	r2, #0
    1766:	d124      	bne.n	17b2 <__aeabi_fadd+0x1ca>
    1768:	1c62      	adds	r2, r4, #1
    176a:	b2d2      	uxtb	r2, r2
    176c:	2a01      	cmp	r2, #1
    176e:	ddde      	ble.n	172e <__aeabi_fadd+0x146>
    1770:	1bde      	subs	r6, r3, r7
    1772:	0172      	lsls	r2, r6, #5
    1774:	d535      	bpl.n	17e2 <__aeabi_fadd+0x1fa>
    1776:	1afe      	subs	r6, r7, r3
    1778:	000d      	movs	r5, r1
    177a:	e75c      	b.n	1636 <__aeabi_fadd+0x4e>
    177c:	002a      	movs	r2, r5
    177e:	2300      	movs	r3, #0
    1780:	e77e      	b.n	1680 <__aeabi_fadd+0x98>
    1782:	0033      	movs	r3, r6
    1784:	4a60      	ldr	r2, [pc, #384]	; (1908 <__aeabi_fadd+0x320>)
    1786:	1a24      	subs	r4, r4, r0
    1788:	4013      	ands	r3, r2
    178a:	e768      	b.n	165e <__aeabi_fadd+0x76>
    178c:	2900      	cmp	r1, #0
    178e:	d163      	bne.n	1858 <__aeabi_fadd+0x270>
    1790:	1c61      	adds	r1, r4, #1
    1792:	b2c8      	uxtb	r0, r1
    1794:	2801      	cmp	r0, #1
    1796:	dd4e      	ble.n	1836 <__aeabi_fadd+0x24e>
    1798:	29ff      	cmp	r1, #255	; 0xff
    179a:	d049      	beq.n	1830 <__aeabi_fadd+0x248>
    179c:	4463      	add	r3, ip
    179e:	085b      	lsrs	r3, r3, #1
    17a0:	000c      	movs	r4, r1
    17a2:	e75c      	b.n	165e <__aeabi_fadd+0x76>
    17a4:	2aff      	cmp	r2, #255	; 0xff
    17a6:	d041      	beq.n	182c <__aeabi_fadd+0x244>
    17a8:	000a      	movs	r2, r1
    17aa:	e779      	b.n	16a0 <__aeabi_fadd+0xb8>
    17ac:	2201      	movs	r2, #1
    17ae:	1a9b      	subs	r3, r3, r2
    17b0:	e784      	b.n	16bc <__aeabi_fadd+0xd4>
    17b2:	2c00      	cmp	r4, #0
    17b4:	d01d      	beq.n	17f2 <__aeabi_fadd+0x20a>
    17b6:	28ff      	cmp	r0, #255	; 0xff
    17b8:	d022      	beq.n	1800 <__aeabi_fadd+0x218>
    17ba:	2480      	movs	r4, #128	; 0x80
    17bc:	04e4      	lsls	r4, r4, #19
    17be:	4252      	negs	r2, r2
    17c0:	4323      	orrs	r3, r4
    17c2:	2a1b      	cmp	r2, #27
    17c4:	dd00      	ble.n	17c8 <__aeabi_fadd+0x1e0>
    17c6:	e08a      	b.n	18de <__aeabi_fadd+0x2f6>
    17c8:	001c      	movs	r4, r3
    17ca:	2520      	movs	r5, #32
    17cc:	40d4      	lsrs	r4, r2
    17ce:	1aaa      	subs	r2, r5, r2
    17d0:	4093      	lsls	r3, r2
    17d2:	1e5a      	subs	r2, r3, #1
    17d4:	4193      	sbcs	r3, r2
    17d6:	4323      	orrs	r3, r4
    17d8:	4662      	mov	r2, ip
    17da:	0004      	movs	r4, r0
    17dc:	1ad3      	subs	r3, r2, r3
    17de:	000d      	movs	r5, r1
    17e0:	e725      	b.n	162e <__aeabi_fadd+0x46>
    17e2:	2e00      	cmp	r6, #0
    17e4:	d000      	beq.n	17e8 <__aeabi_fadd+0x200>
    17e6:	e726      	b.n	1636 <__aeabi_fadd+0x4e>
    17e8:	2200      	movs	r2, #0
    17ea:	2400      	movs	r4, #0
    17ec:	e7a9      	b.n	1742 <__aeabi_fadd+0x15a>
    17ee:	000c      	movs	r4, r1
    17f0:	e735      	b.n	165e <__aeabi_fadd+0x76>
    17f2:	2b00      	cmp	r3, #0
    17f4:	d04d      	beq.n	1892 <__aeabi_fadd+0x2aa>
    17f6:	43d2      	mvns	r2, r2
    17f8:	2a00      	cmp	r2, #0
    17fa:	d0ed      	beq.n	17d8 <__aeabi_fadd+0x1f0>
    17fc:	28ff      	cmp	r0, #255	; 0xff
    17fe:	d1e0      	bne.n	17c2 <__aeabi_fadd+0x1da>
    1800:	4663      	mov	r3, ip
    1802:	24ff      	movs	r4, #255	; 0xff
    1804:	000d      	movs	r5, r1
    1806:	e72a      	b.n	165e <__aeabi_fadd+0x76>
    1808:	29ff      	cmp	r1, #255	; 0xff
    180a:	d00f      	beq.n	182c <__aeabi_fadd+0x244>
    180c:	0001      	movs	r1, r0
    180e:	e773      	b.n	16f8 <__aeabi_fadd+0x110>
    1810:	2b00      	cmp	r3, #0
    1812:	d061      	beq.n	18d8 <__aeabi_fadd+0x2f0>
    1814:	24ff      	movs	r4, #255	; 0xff
    1816:	2f00      	cmp	r7, #0
    1818:	d100      	bne.n	181c <__aeabi_fadd+0x234>
    181a:	e720      	b.n	165e <__aeabi_fadd+0x76>
    181c:	2280      	movs	r2, #128	; 0x80
    181e:	4641      	mov	r1, r8
    1820:	03d2      	lsls	r2, r2, #15
    1822:	4211      	tst	r1, r2
    1824:	d002      	beq.n	182c <__aeabi_fadd+0x244>
    1826:	4216      	tst	r6, r2
    1828:	d100      	bne.n	182c <__aeabi_fadd+0x244>
    182a:	003b      	movs	r3, r7
    182c:	24ff      	movs	r4, #255	; 0xff
    182e:	e716      	b.n	165e <__aeabi_fadd+0x76>
    1830:	24ff      	movs	r4, #255	; 0xff
    1832:	2300      	movs	r3, #0
    1834:	e724      	b.n	1680 <__aeabi_fadd+0x98>
    1836:	2c00      	cmp	r4, #0
    1838:	d1ea      	bne.n	1810 <__aeabi_fadd+0x228>
    183a:	2b00      	cmp	r3, #0
    183c:	d058      	beq.n	18f0 <__aeabi_fadd+0x308>
    183e:	2f00      	cmp	r7, #0
    1840:	d100      	bne.n	1844 <__aeabi_fadd+0x25c>
    1842:	e70c      	b.n	165e <__aeabi_fadd+0x76>
    1844:	4463      	add	r3, ip
    1846:	015a      	lsls	r2, r3, #5
    1848:	d400      	bmi.n	184c <__aeabi_fadd+0x264>
    184a:	e739      	b.n	16c0 <__aeabi_fadd+0xd8>
    184c:	4a2e      	ldr	r2, [pc, #184]	; (1908 <__aeabi_fadd+0x320>)
    184e:	000c      	movs	r4, r1
    1850:	4013      	ands	r3, r2
    1852:	e704      	b.n	165e <__aeabi_fadd+0x76>
    1854:	2101      	movs	r1, #1
    1856:	e75c      	b.n	1712 <__aeabi_fadd+0x12a>
    1858:	2c00      	cmp	r4, #0
    185a:	d11e      	bne.n	189a <__aeabi_fadd+0x2b2>
    185c:	2b00      	cmp	r3, #0
    185e:	d040      	beq.n	18e2 <__aeabi_fadd+0x2fa>
    1860:	43c9      	mvns	r1, r1
    1862:	2900      	cmp	r1, #0
    1864:	d00b      	beq.n	187e <__aeabi_fadd+0x296>
    1866:	28ff      	cmp	r0, #255	; 0xff
    1868:	d036      	beq.n	18d8 <__aeabi_fadd+0x2f0>
    186a:	291b      	cmp	r1, #27
    186c:	dc47      	bgt.n	18fe <__aeabi_fadd+0x316>
    186e:	001c      	movs	r4, r3
    1870:	2620      	movs	r6, #32
    1872:	40cc      	lsrs	r4, r1
    1874:	1a71      	subs	r1, r6, r1
    1876:	408b      	lsls	r3, r1
    1878:	1e59      	subs	r1, r3, #1
    187a:	418b      	sbcs	r3, r1
    187c:	4323      	orrs	r3, r4
    187e:	4463      	add	r3, ip
    1880:	0004      	movs	r4, r0
    1882:	e747      	b.n	1714 <__aeabi_fadd+0x12c>
    1884:	2b00      	cmp	r3, #0
    1886:	d118      	bne.n	18ba <__aeabi_fadd+0x2d2>
    1888:	1e3b      	subs	r3, r7, #0
    188a:	d02d      	beq.n	18e8 <__aeabi_fadd+0x300>
    188c:	000d      	movs	r5, r1
    188e:	24ff      	movs	r4, #255	; 0xff
    1890:	e6e5      	b.n	165e <__aeabi_fadd+0x76>
    1892:	003b      	movs	r3, r7
    1894:	0004      	movs	r4, r0
    1896:	000d      	movs	r5, r1
    1898:	e6e1      	b.n	165e <__aeabi_fadd+0x76>
    189a:	28ff      	cmp	r0, #255	; 0xff
    189c:	d01c      	beq.n	18d8 <__aeabi_fadd+0x2f0>
    189e:	2480      	movs	r4, #128	; 0x80
    18a0:	04e4      	lsls	r4, r4, #19
    18a2:	4249      	negs	r1, r1
    18a4:	4323      	orrs	r3, r4
    18a6:	e7e0      	b.n	186a <__aeabi_fadd+0x282>
    18a8:	2f00      	cmp	r7, #0
    18aa:	d100      	bne.n	18ae <__aeabi_fadd+0x2c6>
    18ac:	e6d7      	b.n	165e <__aeabi_fadd+0x76>
    18ae:	1bde      	subs	r6, r3, r7
    18b0:	0172      	lsls	r2, r6, #5
    18b2:	d51f      	bpl.n	18f4 <__aeabi_fadd+0x30c>
    18b4:	1afb      	subs	r3, r7, r3
    18b6:	000d      	movs	r5, r1
    18b8:	e6d1      	b.n	165e <__aeabi_fadd+0x76>
    18ba:	24ff      	movs	r4, #255	; 0xff
    18bc:	2f00      	cmp	r7, #0
    18be:	d100      	bne.n	18c2 <__aeabi_fadd+0x2da>
    18c0:	e6cd      	b.n	165e <__aeabi_fadd+0x76>
    18c2:	2280      	movs	r2, #128	; 0x80
    18c4:	4640      	mov	r0, r8
    18c6:	03d2      	lsls	r2, r2, #15
    18c8:	4210      	tst	r0, r2
    18ca:	d0af      	beq.n	182c <__aeabi_fadd+0x244>
    18cc:	4216      	tst	r6, r2
    18ce:	d1ad      	bne.n	182c <__aeabi_fadd+0x244>
    18d0:	003b      	movs	r3, r7
    18d2:	000d      	movs	r5, r1
    18d4:	24ff      	movs	r4, #255	; 0xff
    18d6:	e6c2      	b.n	165e <__aeabi_fadd+0x76>
    18d8:	4663      	mov	r3, ip
    18da:	24ff      	movs	r4, #255	; 0xff
    18dc:	e6bf      	b.n	165e <__aeabi_fadd+0x76>
    18de:	2301      	movs	r3, #1
    18e0:	e77a      	b.n	17d8 <__aeabi_fadd+0x1f0>
    18e2:	003b      	movs	r3, r7
    18e4:	0004      	movs	r4, r0
    18e6:	e6ba      	b.n	165e <__aeabi_fadd+0x76>
    18e8:	2680      	movs	r6, #128	; 0x80
    18ea:	2200      	movs	r2, #0
    18ec:	03f6      	lsls	r6, r6, #15
    18ee:	e6f0      	b.n	16d2 <__aeabi_fadd+0xea>
    18f0:	003b      	movs	r3, r7
    18f2:	e6b4      	b.n	165e <__aeabi_fadd+0x76>
    18f4:	1e33      	subs	r3, r6, #0
    18f6:	d000      	beq.n	18fa <__aeabi_fadd+0x312>
    18f8:	e6e2      	b.n	16c0 <__aeabi_fadd+0xd8>
    18fa:	2200      	movs	r2, #0
    18fc:	e721      	b.n	1742 <__aeabi_fadd+0x15a>
    18fe:	2301      	movs	r3, #1
    1900:	e7bd      	b.n	187e <__aeabi_fadd+0x296>
    1902:	46c0      	nop			; (mov r8, r8)
    1904:	7dffffff 	.word	0x7dffffff
    1908:	fbffffff 	.word	0xfbffffff

0000190c <__aeabi_fdiv>:
    190c:	b5f0      	push	{r4, r5, r6, r7, lr}
    190e:	4657      	mov	r7, sl
    1910:	464e      	mov	r6, r9
    1912:	46de      	mov	lr, fp
    1914:	4645      	mov	r5, r8
    1916:	b5e0      	push	{r5, r6, r7, lr}
    1918:	0244      	lsls	r4, r0, #9
    191a:	0043      	lsls	r3, r0, #1
    191c:	0fc6      	lsrs	r6, r0, #31
    191e:	b083      	sub	sp, #12
    1920:	1c0f      	adds	r7, r1, #0
    1922:	0a64      	lsrs	r4, r4, #9
    1924:	0e1b      	lsrs	r3, r3, #24
    1926:	46b2      	mov	sl, r6
    1928:	d053      	beq.n	19d2 <__aeabi_fdiv+0xc6>
    192a:	2bff      	cmp	r3, #255	; 0xff
    192c:	d027      	beq.n	197e <__aeabi_fdiv+0x72>
    192e:	2280      	movs	r2, #128	; 0x80
    1930:	00e4      	lsls	r4, r4, #3
    1932:	04d2      	lsls	r2, r2, #19
    1934:	4314      	orrs	r4, r2
    1936:	227f      	movs	r2, #127	; 0x7f
    1938:	4252      	negs	r2, r2
    193a:	4690      	mov	r8, r2
    193c:	4498      	add	r8, r3
    193e:	2300      	movs	r3, #0
    1940:	4699      	mov	r9, r3
    1942:	469b      	mov	fp, r3
    1944:	027d      	lsls	r5, r7, #9
    1946:	0078      	lsls	r0, r7, #1
    1948:	0ffb      	lsrs	r3, r7, #31
    194a:	0a6d      	lsrs	r5, r5, #9
    194c:	0e00      	lsrs	r0, r0, #24
    194e:	9300      	str	r3, [sp, #0]
    1950:	d024      	beq.n	199c <__aeabi_fdiv+0x90>
    1952:	28ff      	cmp	r0, #255	; 0xff
    1954:	d046      	beq.n	19e4 <__aeabi_fdiv+0xd8>
    1956:	2380      	movs	r3, #128	; 0x80
    1958:	2100      	movs	r1, #0
    195a:	00ed      	lsls	r5, r5, #3
    195c:	04db      	lsls	r3, r3, #19
    195e:	431d      	orrs	r5, r3
    1960:	387f      	subs	r0, #127	; 0x7f
    1962:	4647      	mov	r7, r8
    1964:	1a38      	subs	r0, r7, r0
    1966:	464f      	mov	r7, r9
    1968:	430f      	orrs	r7, r1
    196a:	00bf      	lsls	r7, r7, #2
    196c:	46b9      	mov	r9, r7
    196e:	0033      	movs	r3, r6
    1970:	9a00      	ldr	r2, [sp, #0]
    1972:	4f87      	ldr	r7, [pc, #540]	; (1b90 <__aeabi_fdiv+0x284>)
    1974:	4053      	eors	r3, r2
    1976:	464a      	mov	r2, r9
    1978:	58ba      	ldr	r2, [r7, r2]
    197a:	9301      	str	r3, [sp, #4]
    197c:	4697      	mov	pc, r2
    197e:	2c00      	cmp	r4, #0
    1980:	d14e      	bne.n	1a20 <__aeabi_fdiv+0x114>
    1982:	2308      	movs	r3, #8
    1984:	4699      	mov	r9, r3
    1986:	33f7      	adds	r3, #247	; 0xf7
    1988:	4698      	mov	r8, r3
    198a:	3bfd      	subs	r3, #253	; 0xfd
    198c:	469b      	mov	fp, r3
    198e:	027d      	lsls	r5, r7, #9
    1990:	0078      	lsls	r0, r7, #1
    1992:	0ffb      	lsrs	r3, r7, #31
    1994:	0a6d      	lsrs	r5, r5, #9
    1996:	0e00      	lsrs	r0, r0, #24
    1998:	9300      	str	r3, [sp, #0]
    199a:	d1da      	bne.n	1952 <__aeabi_fdiv+0x46>
    199c:	2d00      	cmp	r5, #0
    199e:	d126      	bne.n	19ee <__aeabi_fdiv+0xe2>
    19a0:	2000      	movs	r0, #0
    19a2:	2101      	movs	r1, #1
    19a4:	0033      	movs	r3, r6
    19a6:	9a00      	ldr	r2, [sp, #0]
    19a8:	4f7a      	ldr	r7, [pc, #488]	; (1b94 <__aeabi_fdiv+0x288>)
    19aa:	4053      	eors	r3, r2
    19ac:	4642      	mov	r2, r8
    19ae:	1a10      	subs	r0, r2, r0
    19b0:	464a      	mov	r2, r9
    19b2:	430a      	orrs	r2, r1
    19b4:	0092      	lsls	r2, r2, #2
    19b6:	58ba      	ldr	r2, [r7, r2]
    19b8:	001d      	movs	r5, r3
    19ba:	4697      	mov	pc, r2
    19bc:	9b00      	ldr	r3, [sp, #0]
    19be:	002c      	movs	r4, r5
    19c0:	469a      	mov	sl, r3
    19c2:	468b      	mov	fp, r1
    19c4:	465b      	mov	r3, fp
    19c6:	2b02      	cmp	r3, #2
    19c8:	d131      	bne.n	1a2e <__aeabi_fdiv+0x122>
    19ca:	4653      	mov	r3, sl
    19cc:	21ff      	movs	r1, #255	; 0xff
    19ce:	2400      	movs	r4, #0
    19d0:	e038      	b.n	1a44 <__aeabi_fdiv+0x138>
    19d2:	2c00      	cmp	r4, #0
    19d4:	d117      	bne.n	1a06 <__aeabi_fdiv+0xfa>
    19d6:	2304      	movs	r3, #4
    19d8:	4699      	mov	r9, r3
    19da:	2300      	movs	r3, #0
    19dc:	4698      	mov	r8, r3
    19de:	3301      	adds	r3, #1
    19e0:	469b      	mov	fp, r3
    19e2:	e7af      	b.n	1944 <__aeabi_fdiv+0x38>
    19e4:	20ff      	movs	r0, #255	; 0xff
    19e6:	2d00      	cmp	r5, #0
    19e8:	d10b      	bne.n	1a02 <__aeabi_fdiv+0xf6>
    19ea:	2102      	movs	r1, #2
    19ec:	e7da      	b.n	19a4 <__aeabi_fdiv+0x98>
    19ee:	0028      	movs	r0, r5
    19f0:	f001 fb84 	bl	30fc <__clzsi2>
    19f4:	1f43      	subs	r3, r0, #5
    19f6:	409d      	lsls	r5, r3
    19f8:	2376      	movs	r3, #118	; 0x76
    19fa:	425b      	negs	r3, r3
    19fc:	1a18      	subs	r0, r3, r0
    19fe:	2100      	movs	r1, #0
    1a00:	e7af      	b.n	1962 <__aeabi_fdiv+0x56>
    1a02:	2103      	movs	r1, #3
    1a04:	e7ad      	b.n	1962 <__aeabi_fdiv+0x56>
    1a06:	0020      	movs	r0, r4
    1a08:	f001 fb78 	bl	30fc <__clzsi2>
    1a0c:	1f43      	subs	r3, r0, #5
    1a0e:	409c      	lsls	r4, r3
    1a10:	2376      	movs	r3, #118	; 0x76
    1a12:	425b      	negs	r3, r3
    1a14:	1a1b      	subs	r3, r3, r0
    1a16:	4698      	mov	r8, r3
    1a18:	2300      	movs	r3, #0
    1a1a:	4699      	mov	r9, r3
    1a1c:	469b      	mov	fp, r3
    1a1e:	e791      	b.n	1944 <__aeabi_fdiv+0x38>
    1a20:	230c      	movs	r3, #12
    1a22:	4699      	mov	r9, r3
    1a24:	33f3      	adds	r3, #243	; 0xf3
    1a26:	4698      	mov	r8, r3
    1a28:	3bfc      	subs	r3, #252	; 0xfc
    1a2a:	469b      	mov	fp, r3
    1a2c:	e78a      	b.n	1944 <__aeabi_fdiv+0x38>
    1a2e:	2b03      	cmp	r3, #3
    1a30:	d100      	bne.n	1a34 <__aeabi_fdiv+0x128>
    1a32:	e0a5      	b.n	1b80 <__aeabi_fdiv+0x274>
    1a34:	4655      	mov	r5, sl
    1a36:	2b01      	cmp	r3, #1
    1a38:	d000      	beq.n	1a3c <__aeabi_fdiv+0x130>
    1a3a:	e081      	b.n	1b40 <__aeabi_fdiv+0x234>
    1a3c:	2301      	movs	r3, #1
    1a3e:	2100      	movs	r1, #0
    1a40:	2400      	movs	r4, #0
    1a42:	402b      	ands	r3, r5
    1a44:	0264      	lsls	r4, r4, #9
    1a46:	05c9      	lsls	r1, r1, #23
    1a48:	0a60      	lsrs	r0, r4, #9
    1a4a:	07db      	lsls	r3, r3, #31
    1a4c:	4308      	orrs	r0, r1
    1a4e:	4318      	orrs	r0, r3
    1a50:	b003      	add	sp, #12
    1a52:	bc3c      	pop	{r2, r3, r4, r5}
    1a54:	4690      	mov	r8, r2
    1a56:	4699      	mov	r9, r3
    1a58:	46a2      	mov	sl, r4
    1a5a:	46ab      	mov	fp, r5
    1a5c:	bdf0      	pop	{r4, r5, r6, r7, pc}
    1a5e:	2480      	movs	r4, #128	; 0x80
    1a60:	2300      	movs	r3, #0
    1a62:	03e4      	lsls	r4, r4, #15
    1a64:	21ff      	movs	r1, #255	; 0xff
    1a66:	e7ed      	b.n	1a44 <__aeabi_fdiv+0x138>
    1a68:	21ff      	movs	r1, #255	; 0xff
    1a6a:	2400      	movs	r4, #0
    1a6c:	e7ea      	b.n	1a44 <__aeabi_fdiv+0x138>
    1a6e:	2301      	movs	r3, #1
    1a70:	1a59      	subs	r1, r3, r1
    1a72:	291b      	cmp	r1, #27
    1a74:	dd66      	ble.n	1b44 <__aeabi_fdiv+0x238>
    1a76:	9a01      	ldr	r2, [sp, #4]
    1a78:	4013      	ands	r3, r2
    1a7a:	2100      	movs	r1, #0
    1a7c:	2400      	movs	r4, #0
    1a7e:	e7e1      	b.n	1a44 <__aeabi_fdiv+0x138>
    1a80:	2380      	movs	r3, #128	; 0x80
    1a82:	03db      	lsls	r3, r3, #15
    1a84:	421c      	tst	r4, r3
    1a86:	d038      	beq.n	1afa <__aeabi_fdiv+0x1ee>
    1a88:	421d      	tst	r5, r3
    1a8a:	d051      	beq.n	1b30 <__aeabi_fdiv+0x224>
    1a8c:	431c      	orrs	r4, r3
    1a8e:	0264      	lsls	r4, r4, #9
    1a90:	0a64      	lsrs	r4, r4, #9
    1a92:	0033      	movs	r3, r6
    1a94:	21ff      	movs	r1, #255	; 0xff
    1a96:	e7d5      	b.n	1a44 <__aeabi_fdiv+0x138>
    1a98:	0163      	lsls	r3, r4, #5
    1a9a:	016c      	lsls	r4, r5, #5
    1a9c:	42a3      	cmp	r3, r4
    1a9e:	d23b      	bcs.n	1b18 <__aeabi_fdiv+0x20c>
    1aa0:	261b      	movs	r6, #27
    1aa2:	2100      	movs	r1, #0
    1aa4:	3801      	subs	r0, #1
    1aa6:	2501      	movs	r5, #1
    1aa8:	001f      	movs	r7, r3
    1aaa:	0049      	lsls	r1, r1, #1
    1aac:	005b      	lsls	r3, r3, #1
    1aae:	2f00      	cmp	r7, #0
    1ab0:	db01      	blt.n	1ab6 <__aeabi_fdiv+0x1aa>
    1ab2:	429c      	cmp	r4, r3
    1ab4:	d801      	bhi.n	1aba <__aeabi_fdiv+0x1ae>
    1ab6:	1b1b      	subs	r3, r3, r4
    1ab8:	4329      	orrs	r1, r5
    1aba:	3e01      	subs	r6, #1
    1abc:	2e00      	cmp	r6, #0
    1abe:	d1f3      	bne.n	1aa8 <__aeabi_fdiv+0x19c>
    1ac0:	001c      	movs	r4, r3
    1ac2:	1e63      	subs	r3, r4, #1
    1ac4:	419c      	sbcs	r4, r3
    1ac6:	430c      	orrs	r4, r1
    1ac8:	0001      	movs	r1, r0
    1aca:	317f      	adds	r1, #127	; 0x7f
    1acc:	2900      	cmp	r1, #0
    1ace:	ddce      	ble.n	1a6e <__aeabi_fdiv+0x162>
    1ad0:	0763      	lsls	r3, r4, #29
    1ad2:	d004      	beq.n	1ade <__aeabi_fdiv+0x1d2>
    1ad4:	230f      	movs	r3, #15
    1ad6:	4023      	ands	r3, r4
    1ad8:	2b04      	cmp	r3, #4
    1ada:	d000      	beq.n	1ade <__aeabi_fdiv+0x1d2>
    1adc:	3404      	adds	r4, #4
    1ade:	0123      	lsls	r3, r4, #4
    1ae0:	d503      	bpl.n	1aea <__aeabi_fdiv+0x1de>
    1ae2:	0001      	movs	r1, r0
    1ae4:	4b2c      	ldr	r3, [pc, #176]	; (1b98 <__aeabi_fdiv+0x28c>)
    1ae6:	3180      	adds	r1, #128	; 0x80
    1ae8:	401c      	ands	r4, r3
    1aea:	29fe      	cmp	r1, #254	; 0xfe
    1aec:	dd0d      	ble.n	1b0a <__aeabi_fdiv+0x1fe>
    1aee:	2301      	movs	r3, #1
    1af0:	9a01      	ldr	r2, [sp, #4]
    1af2:	21ff      	movs	r1, #255	; 0xff
    1af4:	4013      	ands	r3, r2
    1af6:	2400      	movs	r4, #0
    1af8:	e7a4      	b.n	1a44 <__aeabi_fdiv+0x138>
    1afa:	2380      	movs	r3, #128	; 0x80
    1afc:	03db      	lsls	r3, r3, #15
    1afe:	431c      	orrs	r4, r3
    1b00:	0264      	lsls	r4, r4, #9
    1b02:	0a64      	lsrs	r4, r4, #9
    1b04:	0033      	movs	r3, r6
    1b06:	21ff      	movs	r1, #255	; 0xff
    1b08:	e79c      	b.n	1a44 <__aeabi_fdiv+0x138>
    1b0a:	2301      	movs	r3, #1
    1b0c:	9a01      	ldr	r2, [sp, #4]
    1b0e:	01a4      	lsls	r4, r4, #6
    1b10:	0a64      	lsrs	r4, r4, #9
    1b12:	b2c9      	uxtb	r1, r1
    1b14:	4013      	ands	r3, r2
    1b16:	e795      	b.n	1a44 <__aeabi_fdiv+0x138>
    1b18:	1b1b      	subs	r3, r3, r4
    1b1a:	261a      	movs	r6, #26
    1b1c:	2101      	movs	r1, #1
    1b1e:	e7c2      	b.n	1aa6 <__aeabi_fdiv+0x19a>
    1b20:	9b00      	ldr	r3, [sp, #0]
    1b22:	468b      	mov	fp, r1
    1b24:	469a      	mov	sl, r3
    1b26:	2400      	movs	r4, #0
    1b28:	e74c      	b.n	19c4 <__aeabi_fdiv+0xb8>
    1b2a:	0263      	lsls	r3, r4, #9
    1b2c:	d5e5      	bpl.n	1afa <__aeabi_fdiv+0x1ee>
    1b2e:	2500      	movs	r5, #0
    1b30:	2480      	movs	r4, #128	; 0x80
    1b32:	03e4      	lsls	r4, r4, #15
    1b34:	432c      	orrs	r4, r5
    1b36:	0264      	lsls	r4, r4, #9
    1b38:	0a64      	lsrs	r4, r4, #9
    1b3a:	9b00      	ldr	r3, [sp, #0]
    1b3c:	21ff      	movs	r1, #255	; 0xff
    1b3e:	e781      	b.n	1a44 <__aeabi_fdiv+0x138>
    1b40:	9501      	str	r5, [sp, #4]
    1b42:	e7c1      	b.n	1ac8 <__aeabi_fdiv+0x1bc>
    1b44:	0023      	movs	r3, r4
    1b46:	2020      	movs	r0, #32
    1b48:	40cb      	lsrs	r3, r1
    1b4a:	1a41      	subs	r1, r0, r1
    1b4c:	408c      	lsls	r4, r1
    1b4e:	1e61      	subs	r1, r4, #1
    1b50:	418c      	sbcs	r4, r1
    1b52:	431c      	orrs	r4, r3
    1b54:	0763      	lsls	r3, r4, #29
    1b56:	d004      	beq.n	1b62 <__aeabi_fdiv+0x256>
    1b58:	230f      	movs	r3, #15
    1b5a:	4023      	ands	r3, r4
    1b5c:	2b04      	cmp	r3, #4
    1b5e:	d000      	beq.n	1b62 <__aeabi_fdiv+0x256>
    1b60:	3404      	adds	r4, #4
    1b62:	0163      	lsls	r3, r4, #5
    1b64:	d505      	bpl.n	1b72 <__aeabi_fdiv+0x266>
    1b66:	2301      	movs	r3, #1
    1b68:	9a01      	ldr	r2, [sp, #4]
    1b6a:	2101      	movs	r1, #1
    1b6c:	4013      	ands	r3, r2
    1b6e:	2400      	movs	r4, #0
    1b70:	e768      	b.n	1a44 <__aeabi_fdiv+0x138>
    1b72:	2301      	movs	r3, #1
    1b74:	9a01      	ldr	r2, [sp, #4]
    1b76:	01a4      	lsls	r4, r4, #6
    1b78:	0a64      	lsrs	r4, r4, #9
    1b7a:	4013      	ands	r3, r2
    1b7c:	2100      	movs	r1, #0
    1b7e:	e761      	b.n	1a44 <__aeabi_fdiv+0x138>
    1b80:	2380      	movs	r3, #128	; 0x80
    1b82:	03db      	lsls	r3, r3, #15
    1b84:	431c      	orrs	r4, r3
    1b86:	0264      	lsls	r4, r4, #9
    1b88:	0a64      	lsrs	r4, r4, #9
    1b8a:	4653      	mov	r3, sl
    1b8c:	21ff      	movs	r1, #255	; 0xff
    1b8e:	e759      	b.n	1a44 <__aeabi_fdiv+0x138>
    1b90:	000034b0 	.word	0x000034b0
    1b94:	000034f0 	.word	0x000034f0
    1b98:	f7ffffff 	.word	0xf7ffffff

00001b9c <__aeabi_fmul>:
    1b9c:	b5f8      	push	{r3, r4, r5, r6, r7, lr}
    1b9e:	4657      	mov	r7, sl
    1ba0:	464e      	mov	r6, r9
    1ba2:	4645      	mov	r5, r8
    1ba4:	46de      	mov	lr, fp
    1ba6:	b5e0      	push	{r5, r6, r7, lr}
    1ba8:	0247      	lsls	r7, r0, #9
    1baa:	0046      	lsls	r6, r0, #1
    1bac:	4688      	mov	r8, r1
    1bae:	0a7f      	lsrs	r7, r7, #9
    1bb0:	0e36      	lsrs	r6, r6, #24
    1bb2:	0fc4      	lsrs	r4, r0, #31
    1bb4:	2e00      	cmp	r6, #0
    1bb6:	d047      	beq.n	1c48 <__aeabi_fmul+0xac>
    1bb8:	2eff      	cmp	r6, #255	; 0xff
    1bba:	d024      	beq.n	1c06 <__aeabi_fmul+0x6a>
    1bbc:	00fb      	lsls	r3, r7, #3
    1bbe:	2780      	movs	r7, #128	; 0x80
    1bc0:	04ff      	lsls	r7, r7, #19
    1bc2:	431f      	orrs	r7, r3
    1bc4:	2300      	movs	r3, #0
    1bc6:	4699      	mov	r9, r3
    1bc8:	469a      	mov	sl, r3
    1bca:	3e7f      	subs	r6, #127	; 0x7f
    1bcc:	4643      	mov	r3, r8
    1bce:	025d      	lsls	r5, r3, #9
    1bd0:	0058      	lsls	r0, r3, #1
    1bd2:	0fdb      	lsrs	r3, r3, #31
    1bd4:	0a6d      	lsrs	r5, r5, #9
    1bd6:	0e00      	lsrs	r0, r0, #24
    1bd8:	4698      	mov	r8, r3
    1bda:	d043      	beq.n	1c64 <__aeabi_fmul+0xc8>
    1bdc:	28ff      	cmp	r0, #255	; 0xff
    1bde:	d03b      	beq.n	1c58 <__aeabi_fmul+0xbc>
    1be0:	00eb      	lsls	r3, r5, #3
    1be2:	2580      	movs	r5, #128	; 0x80
    1be4:	2200      	movs	r2, #0
    1be6:	04ed      	lsls	r5, r5, #19
    1be8:	431d      	orrs	r5, r3
    1bea:	387f      	subs	r0, #127	; 0x7f
    1bec:	1836      	adds	r6, r6, r0
    1bee:	1c73      	adds	r3, r6, #1
    1bf0:	4641      	mov	r1, r8
    1bf2:	469b      	mov	fp, r3
    1bf4:	464b      	mov	r3, r9
    1bf6:	4061      	eors	r1, r4
    1bf8:	4313      	orrs	r3, r2
    1bfa:	2b0f      	cmp	r3, #15
    1bfc:	d864      	bhi.n	1cc8 <__aeabi_fmul+0x12c>
    1bfe:	4875      	ldr	r0, [pc, #468]	; (1dd4 <__aeabi_fmul+0x238>)
    1c00:	009b      	lsls	r3, r3, #2
    1c02:	58c3      	ldr	r3, [r0, r3]
    1c04:	469f      	mov	pc, r3
    1c06:	2f00      	cmp	r7, #0
    1c08:	d142      	bne.n	1c90 <__aeabi_fmul+0xf4>
    1c0a:	2308      	movs	r3, #8
    1c0c:	4699      	mov	r9, r3
    1c0e:	3b06      	subs	r3, #6
    1c10:	26ff      	movs	r6, #255	; 0xff
    1c12:	469a      	mov	sl, r3
    1c14:	e7da      	b.n	1bcc <__aeabi_fmul+0x30>
    1c16:	4641      	mov	r1, r8
    1c18:	2a02      	cmp	r2, #2
    1c1a:	d028      	beq.n	1c6e <__aeabi_fmul+0xd2>
    1c1c:	2a03      	cmp	r2, #3
    1c1e:	d100      	bne.n	1c22 <__aeabi_fmul+0x86>
    1c20:	e0ce      	b.n	1dc0 <__aeabi_fmul+0x224>
    1c22:	2a01      	cmp	r2, #1
    1c24:	d000      	beq.n	1c28 <__aeabi_fmul+0x8c>
    1c26:	e0ac      	b.n	1d82 <__aeabi_fmul+0x1e6>
    1c28:	4011      	ands	r1, r2
    1c2a:	2000      	movs	r0, #0
    1c2c:	2200      	movs	r2, #0
    1c2e:	b2cc      	uxtb	r4, r1
    1c30:	0240      	lsls	r0, r0, #9
    1c32:	05d2      	lsls	r2, r2, #23
    1c34:	0a40      	lsrs	r0, r0, #9
    1c36:	07e4      	lsls	r4, r4, #31
    1c38:	4310      	orrs	r0, r2
    1c3a:	4320      	orrs	r0, r4
    1c3c:	bc3c      	pop	{r2, r3, r4, r5}
    1c3e:	4690      	mov	r8, r2
    1c40:	4699      	mov	r9, r3
    1c42:	46a2      	mov	sl, r4
    1c44:	46ab      	mov	fp, r5
    1c46:	bdf8      	pop	{r3, r4, r5, r6, r7, pc}
    1c48:	2f00      	cmp	r7, #0
    1c4a:	d115      	bne.n	1c78 <__aeabi_fmul+0xdc>
    1c4c:	2304      	movs	r3, #4
    1c4e:	4699      	mov	r9, r3
    1c50:	3b03      	subs	r3, #3
    1c52:	2600      	movs	r6, #0
    1c54:	469a      	mov	sl, r3
    1c56:	e7b9      	b.n	1bcc <__aeabi_fmul+0x30>
    1c58:	20ff      	movs	r0, #255	; 0xff
    1c5a:	2202      	movs	r2, #2
    1c5c:	2d00      	cmp	r5, #0
    1c5e:	d0c5      	beq.n	1bec <__aeabi_fmul+0x50>
    1c60:	2203      	movs	r2, #3
    1c62:	e7c3      	b.n	1bec <__aeabi_fmul+0x50>
    1c64:	2d00      	cmp	r5, #0
    1c66:	d119      	bne.n	1c9c <__aeabi_fmul+0x100>
    1c68:	2000      	movs	r0, #0
    1c6a:	2201      	movs	r2, #1
    1c6c:	e7be      	b.n	1bec <__aeabi_fmul+0x50>
    1c6e:	2401      	movs	r4, #1
    1c70:	22ff      	movs	r2, #255	; 0xff
    1c72:	400c      	ands	r4, r1
    1c74:	2000      	movs	r0, #0
    1c76:	e7db      	b.n	1c30 <__aeabi_fmul+0x94>
    1c78:	0038      	movs	r0, r7
    1c7a:	f001 fa3f 	bl	30fc <__clzsi2>
    1c7e:	2676      	movs	r6, #118	; 0x76
    1c80:	1f43      	subs	r3, r0, #5
    1c82:	409f      	lsls	r7, r3
    1c84:	2300      	movs	r3, #0
    1c86:	4276      	negs	r6, r6
    1c88:	1a36      	subs	r6, r6, r0
    1c8a:	4699      	mov	r9, r3
    1c8c:	469a      	mov	sl, r3
    1c8e:	e79d      	b.n	1bcc <__aeabi_fmul+0x30>
    1c90:	230c      	movs	r3, #12
    1c92:	4699      	mov	r9, r3
    1c94:	3b09      	subs	r3, #9
    1c96:	26ff      	movs	r6, #255	; 0xff
    1c98:	469a      	mov	sl, r3
    1c9a:	e797      	b.n	1bcc <__aeabi_fmul+0x30>
    1c9c:	0028      	movs	r0, r5
    1c9e:	f001 fa2d 	bl	30fc <__clzsi2>
    1ca2:	1f43      	subs	r3, r0, #5
    1ca4:	409d      	lsls	r5, r3
    1ca6:	2376      	movs	r3, #118	; 0x76
    1ca8:	425b      	negs	r3, r3
    1caa:	1a18      	subs	r0, r3, r0
    1cac:	2200      	movs	r2, #0
    1cae:	e79d      	b.n	1bec <__aeabi_fmul+0x50>
    1cb0:	2080      	movs	r0, #128	; 0x80
    1cb2:	2400      	movs	r4, #0
    1cb4:	03c0      	lsls	r0, r0, #15
    1cb6:	22ff      	movs	r2, #255	; 0xff
    1cb8:	e7ba      	b.n	1c30 <__aeabi_fmul+0x94>
    1cba:	003d      	movs	r5, r7
    1cbc:	4652      	mov	r2, sl
    1cbe:	e7ab      	b.n	1c18 <__aeabi_fmul+0x7c>
    1cc0:	003d      	movs	r5, r7
    1cc2:	0021      	movs	r1, r4
    1cc4:	4652      	mov	r2, sl
    1cc6:	e7a7      	b.n	1c18 <__aeabi_fmul+0x7c>
    1cc8:	0c3b      	lsrs	r3, r7, #16
    1cca:	469c      	mov	ip, r3
    1ccc:	042a      	lsls	r2, r5, #16
    1cce:	0c12      	lsrs	r2, r2, #16
    1cd0:	0c2b      	lsrs	r3, r5, #16
    1cd2:	0014      	movs	r4, r2
    1cd4:	4660      	mov	r0, ip
    1cd6:	4665      	mov	r5, ip
    1cd8:	043f      	lsls	r7, r7, #16
    1cda:	0c3f      	lsrs	r7, r7, #16
    1cdc:	437c      	muls	r4, r7
    1cde:	4342      	muls	r2, r0
    1ce0:	435d      	muls	r5, r3
    1ce2:	437b      	muls	r3, r7
    1ce4:	0c27      	lsrs	r7, r4, #16
    1ce6:	189b      	adds	r3, r3, r2
    1ce8:	18ff      	adds	r7, r7, r3
    1cea:	42ba      	cmp	r2, r7
    1cec:	d903      	bls.n	1cf6 <__aeabi_fmul+0x15a>
    1cee:	2380      	movs	r3, #128	; 0x80
    1cf0:	025b      	lsls	r3, r3, #9
    1cf2:	469c      	mov	ip, r3
    1cf4:	4465      	add	r5, ip
    1cf6:	0424      	lsls	r4, r4, #16
    1cf8:	043a      	lsls	r2, r7, #16
    1cfa:	0c24      	lsrs	r4, r4, #16
    1cfc:	1912      	adds	r2, r2, r4
    1cfe:	0193      	lsls	r3, r2, #6
    1d00:	1e5c      	subs	r4, r3, #1
    1d02:	41a3      	sbcs	r3, r4
    1d04:	0c3f      	lsrs	r7, r7, #16
    1d06:	0e92      	lsrs	r2, r2, #26
    1d08:	197d      	adds	r5, r7, r5
    1d0a:	431a      	orrs	r2, r3
    1d0c:	01ad      	lsls	r5, r5, #6
    1d0e:	4315      	orrs	r5, r2
    1d10:	012b      	lsls	r3, r5, #4
    1d12:	d504      	bpl.n	1d1e <__aeabi_fmul+0x182>
    1d14:	2301      	movs	r3, #1
    1d16:	465e      	mov	r6, fp
    1d18:	086a      	lsrs	r2, r5, #1
    1d1a:	401d      	ands	r5, r3
    1d1c:	4315      	orrs	r5, r2
    1d1e:	0032      	movs	r2, r6
    1d20:	327f      	adds	r2, #127	; 0x7f
    1d22:	2a00      	cmp	r2, #0
    1d24:	dd25      	ble.n	1d72 <__aeabi_fmul+0x1d6>
    1d26:	076b      	lsls	r3, r5, #29
    1d28:	d004      	beq.n	1d34 <__aeabi_fmul+0x198>
    1d2a:	230f      	movs	r3, #15
    1d2c:	402b      	ands	r3, r5
    1d2e:	2b04      	cmp	r3, #4
    1d30:	d000      	beq.n	1d34 <__aeabi_fmul+0x198>
    1d32:	3504      	adds	r5, #4
    1d34:	012b      	lsls	r3, r5, #4
    1d36:	d503      	bpl.n	1d40 <__aeabi_fmul+0x1a4>
    1d38:	0032      	movs	r2, r6
    1d3a:	4b27      	ldr	r3, [pc, #156]	; (1dd8 <__aeabi_fmul+0x23c>)
    1d3c:	3280      	adds	r2, #128	; 0x80
    1d3e:	401d      	ands	r5, r3
    1d40:	2afe      	cmp	r2, #254	; 0xfe
    1d42:	dc94      	bgt.n	1c6e <__aeabi_fmul+0xd2>
    1d44:	2401      	movs	r4, #1
    1d46:	01a8      	lsls	r0, r5, #6
    1d48:	0a40      	lsrs	r0, r0, #9
    1d4a:	b2d2      	uxtb	r2, r2
    1d4c:	400c      	ands	r4, r1
    1d4e:	e76f      	b.n	1c30 <__aeabi_fmul+0x94>
    1d50:	2080      	movs	r0, #128	; 0x80
    1d52:	03c0      	lsls	r0, r0, #15
    1d54:	4207      	tst	r7, r0
    1d56:	d007      	beq.n	1d68 <__aeabi_fmul+0x1cc>
    1d58:	4205      	tst	r5, r0
    1d5a:	d105      	bne.n	1d68 <__aeabi_fmul+0x1cc>
    1d5c:	4328      	orrs	r0, r5
    1d5e:	0240      	lsls	r0, r0, #9
    1d60:	0a40      	lsrs	r0, r0, #9
    1d62:	4644      	mov	r4, r8
    1d64:	22ff      	movs	r2, #255	; 0xff
    1d66:	e763      	b.n	1c30 <__aeabi_fmul+0x94>
    1d68:	4338      	orrs	r0, r7
    1d6a:	0240      	lsls	r0, r0, #9
    1d6c:	0a40      	lsrs	r0, r0, #9
    1d6e:	22ff      	movs	r2, #255	; 0xff
    1d70:	e75e      	b.n	1c30 <__aeabi_fmul+0x94>
    1d72:	2401      	movs	r4, #1
    1d74:	1aa3      	subs	r3, r4, r2
    1d76:	2b1b      	cmp	r3, #27
    1d78:	dd05      	ble.n	1d86 <__aeabi_fmul+0x1ea>
    1d7a:	400c      	ands	r4, r1
    1d7c:	2200      	movs	r2, #0
    1d7e:	2000      	movs	r0, #0
    1d80:	e756      	b.n	1c30 <__aeabi_fmul+0x94>
    1d82:	465e      	mov	r6, fp
    1d84:	e7cb      	b.n	1d1e <__aeabi_fmul+0x182>
    1d86:	002a      	movs	r2, r5
    1d88:	2020      	movs	r0, #32
    1d8a:	40da      	lsrs	r2, r3
    1d8c:	1ac3      	subs	r3, r0, r3
    1d8e:	409d      	lsls	r5, r3
    1d90:	002b      	movs	r3, r5
    1d92:	1e5d      	subs	r5, r3, #1
    1d94:	41ab      	sbcs	r3, r5
    1d96:	4313      	orrs	r3, r2
    1d98:	075a      	lsls	r2, r3, #29
    1d9a:	d004      	beq.n	1da6 <__aeabi_fmul+0x20a>
    1d9c:	220f      	movs	r2, #15
    1d9e:	401a      	ands	r2, r3
    1da0:	2a04      	cmp	r2, #4
    1da2:	d000      	beq.n	1da6 <__aeabi_fmul+0x20a>
    1da4:	3304      	adds	r3, #4
    1da6:	015a      	lsls	r2, r3, #5
    1da8:	d504      	bpl.n	1db4 <__aeabi_fmul+0x218>
    1daa:	2401      	movs	r4, #1
    1dac:	2201      	movs	r2, #1
    1dae:	400c      	ands	r4, r1
    1db0:	2000      	movs	r0, #0
    1db2:	e73d      	b.n	1c30 <__aeabi_fmul+0x94>
    1db4:	2401      	movs	r4, #1
    1db6:	019b      	lsls	r3, r3, #6
    1db8:	0a58      	lsrs	r0, r3, #9
    1dba:	400c      	ands	r4, r1
    1dbc:	2200      	movs	r2, #0
    1dbe:	e737      	b.n	1c30 <__aeabi_fmul+0x94>
    1dc0:	2080      	movs	r0, #128	; 0x80
    1dc2:	2401      	movs	r4, #1
    1dc4:	03c0      	lsls	r0, r0, #15
    1dc6:	4328      	orrs	r0, r5
    1dc8:	0240      	lsls	r0, r0, #9
    1dca:	0a40      	lsrs	r0, r0, #9
    1dcc:	400c      	ands	r4, r1
    1dce:	22ff      	movs	r2, #255	; 0xff
    1dd0:	e72e      	b.n	1c30 <__aeabi_fmul+0x94>
    1dd2:	46c0      	nop			; (mov r8, r8)
    1dd4:	00003530 	.word	0x00003530
    1dd8:	f7ffffff 	.word	0xf7ffffff

00001ddc <__aeabi_fsub>:
    1ddc:	b5f0      	push	{r4, r5, r6, r7, lr}
    1dde:	464f      	mov	r7, r9
    1de0:	46d6      	mov	lr, sl
    1de2:	4646      	mov	r6, r8
    1de4:	0044      	lsls	r4, r0, #1
    1de6:	b5c0      	push	{r6, r7, lr}
    1de8:	0fc2      	lsrs	r2, r0, #31
    1dea:	0247      	lsls	r7, r0, #9
    1dec:	0248      	lsls	r0, r1, #9
    1dee:	0a40      	lsrs	r0, r0, #9
    1df0:	4684      	mov	ip, r0
    1df2:	4666      	mov	r6, ip
    1df4:	0a7b      	lsrs	r3, r7, #9
    1df6:	0048      	lsls	r0, r1, #1
    1df8:	0fc9      	lsrs	r1, r1, #31
    1dfa:	469a      	mov	sl, r3
    1dfc:	0e24      	lsrs	r4, r4, #24
    1dfe:	0015      	movs	r5, r2
    1e00:	00db      	lsls	r3, r3, #3
    1e02:	0e00      	lsrs	r0, r0, #24
    1e04:	4689      	mov	r9, r1
    1e06:	00f6      	lsls	r6, r6, #3
    1e08:	28ff      	cmp	r0, #255	; 0xff
    1e0a:	d100      	bne.n	1e0e <__aeabi_fsub+0x32>
    1e0c:	e08f      	b.n	1f2e <__aeabi_fsub+0x152>
    1e0e:	2101      	movs	r1, #1
    1e10:	464f      	mov	r7, r9
    1e12:	404f      	eors	r7, r1
    1e14:	0039      	movs	r1, r7
    1e16:	4291      	cmp	r1, r2
    1e18:	d066      	beq.n	1ee8 <__aeabi_fsub+0x10c>
    1e1a:	1a22      	subs	r2, r4, r0
    1e1c:	2a00      	cmp	r2, #0
    1e1e:	dc00      	bgt.n	1e22 <__aeabi_fsub+0x46>
    1e20:	e09d      	b.n	1f5e <__aeabi_fsub+0x182>
    1e22:	2800      	cmp	r0, #0
    1e24:	d13d      	bne.n	1ea2 <__aeabi_fsub+0xc6>
    1e26:	2e00      	cmp	r6, #0
    1e28:	d100      	bne.n	1e2c <__aeabi_fsub+0x50>
    1e2a:	e08b      	b.n	1f44 <__aeabi_fsub+0x168>
    1e2c:	1e51      	subs	r1, r2, #1
    1e2e:	2900      	cmp	r1, #0
    1e30:	d000      	beq.n	1e34 <__aeabi_fsub+0x58>
    1e32:	e0b5      	b.n	1fa0 <__aeabi_fsub+0x1c4>
    1e34:	2401      	movs	r4, #1
    1e36:	1b9b      	subs	r3, r3, r6
    1e38:	015a      	lsls	r2, r3, #5
    1e3a:	d544      	bpl.n	1ec6 <__aeabi_fsub+0xea>
    1e3c:	019b      	lsls	r3, r3, #6
    1e3e:	099f      	lsrs	r7, r3, #6
    1e40:	0038      	movs	r0, r7
    1e42:	f001 f95b 	bl	30fc <__clzsi2>
    1e46:	3805      	subs	r0, #5
    1e48:	4087      	lsls	r7, r0
    1e4a:	4284      	cmp	r4, r0
    1e4c:	dd00      	ble.n	1e50 <__aeabi_fsub+0x74>
    1e4e:	e096      	b.n	1f7e <__aeabi_fsub+0x1a2>
    1e50:	1b04      	subs	r4, r0, r4
    1e52:	003a      	movs	r2, r7
    1e54:	2020      	movs	r0, #32
    1e56:	3401      	adds	r4, #1
    1e58:	40e2      	lsrs	r2, r4
    1e5a:	1b04      	subs	r4, r0, r4
    1e5c:	40a7      	lsls	r7, r4
    1e5e:	003b      	movs	r3, r7
    1e60:	1e5f      	subs	r7, r3, #1
    1e62:	41bb      	sbcs	r3, r7
    1e64:	2400      	movs	r4, #0
    1e66:	4313      	orrs	r3, r2
    1e68:	075a      	lsls	r2, r3, #29
    1e6a:	d004      	beq.n	1e76 <__aeabi_fsub+0x9a>
    1e6c:	220f      	movs	r2, #15
    1e6e:	401a      	ands	r2, r3
    1e70:	2a04      	cmp	r2, #4
    1e72:	d000      	beq.n	1e76 <__aeabi_fsub+0x9a>
    1e74:	3304      	adds	r3, #4
    1e76:	015a      	lsls	r2, r3, #5
    1e78:	d527      	bpl.n	1eca <__aeabi_fsub+0xee>
    1e7a:	3401      	adds	r4, #1
    1e7c:	2cff      	cmp	r4, #255	; 0xff
    1e7e:	d100      	bne.n	1e82 <__aeabi_fsub+0xa6>
    1e80:	e079      	b.n	1f76 <__aeabi_fsub+0x19a>
    1e82:	2201      	movs	r2, #1
    1e84:	019b      	lsls	r3, r3, #6
    1e86:	0a5b      	lsrs	r3, r3, #9
    1e88:	b2e4      	uxtb	r4, r4
    1e8a:	402a      	ands	r2, r5
    1e8c:	025b      	lsls	r3, r3, #9
    1e8e:	05e4      	lsls	r4, r4, #23
    1e90:	0a58      	lsrs	r0, r3, #9
    1e92:	07d2      	lsls	r2, r2, #31
    1e94:	4320      	orrs	r0, r4
    1e96:	4310      	orrs	r0, r2
    1e98:	bc1c      	pop	{r2, r3, r4}
    1e9a:	4690      	mov	r8, r2
    1e9c:	4699      	mov	r9, r3
    1e9e:	46a2      	mov	sl, r4
    1ea0:	bdf0      	pop	{r4, r5, r6, r7, pc}
    1ea2:	2cff      	cmp	r4, #255	; 0xff
    1ea4:	d0e0      	beq.n	1e68 <__aeabi_fsub+0x8c>
    1ea6:	2180      	movs	r1, #128	; 0x80
    1ea8:	04c9      	lsls	r1, r1, #19
    1eaa:	430e      	orrs	r6, r1
    1eac:	2a1b      	cmp	r2, #27
    1eae:	dc7b      	bgt.n	1fa8 <__aeabi_fsub+0x1cc>
    1eb0:	0031      	movs	r1, r6
    1eb2:	2020      	movs	r0, #32
    1eb4:	40d1      	lsrs	r1, r2
    1eb6:	1a82      	subs	r2, r0, r2
    1eb8:	4096      	lsls	r6, r2
    1eba:	1e72      	subs	r2, r6, #1
    1ebc:	4196      	sbcs	r6, r2
    1ebe:	430e      	orrs	r6, r1
    1ec0:	1b9b      	subs	r3, r3, r6
    1ec2:	015a      	lsls	r2, r3, #5
    1ec4:	d4ba      	bmi.n	1e3c <__aeabi_fsub+0x60>
    1ec6:	075a      	lsls	r2, r3, #29
    1ec8:	d1d0      	bne.n	1e6c <__aeabi_fsub+0x90>
    1eca:	2201      	movs	r2, #1
    1ecc:	08df      	lsrs	r7, r3, #3
    1ece:	402a      	ands	r2, r5
    1ed0:	2cff      	cmp	r4, #255	; 0xff
    1ed2:	d133      	bne.n	1f3c <__aeabi_fsub+0x160>
    1ed4:	2f00      	cmp	r7, #0
    1ed6:	d100      	bne.n	1eda <__aeabi_fsub+0xfe>
    1ed8:	e0a8      	b.n	202c <STACK_SIZE+0x2c>
    1eda:	2380      	movs	r3, #128	; 0x80
    1edc:	03db      	lsls	r3, r3, #15
    1ede:	433b      	orrs	r3, r7
    1ee0:	025b      	lsls	r3, r3, #9
    1ee2:	0a5b      	lsrs	r3, r3, #9
    1ee4:	24ff      	movs	r4, #255	; 0xff
    1ee6:	e7d1      	b.n	1e8c <__aeabi_fsub+0xb0>
    1ee8:	1a21      	subs	r1, r4, r0
    1eea:	2900      	cmp	r1, #0
    1eec:	dd4c      	ble.n	1f88 <__aeabi_fsub+0x1ac>
    1eee:	2800      	cmp	r0, #0
    1ef0:	d02a      	beq.n	1f48 <__aeabi_fsub+0x16c>
    1ef2:	2cff      	cmp	r4, #255	; 0xff
    1ef4:	d0b8      	beq.n	1e68 <__aeabi_fsub+0x8c>
    1ef6:	2080      	movs	r0, #128	; 0x80
    1ef8:	04c0      	lsls	r0, r0, #19
    1efa:	4306      	orrs	r6, r0
    1efc:	291b      	cmp	r1, #27
    1efe:	dd00      	ble.n	1f02 <__aeabi_fsub+0x126>
    1f00:	e0af      	b.n	2062 <STACK_SIZE+0x62>
    1f02:	0030      	movs	r0, r6
    1f04:	2720      	movs	r7, #32
    1f06:	40c8      	lsrs	r0, r1
    1f08:	1a79      	subs	r1, r7, r1
    1f0a:	408e      	lsls	r6, r1
    1f0c:	1e71      	subs	r1, r6, #1
    1f0e:	418e      	sbcs	r6, r1
    1f10:	4306      	orrs	r6, r0
    1f12:	199b      	adds	r3, r3, r6
    1f14:	0159      	lsls	r1, r3, #5
    1f16:	d5d6      	bpl.n	1ec6 <__aeabi_fsub+0xea>
    1f18:	3401      	adds	r4, #1
    1f1a:	2cff      	cmp	r4, #255	; 0xff
    1f1c:	d100      	bne.n	1f20 <__aeabi_fsub+0x144>
    1f1e:	e085      	b.n	202c <STACK_SIZE+0x2c>
    1f20:	2201      	movs	r2, #1
    1f22:	497a      	ldr	r1, [pc, #488]	; (210c <STACK_SIZE+0x10c>)
    1f24:	401a      	ands	r2, r3
    1f26:	085b      	lsrs	r3, r3, #1
    1f28:	400b      	ands	r3, r1
    1f2a:	4313      	orrs	r3, r2
    1f2c:	e79c      	b.n	1e68 <__aeabi_fsub+0x8c>
    1f2e:	2e00      	cmp	r6, #0
    1f30:	d000      	beq.n	1f34 <__aeabi_fsub+0x158>
    1f32:	e770      	b.n	1e16 <__aeabi_fsub+0x3a>
    1f34:	e76b      	b.n	1e0e <__aeabi_fsub+0x32>
    1f36:	1e3b      	subs	r3, r7, #0
    1f38:	d1c5      	bne.n	1ec6 <__aeabi_fsub+0xea>
    1f3a:	2200      	movs	r2, #0
    1f3c:	027b      	lsls	r3, r7, #9
    1f3e:	0a5b      	lsrs	r3, r3, #9
    1f40:	b2e4      	uxtb	r4, r4
    1f42:	e7a3      	b.n	1e8c <__aeabi_fsub+0xb0>
    1f44:	0014      	movs	r4, r2
    1f46:	e78f      	b.n	1e68 <__aeabi_fsub+0x8c>
    1f48:	2e00      	cmp	r6, #0
    1f4a:	d04d      	beq.n	1fe8 <__aeabi_fsub+0x20c>
    1f4c:	1e48      	subs	r0, r1, #1
    1f4e:	2800      	cmp	r0, #0
    1f50:	d157      	bne.n	2002 <STACK_SIZE+0x2>
    1f52:	199b      	adds	r3, r3, r6
    1f54:	2401      	movs	r4, #1
    1f56:	015a      	lsls	r2, r3, #5
    1f58:	d5b5      	bpl.n	1ec6 <__aeabi_fsub+0xea>
    1f5a:	2402      	movs	r4, #2
    1f5c:	e7e0      	b.n	1f20 <__aeabi_fsub+0x144>
    1f5e:	2a00      	cmp	r2, #0
    1f60:	d125      	bne.n	1fae <__aeabi_fsub+0x1d2>
    1f62:	1c62      	adds	r2, r4, #1
    1f64:	b2d2      	uxtb	r2, r2
    1f66:	2a01      	cmp	r2, #1
    1f68:	dd72      	ble.n	2050 <STACK_SIZE+0x50>
    1f6a:	1b9f      	subs	r7, r3, r6
    1f6c:	017a      	lsls	r2, r7, #5
    1f6e:	d535      	bpl.n	1fdc <__aeabi_fsub+0x200>
    1f70:	1af7      	subs	r7, r6, r3
    1f72:	000d      	movs	r5, r1
    1f74:	e764      	b.n	1e40 <__aeabi_fsub+0x64>
    1f76:	2201      	movs	r2, #1
    1f78:	2300      	movs	r3, #0
    1f7a:	402a      	ands	r2, r5
    1f7c:	e786      	b.n	1e8c <__aeabi_fsub+0xb0>
    1f7e:	003b      	movs	r3, r7
    1f80:	4a63      	ldr	r2, [pc, #396]	; (2110 <STACK_SIZE+0x110>)
    1f82:	1a24      	subs	r4, r4, r0
    1f84:	4013      	ands	r3, r2
    1f86:	e76f      	b.n	1e68 <__aeabi_fsub+0x8c>
    1f88:	2900      	cmp	r1, #0
    1f8a:	d16c      	bne.n	2066 <STACK_SIZE+0x66>
    1f8c:	1c61      	adds	r1, r4, #1
    1f8e:	b2c8      	uxtb	r0, r1
    1f90:	2801      	cmp	r0, #1
    1f92:	dd4e      	ble.n	2032 <STACK_SIZE+0x32>
    1f94:	29ff      	cmp	r1, #255	; 0xff
    1f96:	d049      	beq.n	202c <STACK_SIZE+0x2c>
    1f98:	199b      	adds	r3, r3, r6
    1f9a:	085b      	lsrs	r3, r3, #1
    1f9c:	000c      	movs	r4, r1
    1f9e:	e763      	b.n	1e68 <__aeabi_fsub+0x8c>
    1fa0:	2aff      	cmp	r2, #255	; 0xff
    1fa2:	d041      	beq.n	2028 <STACK_SIZE+0x28>
    1fa4:	000a      	movs	r2, r1
    1fa6:	e781      	b.n	1eac <__aeabi_fsub+0xd0>
    1fa8:	2601      	movs	r6, #1
    1faa:	1b9b      	subs	r3, r3, r6
    1fac:	e789      	b.n	1ec2 <__aeabi_fsub+0xe6>
    1fae:	2c00      	cmp	r4, #0
    1fb0:	d01c      	beq.n	1fec <__aeabi_fsub+0x210>
    1fb2:	28ff      	cmp	r0, #255	; 0xff
    1fb4:	d021      	beq.n	1ffa <__aeabi_fsub+0x21e>
    1fb6:	2480      	movs	r4, #128	; 0x80
    1fb8:	04e4      	lsls	r4, r4, #19
    1fba:	4252      	negs	r2, r2
    1fbc:	4323      	orrs	r3, r4
    1fbe:	2a1b      	cmp	r2, #27
    1fc0:	dd00      	ble.n	1fc4 <__aeabi_fsub+0x1e8>
    1fc2:	e096      	b.n	20f2 <STACK_SIZE+0xf2>
    1fc4:	001c      	movs	r4, r3
    1fc6:	2520      	movs	r5, #32
    1fc8:	40d4      	lsrs	r4, r2
    1fca:	1aaa      	subs	r2, r5, r2
    1fcc:	4093      	lsls	r3, r2
    1fce:	1e5a      	subs	r2, r3, #1
    1fd0:	4193      	sbcs	r3, r2
    1fd2:	4323      	orrs	r3, r4
    1fd4:	1af3      	subs	r3, r6, r3
    1fd6:	0004      	movs	r4, r0
    1fd8:	000d      	movs	r5, r1
    1fda:	e72d      	b.n	1e38 <__aeabi_fsub+0x5c>
    1fdc:	2f00      	cmp	r7, #0
    1fde:	d000      	beq.n	1fe2 <__aeabi_fsub+0x206>
    1fe0:	e72e      	b.n	1e40 <__aeabi_fsub+0x64>
    1fe2:	2200      	movs	r2, #0
    1fe4:	2400      	movs	r4, #0
    1fe6:	e7a9      	b.n	1f3c <__aeabi_fsub+0x160>
    1fe8:	000c      	movs	r4, r1
    1fea:	e73d      	b.n	1e68 <__aeabi_fsub+0x8c>
    1fec:	2b00      	cmp	r3, #0
    1fee:	d058      	beq.n	20a2 <STACK_SIZE+0xa2>
    1ff0:	43d2      	mvns	r2, r2
    1ff2:	2a00      	cmp	r2, #0
    1ff4:	d0ee      	beq.n	1fd4 <__aeabi_fsub+0x1f8>
    1ff6:	28ff      	cmp	r0, #255	; 0xff
    1ff8:	d1e1      	bne.n	1fbe <__aeabi_fsub+0x1e2>
    1ffa:	0033      	movs	r3, r6
    1ffc:	24ff      	movs	r4, #255	; 0xff
    1ffe:	000d      	movs	r5, r1
    2000:	e732      	b.n	1e68 <__aeabi_fsub+0x8c>
    2002:	29ff      	cmp	r1, #255	; 0xff
    2004:	d010      	beq.n	2028 <STACK_SIZE+0x28>
    2006:	0001      	movs	r1, r0
    2008:	e778      	b.n	1efc <__aeabi_fsub+0x120>
    200a:	2b00      	cmp	r3, #0
    200c:	d06e      	beq.n	20ec <STACK_SIZE+0xec>
    200e:	24ff      	movs	r4, #255	; 0xff
    2010:	2e00      	cmp	r6, #0
    2012:	d100      	bne.n	2016 <STACK_SIZE+0x16>
    2014:	e728      	b.n	1e68 <__aeabi_fsub+0x8c>
    2016:	2280      	movs	r2, #128	; 0x80
    2018:	4651      	mov	r1, sl
    201a:	03d2      	lsls	r2, r2, #15
    201c:	4211      	tst	r1, r2
    201e:	d003      	beq.n	2028 <STACK_SIZE+0x28>
    2020:	4661      	mov	r1, ip
    2022:	4211      	tst	r1, r2
    2024:	d100      	bne.n	2028 <STACK_SIZE+0x28>
    2026:	0033      	movs	r3, r6
    2028:	24ff      	movs	r4, #255	; 0xff
    202a:	e71d      	b.n	1e68 <__aeabi_fsub+0x8c>
    202c:	24ff      	movs	r4, #255	; 0xff
    202e:	2300      	movs	r3, #0
    2030:	e72c      	b.n	1e8c <__aeabi_fsub+0xb0>
    2032:	2c00      	cmp	r4, #0
    2034:	d1e9      	bne.n	200a <STACK_SIZE+0xa>
    2036:	2b00      	cmp	r3, #0
    2038:	d063      	beq.n	2102 <STACK_SIZE+0x102>
    203a:	2e00      	cmp	r6, #0
    203c:	d100      	bne.n	2040 <STACK_SIZE+0x40>
    203e:	e713      	b.n	1e68 <__aeabi_fsub+0x8c>
    2040:	199b      	adds	r3, r3, r6
    2042:	015a      	lsls	r2, r3, #5
    2044:	d400      	bmi.n	2048 <STACK_SIZE+0x48>
    2046:	e73e      	b.n	1ec6 <__aeabi_fsub+0xea>
    2048:	4a31      	ldr	r2, [pc, #196]	; (2110 <STACK_SIZE+0x110>)
    204a:	000c      	movs	r4, r1
    204c:	4013      	ands	r3, r2
    204e:	e70b      	b.n	1e68 <__aeabi_fsub+0x8c>
    2050:	2c00      	cmp	r4, #0
    2052:	d11e      	bne.n	2092 <STACK_SIZE+0x92>
    2054:	2b00      	cmp	r3, #0
    2056:	d12f      	bne.n	20b8 <STACK_SIZE+0xb8>
    2058:	2e00      	cmp	r6, #0
    205a:	d04f      	beq.n	20fc <STACK_SIZE+0xfc>
    205c:	0033      	movs	r3, r6
    205e:	000d      	movs	r5, r1
    2060:	e702      	b.n	1e68 <__aeabi_fsub+0x8c>
    2062:	2601      	movs	r6, #1
    2064:	e755      	b.n	1f12 <__aeabi_fsub+0x136>
    2066:	2c00      	cmp	r4, #0
    2068:	d11f      	bne.n	20aa <STACK_SIZE+0xaa>
    206a:	2b00      	cmp	r3, #0
    206c:	d043      	beq.n	20f6 <STACK_SIZE+0xf6>
    206e:	43c9      	mvns	r1, r1
    2070:	2900      	cmp	r1, #0
    2072:	d00b      	beq.n	208c <STACK_SIZE+0x8c>
    2074:	28ff      	cmp	r0, #255	; 0xff
    2076:	d039      	beq.n	20ec <STACK_SIZE+0xec>
    2078:	291b      	cmp	r1, #27
    207a:	dc44      	bgt.n	2106 <STACK_SIZE+0x106>
    207c:	001c      	movs	r4, r3
    207e:	2720      	movs	r7, #32
    2080:	40cc      	lsrs	r4, r1
    2082:	1a79      	subs	r1, r7, r1
    2084:	408b      	lsls	r3, r1
    2086:	1e59      	subs	r1, r3, #1
    2088:	418b      	sbcs	r3, r1
    208a:	4323      	orrs	r3, r4
    208c:	199b      	adds	r3, r3, r6
    208e:	0004      	movs	r4, r0
    2090:	e740      	b.n	1f14 <__aeabi_fsub+0x138>
    2092:	2b00      	cmp	r3, #0
    2094:	d11a      	bne.n	20cc <STACK_SIZE+0xcc>
    2096:	2e00      	cmp	r6, #0
    2098:	d124      	bne.n	20e4 <STACK_SIZE+0xe4>
    209a:	2780      	movs	r7, #128	; 0x80
    209c:	2200      	movs	r2, #0
    209e:	03ff      	lsls	r7, r7, #15
    20a0:	e71b      	b.n	1eda <__aeabi_fsub+0xfe>
    20a2:	0033      	movs	r3, r6
    20a4:	0004      	movs	r4, r0
    20a6:	000d      	movs	r5, r1
    20a8:	e6de      	b.n	1e68 <__aeabi_fsub+0x8c>
    20aa:	28ff      	cmp	r0, #255	; 0xff
    20ac:	d01e      	beq.n	20ec <STACK_SIZE+0xec>
    20ae:	2480      	movs	r4, #128	; 0x80
    20b0:	04e4      	lsls	r4, r4, #19
    20b2:	4249      	negs	r1, r1
    20b4:	4323      	orrs	r3, r4
    20b6:	e7df      	b.n	2078 <STACK_SIZE+0x78>
    20b8:	2e00      	cmp	r6, #0
    20ba:	d100      	bne.n	20be <STACK_SIZE+0xbe>
    20bc:	e6d4      	b.n	1e68 <__aeabi_fsub+0x8c>
    20be:	1b9f      	subs	r7, r3, r6
    20c0:	017a      	lsls	r2, r7, #5
    20c2:	d400      	bmi.n	20c6 <STACK_SIZE+0xc6>
    20c4:	e737      	b.n	1f36 <__aeabi_fsub+0x15a>
    20c6:	1af3      	subs	r3, r6, r3
    20c8:	000d      	movs	r5, r1
    20ca:	e6cd      	b.n	1e68 <__aeabi_fsub+0x8c>
    20cc:	24ff      	movs	r4, #255	; 0xff
    20ce:	2e00      	cmp	r6, #0
    20d0:	d100      	bne.n	20d4 <STACK_SIZE+0xd4>
    20d2:	e6c9      	b.n	1e68 <__aeabi_fsub+0x8c>
    20d4:	2280      	movs	r2, #128	; 0x80
    20d6:	4650      	mov	r0, sl
    20d8:	03d2      	lsls	r2, r2, #15
    20da:	4210      	tst	r0, r2
    20dc:	d0a4      	beq.n	2028 <STACK_SIZE+0x28>
    20de:	4660      	mov	r0, ip
    20e0:	4210      	tst	r0, r2
    20e2:	d1a1      	bne.n	2028 <STACK_SIZE+0x28>
    20e4:	0033      	movs	r3, r6
    20e6:	000d      	movs	r5, r1
    20e8:	24ff      	movs	r4, #255	; 0xff
    20ea:	e6bd      	b.n	1e68 <__aeabi_fsub+0x8c>
    20ec:	0033      	movs	r3, r6
    20ee:	24ff      	movs	r4, #255	; 0xff
    20f0:	e6ba      	b.n	1e68 <__aeabi_fsub+0x8c>
    20f2:	2301      	movs	r3, #1
    20f4:	e76e      	b.n	1fd4 <__aeabi_fsub+0x1f8>
    20f6:	0033      	movs	r3, r6
    20f8:	0004      	movs	r4, r0
    20fa:	e6b5      	b.n	1e68 <__aeabi_fsub+0x8c>
    20fc:	2700      	movs	r7, #0
    20fe:	2200      	movs	r2, #0
    2100:	e71c      	b.n	1f3c <__aeabi_fsub+0x160>
    2102:	0033      	movs	r3, r6
    2104:	e6b0      	b.n	1e68 <__aeabi_fsub+0x8c>
    2106:	2301      	movs	r3, #1
    2108:	e7c0      	b.n	208c <STACK_SIZE+0x8c>
    210a:	46c0      	nop			; (mov r8, r8)
    210c:	7dffffff 	.word	0x7dffffff
    2110:	fbffffff 	.word	0xfbffffff

00002114 <__aeabi_ui2f>:
    2114:	b510      	push	{r4, lr}
    2116:	1e04      	subs	r4, r0, #0
    2118:	d027      	beq.n	216a <__aeabi_ui2f+0x56>
    211a:	f000 ffef 	bl	30fc <__clzsi2>
    211e:	239e      	movs	r3, #158	; 0x9e
    2120:	1a1b      	subs	r3, r3, r0
    2122:	2b96      	cmp	r3, #150	; 0x96
    2124:	dc0a      	bgt.n	213c <__aeabi_ui2f+0x28>
    2126:	2296      	movs	r2, #150	; 0x96
    2128:	1ad2      	subs	r2, r2, r3
    212a:	4094      	lsls	r4, r2
    212c:	0264      	lsls	r4, r4, #9
    212e:	0a64      	lsrs	r4, r4, #9
    2130:	b2db      	uxtb	r3, r3
    2132:	0264      	lsls	r4, r4, #9
    2134:	05db      	lsls	r3, r3, #23
    2136:	0a60      	lsrs	r0, r4, #9
    2138:	4318      	orrs	r0, r3
    213a:	bd10      	pop	{r4, pc}
    213c:	2b99      	cmp	r3, #153	; 0x99
    213e:	dc17      	bgt.n	2170 <__aeabi_ui2f+0x5c>
    2140:	2299      	movs	r2, #153	; 0x99
    2142:	1ad2      	subs	r2, r2, r3
    2144:	2a00      	cmp	r2, #0
    2146:	dd27      	ble.n	2198 <__aeabi_ui2f+0x84>
    2148:	4094      	lsls	r4, r2
    214a:	0022      	movs	r2, r4
    214c:	4c13      	ldr	r4, [pc, #76]	; (219c <__aeabi_ui2f+0x88>)
    214e:	4014      	ands	r4, r2
    2150:	0751      	lsls	r1, r2, #29
    2152:	d004      	beq.n	215e <__aeabi_ui2f+0x4a>
    2154:	210f      	movs	r1, #15
    2156:	400a      	ands	r2, r1
    2158:	2a04      	cmp	r2, #4
    215a:	d000      	beq.n	215e <__aeabi_ui2f+0x4a>
    215c:	3404      	adds	r4, #4
    215e:	0162      	lsls	r2, r4, #5
    2160:	d412      	bmi.n	2188 <__aeabi_ui2f+0x74>
    2162:	01a4      	lsls	r4, r4, #6
    2164:	0a64      	lsrs	r4, r4, #9
    2166:	b2db      	uxtb	r3, r3
    2168:	e7e3      	b.n	2132 <__aeabi_ui2f+0x1e>
    216a:	2300      	movs	r3, #0
    216c:	2400      	movs	r4, #0
    216e:	e7e0      	b.n	2132 <__aeabi_ui2f+0x1e>
    2170:	22b9      	movs	r2, #185	; 0xb9
    2172:	0021      	movs	r1, r4
    2174:	1ad2      	subs	r2, r2, r3
    2176:	4091      	lsls	r1, r2
    2178:	000a      	movs	r2, r1
    217a:	1e51      	subs	r1, r2, #1
    217c:	418a      	sbcs	r2, r1
    217e:	2105      	movs	r1, #5
    2180:	1a09      	subs	r1, r1, r0
    2182:	40cc      	lsrs	r4, r1
    2184:	4314      	orrs	r4, r2
    2186:	e7db      	b.n	2140 <__aeabi_ui2f+0x2c>
    2188:	4b04      	ldr	r3, [pc, #16]	; (219c <__aeabi_ui2f+0x88>)
    218a:	401c      	ands	r4, r3
    218c:	239f      	movs	r3, #159	; 0x9f
    218e:	01a4      	lsls	r4, r4, #6
    2190:	1a1b      	subs	r3, r3, r0
    2192:	0a64      	lsrs	r4, r4, #9
    2194:	b2db      	uxtb	r3, r3
    2196:	e7cc      	b.n	2132 <__aeabi_ui2f+0x1e>
    2198:	0022      	movs	r2, r4
    219a:	e7d7      	b.n	214c <__aeabi_ui2f+0x38>
    219c:	fbffffff 	.word	0xfbffffff

000021a0 <__aeabi_dadd>:
    21a0:	b5f8      	push	{r3, r4, r5, r6, r7, lr}
    21a2:	4645      	mov	r5, r8
    21a4:	46de      	mov	lr, fp
    21a6:	4657      	mov	r7, sl
    21a8:	464e      	mov	r6, r9
    21aa:	030c      	lsls	r4, r1, #12
    21ac:	b5e0      	push	{r5, r6, r7, lr}
    21ae:	004e      	lsls	r6, r1, #1
    21b0:	0fc9      	lsrs	r1, r1, #31
    21b2:	4688      	mov	r8, r1
    21b4:	000d      	movs	r5, r1
    21b6:	0a61      	lsrs	r1, r4, #9
    21b8:	0f44      	lsrs	r4, r0, #29
    21ba:	430c      	orrs	r4, r1
    21bc:	00c7      	lsls	r7, r0, #3
    21be:	0319      	lsls	r1, r3, #12
    21c0:	0058      	lsls	r0, r3, #1
    21c2:	0fdb      	lsrs	r3, r3, #31
    21c4:	469b      	mov	fp, r3
    21c6:	0a4b      	lsrs	r3, r1, #9
    21c8:	0f51      	lsrs	r1, r2, #29
    21ca:	430b      	orrs	r3, r1
    21cc:	0d76      	lsrs	r6, r6, #21
    21ce:	0d40      	lsrs	r0, r0, #21
    21d0:	0019      	movs	r1, r3
    21d2:	00d2      	lsls	r2, r2, #3
    21d4:	45d8      	cmp	r8, fp
    21d6:	d100      	bne.n	21da <__aeabi_dadd+0x3a>
    21d8:	e0ae      	b.n	2338 <__aeabi_dadd+0x198>
    21da:	1a35      	subs	r5, r6, r0
    21dc:	2d00      	cmp	r5, #0
    21de:	dc00      	bgt.n	21e2 <__aeabi_dadd+0x42>
    21e0:	e0f6      	b.n	23d0 <__aeabi_dadd+0x230>
    21e2:	2800      	cmp	r0, #0
    21e4:	d10f      	bne.n	2206 <__aeabi_dadd+0x66>
    21e6:	4313      	orrs	r3, r2
    21e8:	d100      	bne.n	21ec <__aeabi_dadd+0x4c>
    21ea:	e0db      	b.n	23a4 <__aeabi_dadd+0x204>
    21ec:	1e6b      	subs	r3, r5, #1
    21ee:	2b00      	cmp	r3, #0
    21f0:	d000      	beq.n	21f4 <__aeabi_dadd+0x54>
    21f2:	e137      	b.n	2464 <__aeabi_dadd+0x2c4>
    21f4:	1aba      	subs	r2, r7, r2
    21f6:	4297      	cmp	r7, r2
    21f8:	41bf      	sbcs	r7, r7
    21fa:	1a64      	subs	r4, r4, r1
    21fc:	427f      	negs	r7, r7
    21fe:	1be4      	subs	r4, r4, r7
    2200:	2601      	movs	r6, #1
    2202:	0017      	movs	r7, r2
    2204:	e024      	b.n	2250 <__aeabi_dadd+0xb0>
    2206:	4bc6      	ldr	r3, [pc, #792]	; (2520 <__aeabi_dadd+0x380>)
    2208:	429e      	cmp	r6, r3
    220a:	d04d      	beq.n	22a8 <__aeabi_dadd+0x108>
    220c:	2380      	movs	r3, #128	; 0x80
    220e:	041b      	lsls	r3, r3, #16
    2210:	4319      	orrs	r1, r3
    2212:	2d38      	cmp	r5, #56	; 0x38
    2214:	dd00      	ble.n	2218 <__aeabi_dadd+0x78>
    2216:	e107      	b.n	2428 <__aeabi_dadd+0x288>
    2218:	2d1f      	cmp	r5, #31
    221a:	dd00      	ble.n	221e <__aeabi_dadd+0x7e>
    221c:	e138      	b.n	2490 <__aeabi_dadd+0x2f0>
    221e:	2020      	movs	r0, #32
    2220:	1b43      	subs	r3, r0, r5
    2222:	469a      	mov	sl, r3
    2224:	000b      	movs	r3, r1
    2226:	4650      	mov	r0, sl
    2228:	4083      	lsls	r3, r0
    222a:	4699      	mov	r9, r3
    222c:	0013      	movs	r3, r2
    222e:	4648      	mov	r0, r9
    2230:	40eb      	lsrs	r3, r5
    2232:	4318      	orrs	r0, r3
    2234:	0003      	movs	r3, r0
    2236:	4650      	mov	r0, sl
    2238:	4082      	lsls	r2, r0
    223a:	1e50      	subs	r0, r2, #1
    223c:	4182      	sbcs	r2, r0
    223e:	40e9      	lsrs	r1, r5
    2240:	431a      	orrs	r2, r3
    2242:	1aba      	subs	r2, r7, r2
    2244:	1a61      	subs	r1, r4, r1
    2246:	4297      	cmp	r7, r2
    2248:	41a4      	sbcs	r4, r4
    224a:	0017      	movs	r7, r2
    224c:	4264      	negs	r4, r4
    224e:	1b0c      	subs	r4, r1, r4
    2250:	0223      	lsls	r3, r4, #8
    2252:	d562      	bpl.n	231a <__aeabi_dadd+0x17a>
    2254:	0264      	lsls	r4, r4, #9
    2256:	0a65      	lsrs	r5, r4, #9
    2258:	2d00      	cmp	r5, #0
    225a:	d100      	bne.n	225e <__aeabi_dadd+0xbe>
    225c:	e0df      	b.n	241e <__aeabi_dadd+0x27e>
    225e:	0028      	movs	r0, r5
    2260:	f000 ff4c 	bl	30fc <__clzsi2>
    2264:	0003      	movs	r3, r0
    2266:	3b08      	subs	r3, #8
    2268:	2b1f      	cmp	r3, #31
    226a:	dd00      	ble.n	226e <__aeabi_dadd+0xce>
    226c:	e0d2      	b.n	2414 <__aeabi_dadd+0x274>
    226e:	2220      	movs	r2, #32
    2270:	003c      	movs	r4, r7
    2272:	1ad2      	subs	r2, r2, r3
    2274:	409d      	lsls	r5, r3
    2276:	40d4      	lsrs	r4, r2
    2278:	409f      	lsls	r7, r3
    227a:	4325      	orrs	r5, r4
    227c:	429e      	cmp	r6, r3
    227e:	dd00      	ble.n	2282 <__aeabi_dadd+0xe2>
    2280:	e0c4      	b.n	240c <__aeabi_dadd+0x26c>
    2282:	1b9e      	subs	r6, r3, r6
    2284:	1c73      	adds	r3, r6, #1
    2286:	2b1f      	cmp	r3, #31
    2288:	dd00      	ble.n	228c <__aeabi_dadd+0xec>
    228a:	e0f1      	b.n	2470 <__aeabi_dadd+0x2d0>
    228c:	2220      	movs	r2, #32
    228e:	0038      	movs	r0, r7
    2290:	0029      	movs	r1, r5
    2292:	1ad2      	subs	r2, r2, r3
    2294:	40d8      	lsrs	r0, r3
    2296:	4091      	lsls	r1, r2
    2298:	4097      	lsls	r7, r2
    229a:	002c      	movs	r4, r5
    229c:	4301      	orrs	r1, r0
    229e:	1e78      	subs	r0, r7, #1
    22a0:	4187      	sbcs	r7, r0
    22a2:	40dc      	lsrs	r4, r3
    22a4:	2600      	movs	r6, #0
    22a6:	430f      	orrs	r7, r1
    22a8:	077b      	lsls	r3, r7, #29
    22aa:	d009      	beq.n	22c0 <__aeabi_dadd+0x120>
    22ac:	230f      	movs	r3, #15
    22ae:	403b      	ands	r3, r7
    22b0:	2b04      	cmp	r3, #4
    22b2:	d005      	beq.n	22c0 <__aeabi_dadd+0x120>
    22b4:	1d3b      	adds	r3, r7, #4
    22b6:	42bb      	cmp	r3, r7
    22b8:	41bf      	sbcs	r7, r7
    22ba:	427f      	negs	r7, r7
    22bc:	19e4      	adds	r4, r4, r7
    22be:	001f      	movs	r7, r3
    22c0:	0223      	lsls	r3, r4, #8
    22c2:	d52c      	bpl.n	231e <__aeabi_dadd+0x17e>
    22c4:	4b96      	ldr	r3, [pc, #600]	; (2520 <__aeabi_dadd+0x380>)
    22c6:	3601      	adds	r6, #1
    22c8:	429e      	cmp	r6, r3
    22ca:	d100      	bne.n	22ce <__aeabi_dadd+0x12e>
    22cc:	e09a      	b.n	2404 <__aeabi_dadd+0x264>
    22ce:	4645      	mov	r5, r8
    22d0:	4b94      	ldr	r3, [pc, #592]	; (2524 <__aeabi_dadd+0x384>)
    22d2:	08ff      	lsrs	r7, r7, #3
    22d4:	401c      	ands	r4, r3
    22d6:	0760      	lsls	r0, r4, #29
    22d8:	0576      	lsls	r6, r6, #21
    22da:	0264      	lsls	r4, r4, #9
    22dc:	4307      	orrs	r7, r0
    22de:	0b24      	lsrs	r4, r4, #12
    22e0:	0d76      	lsrs	r6, r6, #21
    22e2:	2100      	movs	r1, #0
    22e4:	0324      	lsls	r4, r4, #12
    22e6:	0b23      	lsrs	r3, r4, #12
    22e8:	0d0c      	lsrs	r4, r1, #20
    22ea:	4a8f      	ldr	r2, [pc, #572]	; (2528 <__aeabi_dadd+0x388>)
    22ec:	0524      	lsls	r4, r4, #20
    22ee:	431c      	orrs	r4, r3
    22f0:	4014      	ands	r4, r2
    22f2:	0533      	lsls	r3, r6, #20
    22f4:	4323      	orrs	r3, r4
    22f6:	005b      	lsls	r3, r3, #1
    22f8:	07ed      	lsls	r5, r5, #31
    22fa:	085b      	lsrs	r3, r3, #1
    22fc:	432b      	orrs	r3, r5
    22fe:	0038      	movs	r0, r7
    2300:	0019      	movs	r1, r3
    2302:	bc3c      	pop	{r2, r3, r4, r5}
    2304:	4690      	mov	r8, r2
    2306:	4699      	mov	r9, r3
    2308:	46a2      	mov	sl, r4
    230a:	46ab      	mov	fp, r5
    230c:	bdf8      	pop	{r3, r4, r5, r6, r7, pc}
    230e:	4664      	mov	r4, ip
    2310:	4304      	orrs	r4, r0
    2312:	d100      	bne.n	2316 <__aeabi_dadd+0x176>
    2314:	e211      	b.n	273a <__aeabi_dadd+0x59a>
    2316:	0004      	movs	r4, r0
    2318:	4667      	mov	r7, ip
    231a:	077b      	lsls	r3, r7, #29
    231c:	d1c6      	bne.n	22ac <__aeabi_dadd+0x10c>
    231e:	4645      	mov	r5, r8
    2320:	0760      	lsls	r0, r4, #29
    2322:	08ff      	lsrs	r7, r7, #3
    2324:	4307      	orrs	r7, r0
    2326:	08e4      	lsrs	r4, r4, #3
    2328:	4b7d      	ldr	r3, [pc, #500]	; (2520 <__aeabi_dadd+0x380>)
    232a:	429e      	cmp	r6, r3
    232c:	d030      	beq.n	2390 <__aeabi_dadd+0x1f0>
    232e:	0324      	lsls	r4, r4, #12
    2330:	0576      	lsls	r6, r6, #21
    2332:	0b24      	lsrs	r4, r4, #12
    2334:	0d76      	lsrs	r6, r6, #21
    2336:	e7d4      	b.n	22e2 <__aeabi_dadd+0x142>
    2338:	1a33      	subs	r3, r6, r0
    233a:	469a      	mov	sl, r3
    233c:	2b00      	cmp	r3, #0
    233e:	dd78      	ble.n	2432 <__aeabi_dadd+0x292>
    2340:	2800      	cmp	r0, #0
    2342:	d031      	beq.n	23a8 <__aeabi_dadd+0x208>
    2344:	4876      	ldr	r0, [pc, #472]	; (2520 <__aeabi_dadd+0x380>)
    2346:	4286      	cmp	r6, r0
    2348:	d0ae      	beq.n	22a8 <__aeabi_dadd+0x108>
    234a:	2080      	movs	r0, #128	; 0x80
    234c:	0400      	lsls	r0, r0, #16
    234e:	4301      	orrs	r1, r0
    2350:	4653      	mov	r3, sl
    2352:	2b38      	cmp	r3, #56	; 0x38
    2354:	dc00      	bgt.n	2358 <__aeabi_dadd+0x1b8>
    2356:	e0e9      	b.n	252c <__aeabi_dadd+0x38c>
    2358:	430a      	orrs	r2, r1
    235a:	1e51      	subs	r1, r2, #1
    235c:	418a      	sbcs	r2, r1
    235e:	2100      	movs	r1, #0
    2360:	19d2      	adds	r2, r2, r7
    2362:	42ba      	cmp	r2, r7
    2364:	41bf      	sbcs	r7, r7
    2366:	1909      	adds	r1, r1, r4
    2368:	427c      	negs	r4, r7
    236a:	0017      	movs	r7, r2
    236c:	190c      	adds	r4, r1, r4
    236e:	0223      	lsls	r3, r4, #8
    2370:	d5d3      	bpl.n	231a <__aeabi_dadd+0x17a>
    2372:	4b6b      	ldr	r3, [pc, #428]	; (2520 <__aeabi_dadd+0x380>)
    2374:	3601      	adds	r6, #1
    2376:	429e      	cmp	r6, r3
    2378:	d100      	bne.n	237c <__aeabi_dadd+0x1dc>
    237a:	e13a      	b.n	25f2 <__aeabi_dadd+0x452>
    237c:	2001      	movs	r0, #1
    237e:	4b69      	ldr	r3, [pc, #420]	; (2524 <__aeabi_dadd+0x384>)
    2380:	401c      	ands	r4, r3
    2382:	087b      	lsrs	r3, r7, #1
    2384:	4007      	ands	r7, r0
    2386:	431f      	orrs	r7, r3
    2388:	07e0      	lsls	r0, r4, #31
    238a:	4307      	orrs	r7, r0
    238c:	0864      	lsrs	r4, r4, #1
    238e:	e78b      	b.n	22a8 <__aeabi_dadd+0x108>
    2390:	0023      	movs	r3, r4
    2392:	433b      	orrs	r3, r7
    2394:	d100      	bne.n	2398 <__aeabi_dadd+0x1f8>
    2396:	e1cb      	b.n	2730 <__aeabi_dadd+0x590>
    2398:	2280      	movs	r2, #128	; 0x80
    239a:	0312      	lsls	r2, r2, #12
    239c:	4314      	orrs	r4, r2
    239e:	0324      	lsls	r4, r4, #12
    23a0:	0b24      	lsrs	r4, r4, #12
    23a2:	e79e      	b.n	22e2 <__aeabi_dadd+0x142>
    23a4:	002e      	movs	r6, r5
    23a6:	e77f      	b.n	22a8 <__aeabi_dadd+0x108>
    23a8:	0008      	movs	r0, r1
    23aa:	4310      	orrs	r0, r2
    23ac:	d100      	bne.n	23b0 <__aeabi_dadd+0x210>
    23ae:	e0b4      	b.n	251a <__aeabi_dadd+0x37a>
    23b0:	1e58      	subs	r0, r3, #1
    23b2:	2800      	cmp	r0, #0
    23b4:	d000      	beq.n	23b8 <__aeabi_dadd+0x218>
    23b6:	e0de      	b.n	2576 <__aeabi_dadd+0x3d6>
    23b8:	18ba      	adds	r2, r7, r2
    23ba:	42ba      	cmp	r2, r7
    23bc:	419b      	sbcs	r3, r3
    23be:	1864      	adds	r4, r4, r1
    23c0:	425b      	negs	r3, r3
    23c2:	18e4      	adds	r4, r4, r3
    23c4:	0017      	movs	r7, r2
    23c6:	2601      	movs	r6, #1
    23c8:	0223      	lsls	r3, r4, #8
    23ca:	d5a6      	bpl.n	231a <__aeabi_dadd+0x17a>
    23cc:	2602      	movs	r6, #2
    23ce:	e7d5      	b.n	237c <__aeabi_dadd+0x1dc>
    23d0:	2d00      	cmp	r5, #0
    23d2:	d16e      	bne.n	24b2 <__aeabi_dadd+0x312>
    23d4:	1c70      	adds	r0, r6, #1
    23d6:	0540      	lsls	r0, r0, #21
    23d8:	0d40      	lsrs	r0, r0, #21
    23da:	2801      	cmp	r0, #1
    23dc:	dc00      	bgt.n	23e0 <__aeabi_dadd+0x240>
    23de:	e0f9      	b.n	25d4 <__aeabi_dadd+0x434>
    23e0:	1ab8      	subs	r0, r7, r2
    23e2:	4684      	mov	ip, r0
    23e4:	4287      	cmp	r7, r0
    23e6:	4180      	sbcs	r0, r0
    23e8:	1ae5      	subs	r5, r4, r3
    23ea:	4240      	negs	r0, r0
    23ec:	1a2d      	subs	r5, r5, r0
    23ee:	0228      	lsls	r0, r5, #8
    23f0:	d400      	bmi.n	23f4 <__aeabi_dadd+0x254>
    23f2:	e089      	b.n	2508 <__aeabi_dadd+0x368>
    23f4:	1bd7      	subs	r7, r2, r7
    23f6:	42ba      	cmp	r2, r7
    23f8:	4192      	sbcs	r2, r2
    23fa:	1b1c      	subs	r4, r3, r4
    23fc:	4252      	negs	r2, r2
    23fe:	1aa5      	subs	r5, r4, r2
    2400:	46d8      	mov	r8, fp
    2402:	e729      	b.n	2258 <__aeabi_dadd+0xb8>
    2404:	4645      	mov	r5, r8
    2406:	2400      	movs	r4, #0
    2408:	2700      	movs	r7, #0
    240a:	e76a      	b.n	22e2 <__aeabi_dadd+0x142>
    240c:	4c45      	ldr	r4, [pc, #276]	; (2524 <__aeabi_dadd+0x384>)
    240e:	1af6      	subs	r6, r6, r3
    2410:	402c      	ands	r4, r5
    2412:	e749      	b.n	22a8 <__aeabi_dadd+0x108>
    2414:	003d      	movs	r5, r7
    2416:	3828      	subs	r0, #40	; 0x28
    2418:	4085      	lsls	r5, r0
    241a:	2700      	movs	r7, #0
    241c:	e72e      	b.n	227c <__aeabi_dadd+0xdc>
    241e:	0038      	movs	r0, r7
    2420:	f000 fe6c 	bl	30fc <__clzsi2>
    2424:	3020      	adds	r0, #32
    2426:	e71d      	b.n	2264 <__aeabi_dadd+0xc4>
    2428:	430a      	orrs	r2, r1
    242a:	1e51      	subs	r1, r2, #1
    242c:	418a      	sbcs	r2, r1
    242e:	2100      	movs	r1, #0
    2430:	e707      	b.n	2242 <__aeabi_dadd+0xa2>
    2432:	2b00      	cmp	r3, #0
    2434:	d000      	beq.n	2438 <__aeabi_dadd+0x298>
    2436:	e0f3      	b.n	2620 <__aeabi_dadd+0x480>
    2438:	1c70      	adds	r0, r6, #1
    243a:	0543      	lsls	r3, r0, #21
    243c:	0d5b      	lsrs	r3, r3, #21
    243e:	2b01      	cmp	r3, #1
    2440:	dc00      	bgt.n	2444 <__aeabi_dadd+0x2a4>
    2442:	e0ad      	b.n	25a0 <__aeabi_dadd+0x400>
    2444:	4b36      	ldr	r3, [pc, #216]	; (2520 <__aeabi_dadd+0x380>)
    2446:	4298      	cmp	r0, r3
    2448:	d100      	bne.n	244c <__aeabi_dadd+0x2ac>
    244a:	e0d1      	b.n	25f0 <__aeabi_dadd+0x450>
    244c:	18ba      	adds	r2, r7, r2
    244e:	42ba      	cmp	r2, r7
    2450:	41bf      	sbcs	r7, r7
    2452:	1864      	adds	r4, r4, r1
    2454:	427f      	negs	r7, r7
    2456:	19e4      	adds	r4, r4, r7
    2458:	07e7      	lsls	r7, r4, #31
    245a:	0852      	lsrs	r2, r2, #1
    245c:	4317      	orrs	r7, r2
    245e:	0864      	lsrs	r4, r4, #1
    2460:	0006      	movs	r6, r0
    2462:	e721      	b.n	22a8 <__aeabi_dadd+0x108>
    2464:	482e      	ldr	r0, [pc, #184]	; (2520 <__aeabi_dadd+0x380>)
    2466:	4285      	cmp	r5, r0
    2468:	d100      	bne.n	246c <__aeabi_dadd+0x2cc>
    246a:	e093      	b.n	2594 <__aeabi_dadd+0x3f4>
    246c:	001d      	movs	r5, r3
    246e:	e6d0      	b.n	2212 <__aeabi_dadd+0x72>
    2470:	0029      	movs	r1, r5
    2472:	3e1f      	subs	r6, #31
    2474:	40f1      	lsrs	r1, r6
    2476:	2b20      	cmp	r3, #32
    2478:	d100      	bne.n	247c <__aeabi_dadd+0x2dc>
    247a:	e08d      	b.n	2598 <__aeabi_dadd+0x3f8>
    247c:	2240      	movs	r2, #64	; 0x40
    247e:	1ad3      	subs	r3, r2, r3
    2480:	409d      	lsls	r5, r3
    2482:	432f      	orrs	r7, r5
    2484:	1e7d      	subs	r5, r7, #1
    2486:	41af      	sbcs	r7, r5
    2488:	2400      	movs	r4, #0
    248a:	430f      	orrs	r7, r1
    248c:	2600      	movs	r6, #0
    248e:	e744      	b.n	231a <__aeabi_dadd+0x17a>
    2490:	002b      	movs	r3, r5
    2492:	0008      	movs	r0, r1
    2494:	3b20      	subs	r3, #32
    2496:	40d8      	lsrs	r0, r3
    2498:	0003      	movs	r3, r0
    249a:	2d20      	cmp	r5, #32
    249c:	d100      	bne.n	24a0 <__aeabi_dadd+0x300>
    249e:	e07d      	b.n	259c <__aeabi_dadd+0x3fc>
    24a0:	2040      	movs	r0, #64	; 0x40
    24a2:	1b45      	subs	r5, r0, r5
    24a4:	40a9      	lsls	r1, r5
    24a6:	430a      	orrs	r2, r1
    24a8:	1e51      	subs	r1, r2, #1
    24aa:	418a      	sbcs	r2, r1
    24ac:	2100      	movs	r1, #0
    24ae:	431a      	orrs	r2, r3
    24b0:	e6c7      	b.n	2242 <__aeabi_dadd+0xa2>
    24b2:	2e00      	cmp	r6, #0
    24b4:	d050      	beq.n	2558 <__aeabi_dadd+0x3b8>
    24b6:	4e1a      	ldr	r6, [pc, #104]	; (2520 <__aeabi_dadd+0x380>)
    24b8:	42b0      	cmp	r0, r6
    24ba:	d057      	beq.n	256c <__aeabi_dadd+0x3cc>
    24bc:	2680      	movs	r6, #128	; 0x80
    24be:	426b      	negs	r3, r5
    24c0:	4699      	mov	r9, r3
    24c2:	0436      	lsls	r6, r6, #16
    24c4:	4334      	orrs	r4, r6
    24c6:	464b      	mov	r3, r9
    24c8:	2b38      	cmp	r3, #56	; 0x38
    24ca:	dd00      	ble.n	24ce <__aeabi_dadd+0x32e>
    24cc:	e0d6      	b.n	267c <__aeabi_dadd+0x4dc>
    24ce:	2b1f      	cmp	r3, #31
    24d0:	dd00      	ble.n	24d4 <__aeabi_dadd+0x334>
    24d2:	e135      	b.n	2740 <__aeabi_dadd+0x5a0>
    24d4:	2620      	movs	r6, #32
    24d6:	1af5      	subs	r5, r6, r3
    24d8:	0026      	movs	r6, r4
    24da:	40ae      	lsls	r6, r5
    24dc:	46b2      	mov	sl, r6
    24de:	003e      	movs	r6, r7
    24e0:	40de      	lsrs	r6, r3
    24e2:	46ac      	mov	ip, r5
    24e4:	0035      	movs	r5, r6
    24e6:	4656      	mov	r6, sl
    24e8:	432e      	orrs	r6, r5
    24ea:	4665      	mov	r5, ip
    24ec:	40af      	lsls	r7, r5
    24ee:	1e7d      	subs	r5, r7, #1
    24f0:	41af      	sbcs	r7, r5
    24f2:	40dc      	lsrs	r4, r3
    24f4:	4337      	orrs	r7, r6
    24f6:	1bd7      	subs	r7, r2, r7
    24f8:	42ba      	cmp	r2, r7
    24fa:	4192      	sbcs	r2, r2
    24fc:	1b0c      	subs	r4, r1, r4
    24fe:	4252      	negs	r2, r2
    2500:	1aa4      	subs	r4, r4, r2
    2502:	0006      	movs	r6, r0
    2504:	46d8      	mov	r8, fp
    2506:	e6a3      	b.n	2250 <__aeabi_dadd+0xb0>
    2508:	4664      	mov	r4, ip
    250a:	4667      	mov	r7, ip
    250c:	432c      	orrs	r4, r5
    250e:	d000      	beq.n	2512 <__aeabi_dadd+0x372>
    2510:	e6a2      	b.n	2258 <__aeabi_dadd+0xb8>
    2512:	2500      	movs	r5, #0
    2514:	2600      	movs	r6, #0
    2516:	2700      	movs	r7, #0
    2518:	e706      	b.n	2328 <__aeabi_dadd+0x188>
    251a:	001e      	movs	r6, r3
    251c:	e6c4      	b.n	22a8 <__aeabi_dadd+0x108>
    251e:	46c0      	nop			; (mov r8, r8)
    2520:	000007ff 	.word	0x000007ff
    2524:	ff7fffff 	.word	0xff7fffff
    2528:	800fffff 	.word	0x800fffff
    252c:	2b1f      	cmp	r3, #31
    252e:	dc63      	bgt.n	25f8 <__aeabi_dadd+0x458>
    2530:	2020      	movs	r0, #32
    2532:	1ac3      	subs	r3, r0, r3
    2534:	0008      	movs	r0, r1
    2536:	4098      	lsls	r0, r3
    2538:	469c      	mov	ip, r3
    253a:	4683      	mov	fp, r0
    253c:	4653      	mov	r3, sl
    253e:	0010      	movs	r0, r2
    2540:	40d8      	lsrs	r0, r3
    2542:	0003      	movs	r3, r0
    2544:	4658      	mov	r0, fp
    2546:	4318      	orrs	r0, r3
    2548:	4663      	mov	r3, ip
    254a:	409a      	lsls	r2, r3
    254c:	1e53      	subs	r3, r2, #1
    254e:	419a      	sbcs	r2, r3
    2550:	4653      	mov	r3, sl
    2552:	4302      	orrs	r2, r0
    2554:	40d9      	lsrs	r1, r3
    2556:	e703      	b.n	2360 <__aeabi_dadd+0x1c0>
    2558:	0026      	movs	r6, r4
    255a:	433e      	orrs	r6, r7
    255c:	d006      	beq.n	256c <__aeabi_dadd+0x3cc>
    255e:	43eb      	mvns	r3, r5
    2560:	4699      	mov	r9, r3
    2562:	2b00      	cmp	r3, #0
    2564:	d0c7      	beq.n	24f6 <__aeabi_dadd+0x356>
    2566:	4e94      	ldr	r6, [pc, #592]	; (27b8 <__aeabi_dadd+0x618>)
    2568:	42b0      	cmp	r0, r6
    256a:	d1ac      	bne.n	24c6 <__aeabi_dadd+0x326>
    256c:	000c      	movs	r4, r1
    256e:	0017      	movs	r7, r2
    2570:	0006      	movs	r6, r0
    2572:	46d8      	mov	r8, fp
    2574:	e698      	b.n	22a8 <__aeabi_dadd+0x108>
    2576:	4b90      	ldr	r3, [pc, #576]	; (27b8 <__aeabi_dadd+0x618>)
    2578:	459a      	cmp	sl, r3
    257a:	d00b      	beq.n	2594 <__aeabi_dadd+0x3f4>
    257c:	4682      	mov	sl, r0
    257e:	e6e7      	b.n	2350 <__aeabi_dadd+0x1b0>
    2580:	2800      	cmp	r0, #0
    2582:	d000      	beq.n	2586 <__aeabi_dadd+0x3e6>
    2584:	e09e      	b.n	26c4 <__aeabi_dadd+0x524>
    2586:	0018      	movs	r0, r3
    2588:	4310      	orrs	r0, r2
    258a:	d100      	bne.n	258e <__aeabi_dadd+0x3ee>
    258c:	e0e9      	b.n	2762 <__aeabi_dadd+0x5c2>
    258e:	001c      	movs	r4, r3
    2590:	0017      	movs	r7, r2
    2592:	46d8      	mov	r8, fp
    2594:	4e88      	ldr	r6, [pc, #544]	; (27b8 <__aeabi_dadd+0x618>)
    2596:	e687      	b.n	22a8 <__aeabi_dadd+0x108>
    2598:	2500      	movs	r5, #0
    259a:	e772      	b.n	2482 <__aeabi_dadd+0x2e2>
    259c:	2100      	movs	r1, #0
    259e:	e782      	b.n	24a6 <__aeabi_dadd+0x306>
    25a0:	0023      	movs	r3, r4
    25a2:	433b      	orrs	r3, r7
    25a4:	2e00      	cmp	r6, #0
    25a6:	d000      	beq.n	25aa <__aeabi_dadd+0x40a>
    25a8:	e0ab      	b.n	2702 <__aeabi_dadd+0x562>
    25aa:	2b00      	cmp	r3, #0
    25ac:	d100      	bne.n	25b0 <__aeabi_dadd+0x410>
    25ae:	e0e7      	b.n	2780 <__aeabi_dadd+0x5e0>
    25b0:	000b      	movs	r3, r1
    25b2:	4313      	orrs	r3, r2
    25b4:	d100      	bne.n	25b8 <__aeabi_dadd+0x418>
    25b6:	e677      	b.n	22a8 <__aeabi_dadd+0x108>
    25b8:	18ba      	adds	r2, r7, r2
    25ba:	42ba      	cmp	r2, r7
    25bc:	41bf      	sbcs	r7, r7
    25be:	1864      	adds	r4, r4, r1
    25c0:	427f      	negs	r7, r7
    25c2:	19e4      	adds	r4, r4, r7
    25c4:	0223      	lsls	r3, r4, #8
    25c6:	d400      	bmi.n	25ca <__aeabi_dadd+0x42a>
    25c8:	e0f2      	b.n	27b0 <__aeabi_dadd+0x610>
    25ca:	4b7c      	ldr	r3, [pc, #496]	; (27bc <__aeabi_dadd+0x61c>)
    25cc:	0017      	movs	r7, r2
    25ce:	401c      	ands	r4, r3
    25d0:	0006      	movs	r6, r0
    25d2:	e669      	b.n	22a8 <__aeabi_dadd+0x108>
    25d4:	0020      	movs	r0, r4
    25d6:	4338      	orrs	r0, r7
    25d8:	2e00      	cmp	r6, #0
    25da:	d1d1      	bne.n	2580 <__aeabi_dadd+0x3e0>
    25dc:	2800      	cmp	r0, #0
    25de:	d15b      	bne.n	2698 <__aeabi_dadd+0x4f8>
    25e0:	001c      	movs	r4, r3
    25e2:	4314      	orrs	r4, r2
    25e4:	d100      	bne.n	25e8 <__aeabi_dadd+0x448>
    25e6:	e0a8      	b.n	273a <__aeabi_dadd+0x59a>
    25e8:	001c      	movs	r4, r3
    25ea:	0017      	movs	r7, r2
    25ec:	46d8      	mov	r8, fp
    25ee:	e65b      	b.n	22a8 <__aeabi_dadd+0x108>
    25f0:	0006      	movs	r6, r0
    25f2:	2400      	movs	r4, #0
    25f4:	2700      	movs	r7, #0
    25f6:	e697      	b.n	2328 <__aeabi_dadd+0x188>
    25f8:	4650      	mov	r0, sl
    25fa:	000b      	movs	r3, r1
    25fc:	3820      	subs	r0, #32
    25fe:	40c3      	lsrs	r3, r0
    2600:	4699      	mov	r9, r3
    2602:	4653      	mov	r3, sl
    2604:	2b20      	cmp	r3, #32
    2606:	d100      	bne.n	260a <__aeabi_dadd+0x46a>
    2608:	e095      	b.n	2736 <__aeabi_dadd+0x596>
    260a:	2340      	movs	r3, #64	; 0x40
    260c:	4650      	mov	r0, sl
    260e:	1a1b      	subs	r3, r3, r0
    2610:	4099      	lsls	r1, r3
    2612:	430a      	orrs	r2, r1
    2614:	1e51      	subs	r1, r2, #1
    2616:	418a      	sbcs	r2, r1
    2618:	464b      	mov	r3, r9
    261a:	2100      	movs	r1, #0
    261c:	431a      	orrs	r2, r3
    261e:	e69f      	b.n	2360 <__aeabi_dadd+0x1c0>
    2620:	2e00      	cmp	r6, #0
    2622:	d130      	bne.n	2686 <__aeabi_dadd+0x4e6>
    2624:	0026      	movs	r6, r4
    2626:	433e      	orrs	r6, r7
    2628:	d067      	beq.n	26fa <__aeabi_dadd+0x55a>
    262a:	43db      	mvns	r3, r3
    262c:	469a      	mov	sl, r3
    262e:	2b00      	cmp	r3, #0
    2630:	d01c      	beq.n	266c <__aeabi_dadd+0x4cc>
    2632:	4e61      	ldr	r6, [pc, #388]	; (27b8 <__aeabi_dadd+0x618>)
    2634:	42b0      	cmp	r0, r6
    2636:	d060      	beq.n	26fa <__aeabi_dadd+0x55a>
    2638:	4653      	mov	r3, sl
    263a:	2b38      	cmp	r3, #56	; 0x38
    263c:	dd00      	ble.n	2640 <__aeabi_dadd+0x4a0>
    263e:	e096      	b.n	276e <__aeabi_dadd+0x5ce>
    2640:	2b1f      	cmp	r3, #31
    2642:	dd00      	ble.n	2646 <__aeabi_dadd+0x4a6>
    2644:	e09f      	b.n	2786 <__aeabi_dadd+0x5e6>
    2646:	2620      	movs	r6, #32
    2648:	1af3      	subs	r3, r6, r3
    264a:	0026      	movs	r6, r4
    264c:	409e      	lsls	r6, r3
    264e:	469c      	mov	ip, r3
    2650:	46b3      	mov	fp, r6
    2652:	4653      	mov	r3, sl
    2654:	003e      	movs	r6, r7
    2656:	40de      	lsrs	r6, r3
    2658:	0033      	movs	r3, r6
    265a:	465e      	mov	r6, fp
    265c:	431e      	orrs	r6, r3
    265e:	4663      	mov	r3, ip
    2660:	409f      	lsls	r7, r3
    2662:	1e7b      	subs	r3, r7, #1
    2664:	419f      	sbcs	r7, r3
    2666:	4653      	mov	r3, sl
    2668:	40dc      	lsrs	r4, r3
    266a:	4337      	orrs	r7, r6
    266c:	18bf      	adds	r7, r7, r2
    266e:	4297      	cmp	r7, r2
    2670:	4192      	sbcs	r2, r2
    2672:	1864      	adds	r4, r4, r1
    2674:	4252      	negs	r2, r2
    2676:	18a4      	adds	r4, r4, r2
    2678:	0006      	movs	r6, r0
    267a:	e678      	b.n	236e <__aeabi_dadd+0x1ce>
    267c:	4327      	orrs	r7, r4
    267e:	1e7c      	subs	r4, r7, #1
    2680:	41a7      	sbcs	r7, r4
    2682:	2400      	movs	r4, #0
    2684:	e737      	b.n	24f6 <__aeabi_dadd+0x356>
    2686:	4e4c      	ldr	r6, [pc, #304]	; (27b8 <__aeabi_dadd+0x618>)
    2688:	42b0      	cmp	r0, r6
    268a:	d036      	beq.n	26fa <__aeabi_dadd+0x55a>
    268c:	2680      	movs	r6, #128	; 0x80
    268e:	425b      	negs	r3, r3
    2690:	0436      	lsls	r6, r6, #16
    2692:	469a      	mov	sl, r3
    2694:	4334      	orrs	r4, r6
    2696:	e7cf      	b.n	2638 <__aeabi_dadd+0x498>
    2698:	0018      	movs	r0, r3
    269a:	4310      	orrs	r0, r2
    269c:	d100      	bne.n	26a0 <__aeabi_dadd+0x500>
    269e:	e603      	b.n	22a8 <__aeabi_dadd+0x108>
    26a0:	1ab8      	subs	r0, r7, r2
    26a2:	4684      	mov	ip, r0
    26a4:	4567      	cmp	r7, ip
    26a6:	41ad      	sbcs	r5, r5
    26a8:	1ae0      	subs	r0, r4, r3
    26aa:	426d      	negs	r5, r5
    26ac:	1b40      	subs	r0, r0, r5
    26ae:	0205      	lsls	r5, r0, #8
    26b0:	d400      	bmi.n	26b4 <__aeabi_dadd+0x514>
    26b2:	e62c      	b.n	230e <__aeabi_dadd+0x16e>
    26b4:	1bd7      	subs	r7, r2, r7
    26b6:	42ba      	cmp	r2, r7
    26b8:	4192      	sbcs	r2, r2
    26ba:	1b1c      	subs	r4, r3, r4
    26bc:	4252      	negs	r2, r2
    26be:	1aa4      	subs	r4, r4, r2
    26c0:	46d8      	mov	r8, fp
    26c2:	e5f1      	b.n	22a8 <__aeabi_dadd+0x108>
    26c4:	0018      	movs	r0, r3
    26c6:	4310      	orrs	r0, r2
    26c8:	d100      	bne.n	26cc <__aeabi_dadd+0x52c>
    26ca:	e763      	b.n	2594 <__aeabi_dadd+0x3f4>
    26cc:	08f8      	lsrs	r0, r7, #3
    26ce:	0767      	lsls	r7, r4, #29
    26d0:	4307      	orrs	r7, r0
    26d2:	2080      	movs	r0, #128	; 0x80
    26d4:	08e4      	lsrs	r4, r4, #3
    26d6:	0300      	lsls	r0, r0, #12
    26d8:	4204      	tst	r4, r0
    26da:	d008      	beq.n	26ee <__aeabi_dadd+0x54e>
    26dc:	08dd      	lsrs	r5, r3, #3
    26de:	4205      	tst	r5, r0
    26e0:	d105      	bne.n	26ee <__aeabi_dadd+0x54e>
    26e2:	08d2      	lsrs	r2, r2, #3
    26e4:	0759      	lsls	r1, r3, #29
    26e6:	4311      	orrs	r1, r2
    26e8:	000f      	movs	r7, r1
    26ea:	002c      	movs	r4, r5
    26ec:	46d8      	mov	r8, fp
    26ee:	0f7b      	lsrs	r3, r7, #29
    26f0:	00e4      	lsls	r4, r4, #3
    26f2:	431c      	orrs	r4, r3
    26f4:	00ff      	lsls	r7, r7, #3
    26f6:	4e30      	ldr	r6, [pc, #192]	; (27b8 <__aeabi_dadd+0x618>)
    26f8:	e5d6      	b.n	22a8 <__aeabi_dadd+0x108>
    26fa:	000c      	movs	r4, r1
    26fc:	0017      	movs	r7, r2
    26fe:	0006      	movs	r6, r0
    2700:	e5d2      	b.n	22a8 <__aeabi_dadd+0x108>
    2702:	2b00      	cmp	r3, #0
    2704:	d038      	beq.n	2778 <__aeabi_dadd+0x5d8>
    2706:	000b      	movs	r3, r1
    2708:	4313      	orrs	r3, r2
    270a:	d100      	bne.n	270e <__aeabi_dadd+0x56e>
    270c:	e742      	b.n	2594 <__aeabi_dadd+0x3f4>
    270e:	08f8      	lsrs	r0, r7, #3
    2710:	0767      	lsls	r7, r4, #29
    2712:	4307      	orrs	r7, r0
    2714:	2080      	movs	r0, #128	; 0x80
    2716:	08e4      	lsrs	r4, r4, #3
    2718:	0300      	lsls	r0, r0, #12
    271a:	4204      	tst	r4, r0
    271c:	d0e7      	beq.n	26ee <__aeabi_dadd+0x54e>
    271e:	08cb      	lsrs	r3, r1, #3
    2720:	4203      	tst	r3, r0
    2722:	d1e4      	bne.n	26ee <__aeabi_dadd+0x54e>
    2724:	08d2      	lsrs	r2, r2, #3
    2726:	0749      	lsls	r1, r1, #29
    2728:	4311      	orrs	r1, r2
    272a:	000f      	movs	r7, r1
    272c:	001c      	movs	r4, r3
    272e:	e7de      	b.n	26ee <__aeabi_dadd+0x54e>
    2730:	2700      	movs	r7, #0
    2732:	2400      	movs	r4, #0
    2734:	e5d5      	b.n	22e2 <__aeabi_dadd+0x142>
    2736:	2100      	movs	r1, #0
    2738:	e76b      	b.n	2612 <__aeabi_dadd+0x472>
    273a:	2500      	movs	r5, #0
    273c:	2700      	movs	r7, #0
    273e:	e5f3      	b.n	2328 <__aeabi_dadd+0x188>
    2740:	464e      	mov	r6, r9
    2742:	0025      	movs	r5, r4
    2744:	3e20      	subs	r6, #32
    2746:	40f5      	lsrs	r5, r6
    2748:	464b      	mov	r3, r9
    274a:	002e      	movs	r6, r5
    274c:	2b20      	cmp	r3, #32
    274e:	d02d      	beq.n	27ac <__aeabi_dadd+0x60c>
    2750:	2540      	movs	r5, #64	; 0x40
    2752:	1aed      	subs	r5, r5, r3
    2754:	40ac      	lsls	r4, r5
    2756:	4327      	orrs	r7, r4
    2758:	1e7c      	subs	r4, r7, #1
    275a:	41a7      	sbcs	r7, r4
    275c:	2400      	movs	r4, #0
    275e:	4337      	orrs	r7, r6
    2760:	e6c9      	b.n	24f6 <__aeabi_dadd+0x356>
    2762:	2480      	movs	r4, #128	; 0x80
    2764:	2500      	movs	r5, #0
    2766:	0324      	lsls	r4, r4, #12
    2768:	4e13      	ldr	r6, [pc, #76]	; (27b8 <__aeabi_dadd+0x618>)
    276a:	2700      	movs	r7, #0
    276c:	e5dc      	b.n	2328 <__aeabi_dadd+0x188>
    276e:	4327      	orrs	r7, r4
    2770:	1e7c      	subs	r4, r7, #1
    2772:	41a7      	sbcs	r7, r4
    2774:	2400      	movs	r4, #0
    2776:	e779      	b.n	266c <__aeabi_dadd+0x4cc>
    2778:	000c      	movs	r4, r1
    277a:	0017      	movs	r7, r2
    277c:	4e0e      	ldr	r6, [pc, #56]	; (27b8 <__aeabi_dadd+0x618>)
    277e:	e593      	b.n	22a8 <__aeabi_dadd+0x108>
    2780:	000c      	movs	r4, r1
    2782:	0017      	movs	r7, r2
    2784:	e590      	b.n	22a8 <__aeabi_dadd+0x108>
    2786:	4656      	mov	r6, sl
    2788:	0023      	movs	r3, r4
    278a:	3e20      	subs	r6, #32
    278c:	40f3      	lsrs	r3, r6
    278e:	4699      	mov	r9, r3
    2790:	4653      	mov	r3, sl
    2792:	2b20      	cmp	r3, #32
    2794:	d00e      	beq.n	27b4 <__aeabi_dadd+0x614>
    2796:	2340      	movs	r3, #64	; 0x40
    2798:	4656      	mov	r6, sl
    279a:	1b9b      	subs	r3, r3, r6
    279c:	409c      	lsls	r4, r3
    279e:	4327      	orrs	r7, r4
    27a0:	1e7c      	subs	r4, r7, #1
    27a2:	41a7      	sbcs	r7, r4
    27a4:	464b      	mov	r3, r9
    27a6:	2400      	movs	r4, #0
    27a8:	431f      	orrs	r7, r3
    27aa:	e75f      	b.n	266c <__aeabi_dadd+0x4cc>
    27ac:	2400      	movs	r4, #0
    27ae:	e7d2      	b.n	2756 <__aeabi_dadd+0x5b6>
    27b0:	0017      	movs	r7, r2
    27b2:	e5b2      	b.n	231a <__aeabi_dadd+0x17a>
    27b4:	2400      	movs	r4, #0
    27b6:	e7f2      	b.n	279e <__aeabi_dadd+0x5fe>
    27b8:	000007ff 	.word	0x000007ff
    27bc:	ff7fffff 	.word	0xff7fffff

000027c0 <__eqdf2>:
    27c0:	b5f0      	push	{r4, r5, r6, r7, lr}
    27c2:	464f      	mov	r7, r9
    27c4:	4646      	mov	r6, r8
    27c6:	46d6      	mov	lr, sl
    27c8:	005c      	lsls	r4, r3, #1
    27ca:	b5c0      	push	{r6, r7, lr}
    27cc:	031f      	lsls	r7, r3, #12
    27ce:	0fdb      	lsrs	r3, r3, #31
    27d0:	469a      	mov	sl, r3
    27d2:	4b17      	ldr	r3, [pc, #92]	; (2830 <__eqdf2+0x70>)
    27d4:	030e      	lsls	r6, r1, #12
    27d6:	004d      	lsls	r5, r1, #1
    27d8:	4684      	mov	ip, r0
    27da:	4680      	mov	r8, r0
    27dc:	0b36      	lsrs	r6, r6, #12
    27de:	0d6d      	lsrs	r5, r5, #21
    27e0:	0fc9      	lsrs	r1, r1, #31
    27e2:	4691      	mov	r9, r2
    27e4:	0b3f      	lsrs	r7, r7, #12
    27e6:	0d64      	lsrs	r4, r4, #21
    27e8:	2001      	movs	r0, #1
    27ea:	429d      	cmp	r5, r3
    27ec:	d008      	beq.n	2800 <__eqdf2+0x40>
    27ee:	429c      	cmp	r4, r3
    27f0:	d001      	beq.n	27f6 <__eqdf2+0x36>
    27f2:	42a5      	cmp	r5, r4
    27f4:	d00b      	beq.n	280e <__eqdf2+0x4e>
    27f6:	bc1c      	pop	{r2, r3, r4}
    27f8:	4690      	mov	r8, r2
    27fa:	4699      	mov	r9, r3
    27fc:	46a2      	mov	sl, r4
    27fe:	bdf0      	pop	{r4, r5, r6, r7, pc}
    2800:	4663      	mov	r3, ip
    2802:	4333      	orrs	r3, r6
    2804:	d1f7      	bne.n	27f6 <__eqdf2+0x36>
    2806:	42ac      	cmp	r4, r5
    2808:	d1f5      	bne.n	27f6 <__eqdf2+0x36>
    280a:	433a      	orrs	r2, r7
    280c:	d1f3      	bne.n	27f6 <__eqdf2+0x36>
    280e:	2001      	movs	r0, #1
    2810:	42be      	cmp	r6, r7
    2812:	d1f0      	bne.n	27f6 <__eqdf2+0x36>
    2814:	45c8      	cmp	r8, r9
    2816:	d1ee      	bne.n	27f6 <__eqdf2+0x36>
    2818:	4551      	cmp	r1, sl
    281a:	d007      	beq.n	282c <__eqdf2+0x6c>
    281c:	2d00      	cmp	r5, #0
    281e:	d1ea      	bne.n	27f6 <__eqdf2+0x36>
    2820:	4663      	mov	r3, ip
    2822:	431e      	orrs	r6, r3
    2824:	0030      	movs	r0, r6
    2826:	1e46      	subs	r6, r0, #1
    2828:	41b0      	sbcs	r0, r6
    282a:	e7e4      	b.n	27f6 <__eqdf2+0x36>
    282c:	2000      	movs	r0, #0
    282e:	e7e2      	b.n	27f6 <__eqdf2+0x36>
    2830:	000007ff 	.word	0x000007ff

00002834 <__gedf2>:
    2834:	b5f0      	push	{r4, r5, r6, r7, lr}
    2836:	4645      	mov	r5, r8
    2838:	46de      	mov	lr, fp
    283a:	4657      	mov	r7, sl
    283c:	464e      	mov	r6, r9
    283e:	b5e0      	push	{r5, r6, r7, lr}
    2840:	031f      	lsls	r7, r3, #12
    2842:	0b3d      	lsrs	r5, r7, #12
    2844:	4f2c      	ldr	r7, [pc, #176]	; (28f8 <__gedf2+0xc4>)
    2846:	030e      	lsls	r6, r1, #12
    2848:	004c      	lsls	r4, r1, #1
    284a:	46ab      	mov	fp, r5
    284c:	005d      	lsls	r5, r3, #1
    284e:	4684      	mov	ip, r0
    2850:	0b36      	lsrs	r6, r6, #12
    2852:	0d64      	lsrs	r4, r4, #21
    2854:	0fc9      	lsrs	r1, r1, #31
    2856:	4690      	mov	r8, r2
    2858:	0d6d      	lsrs	r5, r5, #21
    285a:	0fdb      	lsrs	r3, r3, #31
    285c:	42bc      	cmp	r4, r7
    285e:	d02a      	beq.n	28b6 <__gedf2+0x82>
    2860:	4f25      	ldr	r7, [pc, #148]	; (28f8 <__gedf2+0xc4>)
    2862:	42bd      	cmp	r5, r7
    2864:	d02d      	beq.n	28c2 <__gedf2+0x8e>
    2866:	2c00      	cmp	r4, #0
    2868:	d10f      	bne.n	288a <__gedf2+0x56>
    286a:	4330      	orrs	r0, r6
    286c:	0007      	movs	r7, r0
    286e:	4681      	mov	r9, r0
    2870:	4278      	negs	r0, r7
    2872:	4178      	adcs	r0, r7
    2874:	b2c0      	uxtb	r0, r0
    2876:	2d00      	cmp	r5, #0
    2878:	d117      	bne.n	28aa <__gedf2+0x76>
    287a:	465f      	mov	r7, fp
    287c:	433a      	orrs	r2, r7
    287e:	d114      	bne.n	28aa <__gedf2+0x76>
    2880:	464b      	mov	r3, r9
    2882:	2000      	movs	r0, #0
    2884:	2b00      	cmp	r3, #0
    2886:	d00a      	beq.n	289e <__gedf2+0x6a>
    2888:	e006      	b.n	2898 <__gedf2+0x64>
    288a:	2d00      	cmp	r5, #0
    288c:	d102      	bne.n	2894 <__gedf2+0x60>
    288e:	4658      	mov	r0, fp
    2890:	4302      	orrs	r2, r0
    2892:	d001      	beq.n	2898 <__gedf2+0x64>
    2894:	4299      	cmp	r1, r3
    2896:	d018      	beq.n	28ca <__gedf2+0x96>
    2898:	4248      	negs	r0, r1
    289a:	2101      	movs	r1, #1
    289c:	4308      	orrs	r0, r1
    289e:	bc3c      	pop	{r2, r3, r4, r5}
    28a0:	4690      	mov	r8, r2
    28a2:	4699      	mov	r9, r3
    28a4:	46a2      	mov	sl, r4
    28a6:	46ab      	mov	fp, r5
    28a8:	bdf0      	pop	{r4, r5, r6, r7, pc}
    28aa:	2800      	cmp	r0, #0
    28ac:	d0f2      	beq.n	2894 <__gedf2+0x60>
    28ae:	2001      	movs	r0, #1
    28b0:	3b01      	subs	r3, #1
    28b2:	4318      	orrs	r0, r3
    28b4:	e7f3      	b.n	289e <__gedf2+0x6a>
    28b6:	0037      	movs	r7, r6
    28b8:	4307      	orrs	r7, r0
    28ba:	d0d1      	beq.n	2860 <__gedf2+0x2c>
    28bc:	2002      	movs	r0, #2
    28be:	4240      	negs	r0, r0
    28c0:	e7ed      	b.n	289e <__gedf2+0x6a>
    28c2:	465f      	mov	r7, fp
    28c4:	4317      	orrs	r7, r2
    28c6:	d0ce      	beq.n	2866 <__gedf2+0x32>
    28c8:	e7f8      	b.n	28bc <__gedf2+0x88>
    28ca:	42ac      	cmp	r4, r5
    28cc:	dce4      	bgt.n	2898 <__gedf2+0x64>
    28ce:	da03      	bge.n	28d8 <__gedf2+0xa4>
    28d0:	1e48      	subs	r0, r1, #1
    28d2:	2101      	movs	r1, #1
    28d4:	4308      	orrs	r0, r1
    28d6:	e7e2      	b.n	289e <__gedf2+0x6a>
    28d8:	455e      	cmp	r6, fp
    28da:	d8dd      	bhi.n	2898 <__gedf2+0x64>
    28dc:	d006      	beq.n	28ec <__gedf2+0xb8>
    28de:	2000      	movs	r0, #0
    28e0:	455e      	cmp	r6, fp
    28e2:	d2dc      	bcs.n	289e <__gedf2+0x6a>
    28e4:	2301      	movs	r3, #1
    28e6:	1e48      	subs	r0, r1, #1
    28e8:	4318      	orrs	r0, r3
    28ea:	e7d8      	b.n	289e <__gedf2+0x6a>
    28ec:	45c4      	cmp	ip, r8
    28ee:	d8d3      	bhi.n	2898 <__gedf2+0x64>
    28f0:	2000      	movs	r0, #0
    28f2:	45c4      	cmp	ip, r8
    28f4:	d3f6      	bcc.n	28e4 <__gedf2+0xb0>
    28f6:	e7d2      	b.n	289e <__gedf2+0x6a>
    28f8:	000007ff 	.word	0x000007ff

000028fc <__ledf2>:
    28fc:	b5f0      	push	{r4, r5, r6, r7, lr}
    28fe:	464e      	mov	r6, r9
    2900:	4645      	mov	r5, r8
    2902:	46de      	mov	lr, fp
    2904:	4657      	mov	r7, sl
    2906:	005c      	lsls	r4, r3, #1
    2908:	b5e0      	push	{r5, r6, r7, lr}
    290a:	031f      	lsls	r7, r3, #12
    290c:	0fdb      	lsrs	r3, r3, #31
    290e:	4699      	mov	r9, r3
    2910:	4b2a      	ldr	r3, [pc, #168]	; (29bc <__ledf2+0xc0>)
    2912:	030e      	lsls	r6, r1, #12
    2914:	004d      	lsls	r5, r1, #1
    2916:	0fc9      	lsrs	r1, r1, #31
    2918:	4684      	mov	ip, r0
    291a:	0b36      	lsrs	r6, r6, #12
    291c:	0d6d      	lsrs	r5, r5, #21
    291e:	468b      	mov	fp, r1
    2920:	4690      	mov	r8, r2
    2922:	0b3f      	lsrs	r7, r7, #12
    2924:	0d64      	lsrs	r4, r4, #21
    2926:	429d      	cmp	r5, r3
    2928:	d020      	beq.n	296c <__ledf2+0x70>
    292a:	4b24      	ldr	r3, [pc, #144]	; (29bc <__ledf2+0xc0>)
    292c:	429c      	cmp	r4, r3
    292e:	d022      	beq.n	2976 <__ledf2+0x7a>
    2930:	2d00      	cmp	r5, #0
    2932:	d112      	bne.n	295a <__ledf2+0x5e>
    2934:	4330      	orrs	r0, r6
    2936:	4243      	negs	r3, r0
    2938:	4143      	adcs	r3, r0
    293a:	b2db      	uxtb	r3, r3
    293c:	2c00      	cmp	r4, #0
    293e:	d01f      	beq.n	2980 <__ledf2+0x84>
    2940:	2b00      	cmp	r3, #0
    2942:	d00c      	beq.n	295e <__ledf2+0x62>
    2944:	464b      	mov	r3, r9
    2946:	2001      	movs	r0, #1
    2948:	3b01      	subs	r3, #1
    294a:	4303      	orrs	r3, r0
    294c:	0018      	movs	r0, r3
    294e:	bc3c      	pop	{r2, r3, r4, r5}
    2950:	4690      	mov	r8, r2
    2952:	4699      	mov	r9, r3
    2954:	46a2      	mov	sl, r4
    2956:	46ab      	mov	fp, r5
    2958:	bdf0      	pop	{r4, r5, r6, r7, pc}
    295a:	2c00      	cmp	r4, #0
    295c:	d016      	beq.n	298c <__ledf2+0x90>
    295e:	45cb      	cmp	fp, r9
    2960:	d017      	beq.n	2992 <__ledf2+0x96>
    2962:	465b      	mov	r3, fp
    2964:	4259      	negs	r1, r3
    2966:	2301      	movs	r3, #1
    2968:	430b      	orrs	r3, r1
    296a:	e7ef      	b.n	294c <__ledf2+0x50>
    296c:	0031      	movs	r1, r6
    296e:	2302      	movs	r3, #2
    2970:	4301      	orrs	r1, r0
    2972:	d1eb      	bne.n	294c <__ledf2+0x50>
    2974:	e7d9      	b.n	292a <__ledf2+0x2e>
    2976:	0039      	movs	r1, r7
    2978:	2302      	movs	r3, #2
    297a:	4311      	orrs	r1, r2
    297c:	d1e6      	bne.n	294c <__ledf2+0x50>
    297e:	e7d7      	b.n	2930 <__ledf2+0x34>
    2980:	433a      	orrs	r2, r7
    2982:	d1dd      	bne.n	2940 <__ledf2+0x44>
    2984:	2300      	movs	r3, #0
    2986:	2800      	cmp	r0, #0
    2988:	d0e0      	beq.n	294c <__ledf2+0x50>
    298a:	e7ea      	b.n	2962 <__ledf2+0x66>
    298c:	433a      	orrs	r2, r7
    298e:	d1e6      	bne.n	295e <__ledf2+0x62>
    2990:	e7e7      	b.n	2962 <__ledf2+0x66>
    2992:	42a5      	cmp	r5, r4
    2994:	dce5      	bgt.n	2962 <__ledf2+0x66>
    2996:	db05      	blt.n	29a4 <__ledf2+0xa8>
    2998:	42be      	cmp	r6, r7
    299a:	d8e2      	bhi.n	2962 <__ledf2+0x66>
    299c:	d007      	beq.n	29ae <__ledf2+0xb2>
    299e:	2300      	movs	r3, #0
    29a0:	42be      	cmp	r6, r7
    29a2:	d2d3      	bcs.n	294c <__ledf2+0x50>
    29a4:	4659      	mov	r1, fp
    29a6:	2301      	movs	r3, #1
    29a8:	3901      	subs	r1, #1
    29aa:	430b      	orrs	r3, r1
    29ac:	e7ce      	b.n	294c <__ledf2+0x50>
    29ae:	45c4      	cmp	ip, r8
    29b0:	d8d7      	bhi.n	2962 <__ledf2+0x66>
    29b2:	2300      	movs	r3, #0
    29b4:	45c4      	cmp	ip, r8
    29b6:	d3f5      	bcc.n	29a4 <__ledf2+0xa8>
    29b8:	e7c8      	b.n	294c <__ledf2+0x50>
    29ba:	46c0      	nop			; (mov r8, r8)
    29bc:	000007ff 	.word	0x000007ff

000029c0 <__aeabi_dmul>:
    29c0:	b5f0      	push	{r4, r5, r6, r7, lr}
    29c2:	4657      	mov	r7, sl
    29c4:	4645      	mov	r5, r8
    29c6:	46de      	mov	lr, fp
    29c8:	464e      	mov	r6, r9
    29ca:	b5e0      	push	{r5, r6, r7, lr}
    29cc:	030c      	lsls	r4, r1, #12
    29ce:	4698      	mov	r8, r3
    29d0:	004e      	lsls	r6, r1, #1
    29d2:	0b23      	lsrs	r3, r4, #12
    29d4:	b087      	sub	sp, #28
    29d6:	0007      	movs	r7, r0
    29d8:	4692      	mov	sl, r2
    29da:	469b      	mov	fp, r3
    29dc:	0d76      	lsrs	r6, r6, #21
    29de:	0fcd      	lsrs	r5, r1, #31
    29e0:	2e00      	cmp	r6, #0
    29e2:	d06b      	beq.n	2abc <__aeabi_dmul+0xfc>
    29e4:	4b6d      	ldr	r3, [pc, #436]	; (2b9c <__aeabi_dmul+0x1dc>)
    29e6:	429e      	cmp	r6, r3
    29e8:	d035      	beq.n	2a56 <__aeabi_dmul+0x96>
    29ea:	2480      	movs	r4, #128	; 0x80
    29ec:	465b      	mov	r3, fp
    29ee:	0f42      	lsrs	r2, r0, #29
    29f0:	0424      	lsls	r4, r4, #16
    29f2:	00db      	lsls	r3, r3, #3
    29f4:	4314      	orrs	r4, r2
    29f6:	431c      	orrs	r4, r3
    29f8:	00c3      	lsls	r3, r0, #3
    29fa:	4699      	mov	r9, r3
    29fc:	4b68      	ldr	r3, [pc, #416]	; (2ba0 <__aeabi_dmul+0x1e0>)
    29fe:	46a3      	mov	fp, r4
    2a00:	469c      	mov	ip, r3
    2a02:	2300      	movs	r3, #0
    2a04:	2700      	movs	r7, #0
    2a06:	4466      	add	r6, ip
    2a08:	9302      	str	r3, [sp, #8]
    2a0a:	4643      	mov	r3, r8
    2a0c:	031c      	lsls	r4, r3, #12
    2a0e:	005a      	lsls	r2, r3, #1
    2a10:	0fdb      	lsrs	r3, r3, #31
    2a12:	4650      	mov	r0, sl
    2a14:	0b24      	lsrs	r4, r4, #12
    2a16:	0d52      	lsrs	r2, r2, #21
    2a18:	4698      	mov	r8, r3
    2a1a:	d100      	bne.n	2a1e <__aeabi_dmul+0x5e>
    2a1c:	e076      	b.n	2b0c <__aeabi_dmul+0x14c>
    2a1e:	4b5f      	ldr	r3, [pc, #380]	; (2b9c <__aeabi_dmul+0x1dc>)
    2a20:	429a      	cmp	r2, r3
    2a22:	d06d      	beq.n	2b00 <__aeabi_dmul+0x140>
    2a24:	2380      	movs	r3, #128	; 0x80
    2a26:	0f41      	lsrs	r1, r0, #29
    2a28:	041b      	lsls	r3, r3, #16
    2a2a:	430b      	orrs	r3, r1
    2a2c:	495c      	ldr	r1, [pc, #368]	; (2ba0 <__aeabi_dmul+0x1e0>)
    2a2e:	00e4      	lsls	r4, r4, #3
    2a30:	468c      	mov	ip, r1
    2a32:	431c      	orrs	r4, r3
    2a34:	00c3      	lsls	r3, r0, #3
    2a36:	2000      	movs	r0, #0
    2a38:	4462      	add	r2, ip
    2a3a:	4641      	mov	r1, r8
    2a3c:	18b6      	adds	r6, r6, r2
    2a3e:	4069      	eors	r1, r5
    2a40:	1c72      	adds	r2, r6, #1
    2a42:	9101      	str	r1, [sp, #4]
    2a44:	4694      	mov	ip, r2
    2a46:	4307      	orrs	r7, r0
    2a48:	2f0f      	cmp	r7, #15
    2a4a:	d900      	bls.n	2a4e <__aeabi_dmul+0x8e>
    2a4c:	e0b0      	b.n	2bb0 <__aeabi_dmul+0x1f0>
    2a4e:	4a55      	ldr	r2, [pc, #340]	; (2ba4 <__aeabi_dmul+0x1e4>)
    2a50:	00bf      	lsls	r7, r7, #2
    2a52:	59d2      	ldr	r2, [r2, r7]
    2a54:	4697      	mov	pc, r2
    2a56:	465b      	mov	r3, fp
    2a58:	4303      	orrs	r3, r0
    2a5a:	4699      	mov	r9, r3
    2a5c:	d000      	beq.n	2a60 <__aeabi_dmul+0xa0>
    2a5e:	e087      	b.n	2b70 <__aeabi_dmul+0x1b0>
    2a60:	2300      	movs	r3, #0
    2a62:	469b      	mov	fp, r3
    2a64:	3302      	adds	r3, #2
    2a66:	2708      	movs	r7, #8
    2a68:	9302      	str	r3, [sp, #8]
    2a6a:	e7ce      	b.n	2a0a <__aeabi_dmul+0x4a>
    2a6c:	4642      	mov	r2, r8
    2a6e:	9201      	str	r2, [sp, #4]
    2a70:	2802      	cmp	r0, #2
    2a72:	d067      	beq.n	2b44 <__aeabi_dmul+0x184>
    2a74:	2803      	cmp	r0, #3
    2a76:	d100      	bne.n	2a7a <__aeabi_dmul+0xba>
    2a78:	e20e      	b.n	2e98 <__aeabi_dmul+0x4d8>
    2a7a:	2801      	cmp	r0, #1
    2a7c:	d000      	beq.n	2a80 <__aeabi_dmul+0xc0>
    2a7e:	e162      	b.n	2d46 <__aeabi_dmul+0x386>
    2a80:	2300      	movs	r3, #0
    2a82:	2400      	movs	r4, #0
    2a84:	2200      	movs	r2, #0
    2a86:	4699      	mov	r9, r3
    2a88:	9901      	ldr	r1, [sp, #4]
    2a8a:	4001      	ands	r1, r0
    2a8c:	b2cd      	uxtb	r5, r1
    2a8e:	2100      	movs	r1, #0
    2a90:	0312      	lsls	r2, r2, #12
    2a92:	0d0b      	lsrs	r3, r1, #20
    2a94:	0b12      	lsrs	r2, r2, #12
    2a96:	051b      	lsls	r3, r3, #20
    2a98:	4313      	orrs	r3, r2
    2a9a:	4a43      	ldr	r2, [pc, #268]	; (2ba8 <__aeabi_dmul+0x1e8>)
    2a9c:	0524      	lsls	r4, r4, #20
    2a9e:	4013      	ands	r3, r2
    2aa0:	431c      	orrs	r4, r3
    2aa2:	0064      	lsls	r4, r4, #1
    2aa4:	07ed      	lsls	r5, r5, #31
    2aa6:	0864      	lsrs	r4, r4, #1
    2aa8:	432c      	orrs	r4, r5
    2aaa:	4648      	mov	r0, r9
    2aac:	0021      	movs	r1, r4
    2aae:	b007      	add	sp, #28
    2ab0:	bc3c      	pop	{r2, r3, r4, r5}
    2ab2:	4690      	mov	r8, r2
    2ab4:	4699      	mov	r9, r3
    2ab6:	46a2      	mov	sl, r4
    2ab8:	46ab      	mov	fp, r5
    2aba:	bdf0      	pop	{r4, r5, r6, r7, pc}
    2abc:	4303      	orrs	r3, r0
    2abe:	4699      	mov	r9, r3
    2ac0:	d04f      	beq.n	2b62 <__aeabi_dmul+0x1a2>
    2ac2:	465b      	mov	r3, fp
    2ac4:	2b00      	cmp	r3, #0
    2ac6:	d100      	bne.n	2aca <__aeabi_dmul+0x10a>
    2ac8:	e189      	b.n	2dde <__aeabi_dmul+0x41e>
    2aca:	4658      	mov	r0, fp
    2acc:	f000 fb16 	bl	30fc <__clzsi2>
    2ad0:	0003      	movs	r3, r0
    2ad2:	3b0b      	subs	r3, #11
    2ad4:	2b1c      	cmp	r3, #28
    2ad6:	dd00      	ble.n	2ada <__aeabi_dmul+0x11a>
    2ad8:	e17a      	b.n	2dd0 <__aeabi_dmul+0x410>
    2ada:	221d      	movs	r2, #29
    2adc:	1ad3      	subs	r3, r2, r3
    2ade:	003a      	movs	r2, r7
    2ae0:	0001      	movs	r1, r0
    2ae2:	465c      	mov	r4, fp
    2ae4:	40da      	lsrs	r2, r3
    2ae6:	3908      	subs	r1, #8
    2ae8:	408c      	lsls	r4, r1
    2aea:	0013      	movs	r3, r2
    2aec:	408f      	lsls	r7, r1
    2aee:	4323      	orrs	r3, r4
    2af0:	469b      	mov	fp, r3
    2af2:	46b9      	mov	r9, r7
    2af4:	2300      	movs	r3, #0
    2af6:	4e2d      	ldr	r6, [pc, #180]	; (2bac <__aeabi_dmul+0x1ec>)
    2af8:	2700      	movs	r7, #0
    2afa:	1a36      	subs	r6, r6, r0
    2afc:	9302      	str	r3, [sp, #8]
    2afe:	e784      	b.n	2a0a <__aeabi_dmul+0x4a>
    2b00:	4653      	mov	r3, sl
    2b02:	4323      	orrs	r3, r4
    2b04:	d12a      	bne.n	2b5c <__aeabi_dmul+0x19c>
    2b06:	2400      	movs	r4, #0
    2b08:	2002      	movs	r0, #2
    2b0a:	e796      	b.n	2a3a <__aeabi_dmul+0x7a>
    2b0c:	4653      	mov	r3, sl
    2b0e:	4323      	orrs	r3, r4
    2b10:	d020      	beq.n	2b54 <__aeabi_dmul+0x194>
    2b12:	2c00      	cmp	r4, #0
    2b14:	d100      	bne.n	2b18 <__aeabi_dmul+0x158>
    2b16:	e157      	b.n	2dc8 <__aeabi_dmul+0x408>
    2b18:	0020      	movs	r0, r4
    2b1a:	f000 faef 	bl	30fc <__clzsi2>
    2b1e:	0003      	movs	r3, r0
    2b20:	3b0b      	subs	r3, #11
    2b22:	2b1c      	cmp	r3, #28
    2b24:	dd00      	ble.n	2b28 <__aeabi_dmul+0x168>
    2b26:	e149      	b.n	2dbc <__aeabi_dmul+0x3fc>
    2b28:	211d      	movs	r1, #29
    2b2a:	1acb      	subs	r3, r1, r3
    2b2c:	4651      	mov	r1, sl
    2b2e:	0002      	movs	r2, r0
    2b30:	40d9      	lsrs	r1, r3
    2b32:	4653      	mov	r3, sl
    2b34:	3a08      	subs	r2, #8
    2b36:	4094      	lsls	r4, r2
    2b38:	4093      	lsls	r3, r2
    2b3a:	430c      	orrs	r4, r1
    2b3c:	4a1b      	ldr	r2, [pc, #108]	; (2bac <__aeabi_dmul+0x1ec>)
    2b3e:	1a12      	subs	r2, r2, r0
    2b40:	2000      	movs	r0, #0
    2b42:	e77a      	b.n	2a3a <__aeabi_dmul+0x7a>
    2b44:	2501      	movs	r5, #1
    2b46:	9b01      	ldr	r3, [sp, #4]
    2b48:	4c14      	ldr	r4, [pc, #80]	; (2b9c <__aeabi_dmul+0x1dc>)
    2b4a:	401d      	ands	r5, r3
    2b4c:	2300      	movs	r3, #0
    2b4e:	2200      	movs	r2, #0
    2b50:	4699      	mov	r9, r3
    2b52:	e79c      	b.n	2a8e <__aeabi_dmul+0xce>
    2b54:	2400      	movs	r4, #0
    2b56:	2200      	movs	r2, #0
    2b58:	2001      	movs	r0, #1
    2b5a:	e76e      	b.n	2a3a <__aeabi_dmul+0x7a>
    2b5c:	4653      	mov	r3, sl
    2b5e:	2003      	movs	r0, #3
    2b60:	e76b      	b.n	2a3a <__aeabi_dmul+0x7a>
    2b62:	2300      	movs	r3, #0
    2b64:	469b      	mov	fp, r3
    2b66:	3301      	adds	r3, #1
    2b68:	2704      	movs	r7, #4
    2b6a:	2600      	movs	r6, #0
    2b6c:	9302      	str	r3, [sp, #8]
    2b6e:	e74c      	b.n	2a0a <__aeabi_dmul+0x4a>
    2b70:	2303      	movs	r3, #3
    2b72:	4681      	mov	r9, r0
    2b74:	270c      	movs	r7, #12
    2b76:	9302      	str	r3, [sp, #8]
    2b78:	e747      	b.n	2a0a <__aeabi_dmul+0x4a>
    2b7a:	2280      	movs	r2, #128	; 0x80
    2b7c:	2300      	movs	r3, #0
    2b7e:	2500      	movs	r5, #0
    2b80:	0312      	lsls	r2, r2, #12
    2b82:	4699      	mov	r9, r3
    2b84:	4c05      	ldr	r4, [pc, #20]	; (2b9c <__aeabi_dmul+0x1dc>)
    2b86:	e782      	b.n	2a8e <__aeabi_dmul+0xce>
    2b88:	465c      	mov	r4, fp
    2b8a:	464b      	mov	r3, r9
    2b8c:	9802      	ldr	r0, [sp, #8]
    2b8e:	e76f      	b.n	2a70 <__aeabi_dmul+0xb0>
    2b90:	465c      	mov	r4, fp
    2b92:	464b      	mov	r3, r9
    2b94:	9501      	str	r5, [sp, #4]
    2b96:	9802      	ldr	r0, [sp, #8]
    2b98:	e76a      	b.n	2a70 <__aeabi_dmul+0xb0>
    2b9a:	46c0      	nop			; (mov r8, r8)
    2b9c:	000007ff 	.word	0x000007ff
    2ba0:	fffffc01 	.word	0xfffffc01
    2ba4:	00003570 	.word	0x00003570
    2ba8:	800fffff 	.word	0x800fffff
    2bac:	fffffc0d 	.word	0xfffffc0d
    2bb0:	464a      	mov	r2, r9
    2bb2:	4649      	mov	r1, r9
    2bb4:	0c17      	lsrs	r7, r2, #16
    2bb6:	0c1a      	lsrs	r2, r3, #16
    2bb8:	041b      	lsls	r3, r3, #16
    2bba:	0c1b      	lsrs	r3, r3, #16
    2bbc:	0408      	lsls	r0, r1, #16
    2bbe:	0019      	movs	r1, r3
    2bc0:	0c00      	lsrs	r0, r0, #16
    2bc2:	4341      	muls	r1, r0
    2bc4:	0015      	movs	r5, r2
    2bc6:	4688      	mov	r8, r1
    2bc8:	0019      	movs	r1, r3
    2bca:	437d      	muls	r5, r7
    2bcc:	4379      	muls	r1, r7
    2bce:	9503      	str	r5, [sp, #12]
    2bd0:	4689      	mov	r9, r1
    2bd2:	0029      	movs	r1, r5
    2bd4:	0015      	movs	r5, r2
    2bd6:	4345      	muls	r5, r0
    2bd8:	444d      	add	r5, r9
    2bda:	9502      	str	r5, [sp, #8]
    2bdc:	4645      	mov	r5, r8
    2bde:	0c2d      	lsrs	r5, r5, #16
    2be0:	46aa      	mov	sl, r5
    2be2:	9d02      	ldr	r5, [sp, #8]
    2be4:	4455      	add	r5, sl
    2be6:	45a9      	cmp	r9, r5
    2be8:	d906      	bls.n	2bf8 <__aeabi_dmul+0x238>
    2bea:	468a      	mov	sl, r1
    2bec:	2180      	movs	r1, #128	; 0x80
    2bee:	0249      	lsls	r1, r1, #9
    2bf0:	4689      	mov	r9, r1
    2bf2:	44ca      	add	sl, r9
    2bf4:	4651      	mov	r1, sl
    2bf6:	9103      	str	r1, [sp, #12]
    2bf8:	0c29      	lsrs	r1, r5, #16
    2bfa:	9104      	str	r1, [sp, #16]
    2bfc:	4641      	mov	r1, r8
    2bfe:	0409      	lsls	r1, r1, #16
    2c00:	042d      	lsls	r5, r5, #16
    2c02:	0c09      	lsrs	r1, r1, #16
    2c04:	4688      	mov	r8, r1
    2c06:	0029      	movs	r1, r5
    2c08:	0c25      	lsrs	r5, r4, #16
    2c0a:	0424      	lsls	r4, r4, #16
    2c0c:	4441      	add	r1, r8
    2c0e:	0c24      	lsrs	r4, r4, #16
    2c10:	9105      	str	r1, [sp, #20]
    2c12:	0021      	movs	r1, r4
    2c14:	4341      	muls	r1, r0
    2c16:	4688      	mov	r8, r1
    2c18:	0021      	movs	r1, r4
    2c1a:	4379      	muls	r1, r7
    2c1c:	468a      	mov	sl, r1
    2c1e:	4368      	muls	r0, r5
    2c20:	4641      	mov	r1, r8
    2c22:	4450      	add	r0, sl
    2c24:	4681      	mov	r9, r0
    2c26:	0c08      	lsrs	r0, r1, #16
    2c28:	4448      	add	r0, r9
    2c2a:	436f      	muls	r7, r5
    2c2c:	4582      	cmp	sl, r0
    2c2e:	d903      	bls.n	2c38 <__aeabi_dmul+0x278>
    2c30:	2180      	movs	r1, #128	; 0x80
    2c32:	0249      	lsls	r1, r1, #9
    2c34:	4689      	mov	r9, r1
    2c36:	444f      	add	r7, r9
    2c38:	0c01      	lsrs	r1, r0, #16
    2c3a:	4689      	mov	r9, r1
    2c3c:	0039      	movs	r1, r7
    2c3e:	4449      	add	r1, r9
    2c40:	9102      	str	r1, [sp, #8]
    2c42:	4641      	mov	r1, r8
    2c44:	040f      	lsls	r7, r1, #16
    2c46:	9904      	ldr	r1, [sp, #16]
    2c48:	0c3f      	lsrs	r7, r7, #16
    2c4a:	4688      	mov	r8, r1
    2c4c:	0400      	lsls	r0, r0, #16
    2c4e:	19c0      	adds	r0, r0, r7
    2c50:	4480      	add	r8, r0
    2c52:	4641      	mov	r1, r8
    2c54:	9104      	str	r1, [sp, #16]
    2c56:	4659      	mov	r1, fp
    2c58:	0c0f      	lsrs	r7, r1, #16
    2c5a:	0409      	lsls	r1, r1, #16
    2c5c:	0c09      	lsrs	r1, r1, #16
    2c5e:	4688      	mov	r8, r1
    2c60:	4359      	muls	r1, r3
    2c62:	468a      	mov	sl, r1
    2c64:	0039      	movs	r1, r7
    2c66:	4351      	muls	r1, r2
    2c68:	4689      	mov	r9, r1
    2c6a:	4641      	mov	r1, r8
    2c6c:	434a      	muls	r2, r1
    2c6e:	4651      	mov	r1, sl
    2c70:	0c09      	lsrs	r1, r1, #16
    2c72:	468b      	mov	fp, r1
    2c74:	437b      	muls	r3, r7
    2c76:	18d2      	adds	r2, r2, r3
    2c78:	445a      	add	r2, fp
    2c7a:	4293      	cmp	r3, r2
    2c7c:	d903      	bls.n	2c86 <__aeabi_dmul+0x2c6>
    2c7e:	2380      	movs	r3, #128	; 0x80
    2c80:	025b      	lsls	r3, r3, #9
    2c82:	469b      	mov	fp, r3
    2c84:	44d9      	add	r9, fp
    2c86:	4651      	mov	r1, sl
    2c88:	0409      	lsls	r1, r1, #16
    2c8a:	0c09      	lsrs	r1, r1, #16
    2c8c:	468a      	mov	sl, r1
    2c8e:	4641      	mov	r1, r8
    2c90:	4361      	muls	r1, r4
    2c92:	437c      	muls	r4, r7
    2c94:	0c13      	lsrs	r3, r2, #16
    2c96:	0412      	lsls	r2, r2, #16
    2c98:	444b      	add	r3, r9
    2c9a:	4452      	add	r2, sl
    2c9c:	46a1      	mov	r9, r4
    2c9e:	468a      	mov	sl, r1
    2ca0:	003c      	movs	r4, r7
    2ca2:	4641      	mov	r1, r8
    2ca4:	436c      	muls	r4, r5
    2ca6:	434d      	muls	r5, r1
    2ca8:	4651      	mov	r1, sl
    2caa:	444d      	add	r5, r9
    2cac:	0c0f      	lsrs	r7, r1, #16
    2cae:	197d      	adds	r5, r7, r5
    2cb0:	45a9      	cmp	r9, r5
    2cb2:	d903      	bls.n	2cbc <__aeabi_dmul+0x2fc>
    2cb4:	2180      	movs	r1, #128	; 0x80
    2cb6:	0249      	lsls	r1, r1, #9
    2cb8:	4688      	mov	r8, r1
    2cba:	4444      	add	r4, r8
    2cbc:	9f04      	ldr	r7, [sp, #16]
    2cbe:	9903      	ldr	r1, [sp, #12]
    2cc0:	46b8      	mov	r8, r7
    2cc2:	4441      	add	r1, r8
    2cc4:	468b      	mov	fp, r1
    2cc6:	4583      	cmp	fp, r0
    2cc8:	4180      	sbcs	r0, r0
    2cca:	4241      	negs	r1, r0
    2ccc:	4688      	mov	r8, r1
    2cce:	4651      	mov	r1, sl
    2cd0:	0408      	lsls	r0, r1, #16
    2cd2:	042f      	lsls	r7, r5, #16
    2cd4:	0c00      	lsrs	r0, r0, #16
    2cd6:	183f      	adds	r7, r7, r0
    2cd8:	4658      	mov	r0, fp
    2cda:	9902      	ldr	r1, [sp, #8]
    2cdc:	1810      	adds	r0, r2, r0
    2cde:	4689      	mov	r9, r1
    2ce0:	4290      	cmp	r0, r2
    2ce2:	4192      	sbcs	r2, r2
    2ce4:	444f      	add	r7, r9
    2ce6:	46ba      	mov	sl, r7
    2ce8:	4252      	negs	r2, r2
    2cea:	4699      	mov	r9, r3
    2cec:	4693      	mov	fp, r2
    2cee:	44c2      	add	sl, r8
    2cf0:	44d1      	add	r9, sl
    2cf2:	44cb      	add	fp, r9
    2cf4:	428f      	cmp	r7, r1
    2cf6:	41bf      	sbcs	r7, r7
    2cf8:	45c2      	cmp	sl, r8
    2cfa:	4189      	sbcs	r1, r1
    2cfc:	4599      	cmp	r9, r3
    2cfe:	419b      	sbcs	r3, r3
    2d00:	4593      	cmp	fp, r2
    2d02:	4192      	sbcs	r2, r2
    2d04:	427f      	negs	r7, r7
    2d06:	4249      	negs	r1, r1
    2d08:	0c2d      	lsrs	r5, r5, #16
    2d0a:	4252      	negs	r2, r2
    2d0c:	430f      	orrs	r7, r1
    2d0e:	425b      	negs	r3, r3
    2d10:	4313      	orrs	r3, r2
    2d12:	197f      	adds	r7, r7, r5
    2d14:	18ff      	adds	r7, r7, r3
    2d16:	465b      	mov	r3, fp
    2d18:	193c      	adds	r4, r7, r4
    2d1a:	0ddb      	lsrs	r3, r3, #23
    2d1c:	9a05      	ldr	r2, [sp, #20]
    2d1e:	0264      	lsls	r4, r4, #9
    2d20:	431c      	orrs	r4, r3
    2d22:	0243      	lsls	r3, r0, #9
    2d24:	4313      	orrs	r3, r2
    2d26:	1e5d      	subs	r5, r3, #1
    2d28:	41ab      	sbcs	r3, r5
    2d2a:	465a      	mov	r2, fp
    2d2c:	0dc0      	lsrs	r0, r0, #23
    2d2e:	4303      	orrs	r3, r0
    2d30:	0252      	lsls	r2, r2, #9
    2d32:	4313      	orrs	r3, r2
    2d34:	01e2      	lsls	r2, r4, #7
    2d36:	d556      	bpl.n	2de6 <__aeabi_dmul+0x426>
    2d38:	2001      	movs	r0, #1
    2d3a:	085a      	lsrs	r2, r3, #1
    2d3c:	4003      	ands	r3, r0
    2d3e:	4313      	orrs	r3, r2
    2d40:	07e2      	lsls	r2, r4, #31
    2d42:	4313      	orrs	r3, r2
    2d44:	0864      	lsrs	r4, r4, #1
    2d46:	485a      	ldr	r0, [pc, #360]	; (2eb0 <__aeabi_dmul+0x4f0>)
    2d48:	4460      	add	r0, ip
    2d4a:	2800      	cmp	r0, #0
    2d4c:	dd4d      	ble.n	2dea <__aeabi_dmul+0x42a>
    2d4e:	075a      	lsls	r2, r3, #29
    2d50:	d009      	beq.n	2d66 <__aeabi_dmul+0x3a6>
    2d52:	220f      	movs	r2, #15
    2d54:	401a      	ands	r2, r3
    2d56:	2a04      	cmp	r2, #4
    2d58:	d005      	beq.n	2d66 <__aeabi_dmul+0x3a6>
    2d5a:	1d1a      	adds	r2, r3, #4
    2d5c:	429a      	cmp	r2, r3
    2d5e:	419b      	sbcs	r3, r3
    2d60:	425b      	negs	r3, r3
    2d62:	18e4      	adds	r4, r4, r3
    2d64:	0013      	movs	r3, r2
    2d66:	01e2      	lsls	r2, r4, #7
    2d68:	d504      	bpl.n	2d74 <__aeabi_dmul+0x3b4>
    2d6a:	2080      	movs	r0, #128	; 0x80
    2d6c:	4a51      	ldr	r2, [pc, #324]	; (2eb4 <__aeabi_dmul+0x4f4>)
    2d6e:	00c0      	lsls	r0, r0, #3
    2d70:	4014      	ands	r4, r2
    2d72:	4460      	add	r0, ip
    2d74:	4a50      	ldr	r2, [pc, #320]	; (2eb8 <__aeabi_dmul+0x4f8>)
    2d76:	4290      	cmp	r0, r2
    2d78:	dd00      	ble.n	2d7c <__aeabi_dmul+0x3bc>
    2d7a:	e6e3      	b.n	2b44 <__aeabi_dmul+0x184>
    2d7c:	2501      	movs	r5, #1
    2d7e:	08db      	lsrs	r3, r3, #3
    2d80:	0762      	lsls	r2, r4, #29
    2d82:	431a      	orrs	r2, r3
    2d84:	0264      	lsls	r4, r4, #9
    2d86:	9b01      	ldr	r3, [sp, #4]
    2d88:	4691      	mov	r9, r2
    2d8a:	0b22      	lsrs	r2, r4, #12
    2d8c:	0544      	lsls	r4, r0, #21
    2d8e:	0d64      	lsrs	r4, r4, #21
    2d90:	401d      	ands	r5, r3
    2d92:	e67c      	b.n	2a8e <__aeabi_dmul+0xce>
    2d94:	2280      	movs	r2, #128	; 0x80
    2d96:	4659      	mov	r1, fp
    2d98:	0312      	lsls	r2, r2, #12
    2d9a:	4211      	tst	r1, r2
    2d9c:	d008      	beq.n	2db0 <__aeabi_dmul+0x3f0>
    2d9e:	4214      	tst	r4, r2
    2da0:	d106      	bne.n	2db0 <__aeabi_dmul+0x3f0>
    2da2:	4322      	orrs	r2, r4
    2da4:	0312      	lsls	r2, r2, #12
    2da6:	0b12      	lsrs	r2, r2, #12
    2da8:	4645      	mov	r5, r8
    2daa:	4699      	mov	r9, r3
    2dac:	4c43      	ldr	r4, [pc, #268]	; (2ebc <__aeabi_dmul+0x4fc>)
    2dae:	e66e      	b.n	2a8e <__aeabi_dmul+0xce>
    2db0:	465b      	mov	r3, fp
    2db2:	431a      	orrs	r2, r3
    2db4:	0312      	lsls	r2, r2, #12
    2db6:	0b12      	lsrs	r2, r2, #12
    2db8:	4c40      	ldr	r4, [pc, #256]	; (2ebc <__aeabi_dmul+0x4fc>)
    2dba:	e668      	b.n	2a8e <__aeabi_dmul+0xce>
    2dbc:	0003      	movs	r3, r0
    2dbe:	4654      	mov	r4, sl
    2dc0:	3b28      	subs	r3, #40	; 0x28
    2dc2:	409c      	lsls	r4, r3
    2dc4:	2300      	movs	r3, #0
    2dc6:	e6b9      	b.n	2b3c <__aeabi_dmul+0x17c>
    2dc8:	f000 f998 	bl	30fc <__clzsi2>
    2dcc:	3020      	adds	r0, #32
    2dce:	e6a6      	b.n	2b1e <__aeabi_dmul+0x15e>
    2dd0:	0003      	movs	r3, r0
    2dd2:	3b28      	subs	r3, #40	; 0x28
    2dd4:	409f      	lsls	r7, r3
    2dd6:	2300      	movs	r3, #0
    2dd8:	46bb      	mov	fp, r7
    2dda:	4699      	mov	r9, r3
    2ddc:	e68a      	b.n	2af4 <__aeabi_dmul+0x134>
    2dde:	f000 f98d 	bl	30fc <__clzsi2>
    2de2:	3020      	adds	r0, #32
    2de4:	e674      	b.n	2ad0 <__aeabi_dmul+0x110>
    2de6:	46b4      	mov	ip, r6
    2de8:	e7ad      	b.n	2d46 <__aeabi_dmul+0x386>
    2dea:	2501      	movs	r5, #1
    2dec:	1a2a      	subs	r2, r5, r0
    2dee:	2a38      	cmp	r2, #56	; 0x38
    2df0:	dd06      	ble.n	2e00 <__aeabi_dmul+0x440>
    2df2:	9b01      	ldr	r3, [sp, #4]
    2df4:	2400      	movs	r4, #0
    2df6:	401d      	ands	r5, r3
    2df8:	2300      	movs	r3, #0
    2dfa:	2200      	movs	r2, #0
    2dfc:	4699      	mov	r9, r3
    2dfe:	e646      	b.n	2a8e <__aeabi_dmul+0xce>
    2e00:	2a1f      	cmp	r2, #31
    2e02:	dc21      	bgt.n	2e48 <__aeabi_dmul+0x488>
    2e04:	2520      	movs	r5, #32
    2e06:	0020      	movs	r0, r4
    2e08:	1aad      	subs	r5, r5, r2
    2e0a:	001e      	movs	r6, r3
    2e0c:	40ab      	lsls	r3, r5
    2e0e:	40a8      	lsls	r0, r5
    2e10:	40d6      	lsrs	r6, r2
    2e12:	1e5d      	subs	r5, r3, #1
    2e14:	41ab      	sbcs	r3, r5
    2e16:	4330      	orrs	r0, r6
    2e18:	4318      	orrs	r0, r3
    2e1a:	40d4      	lsrs	r4, r2
    2e1c:	0743      	lsls	r3, r0, #29
    2e1e:	d009      	beq.n	2e34 <__aeabi_dmul+0x474>
    2e20:	230f      	movs	r3, #15
    2e22:	4003      	ands	r3, r0
    2e24:	2b04      	cmp	r3, #4
    2e26:	d005      	beq.n	2e34 <__aeabi_dmul+0x474>
    2e28:	0003      	movs	r3, r0
    2e2a:	1d18      	adds	r0, r3, #4
    2e2c:	4298      	cmp	r0, r3
    2e2e:	419b      	sbcs	r3, r3
    2e30:	425b      	negs	r3, r3
    2e32:	18e4      	adds	r4, r4, r3
    2e34:	0223      	lsls	r3, r4, #8
    2e36:	d521      	bpl.n	2e7c <__aeabi_dmul+0x4bc>
    2e38:	2501      	movs	r5, #1
    2e3a:	9b01      	ldr	r3, [sp, #4]
    2e3c:	2401      	movs	r4, #1
    2e3e:	401d      	ands	r5, r3
    2e40:	2300      	movs	r3, #0
    2e42:	2200      	movs	r2, #0
    2e44:	4699      	mov	r9, r3
    2e46:	e622      	b.n	2a8e <__aeabi_dmul+0xce>
    2e48:	251f      	movs	r5, #31
    2e4a:	0021      	movs	r1, r4
    2e4c:	426d      	negs	r5, r5
    2e4e:	1a28      	subs	r0, r5, r0
    2e50:	40c1      	lsrs	r1, r0
    2e52:	0008      	movs	r0, r1
    2e54:	2a20      	cmp	r2, #32
    2e56:	d01d      	beq.n	2e94 <__aeabi_dmul+0x4d4>
    2e58:	355f      	adds	r5, #95	; 0x5f
    2e5a:	1aaa      	subs	r2, r5, r2
    2e5c:	4094      	lsls	r4, r2
    2e5e:	4323      	orrs	r3, r4
    2e60:	1e5c      	subs	r4, r3, #1
    2e62:	41a3      	sbcs	r3, r4
    2e64:	2507      	movs	r5, #7
    2e66:	4303      	orrs	r3, r0
    2e68:	401d      	ands	r5, r3
    2e6a:	2200      	movs	r2, #0
    2e6c:	2d00      	cmp	r5, #0
    2e6e:	d009      	beq.n	2e84 <__aeabi_dmul+0x4c4>
    2e70:	220f      	movs	r2, #15
    2e72:	2400      	movs	r4, #0
    2e74:	401a      	ands	r2, r3
    2e76:	0018      	movs	r0, r3
    2e78:	2a04      	cmp	r2, #4
    2e7a:	d1d6      	bne.n	2e2a <__aeabi_dmul+0x46a>
    2e7c:	0003      	movs	r3, r0
    2e7e:	0765      	lsls	r5, r4, #29
    2e80:	0264      	lsls	r4, r4, #9
    2e82:	0b22      	lsrs	r2, r4, #12
    2e84:	08db      	lsrs	r3, r3, #3
    2e86:	432b      	orrs	r3, r5
    2e88:	2501      	movs	r5, #1
    2e8a:	4699      	mov	r9, r3
    2e8c:	9b01      	ldr	r3, [sp, #4]
    2e8e:	2400      	movs	r4, #0
    2e90:	401d      	ands	r5, r3
    2e92:	e5fc      	b.n	2a8e <__aeabi_dmul+0xce>
    2e94:	2400      	movs	r4, #0
    2e96:	e7e2      	b.n	2e5e <__aeabi_dmul+0x49e>
    2e98:	2280      	movs	r2, #128	; 0x80
    2e9a:	2501      	movs	r5, #1
    2e9c:	0312      	lsls	r2, r2, #12
    2e9e:	4322      	orrs	r2, r4
    2ea0:	9901      	ldr	r1, [sp, #4]
    2ea2:	0312      	lsls	r2, r2, #12
    2ea4:	0b12      	lsrs	r2, r2, #12
    2ea6:	400d      	ands	r5, r1
    2ea8:	4699      	mov	r9, r3
    2eaa:	4c04      	ldr	r4, [pc, #16]	; (2ebc <__aeabi_dmul+0x4fc>)
    2eac:	e5ef      	b.n	2a8e <__aeabi_dmul+0xce>
    2eae:	46c0      	nop			; (mov r8, r8)
    2eb0:	000003ff 	.word	0x000003ff
    2eb4:	feffffff 	.word	0xfeffffff
    2eb8:	000007fe 	.word	0x000007fe
    2ebc:	000007ff 	.word	0x000007ff

00002ec0 <__aeabi_i2d>:
    2ec0:	b570      	push	{r4, r5, r6, lr}
    2ec2:	2800      	cmp	r0, #0
    2ec4:	d030      	beq.n	2f28 <__aeabi_i2d+0x68>
    2ec6:	17c3      	asrs	r3, r0, #31
    2ec8:	18c4      	adds	r4, r0, r3
    2eca:	405c      	eors	r4, r3
    2ecc:	0fc5      	lsrs	r5, r0, #31
    2ece:	0020      	movs	r0, r4
    2ed0:	f000 f914 	bl	30fc <__clzsi2>
    2ed4:	4b17      	ldr	r3, [pc, #92]	; (2f34 <__aeabi_i2d+0x74>)
    2ed6:	4a18      	ldr	r2, [pc, #96]	; (2f38 <__aeabi_i2d+0x78>)
    2ed8:	1a1b      	subs	r3, r3, r0
    2eda:	1ad2      	subs	r2, r2, r3
    2edc:	2a1f      	cmp	r2, #31
    2ede:	dd18      	ble.n	2f12 <__aeabi_i2d+0x52>
    2ee0:	4a16      	ldr	r2, [pc, #88]	; (2f3c <__aeabi_i2d+0x7c>)
    2ee2:	1ad2      	subs	r2, r2, r3
    2ee4:	4094      	lsls	r4, r2
    2ee6:	2200      	movs	r2, #0
    2ee8:	0324      	lsls	r4, r4, #12
    2eea:	055b      	lsls	r3, r3, #21
    2eec:	0b24      	lsrs	r4, r4, #12
    2eee:	0d5b      	lsrs	r3, r3, #21
    2ef0:	2100      	movs	r1, #0
    2ef2:	0010      	movs	r0, r2
    2ef4:	0324      	lsls	r4, r4, #12
    2ef6:	0d0a      	lsrs	r2, r1, #20
    2ef8:	0b24      	lsrs	r4, r4, #12
    2efa:	0512      	lsls	r2, r2, #20
    2efc:	4322      	orrs	r2, r4
    2efe:	4c10      	ldr	r4, [pc, #64]	; (2f40 <__aeabi_i2d+0x80>)
    2f00:	051b      	lsls	r3, r3, #20
    2f02:	4022      	ands	r2, r4
    2f04:	4313      	orrs	r3, r2
    2f06:	005b      	lsls	r3, r3, #1
    2f08:	07ed      	lsls	r5, r5, #31
    2f0a:	085b      	lsrs	r3, r3, #1
    2f0c:	432b      	orrs	r3, r5
    2f0e:	0019      	movs	r1, r3
    2f10:	bd70      	pop	{r4, r5, r6, pc}
    2f12:	0021      	movs	r1, r4
    2f14:	4091      	lsls	r1, r2
    2f16:	000a      	movs	r2, r1
    2f18:	210b      	movs	r1, #11
    2f1a:	1a08      	subs	r0, r1, r0
    2f1c:	40c4      	lsrs	r4, r0
    2f1e:	055b      	lsls	r3, r3, #21
    2f20:	0324      	lsls	r4, r4, #12
    2f22:	0b24      	lsrs	r4, r4, #12
    2f24:	0d5b      	lsrs	r3, r3, #21
    2f26:	e7e3      	b.n	2ef0 <__aeabi_i2d+0x30>
    2f28:	2500      	movs	r5, #0
    2f2a:	2300      	movs	r3, #0
    2f2c:	2400      	movs	r4, #0
    2f2e:	2200      	movs	r2, #0
    2f30:	e7de      	b.n	2ef0 <__aeabi_i2d+0x30>
    2f32:	46c0      	nop			; (mov r8, r8)
    2f34:	0000041e 	.word	0x0000041e
    2f38:	00000433 	.word	0x00000433
    2f3c:	00000413 	.word	0x00000413
    2f40:	800fffff 	.word	0x800fffff

00002f44 <__aeabi_f2d>:
    2f44:	0041      	lsls	r1, r0, #1
    2f46:	0e09      	lsrs	r1, r1, #24
    2f48:	1c4b      	adds	r3, r1, #1
    2f4a:	b570      	push	{r4, r5, r6, lr}
    2f4c:	b2db      	uxtb	r3, r3
    2f4e:	0246      	lsls	r6, r0, #9
    2f50:	0a75      	lsrs	r5, r6, #9
    2f52:	0fc4      	lsrs	r4, r0, #31
    2f54:	2b01      	cmp	r3, #1
    2f56:	dd14      	ble.n	2f82 <__aeabi_f2d+0x3e>
    2f58:	23e0      	movs	r3, #224	; 0xe0
    2f5a:	009b      	lsls	r3, r3, #2
    2f5c:	076d      	lsls	r5, r5, #29
    2f5e:	0b36      	lsrs	r6, r6, #12
    2f60:	18cb      	adds	r3, r1, r3
    2f62:	2100      	movs	r1, #0
    2f64:	0d0a      	lsrs	r2, r1, #20
    2f66:	0028      	movs	r0, r5
    2f68:	0512      	lsls	r2, r2, #20
    2f6a:	4d1c      	ldr	r5, [pc, #112]	; (2fdc <__aeabi_f2d+0x98>)
    2f6c:	4332      	orrs	r2, r6
    2f6e:	055b      	lsls	r3, r3, #21
    2f70:	402a      	ands	r2, r5
    2f72:	085b      	lsrs	r3, r3, #1
    2f74:	4313      	orrs	r3, r2
    2f76:	005b      	lsls	r3, r3, #1
    2f78:	07e4      	lsls	r4, r4, #31
    2f7a:	085b      	lsrs	r3, r3, #1
    2f7c:	4323      	orrs	r3, r4
    2f7e:	0019      	movs	r1, r3
    2f80:	bd70      	pop	{r4, r5, r6, pc}
    2f82:	2900      	cmp	r1, #0
    2f84:	d114      	bne.n	2fb0 <__aeabi_f2d+0x6c>
    2f86:	2d00      	cmp	r5, #0
    2f88:	d01e      	beq.n	2fc8 <__aeabi_f2d+0x84>
    2f8a:	0028      	movs	r0, r5
    2f8c:	f000 f8b6 	bl	30fc <__clzsi2>
    2f90:	280a      	cmp	r0, #10
    2f92:	dc1c      	bgt.n	2fce <__aeabi_f2d+0x8a>
    2f94:	230b      	movs	r3, #11
    2f96:	002a      	movs	r2, r5
    2f98:	1a1b      	subs	r3, r3, r0
    2f9a:	40da      	lsrs	r2, r3
    2f9c:	0003      	movs	r3, r0
    2f9e:	3315      	adds	r3, #21
    2fa0:	409d      	lsls	r5, r3
    2fa2:	4b0f      	ldr	r3, [pc, #60]	; (2fe0 <__aeabi_f2d+0x9c>)
    2fa4:	0312      	lsls	r2, r2, #12
    2fa6:	1a1b      	subs	r3, r3, r0
    2fa8:	055b      	lsls	r3, r3, #21
    2faa:	0b16      	lsrs	r6, r2, #12
    2fac:	0d5b      	lsrs	r3, r3, #21
    2fae:	e7d8      	b.n	2f62 <__aeabi_f2d+0x1e>
    2fb0:	2d00      	cmp	r5, #0
    2fb2:	d006      	beq.n	2fc2 <__aeabi_f2d+0x7e>
    2fb4:	0b32      	lsrs	r2, r6, #12
    2fb6:	2680      	movs	r6, #128	; 0x80
    2fb8:	0336      	lsls	r6, r6, #12
    2fba:	076d      	lsls	r5, r5, #29
    2fbc:	4316      	orrs	r6, r2
    2fbe:	4b09      	ldr	r3, [pc, #36]	; (2fe4 <__aeabi_f2d+0xa0>)
    2fc0:	e7cf      	b.n	2f62 <__aeabi_f2d+0x1e>
    2fc2:	4b08      	ldr	r3, [pc, #32]	; (2fe4 <__aeabi_f2d+0xa0>)
    2fc4:	2600      	movs	r6, #0
    2fc6:	e7cc      	b.n	2f62 <__aeabi_f2d+0x1e>
    2fc8:	2300      	movs	r3, #0
    2fca:	2600      	movs	r6, #0
    2fcc:	e7c9      	b.n	2f62 <__aeabi_f2d+0x1e>
    2fce:	0003      	movs	r3, r0
    2fd0:	002a      	movs	r2, r5
    2fd2:	3b0b      	subs	r3, #11
    2fd4:	409a      	lsls	r2, r3
    2fd6:	2500      	movs	r5, #0
    2fd8:	e7e3      	b.n	2fa2 <__aeabi_f2d+0x5e>
    2fda:	46c0      	nop			; (mov r8, r8)
    2fdc:	800fffff 	.word	0x800fffff
    2fe0:	00000389 	.word	0x00000389
    2fe4:	000007ff 	.word	0x000007ff

00002fe8 <__aeabi_d2f>:
    2fe8:	b5f0      	push	{r4, r5, r6, r7, lr}
    2fea:	004c      	lsls	r4, r1, #1
    2fec:	0d64      	lsrs	r4, r4, #21
    2fee:	030b      	lsls	r3, r1, #12
    2ff0:	1c62      	adds	r2, r4, #1
    2ff2:	0f45      	lsrs	r5, r0, #29
    2ff4:	0a5b      	lsrs	r3, r3, #9
    2ff6:	0552      	lsls	r2, r2, #21
    2ff8:	432b      	orrs	r3, r5
    2ffa:	0fc9      	lsrs	r1, r1, #31
    2ffc:	00c5      	lsls	r5, r0, #3
    2ffe:	0d52      	lsrs	r2, r2, #21
    3000:	2a01      	cmp	r2, #1
    3002:	dd28      	ble.n	3056 <__aeabi_d2f+0x6e>
    3004:	4a3a      	ldr	r2, [pc, #232]	; (30f0 <__aeabi_d2f+0x108>)
    3006:	18a6      	adds	r6, r4, r2
    3008:	2efe      	cmp	r6, #254	; 0xfe
    300a:	dc1b      	bgt.n	3044 <__aeabi_d2f+0x5c>
    300c:	2e00      	cmp	r6, #0
    300e:	dd3e      	ble.n	308e <__aeabi_d2f+0xa6>
    3010:	0180      	lsls	r0, r0, #6
    3012:	0002      	movs	r2, r0
    3014:	1e50      	subs	r0, r2, #1
    3016:	4182      	sbcs	r2, r0
    3018:	0f6d      	lsrs	r5, r5, #29
    301a:	432a      	orrs	r2, r5
    301c:	00db      	lsls	r3, r3, #3
    301e:	4313      	orrs	r3, r2
    3020:	075a      	lsls	r2, r3, #29
    3022:	d004      	beq.n	302e <__aeabi_d2f+0x46>
    3024:	220f      	movs	r2, #15
    3026:	401a      	ands	r2, r3
    3028:	2a04      	cmp	r2, #4
    302a:	d000      	beq.n	302e <__aeabi_d2f+0x46>
    302c:	3304      	adds	r3, #4
    302e:	2280      	movs	r2, #128	; 0x80
    3030:	04d2      	lsls	r2, r2, #19
    3032:	401a      	ands	r2, r3
    3034:	d05a      	beq.n	30ec <__aeabi_d2f+0x104>
    3036:	3601      	adds	r6, #1
    3038:	2eff      	cmp	r6, #255	; 0xff
    303a:	d003      	beq.n	3044 <__aeabi_d2f+0x5c>
    303c:	019b      	lsls	r3, r3, #6
    303e:	0a5b      	lsrs	r3, r3, #9
    3040:	b2f4      	uxtb	r4, r6
    3042:	e001      	b.n	3048 <__aeabi_d2f+0x60>
    3044:	24ff      	movs	r4, #255	; 0xff
    3046:	2300      	movs	r3, #0
    3048:	0258      	lsls	r0, r3, #9
    304a:	05e4      	lsls	r4, r4, #23
    304c:	0a40      	lsrs	r0, r0, #9
    304e:	07c9      	lsls	r1, r1, #31
    3050:	4320      	orrs	r0, r4
    3052:	4308      	orrs	r0, r1
    3054:	bdf0      	pop	{r4, r5, r6, r7, pc}
    3056:	2c00      	cmp	r4, #0
    3058:	d007      	beq.n	306a <__aeabi_d2f+0x82>
    305a:	431d      	orrs	r5, r3
    305c:	d0f2      	beq.n	3044 <__aeabi_d2f+0x5c>
    305e:	2080      	movs	r0, #128	; 0x80
    3060:	00db      	lsls	r3, r3, #3
    3062:	0480      	lsls	r0, r0, #18
    3064:	4303      	orrs	r3, r0
    3066:	26ff      	movs	r6, #255	; 0xff
    3068:	e7da      	b.n	3020 <__aeabi_d2f+0x38>
    306a:	432b      	orrs	r3, r5
    306c:	d003      	beq.n	3076 <__aeabi_d2f+0x8e>
    306e:	2305      	movs	r3, #5
    3070:	08db      	lsrs	r3, r3, #3
    3072:	2cff      	cmp	r4, #255	; 0xff
    3074:	d003      	beq.n	307e <__aeabi_d2f+0x96>
    3076:	025b      	lsls	r3, r3, #9
    3078:	0a5b      	lsrs	r3, r3, #9
    307a:	b2e4      	uxtb	r4, r4
    307c:	e7e4      	b.n	3048 <__aeabi_d2f+0x60>
    307e:	2b00      	cmp	r3, #0
    3080:	d032      	beq.n	30e8 <__aeabi_d2f+0x100>
    3082:	2080      	movs	r0, #128	; 0x80
    3084:	03c0      	lsls	r0, r0, #15
    3086:	4303      	orrs	r3, r0
    3088:	025b      	lsls	r3, r3, #9
    308a:	0a5b      	lsrs	r3, r3, #9
    308c:	e7dc      	b.n	3048 <__aeabi_d2f+0x60>
    308e:	0032      	movs	r2, r6
    3090:	3217      	adds	r2, #23
    3092:	db14      	blt.n	30be <__aeabi_d2f+0xd6>
    3094:	2280      	movs	r2, #128	; 0x80
    3096:	271e      	movs	r7, #30
    3098:	0412      	lsls	r2, r2, #16
    309a:	4313      	orrs	r3, r2
    309c:	1bbf      	subs	r7, r7, r6
    309e:	2f1f      	cmp	r7, #31
    30a0:	dc0f      	bgt.n	30c2 <__aeabi_d2f+0xda>
    30a2:	4a14      	ldr	r2, [pc, #80]	; (30f4 <__aeabi_d2f+0x10c>)
    30a4:	4694      	mov	ip, r2
    30a6:	4464      	add	r4, ip
    30a8:	002a      	movs	r2, r5
    30aa:	40a5      	lsls	r5, r4
    30ac:	002e      	movs	r6, r5
    30ae:	40a3      	lsls	r3, r4
    30b0:	1e75      	subs	r5, r6, #1
    30b2:	41ae      	sbcs	r6, r5
    30b4:	40fa      	lsrs	r2, r7
    30b6:	4333      	orrs	r3, r6
    30b8:	4313      	orrs	r3, r2
    30ba:	2600      	movs	r6, #0
    30bc:	e7b0      	b.n	3020 <__aeabi_d2f+0x38>
    30be:	2400      	movs	r4, #0
    30c0:	e7d5      	b.n	306e <__aeabi_d2f+0x86>
    30c2:	2202      	movs	r2, #2
    30c4:	4252      	negs	r2, r2
    30c6:	1b96      	subs	r6, r2, r6
    30c8:	001a      	movs	r2, r3
    30ca:	40f2      	lsrs	r2, r6
    30cc:	2f20      	cmp	r7, #32
    30ce:	d009      	beq.n	30e4 <__aeabi_d2f+0xfc>
    30d0:	4809      	ldr	r0, [pc, #36]	; (30f8 <__aeabi_d2f+0x110>)
    30d2:	4684      	mov	ip, r0
    30d4:	4464      	add	r4, ip
    30d6:	40a3      	lsls	r3, r4
    30d8:	432b      	orrs	r3, r5
    30da:	1e5d      	subs	r5, r3, #1
    30dc:	41ab      	sbcs	r3, r5
    30de:	2600      	movs	r6, #0
    30e0:	4313      	orrs	r3, r2
    30e2:	e79d      	b.n	3020 <__aeabi_d2f+0x38>
    30e4:	2300      	movs	r3, #0
    30e6:	e7f7      	b.n	30d8 <__aeabi_d2f+0xf0>
    30e8:	2300      	movs	r3, #0
    30ea:	e7ad      	b.n	3048 <__aeabi_d2f+0x60>
    30ec:	0034      	movs	r4, r6
    30ee:	e7bf      	b.n	3070 <__aeabi_d2f+0x88>
    30f0:	fffffc80 	.word	0xfffffc80
    30f4:	fffffc82 	.word	0xfffffc82
    30f8:	fffffca2 	.word	0xfffffca2

000030fc <__clzsi2>:
    30fc:	211c      	movs	r1, #28
    30fe:	2301      	movs	r3, #1
    3100:	041b      	lsls	r3, r3, #16
    3102:	4298      	cmp	r0, r3
    3104:	d301      	bcc.n	310a <__clzsi2+0xe>
    3106:	0c00      	lsrs	r0, r0, #16
    3108:	3910      	subs	r1, #16
    310a:	0a1b      	lsrs	r3, r3, #8
    310c:	4298      	cmp	r0, r3
    310e:	d301      	bcc.n	3114 <__clzsi2+0x18>
    3110:	0a00      	lsrs	r0, r0, #8
    3112:	3908      	subs	r1, #8
    3114:	091b      	lsrs	r3, r3, #4
    3116:	4298      	cmp	r0, r3
    3118:	d301      	bcc.n	311e <__clzsi2+0x22>
    311a:	0900      	lsrs	r0, r0, #4
    311c:	3904      	subs	r1, #4
    311e:	a202      	add	r2, pc, #8	; (adr r2, 3128 <__clzsi2+0x2c>)
    3120:	5c10      	ldrb	r0, [r2, r0]
    3122:	1840      	adds	r0, r0, r1
    3124:	4770      	bx	lr
    3126:	46c0      	nop			; (mov r8, r8)
    3128:	02020304 	.word	0x02020304
    312c:	01010101 	.word	0x01010101
	...

00003138 <__libc_init_array>:
    3138:	b570      	push	{r4, r5, r6, lr}
    313a:	4e0d      	ldr	r6, [pc, #52]	; (3170 <__libc_init_array+0x38>)
    313c:	4d0d      	ldr	r5, [pc, #52]	; (3174 <__libc_init_array+0x3c>)
    313e:	2400      	movs	r4, #0
    3140:	1bad      	subs	r5, r5, r6
    3142:	10ad      	asrs	r5, r5, #2
    3144:	d005      	beq.n	3152 <__libc_init_array+0x1a>
    3146:	00a3      	lsls	r3, r4, #2
    3148:	58f3      	ldr	r3, [r6, r3]
    314a:	3401      	adds	r4, #1
    314c:	4798      	blx	r3
    314e:	42a5      	cmp	r5, r4
    3150:	d1f9      	bne.n	3146 <__libc_init_array+0xe>
    3152:	f000 fa2f 	bl	35b4 <_init>
    3156:	4e08      	ldr	r6, [pc, #32]	; (3178 <__libc_init_array+0x40>)
    3158:	4d08      	ldr	r5, [pc, #32]	; (317c <__libc_init_array+0x44>)
    315a:	2400      	movs	r4, #0
    315c:	1bad      	subs	r5, r5, r6
    315e:	10ad      	asrs	r5, r5, #2
    3160:	d005      	beq.n	316e <__libc_init_array+0x36>
    3162:	00a3      	lsls	r3, r4, #2
    3164:	58f3      	ldr	r3, [r6, r3]
    3166:	3401      	adds	r4, #1
    3168:	4798      	blx	r3
    316a:	42a5      	cmp	r5, r4
    316c:	d1f9      	bne.n	3162 <__libc_init_array+0x2a>
    316e:	bd70      	pop	{r4, r5, r6, pc}
    3170:	000035c0 	.word	0x000035c0
    3174:	000035c0 	.word	0x000035c0
    3178:	000035c0 	.word	0x000035c0
    317c:	000035c8 	.word	0x000035c8

00003180 <memset>:
    3180:	b5f0      	push	{r4, r5, r6, r7, lr}
    3182:	0783      	lsls	r3, r0, #30
    3184:	d043      	beq.n	320e <memset+0x8e>
    3186:	1e54      	subs	r4, r2, #1
    3188:	2a00      	cmp	r2, #0
    318a:	d03f      	beq.n	320c <memset+0x8c>
    318c:	b2ce      	uxtb	r6, r1
    318e:	0002      	movs	r2, r0
    3190:	2503      	movs	r5, #3
    3192:	e002      	b.n	319a <memset+0x1a>
    3194:	001a      	movs	r2, r3
    3196:	3c01      	subs	r4, #1
    3198:	d338      	bcc.n	320c <memset+0x8c>
    319a:	1c53      	adds	r3, r2, #1
    319c:	7016      	strb	r6, [r2, #0]
    319e:	422b      	tst	r3, r5
    31a0:	d1f8      	bne.n	3194 <memset+0x14>
    31a2:	2c03      	cmp	r4, #3
    31a4:	d92a      	bls.n	31fc <memset+0x7c>
    31a6:	22ff      	movs	r2, #255	; 0xff
    31a8:	400a      	ands	r2, r1
    31aa:	0215      	lsls	r5, r2, #8
    31ac:	4315      	orrs	r5, r2
    31ae:	042a      	lsls	r2, r5, #16
    31b0:	4315      	orrs	r5, r2
    31b2:	2c0f      	cmp	r4, #15
    31b4:	d914      	bls.n	31e0 <memset+0x60>
    31b6:	0027      	movs	r7, r4
    31b8:	001a      	movs	r2, r3
    31ba:	3f10      	subs	r7, #16
    31bc:	093e      	lsrs	r6, r7, #4
    31be:	3601      	adds	r6, #1
    31c0:	0136      	lsls	r6, r6, #4
    31c2:	199e      	adds	r6, r3, r6
    31c4:	6015      	str	r5, [r2, #0]
    31c6:	6055      	str	r5, [r2, #4]
    31c8:	6095      	str	r5, [r2, #8]
    31ca:	60d5      	str	r5, [r2, #12]
    31cc:	3210      	adds	r2, #16
    31ce:	4296      	cmp	r6, r2
    31d0:	d1f8      	bne.n	31c4 <memset+0x44>
    31d2:	220f      	movs	r2, #15
    31d4:	4397      	bics	r7, r2
    31d6:	3710      	adds	r7, #16
    31d8:	19db      	adds	r3, r3, r7
    31da:	4014      	ands	r4, r2
    31dc:	2c03      	cmp	r4, #3
    31de:	d90d      	bls.n	31fc <memset+0x7c>
    31e0:	001a      	movs	r2, r3
    31e2:	1f27      	subs	r7, r4, #4
    31e4:	08be      	lsrs	r6, r7, #2
    31e6:	3601      	adds	r6, #1
    31e8:	00b6      	lsls	r6, r6, #2
    31ea:	199e      	adds	r6, r3, r6
    31ec:	c220      	stmia	r2!, {r5}
    31ee:	42b2      	cmp	r2, r6
    31f0:	d1fc      	bne.n	31ec <memset+0x6c>
    31f2:	2203      	movs	r2, #3
    31f4:	4397      	bics	r7, r2
    31f6:	3704      	adds	r7, #4
    31f8:	19db      	adds	r3, r3, r7
    31fa:	4014      	ands	r4, r2
    31fc:	2c00      	cmp	r4, #0
    31fe:	d005      	beq.n	320c <memset+0x8c>
    3200:	b2c9      	uxtb	r1, r1
    3202:	191c      	adds	r4, r3, r4
    3204:	7019      	strb	r1, [r3, #0]
    3206:	3301      	adds	r3, #1
    3208:	429c      	cmp	r4, r3
    320a:	d1fb      	bne.n	3204 <memset+0x84>
    320c:	bdf0      	pop	{r4, r5, r6, r7, pc}
    320e:	0014      	movs	r4, r2
    3210:	0003      	movs	r3, r0
    3212:	e7c6      	b.n	31a2 <memset+0x22>

00003214 <register_fini>:
    3214:	4b03      	ldr	r3, [pc, #12]	; (3224 <register_fini+0x10>)
    3216:	b510      	push	{r4, lr}
    3218:	2b00      	cmp	r3, #0
    321a:	d002      	beq.n	3222 <register_fini+0xe>
    321c:	4802      	ldr	r0, [pc, #8]	; (3228 <register_fini+0x14>)
    321e:	f000 f805 	bl	322c <atexit>
    3222:	bd10      	pop	{r4, pc}
    3224:	00000000 	.word	0x00000000
    3228:	0000323d 	.word	0x0000323d

0000322c <atexit>:
    322c:	b510      	push	{r4, lr}
    322e:	0001      	movs	r1, r0
    3230:	2300      	movs	r3, #0
    3232:	2200      	movs	r2, #0
    3234:	2000      	movs	r0, #0
    3236:	f000 f81b 	bl	3270 <__register_exitproc>
    323a:	bd10      	pop	{r4, pc}

0000323c <__libc_fini_array>:
    323c:	b570      	push	{r4, r5, r6, lr}
    323e:	4b09      	ldr	r3, [pc, #36]	; (3264 <__libc_fini_array+0x28>)
    3240:	4c09      	ldr	r4, [pc, #36]	; (3268 <__libc_fini_array+0x2c>)
    3242:	1ae4      	subs	r4, r4, r3
    3244:	10a4      	asrs	r4, r4, #2
    3246:	d009      	beq.n	325c <__libc_fini_array+0x20>
    3248:	4a08      	ldr	r2, [pc, #32]	; (326c <__libc_fini_array+0x30>)
    324a:	18a5      	adds	r5, r4, r2
    324c:	00ad      	lsls	r5, r5, #2
    324e:	18ed      	adds	r5, r5, r3
    3250:	682b      	ldr	r3, [r5, #0]
    3252:	3c01      	subs	r4, #1
    3254:	4798      	blx	r3
    3256:	3d04      	subs	r5, #4
    3258:	2c00      	cmp	r4, #0
    325a:	d1f9      	bne.n	3250 <__libc_fini_array+0x14>
    325c:	f000 f9b4 	bl	35c8 <_fini>
    3260:	bd70      	pop	{r4, r5, r6, pc}
    3262:	46c0      	nop			; (mov r8, r8)
    3264:	000035d4 	.word	0x000035d4
    3268:	000035d8 	.word	0x000035d8
    326c:	3fffffff 	.word	0x3fffffff

00003270 <__register_exitproc>:
    3270:	b5f8      	push	{r3, r4, r5, r6, r7, lr}
    3272:	46de      	mov	lr, fp
    3274:	469b      	mov	fp, r3
    3276:	4b31      	ldr	r3, [pc, #196]	; (333c <__register_exitproc+0xcc>)
    3278:	4645      	mov	r5, r8
    327a:	681c      	ldr	r4, [r3, #0]
    327c:	23a4      	movs	r3, #164	; 0xa4
    327e:	464e      	mov	r6, r9
    3280:	4657      	mov	r7, sl
    3282:	005b      	lsls	r3, r3, #1
    3284:	b5e0      	push	{r5, r6, r7, lr}
    3286:	0005      	movs	r5, r0
    3288:	58e0      	ldr	r0, [r4, r3]
    328a:	000e      	movs	r6, r1
    328c:	4690      	mov	r8, r2
    328e:	2800      	cmp	r0, #0
    3290:	d04b      	beq.n	332a <__register_exitproc+0xba>
    3292:	6843      	ldr	r3, [r0, #4]
    3294:	2b1f      	cmp	r3, #31
    3296:	dc0d      	bgt.n	32b4 <__register_exitproc+0x44>
    3298:	1c5c      	adds	r4, r3, #1
    329a:	2d00      	cmp	r5, #0
    329c:	d121      	bne.n	32e2 <__register_exitproc+0x72>
    329e:	3302      	adds	r3, #2
    32a0:	009b      	lsls	r3, r3, #2
    32a2:	6044      	str	r4, [r0, #4]
    32a4:	501e      	str	r6, [r3, r0]
    32a6:	2000      	movs	r0, #0
    32a8:	bc3c      	pop	{r2, r3, r4, r5}
    32aa:	4690      	mov	r8, r2
    32ac:	4699      	mov	r9, r3
    32ae:	46a2      	mov	sl, r4
    32b0:	46ab      	mov	fp, r5
    32b2:	bdf8      	pop	{r3, r4, r5, r6, r7, pc}
    32b4:	4b22      	ldr	r3, [pc, #136]	; (3340 <__register_exitproc+0xd0>)
    32b6:	2b00      	cmp	r3, #0
    32b8:	d03c      	beq.n	3334 <__register_exitproc+0xc4>
    32ba:	20c8      	movs	r0, #200	; 0xc8
    32bc:	0040      	lsls	r0, r0, #1
    32be:	e000      	b.n	32c2 <__register_exitproc+0x52>
    32c0:	bf00      	nop
    32c2:	2800      	cmp	r0, #0
    32c4:	d036      	beq.n	3334 <__register_exitproc+0xc4>
    32c6:	22a4      	movs	r2, #164	; 0xa4
    32c8:	2300      	movs	r3, #0
    32ca:	0052      	lsls	r2, r2, #1
    32cc:	58a1      	ldr	r1, [r4, r2]
    32ce:	6043      	str	r3, [r0, #4]
    32d0:	6001      	str	r1, [r0, #0]
    32d2:	50a0      	str	r0, [r4, r2]
    32d4:	3240      	adds	r2, #64	; 0x40
    32d6:	5083      	str	r3, [r0, r2]
    32d8:	3204      	adds	r2, #4
    32da:	5083      	str	r3, [r0, r2]
    32dc:	2401      	movs	r4, #1
    32de:	2d00      	cmp	r5, #0
    32e0:	d0dd      	beq.n	329e <__register_exitproc+0x2e>
    32e2:	009a      	lsls	r2, r3, #2
    32e4:	4691      	mov	r9, r2
    32e6:	4481      	add	r9, r0
    32e8:	4642      	mov	r2, r8
    32ea:	2188      	movs	r1, #136	; 0x88
    32ec:	464f      	mov	r7, r9
    32ee:	507a      	str	r2, [r7, r1]
    32f0:	22c4      	movs	r2, #196	; 0xc4
    32f2:	0052      	lsls	r2, r2, #1
    32f4:	4690      	mov	r8, r2
    32f6:	4480      	add	r8, r0
    32f8:	4642      	mov	r2, r8
    32fa:	3987      	subs	r1, #135	; 0x87
    32fc:	4099      	lsls	r1, r3
    32fe:	6812      	ldr	r2, [r2, #0]
    3300:	468a      	mov	sl, r1
    3302:	430a      	orrs	r2, r1
    3304:	4694      	mov	ip, r2
    3306:	4642      	mov	r2, r8
    3308:	4661      	mov	r1, ip
    330a:	6011      	str	r1, [r2, #0]
    330c:	2284      	movs	r2, #132	; 0x84
    330e:	4649      	mov	r1, r9
    3310:	465f      	mov	r7, fp
    3312:	0052      	lsls	r2, r2, #1
    3314:	508f      	str	r7, [r1, r2]
    3316:	2d02      	cmp	r5, #2
    3318:	d1c1      	bne.n	329e <__register_exitproc+0x2e>
    331a:	0002      	movs	r2, r0
    331c:	4655      	mov	r5, sl
    331e:	328d      	adds	r2, #141	; 0x8d
    3320:	32ff      	adds	r2, #255	; 0xff
    3322:	6811      	ldr	r1, [r2, #0]
    3324:	430d      	orrs	r5, r1
    3326:	6015      	str	r5, [r2, #0]
    3328:	e7b9      	b.n	329e <__register_exitproc+0x2e>
    332a:	0020      	movs	r0, r4
    332c:	304d      	adds	r0, #77	; 0x4d
    332e:	30ff      	adds	r0, #255	; 0xff
    3330:	50e0      	str	r0, [r4, r3]
    3332:	e7ae      	b.n	3292 <__register_exitproc+0x22>
    3334:	2001      	movs	r0, #1
    3336:	4240      	negs	r0, r0
    3338:	e7b6      	b.n	32a8 <__register_exitproc+0x38>
    333a:	46c0      	nop			; (mov r8, r8)
    333c:	000035b0 	.word	0x000035b0
    3340:	00000000 	.word	0x00000000

00003344 <spi2MOSI>:
    3344:	0c000002 00000200                                .....

00003349 <spi2SCK>:
    3349:	0e000002 00000200                                .....

0000334e <spi2MISO>:
    334e:	0d000002 8d200000                                ......

00003354 <lookupTable.12368>:
    3354:	ffff8d20 ffffada1 ffffce64 ffffef6c      .......d...l...
    3364:	000010b7 0000324a 00005425 00007649     ....J2..%T..Iv..
    3374:	000098b7 0000bb72 0000de79 000101d0     ....r...y.......
    3384:	00012576 0001496f 00016dbc 0001925e     v%..oI...m..^...
    3394:	0001b758 0001dcaa 00020258 00022862     X.......X...b(..
    33a4:	00024ecc 00027596 00029cc4 0002c457     .N...u......W...
    33b4:	0002ec52 000314b7 00033d89 000366ca     R........=...f..
    33c4:	0003907d 0003baa4 0003e544 0004105e     }.......D...^...
    33d4:	00043bf6 0004680e 000494ac 0004c1d1     .;...h..........
    33e4:	0004ef81 00051dc1 00054c95 00057c00     .........L...|..
    33f4:	0005ac07 0005dcae 00060dfb 00063ff2     .............?..
    3404:	00067298 0006a5f4 0006da09 00070ee0     .r..............
    3414:	0007447d 00077ae8 0007b228 0007ea44     }D...z..(...D...
    3424:	00082344 00085d30 00089810 0008d3ef     D#..0]..........
    3434:	000910d6 00094ecf 00098de5 0009ce23     .....N......#...
    3444:	000a0f98 000a524f 000a9657 000adbbf     ....OR..W.......
    3454:	000b2298 000b6af3 000bb4e2 000c007b     ."...j......{...
    3464:	000c4dd4 000c9d03 000cee23 000d4150     .M......#...PA..
    3474:	000d96a9 000dee4e 000e4865 000ea516     ....N...eH......
    3484:	000f048e                                ....

00003488 <senseBatPin>:
    3488:	06000000 01000106                                .....

0000348d <senseAPin>:
    348d:	03010001 0100010b                                .....

00003492 <senseBPin>:
    3492:	02010001 0000000a                                .....

00003497 <senseCPin>:
    3497:	03000000 00000001                                .....

0000349c <senseDPin>:
    349c:	02000000 00000000                                .....

000034a1 <analogAccelPin>:
    34a1:	07000000 00000207                                .....

000034a6 <spi2MOSI>:
    34a6:	0c000002 00000200                                .....

000034ab <spi2SCK>:
    34ab:	0e000002 001a9800 001a6800 001a7a00     .........h...z..
    34bb:	0019bc00 001a7a00 001a5e00 001a7a00     .....z...^...z..
    34cb:	0019bc00 001a6800 001a6800 001a5e00     .....h...h...^..
    34db:	0019bc00 0019c400 0019c400 0019c400     ................
    34eb:	001a8000 001a6800 001a6800 001a3c00     .....h...h...<..
    34fb:	001b2000 001a3c00 001a5e00 001a3c00     . ...<...^...<..
    350b:	001b2000 001a6800 001a6800 001a5e00     . ...h...h...^..
    351b:	001b2000 0019c400 0019c400 0019c400     . ..............
    352b:	001b2a00 001cc800 001c1800 001c1800     .*..............
    353b:	001c1600 001cba00 001cba00 001cb000     ................
    354b:	001c1600 001cba00 001cb000 001cba00     ................
    355b:	001c1600 001cc000 001cc000 001cc000     ................
    356b:	001d5000 002bb000 002a7000 002a7000     .P....+..p*..p*.
    357b:	002a6c00 002b8800 002b8800 002b7a00     .l*...+...+..z+.
    358b:	002a6c00 002b8800 002b7a00 002b8800     .l*...+..z+...+.
    359b:	002a6c00 002b9000 002b9000 002b9000     .l*...+...+...+.
    35ab:	002d9400 00001000                                ..-..

000035b0 <_global_impure_ptr>:
    35b0:	20000010                                ... 

000035b4 <_init>:
    35b4:	b5f8      	push	{r3, r4, r5, r6, r7, lr}
    35b6:	46c0      	nop			; (mov r8, r8)
    35b8:	bcf8      	pop	{r3, r4, r5, r6, r7}
    35ba:	bc08      	pop	{r3}
    35bc:	469e      	mov	lr, r3
    35be:	4770      	bx	lr

000035c0 <__init_array_start>:
    35c0:	00003215 	.word	0x00003215

000035c4 <__frame_dummy_init_array_entry>:
    35c4:	000000dd                                ....

000035c8 <_fini>:
    35c8:	b5f8      	push	{r3, r4, r5, r6, r7, lr}
    35ca:	46c0      	nop			; (mov r8, r8)
    35cc:	bcf8      	pop	{r3, r4, r5, r6, r7}
    35ce:	bc08      	pop	{r3}
    35d0:	469e      	mov	lr, r3
    35d2:	4770      	bx	lr

000035d4 <__fini_array_start>:
    35d4:	000000b5 	.word	0x000000b5
