
DasAltimeter.elf:     file format elf32-littlearm

Sections:
Idx Name          Size      VMA       LMA       File off  Algn
  0 .text         000027a4  00000000  00000000  00010000  2**2
                  CONTENTS, ALLOC, LOAD, READONLY, CODE
  1 .relocate     00000438  20000000  000027a4  00020000  2**3
                  CONTENTS, ALLOC, LOAD, DATA
  2 .bss          000001b0  20000440  00002bf0  00020440  2**4
                  ALLOC
  3 .stack        00002000  200005f0  00002da0  00020440  2**0
                  ALLOC
  4 .ARM.attributes 00000028  00000000  00000000  00020438  2**0
                  CONTENTS, READONLY
  5 .comment      00000059  00000000  00000000  00020460  2**0
                  CONTENTS, READONLY
  6 .debug_frame  0000029c  00000000  00000000  000204bc  2**2
                  CONTENTS, READONLY, DEBUGGING

Disassembly of section .text:

00000000 <exception_table>:
       0:	f0 25 00 20 19 01 00 00 15 01 00 00 15 01 00 00     .%. ............
	...
      2c:	15 01 00 00 00 00 00 00 00 00 00 00 15 01 00 00     ................
      3c:	15 01 00 00 15 01 00 00 15 01 00 00 15 01 00 00     ................
      4c:	85 0d 00 00 15 01 00 00 15 01 00 00 15 01 00 00     ................
      5c:	15 01 00 00 15 01 00 00 15 01 00 00 15 01 00 00     ................
      6c:	15 01 00 00 15 01 00 00 15 01 00 00 15 01 00 00     ................
      7c:	15 01 00 00 15 01 00 00 15 01 00 00 15 01 00 00     ................
      8c:	29 0e 00 00 91 0e 00 00 00 00 00 00 00 00 00 00     )...............
      9c:	15 01 00 00 15 01 00 00 15 01 00 00 15 01 00 00     ................
      ac:	15 01 00 00 00 00 00 00                             ........

000000b4 <__do_global_dtors_aux>:
      b4:	b510      	push	{r4, lr}
      b6:	4c06      	ldr	r4, [pc, #24]	; (d0 <__do_global_dtors_aux+0x1c>)
      b8:	7823      	ldrb	r3, [r4, #0]
      ba:	2b00      	cmp	r3, #0
      bc:	d107      	bne.n	ce <__do_global_dtors_aux+0x1a>
      be:	4b05      	ldr	r3, [pc, #20]	; (d4 <__do_global_dtors_aux+0x20>)
      c0:	2b00      	cmp	r3, #0
      c2:	d002      	beq.n	ca <__do_global_dtors_aux+0x16>
      c4:	4804      	ldr	r0, [pc, #16]	; (d8 <__do_global_dtors_aux+0x24>)
      c6:	e000      	b.n	ca <__do_global_dtors_aux+0x16>
      c8:	bf00      	nop
      ca:	2301      	movs	r3, #1
      cc:	7023      	strb	r3, [r4, #0]
      ce:	bd10      	pop	{r4, pc}
      d0:	20000440 	.word	0x20000440
      d4:	00000000 	.word	0x00000000
      d8:	000027a4 	.word	0x000027a4

000000dc <frame_dummy>:
      dc:	4b08      	ldr	r3, [pc, #32]	; (100 <frame_dummy+0x24>)
      de:	b510      	push	{r4, lr}
      e0:	2b00      	cmp	r3, #0
      e2:	d003      	beq.n	ec <frame_dummy+0x10>
      e4:	4907      	ldr	r1, [pc, #28]	; (104 <frame_dummy+0x28>)
      e6:	4808      	ldr	r0, [pc, #32]	; (108 <frame_dummy+0x2c>)
      e8:	e000      	b.n	ec <frame_dummy+0x10>
      ea:	bf00      	nop
      ec:	4807      	ldr	r0, [pc, #28]	; (10c <frame_dummy+0x30>)
      ee:	6803      	ldr	r3, [r0, #0]
      f0:	2b00      	cmp	r3, #0
      f2:	d100      	bne.n	f6 <frame_dummy+0x1a>
      f4:	bd10      	pop	{r4, pc}
      f6:	4b06      	ldr	r3, [pc, #24]	; (110 <frame_dummy+0x34>)
      f8:	2b00      	cmp	r3, #0
      fa:	d0fb      	beq.n	f4 <frame_dummy+0x18>
      fc:	4798      	blx	r3
      fe:	e7f9      	b.n	f4 <frame_dummy+0x18>
     100:	00000000 	.word	0x00000000
     104:	20000444 	.word	0x20000444
     108:	000027a4 	.word	0x000027a4
     10c:	000027a4 	.word	0x000027a4
     110:	00000000 	.word	0x00000000

00000114 <Dummy_Handler>:
     114:	e7fe      	b.n	114 <Dummy_Handler>
	...

00000118 <Reset_Handler>:
     118:	4821      	ldr	r0, [pc, #132]	; (1a0 <Reset_Handler+0x88>)
     11a:	4922      	ldr	r1, [pc, #136]	; (1a4 <Reset_Handler+0x8c>)
     11c:	b570      	push	{r4, r5, r6, lr}
     11e:	4288      	cmp	r0, r1
     120:	d004      	beq.n	12c <Reset_Handler+0x14>
     122:	2300      	movs	r3, #0
     124:	4c20      	ldr	r4, [pc, #128]	; (1a8 <Reset_Handler+0x90>)
     126:	18ca      	adds	r2, r1, r3
     128:	42a2      	cmp	r2, r4
     12a:	d332      	bcc.n	192 <Reset_Handler+0x7a>
     12c:	2100      	movs	r1, #0
     12e:	4b1f      	ldr	r3, [pc, #124]	; (1ac <Reset_Handler+0x94>)
     130:	4a1f      	ldr	r2, [pc, #124]	; (1b0 <Reset_Handler+0x98>)
     132:	4293      	cmp	r3, r2
     134:	d331      	bcc.n	19a <Reset_Handler+0x82>
     136:	21ff      	movs	r1, #255	; 0xff
     138:	4b1e      	ldr	r3, [pc, #120]	; (1b4 <Reset_Handler+0x9c>)
     13a:	4a1f      	ldr	r2, [pc, #124]	; (1b8 <Reset_Handler+0xa0>)
     13c:	438b      	bics	r3, r1
     13e:	6093      	str	r3, [r2, #8]
     140:	2202      	movs	r2, #2
     142:	250c      	movs	r5, #12
     144:	2408      	movs	r4, #8
     146:	2630      	movs	r6, #48	; 0x30
     148:	4b1c      	ldr	r3, [pc, #112]	; (1bc <Reset_Handler+0xa4>)
     14a:	481d      	ldr	r0, [pc, #116]	; (1c0 <Reset_Handler+0xa8>)
     14c:	625a      	str	r2, [r3, #36]	; 0x24
     14e:	78c3      	ldrb	r3, [r0, #3]
     150:	39fc      	subs	r1, #252	; 0xfc
     152:	438b      	bics	r3, r1
     154:	4313      	orrs	r3, r2
     156:	70c3      	strb	r3, [r0, #3]
     158:	78c3      	ldrb	r3, [r0, #3]
     15a:	43ab      	bics	r3, r5
     15c:	4323      	orrs	r3, r4
     15e:	70c3      	strb	r3, [r0, #3]
     160:	4b18      	ldr	r3, [pc, #96]	; (1c4 <Reset_Handler+0xac>)
     162:	7b98      	ldrb	r0, [r3, #14]
     164:	43b0      	bics	r0, r6
     166:	0006      	movs	r6, r0
     168:	2020      	movs	r0, #32
     16a:	4330      	orrs	r0, r6
     16c:	7398      	strb	r0, [r3, #14]
     16e:	7b98      	ldrb	r0, [r3, #14]
     170:	43a8      	bics	r0, r5
     172:	4304      	orrs	r4, r0
     174:	739c      	strb	r4, [r3, #14]
     176:	7b98      	ldrb	r0, [r3, #14]
     178:	4388      	bics	r0, r1
     17a:	4302      	orrs	r2, r0
     17c:	739a      	strb	r2, [r3, #14]
     17e:	2380      	movs	r3, #128	; 0x80
     180:	4a11      	ldr	r2, [pc, #68]	; (1c8 <Reset_Handler+0xb0>)
     182:	6851      	ldr	r1, [r2, #4]
     184:	430b      	orrs	r3, r1
     186:	6053      	str	r3, [r2, #4]
     188:	4b10      	ldr	r3, [pc, #64]	; (1cc <Reset_Handler+0xb4>)
     18a:	4798      	blx	r3
     18c:	4b10      	ldr	r3, [pc, #64]	; (1d0 <Reset_Handler+0xb8>)
     18e:	4798      	blx	r3
     190:	e7fe      	b.n	190 <Reset_Handler+0x78>
     192:	58c5      	ldr	r5, [r0, r3]
     194:	3304      	adds	r3, #4
     196:	6015      	str	r5, [r2, #0]
     198:	e7c5      	b.n	126 <Reset_Handler+0xe>
     19a:	c302      	stmia	r3!, {r1}
     19c:	e7c9      	b.n	132 <Reset_Handler+0x1a>
     19e:	46c0      	nop			; (mov r8, r8)
     1a0:	000027a4 	.word	0x000027a4
     1a4:	20000000 	.word	0x20000000
     1a8:	20000438 	.word	0x20000438
     1ac:	20000440 	.word	0x20000440
     1b0:	200005f0 	.word	0x200005f0
     1b4:	00000000 	.word	0x00000000
     1b8:	e000ed00 	.word	0xe000ed00
     1bc:	410070fc 	.word	0x410070fc
     1c0:	41005000 	.word	0x41005000
     1c4:	41004800 	.word	0x41004800
     1c8:	41004000 	.word	0x41004000
     1cc:	000023c5 	.word	0x000023c5
     1d0:	000008c1 	.word	0x000008c1

000001d4 <SystemInit>:
     1d4:	4a01      	ldr	r2, [pc, #4]	; (1dc <SystemInit+0x8>)
     1d6:	4b02      	ldr	r3, [pc, #8]	; (1e0 <SystemInit+0xc>)
     1d8:	601a      	str	r2, [r3, #0]
     1da:	4770      	bx	lr
     1dc:	000f4240 	.word	0x000f4240
     1e0:	20000000 	.word	0x20000000

000001e4 <AT25SFErace4KBlock>:
     1e4:	b5f7      	push	{r0, r1, r2, r4, r5, r6, r7, lr}
     1e6:	2780      	movs	r7, #128	; 0x80
     1e8:	4e12      	ldr	r6, [pc, #72]	; (234 <AT25SFErace4KBlock+0x50>)
     1ea:	02ff      	lsls	r7, r7, #11
     1ec:	0303      	lsls	r3, r0, #12
     1ee:	4d12      	ldr	r5, [pc, #72]	; (238 <AT25SFErace4KBlock+0x54>)
     1f0:	9301      	str	r3, [sp, #4]
     1f2:	2106      	movs	r1, #6
     1f4:	6177      	str	r7, [r6, #20]
     1f6:	2001      	movs	r0, #1
     1f8:	47a8      	blx	r5
     1fa:	4c10      	ldr	r4, [pc, #64]	; (23c <AT25SFErace4KBlock+0x58>)
     1fc:	2120      	movs	r1, #32
     1fe:	7020      	strb	r0, [r4, #0]
     200:	61b7      	str	r7, [r6, #24]
     202:	2001      	movs	r0, #1
     204:	6177      	str	r7, [r6, #20]
     206:	47a8      	blx	r5
     208:	9b01      	ldr	r3, [sp, #4]
     20a:	7020      	strb	r0, [r4, #0]
     20c:	0c19      	lsrs	r1, r3, #16
     20e:	2001      	movs	r0, #1
     210:	47a8      	blx	r5
     212:	9b01      	ldr	r3, [sp, #4]
     214:	7020      	strb	r0, [r4, #0]
     216:	0a19      	lsrs	r1, r3, #8
     218:	b2c9      	uxtb	r1, r1
     21a:	2001      	movs	r0, #1
     21c:	47a8      	blx	r5
     21e:	2100      	movs	r1, #0
     220:	7020      	strb	r0, [r4, #0]
     222:	2001      	movs	r0, #1
     224:	47a8      	blx	r5
     226:	4b06      	ldr	r3, [pc, #24]	; (240 <AT25SFErace4KBlock+0x5c>)
     228:	7020      	strb	r0, [r4, #0]
     22a:	61b7      	str	r7, [r6, #24]
     22c:	2046      	movs	r0, #70	; 0x46
     22e:	4798      	blx	r3
     230:	bdf7      	pop	{r0, r1, r2, r4, r5, r6, r7, pc}
     232:	46c0      	nop			; (mov r8, r8)
     234:	41004400 	.word	0x41004400
     238:	00001539 	.word	0x00001539
     23c:	20000460 	.word	0x20000460
     240:	00000d59 	.word	0x00000d59

00000244 <readMS5803AdcResults>:
     244:	2380      	movs	r3, #128	; 0x80
     246:	b5f0      	push	{r4, r5, r6, r7, lr}
     248:	4f24      	ldr	r7, [pc, #144]	; (2dc <readMS5803AdcResults+0x98>)
     24a:	021b      	lsls	r3, r3, #8
     24c:	617b      	str	r3, [r7, #20]
     24e:	2300      	movs	r3, #0
     250:	4d23      	ldr	r5, [pc, #140]	; (2e0 <readMS5803AdcResults+0x9c>)
     252:	b087      	sub	sp, #28
     254:	79a9      	ldrb	r1, [r5, #6]
     256:	796c      	ldrb	r4, [r5, #5]
     258:	9300      	str	r3, [sp, #0]
     25a:	786b      	ldrb	r3, [r5, #1]
     25c:	782a      	ldrb	r2, [r5, #0]
     25e:	0209      	lsls	r1, r1, #8
     260:	4321      	orrs	r1, r4
     262:	021b      	lsls	r3, r3, #8
     264:	79ec      	ldrb	r4, [r5, #7]
     266:	4313      	orrs	r3, r2
     268:	78aa      	ldrb	r2, [r5, #2]
     26a:	0424      	lsls	r4, r4, #16
     26c:	4321      	orrs	r1, r4
     26e:	0412      	lsls	r2, r2, #16
     270:	7a2c      	ldrb	r4, [r5, #8]
     272:	4313      	orrs	r3, r2
     274:	78ea      	ldrb	r2, [r5, #3]
     276:	0624      	lsls	r4, r4, #24
     278:	430c      	orrs	r4, r1
     27a:	0612      	lsls	r2, r2, #24
     27c:	7a69      	ldrb	r1, [r5, #9]
     27e:	431a      	orrs	r2, r3
     280:	0020      	movs	r0, r4
     282:	792b      	ldrb	r3, [r5, #4]
     284:	4e17      	ldr	r6, [pc, #92]	; (2e4 <readMS5803AdcResults+0xa0>)
     286:	9102      	str	r1, [sp, #8]
     288:	47b0      	blx	r6
     28a:	7aeb      	ldrb	r3, [r5, #11]
     28c:	7aaa      	ldrb	r2, [r5, #10]
     28e:	021b      	lsls	r3, r3, #8
     290:	431a      	orrs	r2, r3
     292:	7b2b      	ldrb	r3, [r5, #12]
     294:	4e14      	ldr	r6, [pc, #80]	; (2e8 <readMS5803AdcResults+0xa4>)
     296:	041b      	lsls	r3, r3, #16
     298:	4313      	orrs	r3, r2
     29a:	7b6a      	ldrb	r2, [r5, #13]
     29c:	7bad      	ldrb	r5, [r5, #14]
     29e:	0612      	lsls	r2, r2, #24
     2a0:	431a      	orrs	r2, r3
     2a2:	9902      	ldr	r1, [sp, #8]
     2a4:	002b      	movs	r3, r5
     2a6:	0020      	movs	r0, r4
     2a8:	9203      	str	r2, [sp, #12]
     2aa:	47b0      	blx	r6
     2ac:	9a03      	ldr	r2, [sp, #12]
     2ae:	9004      	str	r0, [sp, #16]
     2b0:	002b      	movs	r3, r5
     2b2:	9902      	ldr	r1, [sp, #8]
     2b4:	0020      	movs	r0, r4
     2b6:	47b0      	blx	r6
     2b8:	9a03      	ldr	r2, [sp, #12]
     2ba:	9005      	str	r0, [sp, #20]
     2bc:	002b      	movs	r3, r5
     2be:	0020      	movs	r0, r4
     2c0:	9902      	ldr	r1, [sp, #8]
     2c2:	47b0      	blx	r6
     2c4:	2380      	movs	r3, #128	; 0x80
     2c6:	021b      	lsls	r3, r3, #8
     2c8:	61bb      	str	r3, [r7, #24]
     2ca:	9b04      	ldr	r3, [sp, #16]
     2cc:	9a05      	ldr	r2, [sp, #20]
     2ce:	041b      	lsls	r3, r3, #16
     2d0:	0215      	lsls	r5, r2, #8
     2d2:	431d      	orrs	r5, r3
     2d4:	4328      	orrs	r0, r5
     2d6:	b007      	add	sp, #28
     2d8:	bdf0      	pop	{r4, r5, r6, r7, pc}
     2da:	46c0      	nop			; (mov r8, r8)
     2dc:	41004400 	.word	0x41004400
     2e0:	000025d0 	.word	0x000025d0
     2e4:	00000ac1 	.word	0x00000ac1
     2e8:	00000b2d 	.word	0x00000b2d

000002ec <ConvertPressureTemperature>:
     2ec:	b5f0      	push	{r4, r5, r6, r7, lr}
     2ee:	240a      	movs	r4, #10
     2f0:	b08b      	sub	sp, #44	; 0x2c
     2f2:	8803      	ldrh	r3, [r0, #0]
     2f4:	aa02      	add	r2, sp, #8
     2f6:	8093      	strh	r3, [r2, #4]
     2f8:	8843      	ldrh	r3, [r0, #2]
     2fa:	18a4      	adds	r4, r4, r2
     2fc:	80d3      	strh	r3, [r2, #6]
     2fe:	8883      	ldrh	r3, [r0, #4]
     300:	1d95      	adds	r5, r2, #6
     302:	8113      	strh	r3, [r2, #8]
     304:	88c3      	ldrh	r3, [r0, #6]
     306:	0006      	movs	r6, r0
     308:	8023      	strh	r3, [r4, #0]
     30a:	8902      	ldrh	r2, [r0, #8]
     30c:	ab05      	add	r3, sp, #20
     30e:	801a      	strh	r2, [r3, #0]
     310:	220e      	movs	r2, #14
     312:	8941      	ldrh	r1, [r0, #10]
     314:	a802      	add	r0, sp, #8
     316:	1812      	adds	r2, r2, r0
     318:	8011      	strh	r1, [r2, #0]
     31a:	881b      	ldrh	r3, [r3, #0]
     31c:	6931      	ldr	r1, [r6, #16]
     31e:	021b      	lsls	r3, r3, #8
     320:	8810      	ldrh	r0, [r2, #0]
     322:	1acb      	subs	r3, r1, r3
     324:	9300      	str	r3, [sp, #0]
     326:	17db      	asrs	r3, r3, #31
     328:	9301      	str	r3, [sp, #4]
     32a:	9a00      	ldr	r2, [sp, #0]
     32c:	4f29      	ldr	r7, [pc, #164]	; (3d4 <ConvertPressureTemperature+0xe8>)
     32e:	b280      	uxth	r0, r0
     330:	2100      	movs	r1, #0
     332:	47b8      	blx	r7
     334:	23fa      	movs	r3, #250	; 0xfa
     336:	00db      	lsls	r3, r3, #3
     338:	18c9      	adds	r1, r1, r3
     33a:	882b      	ldrh	r3, [r5, #0]
     33c:	8820      	ldrh	r0, [r4, #0]
     33e:	b29b      	uxth	r3, r3
     340:	6171      	str	r1, [r6, #20]
     342:	001f      	movs	r7, r3
     344:	9a00      	ldr	r2, [sp, #0]
     346:	9b01      	ldr	r3, [sp, #4]
     348:	4c22      	ldr	r4, [pc, #136]	; (3d4 <ConvertPressureTemperature+0xe8>)
     34a:	b280      	uxth	r0, r0
     34c:	2100      	movs	r1, #0
     34e:	47a0      	blx	r4
     350:	064b      	lsls	r3, r1, #25
     352:	09c4      	lsrs	r4, r0, #7
     354:	431c      	orrs	r4, r3
     356:	2300      	movs	r3, #0
     358:	11cd      	asrs	r5, r1, #7
     35a:	043a      	lsls	r2, r7, #16
     35c:	1912      	adds	r2, r2, r4
     35e:	416b      	adcs	r3, r5
     360:	9206      	str	r2, [sp, #24]
     362:	9307      	str	r3, [sp, #28]
     364:	ab02      	add	r3, sp, #8
     366:	889c      	ldrh	r4, [r3, #4]
     368:	8918      	ldrh	r0, [r3, #8]
     36a:	9a00      	ldr	r2, [sp, #0]
     36c:	9b01      	ldr	r3, [sp, #4]
     36e:	4d19      	ldr	r5, [pc, #100]	; (3d4 <ConvertPressureTemperature+0xe8>)
     370:	b280      	uxth	r0, r0
     372:	2100      	movs	r1, #0
     374:	47a8      	blx	r5
     376:	060d      	lsls	r5, r1, #24
     378:	120b      	asrs	r3, r1, #8
     37a:	2100      	movs	r1, #0
     37c:	b2a4      	uxth	r4, r4
     37e:	0a02      	lsrs	r2, r0, #8
     380:	432a      	orrs	r2, r5
     382:	03e0      	lsls	r0, r4, #15
     384:	1812      	adds	r2, r2, r0
     386:	414b      	adcs	r3, r1
     388:	9208      	str	r2, [sp, #32]
     38a:	9309      	str	r3, [sp, #36]	; 0x24
     38c:	9a08      	ldr	r2, [sp, #32]
     38e:	9b09      	ldr	r3, [sp, #36]	; 0x24
     390:	9c06      	ldr	r4, [sp, #24]
     392:	9d07      	ldr	r5, [sp, #28]
     394:	4f0f      	ldr	r7, [pc, #60]	; (3d4 <ConvertPressureTemperature+0xe8>)
     396:	68f0      	ldr	r0, [r6, #12]
     398:	47b8      	blx	r7
     39a:	17cb      	asrs	r3, r1, #31
     39c:	02db      	lsls	r3, r3, #11
     39e:	469c      	mov	ip, r3
     3a0:	4667      	mov	r7, ip
     3a2:	2300      	movs	r3, #0
     3a4:	0afa      	lsrs	r2, r7, #11
     3a6:	1880      	adds	r0, r0, r2
     3a8:	4159      	adcs	r1, r3
     3aa:	02cb      	lsls	r3, r1, #11
     3ac:	469c      	mov	ip, r3
     3ae:	4667      	mov	r7, ip
     3b0:	0d42      	lsrs	r2, r0, #21
     3b2:	433a      	orrs	r2, r7
     3b4:	154b      	asrs	r3, r1, #21
     3b6:	1b12      	subs	r2, r2, r4
     3b8:	41ab      	sbcs	r3, r5
     3ba:	2100      	movs	r1, #0
     3bc:	17dc      	asrs	r4, r3, #31
     3be:	0464      	lsls	r4, r4, #17
     3c0:	0c60      	lsrs	r0, r4, #17
     3c2:	1812      	adds	r2, r2, r0
     3c4:	414b      	adcs	r3, r1
     3c6:	0011      	movs	r1, r2
     3c8:	045b      	lsls	r3, r3, #17
     3ca:	0bca      	lsrs	r2, r1, #15
     3cc:	431a      	orrs	r2, r3
     3ce:	61f2      	str	r2, [r6, #28]
     3d0:	b00b      	add	sp, #44	; 0x2c
     3d2:	bdf0      	pop	{r4, r5, r6, r7, pc}
     3d4:	00001569 	.word	0x00001569

000003d8 <pascalToCent>:
     3d8:	b570      	push	{r4, r5, r6, lr}
     3da:	240a      	movs	r4, #10
     3dc:	69c3      	ldr	r3, [r0, #28]
     3de:	4d0f      	ldr	r5, [pc, #60]	; (41c <pascalToCent+0x44>)
     3e0:	435c      	muls	r4, r3
     3e2:	6184      	str	r4, [r0, #24]
     3e4:	42ac      	cmp	r4, r5
     3e6:	d902      	bls.n	3ee <pascalToCent+0x16>
     3e8:	4b0d      	ldr	r3, [pc, #52]	; (420 <pascalToCent+0x48>)
     3ea:	6203      	str	r3, [r0, #32]
     3ec:	bd70      	pop	{r4, r5, r6, pc}
     3ee:	1b2b      	subs	r3, r5, r4
     3f0:	0a9b      	lsrs	r3, r3, #10
     3f2:	2b4b      	cmp	r3, #75	; 0x4b
     3f4:	d901      	bls.n	3fa <pascalToCent+0x22>
     3f6:	4b0b      	ldr	r3, [pc, #44]	; (424 <pascalToCent+0x4c>)
     3f8:	e7f7      	b.n	3ea <pascalToCent+0x12>
     3fa:	4e0b      	ldr	r6, [pc, #44]	; (428 <pascalToCent+0x50>)
     3fc:	009a      	lsls	r2, r3, #2
     3fe:	18b2      	adds	r2, r6, r2
     400:	6911      	ldr	r1, [r2, #16]
     402:	029a      	lsls	r2, r3, #10
     404:	1aad      	subs	r5, r5, r2
     406:	1c5a      	adds	r2, r3, #1
     408:	0092      	lsls	r2, r2, #2
     40a:	18b2      	adds	r2, r6, r2
     40c:	6913      	ldr	r3, [r2, #16]
     40e:	1b2c      	subs	r4, r5, r4
     410:	1a5b      	subs	r3, r3, r1
     412:	4363      	muls	r3, r4
     414:	0a9b      	lsrs	r3, r3, #10
     416:	185b      	adds	r3, r3, r1
     418:	e7e7      	b.n	3ea <pascalToCent+0x12>
     41a:	46c0      	nop			; (mov r8, r8)
     41c:	000199cc 	.word	0x000199cc
     420:	ffff8d20 	.word	0xffff8d20
     424:	000f048e 	.word	0x000f048e
     428:	000025d0 	.word	0x000025d0

0000042c <readMS5803Coefficients>:
     42c:	b5f0      	push	{r4, r5, r6, r7, lr}
     42e:	27a2      	movs	r7, #162	; 0xa2
     430:	b087      	sub	sp, #28
     432:	9002      	str	r0, [sp, #8]
     434:	2096      	movs	r0, #150	; 0x96
     436:	4c28      	ldr	r4, [pc, #160]	; (4d8 <readMS5803Coefficients+0xac>)
     438:	0080      	lsls	r0, r0, #2
     43a:	47a0      	blx	r4
     43c:	2096      	movs	r0, #150	; 0x96
     43e:	0080      	lsls	r0, r0, #2
     440:	47a0      	blx	r4
     442:	2280      	movs	r2, #128	; 0x80
     444:	4c25      	ldr	r4, [pc, #148]	; (4dc <readMS5803Coefficients+0xb0>)
     446:	4b26      	ldr	r3, [pc, #152]	; (4e0 <readMS5803Coefficients+0xb4>)
     448:	0212      	lsls	r2, r2, #8
     44a:	615a      	str	r2, [r3, #20]
     44c:	7863      	ldrb	r3, [r4, #1]
     44e:	7822      	ldrb	r2, [r4, #0]
     450:	79a1      	ldrb	r1, [r4, #6]
     452:	7966      	ldrb	r6, [r4, #5]
     454:	021b      	lsls	r3, r3, #8
     456:	4313      	orrs	r3, r2
     458:	0209      	lsls	r1, r1, #8
     45a:	78a2      	ldrb	r2, [r4, #2]
     45c:	430e      	orrs	r6, r1
     45e:	79e1      	ldrb	r1, [r4, #7]
     460:	0412      	lsls	r2, r2, #16
     462:	4313      	orrs	r3, r2
     464:	7a20      	ldrb	r0, [r4, #8]
     466:	78e2      	ldrb	r2, [r4, #3]
     468:	0409      	lsls	r1, r1, #16
     46a:	4331      	orrs	r1, r6
     46c:	7a66      	ldrb	r6, [r4, #9]
     46e:	0612      	lsls	r2, r2, #24
     470:	0600      	lsls	r0, r0, #24
     472:	4308      	orrs	r0, r1
     474:	431a      	orrs	r2, r3
     476:	9700      	str	r7, [sp, #0]
     478:	7923      	ldrb	r3, [r4, #4]
     47a:	0031      	movs	r1, r6
     47c:	4d19      	ldr	r5, [pc, #100]	; (4e4 <readMS5803Coefficients+0xb8>)
     47e:	9003      	str	r0, [sp, #12]
     480:	47a8      	blx	r5
     482:	0022      	movs	r2, r4
     484:	7ad3      	ldrb	r3, [r2, #11]
     486:	7aa4      	ldrb	r4, [r4, #10]
     488:	021b      	lsls	r3, r3, #8
     48a:	4323      	orrs	r3, r4
     48c:	7b14      	ldrb	r4, [r2, #12]
     48e:	7b95      	ldrb	r5, [r2, #14]
     490:	0424      	lsls	r4, r4, #16
     492:	4323      	orrs	r3, r4
     494:	7b54      	ldrb	r4, [r2, #13]
     496:	0031      	movs	r1, r6
     498:	0624      	lsls	r4, r4, #24
     49a:	431c      	orrs	r4, r3
     49c:	0022      	movs	r2, r4
     49e:	002b      	movs	r3, r5
     4a0:	9404      	str	r4, [sp, #16]
     4a2:	9803      	ldr	r0, [sp, #12]
     4a4:	4c10      	ldr	r4, [pc, #64]	; (4e8 <readMS5803Coefficients+0xbc>)
     4a6:	47a0      	blx	r4
     4a8:	002b      	movs	r3, r5
     4aa:	9005      	str	r0, [sp, #20]
     4ac:	9a04      	ldr	r2, [sp, #16]
     4ae:	9803      	ldr	r0, [sp, #12]
     4b0:	0031      	movs	r1, r6
     4b2:	4c0d      	ldr	r4, [pc, #52]	; (4e8 <readMS5803Coefficients+0xbc>)
     4b4:	47a0      	blx	r4
     4b6:	2280      	movs	r2, #128	; 0x80
     4b8:	4b09      	ldr	r3, [pc, #36]	; (4e0 <readMS5803Coefficients+0xb4>)
     4ba:	0212      	lsls	r2, r2, #8
     4bc:	619a      	str	r2, [r3, #24]
     4be:	9b05      	ldr	r3, [sp, #20]
     4c0:	3702      	adds	r7, #2
     4c2:	021d      	lsls	r5, r3, #8
     4c4:	9b02      	ldr	r3, [sp, #8]
     4c6:	4328      	orrs	r0, r5
     4c8:	8018      	strh	r0, [r3, #0]
     4ca:	b2ff      	uxtb	r7, r7
     4cc:	3302      	adds	r3, #2
     4ce:	9302      	str	r3, [sp, #8]
     4d0:	2fae      	cmp	r7, #174	; 0xae
     4d2:	d1af      	bne.n	434 <readMS5803Coefficients+0x8>
     4d4:	b007      	add	sp, #28
     4d6:	bdf0      	pop	{r4, r5, r6, r7, pc}
     4d8:	00000d2d 	.word	0x00000d2d
     4dc:	000025d0 	.word	0x000025d0
     4e0:	41004400 	.word	0x41004400
     4e4:	00000ac1 	.word	0x00000ac1
     4e8:	00000b2d 	.word	0x00000b2d

000004ec <initMS5803Barometer>:
     4ec:	b5f7      	push	{r0, r1, r2, r4, r5, r6, r7, lr}
     4ee:	2680      	movs	r6, #128	; 0x80
     4f0:	231e      	movs	r3, #30
     4f2:	0004      	movs	r4, r0
     4f4:	4918      	ldr	r1, [pc, #96]	; (558 <initMS5803Barometer+0x6c>)
     4f6:	4d19      	ldr	r5, [pc, #100]	; (55c <initMS5803Barometer+0x70>)
     4f8:	0236      	lsls	r6, r6, #8
     4fa:	616e      	str	r6, [r5, #20]
     4fc:	9300      	str	r3, [sp, #0]
     4fe:	784b      	ldrb	r3, [r1, #1]
     500:	780a      	ldrb	r2, [r1, #0]
     502:	021b      	lsls	r3, r3, #8
     504:	4313      	orrs	r3, r2
     506:	788a      	ldrb	r2, [r1, #2]
     508:	1d4f      	adds	r7, r1, #5
     50a:	0412      	lsls	r2, r2, #16
     50c:	4313      	orrs	r3, r2
     50e:	78ca      	ldrb	r2, [r1, #3]
     510:	7948      	ldrb	r0, [r1, #5]
     512:	0612      	lsls	r2, r2, #24
     514:	431a      	orrs	r2, r3
     516:	790b      	ldrb	r3, [r1, #4]
     518:	7989      	ldrb	r1, [r1, #6]
     51a:	0209      	lsls	r1, r1, #8
     51c:	4301      	orrs	r1, r0
     51e:	78b8      	ldrb	r0, [r7, #2]
     520:	0400      	lsls	r0, r0, #16
     522:	4301      	orrs	r1, r0
     524:	78f8      	ldrb	r0, [r7, #3]
     526:	0600      	lsls	r0, r0, #24
     528:	4308      	orrs	r0, r1
     52a:	7939      	ldrb	r1, [r7, #4]
     52c:	4f0c      	ldr	r7, [pc, #48]	; (560 <initMS5803Barometer+0x74>)
     52e:	47b8      	blx	r7
     530:	61ae      	str	r6, [r5, #24]
     532:	20c8      	movs	r0, #200	; 0xc8
     534:	4b0b      	ldr	r3, [pc, #44]	; (564 <initMS5803Barometer+0x78>)
     536:	4798      	blx	r3
     538:	0020      	movs	r0, r4
     53a:	4b0b      	ldr	r3, [pc, #44]	; (568 <initMS5803Barometer+0x7c>)
     53c:	4798      	blx	r3
     53e:	23fa      	movs	r3, #250	; 0xfa
     540:	011b      	lsls	r3, r3, #4
     542:	6223      	str	r3, [r4, #32]
     544:	4b09      	ldr	r3, [pc, #36]	; (56c <initMS5803Barometer+0x80>)
     546:	61a3      	str	r3, [r4, #24]
     548:	4b09      	ldr	r3, [pc, #36]	; (570 <initMS5803Barometer+0x84>)
     54a:	60e3      	str	r3, [r4, #12]
     54c:	4b09      	ldr	r3, [pc, #36]	; (574 <initMS5803Barometer+0x88>)
     54e:	6123      	str	r3, [r4, #16]
     550:	23fa      	movs	r3, #250	; 0xfa
     552:	00db      	lsls	r3, r3, #3
     554:	6163      	str	r3, [r4, #20]
     556:	bdf7      	pop	{r0, r1, r2, r4, r5, r6, r7, pc}
     558:	000025d0 	.word	0x000025d0
     55c:	41004400 	.word	0x41004400
     560:	00000ac1 	.word	0x00000ac1
     564:	00000d59 	.word	0x00000d59
     568:	0000042d 	.word	0x0000042d
     56c:	00002710 	.word	0x00002710
     570:	0041c9fe 	.word	0x0041c9fe
     574:	007ffae4 	.word	0x007ffae4

00000578 <init>:
     578:	b5f0      	push	{r4, r5, r6, r7, lr}
     57a:	4bc1      	ldr	r3, [pc, #772]	; (880 <init+0x308>)
     57c:	b085      	sub	sp, #20
     57e:	4798      	blx	r3
     580:	4bc0      	ldr	r3, [pc, #768]	; (884 <init+0x30c>)
     582:	4798      	blx	r3
     584:	4bc0      	ldr	r3, [pc, #768]	; (888 <init+0x310>)
     586:	4798      	blx	r3
     588:	4bc0      	ldr	r3, [pc, #768]	; (88c <init+0x314>)
     58a:	4798      	blx	r3
     58c:	4bc0      	ldr	r3, [pc, #768]	; (890 <init+0x318>)
     58e:	4798      	blx	r3
     590:	4bc0      	ldr	r3, [pc, #768]	; (894 <init+0x31c>)
     592:	4798      	blx	r3
     594:	2240      	movs	r2, #64	; 0x40
     596:	21c1      	movs	r1, #193	; 0xc1
     598:	4bbf      	ldr	r3, [pc, #764]	; (898 <init+0x320>)
     59a:	0089      	lsls	r1, r1, #2
     59c:	601a      	str	r2, [r3, #0]
     59e:	585a      	ldr	r2, [r3, r1]
     5a0:	48be      	ldr	r0, [pc, #760]	; (89c <init+0x324>)
     5a2:	2401      	movs	r4, #1
     5a4:	4002      	ands	r2, r0
     5a6:	505a      	str	r2, [r3, r1]
     5a8:	4bbd      	ldr	r3, [pc, #756]	; (8a0 <init+0x328>)
     5aa:	0019      	movs	r1, r3
     5ac:	3154      	adds	r1, #84	; 0x54
     5ae:	780a      	ldrb	r2, [r1, #0]
     5b0:	0018      	movs	r0, r3
     5b2:	43a2      	bics	r2, r4
     5b4:	700a      	strb	r2, [r1, #0]
     5b6:	2280      	movs	r2, #128	; 0x80
     5b8:	0352      	lsls	r2, r2, #13
     5ba:	609a      	str	r2, [r3, #8]
     5bc:	220f      	movs	r2, #15
     5be:	3033      	adds	r0, #51	; 0x33
     5c0:	7801      	ldrb	r1, [r0, #0]
     5c2:	001e      	movs	r6, r3
     5c4:	4391      	bics	r1, r2
     5c6:	4321      	orrs	r1, r4
     5c8:	7001      	strb	r1, [r0, #0]
     5ca:	7cc1      	ldrb	r1, [r0, #19]
     5cc:	36c3      	adds	r6, #195	; 0xc3
     5ce:	4321      	orrs	r1, r4
     5d0:	74c1      	strb	r1, [r0, #19]
     5d2:	0019      	movs	r1, r3
     5d4:	2010      	movs	r0, #16
     5d6:	31b1      	adds	r1, #177	; 0xb1
     5d8:	780d      	ldrb	r5, [r1, #0]
     5da:	001f      	movs	r7, r3
     5dc:	4015      	ands	r5, r2
     5de:	4305      	orrs	r5, r0
     5e0:	700d      	strb	r5, [r1, #0]
     5e2:	7835      	ldrb	r5, [r6, #0]
     5e4:	3788      	adds	r7, #136	; 0x88
     5e6:	4325      	orrs	r5, r4
     5e8:	7035      	strb	r5, [r6, #0]
     5ea:	780d      	ldrb	r5, [r1, #0]
     5ec:	4015      	ands	r5, r2
     5ee:	4305      	orrs	r5, r0
     5f0:	700d      	strb	r5, [r1, #0]
     5f2:	7835      	ldrb	r5, [r6, #0]
     5f4:	4325      	orrs	r5, r4
     5f6:	7035      	strb	r5, [r6, #0]
     5f8:	7d35      	ldrb	r5, [r6, #20]
     5fa:	43a5      	bics	r5, r4
     5fc:	7535      	strb	r5, [r6, #20]
     5fe:	2580      	movs	r5, #128	; 0x80
     600:	042d      	lsls	r5, r5, #16
     602:	9703      	str	r7, [sp, #12]
     604:	603d      	str	r5, [r7, #0]
     606:	60fd      	str	r5, [r7, #12]
     608:	780d      	ldrb	r5, [r1, #0]
     60a:	003e      	movs	r6, r7
     60c:	4395      	bics	r5, r2
     60e:	4325      	orrs	r5, r4
     610:	700d      	strb	r5, [r1, #0]
     612:	25c2      	movs	r5, #194	; 0xc2
     614:	46ac      	mov	ip, r5
     616:	449c      	add	ip, r3
     618:	4665      	mov	r5, ip
     61a:	4667      	mov	r7, ip
     61c:	782d      	ldrb	r5, [r5, #0]
     61e:	4325      	orrs	r5, r4
     620:	703d      	strb	r5, [r7, #0]
     622:	780d      	ldrb	r5, [r1, #0]
     624:	4395      	bics	r5, r2
     626:	4325      	orrs	r5, r4
     628:	700d      	strb	r5, [r1, #0]
     62a:	001d      	movs	r5, r3
     62c:	7839      	ldrb	r1, [r7, #0]
     62e:	35d6      	adds	r5, #214	; 0xd6
     630:	4321      	orrs	r1, r4
     632:	7039      	strb	r1, [r7, #0]
     634:	7829      	ldrb	r1, [r5, #0]
     636:	2702      	movs	r7, #2
     638:	43a1      	bics	r1, r4
     63a:	7029      	strb	r1, [r5, #0]
     63c:	2180      	movs	r1, #128	; 0x80
     63e:	9d03      	ldr	r5, [sp, #12]
     640:	03c9      	lsls	r1, r1, #15
     642:	6029      	str	r1, [r5, #0]
     644:	60f1      	str	r1, [r6, #12]
     646:	0019      	movs	r1, r3
     648:	3131      	adds	r1, #49	; 0x31
     64a:	780d      	ldrb	r5, [r1, #0]
     64c:	3e3f      	subs	r6, #63	; 0x3f
     64e:	4015      	ands	r5, r2
     650:	4328      	orrs	r0, r5
     652:	001d      	movs	r5, r3
     654:	7008      	strb	r0, [r1, #0]
     656:	3543      	adds	r5, #67	; 0x43
     658:	7828      	ldrb	r0, [r5, #0]
     65a:	46bc      	mov	ip, r7
     65c:	4320      	orrs	r0, r4
     65e:	7028      	strb	r0, [r5, #0]
     660:	7da8      	ldrb	r0, [r5, #22]
     662:	3505      	adds	r5, #5
     664:	43a0      	bics	r0, r4
     666:	7468      	strb	r0, [r5, #17]
     668:	2080      	movs	r0, #128	; 0x80
     66a:	0480      	lsls	r0, r0, #18
     66c:	6098      	str	r0, [r3, #8]
     66e:	6158      	str	r0, [r3, #20]
     670:	7808      	ldrb	r0, [r1, #0]
     672:	4390      	bics	r0, r2
     674:	4320      	orrs	r0, r4
     676:	7008      	strb	r0, [r1, #0]
     678:	0018      	movs	r0, r3
     67a:	3042      	adds	r0, #66	; 0x42
     67c:	7801      	ldrb	r1, [r0, #0]
     67e:	4321      	orrs	r1, r4
     680:	7001      	strb	r1, [r0, #0]
     682:	7d81      	ldrb	r1, [r0, #22]
     684:	43a1      	bics	r1, r4
     686:	7581      	strb	r1, [r0, #22]
     688:	2180      	movs	r1, #128	; 0x80
     68a:	0449      	lsls	r1, r1, #17
     68c:	6099      	str	r1, [r3, #8]
     68e:	6159      	str	r1, [r3, #20]
     690:	7829      	ldrb	r1, [r5, #0]
     692:	43a1      	bics	r1, r4
     694:	7029      	strb	r1, [r5, #0]
     696:	2180      	movs	r1, #128	; 0x80
     698:	0049      	lsls	r1, r1, #1
     69a:	6099      	str	r1, [r3, #8]
     69c:	7831      	ldrb	r1, [r6, #0]
     69e:	43a1      	bics	r1, r4
     6a0:	7031      	strb	r1, [r6, #0]
     6a2:	2180      	movs	r1, #128	; 0x80
     6a4:	0089      	lsls	r1, r1, #2
     6a6:	6099      	str	r1, [r3, #8]
     6a8:	0019      	movs	r1, r3
     6aa:	314b      	adds	r1, #75	; 0x4b
     6ac:	7808      	ldrb	r0, [r1, #0]
     6ae:	43a0      	bics	r0, r4
     6b0:	7008      	strb	r0, [r1, #0]
     6b2:	7808      	ldrb	r0, [r1, #0]
     6b4:	4338      	orrs	r0, r7
     6b6:	7008      	strb	r0, [r1, #0]
     6b8:	2080      	movs	r0, #128	; 0x80
     6ba:	0100      	lsls	r0, r0, #4
     6bc:	6058      	str	r0, [r3, #4]
     6be:	4879      	ldr	r0, [pc, #484]	; (8a4 <init+0x32c>)
     6c0:	371e      	adds	r7, #30
     6c2:	7800      	ldrb	r0, [r0, #0]
     6c4:	4010      	ands	r0, r2
     6c6:	4338      	orrs	r0, r7
     6c8:	4f76      	ldr	r7, [pc, #472]	; (8a4 <init+0x32c>)
     6ca:	7038      	strb	r0, [r7, #0]
     6cc:	7808      	ldrb	r0, [r1, #0]
     6ce:	2720      	movs	r7, #32
     6d0:	4320      	orrs	r0, r4
     6d2:	7008      	strb	r0, [r1, #0]
     6d4:	0018      	movs	r0, r3
     6d6:	3034      	adds	r0, #52	; 0x34
     6d8:	7801      	ldrb	r1, [r0, #0]
     6da:	4011      	ands	r1, r2
     6dc:	4339      	orrs	r1, r7
     6de:	7001      	strb	r1, [r0, #0]
     6e0:	7831      	ldrb	r1, [r6, #0]
     6e2:	4667      	mov	r7, ip
     6e4:	4321      	orrs	r1, r4
     6e6:	7031      	strb	r1, [r6, #0]
     6e8:	4666      	mov	r6, ip
     6ea:	7801      	ldrb	r1, [r0, #0]
     6ec:	4391      	bics	r1, r2
     6ee:	4331      	orrs	r1, r6
     6f0:	7001      	strb	r1, [r0, #0]
     6f2:	7829      	ldrb	r1, [r5, #0]
     6f4:	3096      	adds	r0, #150	; 0x96
     6f6:	4321      	orrs	r1, r4
     6f8:	7029      	strb	r1, [r5, #0]
     6fa:	7801      	ldrb	r1, [r0, #0]
     6fc:	001e      	movs	r6, r3
     6fe:	43a1      	bics	r1, r4
     700:	7001      	strb	r1, [r0, #0]
     702:	2180      	movs	r1, #128	; 0x80
     704:	9803      	ldr	r0, [sp, #12]
     706:	00c9      	lsls	r1, r1, #3
     708:	6001      	str	r1, [r0, #0]
     70a:	0018      	movs	r0, r3
     70c:	3098      	adds	r0, #152	; 0x98
     70e:	6001      	str	r1, [r0, #0]
     710:	78a8      	ldrb	r0, [r5, #2]
     712:	3651      	adds	r6, #81	; 0x51
     714:	43a0      	bics	r0, r4
     716:	70a8      	strb	r0, [r5, #2]
     718:	6099      	str	r1, [r3, #8]
     71a:	6199      	str	r1, [r3, #24]
     71c:	7a29      	ldrb	r1, [r5, #8]
     71e:	43a1      	bics	r1, r4
     720:	7229      	strb	r1, [r5, #8]
     722:	2180      	movs	r1, #128	; 0x80
     724:	0249      	lsls	r1, r1, #9
     726:	6099      	str	r1, [r3, #8]
     728:	7831      	ldrb	r1, [r6, #0]
     72a:	43a1      	bics	r1, r4
     72c:	7031      	strb	r1, [r6, #0]
     72e:	2180      	movs	r1, #128	; 0x80
     730:	0289      	lsls	r1, r1, #10
     732:	6099      	str	r1, [r3, #8]
     734:	0019      	movs	r1, r3
     736:	3153      	adds	r1, #83	; 0x53
     738:	7808      	ldrb	r0, [r1, #0]
     73a:	43a0      	bics	r0, r4
     73c:	7008      	strb	r0, [r1, #0]
     73e:	7808      	ldrb	r0, [r1, #0]
     740:	4338      	orrs	r0, r7
     742:	7008      	strb	r0, [r1, #0]
     744:	001f      	movs	r7, r3
     746:	2080      	movs	r0, #128	; 0x80
     748:	3739      	adds	r7, #57	; 0x39
     74a:	0300      	lsls	r0, r0, #12
     74c:	6058      	str	r0, [r3, #4]
     74e:	9703      	str	r7, [sp, #12]
     750:	7838      	ldrb	r0, [r7, #0]
     752:	2720      	movs	r7, #32
     754:	4010      	ands	r0, r2
     756:	4338      	orrs	r0, r7
     758:	9f03      	ldr	r7, [sp, #12]
     75a:	7038      	strb	r0, [r7, #0]
     75c:	7808      	ldrb	r0, [r1, #0]
     75e:	2720      	movs	r7, #32
     760:	4320      	orrs	r0, r4
     762:	7008      	strb	r0, [r1, #0]
     764:	0018      	movs	r0, r3
     766:	3038      	adds	r0, #56	; 0x38
     768:	7801      	ldrb	r1, [r0, #0]
     76a:	4011      	ands	r1, r2
     76c:	4339      	orrs	r1, r7
     76e:	7001      	strb	r1, [r0, #0]
     770:	7831      	ldrb	r1, [r6, #0]
     772:	4321      	orrs	r1, r4
     774:	7031      	strb	r1, [r6, #0]
     776:	4666      	mov	r6, ip
     778:	7801      	ldrb	r1, [r0, #0]
     77a:	4391      	bics	r1, r2
     77c:	4331      	orrs	r1, r6
     77e:	7001      	strb	r1, [r0, #0]
     780:	7a29      	ldrb	r1, [r5, #8]
     782:	3014      	adds	r0, #20
     784:	4321      	orrs	r1, r4
     786:	7229      	strb	r1, [r5, #8]
     788:	7981      	ldrb	r1, [r0, #6]
     78a:	001d      	movs	r5, r3
     78c:	43a1      	bics	r1, r4
     78e:	7181      	strb	r1, [r0, #6]
     790:	2180      	movs	r1, #128	; 0x80
     792:	02c9      	lsls	r1, r1, #11
     794:	6099      	str	r1, [r3, #8]
     796:	6199      	str	r1, [r3, #24]
     798:	7801      	ldrb	r1, [r0, #0]
     79a:	353b      	adds	r5, #59	; 0x3b
     79c:	43a1      	bics	r1, r4
     79e:	7001      	strb	r1, [r0, #0]
     7a0:	2180      	movs	r1, #128	; 0x80
     7a2:	0149      	lsls	r1, r1, #5
     7a4:	6099      	str	r1, [r3, #8]
     7a6:	7881      	ldrb	r1, [r0, #2]
     7a8:	43a1      	bics	r1, r4
     7aa:	7081      	strb	r1, [r0, #2]
     7ac:	2180      	movs	r1, #128	; 0x80
     7ae:	01c9      	lsls	r1, r1, #7
     7b0:	6099      	str	r1, [r3, #8]
     7b2:	0019      	movs	r1, r3
     7b4:	314d      	adds	r1, #77	; 0x4d
     7b6:	7808      	ldrb	r0, [r1, #0]
     7b8:	43a0      	bics	r0, r4
     7ba:	7008      	strb	r0, [r1, #0]
     7bc:	7808      	ldrb	r0, [r1, #0]
     7be:	4330      	orrs	r0, r6
     7c0:	7008      	strb	r0, [r1, #0]
     7c2:	2180      	movs	r1, #128	; 0x80
     7c4:	0018      	movs	r0, r3
     7c6:	0189      	lsls	r1, r1, #6
     7c8:	6059      	str	r1, [r3, #4]
     7ca:	304f      	adds	r0, #79	; 0x4f
     7cc:	7801      	ldrb	r1, [r0, #0]
     7ce:	43a1      	bics	r1, r4
     7d0:	7001      	strb	r1, [r0, #0]
     7d2:	2180      	movs	r1, #128	; 0x80
     7d4:	0209      	lsls	r1, r1, #8
     7d6:	6099      	str	r1, [r3, #8]
     7d8:	6199      	str	r1, [r3, #24]
     7da:	0019      	movs	r1, r3
     7dc:	3155      	adds	r1, #85	; 0x55
     7de:	7808      	ldrb	r0, [r1, #0]
     7e0:	43a0      	bics	r0, r4
     7e2:	7008      	strb	r0, [r1, #0]
     7e4:	2080      	movs	r0, #128	; 0x80
     7e6:	0380      	lsls	r0, r0, #14
     7e8:	6098      	str	r0, [r3, #8]
     7ea:	2040      	movs	r0, #64	; 0x40
     7ec:	7008      	strb	r0, [r1, #0]
     7ee:	7848      	ldrb	r0, [r1, #1]
     7f0:	43a0      	bics	r0, r4
     7f2:	7048      	strb	r0, [r1, #1]
     7f4:	2080      	movs	r0, #128	; 0x80
     7f6:	03c0      	lsls	r0, r0, #15
     7f8:	6098      	str	r0, [r3, #8]
     7fa:	7828      	ldrb	r0, [r5, #0]
     7fc:	4390      	bics	r0, r2
     7fe:	4330      	orrs	r0, r6
     800:	7028      	strb	r0, [r5, #0]
     802:	7848      	ldrb	r0, [r1, #1]
     804:	4320      	orrs	r0, r4
     806:	7048      	strb	r0, [r1, #1]
     808:	0018      	movs	r0, r3
     80a:	3057      	adds	r0, #87	; 0x57
     80c:	7801      	ldrb	r1, [r0, #0]
     80e:	43a1      	bics	r1, r4
     810:	7001      	strb	r1, [r0, #0]
     812:	7801      	ldrb	r1, [r0, #0]
     814:	4331      	orrs	r1, r6
     816:	7001      	strb	r1, [r0, #0]
     818:	2180      	movs	r1, #128	; 0x80
     81a:	0409      	lsls	r1, r1, #16
     81c:	6059      	str	r1, [r3, #4]
     81e:	782b      	ldrb	r3, [r5, #0]
     820:	4e21      	ldr	r6, [pc, #132]	; (8a8 <init+0x330>)
     822:	401a      	ands	r2, r3
     824:	433a      	orrs	r2, r7
     826:	702a      	strb	r2, [r5, #0]
     828:	2500      	movs	r5, #0
     82a:	7803      	ldrb	r3, [r0, #0]
     82c:	2204      	movs	r2, #4
     82e:	4323      	orrs	r3, r4
     830:	7003      	strb	r3, [r0, #0]
     832:	2103      	movs	r1, #3
     834:	2000      	movs	r0, #0
     836:	47b0      	blx	r6
     838:	002b      	movs	r3, r5
     83a:	002a      	movs	r2, r5
     83c:	0028      	movs	r0, r5
     83e:	4f1b      	ldr	r7, [pc, #108]	; (8ac <init+0x334>)
     840:	9501      	str	r5, [sp, #4]
     842:	9500      	str	r5, [sp, #0]
     844:	2103      	movs	r1, #3
     846:	47b8      	blx	r7
     848:	0020      	movs	r0, r4
     84a:	2204      	movs	r2, #4
     84c:	2103      	movs	r1, #3
     84e:	47b0      	blx	r6
     850:	002b      	movs	r3, r5
     852:	002a      	movs	r2, r5
     854:	0020      	movs	r0, r4
     856:	9501      	str	r5, [sp, #4]
     858:	9500      	str	r5, [sp, #0]
     85a:	2103      	movs	r1, #3
     85c:	47b8      	blx	r7
     85e:	2208      	movs	r2, #8
     860:	2104      	movs	r1, #4
     862:	2003      	movs	r0, #3
     864:	47b0      	blx	r6
     866:	0021      	movs	r1, r4
     868:	002a      	movs	r2, r5
     86a:	2003      	movs	r0, #3
     86c:	4b10      	ldr	r3, [pc, #64]	; (8b0 <init+0x338>)
     86e:	4c11      	ldr	r4, [pc, #68]	; (8b4 <init+0x33c>)
     870:	47a0      	blx	r4
     872:	4b11      	ldr	r3, [pc, #68]	; (8b8 <init+0x340>)
     874:	4798      	blx	r3
     876:	4b11      	ldr	r3, [pc, #68]	; (8bc <init+0x344>)
     878:	4798      	blx	r3
     87a:	b005      	add	sp, #20
     87c:	bdf0      	pop	{r4, r5, r6, r7, pc}
     87e:	46c0      	nop			; (mov r8, r8)
     880:	000001d5 	.word	0x000001d5
     884:	00000b81 	.word	0x00000b81
     888:	00000c15 	.word	0x00000c15
     88c:	00000d0d 	.word	0x00000d0d
     890:	000009e1 	.word	0x000009e1
     894:	00000ea9 	.word	0x00000ea9
     898:	e000e100 	.word	0xe000e100
     89c:	ff00ffff 	.word	0xff00ffff
     8a0:	41004400 	.word	0x41004400
     8a4:	41004435 	.word	0x41004435
     8a8:	00001431 	.word	0x00001431
     8ac:	00001491 	.word	0x00001491
     8b0:	0000f972 	.word	0x0000f972
     8b4:	000014f5 	.word	0x000014f5
     8b8:	00000dd9 	.word	0x00000dd9
     8bc:	00000e41 	.word	0x00000e41

000008c0 <main>:
     8c0:	b5f0      	push	{r4, r5, r6, r7, lr}
     8c2:	2500      	movs	r5, #0
     8c4:	4c2c      	ldr	r4, [pc, #176]	; (978 <main+0xb8>)
     8c6:	4b2d      	ldr	r3, [pc, #180]	; (97c <main+0xbc>)
     8c8:	44a5      	add	sp, r4
     8ca:	4798      	blx	r3
     8cc:	ac01      	add	r4, sp, #4
     8ce:	4b2c      	ldr	r3, [pc, #176]	; (980 <main+0xc0>)
     8d0:	a802      	add	r0, sp, #8
     8d2:	7025      	strb	r5, [r4, #0]
     8d4:	4798      	blx	r3
     8d6:	4b2b      	ldr	r3, [pc, #172]	; (984 <main+0xc4>)
     8d8:	4798      	blx	r3
     8da:	0020      	movs	r0, r4
     8dc:	4b2a      	ldr	r3, [pc, #168]	; (988 <main+0xc8>)
     8de:	4798      	blx	r3
     8e0:	2380      	movs	r3, #128	; 0x80
     8e2:	33ff      	adds	r3, #255	; 0xff
     8e4:	54e5      	strb	r5, [r4, r3]
     8e6:	3b7f      	subs	r3, #127	; 0x7f
     8e8:	67e3      	str	r3, [r4, #124]	; 0x7c
     8ea:	0028      	movs	r0, r5
     8ec:	4b27      	ldr	r3, [pc, #156]	; (98c <main+0xcc>)
     8ee:	4798      	blx	r3
     8f0:	2005      	movs	r0, #5
     8f2:	4b27      	ldr	r3, [pc, #156]	; (990 <main+0xd0>)
     8f4:	4798      	blx	r3
     8f6:	4b27      	ldr	r3, [pc, #156]	; (994 <main+0xd4>)
     8f8:	4798      	blx	r3
     8fa:	4e27      	ldr	r6, [pc, #156]	; (998 <main+0xd8>)
     8fc:	7833      	ldrb	r3, [r6, #0]
     8fe:	2b00      	cmp	r3, #0
     900:	d006      	beq.n	910 <main+0x50>
     902:	0020      	movs	r0, r4
     904:	4b20      	ldr	r3, [pc, #128]	; (988 <main+0xc8>)
     906:	4798      	blx	r3
     908:	0020      	movs	r0, r4
     90a:	4b24      	ldr	r3, [pc, #144]	; (99c <main+0xdc>)
     90c:	4798      	blx	r3
     90e:	7035      	strb	r5, [r6, #0]
     910:	4b23      	ldr	r3, [pc, #140]	; (9a0 <main+0xe0>)
     912:	781a      	ldrb	r2, [r3, #0]
     914:	2a00      	cmp	r2, #0
     916:	d0ee      	beq.n	8f6 <main+0x36>
     918:	701d      	strb	r5, [r3, #0]
     91a:	4b22      	ldr	r3, [pc, #136]	; (9a4 <main+0xe4>)
     91c:	5ce2      	ldrb	r2, [r4, r3]
     91e:	2a00      	cmp	r2, #0
     920:	d102      	bne.n	928 <main+0x68>
     922:	0020      	movs	r0, r4
     924:	4b20      	ldr	r3, [pc, #128]	; (9a8 <main+0xe8>)
     926:	e7e5      	b.n	8f4 <main+0x34>
     928:	54e5      	strb	r5, [r4, r3]
     92a:	2380      	movs	r3, #128	; 0x80
     92c:	4e1f      	ldr	r6, [pc, #124]	; (9ac <main+0xec>)
     92e:	035b      	lsls	r3, r3, #13
     930:	61f3      	str	r3, [r6, #28]
     932:	2050      	movs	r0, #80	; 0x50
     934:	4b16      	ldr	r3, [pc, #88]	; (990 <main+0xd0>)
     936:	4798      	blx	r3
     938:	2380      	movs	r3, #128	; 0x80
     93a:	035b      	lsls	r3, r3, #13
     93c:	61f3      	str	r3, [r6, #28]
     93e:	2154      	movs	r1, #84	; 0x54
     940:	4e1b      	ldr	r6, [pc, #108]	; (9b0 <main+0xf0>)
     942:	2003      	movs	r0, #3
     944:	47b0      	blx	r6
     946:	21fe      	movs	r1, #254	; 0xfe
     948:	2003      	movs	r0, #3
     94a:	47b0      	blx	r6
     94c:	2101      	movs	r1, #1
     94e:	2003      	movs	r0, #3
     950:	47b0      	blx	r6
     952:	2700      	movs	r7, #0
     954:	003b      	movs	r3, r7
     956:	3380      	adds	r3, #128	; 0x80
     958:	5ce1      	ldrb	r1, [r4, r3]
     95a:	2003      	movs	r0, #3
     95c:	3701      	adds	r7, #1
     95e:	47b0      	blx	r6
     960:	2fff      	cmp	r7, #255	; 0xff
     962:	d1f7      	bne.n	954 <main+0x94>
     964:	2700      	movs	r7, #0
     966:	003b      	movs	r3, r7
     968:	3380      	adds	r3, #128	; 0x80
     96a:	5ce1      	ldrb	r1, [r4, r3]
     96c:	2003      	movs	r0, #3
     96e:	3701      	adds	r7, #1
     970:	47b0      	blx	r6
     972:	2fff      	cmp	r7, #255	; 0xff
     974:	d1f7      	bne.n	966 <main+0xa6>
     976:	e7d4      	b.n	922 <main+0x62>
     978:	fffffd64 	.word	0xfffffd64
     97c:	00000579 	.word	0x00000579
     980:	000004ed 	.word	0x000004ed
     984:	000009b5 	.word	0x000009b5
     988:	000010ad 	.word	0x000010ad
     98c:	000001e5 	.word	0x000001e5
     990:	00000d59 	.word	0x00000d59
     994:	00000da1 	.word	0x00000da1
     998:	20000463 	.word	0x20000463
     99c:	00000f09 	.word	0x00000f09
     9a0:	20000461 	.word	0x20000461
     9a4:	0000027f 	.word	0x0000027f
     9a8:	00000fa5 	.word	0x00000fa5
     9ac:	41004400 	.word	0x41004400
     9b0:	00001551 	.word	0x00001551

000009b4 <IMUinit>:
     9b4:	b570      	push	{r4, r5, r6, lr}
     9b6:	4c08      	ldr	r4, [pc, #32]	; (9d8 <IMUinit+0x24>)
     9b8:	2580      	movs	r5, #128	; 0x80
     9ba:	0023      	movs	r3, r4
     9bc:	00ed      	lsls	r5, r5, #3
     9be:	3394      	adds	r3, #148	; 0x94
     9c0:	601d      	str	r5, [r3, #0]
     9c2:	4e06      	ldr	r6, [pc, #24]	; (9dc <IMUinit+0x28>)
     9c4:	210f      	movs	r1, #15
     9c6:	2000      	movs	r0, #0
     9c8:	47b0      	blx	r6
     9ca:	3498      	adds	r4, #152	; 0x98
     9cc:	210c      	movs	r1, #12
     9ce:	2000      	movs	r0, #0
     9d0:	47b0      	blx	r6
     9d2:	6025      	str	r5, [r4, #0]
     9d4:	bd70      	pop	{r4, r5, r6, pc}
     9d6:	46c0      	nop			; (mov r8, r8)
     9d8:	41004400 	.word	0x41004400
     9dc:	00001539 	.word	0x00001539

000009e0 <adcInit>:
     9e0:	2380      	movs	r3, #128	; 0x80
     9e2:	4a10      	ldr	r2, [pc, #64]	; (a24 <adcInit+0x44>)
     9e4:	025b      	lsls	r3, r3, #9
     9e6:	6a11      	ldr	r1, [r2, #32]
     9e8:	480f      	ldr	r0, [pc, #60]	; (a28 <adcInit+0x48>)
     9ea:	430b      	orrs	r3, r1
     9ec:	21e0      	movs	r1, #224	; 0xe0
     9ee:	6213      	str	r3, [r2, #32]
     9f0:	4b0e      	ldr	r3, [pc, #56]	; (a2c <adcInit+0x4c>)
     9f2:	4a0f      	ldr	r2, [pc, #60]	; (a30 <adcInit+0x50>)
     9f4:	00c9      	lsls	r1, r1, #3
     9f6:	8099      	strh	r1, [r3, #4]
     9f8:	8050      	strh	r0, [r2, #2]
     9fa:	4a0e      	ldr	r2, [pc, #56]	; (a34 <adcInit+0x54>)
     9fc:	6810      	ldr	r0, [r2, #0]
     9fe:	0142      	lsls	r2, r0, #5
     a00:	0010      	movs	r0, r2
     a02:	4011      	ands	r1, r2
     a04:	4a0c      	ldr	r2, [pc, #48]	; (a38 <adcInit+0x58>)
     a06:	6812      	ldr	r2, [r2, #0]
     a08:	0ed2      	lsrs	r2, r2, #27
     a0a:	4302      	orrs	r2, r0
     a0c:	b2d2      	uxtb	r2, r2
     a0e:	430a      	orrs	r2, r1
     a10:	851a      	strh	r2, [r3, #40]	; 0x28
     a12:	2202      	movs	r2, #2
     a14:	705a      	strb	r2, [r3, #1]
     a16:	701a      	strb	r2, [r3, #0]
     a18:	7e5a      	ldrb	r2, [r3, #25]
     a1a:	b252      	sxtb	r2, r2
     a1c:	2a00      	cmp	r2, #0
     a1e:	dbfb      	blt.n	a18 <adcInit+0x38>
     a20:	4770      	bx	lr
     a22:	46c0      	nop			; (mov r8, r8)
     a24:	40000400 	.word	0x40000400
     a28:	0000401e 	.word	0x0000401e
     a2c:	42004000 	.word	0x42004000
     a30:	40000c00 	.word	0x40000c00
     a34:	00806024 	.word	0x00806024
     a38:	00806020 	.word	0x00806020

00000a3c <adcSample>:
     a3c:	2202      	movs	r2, #2
     a3e:	4b04      	ldr	r3, [pc, #16]	; (a50 <adcSample+0x14>)
     a40:	731a      	strb	r2, [r3, #12]
     a42:	3a01      	subs	r2, #1
     a44:	7e19      	ldrb	r1, [r3, #24]
     a46:	4211      	tst	r1, r2
     a48:	d0fc      	beq.n	a44 <adcSample+0x8>
     a4a:	8b58      	ldrh	r0, [r3, #26]
     a4c:	b280      	uxth	r0, r0
     a4e:	4770      	bx	lr
     a50:	42004000 	.word	0x42004000

00000a54 <adc_read>:
     a54:	b537      	push	{r0, r1, r2, r4, r5, lr}
     a56:	9101      	str	r1, [sp, #4]
     a58:	2101      	movs	r1, #1
     a5a:	0c02      	lsrs	r2, r0, #16
     a5c:	9000      	str	r0, [sp, #0]
     a5e:	b2d2      	uxtb	r2, r2
     a60:	0e00      	lsrs	r0, r0, #24
     a62:	0843      	lsrs	r3, r0, #1
     a64:	01d2      	lsls	r2, r2, #7
     a66:	189b      	adds	r3, r3, r2
     a68:	4208      	tst	r0, r1
     a6a:	d01a      	beq.n	aa2 <adc_read+0x4e>
     a6c:	240f      	movs	r4, #15
     a6e:	4910      	ldr	r1, [pc, #64]	; (ab0 <adc_read+0x5c>)
     a70:	185b      	adds	r3, r3, r1
     a72:	7819      	ldrb	r1, [r3, #0]
     a74:	400c      	ands	r4, r1
     a76:	2110      	movs	r1, #16
     a78:	4321      	orrs	r1, r4
     a7a:	7019      	strb	r1, [r3, #0]
     a7c:	4b0d      	ldr	r3, [pc, #52]	; (ab4 <adc_read+0x60>)
     a7e:	1880      	adds	r0, r0, r2
     a80:	18c0      	adds	r0, r0, r3
     a82:	2301      	movs	r3, #1
     a84:	7802      	ldrb	r2, [r0, #0]
     a86:	4313      	orrs	r3, r2
     a88:	7003      	strb	r3, [r0, #0]
     a8a:	466b      	mov	r3, sp
     a8c:	221f      	movs	r2, #31
     a8e:	791b      	ldrb	r3, [r3, #4]
     a90:	401a      	ands	r2, r3
     a92:	23c0      	movs	r3, #192	; 0xc0
     a94:	015b      	lsls	r3, r3, #5
     a96:	4313      	orrs	r3, r2
     a98:	4a07      	ldr	r2, [pc, #28]	; (ab8 <adc_read+0x64>)
     a9a:	6113      	str	r3, [r2, #16]
     a9c:	4b07      	ldr	r3, [pc, #28]	; (abc <adc_read+0x68>)
     a9e:	4798      	blx	r3
     aa0:	bd3e      	pop	{r1, r2, r3, r4, r5, pc}
     aa2:	250f      	movs	r5, #15
     aa4:	4c02      	ldr	r4, [pc, #8]	; (ab0 <adc_read+0x5c>)
     aa6:	191b      	adds	r3, r3, r4
     aa8:	781c      	ldrb	r4, [r3, #0]
     aaa:	43ac      	bics	r4, r5
     aac:	e7e4      	b.n	a78 <adc_read+0x24>
     aae:	46c0      	nop			; (mov r8, r8)
     ab0:	41004430 	.word	0x41004430
     ab4:	41004440 	.word	0x41004440
     ab8:	42004000 	.word	0x42004000
     abc:	00000a3d 	.word	0x00000a3d

00000ac0 <byteOut>:
     ac0:	0c01      	lsrs	r1, r0, #16
     ac2:	0c13      	lsrs	r3, r2, #16
     ac4:	b5f0      	push	{r4, r5, r6, r7, lr}
     ac6:	b2cd      	uxtb	r5, r1
     ac8:	b2d9      	uxtb	r1, r3
     aca:	2301      	movs	r3, #1
     acc:	001e      	movs	r6, r3
     ace:	0e12      	lsrs	r2, r2, #24
     ad0:	4093      	lsls	r3, r2
     ad2:	0e00      	lsrs	r0, r0, #24
     ad4:	4086      	lsls	r6, r0
     ad6:	001a      	movs	r2, r3
     ad8:	2308      	movs	r3, #8
     ada:	0030      	movs	r0, r6
     adc:	4e11      	ldr	r6, [pc, #68]	; (b24 <byteOut+0x64>)
     ade:	01c9      	lsls	r1, r1, #7
     ae0:	b087      	sub	sp, #28
     ae2:	198f      	adds	r7, r1, r6
     ae4:	4e10      	ldr	r6, [pc, #64]	; (b28 <byteOut+0x68>)
     ae6:	ac0c      	add	r4, sp, #48	; 0x30
     ae8:	01ed      	lsls	r5, r5, #7
     aea:	19ae      	adds	r6, r5, r6
     aec:	7824      	ldrb	r4, [r4, #0]
     aee:	9601      	str	r6, [sp, #4]
     af0:	4e0c      	ldr	r6, [pc, #48]	; (b24 <byteOut+0x64>)
     af2:	46b4      	mov	ip, r6
     af4:	44ac      	add	ip, r5
     af6:	4666      	mov	r6, ip
     af8:	6030      	str	r0, [r6, #0]
     afa:	b266      	sxtb	r6, r4
     afc:	2e00      	cmp	r6, #0
     afe:	da0e      	bge.n	b1e <byteOut+0x5e>
     b00:	4e09      	ldr	r6, [pc, #36]	; (b28 <byteOut+0x68>)
     b02:	46b4      	mov	ip, r6
     b04:	448c      	add	ip, r1
     b06:	4666      	mov	r6, ip
     b08:	6032      	str	r2, [r6, #0]
     b0a:	9e01      	ldr	r6, [sp, #4]
     b0c:	3b01      	subs	r3, #1
     b0e:	0064      	lsls	r4, r4, #1
     b10:	b2db      	uxtb	r3, r3
     b12:	6030      	str	r0, [r6, #0]
     b14:	b2e4      	uxtb	r4, r4
     b16:	2b00      	cmp	r3, #0
     b18:	d1ea      	bne.n	af0 <byteOut+0x30>
     b1a:	b007      	add	sp, #28
     b1c:	bdf0      	pop	{r4, r5, r6, r7, pc}
     b1e:	603a      	str	r2, [r7, #0]
     b20:	e7f3      	b.n	b0a <byteOut+0x4a>
     b22:	46c0      	nop			; (mov r8, r8)
     b24:	41004414 	.word	0x41004414
     b28:	41004418 	.word	0x41004418

00000b2c <byteIn>:
     b2c:	b5f0      	push	{r4, r5, r6, r7, lr}
     b2e:	2501      	movs	r5, #1
     b30:	b085      	sub	sp, #20
     b32:	0c06      	lsrs	r6, r0, #16
     b34:	9301      	str	r3, [sp, #4]
     b36:	b2f3      	uxtb	r3, r6
     b38:	002e      	movs	r6, r5
     b3a:	9103      	str	r1, [sp, #12]
     b3c:	0011      	movs	r1, r2
     b3e:	0c14      	lsrs	r4, r2, #16
     b40:	9200      	str	r2, [sp, #0]
     b42:	0e02      	lsrs	r2, r0, #24
     b44:	9002      	str	r0, [sp, #8]
     b46:	4096      	lsls	r6, r2
     b48:	2000      	movs	r0, #0
     b4a:	b2e2      	uxtb	r2, r4
     b4c:	2408      	movs	r4, #8
     b4e:	0e09      	lsrs	r1, r1, #24
     b50:	408d      	lsls	r5, r1
     b52:	490a      	ldr	r1, [pc, #40]	; (b7c <byteIn+0x50>)
     b54:	01db      	lsls	r3, r3, #7
     b56:	01d2      	lsls	r2, r2, #7
     b58:	185b      	adds	r3, r3, r1
     b5a:	1852      	adds	r2, r2, r1
     b5c:	615e      	str	r6, [r3, #20]
     b5e:	6a11      	ldr	r1, [r2, #32]
     b60:	0040      	lsls	r0, r0, #1
     b62:	4029      	ands	r1, r5
     b64:	1e4f      	subs	r7, r1, #1
     b66:	41b9      	sbcs	r1, r7
     b68:	3c01      	subs	r4, #1
     b6a:	4308      	orrs	r0, r1
     b6c:	b2e4      	uxtb	r4, r4
     b6e:	b2c0      	uxtb	r0, r0
     b70:	619e      	str	r6, [r3, #24]
     b72:	2c00      	cmp	r4, #0
     b74:	d1f2      	bne.n	b5c <byteIn+0x30>
     b76:	b005      	add	sp, #20
     b78:	bdf0      	pop	{r4, r5, r6, r7, pc}
     b7a:	46c0      	nop			; (mov r8, r8)
     b7c:	41004400 	.word	0x41004400

00000b80 <GclkInit>:
     b80:	22c2      	movs	r2, #194	; 0xc2
     b82:	4b19      	ldr	r3, [pc, #100]	; (be8 <GclkInit+0x68>)
     b84:	00d2      	lsls	r2, r2, #3
     b86:	b510      	push	{r4, lr}
     b88:	609a      	str	r2, [r3, #8]
     b8a:	2202      	movs	r2, #2
     b8c:	4817      	ldr	r0, [pc, #92]	; (bec <GclkInit+0x6c>)
     b8e:	6841      	ldr	r1, [r0, #4]
     b90:	4311      	orrs	r1, r2
     b92:	6041      	str	r1, [r0, #4]
     b94:	4916      	ldr	r1, [pc, #88]	; (bf0 <GclkInit+0x70>)
     b96:	8299      	strh	r1, [r3, #20]
     b98:	68d9      	ldr	r1, [r3, #12]
     b9a:	4211      	tst	r1, r2
     b9c:	d0fc      	beq.n	b98 <GclkInit+0x18>
     b9e:	4a15      	ldr	r2, [pc, #84]	; (bf4 <GclkInit+0x74>)
     ba0:	6812      	ldr	r2, [r2, #0]
     ba2:	0e92      	lsrs	r2, r2, #26
     ba4:	2a3f      	cmp	r2, #63	; 0x3f
     ba6:	d100      	bne.n	baa <GclkInit+0x2a>
     ba8:	3a20      	subs	r2, #32
     baa:	4913      	ldr	r1, [pc, #76]	; (bf8 <GclkInit+0x78>)
     bac:	4813      	ldr	r0, [pc, #76]	; (bfc <GclkInit+0x7c>)
     bae:	6809      	ldr	r1, [r1, #0]
     bb0:	0589      	lsls	r1, r1, #22
     bb2:	0d89      	lsrs	r1, r1, #22
     bb4:	4281      	cmp	r1, r0
     bb6:	d100      	bne.n	bba <GclkInit+0x3a>
     bb8:	4911      	ldr	r1, [pc, #68]	; (c00 <GclkInit+0x80>)
     bba:	4812      	ldr	r0, [pc, #72]	; (c04 <GclkInit+0x84>)
     bbc:	8498      	strh	r0, [r3, #36]	; 0x24
     bbe:	2010      	movs	r0, #16
     bc0:	68dc      	ldr	r4, [r3, #12]
     bc2:	4204      	tst	r4, r0
     bc4:	d0fc      	beq.n	bc0 <GclkInit+0x40>
     bc6:	0292      	lsls	r2, r2, #10
     bc8:	430a      	orrs	r2, r1
     bca:	629a      	str	r2, [r3, #40]	; 0x28
     bcc:	2210      	movs	r2, #16
     bce:	68d9      	ldr	r1, [r3, #12]
     bd0:	4211      	tst	r1, r2
     bd2:	d0fc      	beq.n	bce <GclkInit+0x4e>
     bd4:	4a0c      	ldr	r2, [pc, #48]	; (c08 <GclkInit+0x88>)
     bd6:	849a      	strh	r2, [r3, #36]	; 0x24
     bd8:	2280      	movs	r2, #128	; 0x80
     bda:	4b0c      	ldr	r3, [pc, #48]	; (c0c <GclkInit+0x8c>)
     bdc:	0052      	lsls	r2, r2, #1
     bde:	609a      	str	r2, [r3, #8]
     be0:	4a0b      	ldr	r2, [pc, #44]	; (c10 <GclkInit+0x90>)
     be2:	605a      	str	r2, [r3, #4]
     be4:	bd10      	pop	{r4, pc}
     be6:	46c0      	nop			; (mov r8, r8)
     be8:	40000800 	.word	0x40000800
     bec:	41004000 	.word	0x41004000
     bf0:	0000060e 	.word	0x0000060e
     bf4:	00806024 	.word	0x00806024
     bf8:	00806028 	.word	0x00806028
     bfc:	000003ff 	.word	0x000003ff
     c00:	000001ff 	.word	0x000001ff
     c04:	00000522 	.word	0x00000522
     c08:	000005a2 	.word	0x000005a2
     c0c:	40000c00 	.word	0x40000c00
     c10:	00010700 	.word	0x00010700

00000c14 <RtcInit>:
     c14:	4b25      	ldr	r3, [pc, #148]	; (cac <RtcInit+0x98>)
     c16:	4a26      	ldr	r2, [pc, #152]	; (cb0 <RtcInit+0x9c>)
     c18:	b510      	push	{r4, lr}
     c1a:	619a      	str	r2, [r3, #24]
     c1c:	4a25      	ldr	r2, [pc, #148]	; (cb4 <RtcInit+0xa0>)
     c1e:	6998      	ldr	r0, [r3, #24]
     c20:	6812      	ldr	r2, [r2, #0]
     c22:	4c25      	ldr	r4, [pc, #148]	; (cb8 <RtcInit+0xa4>)
     c24:	04d2      	lsls	r2, r2, #19
     c26:	0e52      	lsrs	r2, r2, #25
     c28:	0412      	lsls	r2, r2, #16
     c2a:	4924      	ldr	r1, [pc, #144]	; (cbc <RtcInit+0xa8>)
     c2c:	4020      	ands	r0, r4
     c2e:	4310      	orrs	r0, r2
     c30:	6198      	str	r0, [r3, #24]
     c32:	6199      	str	r1, [r3, #24]
     c34:	6999      	ldr	r1, [r3, #24]
     c36:	4021      	ands	r1, r4
     c38:	430a      	orrs	r2, r1
     c3a:	619a      	str	r2, [r3, #24]
     c3c:	2202      	movs	r2, #2
     c3e:	6999      	ldr	r1, [r3, #24]
     c40:	430a      	orrs	r2, r1
     c42:	619a      	str	r2, [r3, #24]
     c44:	2204      	movs	r2, #4
     c46:	68d9      	ldr	r1, [r3, #12]
     c48:	4211      	tst	r1, r2
     c4a:	d0fc      	beq.n	c46 <RtcInit+0x32>
     c4c:	2281      	movs	r2, #129	; 0x81
     c4e:	4b1c      	ldr	r3, [pc, #112]	; (cc0 <RtcInit+0xac>)
     c50:	0052      	lsls	r2, r2, #1
     c52:	609a      	str	r2, [r3, #8]
     c54:	4a1b      	ldr	r2, [pc, #108]	; (cc4 <RtcInit+0xb0>)
     c56:	605a      	str	r2, [r3, #4]
     c58:	785a      	ldrb	r2, [r3, #1]
     c5a:	b252      	sxtb	r2, r2
     c5c:	2a00      	cmp	r2, #0
     c5e:	dbfb      	blt.n	c58 <RtcInit+0x44>
     c60:	4a19      	ldr	r2, [pc, #100]	; (cc8 <RtcInit+0xb4>)
     c62:	805a      	strh	r2, [r3, #2]
     c64:	2204      	movs	r2, #4
     c66:	4b19      	ldr	r3, [pc, #100]	; (ccc <RtcInit+0xb8>)
     c68:	801a      	strh	r2, [r3, #0]
     c6a:	7a9a      	ldrb	r2, [r3, #10]
     c6c:	09d2      	lsrs	r2, r2, #7
     c6e:	d1fc      	bne.n	c6a <RtcInit+0x56>
     c70:	22a0      	movs	r2, #160	; 0xa0
     c72:	8819      	ldrh	r1, [r3, #0]
     c74:	00d2      	lsls	r2, r2, #3
     c76:	430a      	orrs	r2, r1
     c78:	801a      	strh	r2, [r3, #0]
     c7a:	7a9a      	ldrb	r2, [r3, #10]
     c7c:	09d2      	lsrs	r2, r2, #7
     c7e:	d1fc      	bne.n	c7a <RtcInit+0x66>
     c80:	4a13      	ldr	r2, [pc, #76]	; (cd0 <RtcInit+0xbc>)
     c82:	829a      	strh	r2, [r3, #20]
     c84:	7a9a      	ldrb	r2, [r3, #10]
     c86:	09d2      	lsrs	r2, r2, #7
     c88:	d1fc      	bne.n	c84 <RtcInit+0x70>
     c8a:	8859      	ldrh	r1, [r3, #2]
     c8c:	4a11      	ldr	r2, [pc, #68]	; (cd4 <RtcInit+0xc0>)
     c8e:	430a      	orrs	r2, r1
     c90:	805a      	strh	r2, [r3, #2]
     c92:	2280      	movs	r2, #128	; 0x80
     c94:	71da      	strb	r2, [r3, #7]
     c96:	8819      	ldrh	r1, [r3, #0]
     c98:	3a7e      	subs	r2, #126	; 0x7e
     c9a:	430a      	orrs	r2, r1
     c9c:	801a      	strh	r2, [r3, #0]
     c9e:	7a9a      	ldrb	r2, [r3, #10]
     ca0:	09d2      	lsrs	r2, r2, #7
     ca2:	d1fc      	bne.n	c9e <RtcInit+0x8a>
     ca4:	4b0c      	ldr	r3, [pc, #48]	; (cd8 <RtcInit+0xc4>)
     ca6:	3208      	adds	r2, #8
     ca8:	601a      	str	r2, [r3, #0]
     caa:	bd10      	pop	{r4, pc}
     cac:	40000800 	.word	0x40000800
     cb0:	00000606 	.word	0x00000606
     cb4:	00806024 	.word	0x00806024
     cb8:	ff80ffff 	.word	0xff80ffff
     cbc:	00000604 	.word	0x00000604
     cc0:	40000c00 	.word	0x40000c00
     cc4:	00230002 	.word	0x00230002
     cc8:	00004204 	.word	0x00004204
     ccc:	40001400 	.word	0x40001400
     cd0:	000003e6 	.word	0x000003e6
     cd4:	00004010 	.word	0x00004010
     cd8:	e000e100 	.word	0xe000e100

00000cdc <gclkEnable>:
     cdc:	230f      	movs	r3, #15
     cde:	4003      	ands	r3, r0
     ce0:	4808      	ldr	r0, [pc, #32]	; (d04 <gclkEnable+0x28>)
     ce2:	0212      	lsls	r2, r2, #8
     ce4:	4002      	ands	r2, r0
     ce6:	20f8      	movs	r0, #248	; 0xf8
     ce8:	0209      	lsls	r1, r1, #8
     cea:	0140      	lsls	r0, r0, #5
     cec:	4001      	ands	r1, r0
     cee:	2080      	movs	r0, #128	; 0x80
     cf0:	b510      	push	{r4, lr}
     cf2:	0240      	lsls	r0, r0, #9
     cf4:	4c04      	ldr	r4, [pc, #16]	; (d08 <gclkEnable+0x2c>)
     cf6:	4308      	orrs	r0, r1
     cf8:	431a      	orrs	r2, r3
     cfa:	4318      	orrs	r0, r3
     cfc:	60a2      	str	r2, [r4, #8]
     cfe:	6060      	str	r0, [r4, #4]
     d00:	bd10      	pop	{r4, pc}
     d02:	46c0      	nop			; (mov r8, r8)
     d04:	00ffff00 	.word	0x00ffff00
     d08:	40000c00 	.word	0x40000c00

00000d0c <delayInit>:
     d0c:	4b04      	ldr	r3, [pc, #16]	; (d20 <delayInit+0x14>)
     d0e:	4a05      	ldr	r2, [pc, #20]	; (d24 <delayInit+0x18>)
     d10:	601a      	str	r2, [r3, #0]
     d12:	2230      	movs	r2, #48	; 0x30
     d14:	605a      	str	r2, [r3, #4]
     d16:	4b04      	ldr	r3, [pc, #16]	; (d28 <delayInit+0x1c>)
     d18:	3a2b      	subs	r2, #43	; 0x2b
     d1a:	601a      	str	r2, [r3, #0]
     d1c:	4770      	bx	lr
     d1e:	46c0      	nop			; (mov r8, r8)
     d20:	20000004 	.word	0x20000004
     d24:	0000bb80 	.word	0x0000bb80
     d28:	e000e010 	.word	0xe000e010

00000d2c <delay_us>:
     d2c:	b530      	push	{r4, r5, lr}
     d2e:	2480      	movs	r4, #128	; 0x80
     d30:	2100      	movs	r1, #0
     d32:	4b07      	ldr	r3, [pc, #28]	; (d50 <delay_us+0x24>)
     d34:	0264      	lsls	r4, r4, #9
     d36:	685a      	ldr	r2, [r3, #4]
     d38:	4b06      	ldr	r3, [pc, #24]	; (d54 <delay_us+0x28>)
     d3a:	3801      	subs	r0, #1
     d3c:	d200      	bcs.n	d40 <delay_us+0x14>
     d3e:	bd30      	pop	{r4, r5, pc}
     d40:	2a00      	cmp	r2, #0
     d42:	d0fa      	beq.n	d3a <delay_us+0xe>
     d44:	605a      	str	r2, [r3, #4]
     d46:	6099      	str	r1, [r3, #8]
     d48:	681d      	ldr	r5, [r3, #0]
     d4a:	4225      	tst	r5, r4
     d4c:	d0fc      	beq.n	d48 <delay_us+0x1c>
     d4e:	e7f4      	b.n	d3a <delay_us+0xe>
     d50:	20000004 	.word	0x20000004
     d54:	e000e010 	.word	0xe000e010

00000d58 <delay_ms>:
     d58:	b530      	push	{r4, r5, lr}
     d5a:	2480      	movs	r4, #128	; 0x80
     d5c:	2100      	movs	r1, #0
     d5e:	4b07      	ldr	r3, [pc, #28]	; (d7c <delay_ms+0x24>)
     d60:	0264      	lsls	r4, r4, #9
     d62:	681a      	ldr	r2, [r3, #0]
     d64:	4b06      	ldr	r3, [pc, #24]	; (d80 <delay_ms+0x28>)
     d66:	3801      	subs	r0, #1
     d68:	d200      	bcs.n	d6c <delay_ms+0x14>
     d6a:	bd30      	pop	{r4, r5, pc}
     d6c:	2a00      	cmp	r2, #0
     d6e:	d0fa      	beq.n	d66 <delay_ms+0xe>
     d70:	605a      	str	r2, [r3, #4]
     d72:	6099      	str	r1, [r3, #8]
     d74:	681d      	ldr	r5, [r3, #0]
     d76:	4225      	tst	r5, r4
     d78:	d0fc      	beq.n	d74 <delay_ms+0x1c>
     d7a:	e7f4      	b.n	d66 <delay_ms+0xe>
     d7c:	20000004 	.word	0x20000004
     d80:	e000e010 	.word	0xe000e010

00000d84 <RTC_Handler>:
     d84:	21fa      	movs	r1, #250	; 0xfa
     d86:	4a04      	ldr	r2, [pc, #16]	; (d98 <RTC_Handler+0x14>)
     d88:	0089      	lsls	r1, r1, #2
     d8a:	6813      	ldr	r3, [r2, #0]
     d8c:	185b      	adds	r3, r3, r1
     d8e:	6013      	str	r3, [r2, #0]
     d90:	22ff      	movs	r2, #255	; 0xff
     d92:	4b02      	ldr	r3, [pc, #8]	; (d9c <RTC_Handler+0x18>)
     d94:	721a      	strb	r2, [r3, #8]
     d96:	4770      	bx	lr
     d98:	2000045c 	.word	0x2000045c
     d9c:	40001400 	.word	0x40001400

00000da0 <millis>:
     da0:	b530      	push	{r4, r5, lr}
     da2:	f3ef 8110 	mrs	r1, PRIMASK
     da6:	b672      	cpsid	i
     da8:	4b09      	ldr	r3, [pc, #36]	; (dd0 <millis+0x30>)
     daa:	4c0a      	ldr	r4, [pc, #40]	; (dd4 <millis+0x34>)
     dac:	8a18      	ldrh	r0, [r3, #16]
     dae:	6825      	ldr	r5, [r4, #0]
     db0:	7a1a      	ldrb	r2, [r3, #8]
     db2:	b280      	uxth	r0, r0
     db4:	09d2      	lsrs	r2, r2, #7
     db6:	1940      	adds	r0, r0, r5
     db8:	2a00      	cmp	r2, #0
     dba:	d005      	beq.n	dc8 <millis+0x28>
     dbc:	22fa      	movs	r2, #250	; 0xfa
     dbe:	8a1b      	ldrh	r3, [r3, #16]
     dc0:	6820      	ldr	r0, [r4, #0]
     dc2:	0092      	lsls	r2, r2, #2
     dc4:	1880      	adds	r0, r0, r2
     dc6:	18c0      	adds	r0, r0, r3
     dc8:	f381 8810 	msr	PRIMASK, r1
     dcc:	bd30      	pop	{r4, r5, pc}
     dce:	46c0      	nop			; (mov r8, r8)
     dd0:	40001400 	.word	0x40001400
     dd4:	2000045c 	.word	0x2000045c

00000dd8 <TC4Init>:
     dd8:	4a0d      	ldr	r2, [pc, #52]	; (e10 <TC4Init+0x38>)
     dda:	4b0e      	ldr	r3, [pc, #56]	; (e14 <TC4Init+0x3c>)
     ddc:	805a      	strh	r2, [r3, #2]
     dde:	2380      	movs	r3, #128	; 0x80
     de0:	4a0d      	ldr	r2, [pc, #52]	; (e18 <TC4Init+0x40>)
     de2:	015b      	lsls	r3, r3, #5
     de4:	6a11      	ldr	r1, [r2, #32]
     de6:	430b      	orrs	r3, r1
     de8:	6213      	str	r3, [r2, #32]
     dea:	4b0c      	ldr	r3, [pc, #48]	; (e1c <TC4Init+0x44>)
     dec:	4a0c      	ldr	r2, [pc, #48]	; (e20 <TC4Init+0x48>)
     dee:	801a      	strh	r2, [r3, #0]
     df0:	2241      	movs	r2, #65	; 0x41
     df2:	751a      	strb	r2, [r3, #20]
     df4:	3a40      	subs	r2, #64	; 0x40
     df6:	735a      	strb	r2, [r3, #13]
     df8:	32ff      	adds	r2, #255	; 0xff
     dfa:	815a      	strh	r2, [r3, #10]
     dfc:	8819      	ldrh	r1, [r3, #0]
     dfe:	3afe      	subs	r2, #254	; 0xfe
     e00:	430a      	orrs	r2, r1
     e02:	801a      	strh	r2, [r3, #0]
     e04:	2280      	movs	r2, #128	; 0x80
     e06:	4b07      	ldr	r3, [pc, #28]	; (e24 <TC4Init+0x4c>)
     e08:	0312      	lsls	r2, r2, #12
     e0a:	601a      	str	r2, [r3, #0]
     e0c:	4770      	bx	lr
     e0e:	46c0      	nop			; (mov r8, r8)
     e10:	0000421c 	.word	0x0000421c
     e14:	40000c00 	.word	0x40000c00
     e18:	40000400 	.word	0x40000400
     e1c:	42003000 	.word	0x42003000
     e20:	00000904 	.word	0x00000904
     e24:	e000e100 	.word	0xe000e100

00000e28 <TC4_Handler>:
     e28:	22ff      	movs	r2, #255	; 0xff
     e2a:	4b03      	ldr	r3, [pc, #12]	; (e38 <TC4_Handler+0x10>)
     e2c:	739a      	strb	r2, [r3, #14]
     e2e:	4b03      	ldr	r3, [pc, #12]	; (e3c <TC4_Handler+0x14>)
     e30:	3afe      	subs	r2, #254	; 0xfe
     e32:	701a      	strb	r2, [r3, #0]
     e34:	4770      	bx	lr
     e36:	46c0      	nop			; (mov r8, r8)
     e38:	42003000 	.word	0x42003000
     e3c:	20000463 	.word	0x20000463

00000e40 <TC5Init>:
     e40:	4a0d      	ldr	r2, [pc, #52]	; (e78 <TC5Init+0x38>)
     e42:	4b0e      	ldr	r3, [pc, #56]	; (e7c <TC5Init+0x3c>)
     e44:	805a      	strh	r2, [r3, #2]
     e46:	2380      	movs	r3, #128	; 0x80
     e48:	4a0d      	ldr	r2, [pc, #52]	; (e80 <TC5Init+0x40>)
     e4a:	019b      	lsls	r3, r3, #6
     e4c:	6a11      	ldr	r1, [r2, #32]
     e4e:	430b      	orrs	r3, r1
     e50:	6213      	str	r3, [r2, #32]
     e52:	4b0c      	ldr	r3, [pc, #48]	; (e84 <TC5Init+0x44>)
     e54:	4a0c      	ldr	r2, [pc, #48]	; (e88 <TC5Init+0x48>)
     e56:	801a      	strh	r2, [r3, #0]
     e58:	2220      	movs	r2, #32
     e5a:	751a      	strb	r2, [r3, #20]
     e5c:	3a1f      	subs	r2, #31
     e5e:	735a      	strb	r2, [r3, #13]
     e60:	32ff      	adds	r2, #255	; 0xff
     e62:	815a      	strh	r2, [r3, #10]
     e64:	8819      	ldrh	r1, [r3, #0]
     e66:	3afe      	subs	r2, #254	; 0xfe
     e68:	430a      	orrs	r2, r1
     e6a:	801a      	strh	r2, [r3, #0]
     e6c:	2280      	movs	r2, #128	; 0x80
     e6e:	4b07      	ldr	r3, [pc, #28]	; (e8c <TC5Init+0x4c>)
     e70:	0352      	lsls	r2, r2, #13
     e72:	601a      	str	r2, [r3, #0]
     e74:	4770      	bx	lr
     e76:	46c0      	nop			; (mov r8, r8)
     e78:	0000421c 	.word	0x0000421c
     e7c:	40000c00 	.word	0x40000c00
     e80:	40000400 	.word	0x40000400
     e84:	42003400 	.word	0x42003400
     e88:	00000e04 	.word	0x00000e04
     e8c:	e000e100 	.word	0xe000e100

00000e90 <TC5_Handler>:
     e90:	22ff      	movs	r2, #255	; 0xff
     e92:	4b03      	ldr	r3, [pc, #12]	; (ea0 <TC5_Handler+0x10>)
     e94:	739a      	strb	r2, [r3, #14]
     e96:	4b03      	ldr	r3, [pc, #12]	; (ea4 <TC5_Handler+0x14>)
     e98:	3afe      	subs	r2, #254	; 0xfe
     e9a:	701a      	strb	r2, [r3, #0]
     e9c:	4770      	bx	lr
     e9e:	46c0      	nop			; (mov r8, r8)
     ea0:	42003400 	.word	0x42003400
     ea4:	20000461 	.word	0x20000461

00000ea8 <dmaInit>:
     ea8:	b5f8      	push	{r3, r4, r5, r6, r7, lr}
     eaa:	27c0      	movs	r7, #192	; 0xc0
     eac:	4d10      	ldr	r5, [pc, #64]	; (ef0 <dmaInit+0x48>)
     eae:	003a      	movs	r2, r7
     eb0:	4e10      	ldr	r6, [pc, #64]	; (ef4 <dmaInit+0x4c>)
     eb2:	0028      	movs	r0, r5
     eb4:	2100      	movs	r1, #0
     eb6:	47b0      	blx	r6
     eb8:	4c0f      	ldr	r4, [pc, #60]	; (ef8 <dmaInit+0x50>)
     eba:	003a      	movs	r2, r7
     ebc:	2100      	movs	r1, #0
     ebe:	0020      	movs	r0, r4
     ec0:	47b0      	blx	r6
     ec2:	2220      	movs	r2, #32
     ec4:	4b0d      	ldr	r3, [pc, #52]	; (efc <dmaInit+0x54>)
     ec6:	6959      	ldr	r1, [r3, #20]
     ec8:	430a      	orrs	r2, r1
     eca:	615a      	str	r2, [r3, #20]
     ecc:	2210      	movs	r2, #16
     ece:	69d9      	ldr	r1, [r3, #28]
     ed0:	430a      	orrs	r2, r1
     ed2:	2102      	movs	r1, #2
     ed4:	61da      	str	r2, [r3, #28]
     ed6:	4b0a      	ldr	r3, [pc, #40]	; (f00 <dmaInit+0x58>)
     ed8:	881a      	ldrh	r2, [r3, #0]
     eda:	438a      	bics	r2, r1
     edc:	801a      	strh	r2, [r3, #0]
     ede:	2201      	movs	r2, #1
     ee0:	8819      	ldrh	r1, [r3, #0]
     ee2:	430a      	orrs	r2, r1
     ee4:	801a      	strh	r2, [r3, #0]
     ee6:	4a07      	ldr	r2, [pc, #28]	; (f04 <dmaInit+0x5c>)
     ee8:	635d      	str	r5, [r3, #52]	; 0x34
     eea:	639c      	str	r4, [r3, #56]	; 0x38
     eec:	801a      	strh	r2, [r3, #0]
     eee:	bdf8      	pop	{r3, r4, r5, r6, r7, pc}
     ef0:	20000530 	.word	0x20000530
     ef4:	0000240d 	.word	0x0000240d
     ef8:	20000470 	.word	0x20000470
     efc:	40000400 	.word	0x40000400
     f00:	41004800 	.word	0x41004800
     f04:	00000f02 	.word	0x00000f02

00000f08 <flight>:
     f08:	7803      	ldrb	r3, [r0, #0]
     f0a:	b5f7      	push	{r0, r1, r2, r4, r5, r6, r7, lr}
     f0c:	0004      	movs	r4, r0
     f0e:	2b00      	cmp	r3, #0
     f10:	d13b      	bne.n	f8a <flight+0x82>
     f12:	4d1e      	ldr	r5, [pc, #120]	; (f8c <flight+0x84>)
     f14:	6bc0      	ldr	r0, [r0, #60]	; 0x3c
     f16:	47a8      	blx	r5
     f18:	4e1d      	ldr	r6, [pc, #116]	; (f90 <flight+0x88>)
     f1a:	2200      	movs	r2, #0
     f1c:	4b1d      	ldr	r3, [pc, #116]	; (f94 <flight+0x8c>)
     f1e:	47b0      	blx	r6
     f20:	9000      	str	r0, [sp, #0]
     f22:	9101      	str	r1, [sp, #4]
     f24:	6ce0      	ldr	r0, [r4, #76]	; 0x4c
     f26:	47a8      	blx	r5
     f28:	2200      	movs	r2, #0
     f2a:	4b1a      	ldr	r3, [pc, #104]	; (f94 <flight+0x8c>)
     f2c:	47b0      	blx	r6
     f2e:	4e1a      	ldr	r6, [pc, #104]	; (f98 <flight+0x90>)
     f30:	0002      	movs	r2, r0
     f32:	000b      	movs	r3, r1
     f34:	9800      	ldr	r0, [sp, #0]
     f36:	9901      	ldr	r1, [sp, #4]
     f38:	47b0      	blx	r6
     f3a:	4b18      	ldr	r3, [pc, #96]	; (f9c <flight+0x94>)
     f3c:	4798      	blx	r3
     f3e:	63e0      	str	r0, [r4, #60]	; 0x3c
     f40:	6b20      	ldr	r0, [r4, #48]	; 0x30
     f42:	47a8      	blx	r5
     f44:	2200      	movs	r2, #0
     f46:	4b13      	ldr	r3, [pc, #76]	; (f94 <flight+0x8c>)
     f48:	4e11      	ldr	r6, [pc, #68]	; (f90 <flight+0x88>)
     f4a:	47b0      	blx	r6
     f4c:	0006      	movs	r6, r0
     f4e:	6aa0      	ldr	r0, [r4, #40]	; 0x28
     f50:	000f      	movs	r7, r1
     f52:	47a8      	blx	r5
     f54:	4d0e      	ldr	r5, [pc, #56]	; (f90 <flight+0x88>)
     f56:	2200      	movs	r2, #0
     f58:	4b0e      	ldr	r3, [pc, #56]	; (f94 <flight+0x8c>)
     f5a:	47a8      	blx	r5
     f5c:	4d0e      	ldr	r5, [pc, #56]	; (f98 <flight+0x90>)
     f5e:	0002      	movs	r2, r0
     f60:	000b      	movs	r3, r1
     f62:	0030      	movs	r0, r6
     f64:	0039      	movs	r1, r7
     f66:	47a8      	blx	r5
     f68:	4b0c      	ldr	r3, [pc, #48]	; (f9c <flight+0x94>)
     f6a:	4798      	blx	r3
     f6c:	4d0c      	ldr	r5, [pc, #48]	; (fa0 <flight+0x98>)
     f6e:	6320      	str	r0, [r4, #48]	; 0x30
     f70:	47a8      	blx	r5
     f72:	6b63      	ldr	r3, [r4, #52]	; 0x34
     f74:	1ac0      	subs	r0, r0, r3
     f76:	23fa      	movs	r3, #250	; 0xfa
     f78:	00db      	lsls	r3, r3, #3
     f7a:	4298      	cmp	r0, r3
     f7c:	d905      	bls.n	f8a <flight+0x82>
     f7e:	6b23      	ldr	r3, [r4, #48]	; 0x30
     f80:	62e3      	str	r3, [r4, #44]	; 0x2c
     f82:	6be3      	ldr	r3, [r4, #60]	; 0x3c
     f84:	63a3      	str	r3, [r4, #56]	; 0x38
     f86:	47a8      	blx	r5
     f88:	6360      	str	r0, [r4, #52]	; 0x34
     f8a:	bdf7      	pop	{r0, r1, r2, r4, r5, r6, r7, pc}
     f8c:	000021d1 	.word	0x000021d1
     f90:	00001bdd 	.word	0x00001bdd
     f94:	3fe00000 	.word	0x3fe00000
     f98:	000015bd 	.word	0x000015bd
     f9c:	00002275 	.word	0x00002275
     fa0:	00000da1 	.word	0x00000da1

00000fa4 <logSensors>:
     fa4:	b5f0      	push	{r4, r5, r6, r7, lr}
     fa6:	b087      	sub	sp, #28
     fa8:	466a      	mov	r2, sp
     faa:	2341      	movs	r3, #65	; 0x41
     fac:	7013      	strb	r3, [r2, #0]
     fae:	23a3      	movs	r3, #163	; 0xa3
     fb0:	4669      	mov	r1, sp
     fb2:	009b      	lsls	r3, r3, #2
     fb4:	58c3      	ldr	r3, [r0, r3]
     fb6:	2480      	movs	r4, #128	; 0x80
     fb8:	7053      	strb	r3, [r2, #1]
     fba:	0a1a      	lsrs	r2, r3, #8
     fbc:	708a      	strb	r2, [r1, #2]
     fbe:	0c1a      	lsrs	r2, r3, #16
     fc0:	0e1b      	lsrs	r3, r3, #24
     fc2:	710b      	strb	r3, [r1, #4]
     fc4:	6a43      	ldr	r3, [r0, #36]	; 0x24
     fc6:	70ca      	strb	r2, [r1, #3]
     fc8:	0a1a      	lsrs	r2, r3, #8
     fca:	714b      	strb	r3, [r1, #5]
     fcc:	718a      	strb	r2, [r1, #6]
     fce:	0c1a      	lsrs	r2, r3, #16
     fd0:	0e1b      	lsrs	r3, r3, #24
     fd2:	720b      	strb	r3, [r1, #8]
     fd4:	0003      	movs	r3, r0
     fd6:	71ca      	strb	r2, [r1, #7]
     fd8:	335c      	adds	r3, #92	; 0x5c
     fda:	881b      	ldrh	r3, [r3, #0]
     fdc:	34ff      	adds	r4, #255	; 0xff
     fde:	724b      	strb	r3, [r1, #9]
     fe0:	0a1b      	lsrs	r3, r3, #8
     fe2:	728b      	strb	r3, [r1, #10]
     fe4:	0003      	movs	r3, r0
     fe6:	3360      	adds	r3, #96	; 0x60
     fe8:	881b      	ldrh	r3, [r3, #0]
     fea:	72cb      	strb	r3, [r1, #11]
     fec:	0a1b      	lsrs	r3, r3, #8
     fee:	730b      	strb	r3, [r1, #12]
     ff0:	0003      	movs	r3, r0
     ff2:	3364      	adds	r3, #100	; 0x64
     ff4:	881b      	ldrh	r3, [r3, #0]
     ff6:	734b      	strb	r3, [r1, #13]
     ff8:	0a1b      	lsrs	r3, r3, #8
     ffa:	738b      	strb	r3, [r1, #14]
     ffc:	0003      	movs	r3, r0
     ffe:	3368      	adds	r3, #104	; 0x68
    1000:	881b      	ldrh	r3, [r3, #0]
    1002:	73cb      	strb	r3, [r1, #15]
    1004:	0a1b      	lsrs	r3, r3, #8
    1006:	740b      	strb	r3, [r1, #16]
    1008:	0003      	movs	r3, r0
    100a:	336c      	adds	r3, #108	; 0x6c
    100c:	881b      	ldrh	r3, [r3, #0]
    100e:	744b      	strb	r3, [r1, #17]
    1010:	0a1b      	lsrs	r3, r3, #8
    1012:	748b      	strb	r3, [r1, #18]
    1014:	0003      	movs	r3, r0
    1016:	3370      	adds	r3, #112	; 0x70
    1018:	881b      	ldrh	r3, [r3, #0]
    101a:	74cb      	strb	r3, [r1, #19]
    101c:	0a1b      	lsrs	r3, r3, #8
    101e:	750b      	strb	r3, [r1, #20]
    1020:	0003      	movs	r3, r0
    1022:	3374      	adds	r3, #116	; 0x74
    1024:	881b      	ldrh	r3, [r3, #0]
    1026:	754b      	strb	r3, [r1, #21]
    1028:	0a1b      	lsrs	r3, r3, #8
    102a:	758b      	strb	r3, [r1, #22]
    102c:	5d02      	ldrb	r2, [r0, r4]
    102e:	2300      	movs	r3, #0
    1030:	2ae8      	cmp	r2, #232	; 0xe8
    1032:	dd2d      	ble.n	1090 <logSensors+0xec>
    1034:	18d1      	adds	r1, r2, r3
    1036:	29fe      	cmp	r1, #254	; 0xfe
    1038:	dd18      	ble.n	106c <logSensors+0xc8>
    103a:	0002      	movs	r2, r0
    103c:	2500      	movs	r5, #0
    103e:	491a      	ldr	r1, [pc, #104]	; (10a8 <logSensors+0x104>)
    1040:	3281      	adds	r2, #129	; 0x81
    1042:	32ff      	adds	r2, #255	; 0xff
    1044:	1841      	adds	r1, r0, r1
    1046:	7817      	ldrb	r7, [r2, #0]
    1048:	1e56      	subs	r6, r2, #1
    104a:	3eff      	subs	r6, #255	; 0xff
    104c:	7037      	strb	r7, [r6, #0]
    104e:	7015      	strb	r5, [r2, #0]
    1050:	3201      	adds	r2, #1
    1052:	428a      	cmp	r2, r1
    1054:	d1f7      	bne.n	1046 <logSensors+0xa2>
    1056:	2200      	movs	r2, #0
    1058:	b2d5      	uxtb	r5, r2
    105a:	1959      	adds	r1, r3, r5
    105c:	b2c9      	uxtb	r1, r1
    105e:	2917      	cmp	r1, #23
    1060:	d90d      	bls.n	107e <logSensors+0xda>
    1062:	2201      	movs	r2, #1
    1064:	4b10      	ldr	r3, [pc, #64]	; (10a8 <logSensors+0x104>)
    1066:	54c2      	strb	r2, [r0, r3]
    1068:	b007      	add	sp, #28
    106a:	bdf0      	pop	{r4, r5, r6, r7, pc}
    106c:	466d      	mov	r5, sp
    106e:	1841      	adds	r1, r0, r1
    1070:	5ced      	ldrb	r5, [r5, r3]
    1072:	3181      	adds	r1, #129	; 0x81
    1074:	31ff      	adds	r1, #255	; 0xff
    1076:	3301      	adds	r3, #1
    1078:	700d      	strb	r5, [r1, #0]
    107a:	b2db      	uxtb	r3, r3
    107c:	e7da      	b.n	1034 <logSensors+0x90>
    107e:	0011      	movs	r1, r2
    1080:	466e      	mov	r6, sp
    1082:	3181      	adds	r1, #129	; 0x81
    1084:	5cb6      	ldrb	r6, [r6, r2]
    1086:	31ff      	adds	r1, #255	; 0xff
    1088:	5446      	strb	r6, [r0, r1]
    108a:	3201      	adds	r2, #1
    108c:	5505      	strb	r5, [r0, r4]
    108e:	e7e3      	b.n	1058 <logSensors+0xb4>
    1090:	466d      	mov	r5, sp
    1092:	18d1      	adds	r1, r2, r3
    1094:	5ced      	ldrb	r5, [r5, r3]
    1096:	3181      	adds	r1, #129	; 0x81
    1098:	31ff      	adds	r1, #255	; 0xff
    109a:	3301      	adds	r3, #1
    109c:	5445      	strb	r5, [r0, r1]
    109e:	2b18      	cmp	r3, #24
    10a0:	d1f6      	bne.n	1090 <logSensors+0xec>
    10a2:	3218      	adds	r2, #24
    10a4:	5502      	strb	r2, [r0, r4]
    10a6:	e7df      	b.n	1068 <logSensors+0xc4>
    10a8:	0000027f 	.word	0x0000027f

000010ac <sampleTick>:
    10ac:	b5f0      	push	{r4, r5, r6, r7, lr}
    10ae:	4bc9      	ldr	r3, [pc, #804]	; (13d4 <sampleTick+0x328>)
    10b0:	b087      	sub	sp, #28
    10b2:	0004      	movs	r4, r0
    10b4:	4798      	blx	r3
    10b6:	23a3      	movs	r3, #163	; 0xa3
    10b8:	4dc7      	ldr	r5, [pc, #796]	; (13d8 <sampleTick+0x32c>)
    10ba:	009b      	lsls	r3, r3, #2
    10bc:	50e0      	str	r0, [r4, r3]
    10be:	786b      	ldrb	r3, [r5, #1]
    10c0:	7828      	ldrb	r0, [r5, #0]
    10c2:	021b      	lsls	r3, r3, #8
    10c4:	4303      	orrs	r3, r0
    10c6:	78a8      	ldrb	r0, [r5, #2]
    10c8:	4ec4      	ldr	r6, [pc, #784]	; (13dc <sampleTick+0x330>)
    10ca:	0400      	lsls	r0, r0, #16
    10cc:	4303      	orrs	r3, r0
    10ce:	78e8      	ldrb	r0, [r5, #3]
    10d0:	7929      	ldrb	r1, [r5, #4]
    10d2:	0600      	lsls	r0, r0, #24
    10d4:	4318      	orrs	r0, r3
    10d6:	47b0      	blx	r6
    10d8:	23a0      	movs	r3, #160	; 0xa0
    10da:	009b      	lsls	r3, r3, #2
    10dc:	52e0      	strh	r0, [r4, r3]
    10de:	79ab      	ldrb	r3, [r5, #6]
    10e0:	7968      	ldrb	r0, [r5, #5]
    10e2:	021b      	lsls	r3, r3, #8
    10e4:	4303      	orrs	r3, r0
    10e6:	79e8      	ldrb	r0, [r5, #7]
    10e8:	7a69      	ldrb	r1, [r5, #9]
    10ea:	0400      	lsls	r0, r0, #16
    10ec:	4303      	orrs	r3, r0
    10ee:	7a28      	ldrb	r0, [r5, #8]
    10f0:	0600      	lsls	r0, r0, #24
    10f2:	4318      	orrs	r0, r3
    10f4:	47b0      	blx	r6
    10f6:	4bba      	ldr	r3, [pc, #744]	; (13e0 <sampleTick+0x334>)
    10f8:	7ba9      	ldrb	r1, [r5, #14]
    10fa:	52e0      	strh	r0, [r4, r3]
    10fc:	7aeb      	ldrb	r3, [r5, #11]
    10fe:	7aa8      	ldrb	r0, [r5, #10]
    1100:	021b      	lsls	r3, r3, #8
    1102:	4303      	orrs	r3, r0
    1104:	7b28      	ldrb	r0, [r5, #12]
    1106:	0400      	lsls	r0, r0, #16
    1108:	4303      	orrs	r3, r0
    110a:	7b68      	ldrb	r0, [r5, #13]
    110c:	0600      	lsls	r0, r0, #24
    110e:	4318      	orrs	r0, r3
    1110:	47b0      	blx	r6
    1112:	23a1      	movs	r3, #161	; 0xa1
    1114:	009b      	lsls	r3, r3, #2
    1116:	52e0      	strh	r0, [r4, r3]
    1118:	7c2b      	ldrb	r3, [r5, #16]
    111a:	7be8      	ldrb	r0, [r5, #15]
    111c:	021b      	lsls	r3, r3, #8
    111e:	4303      	orrs	r3, r0
    1120:	7c68      	ldrb	r0, [r5, #17]
    1122:	7ce9      	ldrb	r1, [r5, #19]
    1124:	0400      	lsls	r0, r0, #16
    1126:	4303      	orrs	r3, r0
    1128:	7ca8      	ldrb	r0, [r5, #18]
    112a:	0600      	lsls	r0, r0, #24
    112c:	4318      	orrs	r0, r3
    112e:	47b0      	blx	r6
    1130:	4bac      	ldr	r3, [pc, #688]	; (13e4 <sampleTick+0x338>)
    1132:	7e29      	ldrb	r1, [r5, #24]
    1134:	52e0      	strh	r0, [r4, r3]
    1136:	7d6b      	ldrb	r3, [r5, #21]
    1138:	7d28      	ldrb	r0, [r5, #20]
    113a:	021b      	lsls	r3, r3, #8
    113c:	4303      	orrs	r3, r0
    113e:	7da8      	ldrb	r0, [r5, #22]
    1140:	0400      	lsls	r0, r0, #16
    1142:	4303      	orrs	r3, r0
    1144:	7de8      	ldrb	r0, [r5, #23]
    1146:	0600      	lsls	r0, r0, #24
    1148:	4318      	orrs	r0, r3
    114a:	47b0      	blx	r6
    114c:	23a2      	movs	r3, #162	; 0xa2
    114e:	009b      	lsls	r3, r3, #2
    1150:	52e0      	strh	r0, [r4, r3]
    1152:	7eab      	ldrb	r3, [r5, #26]
    1154:	7e68      	ldrb	r0, [r5, #25]
    1156:	021b      	lsls	r3, r3, #8
    1158:	4303      	orrs	r3, r0
    115a:	7ee8      	ldrb	r0, [r5, #27]
    115c:	7f69      	ldrb	r1, [r5, #29]
    115e:	0400      	lsls	r0, r0, #16
    1160:	4303      	orrs	r3, r0
    1162:	7f28      	ldrb	r0, [r5, #28]
    1164:	0600      	lsls	r0, r0, #24
    1166:	4318      	orrs	r0, r3
    1168:	47b0      	blx	r6
    116a:	0023      	movs	r3, r4
    116c:	3374      	adds	r3, #116	; 0x74
    116e:	8018      	strh	r0, [r3, #0]
    1170:	4b9d      	ldr	r3, [pc, #628]	; (13e8 <sampleTick+0x33c>)
    1172:	18c0      	adds	r0, r0, r3
    1174:	4b9d      	ldr	r3, [pc, #628]	; (13ec <sampleTick+0x340>)
    1176:	4798      	blx	r3
    1178:	4a9d      	ldr	r2, [pc, #628]	; (13f0 <sampleTick+0x344>)
    117a:	4e9e      	ldr	r6, [pc, #632]	; (13f4 <sampleTick+0x348>)
    117c:	4b9e      	ldr	r3, [pc, #632]	; (13f8 <sampleTick+0x34c>)
    117e:	47b0      	blx	r6
    1180:	4b9e      	ldr	r3, [pc, #632]	; (13fc <sampleTick+0x350>)
    1182:	2680      	movs	r6, #128	; 0x80
    1184:	4798      	blx	r3
    1186:	2250      	movs	r2, #80	; 0x50
    1188:	0029      	movs	r1, r5
    118a:	6c23      	ldr	r3, [r4, #64]	; 0x40
    118c:	0236      	lsls	r6, r6, #8
    118e:	6463      	str	r3, [r4, #68]	; 0x44
    1190:	4b9b      	ldr	r3, [pc, #620]	; (1400 <sampleTick+0x354>)
    1192:	67a0      	str	r0, [r4, #120]	; 0x78
    1194:	615e      	str	r6, [r3, #20]
    1196:	002b      	movs	r3, r5
    1198:	9200      	str	r2, [sp, #0]
    119a:	7fea      	ldrb	r2, [r5, #31]
    119c:	7fa8      	ldrb	r0, [r5, #30]
    119e:	311e      	adds	r1, #30
    11a0:	0212      	lsls	r2, r2, #8
    11a2:	4310      	orrs	r0, r2
    11a4:	788a      	ldrb	r2, [r1, #2]
    11a6:	3323      	adds	r3, #35	; 0x23
    11a8:	0412      	lsls	r2, r2, #16
    11aa:	4302      	orrs	r2, r0
    11ac:	78c8      	ldrb	r0, [r1, #3]
    11ae:	781d      	ldrb	r5, [r3, #0]
    11b0:	0600      	lsls	r0, r0, #24
    11b2:	4310      	orrs	r0, r2
    11b4:	790a      	ldrb	r2, [r1, #4]
    11b6:	791f      	ldrb	r7, [r3, #4]
    11b8:	9204      	str	r2, [sp, #16]
    11ba:	785a      	ldrb	r2, [r3, #1]
    11bc:	0039      	movs	r1, r7
    11be:	0212      	lsls	r2, r2, #8
    11c0:	432a      	orrs	r2, r5
    11c2:	789d      	ldrb	r5, [r3, #2]
    11c4:	9003      	str	r0, [sp, #12]
    11c6:	042d      	lsls	r5, r5, #16
    11c8:	432a      	orrs	r2, r5
    11ca:	78dd      	ldrb	r5, [r3, #3]
    11cc:	9b04      	ldr	r3, [sp, #16]
    11ce:	062d      	lsls	r5, r5, #24
    11d0:	4315      	orrs	r5, r2
    11d2:	9505      	str	r5, [sp, #20]
    11d4:	0002      	movs	r2, r0
    11d6:	0028      	movs	r0, r5
    11d8:	4d8a      	ldr	r5, [pc, #552]	; (1404 <sampleTick+0x358>)
    11da:	47a8      	blx	r5
    11dc:	20fa      	movs	r0, #250	; 0xfa
    11de:	4b88      	ldr	r3, [pc, #544]	; (1400 <sampleTick+0x354>)
    11e0:	0040      	lsls	r0, r0, #1
    11e2:	619e      	str	r6, [r3, #24]
    11e4:	4b88      	ldr	r3, [pc, #544]	; (1408 <sampleTick+0x35c>)
    11e6:	4798      	blx	r3
    11e8:	4b88      	ldr	r3, [pc, #544]	; (140c <sampleTick+0x360>)
    11ea:	4798      	blx	r3
    11ec:	4b84      	ldr	r3, [pc, #528]	; (1400 <sampleTick+0x354>)
    11ee:	6160      	str	r0, [r4, #20]
    11f0:	615e      	str	r6, [r3, #20]
    11f2:	2342      	movs	r3, #66	; 0x42
    11f4:	9a03      	ldr	r2, [sp, #12]
    11f6:	9300      	str	r3, [sp, #0]
    11f8:	9805      	ldr	r0, [sp, #20]
    11fa:	9b04      	ldr	r3, [sp, #16]
    11fc:	0039      	movs	r1, r7
    11fe:	4d81      	ldr	r5, [pc, #516]	; (1404 <sampleTick+0x358>)
    1200:	47a8      	blx	r5
    1202:	2280      	movs	r2, #128	; 0x80
    1204:	4b7e      	ldr	r3, [pc, #504]	; (1400 <sampleTick+0x354>)
    1206:	00d2      	lsls	r2, r2, #3
    1208:	619e      	str	r6, [r3, #24]
    120a:	4b81      	ldr	r3, [pc, #516]	; (1410 <sampleTick+0x364>)
    120c:	4f81      	ldr	r7, [pc, #516]	; (1414 <sampleTick+0x368>)
    120e:	601a      	str	r2, [r3, #0]
    1210:	2182      	movs	r1, #130	; 0x82
    1212:	2000      	movs	r0, #0
    1214:	47b8      	blx	r7
    1216:	21ff      	movs	r1, #255	; 0xff
    1218:	2000      	movs	r0, #0
    121a:	47b8      	blx	r7
    121c:	0023      	movs	r3, r4
    121e:	335c      	adds	r3, #92	; 0x5c
    1220:	8018      	strh	r0, [r3, #0]
    1222:	0005      	movs	r5, r0
    1224:	21ff      	movs	r1, #255	; 0xff
    1226:	2000      	movs	r0, #0
    1228:	9303      	str	r3, [sp, #12]
    122a:	47b8      	blx	r7
    122c:	9b03      	ldr	r3, [sp, #12]
    122e:	0200      	lsls	r0, r0, #8
    1230:	4305      	orrs	r5, r0
    1232:	801d      	strh	r5, [r3, #0]
    1234:	21ff      	movs	r1, #255	; 0xff
    1236:	0026      	movs	r6, r4
    1238:	2000      	movs	r0, #0
    123a:	47b8      	blx	r7
    123c:	3660      	adds	r6, #96	; 0x60
    123e:	8030      	strh	r0, [r6, #0]
    1240:	0005      	movs	r5, r0
    1242:	21ff      	movs	r1, #255	; 0xff
    1244:	2000      	movs	r0, #0
    1246:	47b8      	blx	r7
    1248:	0200      	lsls	r0, r0, #8
    124a:	4305      	orrs	r5, r0
    124c:	8035      	strh	r5, [r6, #0]
    124e:	21ff      	movs	r1, #255	; 0xff
    1250:	2000      	movs	r0, #0
    1252:	47b8      	blx	r7
    1254:	0023      	movs	r3, r4
    1256:	3364      	adds	r3, #100	; 0x64
    1258:	8018      	strh	r0, [r3, #0]
    125a:	0005      	movs	r5, r0
    125c:	21ff      	movs	r1, #255	; 0xff
    125e:	2000      	movs	r0, #0
    1260:	9304      	str	r3, [sp, #16]
    1262:	47b8      	blx	r7
    1264:	2280      	movs	r2, #128	; 0x80
    1266:	0200      	lsls	r0, r0, #8
    1268:	9b04      	ldr	r3, [sp, #16]
    126a:	4305      	orrs	r5, r0
    126c:	b22d      	sxth	r5, r5
    126e:	801d      	strh	r5, [r3, #0]
    1270:	4b69      	ldr	r3, [pc, #420]	; (1418 <sampleTick+0x36c>)
    1272:	00d2      	lsls	r2, r2, #3
    1274:	601a      	str	r2, [r3, #0]
    1276:	9b03      	ldr	r3, [sp, #12]
    1278:	112d      	asrs	r5, r5, #4
    127a:	2000      	movs	r0, #0
    127c:	5e18      	ldrsh	r0, [r3, r0]
    127e:	2200      	movs	r2, #0
    1280:	5eb3      	ldrsh	r3, [r6, r2]
    1282:	0022      	movs	r2, r4
    1284:	3266      	adds	r2, #102	; 0x66
    1286:	9203      	str	r2, [sp, #12]
    1288:	1100      	asrs	r0, r0, #4
    128a:	3a08      	subs	r2, #8
    128c:	111b      	asrs	r3, r3, #4
    128e:	8010      	strh	r0, [r2, #0]
    1290:	8073      	strh	r3, [r6, #2]
    1292:	9b03      	ldr	r3, [sp, #12]
    1294:	801d      	strh	r5, [r3, #0]
    1296:	4b55      	ldr	r3, [pc, #340]	; (13ec <sampleTick+0x340>)
    1298:	4798      	blx	r3
    129a:	23fe      	movs	r3, #254	; 0xfe
    129c:	4d55      	ldr	r5, [pc, #340]	; (13f4 <sampleTick+0x348>)
    129e:	2200      	movs	r2, #0
    12a0:	059b      	lsls	r3, r3, #22
    12a2:	47a8      	blx	r5
    12a4:	4b55      	ldr	r3, [pc, #340]	; (13fc <sampleTick+0x350>)
    12a6:	4798      	blx	r3
    12a8:	6420      	str	r0, [r4, #64]	; 0x40
    12aa:	2302      	movs	r3, #2
    12ac:	5ef0      	ldrsh	r0, [r6, r3]
    12ae:	4b4f      	ldr	r3, [pc, #316]	; (13ec <sampleTick+0x340>)
    12b0:	4798      	blx	r3
    12b2:	23fe      	movs	r3, #254	; 0xfe
    12b4:	2200      	movs	r2, #0
    12b6:	059b      	lsls	r3, r3, #22
    12b8:	47a8      	blx	r5
    12ba:	4b50      	ldr	r3, [pc, #320]	; (13fc <sampleTick+0x350>)
    12bc:	4798      	blx	r3
    12be:	9b03      	ldr	r3, [sp, #12]
    12c0:	64a0      	str	r0, [r4, #72]	; 0x48
    12c2:	2000      	movs	r0, #0
    12c4:	5e18      	ldrsh	r0, [r3, r0]
    12c6:	4b49      	ldr	r3, [pc, #292]	; (13ec <sampleTick+0x340>)
    12c8:	4798      	blx	r3
    12ca:	23fe      	movs	r3, #254	; 0xfe
    12cc:	2200      	movs	r2, #0
    12ce:	059b      	lsls	r3, r3, #22
    12d0:	47a8      	blx	r5
    12d2:	4b4a      	ldr	r3, [pc, #296]	; (13fc <sampleTick+0x350>)
    12d4:	4798      	blx	r3
    12d6:	2280      	movs	r2, #128	; 0x80
    12d8:	4b49      	ldr	r3, [pc, #292]	; (1400 <sampleTick+0x354>)
    12da:	00d2      	lsls	r2, r2, #3
    12dc:	64e0      	str	r0, [r4, #76]	; 0x4c
    12de:	2182      	movs	r1, #130	; 0x82
    12e0:	615a      	str	r2, [r3, #20]
    12e2:	2000      	movs	r0, #0
    12e4:	47b8      	blx	r7
    12e6:	21ff      	movs	r1, #255	; 0xff
    12e8:	2000      	movs	r0, #0
    12ea:	47b8      	blx	r7
    12ec:	0023      	movs	r3, r4
    12ee:	3368      	adds	r3, #104	; 0x68
    12f0:	8018      	strh	r0, [r3, #0]
    12f2:	0005      	movs	r5, r0
    12f4:	21ff      	movs	r1, #255	; 0xff
    12f6:	2000      	movs	r0, #0
    12f8:	9303      	str	r3, [sp, #12]
    12fa:	47b8      	blx	r7
    12fc:	9b03      	ldr	r3, [sp, #12]
    12fe:	0200      	lsls	r0, r0, #8
    1300:	4305      	orrs	r5, r0
    1302:	801d      	strh	r5, [r3, #0]
    1304:	21ff      	movs	r1, #255	; 0xff
    1306:	2000      	movs	r0, #0
    1308:	47b8      	blx	r7
    130a:	21ff      	movs	r1, #255	; 0xff
    130c:	81b0      	strh	r0, [r6, #12]
    130e:	0005      	movs	r5, r0
    1310:	2000      	movs	r0, #0
    1312:	47b8      	blx	r7
    1314:	0200      	lsls	r0, r0, #8
    1316:	4305      	orrs	r5, r0
    1318:	81b5      	strh	r5, [r6, #12]
    131a:	21ff      	movs	r1, #255	; 0xff
    131c:	2000      	movs	r0, #0
    131e:	47b8      	blx	r7
    1320:	0023      	movs	r3, r4
    1322:	3370      	adds	r3, #112	; 0x70
    1324:	8018      	strh	r0, [r3, #0]
    1326:	0005      	movs	r5, r0
    1328:	21ff      	movs	r1, #255	; 0xff
    132a:	2000      	movs	r0, #0
    132c:	9304      	str	r3, [sp, #16]
    132e:	47b8      	blx	r7
    1330:	2280      	movs	r2, #128	; 0x80
    1332:	0200      	lsls	r0, r0, #8
    1334:	9b04      	ldr	r3, [sp, #16]
    1336:	4305      	orrs	r5, r0
    1338:	b22d      	sxth	r5, r5
    133a:	801d      	strh	r5, [r3, #0]
    133c:	4b30      	ldr	r3, [pc, #192]	; (1400 <sampleTick+0x354>)
    133e:	00d2      	lsls	r2, r2, #3
    1340:	619a      	str	r2, [r3, #24]
    1342:	9b03      	ldr	r3, [sp, #12]
    1344:	0027      	movs	r7, r4
    1346:	2000      	movs	r0, #0
    1348:	5e18      	ldrsh	r0, [r3, r0]
    134a:	220c      	movs	r2, #12
    134c:	5eb3      	ldrsh	r3, [r6, r2]
    134e:	0022      	movs	r2, r4
    1350:	376e      	adds	r7, #110	; 0x6e
    1352:	326a      	adds	r2, #106	; 0x6a
    1354:	1100      	asrs	r0, r0, #4
    1356:	111b      	asrs	r3, r3, #4
    1358:	112d      	asrs	r5, r5, #4
    135a:	8010      	strh	r0, [r2, #0]
    135c:	803b      	strh	r3, [r7, #0]
    135e:	8275      	strh	r5, [r6, #18]
    1360:	4b22      	ldr	r3, [pc, #136]	; (13ec <sampleTick+0x340>)
    1362:	4798      	blx	r3
    1364:	23fe      	movs	r3, #254	; 0xfe
    1366:	4d23      	ldr	r5, [pc, #140]	; (13f4 <sampleTick+0x348>)
    1368:	2200      	movs	r2, #0
    136a:	059b      	lsls	r3, r3, #22
    136c:	47a8      	blx	r5
    136e:	4b23      	ldr	r3, [pc, #140]	; (13fc <sampleTick+0x350>)
    1370:	4798      	blx	r3
    1372:	6520      	str	r0, [r4, #80]	; 0x50
    1374:	2300      	movs	r3, #0
    1376:	5ef8      	ldrsh	r0, [r7, r3]
    1378:	4b1c      	ldr	r3, [pc, #112]	; (13ec <sampleTick+0x340>)
    137a:	4798      	blx	r3
    137c:	23fe      	movs	r3, #254	; 0xfe
    137e:	2200      	movs	r2, #0
    1380:	059b      	lsls	r3, r3, #22
    1382:	47a8      	blx	r5
    1384:	4b1d      	ldr	r3, [pc, #116]	; (13fc <sampleTick+0x350>)
    1386:	4798      	blx	r3
    1388:	6560      	str	r0, [r4, #84]	; 0x54
    138a:	2312      	movs	r3, #18
    138c:	5ef0      	ldrsh	r0, [r6, r3]
    138e:	4b17      	ldr	r3, [pc, #92]	; (13ec <sampleTick+0x340>)
    1390:	4798      	blx	r3
    1392:	23fe      	movs	r3, #254	; 0xfe
    1394:	2200      	movs	r2, #0
    1396:	059b      	lsls	r3, r3, #22
    1398:	47a8      	blx	r5
    139a:	4b18      	ldr	r3, [pc, #96]	; (13fc <sampleTick+0x350>)
    139c:	4798      	blx	r3
    139e:	65a0      	str	r0, [r4, #88]	; 0x58
    13a0:	20c8      	movs	r0, #200	; 0xc8
    13a2:	4b19      	ldr	r3, [pc, #100]	; (1408 <sampleTick+0x35c>)
    13a4:	0080      	lsls	r0, r0, #2
    13a6:	4798      	blx	r3
    13a8:	4b18      	ldr	r3, [pc, #96]	; (140c <sampleTick+0x360>)
    13aa:	4798      	blx	r3
    13ac:	1d25      	adds	r5, r4, #4
    13ae:	6120      	str	r0, [r4, #16]
    13b0:	4b1a      	ldr	r3, [pc, #104]	; (141c <sampleTick+0x370>)
    13b2:	0028      	movs	r0, r5
    13b4:	4798      	blx	r3
    13b6:	0028      	movs	r0, r5
    13b8:	4b19      	ldr	r3, [pc, #100]	; (1420 <sampleTick+0x374>)
    13ba:	4798      	blx	r3
    13bc:	4b19      	ldr	r3, [pc, #100]	; (1424 <sampleTick+0x378>)
    13be:	6a60      	ldr	r0, [r4, #36]	; 0x24
    13c0:	4798      	blx	r3
    13c2:	4a19      	ldr	r2, [pc, #100]	; (1428 <sampleTick+0x37c>)
    13c4:	4b19      	ldr	r3, [pc, #100]	; (142c <sampleTick+0x380>)
    13c6:	4d0b      	ldr	r5, [pc, #44]	; (13f4 <sampleTick+0x348>)
    13c8:	47a8      	blx	r5
    13ca:	4b0c      	ldr	r3, [pc, #48]	; (13fc <sampleTick+0x350>)
    13cc:	4798      	blx	r3
    13ce:	62a0      	str	r0, [r4, #40]	; 0x28
    13d0:	b007      	add	sp, #28
    13d2:	bdf0      	pop	{r4, r5, r6, r7, pc}
    13d4:	00000da1 	.word	0x00000da1
    13d8:	00002714 	.word	0x00002714
    13dc:	00000a55 	.word	0x00000a55
    13e0:	00000282 	.word	0x00000282
    13e4:	00000286 	.word	0x00000286
    13e8:	fffff0c4 	.word	0xfffff0c4
    13ec:	000020dd 	.word	0x000020dd
    13f0:	02de00d2 	.word	0x02de00d2
    13f4:	00001bdd 	.word	0x00001bdd
    13f8:	bf8f8a09 	.word	0xbf8f8a09
    13fc:	00002275 	.word	0x00002275
    1400:	41004400 	.word	0x41004400
    1404:	00000ac1 	.word	0x00000ac1
    1408:	00000d2d 	.word	0x00000d2d
    140c:	00000245 	.word	0x00000245
    1410:	41004494 	.word	0x41004494
    1414:	00001539 	.word	0x00001539
    1418:	41004498 	.word	0x41004498
    141c:	000002ed 	.word	0x000002ed
    1420:	000003d9 	.word	0x000003d9
    1424:	00002161 	.word	0x00002161
    1428:	e9f6a93f 	.word	0xe9f6a93f
    142c:	3fa0cc78 	.word	0x3fa0cc78

00001430 <sercomClockEnable>:
    1430:	b570      	push	{r4, r5, r6, lr}
    1432:	0005      	movs	r5, r0
    1434:	2301      	movs	r3, #1
    1436:	1cae      	adds	r6, r5, #2
    1438:	40b3      	lsls	r3, r6
    143a:	000c      	movs	r4, r1
    143c:	490b      	ldr	r1, [pc, #44]	; (146c <sercomClockEnable+0x3c>)
    143e:	6a08      	ldr	r0, [r1, #32]
    1440:	4303      	orrs	r3, r0
    1442:	620b      	str	r3, [r1, #32]
    1444:	2c00      	cmp	r4, #0
    1446:	d003      	beq.n	1450 <sercomClockEnable+0x20>
    1448:	2107      	movs	r1, #7
    144a:	0020      	movs	r0, r4
    144c:	4b08      	ldr	r3, [pc, #32]	; (1470 <sercomClockEnable+0x40>)
    144e:	4798      	blx	r3
    1450:	23f0      	movs	r3, #240	; 0xf0
    1452:	0224      	lsls	r4, r4, #8
    1454:	011b      	lsls	r3, r3, #4
    1456:	401c      	ands	r4, r3
    1458:	2380      	movs	r3, #128	; 0x80
    145a:	01db      	lsls	r3, r3, #7
    145c:	431c      	orrs	r4, r3
    145e:	233f      	movs	r3, #63	; 0x3f
    1460:	3514      	adds	r5, #20
    1462:	401d      	ands	r5, r3
    1464:	4b03      	ldr	r3, [pc, #12]	; (1474 <sercomClockEnable+0x44>)
    1466:	4325      	orrs	r5, r4
    1468:	805d      	strh	r5, [r3, #2]
    146a:	bd70      	pop	{r4, r5, r6, pc}
    146c:	40000400 	.word	0x40000400
    1470:	00000cdd 	.word	0x00000cdd
    1474:	40000c00 	.word	0x40000c00

00001478 <sercomReset>:
    1478:	4b04      	ldr	r3, [pc, #16]	; (148c <sercomReset+0x14>)
    147a:	0280      	lsls	r0, r0, #10
    147c:	18c0      	adds	r0, r0, r3
    147e:	2301      	movs	r3, #1
    1480:	6003      	str	r3, [r0, #0]
    1482:	6802      	ldr	r2, [r0, #0]
    1484:	421a      	tst	r2, r3
    1486:	d1fc      	bne.n	1482 <sercomReset+0xa>
    1488:	4770      	bx	lr
    148a:	46c0      	nop			; (mov r8, r8)
    148c:	42000800 	.word	0x42000800

00001490 <sercomSpiMasterInit>:
    1490:	b5f7      	push	{r0, r1, r2, r4, r5, r6, r7, lr}
    1492:	0004      	movs	r4, r0
    1494:	9300      	str	r3, [sp, #0]
    1496:	ab08      	add	r3, sp, #32
    1498:	781b      	ldrb	r3, [r3, #0]
    149a:	0016      	movs	r6, r2
    149c:	9301      	str	r3, [sp, #4]
    149e:	ab09      	add	r3, sp, #36	; 0x24
    14a0:	781f      	ldrb	r7, [r3, #0]
    14a2:	4b12      	ldr	r3, [pc, #72]	; (14ec <sercomSpiMasterInit+0x5c>)
    14a4:	000d      	movs	r5, r1
    14a6:	4798      	blx	r3
    14a8:	4b11      	ldr	r3, [pc, #68]	; (14f0 <sercomSpiMasterInit+0x60>)
    14aa:	02a4      	lsls	r4, r4, #10
    14ac:	18e4      	adds	r4, r4, r3
    14ae:	2380      	movs	r3, #128	; 0x80
    14b0:	029b      	lsls	r3, r3, #10
    14b2:	6063      	str	r3, [r4, #4]
    14b4:	23c0      	movs	r3, #192	; 0xc0
    14b6:	052d      	lsls	r5, r5, #20
    14b8:	039b      	lsls	r3, r3, #14
    14ba:	401d      	ands	r5, r3
    14bc:	23c0      	movs	r3, #192	; 0xc0
    14be:	0436      	lsls	r6, r6, #16
    14c0:	029b      	lsls	r3, r3, #10
    14c2:	401e      	ands	r6, r3
    14c4:	230e      	movs	r3, #14
    14c6:	431e      	orrs	r6, r3
    14c8:	9b00      	ldr	r3, [sp, #0]
    14ca:	4335      	orrs	r5, r6
    14cc:	1e5a      	subs	r2, r3, #1
    14ce:	4193      	sbcs	r3, r2
    14d0:	9a01      	ldr	r2, [sp, #4]
    14d2:	075b      	lsls	r3, r3, #29
    14d4:	1e51      	subs	r1, r2, #1
    14d6:	418a      	sbcs	r2, r1
    14d8:	431d      	orrs	r5, r3
    14da:	0712      	lsls	r2, r2, #28
    14dc:	4315      	orrs	r5, r2
    14de:	7327      	strb	r7, [r4, #12]
    14e0:	6025      	str	r5, [r4, #0]
    14e2:	69e3      	ldr	r3, [r4, #28]
    14e4:	075b      	lsls	r3, r3, #29
    14e6:	d4fc      	bmi.n	14e2 <sercomSpiMasterInit+0x52>
    14e8:	bdf7      	pop	{r0, r1, r2, r4, r5, r6, r7, pc}
    14ea:	46c0      	nop			; (mov r8, r8)
    14ec:	00001479 	.word	0x00001479
    14f0:	42000800 	.word	0x42000800

000014f4 <sercomUartInit>:
    14f4:	b5f8      	push	{r3, r4, r5, r6, r7, lr}
    14f6:	0007      	movs	r7, r0
    14f8:	001e      	movs	r6, r3
    14fa:	4b0c      	ldr	r3, [pc, #48]	; (152c <sercomUartInit+0x38>)
    14fc:	000d      	movs	r5, r1
    14fe:	0014      	movs	r4, r2
    1500:	4798      	blx	r3
    1502:	4b0b      	ldr	r3, [pc, #44]	; (1530 <sercomUartInit+0x3c>)
    1504:	02b8      	lsls	r0, r7, #10
    1506:	18c0      	adds	r0, r0, r3
    1508:	2304      	movs	r3, #4
    150a:	22c0      	movs	r2, #192	; 0xc0
    150c:	6003      	str	r3, [r0, #0]
    150e:	23c0      	movs	r3, #192	; 0xc0
    1510:	0392      	lsls	r2, r2, #14
    1512:	052d      	lsls	r5, r5, #20
    1514:	4015      	ands	r5, r2
    1516:	4a07      	ldr	r2, [pc, #28]	; (1534 <sercomUartInit+0x40>)
    1518:	029b      	lsls	r3, r3, #10
    151a:	0424      	lsls	r4, r4, #16
    151c:	432a      	orrs	r2, r5
    151e:	401c      	ands	r4, r3
    1520:	b2b6      	uxth	r6, r6
    1522:	4322      	orrs	r2, r4
    1524:	8186      	strh	r6, [r0, #12]
    1526:	6043      	str	r3, [r0, #4]
    1528:	6002      	str	r2, [r0, #0]
    152a:	bdf8      	pop	{r3, r4, r5, r6, r7, pc}
    152c:	00001479 	.word	0x00001479
    1530:	42000800 	.word	0x42000800
    1534:	40000006 	.word	0x40000006

00001538 <spiDataTransfer>:
    1538:	4b04      	ldr	r3, [pc, #16]	; (154c <spiDataTransfer+0x14>)
    153a:	0280      	lsls	r0, r0, #10
    153c:	18c0      	adds	r0, r0, r3
    153e:	6281      	str	r1, [r0, #40]	; 0x28
    1540:	7e03      	ldrb	r3, [r0, #24]
    1542:	075b      	lsls	r3, r3, #29
    1544:	d5fc      	bpl.n	1540 <spiDataTransfer+0x8>
    1546:	6a80      	ldr	r0, [r0, #40]	; 0x28
    1548:	b2c0      	uxtb	r0, r0
    154a:	4770      	bx	lr
    154c:	42000800 	.word	0x42000800

00001550 <usartDataOut>:
    1550:	4b04      	ldr	r3, [pc, #16]	; (1564 <usartDataOut+0x14>)
    1552:	0280      	lsls	r0, r0, #10
    1554:	18c0      	adds	r0, r0, r3
    1556:	b289      	uxth	r1, r1
    1558:	8501      	strh	r1, [r0, #40]	; 0x28
    155a:	7e03      	ldrb	r3, [r0, #24]
    155c:	07db      	lsls	r3, r3, #31
    155e:	d5fc      	bpl.n	155a <usartDataOut+0xa>
    1560:	4770      	bx	lr
    1562:	46c0      	nop			; (mov r8, r8)
    1564:	42000800 	.word	0x42000800

00001568 <__aeabi_lmul>:
    1568:	b5f0      	push	{r4, r5, r6, r7, lr}
    156a:	46ce      	mov	lr, r9
    156c:	4647      	mov	r7, r8
    156e:	0415      	lsls	r5, r2, #16
    1570:	0c2d      	lsrs	r5, r5, #16
    1572:	002e      	movs	r6, r5
    1574:	b580      	push	{r7, lr}
    1576:	0407      	lsls	r7, r0, #16
    1578:	0c14      	lsrs	r4, r2, #16
    157a:	0c3f      	lsrs	r7, r7, #16
    157c:	4699      	mov	r9, r3
    157e:	0c03      	lsrs	r3, r0, #16
    1580:	437e      	muls	r6, r7
    1582:	435d      	muls	r5, r3
    1584:	4367      	muls	r7, r4
    1586:	4363      	muls	r3, r4
    1588:	197f      	adds	r7, r7, r5
    158a:	0c34      	lsrs	r4, r6, #16
    158c:	19e4      	adds	r4, r4, r7
    158e:	469c      	mov	ip, r3
    1590:	42a5      	cmp	r5, r4
    1592:	d903      	bls.n	159c <__aeabi_lmul+0x34>
    1594:	2380      	movs	r3, #128	; 0x80
    1596:	025b      	lsls	r3, r3, #9
    1598:	4698      	mov	r8, r3
    159a:	44c4      	add	ip, r8
    159c:	464b      	mov	r3, r9
    159e:	4351      	muls	r1, r2
    15a0:	4343      	muls	r3, r0
    15a2:	0436      	lsls	r6, r6, #16
    15a4:	0c36      	lsrs	r6, r6, #16
    15a6:	0c25      	lsrs	r5, r4, #16
    15a8:	0424      	lsls	r4, r4, #16
    15aa:	4465      	add	r5, ip
    15ac:	19a4      	adds	r4, r4, r6
    15ae:	1859      	adds	r1, r3, r1
    15b0:	1949      	adds	r1, r1, r5
    15b2:	0020      	movs	r0, r4
    15b4:	bc0c      	pop	{r2, r3}
    15b6:	4690      	mov	r8, r2
    15b8:	4699      	mov	r9, r3
    15ba:	bdf0      	pop	{r4, r5, r6, r7, pc}

000015bc <__aeabi_dadd>:
    15bc:	b5f8      	push	{r3, r4, r5, r6, r7, lr}
    15be:	4645      	mov	r5, r8
    15c0:	46de      	mov	lr, fp
    15c2:	4657      	mov	r7, sl
    15c4:	464e      	mov	r6, r9
    15c6:	030c      	lsls	r4, r1, #12
    15c8:	b5e0      	push	{r5, r6, r7, lr}
    15ca:	004e      	lsls	r6, r1, #1
    15cc:	0fc9      	lsrs	r1, r1, #31
    15ce:	4688      	mov	r8, r1
    15d0:	000d      	movs	r5, r1
    15d2:	0a61      	lsrs	r1, r4, #9
    15d4:	0f44      	lsrs	r4, r0, #29
    15d6:	430c      	orrs	r4, r1
    15d8:	00c7      	lsls	r7, r0, #3
    15da:	0319      	lsls	r1, r3, #12
    15dc:	0058      	lsls	r0, r3, #1
    15de:	0fdb      	lsrs	r3, r3, #31
    15e0:	469b      	mov	fp, r3
    15e2:	0a4b      	lsrs	r3, r1, #9
    15e4:	0f51      	lsrs	r1, r2, #29
    15e6:	430b      	orrs	r3, r1
    15e8:	0d76      	lsrs	r6, r6, #21
    15ea:	0d40      	lsrs	r0, r0, #21
    15ec:	0019      	movs	r1, r3
    15ee:	00d2      	lsls	r2, r2, #3
    15f0:	45d8      	cmp	r8, fp
    15f2:	d100      	bne.n	15f6 <__aeabi_dadd+0x3a>
    15f4:	e0ae      	b.n	1754 <__aeabi_dadd+0x198>
    15f6:	1a35      	subs	r5, r6, r0
    15f8:	2d00      	cmp	r5, #0
    15fa:	dc00      	bgt.n	15fe <__aeabi_dadd+0x42>
    15fc:	e0f6      	b.n	17ec <__aeabi_dadd+0x230>
    15fe:	2800      	cmp	r0, #0
    1600:	d10f      	bne.n	1622 <__aeabi_dadd+0x66>
    1602:	4313      	orrs	r3, r2
    1604:	d100      	bne.n	1608 <__aeabi_dadd+0x4c>
    1606:	e0db      	b.n	17c0 <__aeabi_dadd+0x204>
    1608:	1e6b      	subs	r3, r5, #1
    160a:	2b00      	cmp	r3, #0
    160c:	d000      	beq.n	1610 <__aeabi_dadd+0x54>
    160e:	e137      	b.n	1880 <__aeabi_dadd+0x2c4>
    1610:	1aba      	subs	r2, r7, r2
    1612:	4297      	cmp	r7, r2
    1614:	41bf      	sbcs	r7, r7
    1616:	1a64      	subs	r4, r4, r1
    1618:	427f      	negs	r7, r7
    161a:	1be4      	subs	r4, r4, r7
    161c:	2601      	movs	r6, #1
    161e:	0017      	movs	r7, r2
    1620:	e024      	b.n	166c <__aeabi_dadd+0xb0>
    1622:	4bc6      	ldr	r3, [pc, #792]	; (193c <__aeabi_dadd+0x380>)
    1624:	429e      	cmp	r6, r3
    1626:	d04d      	beq.n	16c4 <__aeabi_dadd+0x108>
    1628:	2380      	movs	r3, #128	; 0x80
    162a:	041b      	lsls	r3, r3, #16
    162c:	4319      	orrs	r1, r3
    162e:	2d38      	cmp	r5, #56	; 0x38
    1630:	dd00      	ble.n	1634 <__aeabi_dadd+0x78>
    1632:	e107      	b.n	1844 <__aeabi_dadd+0x288>
    1634:	2d1f      	cmp	r5, #31
    1636:	dd00      	ble.n	163a <__aeabi_dadd+0x7e>
    1638:	e138      	b.n	18ac <__aeabi_dadd+0x2f0>
    163a:	2020      	movs	r0, #32
    163c:	1b43      	subs	r3, r0, r5
    163e:	469a      	mov	sl, r3
    1640:	000b      	movs	r3, r1
    1642:	4650      	mov	r0, sl
    1644:	4083      	lsls	r3, r0
    1646:	4699      	mov	r9, r3
    1648:	0013      	movs	r3, r2
    164a:	4648      	mov	r0, r9
    164c:	40eb      	lsrs	r3, r5
    164e:	4318      	orrs	r0, r3
    1650:	0003      	movs	r3, r0
    1652:	4650      	mov	r0, sl
    1654:	4082      	lsls	r2, r0
    1656:	1e50      	subs	r0, r2, #1
    1658:	4182      	sbcs	r2, r0
    165a:	40e9      	lsrs	r1, r5
    165c:	431a      	orrs	r2, r3
    165e:	1aba      	subs	r2, r7, r2
    1660:	1a61      	subs	r1, r4, r1
    1662:	4297      	cmp	r7, r2
    1664:	41a4      	sbcs	r4, r4
    1666:	0017      	movs	r7, r2
    1668:	4264      	negs	r4, r4
    166a:	1b0c      	subs	r4, r1, r4
    166c:	0223      	lsls	r3, r4, #8
    166e:	d562      	bpl.n	1736 <__aeabi_dadd+0x17a>
    1670:	0264      	lsls	r4, r4, #9
    1672:	0a65      	lsrs	r5, r4, #9
    1674:	2d00      	cmp	r5, #0
    1676:	d100      	bne.n	167a <__aeabi_dadd+0xbe>
    1678:	e0df      	b.n	183a <__aeabi_dadd+0x27e>
    167a:	0028      	movs	r0, r5
    167c:	f000 fe84 	bl	2388 <__clzsi2>
    1680:	0003      	movs	r3, r0
    1682:	3b08      	subs	r3, #8
    1684:	2b1f      	cmp	r3, #31
    1686:	dd00      	ble.n	168a <__aeabi_dadd+0xce>
    1688:	e0d2      	b.n	1830 <__aeabi_dadd+0x274>
    168a:	2220      	movs	r2, #32
    168c:	003c      	movs	r4, r7
    168e:	1ad2      	subs	r2, r2, r3
    1690:	409d      	lsls	r5, r3
    1692:	40d4      	lsrs	r4, r2
    1694:	409f      	lsls	r7, r3
    1696:	4325      	orrs	r5, r4
    1698:	429e      	cmp	r6, r3
    169a:	dd00      	ble.n	169e <__aeabi_dadd+0xe2>
    169c:	e0c4      	b.n	1828 <__aeabi_dadd+0x26c>
    169e:	1b9e      	subs	r6, r3, r6
    16a0:	1c73      	adds	r3, r6, #1
    16a2:	2b1f      	cmp	r3, #31
    16a4:	dd00      	ble.n	16a8 <__aeabi_dadd+0xec>
    16a6:	e0f1      	b.n	188c <__aeabi_dadd+0x2d0>
    16a8:	2220      	movs	r2, #32
    16aa:	0038      	movs	r0, r7
    16ac:	0029      	movs	r1, r5
    16ae:	1ad2      	subs	r2, r2, r3
    16b0:	40d8      	lsrs	r0, r3
    16b2:	4091      	lsls	r1, r2
    16b4:	4097      	lsls	r7, r2
    16b6:	002c      	movs	r4, r5
    16b8:	4301      	orrs	r1, r0
    16ba:	1e78      	subs	r0, r7, #1
    16bc:	4187      	sbcs	r7, r0
    16be:	40dc      	lsrs	r4, r3
    16c0:	2600      	movs	r6, #0
    16c2:	430f      	orrs	r7, r1
    16c4:	077b      	lsls	r3, r7, #29
    16c6:	d009      	beq.n	16dc <__aeabi_dadd+0x120>
    16c8:	230f      	movs	r3, #15
    16ca:	403b      	ands	r3, r7
    16cc:	2b04      	cmp	r3, #4
    16ce:	d005      	beq.n	16dc <__aeabi_dadd+0x120>
    16d0:	1d3b      	adds	r3, r7, #4
    16d2:	42bb      	cmp	r3, r7
    16d4:	41bf      	sbcs	r7, r7
    16d6:	427f      	negs	r7, r7
    16d8:	19e4      	adds	r4, r4, r7
    16da:	001f      	movs	r7, r3
    16dc:	0223      	lsls	r3, r4, #8
    16de:	d52c      	bpl.n	173a <__aeabi_dadd+0x17e>
    16e0:	4b96      	ldr	r3, [pc, #600]	; (193c <__aeabi_dadd+0x380>)
    16e2:	3601      	adds	r6, #1
    16e4:	429e      	cmp	r6, r3
    16e6:	d100      	bne.n	16ea <__aeabi_dadd+0x12e>
    16e8:	e09a      	b.n	1820 <__aeabi_dadd+0x264>
    16ea:	4645      	mov	r5, r8
    16ec:	4b94      	ldr	r3, [pc, #592]	; (1940 <__aeabi_dadd+0x384>)
    16ee:	08ff      	lsrs	r7, r7, #3
    16f0:	401c      	ands	r4, r3
    16f2:	0760      	lsls	r0, r4, #29
    16f4:	0576      	lsls	r6, r6, #21
    16f6:	0264      	lsls	r4, r4, #9
    16f8:	4307      	orrs	r7, r0
    16fa:	0b24      	lsrs	r4, r4, #12
    16fc:	0d76      	lsrs	r6, r6, #21
    16fe:	2100      	movs	r1, #0
    1700:	0324      	lsls	r4, r4, #12
    1702:	0b23      	lsrs	r3, r4, #12
    1704:	0d0c      	lsrs	r4, r1, #20
    1706:	4a8f      	ldr	r2, [pc, #572]	; (1944 <__aeabi_dadd+0x388>)
    1708:	0524      	lsls	r4, r4, #20
    170a:	431c      	orrs	r4, r3
    170c:	4014      	ands	r4, r2
    170e:	0533      	lsls	r3, r6, #20
    1710:	4323      	orrs	r3, r4
    1712:	005b      	lsls	r3, r3, #1
    1714:	07ed      	lsls	r5, r5, #31
    1716:	085b      	lsrs	r3, r3, #1
    1718:	432b      	orrs	r3, r5
    171a:	0038      	movs	r0, r7
    171c:	0019      	movs	r1, r3
    171e:	bc3c      	pop	{r2, r3, r4, r5}
    1720:	4690      	mov	r8, r2
    1722:	4699      	mov	r9, r3
    1724:	46a2      	mov	sl, r4
    1726:	46ab      	mov	fp, r5
    1728:	bdf8      	pop	{r3, r4, r5, r6, r7, pc}
    172a:	4664      	mov	r4, ip
    172c:	4304      	orrs	r4, r0
    172e:	d100      	bne.n	1732 <__aeabi_dadd+0x176>
    1730:	e211      	b.n	1b56 <__aeabi_dadd+0x59a>
    1732:	0004      	movs	r4, r0
    1734:	4667      	mov	r7, ip
    1736:	077b      	lsls	r3, r7, #29
    1738:	d1c6      	bne.n	16c8 <__aeabi_dadd+0x10c>
    173a:	4645      	mov	r5, r8
    173c:	0760      	lsls	r0, r4, #29
    173e:	08ff      	lsrs	r7, r7, #3
    1740:	4307      	orrs	r7, r0
    1742:	08e4      	lsrs	r4, r4, #3
    1744:	4b7d      	ldr	r3, [pc, #500]	; (193c <__aeabi_dadd+0x380>)
    1746:	429e      	cmp	r6, r3
    1748:	d030      	beq.n	17ac <__aeabi_dadd+0x1f0>
    174a:	0324      	lsls	r4, r4, #12
    174c:	0576      	lsls	r6, r6, #21
    174e:	0b24      	lsrs	r4, r4, #12
    1750:	0d76      	lsrs	r6, r6, #21
    1752:	e7d4      	b.n	16fe <__aeabi_dadd+0x142>
    1754:	1a33      	subs	r3, r6, r0
    1756:	469a      	mov	sl, r3
    1758:	2b00      	cmp	r3, #0
    175a:	dd78      	ble.n	184e <__aeabi_dadd+0x292>
    175c:	2800      	cmp	r0, #0
    175e:	d031      	beq.n	17c4 <__aeabi_dadd+0x208>
    1760:	4876      	ldr	r0, [pc, #472]	; (193c <__aeabi_dadd+0x380>)
    1762:	4286      	cmp	r6, r0
    1764:	d0ae      	beq.n	16c4 <__aeabi_dadd+0x108>
    1766:	2080      	movs	r0, #128	; 0x80
    1768:	0400      	lsls	r0, r0, #16
    176a:	4301      	orrs	r1, r0
    176c:	4653      	mov	r3, sl
    176e:	2b38      	cmp	r3, #56	; 0x38
    1770:	dc00      	bgt.n	1774 <__aeabi_dadd+0x1b8>
    1772:	e0e9      	b.n	1948 <__aeabi_dadd+0x38c>
    1774:	430a      	orrs	r2, r1
    1776:	1e51      	subs	r1, r2, #1
    1778:	418a      	sbcs	r2, r1
    177a:	2100      	movs	r1, #0
    177c:	19d2      	adds	r2, r2, r7
    177e:	42ba      	cmp	r2, r7
    1780:	41bf      	sbcs	r7, r7
    1782:	1909      	adds	r1, r1, r4
    1784:	427c      	negs	r4, r7
    1786:	0017      	movs	r7, r2
    1788:	190c      	adds	r4, r1, r4
    178a:	0223      	lsls	r3, r4, #8
    178c:	d5d3      	bpl.n	1736 <__aeabi_dadd+0x17a>
    178e:	4b6b      	ldr	r3, [pc, #428]	; (193c <__aeabi_dadd+0x380>)
    1790:	3601      	adds	r6, #1
    1792:	429e      	cmp	r6, r3
    1794:	d100      	bne.n	1798 <__aeabi_dadd+0x1dc>
    1796:	e13a      	b.n	1a0e <__aeabi_dadd+0x452>
    1798:	2001      	movs	r0, #1
    179a:	4b69      	ldr	r3, [pc, #420]	; (1940 <__aeabi_dadd+0x384>)
    179c:	401c      	ands	r4, r3
    179e:	087b      	lsrs	r3, r7, #1
    17a0:	4007      	ands	r7, r0
    17a2:	431f      	orrs	r7, r3
    17a4:	07e0      	lsls	r0, r4, #31
    17a6:	4307      	orrs	r7, r0
    17a8:	0864      	lsrs	r4, r4, #1
    17aa:	e78b      	b.n	16c4 <__aeabi_dadd+0x108>
    17ac:	0023      	movs	r3, r4
    17ae:	433b      	orrs	r3, r7
    17b0:	d100      	bne.n	17b4 <__aeabi_dadd+0x1f8>
    17b2:	e1cb      	b.n	1b4c <__aeabi_dadd+0x590>
    17b4:	2280      	movs	r2, #128	; 0x80
    17b6:	0312      	lsls	r2, r2, #12
    17b8:	4314      	orrs	r4, r2
    17ba:	0324      	lsls	r4, r4, #12
    17bc:	0b24      	lsrs	r4, r4, #12
    17be:	e79e      	b.n	16fe <__aeabi_dadd+0x142>
    17c0:	002e      	movs	r6, r5
    17c2:	e77f      	b.n	16c4 <__aeabi_dadd+0x108>
    17c4:	0008      	movs	r0, r1
    17c6:	4310      	orrs	r0, r2
    17c8:	d100      	bne.n	17cc <__aeabi_dadd+0x210>
    17ca:	e0b4      	b.n	1936 <__aeabi_dadd+0x37a>
    17cc:	1e58      	subs	r0, r3, #1
    17ce:	2800      	cmp	r0, #0
    17d0:	d000      	beq.n	17d4 <__aeabi_dadd+0x218>
    17d2:	e0de      	b.n	1992 <__aeabi_dadd+0x3d6>
    17d4:	18ba      	adds	r2, r7, r2
    17d6:	42ba      	cmp	r2, r7
    17d8:	419b      	sbcs	r3, r3
    17da:	1864      	adds	r4, r4, r1
    17dc:	425b      	negs	r3, r3
    17de:	18e4      	adds	r4, r4, r3
    17e0:	0017      	movs	r7, r2
    17e2:	2601      	movs	r6, #1
    17e4:	0223      	lsls	r3, r4, #8
    17e6:	d5a6      	bpl.n	1736 <__aeabi_dadd+0x17a>
    17e8:	2602      	movs	r6, #2
    17ea:	e7d5      	b.n	1798 <__aeabi_dadd+0x1dc>
    17ec:	2d00      	cmp	r5, #0
    17ee:	d16e      	bne.n	18ce <__aeabi_dadd+0x312>
    17f0:	1c70      	adds	r0, r6, #1
    17f2:	0540      	lsls	r0, r0, #21
    17f4:	0d40      	lsrs	r0, r0, #21
    17f6:	2801      	cmp	r0, #1
    17f8:	dc00      	bgt.n	17fc <__aeabi_dadd+0x240>
    17fa:	e0f9      	b.n	19f0 <__aeabi_dadd+0x434>
    17fc:	1ab8      	subs	r0, r7, r2
    17fe:	4684      	mov	ip, r0
    1800:	4287      	cmp	r7, r0
    1802:	4180      	sbcs	r0, r0
    1804:	1ae5      	subs	r5, r4, r3
    1806:	4240      	negs	r0, r0
    1808:	1a2d      	subs	r5, r5, r0
    180a:	0228      	lsls	r0, r5, #8
    180c:	d400      	bmi.n	1810 <__aeabi_dadd+0x254>
    180e:	e089      	b.n	1924 <__aeabi_dadd+0x368>
    1810:	1bd7      	subs	r7, r2, r7
    1812:	42ba      	cmp	r2, r7
    1814:	4192      	sbcs	r2, r2
    1816:	1b1c      	subs	r4, r3, r4
    1818:	4252      	negs	r2, r2
    181a:	1aa5      	subs	r5, r4, r2
    181c:	46d8      	mov	r8, fp
    181e:	e729      	b.n	1674 <__aeabi_dadd+0xb8>
    1820:	4645      	mov	r5, r8
    1822:	2400      	movs	r4, #0
    1824:	2700      	movs	r7, #0
    1826:	e76a      	b.n	16fe <__aeabi_dadd+0x142>
    1828:	4c45      	ldr	r4, [pc, #276]	; (1940 <__aeabi_dadd+0x384>)
    182a:	1af6      	subs	r6, r6, r3
    182c:	402c      	ands	r4, r5
    182e:	e749      	b.n	16c4 <__aeabi_dadd+0x108>
    1830:	003d      	movs	r5, r7
    1832:	3828      	subs	r0, #40	; 0x28
    1834:	4085      	lsls	r5, r0
    1836:	2700      	movs	r7, #0
    1838:	e72e      	b.n	1698 <__aeabi_dadd+0xdc>
    183a:	0038      	movs	r0, r7
    183c:	f000 fda4 	bl	2388 <__clzsi2>
    1840:	3020      	adds	r0, #32
    1842:	e71d      	b.n	1680 <__aeabi_dadd+0xc4>
    1844:	430a      	orrs	r2, r1
    1846:	1e51      	subs	r1, r2, #1
    1848:	418a      	sbcs	r2, r1
    184a:	2100      	movs	r1, #0
    184c:	e707      	b.n	165e <__aeabi_dadd+0xa2>
    184e:	2b00      	cmp	r3, #0
    1850:	d000      	beq.n	1854 <__aeabi_dadd+0x298>
    1852:	e0f3      	b.n	1a3c <__aeabi_dadd+0x480>
    1854:	1c70      	adds	r0, r6, #1
    1856:	0543      	lsls	r3, r0, #21
    1858:	0d5b      	lsrs	r3, r3, #21
    185a:	2b01      	cmp	r3, #1
    185c:	dc00      	bgt.n	1860 <__aeabi_dadd+0x2a4>
    185e:	e0ad      	b.n	19bc <__aeabi_dadd+0x400>
    1860:	4b36      	ldr	r3, [pc, #216]	; (193c <__aeabi_dadd+0x380>)
    1862:	4298      	cmp	r0, r3
    1864:	d100      	bne.n	1868 <__aeabi_dadd+0x2ac>
    1866:	e0d1      	b.n	1a0c <__aeabi_dadd+0x450>
    1868:	18ba      	adds	r2, r7, r2
    186a:	42ba      	cmp	r2, r7
    186c:	41bf      	sbcs	r7, r7
    186e:	1864      	adds	r4, r4, r1
    1870:	427f      	negs	r7, r7
    1872:	19e4      	adds	r4, r4, r7
    1874:	07e7      	lsls	r7, r4, #31
    1876:	0852      	lsrs	r2, r2, #1
    1878:	4317      	orrs	r7, r2
    187a:	0864      	lsrs	r4, r4, #1
    187c:	0006      	movs	r6, r0
    187e:	e721      	b.n	16c4 <__aeabi_dadd+0x108>
    1880:	482e      	ldr	r0, [pc, #184]	; (193c <__aeabi_dadd+0x380>)
    1882:	4285      	cmp	r5, r0
    1884:	d100      	bne.n	1888 <__aeabi_dadd+0x2cc>
    1886:	e093      	b.n	19b0 <__aeabi_dadd+0x3f4>
    1888:	001d      	movs	r5, r3
    188a:	e6d0      	b.n	162e <__aeabi_dadd+0x72>
    188c:	0029      	movs	r1, r5
    188e:	3e1f      	subs	r6, #31
    1890:	40f1      	lsrs	r1, r6
    1892:	2b20      	cmp	r3, #32
    1894:	d100      	bne.n	1898 <__aeabi_dadd+0x2dc>
    1896:	e08d      	b.n	19b4 <__aeabi_dadd+0x3f8>
    1898:	2240      	movs	r2, #64	; 0x40
    189a:	1ad3      	subs	r3, r2, r3
    189c:	409d      	lsls	r5, r3
    189e:	432f      	orrs	r7, r5
    18a0:	1e7d      	subs	r5, r7, #1
    18a2:	41af      	sbcs	r7, r5
    18a4:	2400      	movs	r4, #0
    18a6:	430f      	orrs	r7, r1
    18a8:	2600      	movs	r6, #0
    18aa:	e744      	b.n	1736 <__aeabi_dadd+0x17a>
    18ac:	002b      	movs	r3, r5
    18ae:	0008      	movs	r0, r1
    18b0:	3b20      	subs	r3, #32
    18b2:	40d8      	lsrs	r0, r3
    18b4:	0003      	movs	r3, r0
    18b6:	2d20      	cmp	r5, #32
    18b8:	d100      	bne.n	18bc <__aeabi_dadd+0x300>
    18ba:	e07d      	b.n	19b8 <__aeabi_dadd+0x3fc>
    18bc:	2040      	movs	r0, #64	; 0x40
    18be:	1b45      	subs	r5, r0, r5
    18c0:	40a9      	lsls	r1, r5
    18c2:	430a      	orrs	r2, r1
    18c4:	1e51      	subs	r1, r2, #1
    18c6:	418a      	sbcs	r2, r1
    18c8:	2100      	movs	r1, #0
    18ca:	431a      	orrs	r2, r3
    18cc:	e6c7      	b.n	165e <__aeabi_dadd+0xa2>
    18ce:	2e00      	cmp	r6, #0
    18d0:	d050      	beq.n	1974 <__aeabi_dadd+0x3b8>
    18d2:	4e1a      	ldr	r6, [pc, #104]	; (193c <__aeabi_dadd+0x380>)
    18d4:	42b0      	cmp	r0, r6
    18d6:	d057      	beq.n	1988 <__aeabi_dadd+0x3cc>
    18d8:	2680      	movs	r6, #128	; 0x80
    18da:	426b      	negs	r3, r5
    18dc:	4699      	mov	r9, r3
    18de:	0436      	lsls	r6, r6, #16
    18e0:	4334      	orrs	r4, r6
    18e2:	464b      	mov	r3, r9
    18e4:	2b38      	cmp	r3, #56	; 0x38
    18e6:	dd00      	ble.n	18ea <__aeabi_dadd+0x32e>
    18e8:	e0d6      	b.n	1a98 <__aeabi_dadd+0x4dc>
    18ea:	2b1f      	cmp	r3, #31
    18ec:	dd00      	ble.n	18f0 <__aeabi_dadd+0x334>
    18ee:	e135      	b.n	1b5c <__aeabi_dadd+0x5a0>
    18f0:	2620      	movs	r6, #32
    18f2:	1af5      	subs	r5, r6, r3
    18f4:	0026      	movs	r6, r4
    18f6:	40ae      	lsls	r6, r5
    18f8:	46b2      	mov	sl, r6
    18fa:	003e      	movs	r6, r7
    18fc:	40de      	lsrs	r6, r3
    18fe:	46ac      	mov	ip, r5
    1900:	0035      	movs	r5, r6
    1902:	4656      	mov	r6, sl
    1904:	432e      	orrs	r6, r5
    1906:	4665      	mov	r5, ip
    1908:	40af      	lsls	r7, r5
    190a:	1e7d      	subs	r5, r7, #1
    190c:	41af      	sbcs	r7, r5
    190e:	40dc      	lsrs	r4, r3
    1910:	4337      	orrs	r7, r6
    1912:	1bd7      	subs	r7, r2, r7
    1914:	42ba      	cmp	r2, r7
    1916:	4192      	sbcs	r2, r2
    1918:	1b0c      	subs	r4, r1, r4
    191a:	4252      	negs	r2, r2
    191c:	1aa4      	subs	r4, r4, r2
    191e:	0006      	movs	r6, r0
    1920:	46d8      	mov	r8, fp
    1922:	e6a3      	b.n	166c <__aeabi_dadd+0xb0>
    1924:	4664      	mov	r4, ip
    1926:	4667      	mov	r7, ip
    1928:	432c      	orrs	r4, r5
    192a:	d000      	beq.n	192e <__aeabi_dadd+0x372>
    192c:	e6a2      	b.n	1674 <__aeabi_dadd+0xb8>
    192e:	2500      	movs	r5, #0
    1930:	2600      	movs	r6, #0
    1932:	2700      	movs	r7, #0
    1934:	e706      	b.n	1744 <__aeabi_dadd+0x188>
    1936:	001e      	movs	r6, r3
    1938:	e6c4      	b.n	16c4 <__aeabi_dadd+0x108>
    193a:	46c0      	nop			; (mov r8, r8)
    193c:	000007ff 	.word	0x000007ff
    1940:	ff7fffff 	.word	0xff7fffff
    1944:	800fffff 	.word	0x800fffff
    1948:	2b1f      	cmp	r3, #31
    194a:	dc63      	bgt.n	1a14 <__aeabi_dadd+0x458>
    194c:	2020      	movs	r0, #32
    194e:	1ac3      	subs	r3, r0, r3
    1950:	0008      	movs	r0, r1
    1952:	4098      	lsls	r0, r3
    1954:	469c      	mov	ip, r3
    1956:	4683      	mov	fp, r0
    1958:	4653      	mov	r3, sl
    195a:	0010      	movs	r0, r2
    195c:	40d8      	lsrs	r0, r3
    195e:	0003      	movs	r3, r0
    1960:	4658      	mov	r0, fp
    1962:	4318      	orrs	r0, r3
    1964:	4663      	mov	r3, ip
    1966:	409a      	lsls	r2, r3
    1968:	1e53      	subs	r3, r2, #1
    196a:	419a      	sbcs	r2, r3
    196c:	4653      	mov	r3, sl
    196e:	4302      	orrs	r2, r0
    1970:	40d9      	lsrs	r1, r3
    1972:	e703      	b.n	177c <__aeabi_dadd+0x1c0>
    1974:	0026      	movs	r6, r4
    1976:	433e      	orrs	r6, r7
    1978:	d006      	beq.n	1988 <__aeabi_dadd+0x3cc>
    197a:	43eb      	mvns	r3, r5
    197c:	4699      	mov	r9, r3
    197e:	2b00      	cmp	r3, #0
    1980:	d0c7      	beq.n	1912 <__aeabi_dadd+0x356>
    1982:	4e94      	ldr	r6, [pc, #592]	; (1bd4 <__aeabi_dadd+0x618>)
    1984:	42b0      	cmp	r0, r6
    1986:	d1ac      	bne.n	18e2 <__aeabi_dadd+0x326>
    1988:	000c      	movs	r4, r1
    198a:	0017      	movs	r7, r2
    198c:	0006      	movs	r6, r0
    198e:	46d8      	mov	r8, fp
    1990:	e698      	b.n	16c4 <__aeabi_dadd+0x108>
    1992:	4b90      	ldr	r3, [pc, #576]	; (1bd4 <__aeabi_dadd+0x618>)
    1994:	459a      	cmp	sl, r3
    1996:	d00b      	beq.n	19b0 <__aeabi_dadd+0x3f4>
    1998:	4682      	mov	sl, r0
    199a:	e6e7      	b.n	176c <__aeabi_dadd+0x1b0>
    199c:	2800      	cmp	r0, #0
    199e:	d000      	beq.n	19a2 <__aeabi_dadd+0x3e6>
    19a0:	e09e      	b.n	1ae0 <__aeabi_dadd+0x524>
    19a2:	0018      	movs	r0, r3
    19a4:	4310      	orrs	r0, r2
    19a6:	d100      	bne.n	19aa <__aeabi_dadd+0x3ee>
    19a8:	e0e9      	b.n	1b7e <__aeabi_dadd+0x5c2>
    19aa:	001c      	movs	r4, r3
    19ac:	0017      	movs	r7, r2
    19ae:	46d8      	mov	r8, fp
    19b0:	4e88      	ldr	r6, [pc, #544]	; (1bd4 <__aeabi_dadd+0x618>)
    19b2:	e687      	b.n	16c4 <__aeabi_dadd+0x108>
    19b4:	2500      	movs	r5, #0
    19b6:	e772      	b.n	189e <__aeabi_dadd+0x2e2>
    19b8:	2100      	movs	r1, #0
    19ba:	e782      	b.n	18c2 <__aeabi_dadd+0x306>
    19bc:	0023      	movs	r3, r4
    19be:	433b      	orrs	r3, r7
    19c0:	2e00      	cmp	r6, #0
    19c2:	d000      	beq.n	19c6 <__aeabi_dadd+0x40a>
    19c4:	e0ab      	b.n	1b1e <__aeabi_dadd+0x562>
    19c6:	2b00      	cmp	r3, #0
    19c8:	d100      	bne.n	19cc <__aeabi_dadd+0x410>
    19ca:	e0e7      	b.n	1b9c <__aeabi_dadd+0x5e0>
    19cc:	000b      	movs	r3, r1
    19ce:	4313      	orrs	r3, r2
    19d0:	d100      	bne.n	19d4 <__aeabi_dadd+0x418>
    19d2:	e677      	b.n	16c4 <__aeabi_dadd+0x108>
    19d4:	18ba      	adds	r2, r7, r2
    19d6:	42ba      	cmp	r2, r7
    19d8:	41bf      	sbcs	r7, r7
    19da:	1864      	adds	r4, r4, r1
    19dc:	427f      	negs	r7, r7
    19de:	19e4      	adds	r4, r4, r7
    19e0:	0223      	lsls	r3, r4, #8
    19e2:	d400      	bmi.n	19e6 <__aeabi_dadd+0x42a>
    19e4:	e0f2      	b.n	1bcc <__aeabi_dadd+0x610>
    19e6:	4b7c      	ldr	r3, [pc, #496]	; (1bd8 <__aeabi_dadd+0x61c>)
    19e8:	0017      	movs	r7, r2
    19ea:	401c      	ands	r4, r3
    19ec:	0006      	movs	r6, r0
    19ee:	e669      	b.n	16c4 <__aeabi_dadd+0x108>
    19f0:	0020      	movs	r0, r4
    19f2:	4338      	orrs	r0, r7
    19f4:	2e00      	cmp	r6, #0
    19f6:	d1d1      	bne.n	199c <__aeabi_dadd+0x3e0>
    19f8:	2800      	cmp	r0, #0
    19fa:	d15b      	bne.n	1ab4 <__aeabi_dadd+0x4f8>
    19fc:	001c      	movs	r4, r3
    19fe:	4314      	orrs	r4, r2
    1a00:	d100      	bne.n	1a04 <__aeabi_dadd+0x448>
    1a02:	e0a8      	b.n	1b56 <__aeabi_dadd+0x59a>
    1a04:	001c      	movs	r4, r3
    1a06:	0017      	movs	r7, r2
    1a08:	46d8      	mov	r8, fp
    1a0a:	e65b      	b.n	16c4 <__aeabi_dadd+0x108>
    1a0c:	0006      	movs	r6, r0
    1a0e:	2400      	movs	r4, #0
    1a10:	2700      	movs	r7, #0
    1a12:	e697      	b.n	1744 <__aeabi_dadd+0x188>
    1a14:	4650      	mov	r0, sl
    1a16:	000b      	movs	r3, r1
    1a18:	3820      	subs	r0, #32
    1a1a:	40c3      	lsrs	r3, r0
    1a1c:	4699      	mov	r9, r3
    1a1e:	4653      	mov	r3, sl
    1a20:	2b20      	cmp	r3, #32
    1a22:	d100      	bne.n	1a26 <__aeabi_dadd+0x46a>
    1a24:	e095      	b.n	1b52 <__aeabi_dadd+0x596>
    1a26:	2340      	movs	r3, #64	; 0x40
    1a28:	4650      	mov	r0, sl
    1a2a:	1a1b      	subs	r3, r3, r0
    1a2c:	4099      	lsls	r1, r3
    1a2e:	430a      	orrs	r2, r1
    1a30:	1e51      	subs	r1, r2, #1
    1a32:	418a      	sbcs	r2, r1
    1a34:	464b      	mov	r3, r9
    1a36:	2100      	movs	r1, #0
    1a38:	431a      	orrs	r2, r3
    1a3a:	e69f      	b.n	177c <__aeabi_dadd+0x1c0>
    1a3c:	2e00      	cmp	r6, #0
    1a3e:	d130      	bne.n	1aa2 <__aeabi_dadd+0x4e6>
    1a40:	0026      	movs	r6, r4
    1a42:	433e      	orrs	r6, r7
    1a44:	d067      	beq.n	1b16 <__aeabi_dadd+0x55a>
    1a46:	43db      	mvns	r3, r3
    1a48:	469a      	mov	sl, r3
    1a4a:	2b00      	cmp	r3, #0
    1a4c:	d01c      	beq.n	1a88 <__aeabi_dadd+0x4cc>
    1a4e:	4e61      	ldr	r6, [pc, #388]	; (1bd4 <__aeabi_dadd+0x618>)
    1a50:	42b0      	cmp	r0, r6
    1a52:	d060      	beq.n	1b16 <__aeabi_dadd+0x55a>
    1a54:	4653      	mov	r3, sl
    1a56:	2b38      	cmp	r3, #56	; 0x38
    1a58:	dd00      	ble.n	1a5c <__aeabi_dadd+0x4a0>
    1a5a:	e096      	b.n	1b8a <__aeabi_dadd+0x5ce>
    1a5c:	2b1f      	cmp	r3, #31
    1a5e:	dd00      	ble.n	1a62 <__aeabi_dadd+0x4a6>
    1a60:	e09f      	b.n	1ba2 <__aeabi_dadd+0x5e6>
    1a62:	2620      	movs	r6, #32
    1a64:	1af3      	subs	r3, r6, r3
    1a66:	0026      	movs	r6, r4
    1a68:	409e      	lsls	r6, r3
    1a6a:	469c      	mov	ip, r3
    1a6c:	46b3      	mov	fp, r6
    1a6e:	4653      	mov	r3, sl
    1a70:	003e      	movs	r6, r7
    1a72:	40de      	lsrs	r6, r3
    1a74:	0033      	movs	r3, r6
    1a76:	465e      	mov	r6, fp
    1a78:	431e      	orrs	r6, r3
    1a7a:	4663      	mov	r3, ip
    1a7c:	409f      	lsls	r7, r3
    1a7e:	1e7b      	subs	r3, r7, #1
    1a80:	419f      	sbcs	r7, r3
    1a82:	4653      	mov	r3, sl
    1a84:	40dc      	lsrs	r4, r3
    1a86:	4337      	orrs	r7, r6
    1a88:	18bf      	adds	r7, r7, r2
    1a8a:	4297      	cmp	r7, r2
    1a8c:	4192      	sbcs	r2, r2
    1a8e:	1864      	adds	r4, r4, r1
    1a90:	4252      	negs	r2, r2
    1a92:	18a4      	adds	r4, r4, r2
    1a94:	0006      	movs	r6, r0
    1a96:	e678      	b.n	178a <__aeabi_dadd+0x1ce>
    1a98:	4327      	orrs	r7, r4
    1a9a:	1e7c      	subs	r4, r7, #1
    1a9c:	41a7      	sbcs	r7, r4
    1a9e:	2400      	movs	r4, #0
    1aa0:	e737      	b.n	1912 <__aeabi_dadd+0x356>
    1aa2:	4e4c      	ldr	r6, [pc, #304]	; (1bd4 <__aeabi_dadd+0x618>)
    1aa4:	42b0      	cmp	r0, r6
    1aa6:	d036      	beq.n	1b16 <__aeabi_dadd+0x55a>
    1aa8:	2680      	movs	r6, #128	; 0x80
    1aaa:	425b      	negs	r3, r3
    1aac:	0436      	lsls	r6, r6, #16
    1aae:	469a      	mov	sl, r3
    1ab0:	4334      	orrs	r4, r6
    1ab2:	e7cf      	b.n	1a54 <__aeabi_dadd+0x498>
    1ab4:	0018      	movs	r0, r3
    1ab6:	4310      	orrs	r0, r2
    1ab8:	d100      	bne.n	1abc <__aeabi_dadd+0x500>
    1aba:	e603      	b.n	16c4 <__aeabi_dadd+0x108>
    1abc:	1ab8      	subs	r0, r7, r2
    1abe:	4684      	mov	ip, r0
    1ac0:	4567      	cmp	r7, ip
    1ac2:	41ad      	sbcs	r5, r5
    1ac4:	1ae0      	subs	r0, r4, r3
    1ac6:	426d      	negs	r5, r5
    1ac8:	1b40      	subs	r0, r0, r5
    1aca:	0205      	lsls	r5, r0, #8
    1acc:	d400      	bmi.n	1ad0 <__aeabi_dadd+0x514>
    1ace:	e62c      	b.n	172a <__aeabi_dadd+0x16e>
    1ad0:	1bd7      	subs	r7, r2, r7
    1ad2:	42ba      	cmp	r2, r7
    1ad4:	4192      	sbcs	r2, r2
    1ad6:	1b1c      	subs	r4, r3, r4
    1ad8:	4252      	negs	r2, r2
    1ada:	1aa4      	subs	r4, r4, r2
    1adc:	46d8      	mov	r8, fp
    1ade:	e5f1      	b.n	16c4 <__aeabi_dadd+0x108>
    1ae0:	0018      	movs	r0, r3
    1ae2:	4310      	orrs	r0, r2
    1ae4:	d100      	bne.n	1ae8 <__aeabi_dadd+0x52c>
    1ae6:	e763      	b.n	19b0 <__aeabi_dadd+0x3f4>
    1ae8:	08f8      	lsrs	r0, r7, #3
    1aea:	0767      	lsls	r7, r4, #29
    1aec:	4307      	orrs	r7, r0
    1aee:	2080      	movs	r0, #128	; 0x80
    1af0:	08e4      	lsrs	r4, r4, #3
    1af2:	0300      	lsls	r0, r0, #12
    1af4:	4204      	tst	r4, r0
    1af6:	d008      	beq.n	1b0a <__aeabi_dadd+0x54e>
    1af8:	08dd      	lsrs	r5, r3, #3
    1afa:	4205      	tst	r5, r0
    1afc:	d105      	bne.n	1b0a <__aeabi_dadd+0x54e>
    1afe:	08d2      	lsrs	r2, r2, #3
    1b00:	0759      	lsls	r1, r3, #29
    1b02:	4311      	orrs	r1, r2
    1b04:	000f      	movs	r7, r1
    1b06:	002c      	movs	r4, r5
    1b08:	46d8      	mov	r8, fp
    1b0a:	0f7b      	lsrs	r3, r7, #29
    1b0c:	00e4      	lsls	r4, r4, #3
    1b0e:	431c      	orrs	r4, r3
    1b10:	00ff      	lsls	r7, r7, #3
    1b12:	4e30      	ldr	r6, [pc, #192]	; (1bd4 <__aeabi_dadd+0x618>)
    1b14:	e5d6      	b.n	16c4 <__aeabi_dadd+0x108>
    1b16:	000c      	movs	r4, r1
    1b18:	0017      	movs	r7, r2
    1b1a:	0006      	movs	r6, r0
    1b1c:	e5d2      	b.n	16c4 <__aeabi_dadd+0x108>
    1b1e:	2b00      	cmp	r3, #0
    1b20:	d038      	beq.n	1b94 <__aeabi_dadd+0x5d8>
    1b22:	000b      	movs	r3, r1
    1b24:	4313      	orrs	r3, r2
    1b26:	d100      	bne.n	1b2a <__aeabi_dadd+0x56e>
    1b28:	e742      	b.n	19b0 <__aeabi_dadd+0x3f4>
    1b2a:	08f8      	lsrs	r0, r7, #3
    1b2c:	0767      	lsls	r7, r4, #29
    1b2e:	4307      	orrs	r7, r0
    1b30:	2080      	movs	r0, #128	; 0x80
    1b32:	08e4      	lsrs	r4, r4, #3
    1b34:	0300      	lsls	r0, r0, #12
    1b36:	4204      	tst	r4, r0
    1b38:	d0e7      	beq.n	1b0a <__aeabi_dadd+0x54e>
    1b3a:	08cb      	lsrs	r3, r1, #3
    1b3c:	4203      	tst	r3, r0
    1b3e:	d1e4      	bne.n	1b0a <__aeabi_dadd+0x54e>
    1b40:	08d2      	lsrs	r2, r2, #3
    1b42:	0749      	lsls	r1, r1, #29
    1b44:	4311      	orrs	r1, r2
    1b46:	000f      	movs	r7, r1
    1b48:	001c      	movs	r4, r3
    1b4a:	e7de      	b.n	1b0a <__aeabi_dadd+0x54e>
    1b4c:	2700      	movs	r7, #0
    1b4e:	2400      	movs	r4, #0
    1b50:	e5d5      	b.n	16fe <__aeabi_dadd+0x142>
    1b52:	2100      	movs	r1, #0
    1b54:	e76b      	b.n	1a2e <__aeabi_dadd+0x472>
    1b56:	2500      	movs	r5, #0
    1b58:	2700      	movs	r7, #0
    1b5a:	e5f3      	b.n	1744 <__aeabi_dadd+0x188>
    1b5c:	464e      	mov	r6, r9
    1b5e:	0025      	movs	r5, r4
    1b60:	3e20      	subs	r6, #32
    1b62:	40f5      	lsrs	r5, r6
    1b64:	464b      	mov	r3, r9
    1b66:	002e      	movs	r6, r5
    1b68:	2b20      	cmp	r3, #32
    1b6a:	d02d      	beq.n	1bc8 <__aeabi_dadd+0x60c>
    1b6c:	2540      	movs	r5, #64	; 0x40
    1b6e:	1aed      	subs	r5, r5, r3
    1b70:	40ac      	lsls	r4, r5
    1b72:	4327      	orrs	r7, r4
    1b74:	1e7c      	subs	r4, r7, #1
    1b76:	41a7      	sbcs	r7, r4
    1b78:	2400      	movs	r4, #0
    1b7a:	4337      	orrs	r7, r6
    1b7c:	e6c9      	b.n	1912 <__aeabi_dadd+0x356>
    1b7e:	2480      	movs	r4, #128	; 0x80
    1b80:	2500      	movs	r5, #0
    1b82:	0324      	lsls	r4, r4, #12
    1b84:	4e13      	ldr	r6, [pc, #76]	; (1bd4 <__aeabi_dadd+0x618>)
    1b86:	2700      	movs	r7, #0
    1b88:	e5dc      	b.n	1744 <__aeabi_dadd+0x188>
    1b8a:	4327      	orrs	r7, r4
    1b8c:	1e7c      	subs	r4, r7, #1
    1b8e:	41a7      	sbcs	r7, r4
    1b90:	2400      	movs	r4, #0
    1b92:	e779      	b.n	1a88 <__aeabi_dadd+0x4cc>
    1b94:	000c      	movs	r4, r1
    1b96:	0017      	movs	r7, r2
    1b98:	4e0e      	ldr	r6, [pc, #56]	; (1bd4 <__aeabi_dadd+0x618>)
    1b9a:	e593      	b.n	16c4 <__aeabi_dadd+0x108>
    1b9c:	000c      	movs	r4, r1
    1b9e:	0017      	movs	r7, r2
    1ba0:	e590      	b.n	16c4 <__aeabi_dadd+0x108>
    1ba2:	4656      	mov	r6, sl
    1ba4:	0023      	movs	r3, r4
    1ba6:	3e20      	subs	r6, #32
    1ba8:	40f3      	lsrs	r3, r6
    1baa:	4699      	mov	r9, r3
    1bac:	4653      	mov	r3, sl
    1bae:	2b20      	cmp	r3, #32
    1bb0:	d00e      	beq.n	1bd0 <__aeabi_dadd+0x614>
    1bb2:	2340      	movs	r3, #64	; 0x40
    1bb4:	4656      	mov	r6, sl
    1bb6:	1b9b      	subs	r3, r3, r6
    1bb8:	409c      	lsls	r4, r3
    1bba:	4327      	orrs	r7, r4
    1bbc:	1e7c      	subs	r4, r7, #1
    1bbe:	41a7      	sbcs	r7, r4
    1bc0:	464b      	mov	r3, r9
    1bc2:	2400      	movs	r4, #0
    1bc4:	431f      	orrs	r7, r3
    1bc6:	e75f      	b.n	1a88 <__aeabi_dadd+0x4cc>
    1bc8:	2400      	movs	r4, #0
    1bca:	e7d2      	b.n	1b72 <__aeabi_dadd+0x5b6>
    1bcc:	0017      	movs	r7, r2
    1bce:	e5b2      	b.n	1736 <__aeabi_dadd+0x17a>
    1bd0:	2400      	movs	r4, #0
    1bd2:	e7f2      	b.n	1bba <__aeabi_dadd+0x5fe>
    1bd4:	000007ff 	.word	0x000007ff
    1bd8:	ff7fffff 	.word	0xff7fffff

00001bdc <__aeabi_dmul>:
    1bdc:	b5f0      	push	{r4, r5, r6, r7, lr}
    1bde:	4657      	mov	r7, sl
    1be0:	4645      	mov	r5, r8
    1be2:	46de      	mov	lr, fp
    1be4:	464e      	mov	r6, r9
    1be6:	b5e0      	push	{r5, r6, r7, lr}
    1be8:	030c      	lsls	r4, r1, #12
    1bea:	4698      	mov	r8, r3
    1bec:	004e      	lsls	r6, r1, #1
    1bee:	0b23      	lsrs	r3, r4, #12
    1bf0:	b087      	sub	sp, #28
    1bf2:	0007      	movs	r7, r0
    1bf4:	4692      	mov	sl, r2
    1bf6:	469b      	mov	fp, r3
    1bf8:	0d76      	lsrs	r6, r6, #21
    1bfa:	0fcd      	lsrs	r5, r1, #31
    1bfc:	2e00      	cmp	r6, #0
    1bfe:	d06b      	beq.n	1cd8 <__aeabi_dmul+0xfc>
    1c00:	4b6d      	ldr	r3, [pc, #436]	; (1db8 <__aeabi_dmul+0x1dc>)
    1c02:	429e      	cmp	r6, r3
    1c04:	d035      	beq.n	1c72 <__aeabi_dmul+0x96>
    1c06:	2480      	movs	r4, #128	; 0x80
    1c08:	465b      	mov	r3, fp
    1c0a:	0f42      	lsrs	r2, r0, #29
    1c0c:	0424      	lsls	r4, r4, #16
    1c0e:	00db      	lsls	r3, r3, #3
    1c10:	4314      	orrs	r4, r2
    1c12:	431c      	orrs	r4, r3
    1c14:	00c3      	lsls	r3, r0, #3
    1c16:	4699      	mov	r9, r3
    1c18:	4b68      	ldr	r3, [pc, #416]	; (1dbc <__aeabi_dmul+0x1e0>)
    1c1a:	46a3      	mov	fp, r4
    1c1c:	469c      	mov	ip, r3
    1c1e:	2300      	movs	r3, #0
    1c20:	2700      	movs	r7, #0
    1c22:	4466      	add	r6, ip
    1c24:	9302      	str	r3, [sp, #8]
    1c26:	4643      	mov	r3, r8
    1c28:	031c      	lsls	r4, r3, #12
    1c2a:	005a      	lsls	r2, r3, #1
    1c2c:	0fdb      	lsrs	r3, r3, #31
    1c2e:	4650      	mov	r0, sl
    1c30:	0b24      	lsrs	r4, r4, #12
    1c32:	0d52      	lsrs	r2, r2, #21
    1c34:	4698      	mov	r8, r3
    1c36:	d100      	bne.n	1c3a <__aeabi_dmul+0x5e>
    1c38:	e076      	b.n	1d28 <__aeabi_dmul+0x14c>
    1c3a:	4b5f      	ldr	r3, [pc, #380]	; (1db8 <__aeabi_dmul+0x1dc>)
    1c3c:	429a      	cmp	r2, r3
    1c3e:	d06d      	beq.n	1d1c <__aeabi_dmul+0x140>
    1c40:	2380      	movs	r3, #128	; 0x80
    1c42:	0f41      	lsrs	r1, r0, #29
    1c44:	041b      	lsls	r3, r3, #16
    1c46:	430b      	orrs	r3, r1
    1c48:	495c      	ldr	r1, [pc, #368]	; (1dbc <__aeabi_dmul+0x1e0>)
    1c4a:	00e4      	lsls	r4, r4, #3
    1c4c:	468c      	mov	ip, r1
    1c4e:	431c      	orrs	r4, r3
    1c50:	00c3      	lsls	r3, r0, #3
    1c52:	2000      	movs	r0, #0
    1c54:	4462      	add	r2, ip
    1c56:	4641      	mov	r1, r8
    1c58:	18b6      	adds	r6, r6, r2
    1c5a:	4069      	eors	r1, r5
    1c5c:	1c72      	adds	r2, r6, #1
    1c5e:	9101      	str	r1, [sp, #4]
    1c60:	4694      	mov	ip, r2
    1c62:	4307      	orrs	r7, r0
    1c64:	2f0f      	cmp	r7, #15
    1c66:	d900      	bls.n	1c6a <__aeabi_dmul+0x8e>
    1c68:	e0b0      	b.n	1dcc <__aeabi_dmul+0x1f0>
    1c6a:	4a55      	ldr	r2, [pc, #340]	; (1dc0 <__aeabi_dmul+0x1e4>)
    1c6c:	00bf      	lsls	r7, r7, #2
    1c6e:	59d2      	ldr	r2, [r2, r7]
    1c70:	4697      	mov	pc, r2
    1c72:	465b      	mov	r3, fp
    1c74:	4303      	orrs	r3, r0
    1c76:	4699      	mov	r9, r3
    1c78:	d000      	beq.n	1c7c <__aeabi_dmul+0xa0>
    1c7a:	e087      	b.n	1d8c <__aeabi_dmul+0x1b0>
    1c7c:	2300      	movs	r3, #0
    1c7e:	469b      	mov	fp, r3
    1c80:	3302      	adds	r3, #2
    1c82:	2708      	movs	r7, #8
    1c84:	9302      	str	r3, [sp, #8]
    1c86:	e7ce      	b.n	1c26 <__aeabi_dmul+0x4a>
    1c88:	4642      	mov	r2, r8
    1c8a:	9201      	str	r2, [sp, #4]
    1c8c:	2802      	cmp	r0, #2
    1c8e:	d067      	beq.n	1d60 <__aeabi_dmul+0x184>
    1c90:	2803      	cmp	r0, #3
    1c92:	d100      	bne.n	1c96 <__aeabi_dmul+0xba>
    1c94:	e20e      	b.n	20b4 <STACK_SIZE+0xb4>
    1c96:	2801      	cmp	r0, #1
    1c98:	d000      	beq.n	1c9c <__aeabi_dmul+0xc0>
    1c9a:	e162      	b.n	1f62 <__aeabi_dmul+0x386>
    1c9c:	2300      	movs	r3, #0
    1c9e:	2400      	movs	r4, #0
    1ca0:	2200      	movs	r2, #0
    1ca2:	4699      	mov	r9, r3
    1ca4:	9901      	ldr	r1, [sp, #4]
    1ca6:	4001      	ands	r1, r0
    1ca8:	b2cd      	uxtb	r5, r1
    1caa:	2100      	movs	r1, #0
    1cac:	0312      	lsls	r2, r2, #12
    1cae:	0d0b      	lsrs	r3, r1, #20
    1cb0:	0b12      	lsrs	r2, r2, #12
    1cb2:	051b      	lsls	r3, r3, #20
    1cb4:	4313      	orrs	r3, r2
    1cb6:	4a43      	ldr	r2, [pc, #268]	; (1dc4 <__aeabi_dmul+0x1e8>)
    1cb8:	0524      	lsls	r4, r4, #20
    1cba:	4013      	ands	r3, r2
    1cbc:	431c      	orrs	r4, r3
    1cbe:	0064      	lsls	r4, r4, #1
    1cc0:	07ed      	lsls	r5, r5, #31
    1cc2:	0864      	lsrs	r4, r4, #1
    1cc4:	432c      	orrs	r4, r5
    1cc6:	4648      	mov	r0, r9
    1cc8:	0021      	movs	r1, r4
    1cca:	b007      	add	sp, #28
    1ccc:	bc3c      	pop	{r2, r3, r4, r5}
    1cce:	4690      	mov	r8, r2
    1cd0:	4699      	mov	r9, r3
    1cd2:	46a2      	mov	sl, r4
    1cd4:	46ab      	mov	fp, r5
    1cd6:	bdf0      	pop	{r4, r5, r6, r7, pc}
    1cd8:	4303      	orrs	r3, r0
    1cda:	4699      	mov	r9, r3
    1cdc:	d04f      	beq.n	1d7e <__aeabi_dmul+0x1a2>
    1cde:	465b      	mov	r3, fp
    1ce0:	2b00      	cmp	r3, #0
    1ce2:	d100      	bne.n	1ce6 <__aeabi_dmul+0x10a>
    1ce4:	e189      	b.n	1ffa <__aeabi_dmul+0x41e>
    1ce6:	4658      	mov	r0, fp
    1ce8:	f000 fb4e 	bl	2388 <__clzsi2>
    1cec:	0003      	movs	r3, r0
    1cee:	3b0b      	subs	r3, #11
    1cf0:	2b1c      	cmp	r3, #28
    1cf2:	dd00      	ble.n	1cf6 <__aeabi_dmul+0x11a>
    1cf4:	e17a      	b.n	1fec <__aeabi_dmul+0x410>
    1cf6:	221d      	movs	r2, #29
    1cf8:	1ad3      	subs	r3, r2, r3
    1cfa:	003a      	movs	r2, r7
    1cfc:	0001      	movs	r1, r0
    1cfe:	465c      	mov	r4, fp
    1d00:	40da      	lsrs	r2, r3
    1d02:	3908      	subs	r1, #8
    1d04:	408c      	lsls	r4, r1
    1d06:	0013      	movs	r3, r2
    1d08:	408f      	lsls	r7, r1
    1d0a:	4323      	orrs	r3, r4
    1d0c:	469b      	mov	fp, r3
    1d0e:	46b9      	mov	r9, r7
    1d10:	2300      	movs	r3, #0
    1d12:	4e2d      	ldr	r6, [pc, #180]	; (1dc8 <__aeabi_dmul+0x1ec>)
    1d14:	2700      	movs	r7, #0
    1d16:	1a36      	subs	r6, r6, r0
    1d18:	9302      	str	r3, [sp, #8]
    1d1a:	e784      	b.n	1c26 <__aeabi_dmul+0x4a>
    1d1c:	4653      	mov	r3, sl
    1d1e:	4323      	orrs	r3, r4
    1d20:	d12a      	bne.n	1d78 <__aeabi_dmul+0x19c>
    1d22:	2400      	movs	r4, #0
    1d24:	2002      	movs	r0, #2
    1d26:	e796      	b.n	1c56 <__aeabi_dmul+0x7a>
    1d28:	4653      	mov	r3, sl
    1d2a:	4323      	orrs	r3, r4
    1d2c:	d020      	beq.n	1d70 <__aeabi_dmul+0x194>
    1d2e:	2c00      	cmp	r4, #0
    1d30:	d100      	bne.n	1d34 <__aeabi_dmul+0x158>
    1d32:	e157      	b.n	1fe4 <__aeabi_dmul+0x408>
    1d34:	0020      	movs	r0, r4
    1d36:	f000 fb27 	bl	2388 <__clzsi2>
    1d3a:	0003      	movs	r3, r0
    1d3c:	3b0b      	subs	r3, #11
    1d3e:	2b1c      	cmp	r3, #28
    1d40:	dd00      	ble.n	1d44 <__aeabi_dmul+0x168>
    1d42:	e149      	b.n	1fd8 <__aeabi_dmul+0x3fc>
    1d44:	211d      	movs	r1, #29
    1d46:	1acb      	subs	r3, r1, r3
    1d48:	4651      	mov	r1, sl
    1d4a:	0002      	movs	r2, r0
    1d4c:	40d9      	lsrs	r1, r3
    1d4e:	4653      	mov	r3, sl
    1d50:	3a08      	subs	r2, #8
    1d52:	4094      	lsls	r4, r2
    1d54:	4093      	lsls	r3, r2
    1d56:	430c      	orrs	r4, r1
    1d58:	4a1b      	ldr	r2, [pc, #108]	; (1dc8 <__aeabi_dmul+0x1ec>)
    1d5a:	1a12      	subs	r2, r2, r0
    1d5c:	2000      	movs	r0, #0
    1d5e:	e77a      	b.n	1c56 <__aeabi_dmul+0x7a>
    1d60:	2501      	movs	r5, #1
    1d62:	9b01      	ldr	r3, [sp, #4]
    1d64:	4c14      	ldr	r4, [pc, #80]	; (1db8 <__aeabi_dmul+0x1dc>)
    1d66:	401d      	ands	r5, r3
    1d68:	2300      	movs	r3, #0
    1d6a:	2200      	movs	r2, #0
    1d6c:	4699      	mov	r9, r3
    1d6e:	e79c      	b.n	1caa <__aeabi_dmul+0xce>
    1d70:	2400      	movs	r4, #0
    1d72:	2200      	movs	r2, #0
    1d74:	2001      	movs	r0, #1
    1d76:	e76e      	b.n	1c56 <__aeabi_dmul+0x7a>
    1d78:	4653      	mov	r3, sl
    1d7a:	2003      	movs	r0, #3
    1d7c:	e76b      	b.n	1c56 <__aeabi_dmul+0x7a>
    1d7e:	2300      	movs	r3, #0
    1d80:	469b      	mov	fp, r3
    1d82:	3301      	adds	r3, #1
    1d84:	2704      	movs	r7, #4
    1d86:	2600      	movs	r6, #0
    1d88:	9302      	str	r3, [sp, #8]
    1d8a:	e74c      	b.n	1c26 <__aeabi_dmul+0x4a>
    1d8c:	2303      	movs	r3, #3
    1d8e:	4681      	mov	r9, r0
    1d90:	270c      	movs	r7, #12
    1d92:	9302      	str	r3, [sp, #8]
    1d94:	e747      	b.n	1c26 <__aeabi_dmul+0x4a>
    1d96:	2280      	movs	r2, #128	; 0x80
    1d98:	2300      	movs	r3, #0
    1d9a:	2500      	movs	r5, #0
    1d9c:	0312      	lsls	r2, r2, #12
    1d9e:	4699      	mov	r9, r3
    1da0:	4c05      	ldr	r4, [pc, #20]	; (1db8 <__aeabi_dmul+0x1dc>)
    1da2:	e782      	b.n	1caa <__aeabi_dmul+0xce>
    1da4:	465c      	mov	r4, fp
    1da6:	464b      	mov	r3, r9
    1da8:	9802      	ldr	r0, [sp, #8]
    1daa:	e76f      	b.n	1c8c <__aeabi_dmul+0xb0>
    1dac:	465c      	mov	r4, fp
    1dae:	464b      	mov	r3, r9
    1db0:	9501      	str	r5, [sp, #4]
    1db2:	9802      	ldr	r0, [sp, #8]
    1db4:	e76a      	b.n	1c8c <__aeabi_dmul+0xb0>
    1db6:	46c0      	nop			; (mov r8, r8)
    1db8:	000007ff 	.word	0x000007ff
    1dbc:	fffffc01 	.word	0xfffffc01
    1dc0:	0000273c 	.word	0x0000273c
    1dc4:	800fffff 	.word	0x800fffff
    1dc8:	fffffc0d 	.word	0xfffffc0d
    1dcc:	464a      	mov	r2, r9
    1dce:	4649      	mov	r1, r9
    1dd0:	0c17      	lsrs	r7, r2, #16
    1dd2:	0c1a      	lsrs	r2, r3, #16
    1dd4:	041b      	lsls	r3, r3, #16
    1dd6:	0c1b      	lsrs	r3, r3, #16
    1dd8:	0408      	lsls	r0, r1, #16
    1dda:	0019      	movs	r1, r3
    1ddc:	0c00      	lsrs	r0, r0, #16
    1dde:	4341      	muls	r1, r0
    1de0:	0015      	movs	r5, r2
    1de2:	4688      	mov	r8, r1
    1de4:	0019      	movs	r1, r3
    1de6:	437d      	muls	r5, r7
    1de8:	4379      	muls	r1, r7
    1dea:	9503      	str	r5, [sp, #12]
    1dec:	4689      	mov	r9, r1
    1dee:	0029      	movs	r1, r5
    1df0:	0015      	movs	r5, r2
    1df2:	4345      	muls	r5, r0
    1df4:	444d      	add	r5, r9
    1df6:	9502      	str	r5, [sp, #8]
    1df8:	4645      	mov	r5, r8
    1dfa:	0c2d      	lsrs	r5, r5, #16
    1dfc:	46aa      	mov	sl, r5
    1dfe:	9d02      	ldr	r5, [sp, #8]
    1e00:	4455      	add	r5, sl
    1e02:	45a9      	cmp	r9, r5
    1e04:	d906      	bls.n	1e14 <__aeabi_dmul+0x238>
    1e06:	468a      	mov	sl, r1
    1e08:	2180      	movs	r1, #128	; 0x80
    1e0a:	0249      	lsls	r1, r1, #9
    1e0c:	4689      	mov	r9, r1
    1e0e:	44ca      	add	sl, r9
    1e10:	4651      	mov	r1, sl
    1e12:	9103      	str	r1, [sp, #12]
    1e14:	0c29      	lsrs	r1, r5, #16
    1e16:	9104      	str	r1, [sp, #16]
    1e18:	4641      	mov	r1, r8
    1e1a:	0409      	lsls	r1, r1, #16
    1e1c:	042d      	lsls	r5, r5, #16
    1e1e:	0c09      	lsrs	r1, r1, #16
    1e20:	4688      	mov	r8, r1
    1e22:	0029      	movs	r1, r5
    1e24:	0c25      	lsrs	r5, r4, #16
    1e26:	0424      	lsls	r4, r4, #16
    1e28:	4441      	add	r1, r8
    1e2a:	0c24      	lsrs	r4, r4, #16
    1e2c:	9105      	str	r1, [sp, #20]
    1e2e:	0021      	movs	r1, r4
    1e30:	4341      	muls	r1, r0
    1e32:	4688      	mov	r8, r1
    1e34:	0021      	movs	r1, r4
    1e36:	4379      	muls	r1, r7
    1e38:	468a      	mov	sl, r1
    1e3a:	4368      	muls	r0, r5
    1e3c:	4641      	mov	r1, r8
    1e3e:	4450      	add	r0, sl
    1e40:	4681      	mov	r9, r0
    1e42:	0c08      	lsrs	r0, r1, #16
    1e44:	4448      	add	r0, r9
    1e46:	436f      	muls	r7, r5
    1e48:	4582      	cmp	sl, r0
    1e4a:	d903      	bls.n	1e54 <__aeabi_dmul+0x278>
    1e4c:	2180      	movs	r1, #128	; 0x80
    1e4e:	0249      	lsls	r1, r1, #9
    1e50:	4689      	mov	r9, r1
    1e52:	444f      	add	r7, r9
    1e54:	0c01      	lsrs	r1, r0, #16
    1e56:	4689      	mov	r9, r1
    1e58:	0039      	movs	r1, r7
    1e5a:	4449      	add	r1, r9
    1e5c:	9102      	str	r1, [sp, #8]
    1e5e:	4641      	mov	r1, r8
    1e60:	040f      	lsls	r7, r1, #16
    1e62:	9904      	ldr	r1, [sp, #16]
    1e64:	0c3f      	lsrs	r7, r7, #16
    1e66:	4688      	mov	r8, r1
    1e68:	0400      	lsls	r0, r0, #16
    1e6a:	19c0      	adds	r0, r0, r7
    1e6c:	4480      	add	r8, r0
    1e6e:	4641      	mov	r1, r8
    1e70:	9104      	str	r1, [sp, #16]
    1e72:	4659      	mov	r1, fp
    1e74:	0c0f      	lsrs	r7, r1, #16
    1e76:	0409      	lsls	r1, r1, #16
    1e78:	0c09      	lsrs	r1, r1, #16
    1e7a:	4688      	mov	r8, r1
    1e7c:	4359      	muls	r1, r3
    1e7e:	468a      	mov	sl, r1
    1e80:	0039      	movs	r1, r7
    1e82:	4351      	muls	r1, r2
    1e84:	4689      	mov	r9, r1
    1e86:	4641      	mov	r1, r8
    1e88:	434a      	muls	r2, r1
    1e8a:	4651      	mov	r1, sl
    1e8c:	0c09      	lsrs	r1, r1, #16
    1e8e:	468b      	mov	fp, r1
    1e90:	437b      	muls	r3, r7
    1e92:	18d2      	adds	r2, r2, r3
    1e94:	445a      	add	r2, fp
    1e96:	4293      	cmp	r3, r2
    1e98:	d903      	bls.n	1ea2 <__aeabi_dmul+0x2c6>
    1e9a:	2380      	movs	r3, #128	; 0x80
    1e9c:	025b      	lsls	r3, r3, #9
    1e9e:	469b      	mov	fp, r3
    1ea0:	44d9      	add	r9, fp
    1ea2:	4651      	mov	r1, sl
    1ea4:	0409      	lsls	r1, r1, #16
    1ea6:	0c09      	lsrs	r1, r1, #16
    1ea8:	468a      	mov	sl, r1
    1eaa:	4641      	mov	r1, r8
    1eac:	4361      	muls	r1, r4
    1eae:	437c      	muls	r4, r7
    1eb0:	0c13      	lsrs	r3, r2, #16
    1eb2:	0412      	lsls	r2, r2, #16
    1eb4:	444b      	add	r3, r9
    1eb6:	4452      	add	r2, sl
    1eb8:	46a1      	mov	r9, r4
    1eba:	468a      	mov	sl, r1
    1ebc:	003c      	movs	r4, r7
    1ebe:	4641      	mov	r1, r8
    1ec0:	436c      	muls	r4, r5
    1ec2:	434d      	muls	r5, r1
    1ec4:	4651      	mov	r1, sl
    1ec6:	444d      	add	r5, r9
    1ec8:	0c0f      	lsrs	r7, r1, #16
    1eca:	197d      	adds	r5, r7, r5
    1ecc:	45a9      	cmp	r9, r5
    1ece:	d903      	bls.n	1ed8 <__aeabi_dmul+0x2fc>
    1ed0:	2180      	movs	r1, #128	; 0x80
    1ed2:	0249      	lsls	r1, r1, #9
    1ed4:	4688      	mov	r8, r1
    1ed6:	4444      	add	r4, r8
    1ed8:	9f04      	ldr	r7, [sp, #16]
    1eda:	9903      	ldr	r1, [sp, #12]
    1edc:	46b8      	mov	r8, r7
    1ede:	4441      	add	r1, r8
    1ee0:	468b      	mov	fp, r1
    1ee2:	4583      	cmp	fp, r0
    1ee4:	4180      	sbcs	r0, r0
    1ee6:	4241      	negs	r1, r0
    1ee8:	4688      	mov	r8, r1
    1eea:	4651      	mov	r1, sl
    1eec:	0408      	lsls	r0, r1, #16
    1eee:	042f      	lsls	r7, r5, #16
    1ef0:	0c00      	lsrs	r0, r0, #16
    1ef2:	183f      	adds	r7, r7, r0
    1ef4:	4658      	mov	r0, fp
    1ef6:	9902      	ldr	r1, [sp, #8]
    1ef8:	1810      	adds	r0, r2, r0
    1efa:	4689      	mov	r9, r1
    1efc:	4290      	cmp	r0, r2
    1efe:	4192      	sbcs	r2, r2
    1f00:	444f      	add	r7, r9
    1f02:	46ba      	mov	sl, r7
    1f04:	4252      	negs	r2, r2
    1f06:	4699      	mov	r9, r3
    1f08:	4693      	mov	fp, r2
    1f0a:	44c2      	add	sl, r8
    1f0c:	44d1      	add	r9, sl
    1f0e:	44cb      	add	fp, r9
    1f10:	428f      	cmp	r7, r1
    1f12:	41bf      	sbcs	r7, r7
    1f14:	45c2      	cmp	sl, r8
    1f16:	4189      	sbcs	r1, r1
    1f18:	4599      	cmp	r9, r3
    1f1a:	419b      	sbcs	r3, r3
    1f1c:	4593      	cmp	fp, r2
    1f1e:	4192      	sbcs	r2, r2
    1f20:	427f      	negs	r7, r7
    1f22:	4249      	negs	r1, r1
    1f24:	0c2d      	lsrs	r5, r5, #16
    1f26:	4252      	negs	r2, r2
    1f28:	430f      	orrs	r7, r1
    1f2a:	425b      	negs	r3, r3
    1f2c:	4313      	orrs	r3, r2
    1f2e:	197f      	adds	r7, r7, r5
    1f30:	18ff      	adds	r7, r7, r3
    1f32:	465b      	mov	r3, fp
    1f34:	193c      	adds	r4, r7, r4
    1f36:	0ddb      	lsrs	r3, r3, #23
    1f38:	9a05      	ldr	r2, [sp, #20]
    1f3a:	0264      	lsls	r4, r4, #9
    1f3c:	431c      	orrs	r4, r3
    1f3e:	0243      	lsls	r3, r0, #9
    1f40:	4313      	orrs	r3, r2
    1f42:	1e5d      	subs	r5, r3, #1
    1f44:	41ab      	sbcs	r3, r5
    1f46:	465a      	mov	r2, fp
    1f48:	0dc0      	lsrs	r0, r0, #23
    1f4a:	4303      	orrs	r3, r0
    1f4c:	0252      	lsls	r2, r2, #9
    1f4e:	4313      	orrs	r3, r2
    1f50:	01e2      	lsls	r2, r4, #7
    1f52:	d556      	bpl.n	2002 <STACK_SIZE+0x2>
    1f54:	2001      	movs	r0, #1
    1f56:	085a      	lsrs	r2, r3, #1
    1f58:	4003      	ands	r3, r0
    1f5a:	4313      	orrs	r3, r2
    1f5c:	07e2      	lsls	r2, r4, #31
    1f5e:	4313      	orrs	r3, r2
    1f60:	0864      	lsrs	r4, r4, #1
    1f62:	485a      	ldr	r0, [pc, #360]	; (20cc <STACK_SIZE+0xcc>)
    1f64:	4460      	add	r0, ip
    1f66:	2800      	cmp	r0, #0
    1f68:	dd4d      	ble.n	2006 <STACK_SIZE+0x6>
    1f6a:	075a      	lsls	r2, r3, #29
    1f6c:	d009      	beq.n	1f82 <__aeabi_dmul+0x3a6>
    1f6e:	220f      	movs	r2, #15
    1f70:	401a      	ands	r2, r3
    1f72:	2a04      	cmp	r2, #4
    1f74:	d005      	beq.n	1f82 <__aeabi_dmul+0x3a6>
    1f76:	1d1a      	adds	r2, r3, #4
    1f78:	429a      	cmp	r2, r3
    1f7a:	419b      	sbcs	r3, r3
    1f7c:	425b      	negs	r3, r3
    1f7e:	18e4      	adds	r4, r4, r3
    1f80:	0013      	movs	r3, r2
    1f82:	01e2      	lsls	r2, r4, #7
    1f84:	d504      	bpl.n	1f90 <__aeabi_dmul+0x3b4>
    1f86:	2080      	movs	r0, #128	; 0x80
    1f88:	4a51      	ldr	r2, [pc, #324]	; (20d0 <STACK_SIZE+0xd0>)
    1f8a:	00c0      	lsls	r0, r0, #3
    1f8c:	4014      	ands	r4, r2
    1f8e:	4460      	add	r0, ip
    1f90:	4a50      	ldr	r2, [pc, #320]	; (20d4 <STACK_SIZE+0xd4>)
    1f92:	4290      	cmp	r0, r2
    1f94:	dd00      	ble.n	1f98 <__aeabi_dmul+0x3bc>
    1f96:	e6e3      	b.n	1d60 <__aeabi_dmul+0x184>
    1f98:	2501      	movs	r5, #1
    1f9a:	08db      	lsrs	r3, r3, #3
    1f9c:	0762      	lsls	r2, r4, #29
    1f9e:	431a      	orrs	r2, r3
    1fa0:	0264      	lsls	r4, r4, #9
    1fa2:	9b01      	ldr	r3, [sp, #4]
    1fa4:	4691      	mov	r9, r2
    1fa6:	0b22      	lsrs	r2, r4, #12
    1fa8:	0544      	lsls	r4, r0, #21
    1faa:	0d64      	lsrs	r4, r4, #21
    1fac:	401d      	ands	r5, r3
    1fae:	e67c      	b.n	1caa <__aeabi_dmul+0xce>
    1fb0:	2280      	movs	r2, #128	; 0x80
    1fb2:	4659      	mov	r1, fp
    1fb4:	0312      	lsls	r2, r2, #12
    1fb6:	4211      	tst	r1, r2
    1fb8:	d008      	beq.n	1fcc <__aeabi_dmul+0x3f0>
    1fba:	4214      	tst	r4, r2
    1fbc:	d106      	bne.n	1fcc <__aeabi_dmul+0x3f0>
    1fbe:	4322      	orrs	r2, r4
    1fc0:	0312      	lsls	r2, r2, #12
    1fc2:	0b12      	lsrs	r2, r2, #12
    1fc4:	4645      	mov	r5, r8
    1fc6:	4699      	mov	r9, r3
    1fc8:	4c43      	ldr	r4, [pc, #268]	; (20d8 <STACK_SIZE+0xd8>)
    1fca:	e66e      	b.n	1caa <__aeabi_dmul+0xce>
    1fcc:	465b      	mov	r3, fp
    1fce:	431a      	orrs	r2, r3
    1fd0:	0312      	lsls	r2, r2, #12
    1fd2:	0b12      	lsrs	r2, r2, #12
    1fd4:	4c40      	ldr	r4, [pc, #256]	; (20d8 <STACK_SIZE+0xd8>)
    1fd6:	e668      	b.n	1caa <__aeabi_dmul+0xce>
    1fd8:	0003      	movs	r3, r0
    1fda:	4654      	mov	r4, sl
    1fdc:	3b28      	subs	r3, #40	; 0x28
    1fde:	409c      	lsls	r4, r3
    1fe0:	2300      	movs	r3, #0
    1fe2:	e6b9      	b.n	1d58 <__aeabi_dmul+0x17c>
    1fe4:	f000 f9d0 	bl	2388 <__clzsi2>
    1fe8:	3020      	adds	r0, #32
    1fea:	e6a6      	b.n	1d3a <__aeabi_dmul+0x15e>
    1fec:	0003      	movs	r3, r0
    1fee:	3b28      	subs	r3, #40	; 0x28
    1ff0:	409f      	lsls	r7, r3
    1ff2:	2300      	movs	r3, #0
    1ff4:	46bb      	mov	fp, r7
    1ff6:	4699      	mov	r9, r3
    1ff8:	e68a      	b.n	1d10 <__aeabi_dmul+0x134>
    1ffa:	f000 f9c5 	bl	2388 <__clzsi2>
    1ffe:	3020      	adds	r0, #32
    2000:	e674      	b.n	1cec <__aeabi_dmul+0x110>
    2002:	46b4      	mov	ip, r6
    2004:	e7ad      	b.n	1f62 <__aeabi_dmul+0x386>
    2006:	2501      	movs	r5, #1
    2008:	1a2a      	subs	r2, r5, r0
    200a:	2a38      	cmp	r2, #56	; 0x38
    200c:	dd06      	ble.n	201c <STACK_SIZE+0x1c>
    200e:	9b01      	ldr	r3, [sp, #4]
    2010:	2400      	movs	r4, #0
    2012:	401d      	ands	r5, r3
    2014:	2300      	movs	r3, #0
    2016:	2200      	movs	r2, #0
    2018:	4699      	mov	r9, r3
    201a:	e646      	b.n	1caa <__aeabi_dmul+0xce>
    201c:	2a1f      	cmp	r2, #31
    201e:	dc21      	bgt.n	2064 <STACK_SIZE+0x64>
    2020:	2520      	movs	r5, #32
    2022:	0020      	movs	r0, r4
    2024:	1aad      	subs	r5, r5, r2
    2026:	001e      	movs	r6, r3
    2028:	40ab      	lsls	r3, r5
    202a:	40a8      	lsls	r0, r5
    202c:	40d6      	lsrs	r6, r2
    202e:	1e5d      	subs	r5, r3, #1
    2030:	41ab      	sbcs	r3, r5
    2032:	4330      	orrs	r0, r6
    2034:	4318      	orrs	r0, r3
    2036:	40d4      	lsrs	r4, r2
    2038:	0743      	lsls	r3, r0, #29
    203a:	d009      	beq.n	2050 <STACK_SIZE+0x50>
    203c:	230f      	movs	r3, #15
    203e:	4003      	ands	r3, r0
    2040:	2b04      	cmp	r3, #4
    2042:	d005      	beq.n	2050 <STACK_SIZE+0x50>
    2044:	0003      	movs	r3, r0
    2046:	1d18      	adds	r0, r3, #4
    2048:	4298      	cmp	r0, r3
    204a:	419b      	sbcs	r3, r3
    204c:	425b      	negs	r3, r3
    204e:	18e4      	adds	r4, r4, r3
    2050:	0223      	lsls	r3, r4, #8
    2052:	d521      	bpl.n	2098 <STACK_SIZE+0x98>
    2054:	2501      	movs	r5, #1
    2056:	9b01      	ldr	r3, [sp, #4]
    2058:	2401      	movs	r4, #1
    205a:	401d      	ands	r5, r3
    205c:	2300      	movs	r3, #0
    205e:	2200      	movs	r2, #0
    2060:	4699      	mov	r9, r3
    2062:	e622      	b.n	1caa <__aeabi_dmul+0xce>
    2064:	251f      	movs	r5, #31
    2066:	0021      	movs	r1, r4
    2068:	426d      	negs	r5, r5
    206a:	1a28      	subs	r0, r5, r0
    206c:	40c1      	lsrs	r1, r0
    206e:	0008      	movs	r0, r1
    2070:	2a20      	cmp	r2, #32
    2072:	d01d      	beq.n	20b0 <STACK_SIZE+0xb0>
    2074:	355f      	adds	r5, #95	; 0x5f
    2076:	1aaa      	subs	r2, r5, r2
    2078:	4094      	lsls	r4, r2
    207a:	4323      	orrs	r3, r4
    207c:	1e5c      	subs	r4, r3, #1
    207e:	41a3      	sbcs	r3, r4
    2080:	2507      	movs	r5, #7
    2082:	4303      	orrs	r3, r0
    2084:	401d      	ands	r5, r3
    2086:	2200      	movs	r2, #0
    2088:	2d00      	cmp	r5, #0
    208a:	d009      	beq.n	20a0 <STACK_SIZE+0xa0>
    208c:	220f      	movs	r2, #15
    208e:	2400      	movs	r4, #0
    2090:	401a      	ands	r2, r3
    2092:	0018      	movs	r0, r3
    2094:	2a04      	cmp	r2, #4
    2096:	d1d6      	bne.n	2046 <STACK_SIZE+0x46>
    2098:	0003      	movs	r3, r0
    209a:	0765      	lsls	r5, r4, #29
    209c:	0264      	lsls	r4, r4, #9
    209e:	0b22      	lsrs	r2, r4, #12
    20a0:	08db      	lsrs	r3, r3, #3
    20a2:	432b      	orrs	r3, r5
    20a4:	2501      	movs	r5, #1
    20a6:	4699      	mov	r9, r3
    20a8:	9b01      	ldr	r3, [sp, #4]
    20aa:	2400      	movs	r4, #0
    20ac:	401d      	ands	r5, r3
    20ae:	e5fc      	b.n	1caa <__aeabi_dmul+0xce>
    20b0:	2400      	movs	r4, #0
    20b2:	e7e2      	b.n	207a <STACK_SIZE+0x7a>
    20b4:	2280      	movs	r2, #128	; 0x80
    20b6:	2501      	movs	r5, #1
    20b8:	0312      	lsls	r2, r2, #12
    20ba:	4322      	orrs	r2, r4
    20bc:	9901      	ldr	r1, [sp, #4]
    20be:	0312      	lsls	r2, r2, #12
    20c0:	0b12      	lsrs	r2, r2, #12
    20c2:	400d      	ands	r5, r1
    20c4:	4699      	mov	r9, r3
    20c6:	4c04      	ldr	r4, [pc, #16]	; (20d8 <STACK_SIZE+0xd8>)
    20c8:	e5ef      	b.n	1caa <__aeabi_dmul+0xce>
    20ca:	46c0      	nop			; (mov r8, r8)
    20cc:	000003ff 	.word	0x000003ff
    20d0:	feffffff 	.word	0xfeffffff
    20d4:	000007fe 	.word	0x000007fe
    20d8:	000007ff 	.word	0x000007ff

000020dc <__aeabi_i2d>:
    20dc:	b570      	push	{r4, r5, r6, lr}
    20de:	2800      	cmp	r0, #0
    20e0:	d030      	beq.n	2144 <__aeabi_i2d+0x68>
    20e2:	17c3      	asrs	r3, r0, #31
    20e4:	18c4      	adds	r4, r0, r3
    20e6:	405c      	eors	r4, r3
    20e8:	0fc5      	lsrs	r5, r0, #31
    20ea:	0020      	movs	r0, r4
    20ec:	f000 f94c 	bl	2388 <__clzsi2>
    20f0:	4b17      	ldr	r3, [pc, #92]	; (2150 <__aeabi_i2d+0x74>)
    20f2:	4a18      	ldr	r2, [pc, #96]	; (2154 <__aeabi_i2d+0x78>)
    20f4:	1a1b      	subs	r3, r3, r0
    20f6:	1ad2      	subs	r2, r2, r3
    20f8:	2a1f      	cmp	r2, #31
    20fa:	dd18      	ble.n	212e <__aeabi_i2d+0x52>
    20fc:	4a16      	ldr	r2, [pc, #88]	; (2158 <__aeabi_i2d+0x7c>)
    20fe:	1ad2      	subs	r2, r2, r3
    2100:	4094      	lsls	r4, r2
    2102:	2200      	movs	r2, #0
    2104:	0324      	lsls	r4, r4, #12
    2106:	055b      	lsls	r3, r3, #21
    2108:	0b24      	lsrs	r4, r4, #12
    210a:	0d5b      	lsrs	r3, r3, #21
    210c:	2100      	movs	r1, #0
    210e:	0010      	movs	r0, r2
    2110:	0324      	lsls	r4, r4, #12
    2112:	0d0a      	lsrs	r2, r1, #20
    2114:	0b24      	lsrs	r4, r4, #12
    2116:	0512      	lsls	r2, r2, #20
    2118:	4322      	orrs	r2, r4
    211a:	4c10      	ldr	r4, [pc, #64]	; (215c <__aeabi_i2d+0x80>)
    211c:	051b      	lsls	r3, r3, #20
    211e:	4022      	ands	r2, r4
    2120:	4313      	orrs	r3, r2
    2122:	005b      	lsls	r3, r3, #1
    2124:	07ed      	lsls	r5, r5, #31
    2126:	085b      	lsrs	r3, r3, #1
    2128:	432b      	orrs	r3, r5
    212a:	0019      	movs	r1, r3
    212c:	bd70      	pop	{r4, r5, r6, pc}
    212e:	0021      	movs	r1, r4
    2130:	4091      	lsls	r1, r2
    2132:	000a      	movs	r2, r1
    2134:	210b      	movs	r1, #11
    2136:	1a08      	subs	r0, r1, r0
    2138:	40c4      	lsrs	r4, r0
    213a:	055b      	lsls	r3, r3, #21
    213c:	0324      	lsls	r4, r4, #12
    213e:	0b24      	lsrs	r4, r4, #12
    2140:	0d5b      	lsrs	r3, r3, #21
    2142:	e7e3      	b.n	210c <__aeabi_i2d+0x30>
    2144:	2500      	movs	r5, #0
    2146:	2300      	movs	r3, #0
    2148:	2400      	movs	r4, #0
    214a:	2200      	movs	r2, #0
    214c:	e7de      	b.n	210c <__aeabi_i2d+0x30>
    214e:	46c0      	nop			; (mov r8, r8)
    2150:	0000041e 	.word	0x0000041e
    2154:	00000433 	.word	0x00000433
    2158:	00000413 	.word	0x00000413
    215c:	800fffff 	.word	0x800fffff

00002160 <__aeabi_ui2d>:
    2160:	b510      	push	{r4, lr}
    2162:	1e04      	subs	r4, r0, #0
    2164:	d028      	beq.n	21b8 <__aeabi_ui2d+0x58>
    2166:	f000 f90f 	bl	2388 <__clzsi2>
    216a:	4b15      	ldr	r3, [pc, #84]	; (21c0 <__aeabi_ui2d+0x60>)
    216c:	4a15      	ldr	r2, [pc, #84]	; (21c4 <__aeabi_ui2d+0x64>)
    216e:	1a1b      	subs	r3, r3, r0
    2170:	1ad2      	subs	r2, r2, r3
    2172:	2a1f      	cmp	r2, #31
    2174:	dd15      	ble.n	21a2 <__aeabi_ui2d+0x42>
    2176:	4a14      	ldr	r2, [pc, #80]	; (21c8 <__aeabi_ui2d+0x68>)
    2178:	1ad2      	subs	r2, r2, r3
    217a:	4094      	lsls	r4, r2
    217c:	2200      	movs	r2, #0
    217e:	0324      	lsls	r4, r4, #12
    2180:	055b      	lsls	r3, r3, #21
    2182:	0b24      	lsrs	r4, r4, #12
    2184:	0d5b      	lsrs	r3, r3, #21
    2186:	2100      	movs	r1, #0
    2188:	0010      	movs	r0, r2
    218a:	0324      	lsls	r4, r4, #12
    218c:	0d0a      	lsrs	r2, r1, #20
    218e:	0b24      	lsrs	r4, r4, #12
    2190:	0512      	lsls	r2, r2, #20
    2192:	4322      	orrs	r2, r4
    2194:	4c0d      	ldr	r4, [pc, #52]	; (21cc <__aeabi_ui2d+0x6c>)
    2196:	051b      	lsls	r3, r3, #20
    2198:	4022      	ands	r2, r4
    219a:	4313      	orrs	r3, r2
    219c:	005b      	lsls	r3, r3, #1
    219e:	0859      	lsrs	r1, r3, #1
    21a0:	bd10      	pop	{r4, pc}
    21a2:	0021      	movs	r1, r4
    21a4:	4091      	lsls	r1, r2
    21a6:	000a      	movs	r2, r1
    21a8:	210b      	movs	r1, #11
    21aa:	1a08      	subs	r0, r1, r0
    21ac:	40c4      	lsrs	r4, r0
    21ae:	055b      	lsls	r3, r3, #21
    21b0:	0324      	lsls	r4, r4, #12
    21b2:	0b24      	lsrs	r4, r4, #12
    21b4:	0d5b      	lsrs	r3, r3, #21
    21b6:	e7e6      	b.n	2186 <__aeabi_ui2d+0x26>
    21b8:	2300      	movs	r3, #0
    21ba:	2400      	movs	r4, #0
    21bc:	2200      	movs	r2, #0
    21be:	e7e2      	b.n	2186 <__aeabi_ui2d+0x26>
    21c0:	0000041e 	.word	0x0000041e
    21c4:	00000433 	.word	0x00000433
    21c8:	00000413 	.word	0x00000413
    21cc:	800fffff 	.word	0x800fffff

000021d0 <__aeabi_f2d>:
    21d0:	0041      	lsls	r1, r0, #1
    21d2:	0e09      	lsrs	r1, r1, #24
    21d4:	1c4b      	adds	r3, r1, #1
    21d6:	b570      	push	{r4, r5, r6, lr}
    21d8:	b2db      	uxtb	r3, r3
    21da:	0246      	lsls	r6, r0, #9
    21dc:	0a75      	lsrs	r5, r6, #9
    21de:	0fc4      	lsrs	r4, r0, #31
    21e0:	2b01      	cmp	r3, #1
    21e2:	dd14      	ble.n	220e <__aeabi_f2d+0x3e>
    21e4:	23e0      	movs	r3, #224	; 0xe0
    21e6:	009b      	lsls	r3, r3, #2
    21e8:	076d      	lsls	r5, r5, #29
    21ea:	0b36      	lsrs	r6, r6, #12
    21ec:	18cb      	adds	r3, r1, r3
    21ee:	2100      	movs	r1, #0
    21f0:	0d0a      	lsrs	r2, r1, #20
    21f2:	0028      	movs	r0, r5
    21f4:	0512      	lsls	r2, r2, #20
    21f6:	4d1c      	ldr	r5, [pc, #112]	; (2268 <__aeabi_f2d+0x98>)
    21f8:	4332      	orrs	r2, r6
    21fa:	055b      	lsls	r3, r3, #21
    21fc:	402a      	ands	r2, r5
    21fe:	085b      	lsrs	r3, r3, #1
    2200:	4313      	orrs	r3, r2
    2202:	005b      	lsls	r3, r3, #1
    2204:	07e4      	lsls	r4, r4, #31
    2206:	085b      	lsrs	r3, r3, #1
    2208:	4323      	orrs	r3, r4
    220a:	0019      	movs	r1, r3
    220c:	bd70      	pop	{r4, r5, r6, pc}
    220e:	2900      	cmp	r1, #0
    2210:	d114      	bne.n	223c <__aeabi_f2d+0x6c>
    2212:	2d00      	cmp	r5, #0
    2214:	d01e      	beq.n	2254 <__aeabi_f2d+0x84>
    2216:	0028      	movs	r0, r5
    2218:	f000 f8b6 	bl	2388 <__clzsi2>
    221c:	280a      	cmp	r0, #10
    221e:	dc1c      	bgt.n	225a <__aeabi_f2d+0x8a>
    2220:	230b      	movs	r3, #11
    2222:	002a      	movs	r2, r5
    2224:	1a1b      	subs	r3, r3, r0
    2226:	40da      	lsrs	r2, r3
    2228:	0003      	movs	r3, r0
    222a:	3315      	adds	r3, #21
    222c:	409d      	lsls	r5, r3
    222e:	4b0f      	ldr	r3, [pc, #60]	; (226c <__aeabi_f2d+0x9c>)
    2230:	0312      	lsls	r2, r2, #12
    2232:	1a1b      	subs	r3, r3, r0
    2234:	055b      	lsls	r3, r3, #21
    2236:	0b16      	lsrs	r6, r2, #12
    2238:	0d5b      	lsrs	r3, r3, #21
    223a:	e7d8      	b.n	21ee <__aeabi_f2d+0x1e>
    223c:	2d00      	cmp	r5, #0
    223e:	d006      	beq.n	224e <__aeabi_f2d+0x7e>
    2240:	0b32      	lsrs	r2, r6, #12
    2242:	2680      	movs	r6, #128	; 0x80
    2244:	0336      	lsls	r6, r6, #12
    2246:	076d      	lsls	r5, r5, #29
    2248:	4316      	orrs	r6, r2
    224a:	4b09      	ldr	r3, [pc, #36]	; (2270 <__aeabi_f2d+0xa0>)
    224c:	e7cf      	b.n	21ee <__aeabi_f2d+0x1e>
    224e:	4b08      	ldr	r3, [pc, #32]	; (2270 <__aeabi_f2d+0xa0>)
    2250:	2600      	movs	r6, #0
    2252:	e7cc      	b.n	21ee <__aeabi_f2d+0x1e>
    2254:	2300      	movs	r3, #0
    2256:	2600      	movs	r6, #0
    2258:	e7c9      	b.n	21ee <__aeabi_f2d+0x1e>
    225a:	0003      	movs	r3, r0
    225c:	002a      	movs	r2, r5
    225e:	3b0b      	subs	r3, #11
    2260:	409a      	lsls	r2, r3
    2262:	2500      	movs	r5, #0
    2264:	e7e3      	b.n	222e <__aeabi_f2d+0x5e>
    2266:	46c0      	nop			; (mov r8, r8)
    2268:	800fffff 	.word	0x800fffff
    226c:	00000389 	.word	0x00000389
    2270:	000007ff 	.word	0x000007ff

00002274 <__aeabi_d2f>:
    2274:	b5f0      	push	{r4, r5, r6, r7, lr}
    2276:	004c      	lsls	r4, r1, #1
    2278:	0d64      	lsrs	r4, r4, #21
    227a:	030b      	lsls	r3, r1, #12
    227c:	1c62      	adds	r2, r4, #1
    227e:	0f45      	lsrs	r5, r0, #29
    2280:	0a5b      	lsrs	r3, r3, #9
    2282:	0552      	lsls	r2, r2, #21
    2284:	432b      	orrs	r3, r5
    2286:	0fc9      	lsrs	r1, r1, #31
    2288:	00c5      	lsls	r5, r0, #3
    228a:	0d52      	lsrs	r2, r2, #21
    228c:	2a01      	cmp	r2, #1
    228e:	dd28      	ble.n	22e2 <__aeabi_d2f+0x6e>
    2290:	4a3a      	ldr	r2, [pc, #232]	; (237c <__aeabi_d2f+0x108>)
    2292:	18a6      	adds	r6, r4, r2
    2294:	2efe      	cmp	r6, #254	; 0xfe
    2296:	dc1b      	bgt.n	22d0 <__aeabi_d2f+0x5c>
    2298:	2e00      	cmp	r6, #0
    229a:	dd3e      	ble.n	231a <__aeabi_d2f+0xa6>
    229c:	0180      	lsls	r0, r0, #6
    229e:	0002      	movs	r2, r0
    22a0:	1e50      	subs	r0, r2, #1
    22a2:	4182      	sbcs	r2, r0
    22a4:	0f6d      	lsrs	r5, r5, #29
    22a6:	432a      	orrs	r2, r5
    22a8:	00db      	lsls	r3, r3, #3
    22aa:	4313      	orrs	r3, r2
    22ac:	075a      	lsls	r2, r3, #29
    22ae:	d004      	beq.n	22ba <__aeabi_d2f+0x46>
    22b0:	220f      	movs	r2, #15
    22b2:	401a      	ands	r2, r3
    22b4:	2a04      	cmp	r2, #4
    22b6:	d000      	beq.n	22ba <__aeabi_d2f+0x46>
    22b8:	3304      	adds	r3, #4
    22ba:	2280      	movs	r2, #128	; 0x80
    22bc:	04d2      	lsls	r2, r2, #19
    22be:	401a      	ands	r2, r3
    22c0:	d05a      	beq.n	2378 <__aeabi_d2f+0x104>
    22c2:	3601      	adds	r6, #1
    22c4:	2eff      	cmp	r6, #255	; 0xff
    22c6:	d003      	beq.n	22d0 <__aeabi_d2f+0x5c>
    22c8:	019b      	lsls	r3, r3, #6
    22ca:	0a5b      	lsrs	r3, r3, #9
    22cc:	b2f4      	uxtb	r4, r6
    22ce:	e001      	b.n	22d4 <__aeabi_d2f+0x60>
    22d0:	24ff      	movs	r4, #255	; 0xff
    22d2:	2300      	movs	r3, #0
    22d4:	0258      	lsls	r0, r3, #9
    22d6:	05e4      	lsls	r4, r4, #23
    22d8:	0a40      	lsrs	r0, r0, #9
    22da:	07c9      	lsls	r1, r1, #31
    22dc:	4320      	orrs	r0, r4
    22de:	4308      	orrs	r0, r1
    22e0:	bdf0      	pop	{r4, r5, r6, r7, pc}
    22e2:	2c00      	cmp	r4, #0
    22e4:	d007      	beq.n	22f6 <__aeabi_d2f+0x82>
    22e6:	431d      	orrs	r5, r3
    22e8:	d0f2      	beq.n	22d0 <__aeabi_d2f+0x5c>
    22ea:	2080      	movs	r0, #128	; 0x80
    22ec:	00db      	lsls	r3, r3, #3
    22ee:	0480      	lsls	r0, r0, #18
    22f0:	4303      	orrs	r3, r0
    22f2:	26ff      	movs	r6, #255	; 0xff
    22f4:	e7da      	b.n	22ac <__aeabi_d2f+0x38>
    22f6:	432b      	orrs	r3, r5
    22f8:	d003      	beq.n	2302 <__aeabi_d2f+0x8e>
    22fa:	2305      	movs	r3, #5
    22fc:	08db      	lsrs	r3, r3, #3
    22fe:	2cff      	cmp	r4, #255	; 0xff
    2300:	d003      	beq.n	230a <__aeabi_d2f+0x96>
    2302:	025b      	lsls	r3, r3, #9
    2304:	0a5b      	lsrs	r3, r3, #9
    2306:	b2e4      	uxtb	r4, r4
    2308:	e7e4      	b.n	22d4 <__aeabi_d2f+0x60>
    230a:	2b00      	cmp	r3, #0
    230c:	d032      	beq.n	2374 <__aeabi_d2f+0x100>
    230e:	2080      	movs	r0, #128	; 0x80
    2310:	03c0      	lsls	r0, r0, #15
    2312:	4303      	orrs	r3, r0
    2314:	025b      	lsls	r3, r3, #9
    2316:	0a5b      	lsrs	r3, r3, #9
    2318:	e7dc      	b.n	22d4 <__aeabi_d2f+0x60>
    231a:	0032      	movs	r2, r6
    231c:	3217      	adds	r2, #23
    231e:	db14      	blt.n	234a <__aeabi_d2f+0xd6>
    2320:	2280      	movs	r2, #128	; 0x80
    2322:	271e      	movs	r7, #30
    2324:	0412      	lsls	r2, r2, #16
    2326:	4313      	orrs	r3, r2
    2328:	1bbf      	subs	r7, r7, r6
    232a:	2f1f      	cmp	r7, #31
    232c:	dc0f      	bgt.n	234e <__aeabi_d2f+0xda>
    232e:	4a14      	ldr	r2, [pc, #80]	; (2380 <__aeabi_d2f+0x10c>)
    2330:	4694      	mov	ip, r2
    2332:	4464      	add	r4, ip
    2334:	002a      	movs	r2, r5
    2336:	40a5      	lsls	r5, r4
    2338:	002e      	movs	r6, r5
    233a:	40a3      	lsls	r3, r4
    233c:	1e75      	subs	r5, r6, #1
    233e:	41ae      	sbcs	r6, r5
    2340:	40fa      	lsrs	r2, r7
    2342:	4333      	orrs	r3, r6
    2344:	4313      	orrs	r3, r2
    2346:	2600      	movs	r6, #0
    2348:	e7b0      	b.n	22ac <__aeabi_d2f+0x38>
    234a:	2400      	movs	r4, #0
    234c:	e7d5      	b.n	22fa <__aeabi_d2f+0x86>
    234e:	2202      	movs	r2, #2
    2350:	4252      	negs	r2, r2
    2352:	1b96      	subs	r6, r2, r6
    2354:	001a      	movs	r2, r3
    2356:	40f2      	lsrs	r2, r6
    2358:	2f20      	cmp	r7, #32
    235a:	d009      	beq.n	2370 <__aeabi_d2f+0xfc>
    235c:	4809      	ldr	r0, [pc, #36]	; (2384 <__aeabi_d2f+0x110>)
    235e:	4684      	mov	ip, r0
    2360:	4464      	add	r4, ip
    2362:	40a3      	lsls	r3, r4
    2364:	432b      	orrs	r3, r5
    2366:	1e5d      	subs	r5, r3, #1
    2368:	41ab      	sbcs	r3, r5
    236a:	2600      	movs	r6, #0
    236c:	4313      	orrs	r3, r2
    236e:	e79d      	b.n	22ac <__aeabi_d2f+0x38>
    2370:	2300      	movs	r3, #0
    2372:	e7f7      	b.n	2364 <__aeabi_d2f+0xf0>
    2374:	2300      	movs	r3, #0
    2376:	e7ad      	b.n	22d4 <__aeabi_d2f+0x60>
    2378:	0034      	movs	r4, r6
    237a:	e7bf      	b.n	22fc <__aeabi_d2f+0x88>
    237c:	fffffc80 	.word	0xfffffc80
    2380:	fffffc82 	.word	0xfffffc82
    2384:	fffffca2 	.word	0xfffffca2

00002388 <__clzsi2>:
    2388:	211c      	movs	r1, #28
    238a:	2301      	movs	r3, #1
    238c:	041b      	lsls	r3, r3, #16
    238e:	4298      	cmp	r0, r3
    2390:	d301      	bcc.n	2396 <__clzsi2+0xe>
    2392:	0c00      	lsrs	r0, r0, #16
    2394:	3910      	subs	r1, #16
    2396:	0a1b      	lsrs	r3, r3, #8
    2398:	4298      	cmp	r0, r3
    239a:	d301      	bcc.n	23a0 <__clzsi2+0x18>
    239c:	0a00      	lsrs	r0, r0, #8
    239e:	3908      	subs	r1, #8
    23a0:	091b      	lsrs	r3, r3, #4
    23a2:	4298      	cmp	r0, r3
    23a4:	d301      	bcc.n	23aa <__clzsi2+0x22>
    23a6:	0900      	lsrs	r0, r0, #4
    23a8:	3904      	subs	r1, #4
    23aa:	a202      	add	r2, pc, #8	; (adr r2, 23b4 <__clzsi2+0x2c>)
    23ac:	5c10      	ldrb	r0, [r2, r0]
    23ae:	1840      	adds	r0, r0, r1
    23b0:	4770      	bx	lr
    23b2:	46c0      	nop			; (mov r8, r8)
    23b4:	02020304 	.word	0x02020304
    23b8:	01010101 	.word	0x01010101
	...

000023c4 <__libc_init_array>:
    23c4:	b570      	push	{r4, r5, r6, lr}
    23c6:	4e0d      	ldr	r6, [pc, #52]	; (23fc <__libc_init_array+0x38>)
    23c8:	4d0d      	ldr	r5, [pc, #52]	; (2400 <__libc_init_array+0x3c>)
    23ca:	2400      	movs	r4, #0
    23cc:	1bad      	subs	r5, r5, r6
    23ce:	10ad      	asrs	r5, r5, #2
    23d0:	d005      	beq.n	23de <__libc_init_array+0x1a>
    23d2:	00a3      	lsls	r3, r4, #2
    23d4:	58f3      	ldr	r3, [r6, r3]
    23d6:	3401      	adds	r4, #1
    23d8:	4798      	blx	r3
    23da:	42a5      	cmp	r5, r4
    23dc:	d1f9      	bne.n	23d2 <__libc_init_array+0xe>
    23de:	f000 f9cf 	bl	2780 <_init>
    23e2:	4e08      	ldr	r6, [pc, #32]	; (2404 <__libc_init_array+0x40>)
    23e4:	4d08      	ldr	r5, [pc, #32]	; (2408 <__libc_init_array+0x44>)
    23e6:	2400      	movs	r4, #0
    23e8:	1bad      	subs	r5, r5, r6
    23ea:	10ad      	asrs	r5, r5, #2
    23ec:	d005      	beq.n	23fa <__libc_init_array+0x36>
    23ee:	00a3      	lsls	r3, r4, #2
    23f0:	58f3      	ldr	r3, [r6, r3]
    23f2:	3401      	adds	r4, #1
    23f4:	4798      	blx	r3
    23f6:	42a5      	cmp	r5, r4
    23f8:	d1f9      	bne.n	23ee <__libc_init_array+0x2a>
    23fa:	bd70      	pop	{r4, r5, r6, pc}
    23fc:	0000278c 	.word	0x0000278c
    2400:	0000278c 	.word	0x0000278c
    2404:	0000278c 	.word	0x0000278c
    2408:	00002794 	.word	0x00002794

0000240c <memset>:
    240c:	b5f0      	push	{r4, r5, r6, r7, lr}
    240e:	0783      	lsls	r3, r0, #30
    2410:	d043      	beq.n	249a <memset+0x8e>
    2412:	1e54      	subs	r4, r2, #1
    2414:	2a00      	cmp	r2, #0
    2416:	d03f      	beq.n	2498 <memset+0x8c>
    2418:	b2ce      	uxtb	r6, r1
    241a:	0002      	movs	r2, r0
    241c:	2503      	movs	r5, #3
    241e:	e002      	b.n	2426 <memset+0x1a>
    2420:	001a      	movs	r2, r3
    2422:	3c01      	subs	r4, #1
    2424:	d338      	bcc.n	2498 <memset+0x8c>
    2426:	1c53      	adds	r3, r2, #1
    2428:	7016      	strb	r6, [r2, #0]
    242a:	422b      	tst	r3, r5
    242c:	d1f8      	bne.n	2420 <memset+0x14>
    242e:	2c03      	cmp	r4, #3
    2430:	d92a      	bls.n	2488 <memset+0x7c>
    2432:	22ff      	movs	r2, #255	; 0xff
    2434:	400a      	ands	r2, r1
    2436:	0215      	lsls	r5, r2, #8
    2438:	4315      	orrs	r5, r2
    243a:	042a      	lsls	r2, r5, #16
    243c:	4315      	orrs	r5, r2
    243e:	2c0f      	cmp	r4, #15
    2440:	d914      	bls.n	246c <memset+0x60>
    2442:	0027      	movs	r7, r4
    2444:	001a      	movs	r2, r3
    2446:	3f10      	subs	r7, #16
    2448:	093e      	lsrs	r6, r7, #4
    244a:	3601      	adds	r6, #1
    244c:	0136      	lsls	r6, r6, #4
    244e:	199e      	adds	r6, r3, r6
    2450:	6015      	str	r5, [r2, #0]
    2452:	6055      	str	r5, [r2, #4]
    2454:	6095      	str	r5, [r2, #8]
    2456:	60d5      	str	r5, [r2, #12]
    2458:	3210      	adds	r2, #16
    245a:	4296      	cmp	r6, r2
    245c:	d1f8      	bne.n	2450 <memset+0x44>
    245e:	220f      	movs	r2, #15
    2460:	4397      	bics	r7, r2
    2462:	3710      	adds	r7, #16
    2464:	19db      	adds	r3, r3, r7
    2466:	4014      	ands	r4, r2
    2468:	2c03      	cmp	r4, #3
    246a:	d90d      	bls.n	2488 <memset+0x7c>
    246c:	001a      	movs	r2, r3
    246e:	1f27      	subs	r7, r4, #4
    2470:	08be      	lsrs	r6, r7, #2
    2472:	3601      	adds	r6, #1
    2474:	00b6      	lsls	r6, r6, #2
    2476:	199e      	adds	r6, r3, r6
    2478:	c220      	stmia	r2!, {r5}
    247a:	42b2      	cmp	r2, r6
    247c:	d1fc      	bne.n	2478 <memset+0x6c>
    247e:	2203      	movs	r2, #3
    2480:	4397      	bics	r7, r2
    2482:	3704      	adds	r7, #4
    2484:	19db      	adds	r3, r3, r7
    2486:	4014      	ands	r4, r2
    2488:	2c00      	cmp	r4, #0
    248a:	d005      	beq.n	2498 <memset+0x8c>
    248c:	b2c9      	uxtb	r1, r1
    248e:	191c      	adds	r4, r3, r4
    2490:	7019      	strb	r1, [r3, #0]
    2492:	3301      	adds	r3, #1
    2494:	429c      	cmp	r4, r3
    2496:	d1fb      	bne.n	2490 <memset+0x84>
    2498:	bdf0      	pop	{r4, r5, r6, r7, pc}
    249a:	0014      	movs	r4, r2
    249c:	0003      	movs	r3, r0
    249e:	e7c6      	b.n	242e <memset+0x22>

000024a0 <register_fini>:
    24a0:	4b03      	ldr	r3, [pc, #12]	; (24b0 <register_fini+0x10>)
    24a2:	b510      	push	{r4, lr}
    24a4:	2b00      	cmp	r3, #0
    24a6:	d002      	beq.n	24ae <register_fini+0xe>
    24a8:	4802      	ldr	r0, [pc, #8]	; (24b4 <register_fini+0x14>)
    24aa:	f000 f805 	bl	24b8 <atexit>
    24ae:	bd10      	pop	{r4, pc}
    24b0:	00000000 	.word	0x00000000
    24b4:	000024c9 	.word	0x000024c9

000024b8 <atexit>:
    24b8:	b510      	push	{r4, lr}
    24ba:	0001      	movs	r1, r0
    24bc:	2300      	movs	r3, #0
    24be:	2200      	movs	r2, #0
    24c0:	2000      	movs	r0, #0
    24c2:	f000 f81b 	bl	24fc <__register_exitproc>
    24c6:	bd10      	pop	{r4, pc}

000024c8 <__libc_fini_array>:
    24c8:	b570      	push	{r4, r5, r6, lr}
    24ca:	4b09      	ldr	r3, [pc, #36]	; (24f0 <__libc_fini_array+0x28>)
    24cc:	4c09      	ldr	r4, [pc, #36]	; (24f4 <__libc_fini_array+0x2c>)
    24ce:	1ae4      	subs	r4, r4, r3
    24d0:	10a4      	asrs	r4, r4, #2
    24d2:	d009      	beq.n	24e8 <__libc_fini_array+0x20>
    24d4:	4a08      	ldr	r2, [pc, #32]	; (24f8 <__libc_fini_array+0x30>)
    24d6:	18a5      	adds	r5, r4, r2
    24d8:	00ad      	lsls	r5, r5, #2
    24da:	18ed      	adds	r5, r5, r3
    24dc:	682b      	ldr	r3, [r5, #0]
    24de:	3c01      	subs	r4, #1
    24e0:	4798      	blx	r3
    24e2:	3d04      	subs	r5, #4
    24e4:	2c00      	cmp	r4, #0
    24e6:	d1f9      	bne.n	24dc <__libc_fini_array+0x14>
    24e8:	f000 f954 	bl	2794 <_fini>
    24ec:	bd70      	pop	{r4, r5, r6, pc}
    24ee:	46c0      	nop			; (mov r8, r8)
    24f0:	000027a0 	.word	0x000027a0
    24f4:	000027a4 	.word	0x000027a4
    24f8:	3fffffff 	.word	0x3fffffff

000024fc <__register_exitproc>:
    24fc:	b5f8      	push	{r3, r4, r5, r6, r7, lr}
    24fe:	46de      	mov	lr, fp
    2500:	469b      	mov	fp, r3
    2502:	4b31      	ldr	r3, [pc, #196]	; (25c8 <__register_exitproc+0xcc>)
    2504:	4645      	mov	r5, r8
    2506:	681c      	ldr	r4, [r3, #0]
    2508:	23a4      	movs	r3, #164	; 0xa4
    250a:	464e      	mov	r6, r9
    250c:	4657      	mov	r7, sl
    250e:	005b      	lsls	r3, r3, #1
    2510:	b5e0      	push	{r5, r6, r7, lr}
    2512:	0005      	movs	r5, r0
    2514:	58e0      	ldr	r0, [r4, r3]
    2516:	000e      	movs	r6, r1
    2518:	4690      	mov	r8, r2
    251a:	2800      	cmp	r0, #0
    251c:	d04b      	beq.n	25b6 <__register_exitproc+0xba>
    251e:	6843      	ldr	r3, [r0, #4]
    2520:	2b1f      	cmp	r3, #31
    2522:	dc0d      	bgt.n	2540 <__register_exitproc+0x44>
    2524:	1c5c      	adds	r4, r3, #1
    2526:	2d00      	cmp	r5, #0
    2528:	d121      	bne.n	256e <__register_exitproc+0x72>
    252a:	3302      	adds	r3, #2
    252c:	009b      	lsls	r3, r3, #2
    252e:	6044      	str	r4, [r0, #4]
    2530:	501e      	str	r6, [r3, r0]
    2532:	2000      	movs	r0, #0
    2534:	bc3c      	pop	{r2, r3, r4, r5}
    2536:	4690      	mov	r8, r2
    2538:	4699      	mov	r9, r3
    253a:	46a2      	mov	sl, r4
    253c:	46ab      	mov	fp, r5
    253e:	bdf8      	pop	{r3, r4, r5, r6, r7, pc}
    2540:	4b22      	ldr	r3, [pc, #136]	; (25cc <__register_exitproc+0xd0>)
    2542:	2b00      	cmp	r3, #0
    2544:	d03c      	beq.n	25c0 <__register_exitproc+0xc4>
    2546:	20c8      	movs	r0, #200	; 0xc8
    2548:	0040      	lsls	r0, r0, #1
    254a:	e000      	b.n	254e <__register_exitproc+0x52>
    254c:	bf00      	nop
    254e:	2800      	cmp	r0, #0
    2550:	d036      	beq.n	25c0 <__register_exitproc+0xc4>
    2552:	22a4      	movs	r2, #164	; 0xa4
    2554:	2300      	movs	r3, #0
    2556:	0052      	lsls	r2, r2, #1
    2558:	58a1      	ldr	r1, [r4, r2]
    255a:	6043      	str	r3, [r0, #4]
    255c:	6001      	str	r1, [r0, #0]
    255e:	50a0      	str	r0, [r4, r2]
    2560:	3240      	adds	r2, #64	; 0x40
    2562:	5083      	str	r3, [r0, r2]
    2564:	3204      	adds	r2, #4
    2566:	5083      	str	r3, [r0, r2]
    2568:	2401      	movs	r4, #1
    256a:	2d00      	cmp	r5, #0
    256c:	d0dd      	beq.n	252a <__register_exitproc+0x2e>
    256e:	009a      	lsls	r2, r3, #2
    2570:	4691      	mov	r9, r2
    2572:	4481      	add	r9, r0
    2574:	4642      	mov	r2, r8
    2576:	2188      	movs	r1, #136	; 0x88
    2578:	464f      	mov	r7, r9
    257a:	507a      	str	r2, [r7, r1]
    257c:	22c4      	movs	r2, #196	; 0xc4
    257e:	0052      	lsls	r2, r2, #1
    2580:	4690      	mov	r8, r2
    2582:	4480      	add	r8, r0
    2584:	4642      	mov	r2, r8
    2586:	3987      	subs	r1, #135	; 0x87
    2588:	4099      	lsls	r1, r3
    258a:	6812      	ldr	r2, [r2, #0]
    258c:	468a      	mov	sl, r1
    258e:	430a      	orrs	r2, r1
    2590:	4694      	mov	ip, r2
    2592:	4642      	mov	r2, r8
    2594:	4661      	mov	r1, ip
    2596:	6011      	str	r1, [r2, #0]
    2598:	2284      	movs	r2, #132	; 0x84
    259a:	4649      	mov	r1, r9
    259c:	465f      	mov	r7, fp
    259e:	0052      	lsls	r2, r2, #1
    25a0:	508f      	str	r7, [r1, r2]
    25a2:	2d02      	cmp	r5, #2
    25a4:	d1c1      	bne.n	252a <__register_exitproc+0x2e>
    25a6:	0002      	movs	r2, r0
    25a8:	4655      	mov	r5, sl
    25aa:	328d      	adds	r2, #141	; 0x8d
    25ac:	32ff      	adds	r2, #255	; 0xff
    25ae:	6811      	ldr	r1, [r2, #0]
    25b0:	430d      	orrs	r5, r1
    25b2:	6015      	str	r5, [r2, #0]
    25b4:	e7b9      	b.n	252a <__register_exitproc+0x2e>
    25b6:	0020      	movs	r0, r4
    25b8:	304d      	adds	r0, #77	; 0x4d
    25ba:	30ff      	adds	r0, #255	; 0xff
    25bc:	50e0      	str	r0, [r4, r3]
    25be:	e7ae      	b.n	251e <__register_exitproc+0x22>
    25c0:	2001      	movs	r0, #1
    25c2:	4240      	negs	r0, r0
    25c4:	e7b6      	b.n	2534 <__register_exitproc+0x38>
    25c6:	46c0      	nop			; (mov r8, r8)
    25c8:	0000277c 	.word	0x0000277c
    25cc:	00000000 	.word	0x00000000

000025d0 <spi2MOSI>:
    25d0:	0c000002 00000200                                .....

000025d5 <spi2SCK>:
    25d5:	0e000002 00000200                                .....

000025da <spi2MISO>:
    25da:	0d000002 8d200000                                ......

000025e0 <lookupTable.12443>:
    25e0:	ffff8d20 ffffada1 ffffce64 ffffef6c      .......d...l...
    25f0:	000010b7 0000324a 00005425 00007649     ....J2..%T..Iv..
    2600:	000098b7 0000bb72 0000de79 000101d0     ....r...y.......
    2610:	00012576 0001496f 00016dbc 0001925e     v%..oI...m..^...
    2620:	0001b758 0001dcaa 00020258 00022862     X.......X...b(..
    2630:	00024ecc 00027596 00029cc4 0002c457     .N...u......W...
    2640:	0002ec52 000314b7 00033d89 000366ca     R........=...f..
    2650:	0003907d 0003baa4 0003e544 0004105e     }.......D...^...
    2660:	00043bf6 0004680e 000494ac 0004c1d1     .;...h..........
    2670:	0004ef81 00051dc1 00054c95 00057c00     .........L...|..
    2680:	0005ac07 0005dcae 00060dfb 00063ff2     .............?..
    2690:	00067298 0006a5f4 0006da09 00070ee0     .r..............
    26a0:	0007447d 00077ae8 0007b228 0007ea44     }D...z..(...D...
    26b0:	00082344 00085d30 00089810 0008d3ef     D#..0]..........
    26c0:	000910d6 00094ecf 00098de5 0009ce23     .....N......#...
    26d0:	000a0f98 000a524f 000a9657 000adbbf     ....OR..W.......
    26e0:	000b2298 000b6af3 000bb4e2 000c007b     ."...j......{...
    26f0:	000c4dd4 000c9d03 000cee23 000d4150     .M......#...PA..
    2700:	000d96a9 000dee4e 000e4865 000ea516     ....N...eH......
    2710:	000f048e                                ....

00002714 <senseBatPin>:
    2714:	06000000 01000106                                .....

00002719 <senseAPin>:
    2719:	03010001 0100010b                                .....

0000271e <senseBPin>:
    271e:	02010001 0000000a                                .....

00002723 <senseCPin>:
    2723:	03000000 00000001                                .....

00002728 <senseDPin>:
    2728:	02000000 00000000                                .....

0000272d <analogAccelPin>:
    272d:	07000000 00000207                                .....

00002732 <spi2MOSI>:
    2732:	0c000002 00000200                                .....

00002737 <spi2SCK>:
    2737:	0e000002 001dcc00 001c8c00 001c8c00     ................
    2747:	001c8800 001da400 001da400 001d9600     ................
    2757:	001c8800 001da400 001d9600 001da400     ................
    2767:	001c8800 001dac00 001dac00 001dac00     ................
    2777:	001fb000 00001000                                .....

0000277c <_global_impure_ptr>:
    277c:	20000010                                ... 

00002780 <_init>:
    2780:	b5f8      	push	{r3, r4, r5, r6, r7, lr}
    2782:	46c0      	nop			; (mov r8, r8)
    2784:	bcf8      	pop	{r3, r4, r5, r6, r7}
    2786:	bc08      	pop	{r3}
    2788:	469e      	mov	lr, r3
    278a:	4770      	bx	lr

0000278c <__init_array_start>:
    278c:	000024a1 	.word	0x000024a1

00002790 <__frame_dummy_init_array_entry>:
    2790:	000000dd                                ....

00002794 <_fini>:
    2794:	b5f8      	push	{r3, r4, r5, r6, r7, lr}
    2796:	46c0      	nop			; (mov r8, r8)
    2798:	bcf8      	pop	{r3, r4, r5, r6, r7}
    279a:	bc08      	pop	{r3}
    279c:	469e      	mov	lr, r3
    279e:	4770      	bx	lr

000027a0 <__fini_array_start>:
    27a0:	000000b5 	.word	0x000000b5
