
DasAltimeter.elf:     file format elf32-littlearm

Sections:
Idx Name          Size      VMA       LMA       File off  Algn
  0 .text         00003058  00000000  00000000  00010000  2**2
                  CONTENTS, ALLOC, LOAD, READONLY, CODE
  1 .relocate     00000438  20000000  00003058  00020000  2**3
                  CONTENTS, ALLOC, LOAD, DATA
  2 .bss          000001b0  20000440  000034a0  00020440  2**4
                  ALLOC
  3 .stack        00002000  200005f0  00003650  00020440  2**0
                  ALLOC
  4 .ARM.attributes 00000028  00000000  00000000  00020438  2**0
                  CONTENTS, READONLY
  5 .comment      00000059  00000000  00000000  00020460  2**0
                  CONTENTS, READONLY
  6 .debug_frame  00000334  00000000  00000000  000204bc  2**2
                  CONTENTS, READONLY, DEBUGGING

Disassembly of section .text:

00000000 <_sfixed>:
       0:	200025f0 	.word	0x200025f0
       4:	00000119 	.word	0x00000119
       8:	00000115 	.word	0x00000115
       c:	00000115 	.word	0x00000115
	...
      2c:	00000115 	.word	0x00000115
	...
      38:	00000115 	.word	0x00000115
      3c:	00000115 	.word	0x00000115
      40:	00000115 	.word	0x00000115
      44:	00000115 	.word	0x00000115
      48:	00000115 	.word	0x00000115
      4c:	00000dd1 	.word	0x00000dd1
      50:	00000115 	.word	0x00000115
      54:	00000115 	.word	0x00000115
      58:	00000115 	.word	0x00000115
      5c:	00000115 	.word	0x00000115
      60:	00000115 	.word	0x00000115
      64:	00000115 	.word	0x00000115
      68:	00000115 	.word	0x00000115
      6c:	00000115 	.word	0x00000115
      70:	00000115 	.word	0x00000115
      74:	00000115 	.word	0x00000115
      78:	00000115 	.word	0x00000115
      7c:	00000115 	.word	0x00000115
      80:	00000115 	.word	0x00000115
      84:	00000115 	.word	0x00000115
      88:	00000115 	.word	0x00000115
      8c:	00000e71 	.word	0x00000e71
      90:	00000ed9 	.word	0x00000ed9
	...
      9c:	00000115 	.word	0x00000115
      a0:	00000115 	.word	0x00000115
      a4:	00000115 	.word	0x00000115
      a8:	00000115 	.word	0x00000115
      ac:	00000115 	.word	0x00000115
      b0:	00000000 	.word	0x00000000

000000b4 <__do_global_dtors_aux>:
      b4:	b510      	push	{r4, lr}
      b6:	4c06      	ldr	r4, [pc, #24]	; (d0 <__do_global_dtors_aux+0x1c>)
      b8:	7823      	ldrb	r3, [r4, #0]
      ba:	2b00      	cmp	r3, #0
      bc:	d107      	bne.n	ce <__do_global_dtors_aux+0x1a>
      be:	4b05      	ldr	r3, [pc, #20]	; (d4 <__do_global_dtors_aux+0x20>)
      c0:	2b00      	cmp	r3, #0
      c2:	d002      	beq.n	ca <__do_global_dtors_aux+0x16>
      c4:	4804      	ldr	r0, [pc, #16]	; (d8 <__do_global_dtors_aux+0x24>)
      c6:	e000      	b.n	ca <__do_global_dtors_aux+0x16>
      c8:	bf00      	nop
      ca:	2301      	movs	r3, #1
      cc:	7023      	strb	r3, [r4, #0]
      ce:	bd10      	pop	{r4, pc}
      d0:	20000440 	.word	0x20000440
      d4:	00000000 	.word	0x00000000
      d8:	00003058 	.word	0x00003058

000000dc <frame_dummy>:
      dc:	4b08      	ldr	r3, [pc, #32]	; (100 <frame_dummy+0x24>)
      de:	b510      	push	{r4, lr}
      e0:	2b00      	cmp	r3, #0
      e2:	d003      	beq.n	ec <frame_dummy+0x10>
      e4:	4907      	ldr	r1, [pc, #28]	; (104 <frame_dummy+0x28>)
      e6:	4808      	ldr	r0, [pc, #32]	; (108 <frame_dummy+0x2c>)
      e8:	e000      	b.n	ec <frame_dummy+0x10>
      ea:	bf00      	nop
      ec:	4807      	ldr	r0, [pc, #28]	; (10c <frame_dummy+0x30>)
      ee:	6803      	ldr	r3, [r0, #0]
      f0:	2b00      	cmp	r3, #0
      f2:	d100      	bne.n	f6 <frame_dummy+0x1a>
      f4:	bd10      	pop	{r4, pc}
      f6:	4b06      	ldr	r3, [pc, #24]	; (110 <frame_dummy+0x34>)
      f8:	2b00      	cmp	r3, #0
      fa:	d0fb      	beq.n	f4 <frame_dummy+0x18>
      fc:	4798      	blx	r3
      fe:	e7f9      	b.n	f4 <frame_dummy+0x18>
     100:	00000000 	.word	0x00000000
     104:	20000444 	.word	0x20000444
     108:	00003058 	.word	0x00003058
     10c:	00003058 	.word	0x00003058
     110:	00000000 	.word	0x00000000

00000114 <Dummy_Handler>:
     114:	e7fe      	b.n	114 <Dummy_Handler>
	...

00000118 <Reset_Handler>:
     118:	4821      	ldr	r0, [pc, #132]	; (1a0 <Reset_Handler+0x88>)
     11a:	4922      	ldr	r1, [pc, #136]	; (1a4 <Reset_Handler+0x8c>)
     11c:	b570      	push	{r4, r5, r6, lr}
     11e:	4288      	cmp	r0, r1
     120:	d002      	beq.n	128 <Reset_Handler+0x10>
     122:	2300      	movs	r3, #0
     124:	4c20      	ldr	r4, [pc, #128]	; (1a8 <Reset_Handler+0x90>)
     126:	e003      	b.n	130 <Reset_Handler+0x18>
     128:	4b20      	ldr	r3, [pc, #128]	; (1ac <Reset_Handler+0x94>)
     12a:	4a21      	ldr	r2, [pc, #132]	; (1b0 <Reset_Handler+0x98>)
     12c:	2100      	movs	r1, #0
     12e:	e006      	b.n	13e <Reset_Handler+0x26>
     130:	18ca      	adds	r2, r1, r3
     132:	42a2      	cmp	r2, r4
     134:	d2f8      	bcs.n	128 <Reset_Handler+0x10>
     136:	58c5      	ldr	r5, [r0, r3]
     138:	3304      	adds	r3, #4
     13a:	6015      	str	r5, [r2, #0]
     13c:	e7f8      	b.n	130 <Reset_Handler+0x18>
     13e:	4293      	cmp	r3, r2
     140:	d201      	bcs.n	146 <Reset_Handler+0x2e>
     142:	c302      	stmia	r3!, {r1}
     144:	e7fb      	b.n	13e <Reset_Handler+0x26>
     146:	21ff      	movs	r1, #255	; 0xff
     148:	2402      	movs	r4, #2
     14a:	2503      	movs	r5, #3
     14c:	4b19      	ldr	r3, [pc, #100]	; (1b4 <Reset_Handler+0x9c>)
     14e:	4a1a      	ldr	r2, [pc, #104]	; (1b8 <Reset_Handler+0xa0>)
     150:	438b      	bics	r3, r1
     152:	260c      	movs	r6, #12
     154:	6093      	str	r3, [r2, #8]
     156:	2208      	movs	r2, #8
     158:	4b18      	ldr	r3, [pc, #96]	; (1bc <Reset_Handler+0xa4>)
     15a:	4919      	ldr	r1, [pc, #100]	; (1c0 <Reset_Handler+0xa8>)
     15c:	625c      	str	r4, [r3, #36]	; 0x24
     15e:	78cb      	ldrb	r3, [r1, #3]
     160:	43ab      	bics	r3, r5
     162:	4323      	orrs	r3, r4
     164:	70cb      	strb	r3, [r1, #3]
     166:	78cb      	ldrb	r3, [r1, #3]
     168:	43b3      	bics	r3, r6
     16a:	4313      	orrs	r3, r2
     16c:	70cb      	strb	r3, [r1, #3]
     16e:	2130      	movs	r1, #48	; 0x30
     170:	4b14      	ldr	r3, [pc, #80]	; (1c4 <Reset_Handler+0xac>)
     172:	7b98      	ldrb	r0, [r3, #14]
     174:	4388      	bics	r0, r1
     176:	3910      	subs	r1, #16
     178:	4308      	orrs	r0, r1
     17a:	7398      	strb	r0, [r3, #14]
     17c:	7b99      	ldrb	r1, [r3, #14]
     17e:	43b1      	bics	r1, r6
     180:	4311      	orrs	r1, r2
     182:	7399      	strb	r1, [r3, #14]
     184:	2180      	movs	r1, #128	; 0x80
     186:	7b9a      	ldrb	r2, [r3, #14]
     188:	43aa      	bics	r2, r5
     18a:	4322      	orrs	r2, r4
     18c:	739a      	strb	r2, [r3, #14]
     18e:	4a0e      	ldr	r2, [pc, #56]	; (1c8 <Reset_Handler+0xb0>)
     190:	6853      	ldr	r3, [r2, #4]
     192:	430b      	orrs	r3, r1
     194:	6053      	str	r3, [r2, #4]
     196:	4b0d      	ldr	r3, [pc, #52]	; (1cc <Reset_Handler+0xb4>)
     198:	4798      	blx	r3
     19a:	4b0d      	ldr	r3, [pc, #52]	; (1d0 <Reset_Handler+0xb8>)
     19c:	4798      	blx	r3
     19e:	e7fe      	b.n	19e <Reset_Handler+0x86>
     1a0:	00003058 	.word	0x00003058
     1a4:	20000000 	.word	0x20000000
     1a8:	20000438 	.word	0x20000438
     1ac:	20000440 	.word	0x20000440
     1b0:	200005f0 	.word	0x200005f0
     1b4:	00000000 	.word	0x00000000
     1b8:	e000ed00 	.word	0xe000ed00
     1bc:	410070fc 	.word	0x410070fc
     1c0:	41005000 	.word	0x41005000
     1c4:	41004800 	.word	0x41004800
     1c8:	41004000 	.word	0x41004000
     1cc:	00002bfd 	.word	0x00002bfd
     1d0:	00000885 	.word	0x00000885

000001d4 <SystemInit>:
     1d4:	4a01      	ldr	r2, [pc, #4]	; (1dc <SystemInit+0x8>)
     1d6:	4b02      	ldr	r3, [pc, #8]	; (1e0 <SystemInit+0xc>)
     1d8:	601a      	str	r2, [r3, #0]
     1da:	4770      	bx	lr
     1dc:	000f4240 	.word	0x000f4240
     1e0:	20000000 	.word	0x20000000

000001e4 <readMS5803AdcResults>:
     1e4:	2280      	movs	r2, #128	; 0x80
     1e6:	4b28      	ldr	r3, [pc, #160]	; (288 <readMS5803AdcResults+0xa4>)
     1e8:	0212      	lsls	r2, r2, #8
     1ea:	b5f0      	push	{r4, r5, r6, r7, lr}
     1ec:	615a      	str	r2, [r3, #20]
     1ee:	2300      	movs	r3, #0
     1f0:	4d26      	ldr	r5, [pc, #152]	; (28c <readMS5803AdcResults+0xa8>)
     1f2:	b087      	sub	sp, #28
     1f4:	9300      	str	r3, [sp, #0]
     1f6:	786b      	ldrb	r3, [r5, #1]
     1f8:	7828      	ldrb	r0, [r5, #0]
     1fa:	78aa      	ldrb	r2, [r5, #2]
     1fc:	021b      	lsls	r3, r3, #8
     1fe:	4303      	orrs	r3, r0
     200:	0412      	lsls	r2, r2, #16
     202:	0019      	movs	r1, r3
     204:	0013      	movs	r3, r2
     206:	430b      	orrs	r3, r1
     208:	79a9      	ldrb	r1, [r5, #6]
     20a:	796f      	ldrb	r7, [r5, #5]
     20c:	79ec      	ldrb	r4, [r5, #7]
     20e:	0209      	lsls	r1, r1, #8
     210:	4339      	orrs	r1, r7
     212:	0424      	lsls	r4, r4, #16
     214:	0008      	movs	r0, r1
     216:	0021      	movs	r1, r4
     218:	7a2c      	ldrb	r4, [r5, #8]
     21a:	78ea      	ldrb	r2, [r5, #3]
     21c:	7a6f      	ldrb	r7, [r5, #9]
     21e:	4301      	orrs	r1, r0
     220:	0624      	lsls	r4, r4, #24
     222:	430c      	orrs	r4, r1
     224:	0612      	lsls	r2, r2, #24
     226:	431a      	orrs	r2, r3
     228:	0020      	movs	r0, r4
     22a:	792b      	ldrb	r3, [r5, #4]
     22c:	0039      	movs	r1, r7
     22e:	4e18      	ldr	r6, [pc, #96]	; (290 <readMS5803AdcResults+0xac>)
     230:	47b0      	blx	r6
     232:	7aeb      	ldrb	r3, [r5, #11]
     234:	7aa9      	ldrb	r1, [r5, #10]
     236:	021b      	lsls	r3, r3, #8
     238:	430b      	orrs	r3, r1
     23a:	001a      	movs	r2, r3
     23c:	7b2b      	ldrb	r3, [r5, #12]
     23e:	4e15      	ldr	r6, [pc, #84]	; (294 <readMS5803AdcResults+0xb0>)
     240:	041b      	lsls	r3, r3, #16
     242:	4313      	orrs	r3, r2
     244:	7b6a      	ldrb	r2, [r5, #13]
     246:	7bad      	ldrb	r5, [r5, #14]
     248:	0612      	lsls	r2, r2, #24
     24a:	431a      	orrs	r2, r3
     24c:	0039      	movs	r1, r7
     24e:	002b      	movs	r3, r5
     250:	0020      	movs	r0, r4
     252:	9203      	str	r2, [sp, #12]
     254:	47b0      	blx	r6
     256:	9a03      	ldr	r2, [sp, #12]
     258:	9004      	str	r0, [sp, #16]
     25a:	002b      	movs	r3, r5
     25c:	0039      	movs	r1, r7
     25e:	0020      	movs	r0, r4
     260:	47b0      	blx	r6
     262:	9a03      	ldr	r2, [sp, #12]
     264:	9005      	str	r0, [sp, #20]
     266:	002b      	movs	r3, r5
     268:	0020      	movs	r0, r4
     26a:	0039      	movs	r1, r7
     26c:	47b0      	blx	r6
     26e:	2280      	movs	r2, #128	; 0x80
     270:	4b05      	ldr	r3, [pc, #20]	; (288 <readMS5803AdcResults+0xa4>)
     272:	0212      	lsls	r2, r2, #8
     274:	619a      	str	r2, [r3, #24]
     276:	9b04      	ldr	r3, [sp, #16]
     278:	9a05      	ldr	r2, [sp, #20]
     27a:	041b      	lsls	r3, r3, #16
     27c:	0215      	lsls	r5, r2, #8
     27e:	431d      	orrs	r5, r3
     280:	4328      	orrs	r0, r5
     282:	b007      	add	sp, #28
     284:	bdf0      	pop	{r4, r5, r6, r7, pc}
     286:	46c0      	nop			; (mov r8, r8)
     288:	41004400 	.word	0x41004400
     28c:	00002e00 	.word	0x00002e00
     290:	00000af9 	.word	0x00000af9
     294:	00000b65 	.word	0x00000b65

00000298 <ConvertPressureTemperature>:
     298:	b5f0      	push	{r4, r5, r6, r7, lr}
     29a:	240a      	movs	r4, #10
     29c:	b08d      	sub	sp, #52	; 0x34
     29e:	8803      	ldrh	r3, [r0, #0]
     2a0:	aa04      	add	r2, sp, #16
     2a2:	8093      	strh	r3, [r2, #4]
     2a4:	8843      	ldrh	r3, [r0, #2]
     2a6:	18a4      	adds	r4, r4, r2
     2a8:	80d3      	strh	r3, [r2, #6]
     2aa:	8883      	ldrh	r3, [r0, #4]
     2ac:	1d95      	adds	r5, r2, #6
     2ae:	8113      	strh	r3, [r2, #8]
     2b0:	88c3      	ldrh	r3, [r0, #6]
     2b2:	9401      	str	r4, [sp, #4]
     2b4:	8023      	strh	r3, [r4, #0]
     2b6:	8903      	ldrh	r3, [r0, #8]
     2b8:	aa07      	add	r2, sp, #28
     2ba:	8013      	strh	r3, [r2, #0]
     2bc:	230e      	movs	r3, #14
     2be:	0007      	movs	r7, r0
     2c0:	8941      	ldrh	r1, [r0, #10]
     2c2:	a804      	add	r0, sp, #16
     2c4:	181b      	adds	r3, r3, r0
     2c6:	8019      	strh	r1, [r3, #0]
     2c8:	8816      	ldrh	r6, [r2, #0]
     2ca:	693a      	ldr	r2, [r7, #16]
     2cc:	0236      	lsls	r6, r6, #8
     2ce:	8818      	ldrh	r0, [r3, #0]
     2d0:	1b96      	subs	r6, r2, r6
     2d2:	17f2      	asrs	r2, r6, #31
     2d4:	4c2a      	ldr	r4, [pc, #168]	; (380 <ConvertPressureTemperature+0xe8>)
     2d6:	9203      	str	r2, [sp, #12]
     2d8:	17f3      	asrs	r3, r6, #31
     2da:	0032      	movs	r2, r6
     2dc:	b280      	uxth	r0, r0
     2de:	2100      	movs	r1, #0
     2e0:	47a0      	blx	r4
     2e2:	23fa      	movs	r3, #250	; 0xfa
     2e4:	00db      	lsls	r3, r3, #3
     2e6:	18c9      	adds	r1, r1, r3
     2e8:	882b      	ldrh	r3, [r5, #0]
     2ea:	6179      	str	r1, [r7, #20]
     2ec:	b29b      	uxth	r3, r3
     2ee:	9302      	str	r3, [sp, #8]
     2f0:	9b01      	ldr	r3, [sp, #4]
     2f2:	0032      	movs	r2, r6
     2f4:	8818      	ldrh	r0, [r3, #0]
     2f6:	2100      	movs	r1, #0
     2f8:	17f3      	asrs	r3, r6, #31
     2fa:	b280      	uxth	r0, r0
     2fc:	47a0      	blx	r4
     2fe:	064b      	lsls	r3, r1, #25
     300:	09c4      	lsrs	r4, r0, #7
     302:	431c      	orrs	r4, r3
     304:	2300      	movs	r3, #0
     306:	11cd      	asrs	r5, r1, #7
     308:	9902      	ldr	r1, [sp, #8]
     30a:	040a      	lsls	r2, r1, #16
     30c:	1912      	adds	r2, r2, r4
     30e:	416b      	adcs	r3, r5
     310:	9208      	str	r2, [sp, #32]
     312:	9309      	str	r3, [sp, #36]	; 0x24
     314:	ab04      	add	r3, sp, #16
     316:	889c      	ldrh	r4, [r3, #4]
     318:	8918      	ldrh	r0, [r3, #8]
     31a:	0032      	movs	r2, r6
     31c:	9b03      	ldr	r3, [sp, #12]
     31e:	4d18      	ldr	r5, [pc, #96]	; (380 <ConvertPressureTemperature+0xe8>)
     320:	b280      	uxth	r0, r0
     322:	2100      	movs	r1, #0
     324:	47a8      	blx	r5
     326:	060b      	lsls	r3, r1, #24
     328:	0a05      	lsrs	r5, r0, #8
     32a:	431d      	orrs	r5, r3
     32c:	2300      	movs	r3, #0
     32e:	b2a4      	uxth	r4, r4
     330:	120e      	asrs	r6, r1, #8
     332:	03e2      	lsls	r2, r4, #15
     334:	1952      	adds	r2, r2, r5
     336:	4173      	adcs	r3, r6
     338:	920a      	str	r2, [sp, #40]	; 0x28
     33a:	930b      	str	r3, [sp, #44]	; 0x2c
     33c:	9a0a      	ldr	r2, [sp, #40]	; 0x28
     33e:	9b0b      	ldr	r3, [sp, #44]	; 0x2c
     340:	9c08      	ldr	r4, [sp, #32]
     342:	9d09      	ldr	r5, [sp, #36]	; 0x24
     344:	4e0e      	ldr	r6, [pc, #56]	; (380 <ConvertPressureTemperature+0xe8>)
     346:	68f8      	ldr	r0, [r7, #12]
     348:	2100      	movs	r1, #0
     34a:	47b0      	blx	r6
     34c:	2300      	movs	r3, #0
     34e:	17ce      	asrs	r6, r1, #31
     350:	02f6      	lsls	r6, r6, #11
     352:	0af2      	lsrs	r2, r6, #11
     354:	1880      	adds	r0, r0, r2
     356:	4159      	adcs	r1, r3
     358:	02ce      	lsls	r6, r1, #11
     35a:	0d42      	lsrs	r2, r0, #21
     35c:	4332      	orrs	r2, r6
     35e:	154b      	asrs	r3, r1, #21
     360:	1b12      	subs	r2, r2, r4
     362:	41ab      	sbcs	r3, r5
     364:	2100      	movs	r1, #0
     366:	17dc      	asrs	r4, r3, #31
     368:	0464      	lsls	r4, r4, #17
     36a:	0c60      	lsrs	r0, r4, #17
     36c:	1812      	adds	r2, r2, r0
     36e:	414b      	adcs	r3, r1
     370:	0011      	movs	r1, r2
     372:	045b      	lsls	r3, r3, #17
     374:	0bca      	lsrs	r2, r1, #15
     376:	431a      	orrs	r2, r3
     378:	61fa      	str	r2, [r7, #28]
     37a:	b00d      	add	sp, #52	; 0x34
     37c:	bdf0      	pop	{r4, r5, r6, r7, pc}
     37e:	46c0      	nop			; (mov r8, r8)
     380:	00001531 	.word	0x00001531

00000384 <pascalToCent>:
     384:	210a      	movs	r1, #10
     386:	69c3      	ldr	r3, [r0, #28]
     388:	b570      	push	{r4, r5, r6, lr}
     38a:	4359      	muls	r1, r3
     38c:	0004      	movs	r4, r0
     38e:	6181      	str	r1, [r0, #24]
     390:	480f      	ldr	r0, [pc, #60]	; (3d0 <pascalToCent+0x4c>)
     392:	4281      	cmp	r1, r0
     394:	d901      	bls.n	39a <pascalToCent+0x16>
     396:	4b0f      	ldr	r3, [pc, #60]	; (3d4 <pascalToCent+0x50>)
     398:	e004      	b.n	3a4 <pascalToCent+0x20>
     39a:	1a43      	subs	r3, r0, r1
     39c:	0a9b      	lsrs	r3, r3, #10
     39e:	2b4b      	cmp	r3, #75	; 0x4b
     3a0:	d902      	bls.n	3a8 <pascalToCent+0x24>
     3a2:	4b0d      	ldr	r3, [pc, #52]	; (3d8 <pascalToCent+0x54>)
     3a4:	6223      	str	r3, [r4, #32]
     3a6:	e011      	b.n	3cc <pascalToCent+0x48>
     3a8:	4d0c      	ldr	r5, [pc, #48]	; (3dc <pascalToCent+0x58>)
     3aa:	009a      	lsls	r2, r3, #2
     3ac:	029e      	lsls	r6, r3, #10
     3ae:	3301      	adds	r3, #1
     3b0:	009b      	lsls	r3, r3, #2
     3b2:	18aa      	adds	r2, r5, r2
     3b4:	18eb      	adds	r3, r5, r3
     3b6:	6912      	ldr	r2, [r2, #16]
     3b8:	691b      	ldr	r3, [r3, #16]
     3ba:	1b80      	subs	r0, r0, r6
     3bc:	1a9b      	subs	r3, r3, r2
     3be:	1a40      	subs	r0, r0, r1
     3c0:	4358      	muls	r0, r3
     3c2:	0a80      	lsrs	r0, r0, #10
     3c4:	1880      	adds	r0, r0, r2
     3c6:	4b06      	ldr	r3, [pc, #24]	; (3e0 <pascalToCent+0x5c>)
     3c8:	4798      	blx	r3
     3ca:	6220      	str	r0, [r4, #32]
     3cc:	bd70      	pop	{r4, r5, r6, pc}
     3ce:	46c0      	nop			; (mov r8, r8)
     3d0:	000199cc 	.word	0x000199cc
     3d4:	c6e5c000 	.word	0xc6e5c000
     3d8:	497048e0 	.word	0x497048e0
     3dc:	00002e00 	.word	0x00002e00
     3e0:	00001db5 	.word	0x00001db5

000003e4 <readMS5803Coefficients>:
     3e4:	b5f0      	push	{r4, r5, r6, r7, lr}
     3e6:	27a2      	movs	r7, #162	; 0xa2
     3e8:	b087      	sub	sp, #28
     3ea:	9002      	str	r0, [sp, #8]
     3ec:	2096      	movs	r0, #150	; 0x96
     3ee:	4c2b      	ldr	r4, [pc, #172]	; (49c <readMS5803Coefficients+0xb8>)
     3f0:	0080      	lsls	r0, r0, #2
     3f2:	47a0      	blx	r4
     3f4:	2096      	movs	r0, #150	; 0x96
     3f6:	0080      	lsls	r0, r0, #2
     3f8:	47a0      	blx	r4
     3fa:	2280      	movs	r2, #128	; 0x80
     3fc:	4c28      	ldr	r4, [pc, #160]	; (4a0 <readMS5803Coefficients+0xbc>)
     3fe:	4b29      	ldr	r3, [pc, #164]	; (4a4 <readMS5803Coefficients+0xc0>)
     400:	0212      	lsls	r2, r2, #8
     402:	615a      	str	r2, [r3, #20]
     404:	7863      	ldrb	r3, [r4, #1]
     406:	7820      	ldrb	r0, [r4, #0]
     408:	78a2      	ldrb	r2, [r4, #2]
     40a:	021b      	lsls	r3, r3, #8
     40c:	4303      	orrs	r3, r0
     40e:	0412      	lsls	r2, r2, #16
     410:	0019      	movs	r1, r3
     412:	0013      	movs	r3, r2
     414:	430b      	orrs	r3, r1
     416:	79a1      	ldrb	r1, [r4, #6]
     418:	7966      	ldrb	r6, [r4, #5]
     41a:	0209      	lsls	r1, r1, #8
     41c:	4331      	orrs	r1, r6
     41e:	0008      	movs	r0, r1
     420:	79e1      	ldrb	r1, [r4, #7]
     422:	78e2      	ldrb	r2, [r4, #3]
     424:	0409      	lsls	r1, r1, #16
     426:	4301      	orrs	r1, r0
     428:	7a20      	ldrb	r0, [r4, #8]
     42a:	7a66      	ldrb	r6, [r4, #9]
     42c:	0612      	lsls	r2, r2, #24
     42e:	0600      	lsls	r0, r0, #24
     430:	4308      	orrs	r0, r1
     432:	431a      	orrs	r2, r3
     434:	9700      	str	r7, [sp, #0]
     436:	7923      	ldrb	r3, [r4, #4]
     438:	0031      	movs	r1, r6
     43a:	4d1b      	ldr	r5, [pc, #108]	; (4a8 <readMS5803Coefficients+0xc4>)
     43c:	9003      	str	r0, [sp, #12]
     43e:	47a8      	blx	r5
     440:	7ae3      	ldrb	r3, [r4, #11]
     442:	0020      	movs	r0, r4
     444:	7aa1      	ldrb	r1, [r4, #10]
     446:	7b24      	ldrb	r4, [r4, #12]
     448:	021b      	lsls	r3, r3, #8
     44a:	430b      	orrs	r3, r1
     44c:	0424      	lsls	r4, r4, #16
     44e:	001a      	movs	r2, r3
     450:	0023      	movs	r3, r4
     452:	7b44      	ldrb	r4, [r0, #13]
     454:	7b85      	ldrb	r5, [r0, #14]
     456:	4313      	orrs	r3, r2
     458:	0624      	lsls	r4, r4, #24
     45a:	431c      	orrs	r4, r3
     45c:	0022      	movs	r2, r4
     45e:	002b      	movs	r3, r5
     460:	9404      	str	r4, [sp, #16]
     462:	0031      	movs	r1, r6
     464:	4c11      	ldr	r4, [pc, #68]	; (4ac <readMS5803Coefficients+0xc8>)
     466:	9803      	ldr	r0, [sp, #12]
     468:	47a0      	blx	r4
     46a:	002b      	movs	r3, r5
     46c:	9005      	str	r0, [sp, #20]
     46e:	9a04      	ldr	r2, [sp, #16]
     470:	9803      	ldr	r0, [sp, #12]
     472:	0031      	movs	r1, r6
     474:	4c0d      	ldr	r4, [pc, #52]	; (4ac <readMS5803Coefficients+0xc8>)
     476:	47a0      	blx	r4
     478:	2280      	movs	r2, #128	; 0x80
     47a:	4b0a      	ldr	r3, [pc, #40]	; (4a4 <readMS5803Coefficients+0xc0>)
     47c:	0212      	lsls	r2, r2, #8
     47e:	619a      	str	r2, [r3, #24]
     480:	9b05      	ldr	r3, [sp, #20]
     482:	021d      	lsls	r5, r3, #8
     484:	9b02      	ldr	r3, [sp, #8]
     486:	4328      	orrs	r0, r5
     488:	8018      	strh	r0, [r3, #0]
     48a:	1cbb      	adds	r3, r7, #2
     48c:	b2df      	uxtb	r7, r3
     48e:	9b02      	ldr	r3, [sp, #8]
     490:	3302      	adds	r3, #2
     492:	9302      	str	r3, [sp, #8]
     494:	2fae      	cmp	r7, #174	; 0xae
     496:	d1a9      	bne.n	3ec <readMS5803Coefficients+0x8>
     498:	b007      	add	sp, #28
     49a:	bdf0      	pop	{r4, r5, r6, r7, pc}
     49c:	00000d71 	.word	0x00000d71
     4a0:	00002e00 	.word	0x00002e00
     4a4:	41004400 	.word	0x41004400
     4a8:	00000af9 	.word	0x00000af9
     4ac:	00000b65 	.word	0x00000b65

000004b0 <initMS5803Barometer>:
     4b0:	b5f7      	push	{r0, r1, r2, r4, r5, r6, r7, lr}
     4b2:	2680      	movs	r6, #128	; 0x80
     4b4:	231e      	movs	r3, #30
     4b6:	491a      	ldr	r1, [pc, #104]	; (520 <initMS5803Barometer+0x70>)
     4b8:	4d1a      	ldr	r5, [pc, #104]	; (524 <initMS5803Barometer+0x74>)
     4ba:	0236      	lsls	r6, r6, #8
     4bc:	616e      	str	r6, [r5, #20]
     4be:	9300      	str	r3, [sp, #0]
     4c0:	784b      	ldrb	r3, [r1, #1]
     4c2:	780a      	ldrb	r2, [r1, #0]
     4c4:	021b      	lsls	r3, r3, #8
     4c6:	4313      	orrs	r3, r2
     4c8:	788a      	ldrb	r2, [r1, #2]
     4ca:	0004      	movs	r4, r0
     4cc:	0412      	lsls	r2, r2, #16
     4ce:	0018      	movs	r0, r3
     4d0:	0013      	movs	r3, r2
     4d2:	78ca      	ldrb	r2, [r1, #3]
     4d4:	4303      	orrs	r3, r0
     4d6:	0612      	lsls	r2, r2, #24
     4d8:	1d4f      	adds	r7, r1, #5
     4da:	431a      	orrs	r2, r3
     4dc:	7948      	ldrb	r0, [r1, #5]
     4de:	790b      	ldrb	r3, [r1, #4]
     4e0:	7989      	ldrb	r1, [r1, #6]
     4e2:	0209      	lsls	r1, r1, #8
     4e4:	4301      	orrs	r1, r0
     4e6:	78b8      	ldrb	r0, [r7, #2]
     4e8:	0400      	lsls	r0, r0, #16
     4ea:	4301      	orrs	r1, r0
     4ec:	78f8      	ldrb	r0, [r7, #3]
     4ee:	0600      	lsls	r0, r0, #24
     4f0:	4308      	orrs	r0, r1
     4f2:	7939      	ldrb	r1, [r7, #4]
     4f4:	4f0c      	ldr	r7, [pc, #48]	; (528 <initMS5803Barometer+0x78>)
     4f6:	47b8      	blx	r7
     4f8:	61ae      	str	r6, [r5, #24]
     4fa:	20c8      	movs	r0, #200	; 0xc8
     4fc:	4b0b      	ldr	r3, [pc, #44]	; (52c <initMS5803Barometer+0x7c>)
     4fe:	4798      	blx	r3
     500:	0020      	movs	r0, r4
     502:	4b0b      	ldr	r3, [pc, #44]	; (530 <initMS5803Barometer+0x80>)
     504:	4798      	blx	r3
     506:	4b0b      	ldr	r3, [pc, #44]	; (534 <initMS5803Barometer+0x84>)
     508:	6223      	str	r3, [r4, #32]
     50a:	4b0b      	ldr	r3, [pc, #44]	; (538 <initMS5803Barometer+0x88>)
     50c:	61a3      	str	r3, [r4, #24]
     50e:	4b0b      	ldr	r3, [pc, #44]	; (53c <initMS5803Barometer+0x8c>)
     510:	60e3      	str	r3, [r4, #12]
     512:	4b0b      	ldr	r3, [pc, #44]	; (540 <initMS5803Barometer+0x90>)
     514:	6123      	str	r3, [r4, #16]
     516:	23fa      	movs	r3, #250	; 0xfa
     518:	00db      	lsls	r3, r3, #3
     51a:	6163      	str	r3, [r4, #20]
     51c:	bdf7      	pop	{r0, r1, r2, r4, r5, r6, r7, pc}
     51e:	46c0      	nop			; (mov r8, r8)
     520:	00002e00 	.word	0x00002e00
     524:	41004400 	.word	0x41004400
     528:	00000af9 	.word	0x00000af9
     52c:	00000da1 	.word	0x00000da1
     530:	000003e5 	.word	0x000003e5
     534:	457a0000 	.word	0x457a0000
     538:	00002710 	.word	0x00002710
     53c:	0041c9fe 	.word	0x0041c9fe
     540:	007ffae4 	.word	0x007ffae4

00000544 <init>:
     544:	b5f0      	push	{r4, r5, r6, r7, lr}
     546:	4bbf      	ldr	r3, [pc, #764]	; (844 <init+0x300>)
     548:	b085      	sub	sp, #20
     54a:	4798      	blx	r3
     54c:	4bbe      	ldr	r3, [pc, #760]	; (848 <init+0x304>)
     54e:	4798      	blx	r3
     550:	4bbe      	ldr	r3, [pc, #760]	; (84c <init+0x308>)
     552:	4798      	blx	r3
     554:	4bbe      	ldr	r3, [pc, #760]	; (850 <init+0x30c>)
     556:	4798      	blx	r3
     558:	4bbe      	ldr	r3, [pc, #760]	; (854 <init+0x310>)
     55a:	4798      	blx	r3
     55c:	4bbe      	ldr	r3, [pc, #760]	; (858 <init+0x314>)
     55e:	4798      	blx	r3
     560:	2240      	movs	r2, #64	; 0x40
     562:	21c1      	movs	r1, #193	; 0xc1
     564:	4bbd      	ldr	r3, [pc, #756]	; (85c <init+0x318>)
     566:	0089      	lsls	r1, r1, #2
     568:	601a      	str	r2, [r3, #0]
     56a:	5858      	ldr	r0, [r3, r1]
     56c:	4abc      	ldr	r2, [pc, #752]	; (860 <init+0x31c>)
     56e:	2401      	movs	r4, #1
     570:	4002      	ands	r2, r0
     572:	505a      	str	r2, [r3, r1]
     574:	4bbb      	ldr	r3, [pc, #748]	; (864 <init+0x320>)
     576:	2510      	movs	r5, #16
     578:	0019      	movs	r1, r3
     57a:	3154      	adds	r1, #84	; 0x54
     57c:	780a      	ldrb	r2, [r1, #0]
     57e:	0018      	movs	r0, r3
     580:	43a2      	bics	r2, r4
     582:	700a      	strb	r2, [r1, #0]
     584:	2280      	movs	r2, #128	; 0x80
     586:	0352      	lsls	r2, r2, #13
     588:	609a      	str	r2, [r3, #8]
     58a:	220f      	movs	r2, #15
     58c:	3033      	adds	r0, #51	; 0x33
     58e:	7801      	ldrb	r1, [r0, #0]
     590:	001e      	movs	r6, r3
     592:	4391      	bics	r1, r2
     594:	4321      	orrs	r1, r4
     596:	7001      	strb	r1, [r0, #0]
     598:	7cc1      	ldrb	r1, [r0, #19]
     59a:	36c3      	adds	r6, #195	; 0xc3
     59c:	4321      	orrs	r1, r4
     59e:	74c1      	strb	r1, [r0, #19]
     5a0:	0019      	movs	r1, r3
     5a2:	31b1      	adds	r1, #177	; 0xb1
     5a4:	7808      	ldrb	r0, [r1, #0]
     5a6:	001f      	movs	r7, r3
     5a8:	4010      	ands	r0, r2
     5aa:	4328      	orrs	r0, r5
     5ac:	7008      	strb	r0, [r1, #0]
     5ae:	7830      	ldrb	r0, [r6, #0]
     5b0:	3788      	adds	r7, #136	; 0x88
     5b2:	4320      	orrs	r0, r4
     5b4:	7030      	strb	r0, [r6, #0]
     5b6:	7808      	ldrb	r0, [r1, #0]
     5b8:	4010      	ands	r0, r2
     5ba:	4328      	orrs	r0, r5
     5bc:	7008      	strb	r0, [r1, #0]
     5be:	7830      	ldrb	r0, [r6, #0]
     5c0:	4320      	orrs	r0, r4
     5c2:	7030      	strb	r0, [r6, #0]
     5c4:	7d30      	ldrb	r0, [r6, #20]
     5c6:	43a0      	bics	r0, r4
     5c8:	7530      	strb	r0, [r6, #20]
     5ca:	2080      	movs	r0, #128	; 0x80
     5cc:	0400      	lsls	r0, r0, #16
     5ce:	9703      	str	r7, [sp, #12]
     5d0:	6038      	str	r0, [r7, #0]
     5d2:	60f8      	str	r0, [r7, #12]
     5d4:	7808      	ldrb	r0, [r1, #0]
     5d6:	003e      	movs	r6, r7
     5d8:	4390      	bics	r0, r2
     5da:	4320      	orrs	r0, r4
     5dc:	7008      	strb	r0, [r1, #0]
     5de:	20c2      	movs	r0, #194	; 0xc2
     5e0:	4684      	mov	ip, r0
     5e2:	449c      	add	ip, r3
     5e4:	4660      	mov	r0, ip
     5e6:	4667      	mov	r7, ip
     5e8:	7800      	ldrb	r0, [r0, #0]
     5ea:	4320      	orrs	r0, r4
     5ec:	7038      	strb	r0, [r7, #0]
     5ee:	7808      	ldrb	r0, [r1, #0]
     5f0:	4390      	bics	r0, r2
     5f2:	4320      	orrs	r0, r4
     5f4:	7008      	strb	r0, [r1, #0]
     5f6:	0018      	movs	r0, r3
     5f8:	7839      	ldrb	r1, [r7, #0]
     5fa:	30d6      	adds	r0, #214	; 0xd6
     5fc:	4321      	orrs	r1, r4
     5fe:	7039      	strb	r1, [r7, #0]
     600:	7801      	ldrb	r1, [r0, #0]
     602:	2702      	movs	r7, #2
     604:	43a1      	bics	r1, r4
     606:	7001      	strb	r1, [r0, #0]
     608:	2180      	movs	r1, #128	; 0x80
     60a:	9803      	ldr	r0, [sp, #12]
     60c:	03c9      	lsls	r1, r1, #15
     60e:	6001      	str	r1, [r0, #0]
     610:	0018      	movs	r0, r3
     612:	60f1      	str	r1, [r6, #12]
     614:	3031      	adds	r0, #49	; 0x31
     616:	7801      	ldrb	r1, [r0, #0]
     618:	3e3f      	subs	r6, #63	; 0x3f
     61a:	4011      	ands	r1, r2
     61c:	430d      	orrs	r5, r1
     61e:	7005      	strb	r5, [r0, #0]
     620:	001d      	movs	r5, r3
     622:	3543      	adds	r5, #67	; 0x43
     624:	7829      	ldrb	r1, [r5, #0]
     626:	46bc      	mov	ip, r7
     628:	4321      	orrs	r1, r4
     62a:	7029      	strb	r1, [r5, #0]
     62c:	7da9      	ldrb	r1, [r5, #22]
     62e:	3505      	adds	r5, #5
     630:	43a1      	bics	r1, r4
     632:	7469      	strb	r1, [r5, #17]
     634:	2180      	movs	r1, #128	; 0x80
     636:	0489      	lsls	r1, r1, #18
     638:	6099      	str	r1, [r3, #8]
     63a:	6159      	str	r1, [r3, #20]
     63c:	7801      	ldrb	r1, [r0, #0]
     63e:	4391      	bics	r1, r2
     640:	4321      	orrs	r1, r4
     642:	7001      	strb	r1, [r0, #0]
     644:	7c41      	ldrb	r1, [r0, #17]
     646:	3011      	adds	r0, #17
     648:	4321      	orrs	r1, r4
     64a:	7001      	strb	r1, [r0, #0]
     64c:	7d81      	ldrb	r1, [r0, #22]
     64e:	43a1      	bics	r1, r4
     650:	7581      	strb	r1, [r0, #22]
     652:	2180      	movs	r1, #128	; 0x80
     654:	0449      	lsls	r1, r1, #17
     656:	6099      	str	r1, [r3, #8]
     658:	6159      	str	r1, [r3, #20]
     65a:	7829      	ldrb	r1, [r5, #0]
     65c:	43a1      	bics	r1, r4
     65e:	7029      	strb	r1, [r5, #0]
     660:	2180      	movs	r1, #128	; 0x80
     662:	0049      	lsls	r1, r1, #1
     664:	6099      	str	r1, [r3, #8]
     666:	7831      	ldrb	r1, [r6, #0]
     668:	43a1      	bics	r1, r4
     66a:	7031      	strb	r1, [r6, #0]
     66c:	2180      	movs	r1, #128	; 0x80
     66e:	0089      	lsls	r1, r1, #2
     670:	6099      	str	r1, [r3, #8]
     672:	0019      	movs	r1, r3
     674:	314b      	adds	r1, #75	; 0x4b
     676:	7808      	ldrb	r0, [r1, #0]
     678:	43a0      	bics	r0, r4
     67a:	7008      	strb	r0, [r1, #0]
     67c:	7808      	ldrb	r0, [r1, #0]
     67e:	4338      	orrs	r0, r7
     680:	7008      	strb	r0, [r1, #0]
     682:	2080      	movs	r0, #128	; 0x80
     684:	0100      	lsls	r0, r0, #4
     686:	6058      	str	r0, [r3, #4]
     688:	4877      	ldr	r0, [pc, #476]	; (868 <init+0x324>)
     68a:	371e      	adds	r7, #30
     68c:	7800      	ldrb	r0, [r0, #0]
     68e:	4010      	ands	r0, r2
     690:	4338      	orrs	r0, r7
     692:	4f75      	ldr	r7, [pc, #468]	; (868 <init+0x324>)
     694:	7038      	strb	r0, [r7, #0]
     696:	7808      	ldrb	r0, [r1, #0]
     698:	2720      	movs	r7, #32
     69a:	4320      	orrs	r0, r4
     69c:	7008      	strb	r0, [r1, #0]
     69e:	0018      	movs	r0, r3
     6a0:	3034      	adds	r0, #52	; 0x34
     6a2:	7801      	ldrb	r1, [r0, #0]
     6a4:	4011      	ands	r1, r2
     6a6:	4339      	orrs	r1, r7
     6a8:	7001      	strb	r1, [r0, #0]
     6aa:	7831      	ldrb	r1, [r6, #0]
     6ac:	4667      	mov	r7, ip
     6ae:	4321      	orrs	r1, r4
     6b0:	7031      	strb	r1, [r6, #0]
     6b2:	4666      	mov	r6, ip
     6b4:	7801      	ldrb	r1, [r0, #0]
     6b6:	4391      	bics	r1, r2
     6b8:	4331      	orrs	r1, r6
     6ba:	7001      	strb	r1, [r0, #0]
     6bc:	7829      	ldrb	r1, [r5, #0]
     6be:	3096      	adds	r0, #150	; 0x96
     6c0:	4321      	orrs	r1, r4
     6c2:	7029      	strb	r1, [r5, #0]
     6c4:	7801      	ldrb	r1, [r0, #0]
     6c6:	001e      	movs	r6, r3
     6c8:	43a1      	bics	r1, r4
     6ca:	7001      	strb	r1, [r0, #0]
     6cc:	2180      	movs	r1, #128	; 0x80
     6ce:	9803      	ldr	r0, [sp, #12]
     6d0:	00c9      	lsls	r1, r1, #3
     6d2:	6001      	str	r1, [r0, #0]
     6d4:	0018      	movs	r0, r3
     6d6:	3098      	adds	r0, #152	; 0x98
     6d8:	6001      	str	r1, [r0, #0]
     6da:	78a8      	ldrb	r0, [r5, #2]
     6dc:	3651      	adds	r6, #81	; 0x51
     6de:	43a0      	bics	r0, r4
     6e0:	70a8      	strb	r0, [r5, #2]
     6e2:	6099      	str	r1, [r3, #8]
     6e4:	6199      	str	r1, [r3, #24]
     6e6:	7a29      	ldrb	r1, [r5, #8]
     6e8:	43a1      	bics	r1, r4
     6ea:	7229      	strb	r1, [r5, #8]
     6ec:	2180      	movs	r1, #128	; 0x80
     6ee:	0249      	lsls	r1, r1, #9
     6f0:	6099      	str	r1, [r3, #8]
     6f2:	7831      	ldrb	r1, [r6, #0]
     6f4:	43a1      	bics	r1, r4
     6f6:	7031      	strb	r1, [r6, #0]
     6f8:	2180      	movs	r1, #128	; 0x80
     6fa:	0289      	lsls	r1, r1, #10
     6fc:	6099      	str	r1, [r3, #8]
     6fe:	0019      	movs	r1, r3
     700:	3153      	adds	r1, #83	; 0x53
     702:	7808      	ldrb	r0, [r1, #0]
     704:	43a0      	bics	r0, r4
     706:	7008      	strb	r0, [r1, #0]
     708:	7808      	ldrb	r0, [r1, #0]
     70a:	4338      	orrs	r0, r7
     70c:	7008      	strb	r0, [r1, #0]
     70e:	001f      	movs	r7, r3
     710:	2080      	movs	r0, #128	; 0x80
     712:	3739      	adds	r7, #57	; 0x39
     714:	0300      	lsls	r0, r0, #12
     716:	6058      	str	r0, [r3, #4]
     718:	9703      	str	r7, [sp, #12]
     71a:	7838      	ldrb	r0, [r7, #0]
     71c:	2720      	movs	r7, #32
     71e:	4010      	ands	r0, r2
     720:	4338      	orrs	r0, r7
     722:	9f03      	ldr	r7, [sp, #12]
     724:	7038      	strb	r0, [r7, #0]
     726:	7808      	ldrb	r0, [r1, #0]
     728:	2720      	movs	r7, #32
     72a:	4320      	orrs	r0, r4
     72c:	7008      	strb	r0, [r1, #0]
     72e:	0018      	movs	r0, r3
     730:	3038      	adds	r0, #56	; 0x38
     732:	7801      	ldrb	r1, [r0, #0]
     734:	4011      	ands	r1, r2
     736:	4339      	orrs	r1, r7
     738:	7001      	strb	r1, [r0, #0]
     73a:	7831      	ldrb	r1, [r6, #0]
     73c:	4321      	orrs	r1, r4
     73e:	7031      	strb	r1, [r6, #0]
     740:	4666      	mov	r6, ip
     742:	7801      	ldrb	r1, [r0, #0]
     744:	4391      	bics	r1, r2
     746:	4331      	orrs	r1, r6
     748:	7001      	strb	r1, [r0, #0]
     74a:	7a29      	ldrb	r1, [r5, #8]
     74c:	3014      	adds	r0, #20
     74e:	4321      	orrs	r1, r4
     750:	7229      	strb	r1, [r5, #8]
     752:	7981      	ldrb	r1, [r0, #6]
     754:	43a1      	bics	r1, r4
     756:	7181      	strb	r1, [r0, #6]
     758:	2180      	movs	r1, #128	; 0x80
     75a:	02c9      	lsls	r1, r1, #11
     75c:	6099      	str	r1, [r3, #8]
     75e:	6199      	str	r1, [r3, #24]
     760:	7801      	ldrb	r1, [r0, #0]
     762:	43a1      	bics	r1, r4
     764:	7001      	strb	r1, [r0, #0]
     766:	2180      	movs	r1, #128	; 0x80
     768:	0149      	lsls	r1, r1, #5
     76a:	6099      	str	r1, [r3, #8]
     76c:	7881      	ldrb	r1, [r0, #2]
     76e:	43a1      	bics	r1, r4
     770:	7081      	strb	r1, [r0, #2]
     772:	2180      	movs	r1, #128	; 0x80
     774:	01c9      	lsls	r1, r1, #7
     776:	6099      	str	r1, [r3, #8]
     778:	0019      	movs	r1, r3
     77a:	314d      	adds	r1, #77	; 0x4d
     77c:	7808      	ldrb	r0, [r1, #0]
     77e:	43a0      	bics	r0, r4
     780:	7008      	strb	r0, [r1, #0]
     782:	7808      	ldrb	r0, [r1, #0]
     784:	4330      	orrs	r0, r6
     786:	7008      	strb	r0, [r1, #0]
     788:	2180      	movs	r1, #128	; 0x80
     78a:	0018      	movs	r0, r3
     78c:	0189      	lsls	r1, r1, #6
     78e:	6059      	str	r1, [r3, #4]
     790:	304f      	adds	r0, #79	; 0x4f
     792:	7801      	ldrb	r1, [r0, #0]
     794:	43a1      	bics	r1, r4
     796:	7001      	strb	r1, [r0, #0]
     798:	2180      	movs	r1, #128	; 0x80
     79a:	0209      	lsls	r1, r1, #8
     79c:	6099      	str	r1, [r3, #8]
     79e:	6199      	str	r1, [r3, #24]
     7a0:	0019      	movs	r1, r3
     7a2:	3155      	adds	r1, #85	; 0x55
     7a4:	7808      	ldrb	r0, [r1, #0]
     7a6:	43a0      	bics	r0, r4
     7a8:	7008      	strb	r0, [r1, #0]
     7aa:	2080      	movs	r0, #128	; 0x80
     7ac:	0380      	lsls	r0, r0, #14
     7ae:	6098      	str	r0, [r3, #8]
     7b0:	2040      	movs	r0, #64	; 0x40
     7b2:	7008      	strb	r0, [r1, #0]
     7b4:	7848      	ldrb	r0, [r1, #1]
     7b6:	43a0      	bics	r0, r4
     7b8:	7048      	strb	r0, [r1, #1]
     7ba:	2080      	movs	r0, #128	; 0x80
     7bc:	03c0      	lsls	r0, r0, #15
     7be:	6098      	str	r0, [r3, #8]
     7c0:	0018      	movs	r0, r3
     7c2:	303b      	adds	r0, #59	; 0x3b
     7c4:	7805      	ldrb	r5, [r0, #0]
     7c6:	4395      	bics	r5, r2
     7c8:	4335      	orrs	r5, r6
     7ca:	7005      	strb	r5, [r0, #0]
     7cc:	784d      	ldrb	r5, [r1, #1]
     7ce:	4325      	orrs	r5, r4
     7d0:	704d      	strb	r5, [r1, #1]
     7d2:	788d      	ldrb	r5, [r1, #2]
     7d4:	43a5      	bics	r5, r4
     7d6:	708d      	strb	r5, [r1, #2]
     7d8:	788d      	ldrb	r5, [r1, #2]
     7da:	4335      	orrs	r5, r6
     7dc:	708d      	strb	r5, [r1, #2]
     7de:	2580      	movs	r5, #128	; 0x80
     7e0:	042d      	lsls	r5, r5, #16
     7e2:	605d      	str	r5, [r3, #4]
     7e4:	2500      	movs	r5, #0
     7e6:	7803      	ldrb	r3, [r0, #0]
     7e8:	4e20      	ldr	r6, [pc, #128]	; (86c <init+0x328>)
     7ea:	401a      	ands	r2, r3
     7ec:	433a      	orrs	r2, r7
     7ee:	7002      	strb	r2, [r0, #0]
     7f0:	788b      	ldrb	r3, [r1, #2]
     7f2:	2204      	movs	r2, #4
     7f4:	4323      	orrs	r3, r4
     7f6:	708b      	strb	r3, [r1, #2]
     7f8:	2000      	movs	r0, #0
     7fa:	2103      	movs	r1, #3
     7fc:	47b0      	blx	r6
     7fe:	002b      	movs	r3, r5
     800:	002a      	movs	r2, r5
     802:	0028      	movs	r0, r5
     804:	4f1a      	ldr	r7, [pc, #104]	; (870 <init+0x32c>)
     806:	9501      	str	r5, [sp, #4]
     808:	9500      	str	r5, [sp, #0]
     80a:	2103      	movs	r1, #3
     80c:	47b8      	blx	r7
     80e:	0020      	movs	r0, r4
     810:	2204      	movs	r2, #4
     812:	2103      	movs	r1, #3
     814:	47b0      	blx	r6
     816:	002b      	movs	r3, r5
     818:	002a      	movs	r2, r5
     81a:	0020      	movs	r0, r4
     81c:	9501      	str	r5, [sp, #4]
     81e:	9500      	str	r5, [sp, #0]
     820:	2103      	movs	r1, #3
     822:	47b8      	blx	r7
     824:	2208      	movs	r2, #8
     826:	2104      	movs	r1, #4
     828:	2003      	movs	r0, #3
     82a:	47b0      	blx	r6
     82c:	0021      	movs	r1, r4
     82e:	002a      	movs	r2, r5
     830:	2003      	movs	r0, #3
     832:	4b10      	ldr	r3, [pc, #64]	; (874 <init+0x330>)
     834:	4c10      	ldr	r4, [pc, #64]	; (878 <init+0x334>)
     836:	47a0      	blx	r4
     838:	4b10      	ldr	r3, [pc, #64]	; (87c <init+0x338>)
     83a:	4798      	blx	r3
     83c:	4b10      	ldr	r3, [pc, #64]	; (880 <init+0x33c>)
     83e:	4798      	blx	r3
     840:	b005      	add	sp, #20
     842:	bdf0      	pop	{r4, r5, r6, r7, pc}
     844:	000001d5 	.word	0x000001d5
     848:	00000bb9 	.word	0x00000bb9
     84c:	00000c51 	.word	0x00000c51
     850:	00000d51 	.word	0x00000d51
     854:	00000a15 	.word	0x00000a15
     858:	00000ee5 	.word	0x00000ee5
     85c:	e000e100 	.word	0xe000e100
     860:	ff00ffff 	.word	0xff00ffff
     864:	41004400 	.word	0x41004400
     868:	41004435 	.word	0x41004435
     86c:	000013f5 	.word	0x000013f5
     870:	00001459 	.word	0x00001459
     874:	0000f972 	.word	0x0000f972
     878:	000014bd 	.word	0x000014bd
     87c:	00000e21 	.word	0x00000e21
     880:	00000e89 	.word	0x00000e89

00000884 <main>:
     884:	b5f0      	push	{r4, r5, r6, r7, lr}
     886:	4b48      	ldr	r3, [pc, #288]	; (9a8 <main+0x124>)
     888:	b0ad      	sub	sp, #180	; 0xb4
     88a:	4798      	blx	r3
     88c:	2300      	movs	r3, #0
     88e:	ac09      	add	r4, sp, #36	; 0x24
     890:	7023      	strb	r3, [r4, #0]
     892:	a80b      	add	r0, sp, #44	; 0x2c
     894:	4b45      	ldr	r3, [pc, #276]	; (9ac <main+0x128>)
     896:	4798      	blx	r3
     898:	4b45      	ldr	r3, [pc, #276]	; (9b0 <main+0x12c>)
     89a:	4798      	blx	r3
     89c:	22fe      	movs	r2, #254	; 0xfe
     89e:	2300      	movs	r3, #0
     8a0:	25c8      	movs	r5, #200	; 0xc8
     8a2:	0592      	lsls	r2, r2, #22
     8a4:	9302      	str	r3, [sp, #8]
     8a6:	006d      	lsls	r5, r5, #1
     8a8:	9303      	str	r3, [sp, #12]
     8aa:	9300      	str	r3, [sp, #0]
     8ac:	9304      	str	r3, [sp, #16]
     8ae:	9205      	str	r2, [sp, #20]
     8b0:	4b40      	ldr	r3, [pc, #256]	; (9b4 <main+0x130>)
     8b2:	0020      	movs	r0, r4
     8b4:	4798      	blx	r3
     8b6:	9807      	ldr	r0, [sp, #28]
     8b8:	4e3f      	ldr	r6, [pc, #252]	; (9b8 <main+0x134>)
     8ba:	4940      	ldr	r1, [pc, #256]	; (9bc <main+0x138>)
     8bc:	47b0      	blx	r6
     8be:	9f07      	ldr	r7, [sp, #28]
     8c0:	4b3f      	ldr	r3, [pc, #252]	; (9c0 <main+0x13c>)
     8c2:	1c01      	adds	r1, r0, #0
     8c4:	1c38      	adds	r0, r7, #0
     8c6:	4798      	blx	r3
     8c8:	9007      	str	r0, [sp, #28]
     8ca:	9f07      	ldr	r7, [sp, #28]
     8cc:	493b      	ldr	r1, [pc, #236]	; (9bc <main+0x138>)
     8ce:	6ae0      	ldr	r0, [r4, #44]	; 0x2c
     8d0:	47b0      	blx	r6
     8d2:	1c39      	adds	r1, r7, #0
     8d4:	4b3b      	ldr	r3, [pc, #236]	; (9c4 <main+0x140>)
     8d6:	4798      	blx	r3
     8d8:	4b3b      	ldr	r3, [pc, #236]	; (9c8 <main+0x144>)
     8da:	9007      	str	r0, [sp, #28]
     8dc:	2096      	movs	r0, #150	; 0x96
     8de:	4798      	blx	r3
     8e0:	3d01      	subs	r5, #1
     8e2:	4b37      	ldr	r3, [pc, #220]	; (9c0 <main+0x13c>)
     8e4:	b2ad      	uxth	r5, r5
     8e6:	4f33      	ldr	r7, [pc, #204]	; (9b4 <main+0x130>)
     8e8:	9301      	str	r3, [sp, #4]
     8ea:	2d00      	cmp	r5, #0
     8ec:	d1e0      	bne.n	8b0 <main+0x2c>
     8ee:	9b07      	ldr	r3, [sp, #28]
     8f0:	2141      	movs	r1, #65	; 0x41
     8f2:	9306      	str	r3, [sp, #24]
     8f4:	9b00      	ldr	r3, [sp, #0]
     8f6:	6065      	str	r5, [r4, #4]
     8f8:	2003      	movs	r0, #3
     8fa:	4d34      	ldr	r5, [pc, #208]	; (9cc <main+0x148>)
     8fc:	9308      	str	r3, [sp, #32]
     8fe:	47a8      	blx	r5
     900:	200a      	movs	r0, #10
     902:	4b33      	ldr	r3, [pc, #204]	; (9d0 <main+0x14c>)
     904:	4798      	blx	r3
     906:	210a      	movs	r1, #10
     908:	2003      	movs	r0, #3
     90a:	47a8      	blx	r5
     90c:	4b31      	ldr	r3, [pc, #196]	; (9d4 <main+0x150>)
     90e:	4798      	blx	r3
     910:	4d31      	ldr	r5, [pc, #196]	; (9d8 <main+0x154>)
     912:	782b      	ldrb	r3, [r5, #0]
     914:	2b00      	cmp	r3, #0
     916:	d02e      	beq.n	976 <main+0xf2>
     918:	0020      	movs	r0, r4
     91a:	47b8      	blx	r7
     91c:	0020      	movs	r0, r4
     91e:	4b2f      	ldr	r3, [pc, #188]	; (9dc <main+0x158>)
     920:	4798      	blx	r3
     922:	2300      	movs	r3, #0
     924:	2154      	movs	r1, #84	; 0x54
     926:	702b      	strb	r3, [r5, #0]
     928:	2003      	movs	r0, #3
     92a:	4d28      	ldr	r5, [pc, #160]	; (9cc <main+0x148>)
     92c:	47a8      	blx	r5
     92e:	9b2a      	ldr	r3, [sp, #168]	; 0xa8
     930:	2003      	movs	r0, #3
     932:	9300      	str	r3, [sp, #0]
     934:	466b      	mov	r3, sp
     936:	7819      	ldrb	r1, [r3, #0]
     938:	47a8      	blx	r5
     93a:	9b2a      	ldr	r3, [sp, #168]	; 0xa8
     93c:	2003      	movs	r0, #3
     93e:	0a19      	lsrs	r1, r3, #8
     940:	b2c9      	uxtb	r1, r1
     942:	9300      	str	r3, [sp, #0]
     944:	47a8      	blx	r5
     946:	9b2a      	ldr	r3, [sp, #168]	; 0xa8
     948:	2003      	movs	r0, #3
     94a:	0c19      	lsrs	r1, r3, #16
     94c:	b2c9      	uxtb	r1, r1
     94e:	9300      	str	r3, [sp, #0]
     950:	47a8      	blx	r5
     952:	9b2a      	ldr	r3, [sp, #168]	; 0xa8
     954:	2003      	movs	r0, #3
     956:	0e19      	lsrs	r1, r3, #24
     958:	9300      	str	r3, [sp, #0]
     95a:	47a8      	blx	r5
     95c:	237d      	movs	r3, #125	; 0x7d
     95e:	aa02      	add	r2, sp, #8
     960:	189b      	adds	r3, r3, r2
     962:	7819      	ldrb	r1, [r3, #0]
     964:	2003      	movs	r0, #3
     966:	47a8      	blx	r5
     968:	ab21      	add	r3, sp, #132	; 0x84
     96a:	7819      	ldrb	r1, [r3, #0]
     96c:	2003      	movs	r0, #3
     96e:	47a8      	blx	r5
     970:	201e      	movs	r0, #30
     972:	4b17      	ldr	r3, [pc, #92]	; (9d0 <main+0x14c>)
     974:	4798      	blx	r3
     976:	4b1a      	ldr	r3, [pc, #104]	; (9e0 <main+0x15c>)
     978:	781b      	ldrb	r3, [r3, #0]
     97a:	2b00      	cmp	r3, #0
     97c:	d002      	beq.n	984 <main+0x100>
     97e:	6863      	ldr	r3, [r4, #4]
     980:	3301      	adds	r3, #1
     982:	6063      	str	r3, [r4, #4]
     984:	9806      	ldr	r0, [sp, #24]
     986:	4917      	ldr	r1, [pc, #92]	; (9e4 <main+0x160>)
     988:	47b0      	blx	r6
     98a:	9d06      	ldr	r5, [sp, #24]
     98c:	1c01      	adds	r1, r0, #0
     98e:	9b01      	ldr	r3, [sp, #4]
     990:	1c28      	adds	r0, r5, #0
     992:	4798      	blx	r3
     994:	9006      	str	r0, [sp, #24]
     996:	9d06      	ldr	r5, [sp, #24]
     998:	4912      	ldr	r1, [pc, #72]	; (9e4 <main+0x160>)
     99a:	6ae0      	ldr	r0, [r4, #44]	; 0x2c
     99c:	47b0      	blx	r6
     99e:	1c29      	adds	r1, r5, #0
     9a0:	4b08      	ldr	r3, [pc, #32]	; (9c4 <main+0x140>)
     9a2:	4798      	blx	r3
     9a4:	9006      	str	r0, [sp, #24]
     9a6:	e7b1      	b.n	90c <main+0x88>
     9a8:	00000545 	.word	0x00000545
     9ac:	000004b1 	.word	0x000004b1
     9b0:	000009e9 	.word	0x000009e9
     9b4:	00000fb1 	.word	0x00000fb1
     9b8:	00001875 	.word	0x00001875
     9bc:	42480000 	.word	0x42480000
     9c0:	00001aa9 	.word	0x00001aa9
     9c4:	00001589 	.word	0x00001589
     9c8:	00000d71 	.word	0x00000d71
     9cc:	00001519 	.word	0x00001519
     9d0:	00000da1 	.word	0x00000da1
     9d4:	00000ded 	.word	0x00000ded
     9d8:	20000462 	.word	0x20000462
     9dc:	00000f45 	.word	0x00000f45
     9e0:	20000460 	.word	0x20000460
     9e4:	41a00000 	.word	0x41a00000

000009e8 <IMUinit>:
     9e8:	b570      	push	{r4, r5, r6, lr}
     9ea:	4c08      	ldr	r4, [pc, #32]	; (a0c <IMUinit+0x24>)
     9ec:	2580      	movs	r5, #128	; 0x80
     9ee:	0023      	movs	r3, r4
     9f0:	00ed      	lsls	r5, r5, #3
     9f2:	3394      	adds	r3, #148	; 0x94
     9f4:	601d      	str	r5, [r3, #0]
     9f6:	4e06      	ldr	r6, [pc, #24]	; (a10 <IMUinit+0x28>)
     9f8:	210f      	movs	r1, #15
     9fa:	2000      	movs	r0, #0
     9fc:	47b0      	blx	r6
     9fe:	3498      	adds	r4, #152	; 0x98
     a00:	210c      	movs	r1, #12
     a02:	2000      	movs	r0, #0
     a04:	47b0      	blx	r6
     a06:	6025      	str	r5, [r4, #0]
     a08:	bd70      	pop	{r4, r5, r6, pc}
     a0a:	46c0      	nop			; (mov r8, r8)
     a0c:	41004400 	.word	0x41004400
     a10:	00001501 	.word	0x00001501

00000a14 <adcInit>:
     a14:	2180      	movs	r1, #128	; 0x80
     a16:	b510      	push	{r4, lr}
     a18:	4a10      	ldr	r2, [pc, #64]	; (a5c <adcInit+0x48>)
     a1a:	0249      	lsls	r1, r1, #9
     a1c:	6a13      	ldr	r3, [r2, #32]
     a1e:	4810      	ldr	r0, [pc, #64]	; (a60 <adcInit+0x4c>)
     a20:	430b      	orrs	r3, r1
     a22:	6213      	str	r3, [r2, #32]
     a24:	23e0      	movs	r3, #224	; 0xe0
     a26:	490f      	ldr	r1, [pc, #60]	; (a64 <adcInit+0x50>)
     a28:	4a0f      	ldr	r2, [pc, #60]	; (a68 <adcInit+0x54>)
     a2a:	00db      	lsls	r3, r3, #3
     a2c:	808b      	strh	r3, [r1, #4]
     a2e:	8050      	strh	r0, [r2, #2]
     a30:	4a0e      	ldr	r2, [pc, #56]	; (a6c <adcInit+0x58>)
     a32:	6812      	ldr	r2, [r2, #0]
     a34:	0150      	lsls	r0, r2, #5
     a36:	4018      	ands	r0, r3
     a38:	4b0d      	ldr	r3, [pc, #52]	; (a70 <adcInit+0x5c>)
     a3a:	0154      	lsls	r4, r2, #5
     a3c:	681a      	ldr	r2, [r3, #0]
     a3e:	0ed3      	lsrs	r3, r2, #27
     a40:	4323      	orrs	r3, r4
     a42:	b2da      	uxtb	r2, r3
     a44:	0003      	movs	r3, r0
     a46:	4313      	orrs	r3, r2
     a48:	850b      	strh	r3, [r1, #40]	; 0x28
     a4a:	2302      	movs	r3, #2
     a4c:	704b      	strb	r3, [r1, #1]
     a4e:	700b      	strb	r3, [r1, #0]
     a50:	7e4b      	ldrb	r3, [r1, #25]
     a52:	b25b      	sxtb	r3, r3
     a54:	2b00      	cmp	r3, #0
     a56:	dbfb      	blt.n	a50 <adcInit+0x3c>
     a58:	bd10      	pop	{r4, pc}
     a5a:	46c0      	nop			; (mov r8, r8)
     a5c:	40000400 	.word	0x40000400
     a60:	0000401e 	.word	0x0000401e
     a64:	42004000 	.word	0x42004000
     a68:	40000c00 	.word	0x40000c00
     a6c:	00806024 	.word	0x00806024
     a70:	00806020 	.word	0x00806020

00000a74 <adcSample>:
     a74:	2202      	movs	r2, #2
     a76:	4b05      	ldr	r3, [pc, #20]	; (a8c <adcSample+0x18>)
     a78:	731a      	strb	r2, [r3, #12]
     a7a:	3a01      	subs	r2, #1
     a7c:	7e19      	ldrb	r1, [r3, #24]
     a7e:	4211      	tst	r1, r2
     a80:	d0fc      	beq.n	a7c <adcSample+0x8>
     a82:	4b02      	ldr	r3, [pc, #8]	; (a8c <adcSample+0x18>)
     a84:	8b58      	ldrh	r0, [r3, #26]
     a86:	b280      	uxth	r0, r0
     a88:	4770      	bx	lr
     a8a:	46c0      	nop			; (mov r8, r8)
     a8c:	42004000 	.word	0x42004000

00000a90 <adc_read>:
     a90:	b537      	push	{r0, r1, r2, r4, r5, lr}
     a92:	2501      	movs	r5, #1
     a94:	0c02      	lsrs	r2, r0, #16
     a96:	b2d4      	uxtb	r4, r2
     a98:	9000      	str	r0, [sp, #0]
     a9a:	0e00      	lsrs	r0, r0, #24
     a9c:	9101      	str	r1, [sp, #4]
     a9e:	0842      	lsrs	r2, r0, #1
     aa0:	01e3      	lsls	r3, r4, #7
     aa2:	4911      	ldr	r1, [pc, #68]	; (ae8 <adc_read+0x58>)
     aa4:	18d2      	adds	r2, r2, r3
     aa6:	1852      	adds	r2, r2, r1
     aa8:	4228      	tst	r0, r5
     aaa:	d005      	beq.n	ab8 <adc_read+0x28>
     aac:	210f      	movs	r1, #15
     aae:	7814      	ldrb	r4, [r2, #0]
     ab0:	4021      	ands	r1, r4
     ab2:	2410      	movs	r4, #16
     ab4:	4321      	orrs	r1, r4
     ab6:	e003      	b.n	ac0 <adc_read+0x30>
     ab8:	240f      	movs	r4, #15
     aba:	7811      	ldrb	r1, [r2, #0]
     abc:	43a1      	bics	r1, r4
     abe:	4329      	orrs	r1, r5
     ac0:	7011      	strb	r1, [r2, #0]
     ac2:	2101      	movs	r1, #1
     ac4:	4a09      	ldr	r2, [pc, #36]	; (aec <adc_read+0x5c>)
     ac6:	18c3      	adds	r3, r0, r3
     ac8:	189b      	adds	r3, r3, r2
     aca:	781a      	ldrb	r2, [r3, #0]
     acc:	430a      	orrs	r2, r1
     ace:	701a      	strb	r2, [r3, #0]
     ad0:	466b      	mov	r3, sp
     ad2:	791a      	ldrb	r2, [r3, #4]
     ad4:	231f      	movs	r3, #31
     ad6:	4013      	ands	r3, r2
     ad8:	22c0      	movs	r2, #192	; 0xc0
     ada:	0152      	lsls	r2, r2, #5
     adc:	4313      	orrs	r3, r2
     ade:	4a04      	ldr	r2, [pc, #16]	; (af0 <adc_read+0x60>)
     ae0:	6113      	str	r3, [r2, #16]
     ae2:	4b04      	ldr	r3, [pc, #16]	; (af4 <adc_read+0x64>)
     ae4:	4798      	blx	r3
     ae6:	bd3e      	pop	{r1, r2, r3, r4, r5, pc}
     ae8:	41004430 	.word	0x41004430
     aec:	41004440 	.word	0x41004440
     af0:	42004000 	.word	0x42004000
     af4:	00000a75 	.word	0x00000a75

00000af8 <byteOut>:
     af8:	0c01      	lsrs	r1, r0, #16
     afa:	0c13      	lsrs	r3, r2, #16
     afc:	b5f0      	push	{r4, r5, r6, r7, lr}
     afe:	b2cd      	uxtb	r5, r1
     b00:	b2d9      	uxtb	r1, r3
     b02:	2301      	movs	r3, #1
     b04:	001e      	movs	r6, r3
     b06:	0e12      	lsrs	r2, r2, #24
     b08:	4093      	lsls	r3, r2
     b0a:	0e00      	lsrs	r0, r0, #24
     b0c:	4086      	lsls	r6, r0
     b0e:	001a      	movs	r2, r3
     b10:	2308      	movs	r3, #8
     b12:	0030      	movs	r0, r6
     b14:	4e11      	ldr	r6, [pc, #68]	; (b5c <byteOut+0x64>)
     b16:	01c9      	lsls	r1, r1, #7
     b18:	b087      	sub	sp, #28
     b1a:	198f      	adds	r7, r1, r6
     b1c:	4e10      	ldr	r6, [pc, #64]	; (b60 <byteOut+0x68>)
     b1e:	ac0c      	add	r4, sp, #48	; 0x30
     b20:	01ed      	lsls	r5, r5, #7
     b22:	19ae      	adds	r6, r5, r6
     b24:	7824      	ldrb	r4, [r4, #0]
     b26:	9601      	str	r6, [sp, #4]
     b28:	4e0c      	ldr	r6, [pc, #48]	; (b5c <byteOut+0x64>)
     b2a:	46b4      	mov	ip, r6
     b2c:	44ac      	add	ip, r5
     b2e:	4666      	mov	r6, ip
     b30:	6030      	str	r0, [r6, #0]
     b32:	b266      	sxtb	r6, r4
     b34:	2e00      	cmp	r6, #0
     b36:	da05      	bge.n	b44 <byteOut+0x4c>
     b38:	4e09      	ldr	r6, [pc, #36]	; (b60 <byteOut+0x68>)
     b3a:	46b4      	mov	ip, r6
     b3c:	448c      	add	ip, r1
     b3e:	4666      	mov	r6, ip
     b40:	6032      	str	r2, [r6, #0]
     b42:	e000      	b.n	b46 <byteOut+0x4e>
     b44:	603a      	str	r2, [r7, #0]
     b46:	9e01      	ldr	r6, [sp, #4]
     b48:	3b01      	subs	r3, #1
     b4a:	0064      	lsls	r4, r4, #1
     b4c:	b2db      	uxtb	r3, r3
     b4e:	6030      	str	r0, [r6, #0]
     b50:	b2e4      	uxtb	r4, r4
     b52:	2b00      	cmp	r3, #0
     b54:	d1e8      	bne.n	b28 <byteOut+0x30>
     b56:	b007      	add	sp, #28
     b58:	bdf0      	pop	{r4, r5, r6, r7, pc}
     b5a:	46c0      	nop			; (mov r8, r8)
     b5c:	41004414 	.word	0x41004414
     b60:	41004418 	.word	0x41004418

00000b64 <byteIn>:
     b64:	b5f0      	push	{r4, r5, r6, r7, lr}
     b66:	2501      	movs	r5, #1
     b68:	b085      	sub	sp, #20
     b6a:	9103      	str	r1, [sp, #12]
     b6c:	0011      	movs	r1, r2
     b6e:	0c06      	lsrs	r6, r0, #16
     b70:	9301      	str	r3, [sp, #4]
     b72:	b2f3      	uxtb	r3, r6
     b74:	002e      	movs	r6, r5
     b76:	0e09      	lsrs	r1, r1, #24
     b78:	0c14      	lsrs	r4, r2, #16
     b7a:	9002      	str	r0, [sp, #8]
     b7c:	9200      	str	r2, [sp, #0]
     b7e:	408d      	lsls	r5, r1
     b80:	0e02      	lsrs	r2, r0, #24
     b82:	2108      	movs	r1, #8
     b84:	2000      	movs	r0, #0
     b86:	4096      	lsls	r6, r2
     b88:	b2e2      	uxtb	r2, r4
     b8a:	4c0a      	ldr	r4, [pc, #40]	; (bb4 <byteIn+0x50>)
     b8c:	01db      	lsls	r3, r3, #7
     b8e:	01d2      	lsls	r2, r2, #7
     b90:	191b      	adds	r3, r3, r4
     b92:	1912      	adds	r2, r2, r4
     b94:	615e      	str	r6, [r3, #20]
     b96:	6a14      	ldr	r4, [r2, #32]
     b98:	0040      	lsls	r0, r0, #1
     b9a:	402c      	ands	r4, r5
     b9c:	1e67      	subs	r7, r4, #1
     b9e:	41bc      	sbcs	r4, r7
     ba0:	3901      	subs	r1, #1
     ba2:	4304      	orrs	r4, r0
     ba4:	b2c9      	uxtb	r1, r1
     ba6:	b2e0      	uxtb	r0, r4
     ba8:	619e      	str	r6, [r3, #24]
     baa:	2900      	cmp	r1, #0
     bac:	d1f2      	bne.n	b94 <byteIn+0x30>
     bae:	b005      	add	sp, #20
     bb0:	bdf0      	pop	{r4, r5, r6, r7, pc}
     bb2:	46c0      	nop			; (mov r8, r8)
     bb4:	41004400 	.word	0x41004400

00000bb8 <GclkInit>:
     bb8:	23c2      	movs	r3, #194	; 0xc2
     bba:	4a1a      	ldr	r2, [pc, #104]	; (c24 <GclkInit+0x6c>)
     bbc:	00db      	lsls	r3, r3, #3
     bbe:	b510      	push	{r4, lr}
     bc0:	6093      	str	r3, [r2, #8]
     bc2:	2302      	movs	r3, #2
     bc4:	4818      	ldr	r0, [pc, #96]	; (c28 <GclkInit+0x70>)
     bc6:	6841      	ldr	r1, [r0, #4]
     bc8:	4319      	orrs	r1, r3
     bca:	6041      	str	r1, [r0, #4]
     bcc:	4917      	ldr	r1, [pc, #92]	; (c2c <GclkInit+0x74>)
     bce:	8291      	strh	r1, [r2, #20]
     bd0:	68d1      	ldr	r1, [r2, #12]
     bd2:	4219      	tst	r1, r3
     bd4:	d0fc      	beq.n	bd0 <GclkInit+0x18>
     bd6:	4b16      	ldr	r3, [pc, #88]	; (c30 <GclkInit+0x78>)
     bd8:	6819      	ldr	r1, [r3, #0]
     bda:	0e89      	lsrs	r1, r1, #26
     bdc:	293f      	cmp	r1, #63	; 0x3f
     bde:	d100      	bne.n	be2 <GclkInit+0x2a>
     be0:	3920      	subs	r1, #32
     be2:	4b14      	ldr	r3, [pc, #80]	; (c34 <GclkInit+0x7c>)
     be4:	4814      	ldr	r0, [pc, #80]	; (c38 <GclkInit+0x80>)
     be6:	681b      	ldr	r3, [r3, #0]
     be8:	059b      	lsls	r3, r3, #22
     bea:	0d9b      	lsrs	r3, r3, #22
     bec:	4283      	cmp	r3, r0
     bee:	d100      	bne.n	bf2 <GclkInit+0x3a>
     bf0:	4b12      	ldr	r3, [pc, #72]	; (c3c <GclkInit+0x84>)
     bf2:	4813      	ldr	r0, [pc, #76]	; (c40 <GclkInit+0x88>)
     bf4:	8490      	strh	r0, [r2, #36]	; 0x24
     bf6:	2010      	movs	r0, #16
     bf8:	68d4      	ldr	r4, [r2, #12]
     bfa:	4204      	tst	r4, r0
     bfc:	d0fc      	beq.n	bf8 <GclkInit+0x40>
     bfe:	0289      	lsls	r1, r1, #10
     c00:	430b      	orrs	r3, r1
     c02:	4908      	ldr	r1, [pc, #32]	; (c24 <GclkInit+0x6c>)
     c04:	628b      	str	r3, [r1, #40]	; 0x28
     c06:	2310      	movs	r3, #16
     c08:	68d1      	ldr	r1, [r2, #12]
     c0a:	4219      	tst	r1, r3
     c0c:	d0fc      	beq.n	c08 <GclkInit+0x50>
     c0e:	4a0d      	ldr	r2, [pc, #52]	; (c44 <GclkInit+0x8c>)
     c10:	4b04      	ldr	r3, [pc, #16]	; (c24 <GclkInit+0x6c>)
     c12:	849a      	strh	r2, [r3, #36]	; 0x24
     c14:	2280      	movs	r2, #128	; 0x80
     c16:	4b0c      	ldr	r3, [pc, #48]	; (c48 <GclkInit+0x90>)
     c18:	0052      	lsls	r2, r2, #1
     c1a:	609a      	str	r2, [r3, #8]
     c1c:	4a0b      	ldr	r2, [pc, #44]	; (c4c <GclkInit+0x94>)
     c1e:	605a      	str	r2, [r3, #4]
     c20:	bd10      	pop	{r4, pc}
     c22:	46c0      	nop			; (mov r8, r8)
     c24:	40000800 	.word	0x40000800
     c28:	41004000 	.word	0x41004000
     c2c:	0000060e 	.word	0x0000060e
     c30:	00806024 	.word	0x00806024
     c34:	00806028 	.word	0x00806028
     c38:	000003ff 	.word	0x000003ff
     c3c:	000001ff 	.word	0x000001ff
     c40:	00000522 	.word	0x00000522
     c44:	000005a2 	.word	0x000005a2
     c48:	40000c00 	.word	0x40000c00
     c4c:	00010700 	.word	0x00010700

00000c50 <RtcInit>:
     c50:	4b27      	ldr	r3, [pc, #156]	; (cf0 <RtcInit+0xa0>)
     c52:	4a28      	ldr	r2, [pc, #160]	; (cf4 <RtcInit+0xa4>)
     c54:	4828      	ldr	r0, [pc, #160]	; (cf8 <RtcInit+0xa8>)
     c56:	619a      	str	r2, [r3, #24]
     c58:	4a28      	ldr	r2, [pc, #160]	; (cfc <RtcInit+0xac>)
     c5a:	6999      	ldr	r1, [r3, #24]
     c5c:	6812      	ldr	r2, [r2, #0]
     c5e:	4001      	ands	r1, r0
     c60:	04d2      	lsls	r2, r2, #19
     c62:	0e52      	lsrs	r2, r2, #25
     c64:	0412      	lsls	r2, r2, #16
     c66:	4311      	orrs	r1, r2
     c68:	6199      	str	r1, [r3, #24]
     c6a:	4925      	ldr	r1, [pc, #148]	; (d00 <RtcInit+0xb0>)
     c6c:	6199      	str	r1, [r3, #24]
     c6e:	6999      	ldr	r1, [r3, #24]
     c70:	4008      	ands	r0, r1
     c72:	2102      	movs	r1, #2
     c74:	4302      	orrs	r2, r0
     c76:	619a      	str	r2, [r3, #24]
     c78:	699a      	ldr	r2, [r3, #24]
     c7a:	430a      	orrs	r2, r1
     c7c:	619a      	str	r2, [r3, #24]
     c7e:	2204      	movs	r2, #4
     c80:	68d9      	ldr	r1, [r3, #12]
     c82:	4211      	tst	r1, r2
     c84:	d0fc      	beq.n	c80 <RtcInit+0x30>
     c86:	2281      	movs	r2, #129	; 0x81
     c88:	4b1e      	ldr	r3, [pc, #120]	; (d04 <RtcInit+0xb4>)
     c8a:	0052      	lsls	r2, r2, #1
     c8c:	609a      	str	r2, [r3, #8]
     c8e:	4a1e      	ldr	r2, [pc, #120]	; (d08 <RtcInit+0xb8>)
     c90:	605a      	str	r2, [r3, #4]
     c92:	785a      	ldrb	r2, [r3, #1]
     c94:	b252      	sxtb	r2, r2
     c96:	2a00      	cmp	r2, #0
     c98:	dbfb      	blt.n	c92 <RtcInit+0x42>
     c9a:	4a1c      	ldr	r2, [pc, #112]	; (d0c <RtcInit+0xbc>)
     c9c:	4b19      	ldr	r3, [pc, #100]	; (d04 <RtcInit+0xb4>)
     c9e:	805a      	strh	r2, [r3, #2]
     ca0:	2204      	movs	r2, #4
     ca2:	4b1b      	ldr	r3, [pc, #108]	; (d10 <RtcInit+0xc0>)
     ca4:	801a      	strh	r2, [r3, #0]
     ca6:	7a9a      	ldrb	r2, [r3, #10]
     ca8:	4919      	ldr	r1, [pc, #100]	; (d10 <RtcInit+0xc0>)
     caa:	09d2      	lsrs	r2, r2, #7
     cac:	d1fb      	bne.n	ca6 <RtcInit+0x56>
     cae:	20a0      	movs	r0, #160	; 0xa0
     cb0:	880a      	ldrh	r2, [r1, #0]
     cb2:	00c0      	lsls	r0, r0, #3
     cb4:	4302      	orrs	r2, r0
     cb6:	800a      	strh	r2, [r1, #0]
     cb8:	7a9a      	ldrb	r2, [r3, #10]
     cba:	09d2      	lsrs	r2, r2, #7
     cbc:	d1fc      	bne.n	cb8 <RtcInit+0x68>
     cbe:	4915      	ldr	r1, [pc, #84]	; (d14 <RtcInit+0xc4>)
     cc0:	4a13      	ldr	r2, [pc, #76]	; (d10 <RtcInit+0xc0>)
     cc2:	8291      	strh	r1, [r2, #20]
     cc4:	7a99      	ldrb	r1, [r3, #10]
     cc6:	4a12      	ldr	r2, [pc, #72]	; (d10 <RtcInit+0xc0>)
     cc8:	09c9      	lsrs	r1, r1, #7
     cca:	d1fb      	bne.n	cc4 <RtcInit+0x74>
     ccc:	8851      	ldrh	r1, [r2, #2]
     cce:	4812      	ldr	r0, [pc, #72]	; (d18 <RtcInit+0xc8>)
     cd0:	4301      	orrs	r1, r0
     cd2:	8051      	strh	r1, [r2, #2]
     cd4:	2180      	movs	r1, #128	; 0x80
     cd6:	2002      	movs	r0, #2
     cd8:	71d1      	strb	r1, [r2, #7]
     cda:	8811      	ldrh	r1, [r2, #0]
     cdc:	4301      	orrs	r1, r0
     cde:	8011      	strh	r1, [r2, #0]
     ce0:	7a9a      	ldrb	r2, [r3, #10]
     ce2:	09d2      	lsrs	r2, r2, #7
     ce4:	d1fc      	bne.n	ce0 <RtcInit+0x90>
     ce6:	4b0d      	ldr	r3, [pc, #52]	; (d1c <RtcInit+0xcc>)
     ce8:	3208      	adds	r2, #8
     cea:	601a      	str	r2, [r3, #0]
     cec:	4770      	bx	lr
     cee:	46c0      	nop			; (mov r8, r8)
     cf0:	40000800 	.word	0x40000800
     cf4:	00000606 	.word	0x00000606
     cf8:	ff80ffff 	.word	0xff80ffff
     cfc:	00806024 	.word	0x00806024
     d00:	00000604 	.word	0x00000604
     d04:	40000c00 	.word	0x40000c00
     d08:	00230002 	.word	0x00230002
     d0c:	00004204 	.word	0x00004204
     d10:	40001400 	.word	0x40001400
     d14:	000003e6 	.word	0x000003e6
     d18:	00004010 	.word	0x00004010
     d1c:	e000e100 	.word	0xe000e100

00000d20 <gclkEnable>:
     d20:	230f      	movs	r3, #15
     d22:	4018      	ands	r0, r3
     d24:	4b08      	ldr	r3, [pc, #32]	; (d48 <gclkEnable+0x28>)
     d26:	0212      	lsls	r2, r2, #8
     d28:	401a      	ands	r2, r3
     d2a:	23f8      	movs	r3, #248	; 0xf8
     d2c:	0209      	lsls	r1, r1, #8
     d2e:	015b      	lsls	r3, r3, #5
     d30:	4019      	ands	r1, r3
     d32:	2380      	movs	r3, #128	; 0x80
     d34:	b510      	push	{r4, lr}
     d36:	025b      	lsls	r3, r3, #9
     d38:	4c04      	ldr	r4, [pc, #16]	; (d4c <gclkEnable+0x2c>)
     d3a:	4319      	orrs	r1, r3
     d3c:	4302      	orrs	r2, r0
     d3e:	4308      	orrs	r0, r1
     d40:	60a2      	str	r2, [r4, #8]
     d42:	6060      	str	r0, [r4, #4]
     d44:	bd10      	pop	{r4, pc}
     d46:	46c0      	nop			; (mov r8, r8)
     d48:	00ffff00 	.word	0x00ffff00
     d4c:	40000c00 	.word	0x40000c00

00000d50 <delayInit>:
     d50:	4b04      	ldr	r3, [pc, #16]	; (d64 <delayInit+0x14>)
     d52:	4a05      	ldr	r2, [pc, #20]	; (d68 <delayInit+0x18>)
     d54:	601a      	str	r2, [r3, #0]
     d56:	2230      	movs	r2, #48	; 0x30
     d58:	605a      	str	r2, [r3, #4]
     d5a:	4b04      	ldr	r3, [pc, #16]	; (d6c <delayInit+0x1c>)
     d5c:	3a2b      	subs	r2, #43	; 0x2b
     d5e:	601a      	str	r2, [r3, #0]
     d60:	4770      	bx	lr
     d62:	46c0      	nop			; (mov r8, r8)
     d64:	20000004 	.word	0x20000004
     d68:	0000bb80 	.word	0x0000bb80
     d6c:	e000e010 	.word	0xe000e010

00000d70 <delay_us>:
     d70:	b570      	push	{r4, r5, r6, lr}
     d72:	2480      	movs	r4, #128	; 0x80
     d74:	2100      	movs	r1, #0
     d76:	4b08      	ldr	r3, [pc, #32]	; (d98 <delay_us+0x28>)
     d78:	4a08      	ldr	r2, [pc, #32]	; (d9c <delay_us+0x2c>)
     d7a:	685b      	ldr	r3, [r3, #4]
     d7c:	0264      	lsls	r4, r4, #9
     d7e:	3801      	subs	r0, #1
     d80:	d308      	bcc.n	d94 <delay_us+0x24>
     d82:	2b00      	cmp	r3, #0
     d84:	d0fb      	beq.n	d7e <delay_us+0xe>
     d86:	4e05      	ldr	r6, [pc, #20]	; (d9c <delay_us+0x2c>)
     d88:	6053      	str	r3, [r2, #4]
     d8a:	6091      	str	r1, [r2, #8]
     d8c:	6835      	ldr	r5, [r6, #0]
     d8e:	4225      	tst	r5, r4
     d90:	d0fc      	beq.n	d8c <delay_us+0x1c>
     d92:	e7f4      	b.n	d7e <delay_us+0xe>
     d94:	bd70      	pop	{r4, r5, r6, pc}
     d96:	46c0      	nop			; (mov r8, r8)
     d98:	20000004 	.word	0x20000004
     d9c:	e000e010 	.word	0xe000e010

00000da0 <delay_ms>:
     da0:	b570      	push	{r4, r5, r6, lr}
     da2:	2480      	movs	r4, #128	; 0x80
     da4:	2100      	movs	r1, #0
     da6:	4b08      	ldr	r3, [pc, #32]	; (dc8 <delay_ms+0x28>)
     da8:	4a08      	ldr	r2, [pc, #32]	; (dcc <delay_ms+0x2c>)
     daa:	681b      	ldr	r3, [r3, #0]
     dac:	0264      	lsls	r4, r4, #9
     dae:	3801      	subs	r0, #1
     db0:	d308      	bcc.n	dc4 <delay_ms+0x24>
     db2:	2b00      	cmp	r3, #0
     db4:	d0fb      	beq.n	dae <delay_ms+0xe>
     db6:	4e05      	ldr	r6, [pc, #20]	; (dcc <delay_ms+0x2c>)
     db8:	6053      	str	r3, [r2, #4]
     dba:	6091      	str	r1, [r2, #8]
     dbc:	6835      	ldr	r5, [r6, #0]
     dbe:	4225      	tst	r5, r4
     dc0:	d0fc      	beq.n	dbc <delay_ms+0x1c>
     dc2:	e7f4      	b.n	dae <delay_ms+0xe>
     dc4:	bd70      	pop	{r4, r5, r6, pc}
     dc6:	46c0      	nop			; (mov r8, r8)
     dc8:	20000004 	.word	0x20000004
     dcc:	e000e010 	.word	0xe000e010

00000dd0 <RTC_Handler>:
     dd0:	21fa      	movs	r1, #250	; 0xfa
     dd2:	4a04      	ldr	r2, [pc, #16]	; (de4 <RTC_Handler+0x14>)
     dd4:	0089      	lsls	r1, r1, #2
     dd6:	6813      	ldr	r3, [r2, #0]
     dd8:	185b      	adds	r3, r3, r1
     dda:	6013      	str	r3, [r2, #0]
     ddc:	22ff      	movs	r2, #255	; 0xff
     dde:	4b02      	ldr	r3, [pc, #8]	; (de8 <RTC_Handler+0x18>)
     de0:	721a      	strb	r2, [r3, #8]
     de2:	4770      	bx	lr
     de4:	2000045c 	.word	0x2000045c
     de8:	40001400 	.word	0x40001400

00000dec <millis>:
     dec:	b530      	push	{r4, r5, lr}
     dee:	f3ef 8110 	mrs	r1, PRIMASK
     df2:	b672      	cpsid	i
     df4:	4a08      	ldr	r2, [pc, #32]	; (e18 <millis+0x2c>)
     df6:	4d09      	ldr	r5, [pc, #36]	; (e1c <millis+0x30>)
     df8:	8a10      	ldrh	r0, [r2, #16]
     dfa:	682b      	ldr	r3, [r5, #0]
     dfc:	7a14      	ldrb	r4, [r2, #8]
     dfe:	b280      	uxth	r0, r0
     e00:	09e4      	lsrs	r4, r4, #7
     e02:	d004      	beq.n	e0e <millis+0x22>
     e04:	8a13      	ldrh	r3, [r2, #16]
     e06:	22fa      	movs	r2, #250	; 0xfa
     e08:	6828      	ldr	r0, [r5, #0]
     e0a:	0092      	lsls	r2, r2, #2
     e0c:	1880      	adds	r0, r0, r2
     e0e:	18c0      	adds	r0, r0, r3
     e10:	f381 8810 	msr	PRIMASK, r1
     e14:	bd30      	pop	{r4, r5, pc}
     e16:	46c0      	nop			; (mov r8, r8)
     e18:	40001400 	.word	0x40001400
     e1c:	2000045c 	.word	0x2000045c

00000e20 <TC4Init>:
     e20:	2180      	movs	r1, #128	; 0x80
     e22:	4a0d      	ldr	r2, [pc, #52]	; (e58 <TC4Init+0x38>)
     e24:	4b0d      	ldr	r3, [pc, #52]	; (e5c <TC4Init+0x3c>)
     e26:	0149      	lsls	r1, r1, #5
     e28:	805a      	strh	r2, [r3, #2]
     e2a:	4a0d      	ldr	r2, [pc, #52]	; (e60 <TC4Init+0x40>)
     e2c:	6a13      	ldr	r3, [r2, #32]
     e2e:	430b      	orrs	r3, r1
     e30:	6213      	str	r3, [r2, #32]
     e32:	4b0c      	ldr	r3, [pc, #48]	; (e64 <TC4Init+0x44>)
     e34:	4a0c      	ldr	r2, [pc, #48]	; (e68 <TC4Init+0x48>)
     e36:	2102      	movs	r1, #2
     e38:	801a      	strh	r2, [r3, #0]
     e3a:	2241      	movs	r2, #65	; 0x41
     e3c:	751a      	strb	r2, [r3, #20]
     e3e:	3a40      	subs	r2, #64	; 0x40
     e40:	735a      	strb	r2, [r3, #13]
     e42:	32ff      	adds	r2, #255	; 0xff
     e44:	815a      	strh	r2, [r3, #10]
     e46:	881a      	ldrh	r2, [r3, #0]
     e48:	430a      	orrs	r2, r1
     e4a:	801a      	strh	r2, [r3, #0]
     e4c:	2280      	movs	r2, #128	; 0x80
     e4e:	4b07      	ldr	r3, [pc, #28]	; (e6c <TC4Init+0x4c>)
     e50:	0312      	lsls	r2, r2, #12
     e52:	601a      	str	r2, [r3, #0]
     e54:	4770      	bx	lr
     e56:	46c0      	nop			; (mov r8, r8)
     e58:	0000421c 	.word	0x0000421c
     e5c:	40000c00 	.word	0x40000c00
     e60:	40000400 	.word	0x40000400
     e64:	42003000 	.word	0x42003000
     e68:	00000904 	.word	0x00000904
     e6c:	e000e100 	.word	0xe000e100

00000e70 <TC4_Handler>:
     e70:	22ff      	movs	r2, #255	; 0xff
     e72:	4b03      	ldr	r3, [pc, #12]	; (e80 <TC4_Handler+0x10>)
     e74:	739a      	strb	r2, [r3, #14]
     e76:	4b03      	ldr	r3, [pc, #12]	; (e84 <TC4_Handler+0x14>)
     e78:	3afe      	subs	r2, #254	; 0xfe
     e7a:	701a      	strb	r2, [r3, #0]
     e7c:	4770      	bx	lr
     e7e:	46c0      	nop			; (mov r8, r8)
     e80:	42003000 	.word	0x42003000
     e84:	20000462 	.word	0x20000462

00000e88 <TC5Init>:
     e88:	2180      	movs	r1, #128	; 0x80
     e8a:	4a0d      	ldr	r2, [pc, #52]	; (ec0 <TC5Init+0x38>)
     e8c:	4b0d      	ldr	r3, [pc, #52]	; (ec4 <TC5Init+0x3c>)
     e8e:	0189      	lsls	r1, r1, #6
     e90:	805a      	strh	r2, [r3, #2]
     e92:	4a0d      	ldr	r2, [pc, #52]	; (ec8 <TC5Init+0x40>)
     e94:	6a13      	ldr	r3, [r2, #32]
     e96:	430b      	orrs	r3, r1
     e98:	6213      	str	r3, [r2, #32]
     e9a:	4b0c      	ldr	r3, [pc, #48]	; (ecc <TC5Init+0x44>)
     e9c:	4a0c      	ldr	r2, [pc, #48]	; (ed0 <TC5Init+0x48>)
     e9e:	2102      	movs	r1, #2
     ea0:	801a      	strh	r2, [r3, #0]
     ea2:	2280      	movs	r2, #128	; 0x80
     ea4:	751a      	strb	r2, [r3, #20]
     ea6:	3a7f      	subs	r2, #127	; 0x7f
     ea8:	735a      	strb	r2, [r3, #13]
     eaa:	32ff      	adds	r2, #255	; 0xff
     eac:	815a      	strh	r2, [r3, #10]
     eae:	881a      	ldrh	r2, [r3, #0]
     eb0:	430a      	orrs	r2, r1
     eb2:	801a      	strh	r2, [r3, #0]
     eb4:	2280      	movs	r2, #128	; 0x80
     eb6:	4b07      	ldr	r3, [pc, #28]	; (ed4 <TC5Init+0x4c>)
     eb8:	0352      	lsls	r2, r2, #13
     eba:	601a      	str	r2, [r3, #0]
     ebc:	4770      	bx	lr
     ebe:	46c0      	nop			; (mov r8, r8)
     ec0:	0000421c 	.word	0x0000421c
     ec4:	40000c00 	.word	0x40000c00
     ec8:	40000400 	.word	0x40000400
     ecc:	42003400 	.word	0x42003400
     ed0:	00000e04 	.word	0x00000e04
     ed4:	e000e100 	.word	0xe000e100

00000ed8 <TC5_Handler>:
     ed8:	22ff      	movs	r2, #255	; 0xff
     eda:	4b01      	ldr	r3, [pc, #4]	; (ee0 <TC5_Handler+0x8>)
     edc:	739a      	strb	r2, [r3, #14]
     ede:	4770      	bx	lr
     ee0:	42003400 	.word	0x42003400

00000ee4 <dmaInit>:
     ee4:	b5f8      	push	{r3, r4, r5, r6, r7, lr}
     ee6:	27c0      	movs	r7, #192	; 0xc0
     ee8:	4d10      	ldr	r5, [pc, #64]	; (f2c <dmaInit+0x48>)
     eea:	003a      	movs	r2, r7
     eec:	4e10      	ldr	r6, [pc, #64]	; (f30 <dmaInit+0x4c>)
     eee:	0028      	movs	r0, r5
     ef0:	2100      	movs	r1, #0
     ef2:	47b0      	blx	r6
     ef4:	4c0f      	ldr	r4, [pc, #60]	; (f34 <dmaInit+0x50>)
     ef6:	003a      	movs	r2, r7
     ef8:	2100      	movs	r1, #0
     efa:	0020      	movs	r0, r4
     efc:	47b0      	blx	r6
     efe:	2120      	movs	r1, #32
     f00:	4b0d      	ldr	r3, [pc, #52]	; (f38 <dmaInit+0x54>)
     f02:	695a      	ldr	r2, [r3, #20]
     f04:	430a      	orrs	r2, r1
     f06:	615a      	str	r2, [r3, #20]
     f08:	69da      	ldr	r2, [r3, #28]
     f0a:	3910      	subs	r1, #16
     f0c:	430a      	orrs	r2, r1
     f0e:	61da      	str	r2, [r3, #28]
     f10:	4b0a      	ldr	r3, [pc, #40]	; (f3c <dmaInit+0x58>)
     f12:	390e      	subs	r1, #14
     f14:	881a      	ldrh	r2, [r3, #0]
     f16:	438a      	bics	r2, r1
     f18:	801a      	strh	r2, [r3, #0]
     f1a:	881a      	ldrh	r2, [r3, #0]
     f1c:	3901      	subs	r1, #1
     f1e:	430a      	orrs	r2, r1
     f20:	801a      	strh	r2, [r3, #0]
     f22:	4a07      	ldr	r2, [pc, #28]	; (f40 <dmaInit+0x5c>)
     f24:	635d      	str	r5, [r3, #52]	; 0x34
     f26:	639c      	str	r4, [r3, #56]	; 0x38
     f28:	801a      	strh	r2, [r3, #0]
     f2a:	bdf8      	pop	{r3, r4, r5, r6, r7, pc}
     f2c:	20000530 	.word	0x20000530
     f30:	00002c45 	.word	0x00002c45
     f34:	20000470 	.word	0x20000470
     f38:	40000400 	.word	0x40000400
     f3c:	41004800 	.word	0x41004800
     f40:	00000f02 	.word	0x00000f02

00000f44 <flight>:
     f44:	b5f8      	push	{r3, r4, r5, r6, r7, lr}
     f46:	7803      	ldrb	r3, [r0, #0]
     f48:	0004      	movs	r4, r0
     f4a:	2b00      	cmp	r3, #0
     f4c:	d123      	bne.n	f96 <flight+0x52>
     f4e:	6b80      	ldr	r0, [r0, #56]	; 0x38
     f50:	4b11      	ldr	r3, [pc, #68]	; (f98 <flight+0x54>)
     f52:	4798      	blx	r3
     f54:	4d11      	ldr	r5, [pc, #68]	; (f9c <flight+0x58>)
     f56:	2200      	movs	r2, #0
     f58:	4b11      	ldr	r3, [pc, #68]	; (fa0 <flight+0x5c>)
     f5a:	47a8      	blx	r5
     f5c:	4b0e      	ldr	r3, [pc, #56]	; (f98 <flight+0x54>)
     f5e:	0006      	movs	r6, r0
     f60:	6ca0      	ldr	r0, [r4, #72]	; 0x48
     f62:	000f      	movs	r7, r1
     f64:	4798      	blx	r3
     f66:	2200      	movs	r2, #0
     f68:	4b0d      	ldr	r3, [pc, #52]	; (fa0 <flight+0x5c>)
     f6a:	47a8      	blx	r5
     f6c:	4d0d      	ldr	r5, [pc, #52]	; (fa4 <flight+0x60>)
     f6e:	0002      	movs	r2, r0
     f70:	000b      	movs	r3, r1
     f72:	0030      	movs	r0, r6
     f74:	0039      	movs	r1, r7
     f76:	47a8      	blx	r5
     f78:	4b0b      	ldr	r3, [pc, #44]	; (fa8 <flight+0x64>)
     f7a:	4798      	blx	r3
     f7c:	4d0b      	ldr	r5, [pc, #44]	; (fac <flight+0x68>)
     f7e:	63a0      	str	r0, [r4, #56]	; 0x38
     f80:	47a8      	blx	r5
     f82:	6b23      	ldr	r3, [r4, #48]	; 0x30
     f84:	1ac0      	subs	r0, r0, r3
     f86:	23fa      	movs	r3, #250	; 0xfa
     f88:	00db      	lsls	r3, r3, #3
     f8a:	4298      	cmp	r0, r3
     f8c:	d903      	bls.n	f96 <flight+0x52>
     f8e:	6ba3      	ldr	r3, [r4, #56]	; 0x38
     f90:	6363      	str	r3, [r4, #52]	; 0x34
     f92:	47a8      	blx	r5
     f94:	6320      	str	r0, [r4, #48]	; 0x30
     f96:	bdf8      	pop	{r3, r4, r5, r6, r7, pc}
     f98:	00002a01 	.word	0x00002a01
     f9c:	00002489 	.word	0x00002489
     fa0:	3fe00000 	.word	0x3fe00000
     fa4:	00001e31 	.word	0x00001e31
     fa8:	00002aa9 	.word	0x00002aa9
     fac:	00000ded 	.word	0x00000ded

00000fb0 <sampleTick>:
     fb0:	b5f0      	push	{r4, r5, r6, r7, lr}
     fb2:	0004      	movs	r4, r0
     fb4:	b089      	sub	sp, #36	; 0x24
     fb6:	4bf8      	ldr	r3, [pc, #992]	; (1398 <sampleTick+0x3e8>)
     fb8:	4798      	blx	r3
     fba:	0023      	movs	r3, r4
     fbc:	4df7      	ldr	r5, [pc, #988]	; (139c <sampleTick+0x3ec>)
     fbe:	3308      	adds	r3, #8
     fc0:	67d8      	str	r0, [r3, #124]	; 0x7c
     fc2:	786b      	ldrb	r3, [r5, #1]
     fc4:	7829      	ldrb	r1, [r5, #0]
     fc6:	78a8      	ldrb	r0, [r5, #2]
     fc8:	021b      	lsls	r3, r3, #8
     fca:	430b      	orrs	r3, r1
     fcc:	0400      	lsls	r0, r0, #16
     fce:	001a      	movs	r2, r3
     fd0:	0003      	movs	r3, r0
     fd2:	78e8      	ldrb	r0, [r5, #3]
     fd4:	4313      	orrs	r3, r2
     fd6:	0600      	lsls	r0, r0, #24
     fd8:	4ef1      	ldr	r6, [pc, #964]	; (13a0 <sampleTick+0x3f0>)
     fda:	7929      	ldrb	r1, [r5, #4]
     fdc:	4318      	orrs	r0, r3
     fde:	47b0      	blx	r6
     fe0:	4bf0      	ldr	r3, [pc, #960]	; (13a4 <sampleTick+0x3f4>)
     fe2:	7969      	ldrb	r1, [r5, #5]
     fe4:	4358      	muls	r0, r3
     fe6:	0023      	movs	r3, r4
     fe8:	3378      	adds	r3, #120	; 0x78
     fea:	8018      	strh	r0, [r3, #0]
     fec:	79ab      	ldrb	r3, [r5, #6]
     fee:	79e8      	ldrb	r0, [r5, #7]
     ff0:	021b      	lsls	r3, r3, #8
     ff2:	430b      	orrs	r3, r1
     ff4:	0400      	lsls	r0, r0, #16
     ff6:	001a      	movs	r2, r3
     ff8:	0003      	movs	r3, r0
     ffa:	7a28      	ldrb	r0, [r5, #8]
     ffc:	4313      	orrs	r3, r2
     ffe:	0600      	lsls	r0, r0, #24
    1000:	7a69      	ldrb	r1, [r5, #9]
    1002:	4318      	orrs	r0, r3
    1004:	47b0      	blx	r6
    1006:	0023      	movs	r3, r4
    1008:	337a      	adds	r3, #122	; 0x7a
    100a:	8018      	strh	r0, [r3, #0]
    100c:	7aeb      	ldrb	r3, [r5, #11]
    100e:	7aa9      	ldrb	r1, [r5, #10]
    1010:	7b28      	ldrb	r0, [r5, #12]
    1012:	021b      	lsls	r3, r3, #8
    1014:	430b      	orrs	r3, r1
    1016:	0400      	lsls	r0, r0, #16
    1018:	001a      	movs	r2, r3
    101a:	0003      	movs	r3, r0
    101c:	7b68      	ldrb	r0, [r5, #13]
    101e:	4313      	orrs	r3, r2
    1020:	0600      	lsls	r0, r0, #24
    1022:	7ba9      	ldrb	r1, [r5, #14]
    1024:	4318      	orrs	r0, r3
    1026:	47b0      	blx	r6
    1028:	0023      	movs	r3, r4
    102a:	337c      	adds	r3, #124	; 0x7c
    102c:	8018      	strh	r0, [r3, #0]
    102e:	7c2b      	ldrb	r3, [r5, #16]
    1030:	7be9      	ldrb	r1, [r5, #15]
    1032:	7c68      	ldrb	r0, [r5, #17]
    1034:	021b      	lsls	r3, r3, #8
    1036:	430b      	orrs	r3, r1
    1038:	0400      	lsls	r0, r0, #16
    103a:	001a      	movs	r2, r3
    103c:	0003      	movs	r3, r0
    103e:	7ca8      	ldrb	r0, [r5, #18]
    1040:	4313      	orrs	r3, r2
    1042:	0600      	lsls	r0, r0, #24
    1044:	7ce9      	ldrb	r1, [r5, #19]
    1046:	4318      	orrs	r0, r3
    1048:	47b0      	blx	r6
    104a:	0023      	movs	r3, r4
    104c:	337e      	adds	r3, #126	; 0x7e
    104e:	8018      	strh	r0, [r3, #0]
    1050:	7d6b      	ldrb	r3, [r5, #21]
    1052:	7d29      	ldrb	r1, [r5, #20]
    1054:	7da8      	ldrb	r0, [r5, #22]
    1056:	021b      	lsls	r3, r3, #8
    1058:	430b      	orrs	r3, r1
    105a:	0400      	lsls	r0, r0, #16
    105c:	001a      	movs	r2, r3
    105e:	0003      	movs	r3, r0
    1060:	7de8      	ldrb	r0, [r5, #23]
    1062:	4313      	orrs	r3, r2
    1064:	0600      	lsls	r0, r0, #24
    1066:	7e29      	ldrb	r1, [r5, #24]
    1068:	4318      	orrs	r0, r3
    106a:	47b0      	blx	r6
    106c:	0023      	movs	r3, r4
    106e:	3380      	adds	r3, #128	; 0x80
    1070:	8018      	strh	r0, [r3, #0]
    1072:	7eab      	ldrb	r3, [r5, #26]
    1074:	7e69      	ldrb	r1, [r5, #25]
    1076:	7ee8      	ldrb	r0, [r5, #27]
    1078:	021b      	lsls	r3, r3, #8
    107a:	430b      	orrs	r3, r1
    107c:	0400      	lsls	r0, r0, #16
    107e:	001a      	movs	r2, r3
    1080:	0003      	movs	r3, r0
    1082:	7f28      	ldrb	r0, [r5, #28]
    1084:	4313      	orrs	r3, r2
    1086:	0600      	lsls	r0, r0, #24
    1088:	7f69      	ldrb	r1, [r5, #29]
    108a:	4318      	orrs	r0, r3
    108c:	47b0      	blx	r6
    108e:	0023      	movs	r3, r4
    1090:	3370      	adds	r3, #112	; 0x70
    1092:	8018      	strh	r0, [r3, #0]
    1094:	4bc4      	ldr	r3, [pc, #784]	; (13a8 <sampleTick+0x3f8>)
    1096:	4fc5      	ldr	r7, [pc, #788]	; (13ac <sampleTick+0x3fc>)
    1098:	18c0      	adds	r0, r0, r3
    109a:	4bc5      	ldr	r3, [pc, #788]	; (13b0 <sampleTick+0x400>)
    109c:	4798      	blx	r3
    109e:	4ac5      	ldr	r2, [pc, #788]	; (13b4 <sampleTick+0x404>)
    10a0:	4ec5      	ldr	r6, [pc, #788]	; (13b8 <sampleTick+0x408>)
    10a2:	4bc6      	ldr	r3, [pc, #792]	; (13bc <sampleTick+0x40c>)
    10a4:	47b0      	blx	r6
    10a6:	4bc6      	ldr	r3, [pc, #792]	; (13c0 <sampleTick+0x410>)
    10a8:	4798      	blx	r3
    10aa:	6be3      	ldr	r3, [r4, #60]	; 0x3c
    10ac:	002e      	movs	r6, r5
    10ae:	6423      	str	r3, [r4, #64]	; 0x40
    10b0:	2380      	movs	r3, #128	; 0x80
    10b2:	2250      	movs	r2, #80	; 0x50
    10b4:	021b      	lsls	r3, r3, #8
    10b6:	361e      	adds	r6, #30
    10b8:	6760      	str	r0, [r4, #116]	; 0x74
    10ba:	617b      	str	r3, [r7, #20]
    10bc:	9200      	str	r2, [sp, #0]
    10be:	7fea      	ldrb	r2, [r5, #31]
    10c0:	7fa8      	ldrb	r0, [r5, #30]
    10c2:	002b      	movs	r3, r5
    10c4:	78b5      	ldrb	r5, [r6, #2]
    10c6:	0212      	lsls	r2, r2, #8
    10c8:	4302      	orrs	r2, r0
    10ca:	042d      	lsls	r5, r5, #16
    10cc:	0011      	movs	r1, r2
    10ce:	002a      	movs	r2, r5
    10d0:	78f5      	ldrb	r5, [r6, #3]
    10d2:	430a      	orrs	r2, r1
    10d4:	062d      	lsls	r5, r5, #24
    10d6:	4315      	orrs	r5, r2
    10d8:	7932      	ldrb	r2, [r6, #4]
    10da:	3323      	adds	r3, #35	; 0x23
    10dc:	9203      	str	r2, [sp, #12]
    10de:	785a      	ldrb	r2, [r3, #1]
    10e0:	7818      	ldrb	r0, [r3, #0]
    10e2:	0212      	lsls	r2, r2, #8
    10e4:	4302      	orrs	r2, r0
    10e6:	0011      	movs	r1, r2
    10e8:	789a      	ldrb	r2, [r3, #2]
    10ea:	9502      	str	r5, [sp, #8]
    10ec:	0412      	lsls	r2, r2, #16
    10ee:	430a      	orrs	r2, r1
    10f0:	78d9      	ldrb	r1, [r3, #3]
    10f2:	791b      	ldrb	r3, [r3, #4]
    10f4:	0609      	lsls	r1, r1, #24
    10f6:	4311      	orrs	r1, r2
    10f8:	9305      	str	r3, [sp, #20]
    10fa:	002a      	movs	r2, r5
    10fc:	0008      	movs	r0, r1
    10fe:	9104      	str	r1, [sp, #16]
    1100:	9b03      	ldr	r3, [sp, #12]
    1102:	9905      	ldr	r1, [sp, #20]
    1104:	4daf      	ldr	r5, [pc, #700]	; (13c4 <sampleTick+0x414>)
    1106:	47a8      	blx	r5
    1108:	2380      	movs	r3, #128	; 0x80
    110a:	20fa      	movs	r0, #250	; 0xfa
    110c:	021b      	lsls	r3, r3, #8
    110e:	61bb      	str	r3, [r7, #24]
    1110:	0040      	lsls	r0, r0, #1
    1112:	4bad      	ldr	r3, [pc, #692]	; (13c8 <sampleTick+0x418>)
    1114:	4798      	blx	r3
    1116:	4bad      	ldr	r3, [pc, #692]	; (13cc <sampleTick+0x41c>)
    1118:	4798      	blx	r3
    111a:	2380      	movs	r3, #128	; 0x80
    111c:	021b      	lsls	r3, r3, #8
    111e:	61a0      	str	r0, [r4, #24]
    1120:	617b      	str	r3, [r7, #20]
    1122:	2342      	movs	r3, #66	; 0x42
    1124:	9a02      	ldr	r2, [sp, #8]
    1126:	9300      	str	r3, [sp, #0]
    1128:	9804      	ldr	r0, [sp, #16]
    112a:	9b03      	ldr	r3, [sp, #12]
    112c:	9905      	ldr	r1, [sp, #20]
    112e:	4da5      	ldr	r5, [pc, #660]	; (13c4 <sampleTick+0x414>)
    1130:	47a8      	blx	r5
    1132:	2380      	movs	r3, #128	; 0x80
    1134:	2280      	movs	r2, #128	; 0x80
    1136:	26ff      	movs	r6, #255	; 0xff
    1138:	021b      	lsls	r3, r3, #8
    113a:	61bb      	str	r3, [r7, #24]
    113c:	4ba4      	ldr	r3, [pc, #656]	; (13d0 <sampleTick+0x420>)
    113e:	00d2      	lsls	r2, r2, #3
    1140:	601a      	str	r2, [r3, #0]
    1142:	4da4      	ldr	r5, [pc, #656]	; (13d4 <sampleTick+0x424>)
    1144:	2182      	movs	r1, #130	; 0x82
    1146:	2000      	movs	r0, #0
    1148:	47a8      	blx	r5
    114a:	0031      	movs	r1, r6
    114c:	2000      	movs	r0, #0
    114e:	47a8      	blx	r5
    1150:	0023      	movs	r3, r4
    1152:	3359      	adds	r3, #89	; 0x59
    1154:	7018      	strb	r0, [r3, #0]
    1156:	0031      	movs	r1, r6
    1158:	2000      	movs	r0, #0
    115a:	9305      	str	r3, [sp, #20]
    115c:	47a8      	blx	r5
    115e:	0023      	movs	r3, r4
    1160:	3358      	adds	r3, #88	; 0x58
    1162:	7018      	strb	r0, [r3, #0]
    1164:	0031      	movs	r1, r6
    1166:	2000      	movs	r0, #0
    1168:	9302      	str	r3, [sp, #8]
    116a:	47a8      	blx	r5
    116c:	0023      	movs	r3, r4
    116e:	335d      	adds	r3, #93	; 0x5d
    1170:	7018      	strb	r0, [r3, #0]
    1172:	0031      	movs	r1, r6
    1174:	2000      	movs	r0, #0
    1176:	9306      	str	r3, [sp, #24]
    1178:	47a8      	blx	r5
    117a:	0023      	movs	r3, r4
    117c:	335c      	adds	r3, #92	; 0x5c
    117e:	7018      	strb	r0, [r3, #0]
    1180:	0031      	movs	r1, r6
    1182:	2000      	movs	r0, #0
    1184:	9303      	str	r3, [sp, #12]
    1186:	47a8      	blx	r5
    1188:	0023      	movs	r3, r4
    118a:	3361      	adds	r3, #97	; 0x61
    118c:	7018      	strb	r0, [r3, #0]
    118e:	0031      	movs	r1, r6
    1190:	2000      	movs	r0, #0
    1192:	9307      	str	r3, [sp, #28]
    1194:	47a8      	blx	r5
    1196:	0023      	movs	r3, r4
    1198:	2180      	movs	r1, #128	; 0x80
    119a:	3360      	adds	r3, #96	; 0x60
    119c:	7018      	strb	r0, [r3, #0]
    119e:	0020      	movs	r0, r4
    11a0:	4a8d      	ldr	r2, [pc, #564]	; (13d8 <sampleTick+0x428>)
    11a2:	00c9      	lsls	r1, r1, #3
    11a4:	6011      	str	r1, [r2, #0]
    11a6:	9a02      	ldr	r2, [sp, #8]
    11a8:	305a      	adds	r0, #90	; 0x5a
    11aa:	7812      	ldrb	r2, [r2, #0]
    11ac:	9d07      	ldr	r5, [sp, #28]
    11ae:	9202      	str	r2, [sp, #8]
    11b0:	9a03      	ldr	r2, [sp, #12]
    11b2:	4e7f      	ldr	r6, [pc, #508]	; (13b0 <sampleTick+0x400>)
    11b4:	7812      	ldrb	r2, [r2, #0]
    11b6:	9203      	str	r2, [sp, #12]
    11b8:	781b      	ldrb	r3, [r3, #0]
    11ba:	9a05      	ldr	r2, [sp, #20]
    11bc:	9304      	str	r3, [sp, #16]
    11be:	9b02      	ldr	r3, [sp, #8]
    11c0:	7811      	ldrb	r1, [r2, #0]
    11c2:	021b      	lsls	r3, r3, #8
    11c4:	4319      	orrs	r1, r3
    11c6:	9a06      	ldr	r2, [sp, #24]
    11c8:	b209      	sxth	r1, r1
    11ca:	8001      	strh	r1, [r0, #0]
    11cc:	9b03      	ldr	r3, [sp, #12]
    11ce:	7812      	ldrb	r2, [r2, #0]
    11d0:	021b      	lsls	r3, r3, #8
    11d2:	431a      	orrs	r2, r3
    11d4:	235e      	movs	r3, #94	; 0x5e
    11d6:	469c      	mov	ip, r3
    11d8:	44a4      	add	ip, r4
    11da:	4663      	mov	r3, ip
    11dc:	b212      	sxth	r2, r2
    11de:	801a      	strh	r2, [r3, #0]
    11e0:	9b04      	ldr	r3, [sp, #16]
    11e2:	782d      	ldrb	r5, [r5, #0]
    11e4:	021b      	lsls	r3, r3, #8
    11e6:	432b      	orrs	r3, r5
    11e8:	0025      	movs	r5, r4
    11ea:	9706      	str	r7, [sp, #24]
    11ec:	9f02      	ldr	r7, [sp, #8]
    11ee:	b21b      	sxth	r3, r3
    11f0:	3562      	adds	r5, #98	; 0x62
    11f2:	802b      	strh	r3, [r5, #0]
    11f4:	2f01      	cmp	r7, #1
    11f6:	d001      	beq.n	11fc <sampleTick+0x24c>
    11f8:	1109      	asrs	r1, r1, #4
    11fa:	8001      	strh	r1, [r0, #0]
    11fc:	9903      	ldr	r1, [sp, #12]
    11fe:	2901      	cmp	r1, #1
    1200:	d002      	beq.n	1208 <sampleTick+0x258>
    1202:	4661      	mov	r1, ip
    1204:	1112      	asrs	r2, r2, #4
    1206:	800a      	strh	r2, [r1, #0]
    1208:	9a04      	ldr	r2, [sp, #16]
    120a:	2a01      	cmp	r2, #1
    120c:	d001      	beq.n	1212 <sampleTick+0x262>
    120e:	111b      	asrs	r3, r3, #4
    1210:	802b      	strh	r3, [r5, #0]
    1212:	2300      	movs	r3, #0
    1214:	5ec0      	ldrsh	r0, [r0, r3]
    1216:	47b0      	blx	r6
    1218:	23fe      	movs	r3, #254	; 0xfe
    121a:	2200      	movs	r2, #0
    121c:	059b      	lsls	r3, r3, #22
    121e:	4f66      	ldr	r7, [pc, #408]	; (13b8 <sampleTick+0x408>)
    1220:	47b8      	blx	r7
    1222:	4f67      	ldr	r7, [pc, #412]	; (13c0 <sampleTick+0x410>)
    1224:	47b8      	blx	r7
    1226:	0023      	movs	r3, r4
    1228:	63e0      	str	r0, [r4, #60]	; 0x3c
    122a:	335e      	adds	r3, #94	; 0x5e
    122c:	2000      	movs	r0, #0
    122e:	5e18      	ldrsh	r0, [r3, r0]
    1230:	47b0      	blx	r6
    1232:	23fe      	movs	r3, #254	; 0xfe
    1234:	2200      	movs	r2, #0
    1236:	4d60      	ldr	r5, [pc, #384]	; (13b8 <sampleTick+0x408>)
    1238:	059b      	lsls	r3, r3, #22
    123a:	47a8      	blx	r5
    123c:	47b8      	blx	r7
    123e:	0023      	movs	r3, r4
    1240:	6460      	str	r0, [r4, #68]	; 0x44
    1242:	3362      	adds	r3, #98	; 0x62
    1244:	2000      	movs	r0, #0
    1246:	5e18      	ldrsh	r0, [r3, r0]
    1248:	47b0      	blx	r6
    124a:	23fe      	movs	r3, #254	; 0xfe
    124c:	2200      	movs	r2, #0
    124e:	059b      	lsls	r3, r3, #22
    1250:	47a8      	blx	r5
    1252:	47b8      	blx	r7
    1254:	2380      	movs	r3, #128	; 0x80
    1256:	9a06      	ldr	r2, [sp, #24]
    1258:	00db      	lsls	r3, r3, #3
    125a:	4e5e      	ldr	r6, [pc, #376]	; (13d4 <sampleTick+0x424>)
    125c:	64a0      	str	r0, [r4, #72]	; 0x48
    125e:	2182      	movs	r1, #130	; 0x82
    1260:	6153      	str	r3, [r2, #20]
    1262:	2000      	movs	r0, #0
    1264:	47b0      	blx	r6
    1266:	21ff      	movs	r1, #255	; 0xff
    1268:	2000      	movs	r0, #0
    126a:	47b0      	blx	r6
    126c:	0023      	movs	r3, r4
    126e:	3365      	adds	r3, #101	; 0x65
    1270:	7018      	strb	r0, [r3, #0]
    1272:	21ff      	movs	r1, #255	; 0xff
    1274:	2000      	movs	r0, #0
    1276:	001d      	movs	r5, r3
    1278:	47b0      	blx	r6
    127a:	0023      	movs	r3, r4
    127c:	3364      	adds	r3, #100	; 0x64
    127e:	7018      	strb	r0, [r3, #0]
    1280:	21ff      	movs	r1, #255	; 0xff
    1282:	2000      	movs	r0, #0
    1284:	9302      	str	r3, [sp, #8]
    1286:	47b0      	blx	r6
    1288:	0023      	movs	r3, r4
    128a:	3369      	adds	r3, #105	; 0x69
    128c:	7018      	strb	r0, [r3, #0]
    128e:	21ff      	movs	r1, #255	; 0xff
    1290:	2000      	movs	r0, #0
    1292:	0027      	movs	r7, r4
    1294:	9304      	str	r3, [sp, #16]
    1296:	47b0      	blx	r6
    1298:	3768      	adds	r7, #104	; 0x68
    129a:	7038      	strb	r0, [r7, #0]
    129c:	21ff      	movs	r1, #255	; 0xff
    129e:	2000      	movs	r0, #0
    12a0:	47b0      	blx	r6
    12a2:	0023      	movs	r3, r4
    12a4:	336d      	adds	r3, #109	; 0x6d
    12a6:	7018      	strb	r0, [r3, #0]
    12a8:	21ff      	movs	r1, #255	; 0xff
    12aa:	2000      	movs	r0, #0
    12ac:	9305      	str	r3, [sp, #20]
    12ae:	47b0      	blx	r6
    12b0:	0023      	movs	r3, r4
    12b2:	2280      	movs	r2, #128	; 0x80
    12b4:	336c      	adds	r3, #108	; 0x6c
    12b6:	7018      	strb	r0, [r3, #0]
    12b8:	0020      	movs	r0, r4
    12ba:	9906      	ldr	r1, [sp, #24]
    12bc:	00d2      	lsls	r2, r2, #3
    12be:	618a      	str	r2, [r1, #24]
    12c0:	9a02      	ldr	r2, [sp, #8]
    12c2:	3f02      	subs	r7, #2
    12c4:	7816      	ldrb	r6, [r2, #0]
    12c6:	78ba      	ldrb	r2, [r7, #2]
    12c8:	306a      	adds	r0, #106	; 0x6a
    12ca:	9202      	str	r2, [sp, #8]
    12cc:	781b      	ldrb	r3, [r3, #0]
    12ce:	9a04      	ldr	r2, [sp, #16]
    12d0:	9303      	str	r3, [sp, #12]
    12d2:	7829      	ldrb	r1, [r5, #0]
    12d4:	0233      	lsls	r3, r6, #8
    12d6:	4319      	orrs	r1, r3
    12d8:	b209      	sxth	r1, r1
    12da:	8039      	strh	r1, [r7, #0]
    12dc:	9b02      	ldr	r3, [sp, #8]
    12de:	7812      	ldrb	r2, [r2, #0]
    12e0:	021b      	lsls	r3, r3, #8
    12e2:	431a      	orrs	r2, r3
    12e4:	b212      	sxth	r2, r2
    12e6:	9d05      	ldr	r5, [sp, #20]
    12e8:	8002      	strh	r2, [r0, #0]
    12ea:	9b03      	ldr	r3, [sp, #12]
    12ec:	782d      	ldrb	r5, [r5, #0]
    12ee:	021b      	lsls	r3, r3, #8
    12f0:	432b      	orrs	r3, r5
    12f2:	256e      	movs	r5, #110	; 0x6e
    12f4:	46ac      	mov	ip, r5
    12f6:	44a4      	add	ip, r4
    12f8:	4665      	mov	r5, ip
    12fa:	b21b      	sxth	r3, r3
    12fc:	802b      	strh	r3, [r5, #0]
    12fe:	4d2e      	ldr	r5, [pc, #184]	; (13b8 <sampleTick+0x408>)
    1300:	2e01      	cmp	r6, #1
    1302:	d001      	beq.n	1308 <sampleTick+0x358>
    1304:	1109      	asrs	r1, r1, #4
    1306:	8039      	strh	r1, [r7, #0]
    1308:	9902      	ldr	r1, [sp, #8]
    130a:	2901      	cmp	r1, #1
    130c:	d001      	beq.n	1312 <sampleTick+0x362>
    130e:	1112      	asrs	r2, r2, #4
    1310:	8002      	strh	r2, [r0, #0]
    1312:	9a03      	ldr	r2, [sp, #12]
    1314:	2a01      	cmp	r2, #1
    1316:	d002      	beq.n	131e <sampleTick+0x36e>
    1318:	4662      	mov	r2, ip
    131a:	111b      	asrs	r3, r3, #4
    131c:	8013      	strh	r3, [r2, #0]
    131e:	0023      	movs	r3, r4
    1320:	3366      	adds	r3, #102	; 0x66
    1322:	2000      	movs	r0, #0
    1324:	5e18      	ldrsh	r0, [r3, r0]
    1326:	4f22      	ldr	r7, [pc, #136]	; (13b0 <sampleTick+0x400>)
    1328:	47b8      	blx	r7
    132a:	23fe      	movs	r3, #254	; 0xfe
    132c:	2200      	movs	r2, #0
    132e:	059b      	lsls	r3, r3, #22
    1330:	47a8      	blx	r5
    1332:	4e23      	ldr	r6, [pc, #140]	; (13c0 <sampleTick+0x410>)
    1334:	47b0      	blx	r6
    1336:	0023      	movs	r3, r4
    1338:	64e0      	str	r0, [r4, #76]	; 0x4c
    133a:	336a      	adds	r3, #106	; 0x6a
    133c:	2000      	movs	r0, #0
    133e:	5e18      	ldrsh	r0, [r3, r0]
    1340:	47b8      	blx	r7
    1342:	23fe      	movs	r3, #254	; 0xfe
    1344:	2200      	movs	r2, #0
    1346:	059b      	lsls	r3, r3, #22
    1348:	47a8      	blx	r5
    134a:	47b0      	blx	r6
    134c:	0023      	movs	r3, r4
    134e:	6520      	str	r0, [r4, #80]	; 0x50
    1350:	336e      	adds	r3, #110	; 0x6e
    1352:	2000      	movs	r0, #0
    1354:	5e18      	ldrsh	r0, [r3, r0]
    1356:	47b8      	blx	r7
    1358:	23fe      	movs	r3, #254	; 0xfe
    135a:	2200      	movs	r2, #0
    135c:	059b      	lsls	r3, r3, #22
    135e:	47a8      	blx	r5
    1360:	47b0      	blx	r6
    1362:	6560      	str	r0, [r4, #84]	; 0x54
    1364:	20c8      	movs	r0, #200	; 0xc8
    1366:	4b18      	ldr	r3, [pc, #96]	; (13c8 <sampleTick+0x418>)
    1368:	0080      	lsls	r0, r0, #2
    136a:	4798      	blx	r3
    136c:	0027      	movs	r7, r4
    136e:	4b17      	ldr	r3, [pc, #92]	; (13cc <sampleTick+0x41c>)
    1370:	4798      	blx	r3
    1372:	3708      	adds	r7, #8
    1374:	6160      	str	r0, [r4, #20]
    1376:	4b19      	ldr	r3, [pc, #100]	; (13dc <sampleTick+0x42c>)
    1378:	0038      	movs	r0, r7
    137a:	4798      	blx	r3
    137c:	0038      	movs	r0, r7
    137e:	4b18      	ldr	r3, [pc, #96]	; (13e0 <sampleTick+0x430>)
    1380:	4798      	blx	r3
    1382:	4b18      	ldr	r3, [pc, #96]	; (13e4 <sampleTick+0x434>)
    1384:	6aa0      	ldr	r0, [r4, #40]	; 0x28
    1386:	4798      	blx	r3
    1388:	4a17      	ldr	r2, [pc, #92]	; (13e8 <sampleTick+0x438>)
    138a:	4b18      	ldr	r3, [pc, #96]	; (13ec <sampleTick+0x43c>)
    138c:	47a8      	blx	r5
    138e:	47b0      	blx	r6
    1390:	62e0      	str	r0, [r4, #44]	; 0x2c
    1392:	b009      	add	sp, #36	; 0x24
    1394:	e02c      	b.n	13f0 <sampleTick+0x440>
    1396:	46c0      	nop			; (mov r8, r8)
    1398:	00000ded 	.word	0x00000ded
    139c:	00002f44 	.word	0x00002f44
    13a0:	00000a91 	.word	0x00000a91
    13a4:	0000020b 	.word	0x0000020b
    13a8:	fffff0da 	.word	0xfffff0da
    13ac:	41004400 	.word	0x41004400
    13b0:	0000297d 	.word	0x0000297d
    13b4:	367a0f91 	.word	0x367a0f91
    13b8:	00002489 	.word	0x00002489
    13bc:	bf973eab 	.word	0xbf973eab
    13c0:	00002aa9 	.word	0x00002aa9
    13c4:	00000af9 	.word	0x00000af9
    13c8:	00000d71 	.word	0x00000d71
    13cc:	000001e5 	.word	0x000001e5
    13d0:	41004494 	.word	0x41004494
    13d4:	00001501 	.word	0x00001501
    13d8:	41004498 	.word	0x41004498
    13dc:	00000299 	.word	0x00000299
    13e0:	00000385 	.word	0x00000385
    13e4:	00002a01 	.word	0x00002a01
    13e8:	e9f6a93f 	.word	0xe9f6a93f
    13ec:	3fa0cc78 	.word	0x3fa0cc78
    13f0:	bdf0      	pop	{r4, r5, r6, r7, pc}
    13f2:	46c0      	nop			; (mov r8, r8)

000013f4 <sercomClockEnable>:
    13f4:	b570      	push	{r4, r5, r6, lr}
    13f6:	0004      	movs	r4, r0
    13f8:	2301      	movs	r3, #1
    13fa:	1ca6      	adds	r6, r4, #2
    13fc:	40b3      	lsls	r3, r6
    13fe:	480d      	ldr	r0, [pc, #52]	; (1434 <sercomClockEnable+0x40>)
    1400:	000d      	movs	r5, r1
    1402:	6a01      	ldr	r1, [r0, #32]
    1404:	430b      	orrs	r3, r1
    1406:	6203      	str	r3, [r0, #32]
    1408:	2d00      	cmp	r5, #0
    140a:	d003      	beq.n	1414 <sercomClockEnable+0x20>
    140c:	2107      	movs	r1, #7
    140e:	0028      	movs	r0, r5
    1410:	4b09      	ldr	r3, [pc, #36]	; (1438 <sercomClockEnable+0x44>)
    1412:	4798      	blx	r3
    1414:	22f0      	movs	r2, #240	; 0xf0
    1416:	2080      	movs	r0, #128	; 0x80
    1418:	0229      	lsls	r1, r5, #8
    141a:	0112      	lsls	r2, r2, #4
    141c:	4011      	ands	r1, r2
    141e:	01c0      	lsls	r0, r0, #7
    1420:	4301      	orrs	r1, r0
    1422:	0020      	movs	r0, r4
    1424:	3014      	adds	r0, #20
    1426:	223f      	movs	r2, #63	; 0x3f
    1428:	0003      	movs	r3, r0
    142a:	4013      	ands	r3, r2
    142c:	4319      	orrs	r1, r3
    142e:	4b03      	ldr	r3, [pc, #12]	; (143c <sercomClockEnable+0x48>)
    1430:	8059      	strh	r1, [r3, #2]
    1432:	bd70      	pop	{r4, r5, r6, pc}
    1434:	40000400 	.word	0x40000400
    1438:	00000d21 	.word	0x00000d21
    143c:	40000c00 	.word	0x40000c00

00001440 <sercomReset>:
    1440:	4b04      	ldr	r3, [pc, #16]	; (1454 <sercomReset+0x14>)
    1442:	0280      	lsls	r0, r0, #10
    1444:	18c0      	adds	r0, r0, r3
    1446:	2301      	movs	r3, #1
    1448:	6003      	str	r3, [r0, #0]
    144a:	6802      	ldr	r2, [r0, #0]
    144c:	421a      	tst	r2, r3
    144e:	d1fc      	bne.n	144a <sercomReset+0xa>
    1450:	4770      	bx	lr
    1452:	46c0      	nop			; (mov r8, r8)
    1454:	42000800 	.word	0x42000800

00001458 <sercomSpiMasterInit>:
    1458:	b5f7      	push	{r0, r1, r2, r4, r5, r6, r7, lr}
    145a:	0004      	movs	r4, r0
    145c:	9300      	str	r3, [sp, #0]
    145e:	ab08      	add	r3, sp, #32
    1460:	781b      	ldrb	r3, [r3, #0]
    1462:	000e      	movs	r6, r1
    1464:	9301      	str	r3, [sp, #4]
    1466:	ab09      	add	r3, sp, #36	; 0x24
    1468:	781f      	ldrb	r7, [r3, #0]
    146a:	4b12      	ldr	r3, [pc, #72]	; (14b4 <sercomSpiMasterInit+0x5c>)
    146c:	0015      	movs	r5, r2
    146e:	4798      	blx	r3
    1470:	4b11      	ldr	r3, [pc, #68]	; (14b8 <sercomSpiMasterInit+0x60>)
    1472:	02a4      	lsls	r4, r4, #10
    1474:	18e4      	adds	r4, r4, r3
    1476:	2380      	movs	r3, #128	; 0x80
    1478:	029b      	lsls	r3, r3, #10
    147a:	6063      	str	r3, [r4, #4]
    147c:	23c0      	movs	r3, #192	; 0xc0
    147e:	21c0      	movs	r1, #192	; 0xc0
    1480:	042d      	lsls	r5, r5, #16
    1482:	029b      	lsls	r3, r3, #10
    1484:	402b      	ands	r3, r5
    1486:	250e      	movs	r5, #14
    1488:	0536      	lsls	r6, r6, #20
    148a:	0389      	lsls	r1, r1, #14
    148c:	4031      	ands	r1, r6
    148e:	9e00      	ldr	r6, [sp, #0]
    1490:	431d      	orrs	r5, r3
    1492:	1e73      	subs	r3, r6, #1
    1494:	419e      	sbcs	r6, r3
    1496:	9b01      	ldr	r3, [sp, #4]
    1498:	0772      	lsls	r2, r6, #29
    149a:	430d      	orrs	r5, r1
    149c:	432a      	orrs	r2, r5
    149e:	1e59      	subs	r1, r3, #1
    14a0:	418b      	sbcs	r3, r1
    14a2:	0016      	movs	r6, r2
    14a4:	071b      	lsls	r3, r3, #28
    14a6:	431e      	orrs	r6, r3
    14a8:	7327      	strb	r7, [r4, #12]
    14aa:	6026      	str	r6, [r4, #0]
    14ac:	69e3      	ldr	r3, [r4, #28]
    14ae:	075b      	lsls	r3, r3, #29
    14b0:	d4fc      	bmi.n	14ac <sercomSpiMasterInit+0x54>
    14b2:	bdf7      	pop	{r0, r1, r2, r4, r5, r6, r7, pc}
    14b4:	00001441 	.word	0x00001441
    14b8:	42000800 	.word	0x42000800

000014bc <sercomUartInit>:
    14bc:	b5f8      	push	{r3, r4, r5, r6, r7, lr}
    14be:	0007      	movs	r7, r0
    14c0:	001e      	movs	r6, r3
    14c2:	4b0c      	ldr	r3, [pc, #48]	; (14f4 <sercomUartInit+0x38>)
    14c4:	000d      	movs	r5, r1
    14c6:	0014      	movs	r4, r2
    14c8:	4798      	blx	r3
    14ca:	4b0b      	ldr	r3, [pc, #44]	; (14f8 <sercomUartInit+0x3c>)
    14cc:	02b8      	lsls	r0, r7, #10
    14ce:	18c0      	adds	r0, r0, r3
    14d0:	2304      	movs	r3, #4
    14d2:	22c0      	movs	r2, #192	; 0xc0
    14d4:	6003      	str	r3, [r0, #0]
    14d6:	23c0      	movs	r3, #192	; 0xc0
    14d8:	0529      	lsls	r1, r5, #20
    14da:	0392      	lsls	r2, r2, #14
    14dc:	4011      	ands	r1, r2
    14de:	4a07      	ldr	r2, [pc, #28]	; (14fc <sercomUartInit+0x40>)
    14e0:	b2b6      	uxth	r6, r6
    14e2:	029b      	lsls	r3, r3, #10
    14e4:	0424      	lsls	r4, r4, #16
    14e6:	8186      	strh	r6, [r0, #12]
    14e8:	4311      	orrs	r1, r2
    14ea:	6043      	str	r3, [r0, #4]
    14ec:	4023      	ands	r3, r4
    14ee:	430b      	orrs	r3, r1
    14f0:	6003      	str	r3, [r0, #0]
    14f2:	bdf8      	pop	{r3, r4, r5, r6, r7, pc}
    14f4:	00001441 	.word	0x00001441
    14f8:	42000800 	.word	0x42000800
    14fc:	40000006 	.word	0x40000006

00001500 <spiDataTransfer>:
    1500:	4b04      	ldr	r3, [pc, #16]	; (1514 <spiDataTransfer+0x14>)
    1502:	0280      	lsls	r0, r0, #10
    1504:	18c0      	adds	r0, r0, r3
    1506:	6281      	str	r1, [r0, #40]	; 0x28
    1508:	7e03      	ldrb	r3, [r0, #24]
    150a:	075b      	lsls	r3, r3, #29
    150c:	d5fc      	bpl.n	1508 <spiDataTransfer+0x8>
    150e:	6a80      	ldr	r0, [r0, #40]	; 0x28
    1510:	b2c0      	uxtb	r0, r0
    1512:	4770      	bx	lr
    1514:	42000800 	.word	0x42000800

00001518 <usartDataOut>:
    1518:	4b04      	ldr	r3, [pc, #16]	; (152c <usartDataOut+0x14>)
    151a:	0280      	lsls	r0, r0, #10
    151c:	18c0      	adds	r0, r0, r3
    151e:	b289      	uxth	r1, r1
    1520:	8501      	strh	r1, [r0, #40]	; 0x28
    1522:	7e03      	ldrb	r3, [r0, #24]
    1524:	07db      	lsls	r3, r3, #31
    1526:	d5fc      	bpl.n	1522 <usartDataOut+0xa>
    1528:	4770      	bx	lr
    152a:	46c0      	nop			; (mov r8, r8)
    152c:	42000800 	.word	0x42000800

00001530 <__aeabi_lmul>:
    1530:	b5f0      	push	{r4, r5, r6, r7, lr}
    1532:	464f      	mov	r7, r9
    1534:	4646      	mov	r6, r8
    1536:	b4c0      	push	{r6, r7}
    1538:	0416      	lsls	r6, r2, #16
    153a:	0c36      	lsrs	r6, r6, #16
    153c:	4699      	mov	r9, r3
    153e:	0033      	movs	r3, r6
    1540:	0405      	lsls	r5, r0, #16
    1542:	0c2c      	lsrs	r4, r5, #16
    1544:	0c07      	lsrs	r7, r0, #16
    1546:	0c15      	lsrs	r5, r2, #16
    1548:	4363      	muls	r3, r4
    154a:	437e      	muls	r6, r7
    154c:	436f      	muls	r7, r5
    154e:	4365      	muls	r5, r4
    1550:	0c1c      	lsrs	r4, r3, #16
    1552:	19ad      	adds	r5, r5, r6
    1554:	1964      	adds	r4, r4, r5
    1556:	469c      	mov	ip, r3
    1558:	42a6      	cmp	r6, r4
    155a:	d903      	bls.n	1564 <__aeabi_lmul+0x34>
    155c:	2380      	movs	r3, #128	; 0x80
    155e:	025b      	lsls	r3, r3, #9
    1560:	4698      	mov	r8, r3
    1562:	4447      	add	r7, r8
    1564:	4663      	mov	r3, ip
    1566:	0c25      	lsrs	r5, r4, #16
    1568:	19ef      	adds	r7, r5, r7
    156a:	041d      	lsls	r5, r3, #16
    156c:	464b      	mov	r3, r9
    156e:	434a      	muls	r2, r1
    1570:	4343      	muls	r3, r0
    1572:	0c2d      	lsrs	r5, r5, #16
    1574:	0424      	lsls	r4, r4, #16
    1576:	1964      	adds	r4, r4, r5
    1578:	1899      	adds	r1, r3, r2
    157a:	19c9      	adds	r1, r1, r7
    157c:	0020      	movs	r0, r4
    157e:	bc0c      	pop	{r2, r3}
    1580:	4690      	mov	r8, r2
    1582:	4699      	mov	r9, r3
    1584:	bdf0      	pop	{r4, r5, r6, r7, pc}
    1586:	46c0      	nop			; (mov r8, r8)

00001588 <__aeabi_fadd>:
    1588:	b5f8      	push	{r3, r4, r5, r6, r7, lr}
    158a:	024a      	lsls	r2, r1, #9
    158c:	0243      	lsls	r3, r0, #9
    158e:	0044      	lsls	r4, r0, #1
    1590:	004e      	lsls	r6, r1, #1
    1592:	0fc5      	lsrs	r5, r0, #31
    1594:	0e24      	lsrs	r4, r4, #24
    1596:	0028      	movs	r0, r5
    1598:	099b      	lsrs	r3, r3, #6
    159a:	0e36      	lsrs	r6, r6, #24
    159c:	0fc9      	lsrs	r1, r1, #31
    159e:	0992      	lsrs	r2, r2, #6
    15a0:	428d      	cmp	r5, r1
    15a2:	d059      	beq.n	1658 <__aeabi_fadd+0xd0>
    15a4:	1ba0      	subs	r0, r4, r6
    15a6:	2800      	cmp	r0, #0
    15a8:	dc00      	bgt.n	15ac <__aeabi_fadd+0x24>
    15aa:	e08d      	b.n	16c8 <__aeabi_fadd+0x140>
    15ac:	2e00      	cmp	r6, #0
    15ae:	d11a      	bne.n	15e6 <__aeabi_fadd+0x5e>
    15b0:	2a00      	cmp	r2, #0
    15b2:	d000      	beq.n	15b6 <__aeabi_fadd+0x2e>
    15b4:	e079      	b.n	16aa <__aeabi_fadd+0x122>
    15b6:	075a      	lsls	r2, r3, #29
    15b8:	d004      	beq.n	15c4 <__aeabi_fadd+0x3c>
    15ba:	220f      	movs	r2, #15
    15bc:	401a      	ands	r2, r3
    15be:	2a04      	cmp	r2, #4
    15c0:	d000      	beq.n	15c4 <__aeabi_fadd+0x3c>
    15c2:	3304      	adds	r3, #4
    15c4:	015a      	lsls	r2, r3, #5
    15c6:	d538      	bpl.n	163a <__aeabi_fadd+0xb2>
    15c8:	3401      	adds	r4, #1
    15ca:	2cff      	cmp	r4, #255	; 0xff
    15cc:	d100      	bne.n	15d0 <__aeabi_fadd+0x48>
    15ce:	e089      	b.n	16e4 <__aeabi_fadd+0x15c>
    15d0:	0028      	movs	r0, r5
    15d2:	019b      	lsls	r3, r3, #6
    15d4:	0a5b      	lsrs	r3, r3, #9
    15d6:	b2e4      	uxtb	r4, r4
    15d8:	025b      	lsls	r3, r3, #9
    15da:	05e4      	lsls	r4, r4, #23
    15dc:	0a5b      	lsrs	r3, r3, #9
    15de:	4323      	orrs	r3, r4
    15e0:	07c0      	lsls	r0, r0, #31
    15e2:	4318      	orrs	r0, r3
    15e4:	bdf8      	pop	{r3, r4, r5, r6, r7, pc}
    15e6:	2cff      	cmp	r4, #255	; 0xff
    15e8:	d0e5      	beq.n	15b6 <__aeabi_fadd+0x2e>
    15ea:	2180      	movs	r1, #128	; 0x80
    15ec:	04c9      	lsls	r1, r1, #19
    15ee:	430a      	orrs	r2, r1
    15f0:	281b      	cmp	r0, #27
    15f2:	dd00      	ble.n	15f6 <__aeabi_fadd+0x6e>
    15f4:	e089      	b.n	170a <__aeabi_fadd+0x182>
    15f6:	0016      	movs	r6, r2
    15f8:	2120      	movs	r1, #32
    15fa:	40c6      	lsrs	r6, r0
    15fc:	1a08      	subs	r0, r1, r0
    15fe:	4082      	lsls	r2, r0
    1600:	1e51      	subs	r1, r2, #1
    1602:	418a      	sbcs	r2, r1
    1604:	4332      	orrs	r2, r6
    1606:	1a9b      	subs	r3, r3, r2
    1608:	015a      	lsls	r2, r3, #5
    160a:	d514      	bpl.n	1636 <__aeabi_fadd+0xae>
    160c:	019b      	lsls	r3, r3, #6
    160e:	099e      	lsrs	r6, r3, #6
    1610:	0030      	movs	r0, r6
    1612:	f001 fad5 	bl	2bc0 <__clzsi2>
    1616:	3805      	subs	r0, #5
    1618:	4086      	lsls	r6, r0
    161a:	4284      	cmp	r4, r0
    161c:	dc65      	bgt.n	16ea <__aeabi_fadd+0x162>
    161e:	1b04      	subs	r4, r0, r4
    1620:	0033      	movs	r3, r6
    1622:	2020      	movs	r0, #32
    1624:	3401      	adds	r4, #1
    1626:	40e3      	lsrs	r3, r4
    1628:	1b04      	subs	r4, r0, r4
    162a:	40a6      	lsls	r6, r4
    162c:	1e72      	subs	r2, r6, #1
    162e:	4196      	sbcs	r6, r2
    1630:	2400      	movs	r4, #0
    1632:	4333      	orrs	r3, r6
    1634:	e7bf      	b.n	15b6 <__aeabi_fadd+0x2e>
    1636:	075a      	lsls	r2, r3, #29
    1638:	d1bf      	bne.n	15ba <__aeabi_fadd+0x32>
    163a:	08df      	lsrs	r7, r3, #3
    163c:	0028      	movs	r0, r5
    163e:	2cff      	cmp	r4, #255	; 0xff
    1640:	d12f      	bne.n	16a2 <__aeabi_fadd+0x11a>
    1642:	2f00      	cmp	r7, #0
    1644:	d100      	bne.n	1648 <__aeabi_fadd+0xc0>
    1646:	e087      	b.n	1758 <__aeabi_fadd+0x1d0>
    1648:	2280      	movs	r2, #128	; 0x80
    164a:	03d2      	lsls	r2, r2, #15
    164c:	0013      	movs	r3, r2
    164e:	433b      	orrs	r3, r7
    1650:	025b      	lsls	r3, r3, #9
    1652:	0a5b      	lsrs	r3, r3, #9
    1654:	24ff      	movs	r4, #255	; 0xff
    1656:	e7bf      	b.n	15d8 <__aeabi_fadd+0x50>
    1658:	1ba1      	subs	r1, r4, r6
    165a:	2900      	cmp	r1, #0
    165c:	dd49      	ble.n	16f2 <__aeabi_fadd+0x16a>
    165e:	2e00      	cmp	r6, #0
    1660:	d029      	beq.n	16b6 <__aeabi_fadd+0x12e>
    1662:	2cff      	cmp	r4, #255	; 0xff
    1664:	d0a7      	beq.n	15b6 <__aeabi_fadd+0x2e>
    1666:	2680      	movs	r6, #128	; 0x80
    1668:	04f6      	lsls	r6, r6, #19
    166a:	4332      	orrs	r2, r6
    166c:	291b      	cmp	r1, #27
    166e:	dd00      	ble.n	1672 <__aeabi_fadd+0xea>
    1670:	e08d      	b.n	178e <__aeabi_fadd+0x206>
    1672:	0017      	movs	r7, r2
    1674:	2620      	movs	r6, #32
    1676:	40cf      	lsrs	r7, r1
    1678:	1a71      	subs	r1, r6, r1
    167a:	408a      	lsls	r2, r1
    167c:	1e51      	subs	r1, r2, #1
    167e:	418a      	sbcs	r2, r1
    1680:	433a      	orrs	r2, r7
    1682:	189b      	adds	r3, r3, r2
    1684:	015a      	lsls	r2, r3, #5
    1686:	d5d6      	bpl.n	1636 <__aeabi_fadd+0xae>
    1688:	3401      	adds	r4, #1
    168a:	2cff      	cmp	r4, #255	; 0xff
    168c:	d064      	beq.n	1758 <__aeabi_fadd+0x1d0>
    168e:	2201      	movs	r2, #1
    1690:	4976      	ldr	r1, [pc, #472]	; (186c <__aeabi_fadd+0x2e4>)
    1692:	401a      	ands	r2, r3
    1694:	085b      	lsrs	r3, r3, #1
    1696:	400b      	ands	r3, r1
    1698:	4313      	orrs	r3, r2
    169a:	e78c      	b.n	15b6 <__aeabi_fadd+0x2e>
    169c:	1e03      	subs	r3, r0, #0
    169e:	d1ca      	bne.n	1636 <__aeabi_fadd+0xae>
    16a0:	2000      	movs	r0, #0
    16a2:	027b      	lsls	r3, r7, #9
    16a4:	0a5b      	lsrs	r3, r3, #9
    16a6:	b2e4      	uxtb	r4, r4
    16a8:	e796      	b.n	15d8 <__aeabi_fadd+0x50>
    16aa:	3801      	subs	r0, #1
    16ac:	2800      	cmp	r0, #0
    16ae:	d0aa      	beq.n	1606 <__aeabi_fadd+0x7e>
    16b0:	2cff      	cmp	r4, #255	; 0xff
    16b2:	d19d      	bne.n	15f0 <__aeabi_fadd+0x68>
    16b4:	e77f      	b.n	15b6 <__aeabi_fadd+0x2e>
    16b6:	2a00      	cmp	r2, #0
    16b8:	d100      	bne.n	16bc <__aeabi_fadd+0x134>
    16ba:	e77c      	b.n	15b6 <__aeabi_fadd+0x2e>
    16bc:	3901      	subs	r1, #1
    16be:	2900      	cmp	r1, #0
    16c0:	d0df      	beq.n	1682 <__aeabi_fadd+0xfa>
    16c2:	2cff      	cmp	r4, #255	; 0xff
    16c4:	d1d2      	bne.n	166c <__aeabi_fadd+0xe4>
    16c6:	e776      	b.n	15b6 <__aeabi_fadd+0x2e>
    16c8:	2800      	cmp	r0, #0
    16ca:	d120      	bne.n	170e <__aeabi_fadd+0x186>
    16cc:	1c60      	adds	r0, r4, #1
    16ce:	b2c0      	uxtb	r0, r0
    16d0:	2801      	cmp	r0, #1
    16d2:	dd53      	ble.n	177c <__aeabi_fadd+0x1f4>
    16d4:	2780      	movs	r7, #128	; 0x80
    16d6:	1a9e      	subs	r6, r3, r2
    16d8:	04ff      	lsls	r7, r7, #19
    16da:	4037      	ands	r7, r6
    16dc:	d02f      	beq.n	173e <__aeabi_fadd+0x1b6>
    16de:	1ad6      	subs	r6, r2, r3
    16e0:	000d      	movs	r5, r1
    16e2:	e795      	b.n	1610 <__aeabi_fadd+0x88>
    16e4:	0028      	movs	r0, r5
    16e6:	2300      	movs	r3, #0
    16e8:	e776      	b.n	15d8 <__aeabi_fadd+0x50>
    16ea:	4b61      	ldr	r3, [pc, #388]	; (1870 <__aeabi_fadd+0x2e8>)
    16ec:	1a24      	subs	r4, r4, r0
    16ee:	4033      	ands	r3, r6
    16f0:	e761      	b.n	15b6 <__aeabi_fadd+0x2e>
    16f2:	2900      	cmp	r1, #0
    16f4:	d14d      	bne.n	1792 <__aeabi_fadd+0x20a>
    16f6:	1c61      	adds	r1, r4, #1
    16f8:	b2ce      	uxtb	r6, r1
    16fa:	2e01      	cmp	r6, #1
    16fc:	dd2f      	ble.n	175e <__aeabi_fadd+0x1d6>
    16fe:	29ff      	cmp	r1, #255	; 0xff
    1700:	d02a      	beq.n	1758 <__aeabi_fadd+0x1d0>
    1702:	189b      	adds	r3, r3, r2
    1704:	085b      	lsrs	r3, r3, #1
    1706:	000c      	movs	r4, r1
    1708:	e755      	b.n	15b6 <__aeabi_fadd+0x2e>
    170a:	2201      	movs	r2, #1
    170c:	e77b      	b.n	1606 <__aeabi_fadd+0x7e>
    170e:	2c00      	cmp	r4, #0
    1710:	d11b      	bne.n	174a <__aeabi_fadd+0x1c2>
    1712:	2b00      	cmp	r3, #0
    1714:	d05b      	beq.n	17ce <__aeabi_fadd+0x246>
    1716:	43c0      	mvns	r0, r0
    1718:	2800      	cmp	r0, #0
    171a:	d00c      	beq.n	1736 <__aeabi_fadd+0x1ae>
    171c:	2eff      	cmp	r6, #255	; 0xff
    171e:	d07e      	beq.n	181e <__aeabi_fadd+0x296>
    1720:	281b      	cmp	r0, #27
    1722:	dd00      	ble.n	1726 <__aeabi_fadd+0x19e>
    1724:	e092      	b.n	184c <__aeabi_fadd+0x2c4>
    1726:	001d      	movs	r5, r3
    1728:	2420      	movs	r4, #32
    172a:	40c5      	lsrs	r5, r0
    172c:	1a20      	subs	r0, r4, r0
    172e:	4083      	lsls	r3, r0
    1730:	1e58      	subs	r0, r3, #1
    1732:	4183      	sbcs	r3, r0
    1734:	432b      	orrs	r3, r5
    1736:	1ad3      	subs	r3, r2, r3
    1738:	0034      	movs	r4, r6
    173a:	000d      	movs	r5, r1
    173c:	e764      	b.n	1608 <__aeabi_fadd+0x80>
    173e:	2e00      	cmp	r6, #0
    1740:	d000      	beq.n	1744 <__aeabi_fadd+0x1bc>
    1742:	e765      	b.n	1610 <__aeabi_fadd+0x88>
    1744:	2000      	movs	r0, #0
    1746:	2400      	movs	r4, #0
    1748:	e7ab      	b.n	16a2 <__aeabi_fadd+0x11a>
    174a:	2eff      	cmp	r6, #255	; 0xff
    174c:	d067      	beq.n	181e <__aeabi_fadd+0x296>
    174e:	2480      	movs	r4, #128	; 0x80
    1750:	04e4      	lsls	r4, r4, #19
    1752:	4240      	negs	r0, r0
    1754:	4323      	orrs	r3, r4
    1756:	e7e3      	b.n	1720 <__aeabi_fadd+0x198>
    1758:	24ff      	movs	r4, #255	; 0xff
    175a:	2300      	movs	r3, #0
    175c:	e73c      	b.n	15d8 <__aeabi_fadd+0x50>
    175e:	2c00      	cmp	r4, #0
    1760:	d161      	bne.n	1826 <__aeabi_fadd+0x29e>
    1762:	2b00      	cmp	r3, #0
    1764:	d07e      	beq.n	1864 <__aeabi_fadd+0x2dc>
    1766:	2a00      	cmp	r2, #0
    1768:	d100      	bne.n	176c <__aeabi_fadd+0x1e4>
    176a:	e724      	b.n	15b6 <__aeabi_fadd+0x2e>
    176c:	189b      	adds	r3, r3, r2
    176e:	015a      	lsls	r2, r3, #5
    1770:	d400      	bmi.n	1774 <__aeabi_fadd+0x1ec>
    1772:	e760      	b.n	1636 <__aeabi_fadd+0xae>
    1774:	4a3e      	ldr	r2, [pc, #248]	; (1870 <__aeabi_fadd+0x2e8>)
    1776:	000c      	movs	r4, r1
    1778:	4013      	ands	r3, r2
    177a:	e71c      	b.n	15b6 <__aeabi_fadd+0x2e>
    177c:	2c00      	cmp	r4, #0
    177e:	d11e      	bne.n	17be <__aeabi_fadd+0x236>
    1780:	2b00      	cmp	r3, #0
    1782:	d12f      	bne.n	17e4 <__aeabi_fadd+0x25c>
    1784:	2a00      	cmp	r2, #0
    1786:	d066      	beq.n	1856 <__aeabi_fadd+0x2ce>
    1788:	0013      	movs	r3, r2
    178a:	000d      	movs	r5, r1
    178c:	e713      	b.n	15b6 <__aeabi_fadd+0x2e>
    178e:	2201      	movs	r2, #1
    1790:	e777      	b.n	1682 <__aeabi_fadd+0xfa>
    1792:	2c00      	cmp	r4, #0
    1794:	d11f      	bne.n	17d6 <__aeabi_fadd+0x24e>
    1796:	2b00      	cmp	r3, #0
    1798:	d05a      	beq.n	1850 <__aeabi_fadd+0x2c8>
    179a:	43c9      	mvns	r1, r1
    179c:	2900      	cmp	r1, #0
    179e:	d00b      	beq.n	17b8 <__aeabi_fadd+0x230>
    17a0:	2eff      	cmp	r6, #255	; 0xff
    17a2:	d050      	beq.n	1846 <__aeabi_fadd+0x2be>
    17a4:	291b      	cmp	r1, #27
    17a6:	dc5f      	bgt.n	1868 <__aeabi_fadd+0x2e0>
    17a8:	001f      	movs	r7, r3
    17aa:	2420      	movs	r4, #32
    17ac:	40cf      	lsrs	r7, r1
    17ae:	1a61      	subs	r1, r4, r1
    17b0:	408b      	lsls	r3, r1
    17b2:	1e59      	subs	r1, r3, #1
    17b4:	418b      	sbcs	r3, r1
    17b6:	433b      	orrs	r3, r7
    17b8:	189b      	adds	r3, r3, r2
    17ba:	0034      	movs	r4, r6
    17bc:	e762      	b.n	1684 <__aeabi_fadd+0xfc>
    17be:	2b00      	cmp	r3, #0
    17c0:	d11c      	bne.n	17fc <__aeabi_fadd+0x274>
    17c2:	2a00      	cmp	r2, #0
    17c4:	d04a      	beq.n	185c <__aeabi_fadd+0x2d4>
    17c6:	0013      	movs	r3, r2
    17c8:	000d      	movs	r5, r1
    17ca:	24ff      	movs	r4, #255	; 0xff
    17cc:	e6f3      	b.n	15b6 <__aeabi_fadd+0x2e>
    17ce:	0013      	movs	r3, r2
    17d0:	0034      	movs	r4, r6
    17d2:	000d      	movs	r5, r1
    17d4:	e6ef      	b.n	15b6 <__aeabi_fadd+0x2e>
    17d6:	2eff      	cmp	r6, #255	; 0xff
    17d8:	d035      	beq.n	1846 <__aeabi_fadd+0x2be>
    17da:	2480      	movs	r4, #128	; 0x80
    17dc:	04e4      	lsls	r4, r4, #19
    17de:	4249      	negs	r1, r1
    17e0:	4323      	orrs	r3, r4
    17e2:	e7df      	b.n	17a4 <__aeabi_fadd+0x21c>
    17e4:	2a00      	cmp	r2, #0
    17e6:	d100      	bne.n	17ea <__aeabi_fadd+0x262>
    17e8:	e6e5      	b.n	15b6 <__aeabi_fadd+0x2e>
    17ea:	2780      	movs	r7, #128	; 0x80
    17ec:	1a98      	subs	r0, r3, r2
    17ee:	04ff      	lsls	r7, r7, #19
    17f0:	4007      	ands	r7, r0
    17f2:	d100      	bne.n	17f6 <__aeabi_fadd+0x26e>
    17f4:	e752      	b.n	169c <__aeabi_fadd+0x114>
    17f6:	1ad3      	subs	r3, r2, r3
    17f8:	000d      	movs	r5, r1
    17fa:	e6dc      	b.n	15b6 <__aeabi_fadd+0x2e>
    17fc:	24ff      	movs	r4, #255	; 0xff
    17fe:	2a00      	cmp	r2, #0
    1800:	d100      	bne.n	1804 <__aeabi_fadd+0x27c>
    1802:	e6d8      	b.n	15b6 <__aeabi_fadd+0x2e>
    1804:	2080      	movs	r0, #128	; 0x80
    1806:	08db      	lsrs	r3, r3, #3
    1808:	03c0      	lsls	r0, r0, #15
    180a:	4203      	tst	r3, r0
    180c:	d004      	beq.n	1818 <__aeabi_fadd+0x290>
    180e:	08d2      	lsrs	r2, r2, #3
    1810:	4202      	tst	r2, r0
    1812:	d101      	bne.n	1818 <__aeabi_fadd+0x290>
    1814:	0013      	movs	r3, r2
    1816:	000d      	movs	r5, r1
    1818:	00db      	lsls	r3, r3, #3
    181a:	24ff      	movs	r4, #255	; 0xff
    181c:	e6cb      	b.n	15b6 <__aeabi_fadd+0x2e>
    181e:	0013      	movs	r3, r2
    1820:	24ff      	movs	r4, #255	; 0xff
    1822:	000d      	movs	r5, r1
    1824:	e6c7      	b.n	15b6 <__aeabi_fadd+0x2e>
    1826:	2b00      	cmp	r3, #0
    1828:	d00d      	beq.n	1846 <__aeabi_fadd+0x2be>
    182a:	24ff      	movs	r4, #255	; 0xff
    182c:	2a00      	cmp	r2, #0
    182e:	d100      	bne.n	1832 <__aeabi_fadd+0x2aa>
    1830:	e6c1      	b.n	15b6 <__aeabi_fadd+0x2e>
    1832:	2180      	movs	r1, #128	; 0x80
    1834:	08db      	lsrs	r3, r3, #3
    1836:	03c9      	lsls	r1, r1, #15
    1838:	420b      	tst	r3, r1
    183a:	d0ed      	beq.n	1818 <__aeabi_fadd+0x290>
    183c:	08d2      	lsrs	r2, r2, #3
    183e:	420a      	tst	r2, r1
    1840:	d1ea      	bne.n	1818 <__aeabi_fadd+0x290>
    1842:	0013      	movs	r3, r2
    1844:	e7e8      	b.n	1818 <__aeabi_fadd+0x290>
    1846:	0013      	movs	r3, r2
    1848:	24ff      	movs	r4, #255	; 0xff
    184a:	e6b4      	b.n	15b6 <__aeabi_fadd+0x2e>
    184c:	2301      	movs	r3, #1
    184e:	e772      	b.n	1736 <__aeabi_fadd+0x1ae>
    1850:	0013      	movs	r3, r2
    1852:	0034      	movs	r4, r6
    1854:	e6af      	b.n	15b6 <__aeabi_fadd+0x2e>
    1856:	2700      	movs	r7, #0
    1858:	2000      	movs	r0, #0
    185a:	e722      	b.n	16a2 <__aeabi_fadd+0x11a>
    185c:	2780      	movs	r7, #128	; 0x80
    185e:	2000      	movs	r0, #0
    1860:	03ff      	lsls	r7, r7, #15
    1862:	e6f1      	b.n	1648 <__aeabi_fadd+0xc0>
    1864:	0013      	movs	r3, r2
    1866:	e6a6      	b.n	15b6 <__aeabi_fadd+0x2e>
    1868:	2301      	movs	r3, #1
    186a:	e7a5      	b.n	17b8 <__aeabi_fadd+0x230>
    186c:	7dffffff 	.word	0x7dffffff
    1870:	fbffffff 	.word	0xfbffffff

00001874 <__aeabi_fdiv>:
    1874:	b5f0      	push	{r4, r5, r6, r7, lr}
    1876:	4656      	mov	r6, sl
    1878:	4644      	mov	r4, r8
    187a:	465f      	mov	r7, fp
    187c:	464d      	mov	r5, r9
    187e:	b4f0      	push	{r4, r5, r6, r7}
    1880:	0244      	lsls	r4, r0, #9
    1882:	0046      	lsls	r6, r0, #1
    1884:	0fc7      	lsrs	r7, r0, #31
    1886:	b083      	sub	sp, #12
    1888:	4688      	mov	r8, r1
    188a:	0a65      	lsrs	r5, r4, #9
    188c:	0e36      	lsrs	r6, r6, #24
    188e:	46ba      	mov	sl, r7
    1890:	d03d      	beq.n	190e <__aeabi_fdiv+0x9a>
    1892:	2eff      	cmp	r6, #255	; 0xff
    1894:	d022      	beq.n	18dc <__aeabi_fdiv+0x68>
    1896:	2300      	movs	r3, #0
    1898:	00ec      	lsls	r4, r5, #3
    189a:	2580      	movs	r5, #128	; 0x80
    189c:	4699      	mov	r9, r3
    189e:	469b      	mov	fp, r3
    18a0:	04ed      	lsls	r5, r5, #19
    18a2:	4325      	orrs	r5, r4
    18a4:	3e7f      	subs	r6, #127	; 0x7f
    18a6:	4643      	mov	r3, r8
    18a8:	025c      	lsls	r4, r3, #9
    18aa:	0058      	lsls	r0, r3, #1
    18ac:	0fdb      	lsrs	r3, r3, #31
    18ae:	0a64      	lsrs	r4, r4, #9
    18b0:	0e00      	lsrs	r0, r0, #24
    18b2:	4698      	mov	r8, r3
    18b4:	d036      	beq.n	1924 <__aeabi_fdiv+0xb0>
    18b6:	28ff      	cmp	r0, #255	; 0xff
    18b8:	d030      	beq.n	191c <__aeabi_fdiv+0xa8>
    18ba:	2380      	movs	r3, #128	; 0x80
    18bc:	2100      	movs	r1, #0
    18be:	00e4      	lsls	r4, r4, #3
    18c0:	04db      	lsls	r3, r3, #19
    18c2:	431c      	orrs	r4, r3
    18c4:	387f      	subs	r0, #127	; 0x7f
    18c6:	1a30      	subs	r0, r6, r0
    18c8:	9001      	str	r0, [sp, #4]
    18ca:	4648      	mov	r0, r9
    18cc:	4642      	mov	r2, r8
    18ce:	4308      	orrs	r0, r1
    18d0:	4e72      	ldr	r6, [pc, #456]	; (1a9c <__aeabi_fdiv+0x228>)
    18d2:	0080      	lsls	r0, r0, #2
    18d4:	5830      	ldr	r0, [r6, r0]
    18d6:	407a      	eors	r2, r7
    18d8:	0013      	movs	r3, r2
    18da:	4687      	mov	pc, r0
    18dc:	2d00      	cmp	r5, #0
    18de:	d144      	bne.n	196a <__aeabi_fdiv+0xf6>
    18e0:	2308      	movs	r3, #8
    18e2:	4699      	mov	r9, r3
    18e4:	3b06      	subs	r3, #6
    18e6:	469b      	mov	fp, r3
    18e8:	e7dd      	b.n	18a6 <__aeabi_fdiv+0x32>
    18ea:	2201      	movs	r2, #1
    18ec:	20ff      	movs	r0, #255	; 0xff
    18ee:	2400      	movs	r4, #0
    18f0:	401a      	ands	r2, r3
    18f2:	0264      	lsls	r4, r4, #9
    18f4:	05c3      	lsls	r3, r0, #23
    18f6:	0a64      	lsrs	r4, r4, #9
    18f8:	07d2      	lsls	r2, r2, #31
    18fa:	431c      	orrs	r4, r3
    18fc:	4314      	orrs	r4, r2
    18fe:	0020      	movs	r0, r4
    1900:	b003      	add	sp, #12
    1902:	bc3c      	pop	{r2, r3, r4, r5}
    1904:	4690      	mov	r8, r2
    1906:	4699      	mov	r9, r3
    1908:	46a2      	mov	sl, r4
    190a:	46ab      	mov	fp, r5
    190c:	bdf0      	pop	{r4, r5, r6, r7, pc}
    190e:	2d00      	cmp	r5, #0
    1910:	d120      	bne.n	1954 <__aeabi_fdiv+0xe0>
    1912:	2304      	movs	r3, #4
    1914:	4699      	mov	r9, r3
    1916:	3b03      	subs	r3, #3
    1918:	469b      	mov	fp, r3
    191a:	e7c4      	b.n	18a6 <__aeabi_fdiv+0x32>
    191c:	2c00      	cmp	r4, #0
    191e:	d117      	bne.n	1950 <__aeabi_fdiv+0xdc>
    1920:	2102      	movs	r1, #2
    1922:	e002      	b.n	192a <__aeabi_fdiv+0xb6>
    1924:	2c00      	cmp	r4, #0
    1926:	d10a      	bne.n	193e <__aeabi_fdiv+0xca>
    1928:	2101      	movs	r1, #1
    192a:	1a32      	subs	r2, r6, r0
    192c:	9201      	str	r2, [sp, #4]
    192e:	464a      	mov	r2, r9
    1930:	4643      	mov	r3, r8
    1932:	430a      	orrs	r2, r1
    1934:	485a      	ldr	r0, [pc, #360]	; (1aa0 <__aeabi_fdiv+0x22c>)
    1936:	0092      	lsls	r2, r2, #2
    1938:	5882      	ldr	r2, [r0, r2]
    193a:	407b      	eors	r3, r7
    193c:	4697      	mov	pc, r2
    193e:	0020      	movs	r0, r4
    1940:	f001 f93e 	bl	2bc0 <__clzsi2>
    1944:	1f43      	subs	r3, r0, #5
    1946:	3076      	adds	r0, #118	; 0x76
    1948:	409c      	lsls	r4, r3
    194a:	4240      	negs	r0, r0
    194c:	2100      	movs	r1, #0
    194e:	e7ba      	b.n	18c6 <__aeabi_fdiv+0x52>
    1950:	2103      	movs	r1, #3
    1952:	e7b8      	b.n	18c6 <__aeabi_fdiv+0x52>
    1954:	0028      	movs	r0, r5
    1956:	f001 f933 	bl	2bc0 <__clzsi2>
    195a:	1f43      	subs	r3, r0, #5
    195c:	409d      	lsls	r5, r3
    195e:	2300      	movs	r3, #0
    1960:	3076      	adds	r0, #118	; 0x76
    1962:	4246      	negs	r6, r0
    1964:	4699      	mov	r9, r3
    1966:	469b      	mov	fp, r3
    1968:	e79d      	b.n	18a6 <__aeabi_fdiv+0x32>
    196a:	230c      	movs	r3, #12
    196c:	4699      	mov	r9, r3
    196e:	3b09      	subs	r3, #9
    1970:	469b      	mov	fp, r3
    1972:	e798      	b.n	18a6 <__aeabi_fdiv+0x32>
    1974:	2480      	movs	r4, #128	; 0x80
    1976:	2200      	movs	r2, #0
    1978:	03e4      	lsls	r4, r4, #15
    197a:	20ff      	movs	r0, #255	; 0xff
    197c:	e7b9      	b.n	18f2 <__aeabi_fdiv+0x7e>
    197e:	2400      	movs	r4, #0
    1980:	46c2      	mov	sl, r8
    1982:	468b      	mov	fp, r1
    1984:	465a      	mov	r2, fp
    1986:	4653      	mov	r3, sl
    1988:	2a02      	cmp	r2, #2
    198a:	d0ae      	beq.n	18ea <__aeabi_fdiv+0x76>
    198c:	2a03      	cmp	r2, #3
    198e:	d07d      	beq.n	1a8c <__aeabi_fdiv+0x218>
    1990:	2a01      	cmp	r2, #1
    1992:	d131      	bne.n	19f8 <__aeabi_fdiv+0x184>
    1994:	2201      	movs	r2, #1
    1996:	2000      	movs	r0, #0
    1998:	401a      	ands	r2, r3
    199a:	2400      	movs	r4, #0
    199c:	e7a9      	b.n	18f2 <__aeabi_fdiv+0x7e>
    199e:	2201      	movs	r2, #1
    19a0:	1a10      	subs	r0, r2, r0
    19a2:	281b      	cmp	r0, #27
    19a4:	dd56      	ble.n	1a54 <__aeabi_fdiv+0x1e0>
    19a6:	401a      	ands	r2, r3
    19a8:	2000      	movs	r0, #0
    19aa:	2400      	movs	r4, #0
    19ac:	e7a1      	b.n	18f2 <__aeabi_fdiv+0x7e>
    19ae:	2380      	movs	r3, #128	; 0x80
    19b0:	03db      	lsls	r3, r3, #15
    19b2:	421d      	tst	r5, r3
    19b4:	d14b      	bne.n	1a4e <__aeabi_fdiv+0x1da>
    19b6:	2380      	movs	r3, #128	; 0x80
    19b8:	03db      	lsls	r3, r3, #15
    19ba:	432b      	orrs	r3, r5
    19bc:	025c      	lsls	r4, r3, #9
    19be:	0a64      	lsrs	r4, r4, #9
    19c0:	003a      	movs	r2, r7
    19c2:	20ff      	movs	r0, #255	; 0xff
    19c4:	e795      	b.n	18f2 <__aeabi_fdiv+0x7e>
    19c6:	016d      	lsls	r5, r5, #5
    19c8:	0160      	lsls	r0, r4, #5
    19ca:	4285      	cmp	r5, r0
    19cc:	d230      	bcs.n	1a30 <__aeabi_fdiv+0x1bc>
    19ce:	9a01      	ldr	r2, [sp, #4]
    19d0:	2400      	movs	r4, #0
    19d2:	3a01      	subs	r2, #1
    19d4:	9201      	str	r2, [sp, #4]
    19d6:	221b      	movs	r2, #27
    19d8:	2701      	movs	r7, #1
    19da:	0029      	movs	r1, r5
    19dc:	0064      	lsls	r4, r4, #1
    19de:	006d      	lsls	r5, r5, #1
    19e0:	2900      	cmp	r1, #0
    19e2:	db01      	blt.n	19e8 <__aeabi_fdiv+0x174>
    19e4:	42a8      	cmp	r0, r5
    19e6:	d801      	bhi.n	19ec <__aeabi_fdiv+0x178>
    19e8:	1a2d      	subs	r5, r5, r0
    19ea:	433c      	orrs	r4, r7
    19ec:	3a01      	subs	r2, #1
    19ee:	2a00      	cmp	r2, #0
    19f0:	d1f3      	bne.n	19da <__aeabi_fdiv+0x166>
    19f2:	1e6a      	subs	r2, r5, #1
    19f4:	4195      	sbcs	r5, r2
    19f6:	432c      	orrs	r4, r5
    19f8:	9801      	ldr	r0, [sp, #4]
    19fa:	307f      	adds	r0, #127	; 0x7f
    19fc:	2800      	cmp	r0, #0
    19fe:	ddce      	ble.n	199e <__aeabi_fdiv+0x12a>
    1a00:	0762      	lsls	r2, r4, #29
    1a02:	d004      	beq.n	1a0e <__aeabi_fdiv+0x19a>
    1a04:	220f      	movs	r2, #15
    1a06:	4022      	ands	r2, r4
    1a08:	2a04      	cmp	r2, #4
    1a0a:	d000      	beq.n	1a0e <__aeabi_fdiv+0x19a>
    1a0c:	3404      	adds	r4, #4
    1a0e:	0122      	lsls	r2, r4, #4
    1a10:	d503      	bpl.n	1a1a <__aeabi_fdiv+0x1a6>
    1a12:	4a24      	ldr	r2, [pc, #144]	; (1aa4 <__aeabi_fdiv+0x230>)
    1a14:	9801      	ldr	r0, [sp, #4]
    1a16:	4014      	ands	r4, r2
    1a18:	3080      	adds	r0, #128	; 0x80
    1a1a:	28fe      	cmp	r0, #254	; 0xfe
    1a1c:	dd00      	ble.n	1a20 <__aeabi_fdiv+0x1ac>
    1a1e:	e764      	b.n	18ea <__aeabi_fdiv+0x76>
    1a20:	2201      	movs	r2, #1
    1a22:	01a4      	lsls	r4, r4, #6
    1a24:	0a64      	lsrs	r4, r4, #9
    1a26:	b2c0      	uxtb	r0, r0
    1a28:	401a      	ands	r2, r3
    1a2a:	e762      	b.n	18f2 <__aeabi_fdiv+0x7e>
    1a2c:	002c      	movs	r4, r5
    1a2e:	e7a9      	b.n	1984 <__aeabi_fdiv+0x110>
    1a30:	1a2d      	subs	r5, r5, r0
    1a32:	221a      	movs	r2, #26
    1a34:	2401      	movs	r4, #1
    1a36:	e7cf      	b.n	19d8 <__aeabi_fdiv+0x164>
    1a38:	026b      	lsls	r3, r5, #9
    1a3a:	d5bc      	bpl.n	19b6 <__aeabi_fdiv+0x142>
    1a3c:	2400      	movs	r4, #0
    1a3e:	2380      	movs	r3, #128	; 0x80
    1a40:	03db      	lsls	r3, r3, #15
    1a42:	431c      	orrs	r4, r3
    1a44:	0264      	lsls	r4, r4, #9
    1a46:	0a64      	lsrs	r4, r4, #9
    1a48:	4642      	mov	r2, r8
    1a4a:	20ff      	movs	r0, #255	; 0xff
    1a4c:	e751      	b.n	18f2 <__aeabi_fdiv+0x7e>
    1a4e:	421c      	tst	r4, r3
    1a50:	d1b3      	bne.n	19ba <__aeabi_fdiv+0x146>
    1a52:	e7f4      	b.n	1a3e <__aeabi_fdiv+0x1ca>
    1a54:	0021      	movs	r1, r4
    1a56:	2220      	movs	r2, #32
    1a58:	40c1      	lsrs	r1, r0
    1a5a:	1a10      	subs	r0, r2, r0
    1a5c:	4084      	lsls	r4, r0
    1a5e:	1e62      	subs	r2, r4, #1
    1a60:	4194      	sbcs	r4, r2
    1a62:	430c      	orrs	r4, r1
    1a64:	0762      	lsls	r2, r4, #29
    1a66:	d004      	beq.n	1a72 <__aeabi_fdiv+0x1fe>
    1a68:	220f      	movs	r2, #15
    1a6a:	4022      	ands	r2, r4
    1a6c:	2a04      	cmp	r2, #4
    1a6e:	d000      	beq.n	1a72 <__aeabi_fdiv+0x1fe>
    1a70:	3404      	adds	r4, #4
    1a72:	0162      	lsls	r2, r4, #5
    1a74:	d504      	bpl.n	1a80 <__aeabi_fdiv+0x20c>
    1a76:	2201      	movs	r2, #1
    1a78:	2001      	movs	r0, #1
    1a7a:	401a      	ands	r2, r3
    1a7c:	2400      	movs	r4, #0
    1a7e:	e738      	b.n	18f2 <__aeabi_fdiv+0x7e>
    1a80:	2201      	movs	r2, #1
    1a82:	01a4      	lsls	r4, r4, #6
    1a84:	0a64      	lsrs	r4, r4, #9
    1a86:	401a      	ands	r2, r3
    1a88:	2000      	movs	r0, #0
    1a8a:	e732      	b.n	18f2 <__aeabi_fdiv+0x7e>
    1a8c:	2380      	movs	r3, #128	; 0x80
    1a8e:	03db      	lsls	r3, r3, #15
    1a90:	431c      	orrs	r4, r3
    1a92:	0264      	lsls	r4, r4, #9
    1a94:	0a64      	lsrs	r4, r4, #9
    1a96:	4652      	mov	r2, sl
    1a98:	20ff      	movs	r0, #255	; 0xff
    1a9a:	e72a      	b.n	18f2 <__aeabi_fdiv+0x7e>
    1a9c:	00002f6c 	.word	0x00002f6c
    1aa0:	00002fac 	.word	0x00002fac
    1aa4:	f7ffffff 	.word	0xf7ffffff

00001aa8 <__aeabi_fsub>:
    1aa8:	b5f8      	push	{r3, r4, r5, r6, r7, lr}
    1aaa:	024a      	lsls	r2, r1, #9
    1aac:	004e      	lsls	r6, r1, #1
    1aae:	0243      	lsls	r3, r0, #9
    1ab0:	0044      	lsls	r4, r0, #1
    1ab2:	0e24      	lsrs	r4, r4, #24
    1ab4:	0fc5      	lsrs	r5, r0, #31
    1ab6:	099b      	lsrs	r3, r3, #6
    1ab8:	0e36      	lsrs	r6, r6, #24
    1aba:	0fc9      	lsrs	r1, r1, #31
    1abc:	0992      	lsrs	r2, r2, #6
    1abe:	2eff      	cmp	r6, #255	; 0xff
    1ac0:	d100      	bne.n	1ac4 <__aeabi_fsub+0x1c>
    1ac2:	e083      	b.n	1bcc <__aeabi_fsub+0x124>
    1ac4:	2001      	movs	r0, #1
    1ac6:	4041      	eors	r1, r0
    1ac8:	1ba0      	subs	r0, r4, r6
    1aca:	42a9      	cmp	r1, r5
    1acc:	d05c      	beq.n	1b88 <__aeabi_fsub+0xe0>
    1ace:	2800      	cmp	r0, #0
    1ad0:	dc00      	bgt.n	1ad4 <__aeabi_fsub+0x2c>
    1ad2:	e095      	b.n	1c00 <__aeabi_fsub+0x158>
    1ad4:	2e00      	cmp	r6, #0
    1ad6:	d11c      	bne.n	1b12 <__aeabi_fsub+0x6a>
    1ad8:	2a00      	cmp	r2, #0
    1ada:	d000      	beq.n	1ade <__aeabi_fsub+0x36>
    1adc:	e081      	b.n	1be2 <__aeabi_fsub+0x13a>
    1ade:	075a      	lsls	r2, r3, #29
    1ae0:	d004      	beq.n	1aec <__aeabi_fsub+0x44>
    1ae2:	220f      	movs	r2, #15
    1ae4:	401a      	ands	r2, r3
    1ae6:	2a04      	cmp	r2, #4
    1ae8:	d000      	beq.n	1aec <__aeabi_fsub+0x44>
    1aea:	3304      	adds	r3, #4
    1aec:	015a      	lsls	r2, r3, #5
    1aee:	d53b      	bpl.n	1b68 <__aeabi_fsub+0xc0>
    1af0:	3401      	adds	r4, #1
    1af2:	2cff      	cmp	r4, #255	; 0xff
    1af4:	d100      	bne.n	1af8 <__aeabi_fsub+0x50>
    1af6:	e091      	b.n	1c1c <__aeabi_fsub+0x174>
    1af8:	2001      	movs	r0, #1
    1afa:	019b      	lsls	r3, r3, #6
    1afc:	0a5b      	lsrs	r3, r3, #9
    1afe:	b2e4      	uxtb	r4, r4
    1b00:	4005      	ands	r5, r0
    1b02:	025b      	lsls	r3, r3, #9
    1b04:	05e4      	lsls	r4, r4, #23
    1b06:	0a5b      	lsrs	r3, r3, #9
    1b08:	07ed      	lsls	r5, r5, #31
    1b0a:	4323      	orrs	r3, r4
    1b0c:	432b      	orrs	r3, r5
    1b0e:	0018      	movs	r0, r3
    1b10:	bdf8      	pop	{r3, r4, r5, r6, r7, pc}
    1b12:	2cff      	cmp	r4, #255	; 0xff
    1b14:	d0e3      	beq.n	1ade <__aeabi_fsub+0x36>
    1b16:	2180      	movs	r1, #128	; 0x80
    1b18:	04c9      	lsls	r1, r1, #19
    1b1a:	430a      	orrs	r2, r1
    1b1c:	281b      	cmp	r0, #27
    1b1e:	dd00      	ble.n	1b22 <__aeabi_fsub+0x7a>
    1b20:	e090      	b.n	1c44 <__aeabi_fsub+0x19c>
    1b22:	0016      	movs	r6, r2
    1b24:	2120      	movs	r1, #32
    1b26:	40c6      	lsrs	r6, r0
    1b28:	1a08      	subs	r0, r1, r0
    1b2a:	4082      	lsls	r2, r0
    1b2c:	1e51      	subs	r1, r2, #1
    1b2e:	418a      	sbcs	r2, r1
    1b30:	4332      	orrs	r2, r6
    1b32:	1a9b      	subs	r3, r3, r2
    1b34:	015a      	lsls	r2, r3, #5
    1b36:	d515      	bpl.n	1b64 <__aeabi_fsub+0xbc>
    1b38:	019b      	lsls	r3, r3, #6
    1b3a:	099e      	lsrs	r6, r3, #6
    1b3c:	0030      	movs	r0, r6
    1b3e:	f001 f83f 	bl	2bc0 <__clzsi2>
    1b42:	3805      	subs	r0, #5
    1b44:	4086      	lsls	r6, r0
    1b46:	4284      	cmp	r4, r0
    1b48:	dc6c      	bgt.n	1c24 <__aeabi_fsub+0x17c>
    1b4a:	1b04      	subs	r4, r0, r4
    1b4c:	0033      	movs	r3, r6
    1b4e:	2020      	movs	r0, #32
    1b50:	3401      	adds	r4, #1
    1b52:	40e3      	lsrs	r3, r4
    1b54:	1b04      	subs	r4, r0, r4
    1b56:	40a6      	lsls	r6, r4
    1b58:	1e72      	subs	r2, r6, #1
    1b5a:	4196      	sbcs	r6, r2
    1b5c:	2400      	movs	r4, #0
    1b5e:	4333      	orrs	r3, r6
    1b60:	e7bd      	b.n	1ade <__aeabi_fsub+0x36>
    1b62:	000d      	movs	r5, r1
    1b64:	075a      	lsls	r2, r3, #29
    1b66:	d1bc      	bne.n	1ae2 <__aeabi_fsub+0x3a>
    1b68:	08df      	lsrs	r7, r3, #3
    1b6a:	2301      	movs	r3, #1
    1b6c:	401d      	ands	r5, r3
    1b6e:	2cff      	cmp	r4, #255	; 0xff
    1b70:	d133      	bne.n	1bda <__aeabi_fsub+0x132>
    1b72:	2f00      	cmp	r7, #0
    1b74:	d100      	bne.n	1b78 <__aeabi_fsub+0xd0>
    1b76:	e090      	b.n	1c9a <__aeabi_fsub+0x1f2>
    1b78:	2280      	movs	r2, #128	; 0x80
    1b7a:	03d2      	lsls	r2, r2, #15
    1b7c:	0013      	movs	r3, r2
    1b7e:	433b      	orrs	r3, r7
    1b80:	025b      	lsls	r3, r3, #9
    1b82:	0a5b      	lsrs	r3, r3, #9
    1b84:	24ff      	movs	r4, #255	; 0xff
    1b86:	e7bc      	b.n	1b02 <__aeabi_fsub+0x5a>
    1b88:	2800      	cmp	r0, #0
    1b8a:	dd4f      	ble.n	1c2c <__aeabi_fsub+0x184>
    1b8c:	2e00      	cmp	r6, #0
    1b8e:	d02e      	beq.n	1bee <__aeabi_fsub+0x146>
    1b90:	2cff      	cmp	r4, #255	; 0xff
    1b92:	d0a4      	beq.n	1ade <__aeabi_fsub+0x36>
    1b94:	2580      	movs	r5, #128	; 0x80
    1b96:	04ed      	lsls	r5, r5, #19
    1b98:	432a      	orrs	r2, r5
    1b9a:	281b      	cmp	r0, #27
    1b9c:	dd00      	ble.n	1ba0 <__aeabi_fsub+0xf8>
    1b9e:	e097      	b.n	1cd0 <__aeabi_fsub+0x228>
    1ba0:	0016      	movs	r6, r2
    1ba2:	2520      	movs	r5, #32
    1ba4:	40c6      	lsrs	r6, r0
    1ba6:	1a28      	subs	r0, r5, r0
    1ba8:	4082      	lsls	r2, r0
    1baa:	1e50      	subs	r0, r2, #1
    1bac:	4182      	sbcs	r2, r0
    1bae:	4332      	orrs	r2, r6
    1bb0:	189b      	adds	r3, r3, r2
    1bb2:	015a      	lsls	r2, r3, #5
    1bb4:	d5d5      	bpl.n	1b62 <__aeabi_fsub+0xba>
    1bb6:	3401      	adds	r4, #1
    1bb8:	2cff      	cmp	r4, #255	; 0xff
    1bba:	d06d      	beq.n	1c98 <__aeabi_fsub+0x1f0>
    1bbc:	2201      	movs	r2, #1
    1bbe:	487b      	ldr	r0, [pc, #492]	; (1dac <__aeabi_fsub+0x304>)
    1bc0:	401a      	ands	r2, r3
    1bc2:	085b      	lsrs	r3, r3, #1
    1bc4:	4003      	ands	r3, r0
    1bc6:	4313      	orrs	r3, r2
    1bc8:	000d      	movs	r5, r1
    1bca:	e788      	b.n	1ade <__aeabi_fsub+0x36>
    1bcc:	2a00      	cmp	r2, #0
    1bce:	d000      	beq.n	1bd2 <__aeabi_fsub+0x12a>
    1bd0:	e77a      	b.n	1ac8 <__aeabi_fsub+0x20>
    1bd2:	e777      	b.n	1ac4 <__aeabi_fsub+0x1c>
    1bd4:	1e03      	subs	r3, r0, #0
    1bd6:	d1c5      	bne.n	1b64 <__aeabi_fsub+0xbc>
    1bd8:	2500      	movs	r5, #0
    1bda:	027b      	lsls	r3, r7, #9
    1bdc:	0a5b      	lsrs	r3, r3, #9
    1bde:	b2e4      	uxtb	r4, r4
    1be0:	e78f      	b.n	1b02 <__aeabi_fsub+0x5a>
    1be2:	3801      	subs	r0, #1
    1be4:	2800      	cmp	r0, #0
    1be6:	d0a4      	beq.n	1b32 <__aeabi_fsub+0x8a>
    1be8:	2cff      	cmp	r4, #255	; 0xff
    1bea:	d197      	bne.n	1b1c <__aeabi_fsub+0x74>
    1bec:	e777      	b.n	1ade <__aeabi_fsub+0x36>
    1bee:	2a00      	cmp	r2, #0
    1bf0:	d100      	bne.n	1bf4 <__aeabi_fsub+0x14c>
    1bf2:	e774      	b.n	1ade <__aeabi_fsub+0x36>
    1bf4:	3801      	subs	r0, #1
    1bf6:	2800      	cmp	r0, #0
    1bf8:	d0da      	beq.n	1bb0 <__aeabi_fsub+0x108>
    1bfa:	2cff      	cmp	r4, #255	; 0xff
    1bfc:	d1cd      	bne.n	1b9a <__aeabi_fsub+0xf2>
    1bfe:	e76e      	b.n	1ade <__aeabi_fsub+0x36>
    1c00:	2800      	cmp	r0, #0
    1c02:	d121      	bne.n	1c48 <__aeabi_fsub+0x1a0>
    1c04:	1c60      	adds	r0, r4, #1
    1c06:	b2c0      	uxtb	r0, r0
    1c08:	2801      	cmp	r0, #1
    1c0a:	dd58      	ble.n	1cbe <__aeabi_fsub+0x216>
    1c0c:	2780      	movs	r7, #128	; 0x80
    1c0e:	1a9e      	subs	r6, r3, r2
    1c10:	04ff      	lsls	r7, r7, #19
    1c12:	4037      	ands	r7, r6
    1c14:	d02f      	beq.n	1c76 <__aeabi_fsub+0x1ce>
    1c16:	1ad6      	subs	r6, r2, r3
    1c18:	000d      	movs	r5, r1
    1c1a:	e78f      	b.n	1b3c <__aeabi_fsub+0x94>
    1c1c:	2301      	movs	r3, #1
    1c1e:	401d      	ands	r5, r3
    1c20:	2300      	movs	r3, #0
    1c22:	e76e      	b.n	1b02 <__aeabi_fsub+0x5a>
    1c24:	4b62      	ldr	r3, [pc, #392]	; (1db0 <__aeabi_fsub+0x308>)
    1c26:	1a24      	subs	r4, r4, r0
    1c28:	4033      	ands	r3, r6
    1c2a:	e758      	b.n	1ade <__aeabi_fsub+0x36>
    1c2c:	2800      	cmp	r0, #0
    1c2e:	d151      	bne.n	1cd4 <__aeabi_fsub+0x22c>
    1c30:	1c60      	adds	r0, r4, #1
    1c32:	b2c6      	uxtb	r6, r0
    1c34:	2e01      	cmp	r6, #1
    1c36:	dd33      	ble.n	1ca0 <__aeabi_fsub+0x1f8>
    1c38:	28ff      	cmp	r0, #255	; 0xff
    1c3a:	d02d      	beq.n	1c98 <__aeabi_fsub+0x1f0>
    1c3c:	189b      	adds	r3, r3, r2
    1c3e:	085b      	lsrs	r3, r3, #1
    1c40:	0004      	movs	r4, r0
    1c42:	e74c      	b.n	1ade <__aeabi_fsub+0x36>
    1c44:	2201      	movs	r2, #1
    1c46:	e774      	b.n	1b32 <__aeabi_fsub+0x8a>
    1c48:	2c00      	cmp	r4, #0
    1c4a:	d01a      	beq.n	1c82 <__aeabi_fsub+0x1da>
    1c4c:	2eff      	cmp	r6, #255	; 0xff
    1c4e:	d01f      	beq.n	1c90 <__aeabi_fsub+0x1e8>
    1c50:	2480      	movs	r4, #128	; 0x80
    1c52:	04e4      	lsls	r4, r4, #19
    1c54:	4240      	negs	r0, r0
    1c56:	4323      	orrs	r3, r4
    1c58:	281b      	cmp	r0, #27
    1c5a:	dd00      	ble.n	1c5e <__aeabi_fsub+0x1b6>
    1c5c:	e096      	b.n	1d8c <__aeabi_fsub+0x2e4>
    1c5e:	001d      	movs	r5, r3
    1c60:	2420      	movs	r4, #32
    1c62:	40c5      	lsrs	r5, r0
    1c64:	1a20      	subs	r0, r4, r0
    1c66:	4083      	lsls	r3, r0
    1c68:	1e58      	subs	r0, r3, #1
    1c6a:	4183      	sbcs	r3, r0
    1c6c:	432b      	orrs	r3, r5
    1c6e:	1ad3      	subs	r3, r2, r3
    1c70:	0034      	movs	r4, r6
    1c72:	000d      	movs	r5, r1
    1c74:	e75e      	b.n	1b34 <__aeabi_fsub+0x8c>
    1c76:	2e00      	cmp	r6, #0
    1c78:	d000      	beq.n	1c7c <__aeabi_fsub+0x1d4>
    1c7a:	e75f      	b.n	1b3c <__aeabi_fsub+0x94>
    1c7c:	2500      	movs	r5, #0
    1c7e:	2400      	movs	r4, #0
    1c80:	e7ab      	b.n	1bda <__aeabi_fsub+0x132>
    1c82:	2b00      	cmp	r3, #0
    1c84:	d044      	beq.n	1d10 <__aeabi_fsub+0x268>
    1c86:	43c0      	mvns	r0, r0
    1c88:	2800      	cmp	r0, #0
    1c8a:	d0f0      	beq.n	1c6e <__aeabi_fsub+0x1c6>
    1c8c:	2eff      	cmp	r6, #255	; 0xff
    1c8e:	d1e3      	bne.n	1c58 <__aeabi_fsub+0x1b0>
    1c90:	0013      	movs	r3, r2
    1c92:	24ff      	movs	r4, #255	; 0xff
    1c94:	000d      	movs	r5, r1
    1c96:	e722      	b.n	1ade <__aeabi_fsub+0x36>
    1c98:	000d      	movs	r5, r1
    1c9a:	24ff      	movs	r4, #255	; 0xff
    1c9c:	2300      	movs	r3, #0
    1c9e:	e730      	b.n	1b02 <__aeabi_fsub+0x5a>
    1ca0:	2c00      	cmp	r4, #0
    1ca2:	d15d      	bne.n	1d60 <__aeabi_fsub+0x2b8>
    1ca4:	2b00      	cmp	r3, #0
    1ca6:	d07d      	beq.n	1da4 <__aeabi_fsub+0x2fc>
    1ca8:	2a00      	cmp	r2, #0
    1caa:	d100      	bne.n	1cae <__aeabi_fsub+0x206>
    1cac:	e717      	b.n	1ade <__aeabi_fsub+0x36>
    1cae:	189b      	adds	r3, r3, r2
    1cb0:	015a      	lsls	r2, r3, #5
    1cb2:	d400      	bmi.n	1cb6 <__aeabi_fsub+0x20e>
    1cb4:	e756      	b.n	1b64 <__aeabi_fsub+0xbc>
    1cb6:	4a3e      	ldr	r2, [pc, #248]	; (1db0 <__aeabi_fsub+0x308>)
    1cb8:	0004      	movs	r4, r0
    1cba:	4013      	ands	r3, r2
    1cbc:	e70f      	b.n	1ade <__aeabi_fsub+0x36>
    1cbe:	2c00      	cmp	r4, #0
    1cc0:	d11e      	bne.n	1d00 <__aeabi_fsub+0x258>
    1cc2:	2b00      	cmp	r3, #0
    1cc4:	d12f      	bne.n	1d26 <__aeabi_fsub+0x27e>
    1cc6:	2a00      	cmp	r2, #0
    1cc8:	d065      	beq.n	1d96 <__aeabi_fsub+0x2ee>
    1cca:	0013      	movs	r3, r2
    1ccc:	000d      	movs	r5, r1
    1cce:	e706      	b.n	1ade <__aeabi_fsub+0x36>
    1cd0:	2201      	movs	r2, #1
    1cd2:	e76d      	b.n	1bb0 <__aeabi_fsub+0x108>
    1cd4:	2c00      	cmp	r4, #0
    1cd6:	d11f      	bne.n	1d18 <__aeabi_fsub+0x270>
    1cd8:	2b00      	cmp	r3, #0
    1cda:	d059      	beq.n	1d90 <__aeabi_fsub+0x2e8>
    1cdc:	43c0      	mvns	r0, r0
    1cde:	2800      	cmp	r0, #0
    1ce0:	d00b      	beq.n	1cfa <__aeabi_fsub+0x252>
    1ce2:	2eff      	cmp	r6, #255	; 0xff
    1ce4:	d04f      	beq.n	1d86 <__aeabi_fsub+0x2de>
    1ce6:	281b      	cmp	r0, #27
    1ce8:	dc5e      	bgt.n	1da8 <__aeabi_fsub+0x300>
    1cea:	001d      	movs	r5, r3
    1cec:	2420      	movs	r4, #32
    1cee:	40c5      	lsrs	r5, r0
    1cf0:	1a20      	subs	r0, r4, r0
    1cf2:	4083      	lsls	r3, r0
    1cf4:	1e58      	subs	r0, r3, #1
    1cf6:	4183      	sbcs	r3, r0
    1cf8:	432b      	orrs	r3, r5
    1cfa:	189b      	adds	r3, r3, r2
    1cfc:	0034      	movs	r4, r6
    1cfe:	e758      	b.n	1bb2 <__aeabi_fsub+0x10a>
    1d00:	2b00      	cmp	r3, #0
    1d02:	d11c      	bne.n	1d3e <__aeabi_fsub+0x296>
    1d04:	2a00      	cmp	r2, #0
    1d06:	d049      	beq.n	1d9c <__aeabi_fsub+0x2f4>
    1d08:	0013      	movs	r3, r2
    1d0a:	000d      	movs	r5, r1
    1d0c:	24ff      	movs	r4, #255	; 0xff
    1d0e:	e6e6      	b.n	1ade <__aeabi_fsub+0x36>
    1d10:	0013      	movs	r3, r2
    1d12:	0034      	movs	r4, r6
    1d14:	000d      	movs	r5, r1
    1d16:	e6e2      	b.n	1ade <__aeabi_fsub+0x36>
    1d18:	2eff      	cmp	r6, #255	; 0xff
    1d1a:	d034      	beq.n	1d86 <__aeabi_fsub+0x2de>
    1d1c:	2480      	movs	r4, #128	; 0x80
    1d1e:	04e4      	lsls	r4, r4, #19
    1d20:	4240      	negs	r0, r0
    1d22:	4323      	orrs	r3, r4
    1d24:	e7df      	b.n	1ce6 <__aeabi_fsub+0x23e>
    1d26:	2a00      	cmp	r2, #0
    1d28:	d100      	bne.n	1d2c <__aeabi_fsub+0x284>
    1d2a:	e6d8      	b.n	1ade <__aeabi_fsub+0x36>
    1d2c:	2780      	movs	r7, #128	; 0x80
    1d2e:	1a98      	subs	r0, r3, r2
    1d30:	04ff      	lsls	r7, r7, #19
    1d32:	4007      	ands	r7, r0
    1d34:	d100      	bne.n	1d38 <__aeabi_fsub+0x290>
    1d36:	e74d      	b.n	1bd4 <__aeabi_fsub+0x12c>
    1d38:	1ad3      	subs	r3, r2, r3
    1d3a:	000d      	movs	r5, r1
    1d3c:	e6cf      	b.n	1ade <__aeabi_fsub+0x36>
    1d3e:	24ff      	movs	r4, #255	; 0xff
    1d40:	2a00      	cmp	r2, #0
    1d42:	d100      	bne.n	1d46 <__aeabi_fsub+0x29e>
    1d44:	e6cb      	b.n	1ade <__aeabi_fsub+0x36>
    1d46:	2080      	movs	r0, #128	; 0x80
    1d48:	08db      	lsrs	r3, r3, #3
    1d4a:	03c0      	lsls	r0, r0, #15
    1d4c:	4203      	tst	r3, r0
    1d4e:	d004      	beq.n	1d5a <__aeabi_fsub+0x2b2>
    1d50:	08d2      	lsrs	r2, r2, #3
    1d52:	4202      	tst	r2, r0
    1d54:	d101      	bne.n	1d5a <__aeabi_fsub+0x2b2>
    1d56:	0013      	movs	r3, r2
    1d58:	000d      	movs	r5, r1
    1d5a:	00db      	lsls	r3, r3, #3
    1d5c:	24ff      	movs	r4, #255	; 0xff
    1d5e:	e6be      	b.n	1ade <__aeabi_fsub+0x36>
    1d60:	2b00      	cmp	r3, #0
    1d62:	d010      	beq.n	1d86 <__aeabi_fsub+0x2de>
    1d64:	24ff      	movs	r4, #255	; 0xff
    1d66:	2a00      	cmp	r2, #0
    1d68:	d100      	bne.n	1d6c <__aeabi_fsub+0x2c4>
    1d6a:	e6b8      	b.n	1ade <__aeabi_fsub+0x36>
    1d6c:	2080      	movs	r0, #128	; 0x80
    1d6e:	08db      	lsrs	r3, r3, #3
    1d70:	03c0      	lsls	r0, r0, #15
    1d72:	4203      	tst	r3, r0
    1d74:	d003      	beq.n	1d7e <__aeabi_fsub+0x2d6>
    1d76:	08d2      	lsrs	r2, r2, #3
    1d78:	4202      	tst	r2, r0
    1d7a:	d100      	bne.n	1d7e <__aeabi_fsub+0x2d6>
    1d7c:	0013      	movs	r3, r2
    1d7e:	00db      	lsls	r3, r3, #3
    1d80:	000d      	movs	r5, r1
    1d82:	24ff      	movs	r4, #255	; 0xff
    1d84:	e6ab      	b.n	1ade <__aeabi_fsub+0x36>
    1d86:	0013      	movs	r3, r2
    1d88:	24ff      	movs	r4, #255	; 0xff
    1d8a:	e6a8      	b.n	1ade <__aeabi_fsub+0x36>
    1d8c:	2301      	movs	r3, #1
    1d8e:	e76e      	b.n	1c6e <__aeabi_fsub+0x1c6>
    1d90:	0013      	movs	r3, r2
    1d92:	0034      	movs	r4, r6
    1d94:	e6a3      	b.n	1ade <__aeabi_fsub+0x36>
    1d96:	2700      	movs	r7, #0
    1d98:	2500      	movs	r5, #0
    1d9a:	e71e      	b.n	1bda <__aeabi_fsub+0x132>
    1d9c:	2780      	movs	r7, #128	; 0x80
    1d9e:	2500      	movs	r5, #0
    1da0:	03ff      	lsls	r7, r7, #15
    1da2:	e6e9      	b.n	1b78 <__aeabi_fsub+0xd0>
    1da4:	0013      	movs	r3, r2
    1da6:	e69a      	b.n	1ade <__aeabi_fsub+0x36>
    1da8:	2301      	movs	r3, #1
    1daa:	e7a6      	b.n	1cfa <__aeabi_fsub+0x252>
    1dac:	7dffffff 	.word	0x7dffffff
    1db0:	fbffffff 	.word	0xfbffffff

00001db4 <__aeabi_ui2f>:
    1db4:	b570      	push	{r4, r5, r6, lr}
    1db6:	1e04      	subs	r4, r0, #0
    1db8:	d028      	beq.n	1e0c <__aeabi_ui2f+0x58>
    1dba:	f000 ff01 	bl	2bc0 <__clzsi2>
    1dbe:	239e      	movs	r3, #158	; 0x9e
    1dc0:	1a1b      	subs	r3, r3, r0
    1dc2:	2b96      	cmp	r3, #150	; 0x96
    1dc4:	dc0a      	bgt.n	1ddc <__aeabi_ui2f+0x28>
    1dc6:	2296      	movs	r2, #150	; 0x96
    1dc8:	1ad2      	subs	r2, r2, r3
    1dca:	4094      	lsls	r4, r2
    1dcc:	0262      	lsls	r2, r4, #9
    1dce:	0a52      	lsrs	r2, r2, #9
    1dd0:	b2d8      	uxtb	r0, r3
    1dd2:	0252      	lsls	r2, r2, #9
    1dd4:	0a52      	lsrs	r2, r2, #9
    1dd6:	05c0      	lsls	r0, r0, #23
    1dd8:	4310      	orrs	r0, r2
    1dda:	bd70      	pop	{r4, r5, r6, pc}
    1ddc:	2b99      	cmp	r3, #153	; 0x99
    1dde:	dc18      	bgt.n	1e12 <__aeabi_ui2f+0x5e>
    1de0:	2299      	movs	r2, #153	; 0x99
    1de2:	1ad2      	subs	r2, r2, r3
    1de4:	4094      	lsls	r4, r2
    1de6:	4a11      	ldr	r2, [pc, #68]	; (1e2c <__aeabi_ui2f+0x78>)
    1de8:	4022      	ands	r2, r4
    1dea:	0761      	lsls	r1, r4, #29
    1dec:	d004      	beq.n	1df8 <__aeabi_ui2f+0x44>
    1dee:	210f      	movs	r1, #15
    1df0:	400c      	ands	r4, r1
    1df2:	2c04      	cmp	r4, #4
    1df4:	d000      	beq.n	1df8 <__aeabi_ui2f+0x44>
    1df6:	3204      	adds	r2, #4
    1df8:	0151      	lsls	r1, r2, #5
    1dfa:	d503      	bpl.n	1e04 <__aeabi_ui2f+0x50>
    1dfc:	4b0b      	ldr	r3, [pc, #44]	; (1e2c <__aeabi_ui2f+0x78>)
    1dfe:	401a      	ands	r2, r3
    1e00:	239f      	movs	r3, #159	; 0x9f
    1e02:	1a1b      	subs	r3, r3, r0
    1e04:	0192      	lsls	r2, r2, #6
    1e06:	0a52      	lsrs	r2, r2, #9
    1e08:	b2d8      	uxtb	r0, r3
    1e0a:	e7e2      	b.n	1dd2 <__aeabi_ui2f+0x1e>
    1e0c:	2000      	movs	r0, #0
    1e0e:	2200      	movs	r2, #0
    1e10:	e7df      	b.n	1dd2 <__aeabi_ui2f+0x1e>
    1e12:	2205      	movs	r2, #5
    1e14:	0025      	movs	r5, r4
    1e16:	1a12      	subs	r2, r2, r0
    1e18:	21b9      	movs	r1, #185	; 0xb9
    1e1a:	40d5      	lsrs	r5, r2
    1e1c:	0022      	movs	r2, r4
    1e1e:	1ac9      	subs	r1, r1, r3
    1e20:	408a      	lsls	r2, r1
    1e22:	1e54      	subs	r4, r2, #1
    1e24:	41a2      	sbcs	r2, r4
    1e26:	002c      	movs	r4, r5
    1e28:	4314      	orrs	r4, r2
    1e2a:	e7dc      	b.n	1de6 <__aeabi_ui2f+0x32>
    1e2c:	fbffffff 	.word	0xfbffffff

00001e30 <__aeabi_dadd>:
    1e30:	b5f8      	push	{r3, r4, r5, r6, r7, lr}
    1e32:	4656      	mov	r6, sl
    1e34:	465f      	mov	r7, fp
    1e36:	464d      	mov	r5, r9
    1e38:	4644      	mov	r4, r8
    1e3a:	b4f0      	push	{r4, r5, r6, r7}
    1e3c:	000f      	movs	r7, r1
    1e3e:	0ffd      	lsrs	r5, r7, #31
    1e40:	46aa      	mov	sl, r5
    1e42:	0309      	lsls	r1, r1, #12
    1e44:	007c      	lsls	r4, r7, #1
    1e46:	002e      	movs	r6, r5
    1e48:	005f      	lsls	r7, r3, #1
    1e4a:	0f45      	lsrs	r5, r0, #29
    1e4c:	0a49      	lsrs	r1, r1, #9
    1e4e:	0d7f      	lsrs	r7, r7, #21
    1e50:	4329      	orrs	r1, r5
    1e52:	00c5      	lsls	r5, r0, #3
    1e54:	0318      	lsls	r0, r3, #12
    1e56:	46bc      	mov	ip, r7
    1e58:	0a40      	lsrs	r0, r0, #9
    1e5a:	0f57      	lsrs	r7, r2, #29
    1e5c:	0d64      	lsrs	r4, r4, #21
    1e5e:	0fdb      	lsrs	r3, r3, #31
    1e60:	4338      	orrs	r0, r7
    1e62:	00d2      	lsls	r2, r2, #3
    1e64:	459a      	cmp	sl, r3
    1e66:	d100      	bne.n	1e6a <__aeabi_dadd+0x3a>
    1e68:	e0aa      	b.n	1fc0 <__aeabi_dadd+0x190>
    1e6a:	4666      	mov	r6, ip
    1e6c:	1ba6      	subs	r6, r4, r6
    1e6e:	2e00      	cmp	r6, #0
    1e70:	dc00      	bgt.n	1e74 <__aeabi_dadd+0x44>
    1e72:	e0ff      	b.n	2074 <STACK_SIZE+0x74>
    1e74:	4663      	mov	r3, ip
    1e76:	2b00      	cmp	r3, #0
    1e78:	d139      	bne.n	1eee <__aeabi_dadd+0xbe>
    1e7a:	0003      	movs	r3, r0
    1e7c:	4313      	orrs	r3, r2
    1e7e:	d000      	beq.n	1e82 <__aeabi_dadd+0x52>
    1e80:	e0d9      	b.n	2036 <STACK_SIZE+0x36>
    1e82:	076b      	lsls	r3, r5, #29
    1e84:	d009      	beq.n	1e9a <__aeabi_dadd+0x6a>
    1e86:	230f      	movs	r3, #15
    1e88:	402b      	ands	r3, r5
    1e8a:	2b04      	cmp	r3, #4
    1e8c:	d005      	beq.n	1e9a <__aeabi_dadd+0x6a>
    1e8e:	1d2b      	adds	r3, r5, #4
    1e90:	42ab      	cmp	r3, r5
    1e92:	41ad      	sbcs	r5, r5
    1e94:	426d      	negs	r5, r5
    1e96:	1949      	adds	r1, r1, r5
    1e98:	001d      	movs	r5, r3
    1e9a:	020b      	lsls	r3, r1, #8
    1e9c:	d400      	bmi.n	1ea0 <__aeabi_dadd+0x70>
    1e9e:	e082      	b.n	1fa6 <__aeabi_dadd+0x176>
    1ea0:	4bca      	ldr	r3, [pc, #808]	; (21cc <STACK_SIZE+0x1cc>)
    1ea2:	3401      	adds	r4, #1
    1ea4:	429c      	cmp	r4, r3
    1ea6:	d100      	bne.n	1eaa <__aeabi_dadd+0x7a>
    1ea8:	e0fe      	b.n	20a8 <STACK_SIZE+0xa8>
    1eaa:	000a      	movs	r2, r1
    1eac:	4656      	mov	r6, sl
    1eae:	4bc8      	ldr	r3, [pc, #800]	; (21d0 <STACK_SIZE+0x1d0>)
    1eb0:	08ed      	lsrs	r5, r5, #3
    1eb2:	401a      	ands	r2, r3
    1eb4:	0750      	lsls	r0, r2, #29
    1eb6:	0564      	lsls	r4, r4, #21
    1eb8:	0252      	lsls	r2, r2, #9
    1eba:	4305      	orrs	r5, r0
    1ebc:	0b12      	lsrs	r2, r2, #12
    1ebe:	0d64      	lsrs	r4, r4, #21
    1ec0:	2100      	movs	r1, #0
    1ec2:	0312      	lsls	r2, r2, #12
    1ec4:	0d0b      	lsrs	r3, r1, #20
    1ec6:	051b      	lsls	r3, r3, #20
    1ec8:	0564      	lsls	r4, r4, #21
    1eca:	0b12      	lsrs	r2, r2, #12
    1ecc:	431a      	orrs	r2, r3
    1ece:	0863      	lsrs	r3, r4, #1
    1ed0:	4cc0      	ldr	r4, [pc, #768]	; (21d4 <STACK_SIZE+0x1d4>)
    1ed2:	07f6      	lsls	r6, r6, #31
    1ed4:	4014      	ands	r4, r2
    1ed6:	431c      	orrs	r4, r3
    1ed8:	0064      	lsls	r4, r4, #1
    1eda:	0864      	lsrs	r4, r4, #1
    1edc:	4334      	orrs	r4, r6
    1ede:	0028      	movs	r0, r5
    1ee0:	0021      	movs	r1, r4
    1ee2:	bc3c      	pop	{r2, r3, r4, r5}
    1ee4:	4690      	mov	r8, r2
    1ee6:	4699      	mov	r9, r3
    1ee8:	46a2      	mov	sl, r4
    1eea:	46ab      	mov	fp, r5
    1eec:	bdf8      	pop	{r3, r4, r5, r6, r7, pc}
    1eee:	4bb7      	ldr	r3, [pc, #732]	; (21cc <STACK_SIZE+0x1cc>)
    1ef0:	429c      	cmp	r4, r3
    1ef2:	d0c6      	beq.n	1e82 <__aeabi_dadd+0x52>
    1ef4:	2380      	movs	r3, #128	; 0x80
    1ef6:	041b      	lsls	r3, r3, #16
    1ef8:	4318      	orrs	r0, r3
    1efa:	2e38      	cmp	r6, #56	; 0x38
    1efc:	dd00      	ble.n	1f00 <__aeabi_dadd+0xd0>
    1efe:	e0eb      	b.n	20d8 <STACK_SIZE+0xd8>
    1f00:	2e1f      	cmp	r6, #31
    1f02:	dd00      	ble.n	1f06 <__aeabi_dadd+0xd6>
    1f04:	e11e      	b.n	2144 <STACK_SIZE+0x144>
    1f06:	2320      	movs	r3, #32
    1f08:	1b9b      	subs	r3, r3, r6
    1f0a:	469c      	mov	ip, r3
    1f0c:	0003      	movs	r3, r0
    1f0e:	4667      	mov	r7, ip
    1f10:	40bb      	lsls	r3, r7
    1f12:	4698      	mov	r8, r3
    1f14:	0013      	movs	r3, r2
    1f16:	4647      	mov	r7, r8
    1f18:	40f3      	lsrs	r3, r6
    1f1a:	433b      	orrs	r3, r7
    1f1c:	4667      	mov	r7, ip
    1f1e:	40ba      	lsls	r2, r7
    1f20:	1e57      	subs	r7, r2, #1
    1f22:	41ba      	sbcs	r2, r7
    1f24:	4313      	orrs	r3, r2
    1f26:	0002      	movs	r2, r0
    1f28:	40f2      	lsrs	r2, r6
    1f2a:	1aeb      	subs	r3, r5, r3
    1f2c:	429d      	cmp	r5, r3
    1f2e:	41b6      	sbcs	r6, r6
    1f30:	001d      	movs	r5, r3
    1f32:	1a8a      	subs	r2, r1, r2
    1f34:	4276      	negs	r6, r6
    1f36:	1b91      	subs	r1, r2, r6
    1f38:	020b      	lsls	r3, r1, #8
    1f3a:	d531      	bpl.n	1fa0 <__aeabi_dadd+0x170>
    1f3c:	024a      	lsls	r2, r1, #9
    1f3e:	0a56      	lsrs	r6, r2, #9
    1f40:	2e00      	cmp	r6, #0
    1f42:	d100      	bne.n	1f46 <__aeabi_dadd+0x116>
    1f44:	e0b4      	b.n	20b0 <STACK_SIZE+0xb0>
    1f46:	0030      	movs	r0, r6
    1f48:	f000 fe3a 	bl	2bc0 <__clzsi2>
    1f4c:	0003      	movs	r3, r0
    1f4e:	3b08      	subs	r3, #8
    1f50:	2b1f      	cmp	r3, #31
    1f52:	dd00      	ble.n	1f56 <__aeabi_dadd+0x126>
    1f54:	e0b5      	b.n	20c2 <STACK_SIZE+0xc2>
    1f56:	2220      	movs	r2, #32
    1f58:	0029      	movs	r1, r5
    1f5a:	1ad2      	subs	r2, r2, r3
    1f5c:	40d1      	lsrs	r1, r2
    1f5e:	409e      	lsls	r6, r3
    1f60:	000a      	movs	r2, r1
    1f62:	409d      	lsls	r5, r3
    1f64:	4332      	orrs	r2, r6
    1f66:	429c      	cmp	r4, r3
    1f68:	dd00      	ble.n	1f6c <__aeabi_dadd+0x13c>
    1f6a:	e0b1      	b.n	20d0 <STACK_SIZE+0xd0>
    1f6c:	1b1c      	subs	r4, r3, r4
    1f6e:	1c63      	adds	r3, r4, #1
    1f70:	2b1f      	cmp	r3, #31
    1f72:	dd00      	ble.n	1f76 <__aeabi_dadd+0x146>
    1f74:	e0d5      	b.n	2122 <STACK_SIZE+0x122>
    1f76:	2120      	movs	r1, #32
    1f78:	0014      	movs	r4, r2
    1f7a:	0028      	movs	r0, r5
    1f7c:	1ac9      	subs	r1, r1, r3
    1f7e:	408c      	lsls	r4, r1
    1f80:	40d8      	lsrs	r0, r3
    1f82:	408d      	lsls	r5, r1
    1f84:	4304      	orrs	r4, r0
    1f86:	40da      	lsrs	r2, r3
    1f88:	1e68      	subs	r0, r5, #1
    1f8a:	4185      	sbcs	r5, r0
    1f8c:	0011      	movs	r1, r2
    1f8e:	4325      	orrs	r5, r4
    1f90:	2400      	movs	r4, #0
    1f92:	e776      	b.n	1e82 <__aeabi_dadd+0x52>
    1f94:	4641      	mov	r1, r8
    1f96:	4331      	orrs	r1, r6
    1f98:	d100      	bne.n	1f9c <__aeabi_dadd+0x16c>
    1f9a:	e234      	b.n	2406 <STACK_SIZE+0x406>
    1f9c:	0031      	movs	r1, r6
    1f9e:	4645      	mov	r5, r8
    1fa0:	076b      	lsls	r3, r5, #29
    1fa2:	d000      	beq.n	1fa6 <__aeabi_dadd+0x176>
    1fa4:	e76f      	b.n	1e86 <__aeabi_dadd+0x56>
    1fa6:	4656      	mov	r6, sl
    1fa8:	0748      	lsls	r0, r1, #29
    1faa:	08ed      	lsrs	r5, r5, #3
    1fac:	08c9      	lsrs	r1, r1, #3
    1fae:	4305      	orrs	r5, r0
    1fb0:	4b86      	ldr	r3, [pc, #536]	; (21cc <STACK_SIZE+0x1cc>)
    1fb2:	429c      	cmp	r4, r3
    1fb4:	d035      	beq.n	2022 <STACK_SIZE+0x22>
    1fb6:	030a      	lsls	r2, r1, #12
    1fb8:	0564      	lsls	r4, r4, #21
    1fba:	0b12      	lsrs	r2, r2, #12
    1fbc:	0d64      	lsrs	r4, r4, #21
    1fbe:	e77f      	b.n	1ec0 <__aeabi_dadd+0x90>
    1fc0:	4663      	mov	r3, ip
    1fc2:	1ae3      	subs	r3, r4, r3
    1fc4:	469b      	mov	fp, r3
    1fc6:	2b00      	cmp	r3, #0
    1fc8:	dc00      	bgt.n	1fcc <__aeabi_dadd+0x19c>
    1fca:	e08b      	b.n	20e4 <STACK_SIZE+0xe4>
    1fcc:	4667      	mov	r7, ip
    1fce:	2f00      	cmp	r7, #0
    1fd0:	d03c      	beq.n	204c <STACK_SIZE+0x4c>
    1fd2:	4f7e      	ldr	r7, [pc, #504]	; (21cc <STACK_SIZE+0x1cc>)
    1fd4:	42bc      	cmp	r4, r7
    1fd6:	d100      	bne.n	1fda <__aeabi_dadd+0x1aa>
    1fd8:	e753      	b.n	1e82 <__aeabi_dadd+0x52>
    1fda:	2780      	movs	r7, #128	; 0x80
    1fdc:	043f      	lsls	r7, r7, #16
    1fde:	4338      	orrs	r0, r7
    1fe0:	465b      	mov	r3, fp
    1fe2:	2b38      	cmp	r3, #56	; 0x38
    1fe4:	dc00      	bgt.n	1fe8 <__aeabi_dadd+0x1b8>
    1fe6:	e0f7      	b.n	21d8 <STACK_SIZE+0x1d8>
    1fe8:	4302      	orrs	r2, r0
    1fea:	1e50      	subs	r0, r2, #1
    1fec:	4182      	sbcs	r2, r0
    1fee:	2000      	movs	r0, #0
    1ff0:	b2d2      	uxtb	r2, r2
    1ff2:	1953      	adds	r3, r2, r5
    1ff4:	1842      	adds	r2, r0, r1
    1ff6:	42ab      	cmp	r3, r5
    1ff8:	4189      	sbcs	r1, r1
    1ffa:	001d      	movs	r5, r3
    1ffc:	4249      	negs	r1, r1
    1ffe:	1889      	adds	r1, r1, r2
    2000:	020b      	lsls	r3, r1, #8
    2002:	d5cd      	bpl.n	1fa0 <__aeabi_dadd+0x170>
    2004:	4b71      	ldr	r3, [pc, #452]	; (21cc <STACK_SIZE+0x1cc>)
    2006:	3401      	adds	r4, #1
    2008:	429c      	cmp	r4, r3
    200a:	d100      	bne.n	200e <STACK_SIZE+0xe>
    200c:	e13d      	b.n	228a <STACK_SIZE+0x28a>
    200e:	2001      	movs	r0, #1
    2010:	4a6f      	ldr	r2, [pc, #444]	; (21d0 <STACK_SIZE+0x1d0>)
    2012:	086b      	lsrs	r3, r5, #1
    2014:	400a      	ands	r2, r1
    2016:	4028      	ands	r0, r5
    2018:	4318      	orrs	r0, r3
    201a:	07d5      	lsls	r5, r2, #31
    201c:	4305      	orrs	r5, r0
    201e:	0851      	lsrs	r1, r2, #1
    2020:	e72f      	b.n	1e82 <__aeabi_dadd+0x52>
    2022:	002b      	movs	r3, r5
    2024:	430b      	orrs	r3, r1
    2026:	d100      	bne.n	202a <STACK_SIZE+0x2a>
    2028:	e1cb      	b.n	23c2 <STACK_SIZE+0x3c2>
    202a:	2380      	movs	r3, #128	; 0x80
    202c:	031b      	lsls	r3, r3, #12
    202e:	430b      	orrs	r3, r1
    2030:	031a      	lsls	r2, r3, #12
    2032:	0b12      	lsrs	r2, r2, #12
    2034:	e744      	b.n	1ec0 <__aeabi_dadd+0x90>
    2036:	3e01      	subs	r6, #1
    2038:	2e00      	cmp	r6, #0
    203a:	d16d      	bne.n	2118 <STACK_SIZE+0x118>
    203c:	1aae      	subs	r6, r5, r2
    203e:	42b5      	cmp	r5, r6
    2040:	419b      	sbcs	r3, r3
    2042:	1a09      	subs	r1, r1, r0
    2044:	425b      	negs	r3, r3
    2046:	1ac9      	subs	r1, r1, r3
    2048:	0035      	movs	r5, r6
    204a:	e775      	b.n	1f38 <__aeabi_dadd+0x108>
    204c:	0007      	movs	r7, r0
    204e:	4317      	orrs	r7, r2
    2050:	d100      	bne.n	2054 <STACK_SIZE+0x54>
    2052:	e716      	b.n	1e82 <__aeabi_dadd+0x52>
    2054:	2301      	movs	r3, #1
    2056:	425b      	negs	r3, r3
    2058:	469c      	mov	ip, r3
    205a:	44e3      	add	fp, ip
    205c:	465b      	mov	r3, fp
    205e:	2b00      	cmp	r3, #0
    2060:	d000      	beq.n	2064 <STACK_SIZE+0x64>
    2062:	e0e0      	b.n	2226 <STACK_SIZE+0x226>
    2064:	18aa      	adds	r2, r5, r2
    2066:	42aa      	cmp	r2, r5
    2068:	419b      	sbcs	r3, r3
    206a:	1809      	adds	r1, r1, r0
    206c:	425b      	negs	r3, r3
    206e:	1859      	adds	r1, r3, r1
    2070:	0015      	movs	r5, r2
    2072:	e7c5      	b.n	2000 <STACK_SIZE>
    2074:	2e00      	cmp	r6, #0
    2076:	d175      	bne.n	2164 <STACK_SIZE+0x164>
    2078:	1c66      	adds	r6, r4, #1
    207a:	0576      	lsls	r6, r6, #21
    207c:	0d76      	lsrs	r6, r6, #21
    207e:	2e01      	cmp	r6, #1
    2080:	dc00      	bgt.n	2084 <STACK_SIZE+0x84>
    2082:	e0f3      	b.n	226c <STACK_SIZE+0x26c>
    2084:	1aae      	subs	r6, r5, r2
    2086:	46b0      	mov	r8, r6
    2088:	4545      	cmp	r5, r8
    208a:	41bf      	sbcs	r7, r7
    208c:	1a0e      	subs	r6, r1, r0
    208e:	427f      	negs	r7, r7
    2090:	1bf6      	subs	r6, r6, r7
    2092:	0237      	lsls	r7, r6, #8
    2094:	d400      	bmi.n	2098 <STACK_SIZE+0x98>
    2096:	e08f      	b.n	21b8 <STACK_SIZE+0x1b8>
    2098:	1b55      	subs	r5, r2, r5
    209a:	42aa      	cmp	r2, r5
    209c:	41b6      	sbcs	r6, r6
    209e:	1a41      	subs	r1, r0, r1
    20a0:	4276      	negs	r6, r6
    20a2:	1b8e      	subs	r6, r1, r6
    20a4:	469a      	mov	sl, r3
    20a6:	e74b      	b.n	1f40 <__aeabi_dadd+0x110>
    20a8:	4656      	mov	r6, sl
    20aa:	2200      	movs	r2, #0
    20ac:	2500      	movs	r5, #0
    20ae:	e707      	b.n	1ec0 <__aeabi_dadd+0x90>
    20b0:	0028      	movs	r0, r5
    20b2:	f000 fd85 	bl	2bc0 <__clzsi2>
    20b6:	3020      	adds	r0, #32
    20b8:	0003      	movs	r3, r0
    20ba:	3b08      	subs	r3, #8
    20bc:	2b1f      	cmp	r3, #31
    20be:	dc00      	bgt.n	20c2 <STACK_SIZE+0xc2>
    20c0:	e749      	b.n	1f56 <__aeabi_dadd+0x126>
    20c2:	002a      	movs	r2, r5
    20c4:	3828      	subs	r0, #40	; 0x28
    20c6:	4082      	lsls	r2, r0
    20c8:	2500      	movs	r5, #0
    20ca:	429c      	cmp	r4, r3
    20cc:	dc00      	bgt.n	20d0 <STACK_SIZE+0xd0>
    20ce:	e74d      	b.n	1f6c <__aeabi_dadd+0x13c>
    20d0:	493f      	ldr	r1, [pc, #252]	; (21d0 <STACK_SIZE+0x1d0>)
    20d2:	1ae4      	subs	r4, r4, r3
    20d4:	4011      	ands	r1, r2
    20d6:	e6d4      	b.n	1e82 <__aeabi_dadd+0x52>
    20d8:	4302      	orrs	r2, r0
    20da:	1e50      	subs	r0, r2, #1
    20dc:	4182      	sbcs	r2, r0
    20de:	b2d3      	uxtb	r3, r2
    20e0:	2200      	movs	r2, #0
    20e2:	e722      	b.n	1f2a <__aeabi_dadd+0xfa>
    20e4:	2b00      	cmp	r3, #0
    20e6:	d000      	beq.n	20ea <STACK_SIZE+0xea>
    20e8:	e0f3      	b.n	22d2 <STACK_SIZE+0x2d2>
    20ea:	1c63      	adds	r3, r4, #1
    20ec:	469c      	mov	ip, r3
    20ee:	055b      	lsls	r3, r3, #21
    20f0:	0d5b      	lsrs	r3, r3, #21
    20f2:	2b01      	cmp	r3, #1
    20f4:	dc00      	bgt.n	20f8 <STACK_SIZE+0xf8>
    20f6:	e09f      	b.n	2238 <STACK_SIZE+0x238>
    20f8:	4b34      	ldr	r3, [pc, #208]	; (21cc <STACK_SIZE+0x1cc>)
    20fa:	459c      	cmp	ip, r3
    20fc:	d100      	bne.n	2100 <STACK_SIZE+0x100>
    20fe:	e0c3      	b.n	2288 <STACK_SIZE+0x288>
    2100:	18aa      	adds	r2, r5, r2
    2102:	1809      	adds	r1, r1, r0
    2104:	42aa      	cmp	r2, r5
    2106:	4180      	sbcs	r0, r0
    2108:	4240      	negs	r0, r0
    210a:	1841      	adds	r1, r0, r1
    210c:	07cd      	lsls	r5, r1, #31
    210e:	0852      	lsrs	r2, r2, #1
    2110:	4315      	orrs	r5, r2
    2112:	0849      	lsrs	r1, r1, #1
    2114:	4664      	mov	r4, ip
    2116:	e6b4      	b.n	1e82 <__aeabi_dadd+0x52>
    2118:	4b2c      	ldr	r3, [pc, #176]	; (21cc <STACK_SIZE+0x1cc>)
    211a:	429c      	cmp	r4, r3
    211c:	d000      	beq.n	2120 <STACK_SIZE+0x120>
    211e:	e6ec      	b.n	1efa <__aeabi_dadd+0xca>
    2120:	e6af      	b.n	1e82 <__aeabi_dadd+0x52>
    2122:	0011      	movs	r1, r2
    2124:	3c1f      	subs	r4, #31
    2126:	40e1      	lsrs	r1, r4
    2128:	000c      	movs	r4, r1
    212a:	2b20      	cmp	r3, #32
    212c:	d100      	bne.n	2130 <STACK_SIZE+0x130>
    212e:	e07f      	b.n	2230 <STACK_SIZE+0x230>
    2130:	2140      	movs	r1, #64	; 0x40
    2132:	1acb      	subs	r3, r1, r3
    2134:	409a      	lsls	r2, r3
    2136:	4315      	orrs	r5, r2
    2138:	1e6a      	subs	r2, r5, #1
    213a:	4195      	sbcs	r5, r2
    213c:	2100      	movs	r1, #0
    213e:	4325      	orrs	r5, r4
    2140:	2400      	movs	r4, #0
    2142:	e72d      	b.n	1fa0 <__aeabi_dadd+0x170>
    2144:	0033      	movs	r3, r6
    2146:	0007      	movs	r7, r0
    2148:	3b20      	subs	r3, #32
    214a:	40df      	lsrs	r7, r3
    214c:	003b      	movs	r3, r7
    214e:	2e20      	cmp	r6, #32
    2150:	d070      	beq.n	2234 <STACK_SIZE+0x234>
    2152:	2740      	movs	r7, #64	; 0x40
    2154:	1bbe      	subs	r6, r7, r6
    2156:	40b0      	lsls	r0, r6
    2158:	4302      	orrs	r2, r0
    215a:	1e50      	subs	r0, r2, #1
    215c:	4182      	sbcs	r2, r0
    215e:	4313      	orrs	r3, r2
    2160:	2200      	movs	r2, #0
    2162:	e6e2      	b.n	1f2a <__aeabi_dadd+0xfa>
    2164:	2c00      	cmp	r4, #0
    2166:	d04f      	beq.n	2208 <STACK_SIZE+0x208>
    2168:	4c18      	ldr	r4, [pc, #96]	; (21cc <STACK_SIZE+0x1cc>)
    216a:	45a4      	cmp	ip, r4
    216c:	d100      	bne.n	2170 <STACK_SIZE+0x170>
    216e:	e0ab      	b.n	22c8 <STACK_SIZE+0x2c8>
    2170:	2480      	movs	r4, #128	; 0x80
    2172:	0424      	lsls	r4, r4, #16
    2174:	4276      	negs	r6, r6
    2176:	4321      	orrs	r1, r4
    2178:	2e38      	cmp	r6, #56	; 0x38
    217a:	dd00      	ble.n	217e <STACK_SIZE+0x17e>
    217c:	e0df      	b.n	233e <STACK_SIZE+0x33e>
    217e:	2e1f      	cmp	r6, #31
    2180:	dd00      	ble.n	2184 <STACK_SIZE+0x184>
    2182:	e143      	b.n	240c <STACK_SIZE+0x40c>
    2184:	2720      	movs	r7, #32
    2186:	1bbc      	subs	r4, r7, r6
    2188:	46a1      	mov	r9, r4
    218a:	000c      	movs	r4, r1
    218c:	464f      	mov	r7, r9
    218e:	40bc      	lsls	r4, r7
    2190:	46a0      	mov	r8, r4
    2192:	002c      	movs	r4, r5
    2194:	4647      	mov	r7, r8
    2196:	40f4      	lsrs	r4, r6
    2198:	433c      	orrs	r4, r7
    219a:	464f      	mov	r7, r9
    219c:	40bd      	lsls	r5, r7
    219e:	1e6f      	subs	r7, r5, #1
    21a0:	41bd      	sbcs	r5, r7
    21a2:	40f1      	lsrs	r1, r6
    21a4:	432c      	orrs	r4, r5
    21a6:	1b15      	subs	r5, r2, r4
    21a8:	42aa      	cmp	r2, r5
    21aa:	4192      	sbcs	r2, r2
    21ac:	1a41      	subs	r1, r0, r1
    21ae:	4252      	negs	r2, r2
    21b0:	1a89      	subs	r1, r1, r2
    21b2:	4664      	mov	r4, ip
    21b4:	469a      	mov	sl, r3
    21b6:	e6bf      	b.n	1f38 <__aeabi_dadd+0x108>
    21b8:	4641      	mov	r1, r8
    21ba:	4645      	mov	r5, r8
    21bc:	4331      	orrs	r1, r6
    21be:	d000      	beq.n	21c2 <STACK_SIZE+0x1c2>
    21c0:	e6be      	b.n	1f40 <__aeabi_dadd+0x110>
    21c2:	2600      	movs	r6, #0
    21c4:	2400      	movs	r4, #0
    21c6:	2500      	movs	r5, #0
    21c8:	e6f2      	b.n	1fb0 <__aeabi_dadd+0x180>
    21ca:	46c0      	nop			; (mov r8, r8)
    21cc:	000007ff 	.word	0x000007ff
    21d0:	ff7fffff 	.word	0xff7fffff
    21d4:	800fffff 	.word	0x800fffff
    21d8:	2b1f      	cmp	r3, #31
    21da:	dc59      	bgt.n	2290 <STACK_SIZE+0x290>
    21dc:	2720      	movs	r7, #32
    21de:	1aff      	subs	r7, r7, r3
    21e0:	46bc      	mov	ip, r7
    21e2:	0007      	movs	r7, r0
    21e4:	4663      	mov	r3, ip
    21e6:	409f      	lsls	r7, r3
    21e8:	465b      	mov	r3, fp
    21ea:	46b9      	mov	r9, r7
    21ec:	0017      	movs	r7, r2
    21ee:	40df      	lsrs	r7, r3
    21f0:	46b8      	mov	r8, r7
    21f2:	464f      	mov	r7, r9
    21f4:	4643      	mov	r3, r8
    21f6:	431f      	orrs	r7, r3
    21f8:	4663      	mov	r3, ip
    21fa:	409a      	lsls	r2, r3
    21fc:	1e53      	subs	r3, r2, #1
    21fe:	419a      	sbcs	r2, r3
    2200:	465b      	mov	r3, fp
    2202:	433a      	orrs	r2, r7
    2204:	40d8      	lsrs	r0, r3
    2206:	e6f4      	b.n	1ff2 <__aeabi_dadd+0x1c2>
    2208:	000c      	movs	r4, r1
    220a:	432c      	orrs	r4, r5
    220c:	d05c      	beq.n	22c8 <STACK_SIZE+0x2c8>
    220e:	43f6      	mvns	r6, r6
    2210:	2e00      	cmp	r6, #0
    2212:	d155      	bne.n	22c0 <STACK_SIZE+0x2c0>
    2214:	1b55      	subs	r5, r2, r5
    2216:	42aa      	cmp	r2, r5
    2218:	41a4      	sbcs	r4, r4
    221a:	1a41      	subs	r1, r0, r1
    221c:	4264      	negs	r4, r4
    221e:	1b09      	subs	r1, r1, r4
    2220:	469a      	mov	sl, r3
    2222:	4664      	mov	r4, ip
    2224:	e688      	b.n	1f38 <__aeabi_dadd+0x108>
    2226:	4f96      	ldr	r7, [pc, #600]	; (2480 <STACK_SIZE+0x480>)
    2228:	42bc      	cmp	r4, r7
    222a:	d000      	beq.n	222e <STACK_SIZE+0x22e>
    222c:	e6d8      	b.n	1fe0 <__aeabi_dadd+0x1b0>
    222e:	e628      	b.n	1e82 <__aeabi_dadd+0x52>
    2230:	2200      	movs	r2, #0
    2232:	e780      	b.n	2136 <STACK_SIZE+0x136>
    2234:	2000      	movs	r0, #0
    2236:	e78f      	b.n	2158 <STACK_SIZE+0x158>
    2238:	000b      	movs	r3, r1
    223a:	432b      	orrs	r3, r5
    223c:	2c00      	cmp	r4, #0
    223e:	d000      	beq.n	2242 <STACK_SIZE+0x242>
    2240:	e0c2      	b.n	23c8 <STACK_SIZE+0x3c8>
    2242:	2b00      	cmp	r3, #0
    2244:	d100      	bne.n	2248 <STACK_SIZE+0x248>
    2246:	e101      	b.n	244c <STACK_SIZE+0x44c>
    2248:	0003      	movs	r3, r0
    224a:	4313      	orrs	r3, r2
    224c:	d100      	bne.n	2250 <STACK_SIZE+0x250>
    224e:	e618      	b.n	1e82 <__aeabi_dadd+0x52>
    2250:	18ab      	adds	r3, r5, r2
    2252:	42ab      	cmp	r3, r5
    2254:	41b6      	sbcs	r6, r6
    2256:	1809      	adds	r1, r1, r0
    2258:	4276      	negs	r6, r6
    225a:	1871      	adds	r1, r6, r1
    225c:	020a      	lsls	r2, r1, #8
    225e:	d400      	bmi.n	2262 <STACK_SIZE+0x262>
    2260:	e109      	b.n	2476 <STACK_SIZE+0x476>
    2262:	4a88      	ldr	r2, [pc, #544]	; (2484 <STACK_SIZE+0x484>)
    2264:	001d      	movs	r5, r3
    2266:	4011      	ands	r1, r2
    2268:	4664      	mov	r4, ip
    226a:	e60a      	b.n	1e82 <__aeabi_dadd+0x52>
    226c:	2c00      	cmp	r4, #0
    226e:	d15b      	bne.n	2328 <STACK_SIZE+0x328>
    2270:	000e      	movs	r6, r1
    2272:	432e      	orrs	r6, r5
    2274:	d000      	beq.n	2278 <STACK_SIZE+0x278>
    2276:	e08a      	b.n	238e <STACK_SIZE+0x38e>
    2278:	0001      	movs	r1, r0
    227a:	4311      	orrs	r1, r2
    227c:	d100      	bne.n	2280 <STACK_SIZE+0x280>
    227e:	e0c2      	b.n	2406 <STACK_SIZE+0x406>
    2280:	0001      	movs	r1, r0
    2282:	0015      	movs	r5, r2
    2284:	469a      	mov	sl, r3
    2286:	e5fc      	b.n	1e82 <__aeabi_dadd+0x52>
    2288:	4664      	mov	r4, ip
    228a:	2100      	movs	r1, #0
    228c:	2500      	movs	r5, #0
    228e:	e68f      	b.n	1fb0 <__aeabi_dadd+0x180>
    2290:	2320      	movs	r3, #32
    2292:	425b      	negs	r3, r3
    2294:	469c      	mov	ip, r3
    2296:	44dc      	add	ip, fp
    2298:	4663      	mov	r3, ip
    229a:	0007      	movs	r7, r0
    229c:	40df      	lsrs	r7, r3
    229e:	465b      	mov	r3, fp
    22a0:	46bc      	mov	ip, r7
    22a2:	2b20      	cmp	r3, #32
    22a4:	d100      	bne.n	22a8 <STACK_SIZE+0x2a8>
    22a6:	e0ac      	b.n	2402 <STACK_SIZE+0x402>
    22a8:	2340      	movs	r3, #64	; 0x40
    22aa:	465f      	mov	r7, fp
    22ac:	1bdb      	subs	r3, r3, r7
    22ae:	4098      	lsls	r0, r3
    22b0:	4302      	orrs	r2, r0
    22b2:	1e50      	subs	r0, r2, #1
    22b4:	4182      	sbcs	r2, r0
    22b6:	4663      	mov	r3, ip
    22b8:	4313      	orrs	r3, r2
    22ba:	001a      	movs	r2, r3
    22bc:	2000      	movs	r0, #0
    22be:	e698      	b.n	1ff2 <__aeabi_dadd+0x1c2>
    22c0:	4c6f      	ldr	r4, [pc, #444]	; (2480 <STACK_SIZE+0x480>)
    22c2:	45a4      	cmp	ip, r4
    22c4:	d000      	beq.n	22c8 <STACK_SIZE+0x2c8>
    22c6:	e757      	b.n	2178 <STACK_SIZE+0x178>
    22c8:	0001      	movs	r1, r0
    22ca:	0015      	movs	r5, r2
    22cc:	4664      	mov	r4, ip
    22ce:	469a      	mov	sl, r3
    22d0:	e5d7      	b.n	1e82 <__aeabi_dadd+0x52>
    22d2:	2c00      	cmp	r4, #0
    22d4:	d139      	bne.n	234a <STACK_SIZE+0x34a>
    22d6:	000c      	movs	r4, r1
    22d8:	432c      	orrs	r4, r5
    22da:	d06e      	beq.n	23ba <STACK_SIZE+0x3ba>
    22dc:	43db      	mvns	r3, r3
    22de:	2b00      	cmp	r3, #0
    22e0:	d01a      	beq.n	2318 <STACK_SIZE+0x318>
    22e2:	4c67      	ldr	r4, [pc, #412]	; (2480 <STACK_SIZE+0x480>)
    22e4:	45a4      	cmp	ip, r4
    22e6:	d068      	beq.n	23ba <STACK_SIZE+0x3ba>
    22e8:	2b38      	cmp	r3, #56	; 0x38
    22ea:	dd00      	ble.n	22ee <STACK_SIZE+0x2ee>
    22ec:	e0a4      	b.n	2438 <STACK_SIZE+0x438>
    22ee:	2b1f      	cmp	r3, #31
    22f0:	dd00      	ble.n	22f4 <STACK_SIZE+0x2f4>
    22f2:	e0ae      	b.n	2452 <STACK_SIZE+0x452>
    22f4:	2420      	movs	r4, #32
    22f6:	000f      	movs	r7, r1
    22f8:	1ae4      	subs	r4, r4, r3
    22fa:	40a7      	lsls	r7, r4
    22fc:	46b9      	mov	r9, r7
    22fe:	002f      	movs	r7, r5
    2300:	40df      	lsrs	r7, r3
    2302:	46b8      	mov	r8, r7
    2304:	46a3      	mov	fp, r4
    2306:	464f      	mov	r7, r9
    2308:	4644      	mov	r4, r8
    230a:	4327      	orrs	r7, r4
    230c:	465c      	mov	r4, fp
    230e:	40a5      	lsls	r5, r4
    2310:	1e6c      	subs	r4, r5, #1
    2312:	41a5      	sbcs	r5, r4
    2314:	40d9      	lsrs	r1, r3
    2316:	433d      	orrs	r5, r7
    2318:	18ad      	adds	r5, r5, r2
    231a:	4295      	cmp	r5, r2
    231c:	419b      	sbcs	r3, r3
    231e:	1809      	adds	r1, r1, r0
    2320:	425b      	negs	r3, r3
    2322:	1859      	adds	r1, r3, r1
    2324:	4664      	mov	r4, ip
    2326:	e66b      	b.n	2000 <STACK_SIZE>
    2328:	000c      	movs	r4, r1
    232a:	432c      	orrs	r4, r5
    232c:	d115      	bne.n	235a <STACK_SIZE+0x35a>
    232e:	0001      	movs	r1, r0
    2330:	4311      	orrs	r1, r2
    2332:	d07b      	beq.n	242c <STACK_SIZE+0x42c>
    2334:	0001      	movs	r1, r0
    2336:	0015      	movs	r5, r2
    2338:	469a      	mov	sl, r3
    233a:	4c51      	ldr	r4, [pc, #324]	; (2480 <STACK_SIZE+0x480>)
    233c:	e5a1      	b.n	1e82 <__aeabi_dadd+0x52>
    233e:	430d      	orrs	r5, r1
    2340:	1e69      	subs	r1, r5, #1
    2342:	418d      	sbcs	r5, r1
    2344:	2100      	movs	r1, #0
    2346:	b2ec      	uxtb	r4, r5
    2348:	e72d      	b.n	21a6 <STACK_SIZE+0x1a6>
    234a:	4c4d      	ldr	r4, [pc, #308]	; (2480 <STACK_SIZE+0x480>)
    234c:	45a4      	cmp	ip, r4
    234e:	d034      	beq.n	23ba <STACK_SIZE+0x3ba>
    2350:	2480      	movs	r4, #128	; 0x80
    2352:	0424      	lsls	r4, r4, #16
    2354:	425b      	negs	r3, r3
    2356:	4321      	orrs	r1, r4
    2358:	e7c6      	b.n	22e8 <STACK_SIZE+0x2e8>
    235a:	0004      	movs	r4, r0
    235c:	4314      	orrs	r4, r2
    235e:	d04e      	beq.n	23fe <STACK_SIZE+0x3fe>
    2360:	08ed      	lsrs	r5, r5, #3
    2362:	074c      	lsls	r4, r1, #29
    2364:	432c      	orrs	r4, r5
    2366:	2580      	movs	r5, #128	; 0x80
    2368:	08c9      	lsrs	r1, r1, #3
    236a:	032d      	lsls	r5, r5, #12
    236c:	4229      	tst	r1, r5
    236e:	d008      	beq.n	2382 <STACK_SIZE+0x382>
    2370:	08c6      	lsrs	r6, r0, #3
    2372:	422e      	tst	r6, r5
    2374:	d105      	bne.n	2382 <STACK_SIZE+0x382>
    2376:	08d2      	lsrs	r2, r2, #3
    2378:	0741      	lsls	r1, r0, #29
    237a:	4311      	orrs	r1, r2
    237c:	000c      	movs	r4, r1
    237e:	469a      	mov	sl, r3
    2380:	0031      	movs	r1, r6
    2382:	0f62      	lsrs	r2, r4, #29
    2384:	00c9      	lsls	r1, r1, #3
    2386:	00e5      	lsls	r5, r4, #3
    2388:	4311      	orrs	r1, r2
    238a:	4c3d      	ldr	r4, [pc, #244]	; (2480 <STACK_SIZE+0x480>)
    238c:	e579      	b.n	1e82 <__aeabi_dadd+0x52>
    238e:	0006      	movs	r6, r0
    2390:	4316      	orrs	r6, r2
    2392:	d100      	bne.n	2396 <STACK_SIZE+0x396>
    2394:	e575      	b.n	1e82 <__aeabi_dadd+0x52>
    2396:	1aae      	subs	r6, r5, r2
    2398:	46b0      	mov	r8, r6
    239a:	4545      	cmp	r5, r8
    239c:	41bf      	sbcs	r7, r7
    239e:	1a0e      	subs	r6, r1, r0
    23a0:	427f      	negs	r7, r7
    23a2:	1bf6      	subs	r6, r6, r7
    23a4:	0237      	lsls	r7, r6, #8
    23a6:	d400      	bmi.n	23aa <STACK_SIZE+0x3aa>
    23a8:	e5f4      	b.n	1f94 <__aeabi_dadd+0x164>
    23aa:	1b55      	subs	r5, r2, r5
    23ac:	42aa      	cmp	r2, r5
    23ae:	41b6      	sbcs	r6, r6
    23b0:	1a41      	subs	r1, r0, r1
    23b2:	4276      	negs	r6, r6
    23b4:	1b89      	subs	r1, r1, r6
    23b6:	469a      	mov	sl, r3
    23b8:	e563      	b.n	1e82 <__aeabi_dadd+0x52>
    23ba:	0001      	movs	r1, r0
    23bc:	0015      	movs	r5, r2
    23be:	4664      	mov	r4, ip
    23c0:	e55f      	b.n	1e82 <__aeabi_dadd+0x52>
    23c2:	2200      	movs	r2, #0
    23c4:	2500      	movs	r5, #0
    23c6:	e57b      	b.n	1ec0 <__aeabi_dadd+0x90>
    23c8:	2b00      	cmp	r3, #0
    23ca:	d03b      	beq.n	2444 <STACK_SIZE+0x444>
    23cc:	0003      	movs	r3, r0
    23ce:	4313      	orrs	r3, r2
    23d0:	d015      	beq.n	23fe <STACK_SIZE+0x3fe>
    23d2:	08ed      	lsrs	r5, r5, #3
    23d4:	074b      	lsls	r3, r1, #29
    23d6:	432b      	orrs	r3, r5
    23d8:	2580      	movs	r5, #128	; 0x80
    23da:	08c9      	lsrs	r1, r1, #3
    23dc:	032d      	lsls	r5, r5, #12
    23de:	4229      	tst	r1, r5
    23e0:	d007      	beq.n	23f2 <STACK_SIZE+0x3f2>
    23e2:	08c4      	lsrs	r4, r0, #3
    23e4:	422c      	tst	r4, r5
    23e6:	d104      	bne.n	23f2 <STACK_SIZE+0x3f2>
    23e8:	0741      	lsls	r1, r0, #29
    23ea:	000b      	movs	r3, r1
    23ec:	0021      	movs	r1, r4
    23ee:	08d2      	lsrs	r2, r2, #3
    23f0:	4313      	orrs	r3, r2
    23f2:	00c9      	lsls	r1, r1, #3
    23f4:	0f5a      	lsrs	r2, r3, #29
    23f6:	4311      	orrs	r1, r2
    23f8:	00dd      	lsls	r5, r3, #3
    23fa:	4c21      	ldr	r4, [pc, #132]	; (2480 <STACK_SIZE+0x480>)
    23fc:	e541      	b.n	1e82 <__aeabi_dadd+0x52>
    23fe:	4c20      	ldr	r4, [pc, #128]	; (2480 <STACK_SIZE+0x480>)
    2400:	e53f      	b.n	1e82 <__aeabi_dadd+0x52>
    2402:	2000      	movs	r0, #0
    2404:	e754      	b.n	22b0 <STACK_SIZE+0x2b0>
    2406:	2600      	movs	r6, #0
    2408:	2500      	movs	r5, #0
    240a:	e5d1      	b.n	1fb0 <__aeabi_dadd+0x180>
    240c:	0034      	movs	r4, r6
    240e:	000f      	movs	r7, r1
    2410:	3c20      	subs	r4, #32
    2412:	40e7      	lsrs	r7, r4
    2414:	003c      	movs	r4, r7
    2416:	2e20      	cmp	r6, #32
    2418:	d02b      	beq.n	2472 <STACK_SIZE+0x472>
    241a:	2740      	movs	r7, #64	; 0x40
    241c:	1bbe      	subs	r6, r7, r6
    241e:	40b1      	lsls	r1, r6
    2420:	430d      	orrs	r5, r1
    2422:	1e69      	subs	r1, r5, #1
    2424:	418d      	sbcs	r5, r1
    2426:	2100      	movs	r1, #0
    2428:	432c      	orrs	r4, r5
    242a:	e6bc      	b.n	21a6 <STACK_SIZE+0x1a6>
    242c:	2180      	movs	r1, #128	; 0x80
    242e:	2600      	movs	r6, #0
    2430:	0309      	lsls	r1, r1, #12
    2432:	4c13      	ldr	r4, [pc, #76]	; (2480 <STACK_SIZE+0x480>)
    2434:	2500      	movs	r5, #0
    2436:	e5bb      	b.n	1fb0 <__aeabi_dadd+0x180>
    2438:	430d      	orrs	r5, r1
    243a:	1e69      	subs	r1, r5, #1
    243c:	418d      	sbcs	r5, r1
    243e:	2100      	movs	r1, #0
    2440:	b2ed      	uxtb	r5, r5
    2442:	e769      	b.n	2318 <STACK_SIZE+0x318>
    2444:	0001      	movs	r1, r0
    2446:	0015      	movs	r5, r2
    2448:	4c0d      	ldr	r4, [pc, #52]	; (2480 <STACK_SIZE+0x480>)
    244a:	e51a      	b.n	1e82 <__aeabi_dadd+0x52>
    244c:	0001      	movs	r1, r0
    244e:	0015      	movs	r5, r2
    2450:	e517      	b.n	1e82 <__aeabi_dadd+0x52>
    2452:	001c      	movs	r4, r3
    2454:	000f      	movs	r7, r1
    2456:	3c20      	subs	r4, #32
    2458:	40e7      	lsrs	r7, r4
    245a:	003c      	movs	r4, r7
    245c:	2b20      	cmp	r3, #32
    245e:	d00c      	beq.n	247a <STACK_SIZE+0x47a>
    2460:	2740      	movs	r7, #64	; 0x40
    2462:	1afb      	subs	r3, r7, r3
    2464:	4099      	lsls	r1, r3
    2466:	430d      	orrs	r5, r1
    2468:	1e69      	subs	r1, r5, #1
    246a:	418d      	sbcs	r5, r1
    246c:	2100      	movs	r1, #0
    246e:	4325      	orrs	r5, r4
    2470:	e752      	b.n	2318 <STACK_SIZE+0x318>
    2472:	2100      	movs	r1, #0
    2474:	e7d4      	b.n	2420 <STACK_SIZE+0x420>
    2476:	001d      	movs	r5, r3
    2478:	e592      	b.n	1fa0 <__aeabi_dadd+0x170>
    247a:	2100      	movs	r1, #0
    247c:	e7f3      	b.n	2466 <STACK_SIZE+0x466>
    247e:	46c0      	nop			; (mov r8, r8)
    2480:	000007ff 	.word	0x000007ff
    2484:	ff7fffff 	.word	0xff7fffff

00002488 <__aeabi_dmul>:
    2488:	b5f0      	push	{r4, r5, r6, r7, lr}
    248a:	465f      	mov	r7, fp
    248c:	4656      	mov	r6, sl
    248e:	464d      	mov	r5, r9
    2490:	4644      	mov	r4, r8
    2492:	b4f0      	push	{r4, r5, r6, r7}
    2494:	030d      	lsls	r5, r1, #12
    2496:	4699      	mov	r9, r3
    2498:	004e      	lsls	r6, r1, #1
    249a:	0b2b      	lsrs	r3, r5, #12
    249c:	b087      	sub	sp, #28
    249e:	0007      	movs	r7, r0
    24a0:	4692      	mov	sl, r2
    24a2:	4680      	mov	r8, r0
    24a4:	469b      	mov	fp, r3
    24a6:	0d76      	lsrs	r6, r6, #21
    24a8:	0fcc      	lsrs	r4, r1, #31
    24aa:	2e00      	cmp	r6, #0
    24ac:	d069      	beq.n	2582 <__aeabi_dmul+0xfa>
    24ae:	4b6d      	ldr	r3, [pc, #436]	; (2664 <__aeabi_dmul+0x1dc>)
    24b0:	429e      	cmp	r6, r3
    24b2:	d035      	beq.n	2520 <__aeabi_dmul+0x98>
    24b4:	465b      	mov	r3, fp
    24b6:	2280      	movs	r2, #128	; 0x80
    24b8:	00dd      	lsls	r5, r3, #3
    24ba:	0412      	lsls	r2, r2, #16
    24bc:	0f43      	lsrs	r3, r0, #29
    24be:	4313      	orrs	r3, r2
    24c0:	432b      	orrs	r3, r5
    24c2:	469b      	mov	fp, r3
    24c4:	00c3      	lsls	r3, r0, #3
    24c6:	4698      	mov	r8, r3
    24c8:	4b67      	ldr	r3, [pc, #412]	; (2668 <__aeabi_dmul+0x1e0>)
    24ca:	2700      	movs	r7, #0
    24cc:	469c      	mov	ip, r3
    24ce:	2300      	movs	r3, #0
    24d0:	4466      	add	r6, ip
    24d2:	9301      	str	r3, [sp, #4]
    24d4:	464a      	mov	r2, r9
    24d6:	0315      	lsls	r5, r2, #12
    24d8:	0050      	lsls	r0, r2, #1
    24da:	0fd2      	lsrs	r2, r2, #31
    24dc:	4653      	mov	r3, sl
    24de:	0b2d      	lsrs	r5, r5, #12
    24e0:	0d40      	lsrs	r0, r0, #21
    24e2:	4691      	mov	r9, r2
    24e4:	d100      	bne.n	24e8 <__aeabi_dmul+0x60>
    24e6:	e076      	b.n	25d6 <__aeabi_dmul+0x14e>
    24e8:	4a5e      	ldr	r2, [pc, #376]	; (2664 <__aeabi_dmul+0x1dc>)
    24ea:	4290      	cmp	r0, r2
    24ec:	d06c      	beq.n	25c8 <__aeabi_dmul+0x140>
    24ee:	2280      	movs	r2, #128	; 0x80
    24f0:	0f5b      	lsrs	r3, r3, #29
    24f2:	0412      	lsls	r2, r2, #16
    24f4:	4313      	orrs	r3, r2
    24f6:	4a5c      	ldr	r2, [pc, #368]	; (2668 <__aeabi_dmul+0x1e0>)
    24f8:	00ed      	lsls	r5, r5, #3
    24fa:	4694      	mov	ip, r2
    24fc:	431d      	orrs	r5, r3
    24fe:	4653      	mov	r3, sl
    2500:	2200      	movs	r2, #0
    2502:	00db      	lsls	r3, r3, #3
    2504:	4460      	add	r0, ip
    2506:	4649      	mov	r1, r9
    2508:	1836      	adds	r6, r6, r0
    250a:	1c70      	adds	r0, r6, #1
    250c:	4061      	eors	r1, r4
    250e:	9002      	str	r0, [sp, #8]
    2510:	4317      	orrs	r7, r2
    2512:	2f0f      	cmp	r7, #15
    2514:	d900      	bls.n	2518 <__aeabi_dmul+0x90>
    2516:	e0af      	b.n	2678 <__aeabi_dmul+0x1f0>
    2518:	4854      	ldr	r0, [pc, #336]	; (266c <__aeabi_dmul+0x1e4>)
    251a:	00bf      	lsls	r7, r7, #2
    251c:	59c7      	ldr	r7, [r0, r7]
    251e:	46bf      	mov	pc, r7
    2520:	465b      	mov	r3, fp
    2522:	431f      	orrs	r7, r3
    2524:	d000      	beq.n	2528 <__aeabi_dmul+0xa0>
    2526:	e088      	b.n	263a <__aeabi_dmul+0x1b2>
    2528:	2300      	movs	r3, #0
    252a:	469b      	mov	fp, r3
    252c:	4698      	mov	r8, r3
    252e:	3302      	adds	r3, #2
    2530:	2708      	movs	r7, #8
    2532:	9301      	str	r3, [sp, #4]
    2534:	e7ce      	b.n	24d4 <__aeabi_dmul+0x4c>
    2536:	4649      	mov	r1, r9
    2538:	2a02      	cmp	r2, #2
    253a:	d06a      	beq.n	2612 <__aeabi_dmul+0x18a>
    253c:	2a03      	cmp	r2, #3
    253e:	d100      	bne.n	2542 <__aeabi_dmul+0xba>
    2540:	e209      	b.n	2956 <__aeabi_dmul+0x4ce>
    2542:	2a01      	cmp	r2, #1
    2544:	d000      	beq.n	2548 <__aeabi_dmul+0xc0>
    2546:	e1bb      	b.n	28c0 <__aeabi_dmul+0x438>
    2548:	4011      	ands	r1, r2
    254a:	2200      	movs	r2, #0
    254c:	2300      	movs	r3, #0
    254e:	2500      	movs	r5, #0
    2550:	4690      	mov	r8, r2
    2552:	b2cc      	uxtb	r4, r1
    2554:	2100      	movs	r1, #0
    2556:	032d      	lsls	r5, r5, #12
    2558:	0d0a      	lsrs	r2, r1, #20
    255a:	0512      	lsls	r2, r2, #20
    255c:	0b2d      	lsrs	r5, r5, #12
    255e:	4315      	orrs	r5, r2
    2560:	4a43      	ldr	r2, [pc, #268]	; (2670 <__aeabi_dmul+0x1e8>)
    2562:	051b      	lsls	r3, r3, #20
    2564:	4015      	ands	r5, r2
    2566:	431d      	orrs	r5, r3
    2568:	006d      	lsls	r5, r5, #1
    256a:	07e4      	lsls	r4, r4, #31
    256c:	086d      	lsrs	r5, r5, #1
    256e:	4325      	orrs	r5, r4
    2570:	4640      	mov	r0, r8
    2572:	0029      	movs	r1, r5
    2574:	b007      	add	sp, #28
    2576:	bc3c      	pop	{r2, r3, r4, r5}
    2578:	4690      	mov	r8, r2
    257a:	4699      	mov	r9, r3
    257c:	46a2      	mov	sl, r4
    257e:	46ab      	mov	fp, r5
    2580:	bdf0      	pop	{r4, r5, r6, r7, pc}
    2582:	4303      	orrs	r3, r0
    2584:	d052      	beq.n	262c <__aeabi_dmul+0x1a4>
    2586:	465b      	mov	r3, fp
    2588:	2b00      	cmp	r3, #0
    258a:	d100      	bne.n	258e <__aeabi_dmul+0x106>
    258c:	e18a      	b.n	28a4 <__aeabi_dmul+0x41c>
    258e:	4658      	mov	r0, fp
    2590:	f000 fb16 	bl	2bc0 <__clzsi2>
    2594:	0003      	movs	r3, r0
    2596:	3b0b      	subs	r3, #11
    2598:	2b1c      	cmp	r3, #28
    259a:	dd00      	ble.n	259e <__aeabi_dmul+0x116>
    259c:	e17b      	b.n	2896 <__aeabi_dmul+0x40e>
    259e:	221d      	movs	r2, #29
    25a0:	1ad3      	subs	r3, r2, r3
    25a2:	003a      	movs	r2, r7
    25a4:	0001      	movs	r1, r0
    25a6:	465d      	mov	r5, fp
    25a8:	40da      	lsrs	r2, r3
    25aa:	3908      	subs	r1, #8
    25ac:	408d      	lsls	r5, r1
    25ae:	0013      	movs	r3, r2
    25b0:	408f      	lsls	r7, r1
    25b2:	432b      	orrs	r3, r5
    25b4:	469b      	mov	fp, r3
    25b6:	46b8      	mov	r8, r7
    25b8:	4b2e      	ldr	r3, [pc, #184]	; (2674 <__aeabi_dmul+0x1ec>)
    25ba:	2700      	movs	r7, #0
    25bc:	469c      	mov	ip, r3
    25be:	2300      	movs	r3, #0
    25c0:	4460      	add	r0, ip
    25c2:	4246      	negs	r6, r0
    25c4:	9301      	str	r3, [sp, #4]
    25c6:	e785      	b.n	24d4 <__aeabi_dmul+0x4c>
    25c8:	4652      	mov	r2, sl
    25ca:	432a      	orrs	r2, r5
    25cc:	d12c      	bne.n	2628 <__aeabi_dmul+0x1a0>
    25ce:	2500      	movs	r5, #0
    25d0:	2300      	movs	r3, #0
    25d2:	2202      	movs	r2, #2
    25d4:	e797      	b.n	2506 <__aeabi_dmul+0x7e>
    25d6:	4652      	mov	r2, sl
    25d8:	432a      	orrs	r2, r5
    25da:	d021      	beq.n	2620 <__aeabi_dmul+0x198>
    25dc:	2d00      	cmp	r5, #0
    25de:	d100      	bne.n	25e2 <__aeabi_dmul+0x15a>
    25e0:	e154      	b.n	288c <__aeabi_dmul+0x404>
    25e2:	0028      	movs	r0, r5
    25e4:	f000 faec 	bl	2bc0 <__clzsi2>
    25e8:	0003      	movs	r3, r0
    25ea:	3b0b      	subs	r3, #11
    25ec:	2b1c      	cmp	r3, #28
    25ee:	dd00      	ble.n	25f2 <__aeabi_dmul+0x16a>
    25f0:	e146      	b.n	2880 <__aeabi_dmul+0x3f8>
    25f2:	211d      	movs	r1, #29
    25f4:	1acb      	subs	r3, r1, r3
    25f6:	4651      	mov	r1, sl
    25f8:	0002      	movs	r2, r0
    25fa:	40d9      	lsrs	r1, r3
    25fc:	4653      	mov	r3, sl
    25fe:	3a08      	subs	r2, #8
    2600:	4095      	lsls	r5, r2
    2602:	4093      	lsls	r3, r2
    2604:	430d      	orrs	r5, r1
    2606:	4a1b      	ldr	r2, [pc, #108]	; (2674 <__aeabi_dmul+0x1ec>)
    2608:	4694      	mov	ip, r2
    260a:	4460      	add	r0, ip
    260c:	4240      	negs	r0, r0
    260e:	2200      	movs	r2, #0
    2610:	e779      	b.n	2506 <__aeabi_dmul+0x7e>
    2612:	2401      	movs	r4, #1
    2614:	2200      	movs	r2, #0
    2616:	400c      	ands	r4, r1
    2618:	4b12      	ldr	r3, [pc, #72]	; (2664 <__aeabi_dmul+0x1dc>)
    261a:	2500      	movs	r5, #0
    261c:	4690      	mov	r8, r2
    261e:	e799      	b.n	2554 <__aeabi_dmul+0xcc>
    2620:	2500      	movs	r5, #0
    2622:	2300      	movs	r3, #0
    2624:	2201      	movs	r2, #1
    2626:	e76e      	b.n	2506 <__aeabi_dmul+0x7e>
    2628:	2203      	movs	r2, #3
    262a:	e76c      	b.n	2506 <__aeabi_dmul+0x7e>
    262c:	2300      	movs	r3, #0
    262e:	469b      	mov	fp, r3
    2630:	4698      	mov	r8, r3
    2632:	3301      	adds	r3, #1
    2634:	2704      	movs	r7, #4
    2636:	9301      	str	r3, [sp, #4]
    2638:	e74c      	b.n	24d4 <__aeabi_dmul+0x4c>
    263a:	2303      	movs	r3, #3
    263c:	270c      	movs	r7, #12
    263e:	9301      	str	r3, [sp, #4]
    2640:	e748      	b.n	24d4 <__aeabi_dmul+0x4c>
    2642:	2300      	movs	r3, #0
    2644:	2580      	movs	r5, #128	; 0x80
    2646:	4698      	mov	r8, r3
    2648:	2400      	movs	r4, #0
    264a:	032d      	lsls	r5, r5, #12
    264c:	4b05      	ldr	r3, [pc, #20]	; (2664 <__aeabi_dmul+0x1dc>)
    264e:	e781      	b.n	2554 <__aeabi_dmul+0xcc>
    2650:	465d      	mov	r5, fp
    2652:	4643      	mov	r3, r8
    2654:	9a01      	ldr	r2, [sp, #4]
    2656:	e76f      	b.n	2538 <__aeabi_dmul+0xb0>
    2658:	465d      	mov	r5, fp
    265a:	4643      	mov	r3, r8
    265c:	0021      	movs	r1, r4
    265e:	9a01      	ldr	r2, [sp, #4]
    2660:	e76a      	b.n	2538 <__aeabi_dmul+0xb0>
    2662:	46c0      	nop			; (mov r8, r8)
    2664:	000007ff 	.word	0x000007ff
    2668:	fffffc01 	.word	0xfffffc01
    266c:	00002fec 	.word	0x00002fec
    2670:	800fffff 	.word	0x800fffff
    2674:	000003f3 	.word	0x000003f3
    2678:	4642      	mov	r2, r8
    267a:	0c12      	lsrs	r2, r2, #16
    267c:	4691      	mov	r9, r2
    267e:	0c1a      	lsrs	r2, r3, #16
    2680:	4694      	mov	ip, r2
    2682:	4642      	mov	r2, r8
    2684:	0417      	lsls	r7, r2, #16
    2686:	464a      	mov	r2, r9
    2688:	041b      	lsls	r3, r3, #16
    268a:	0c1b      	lsrs	r3, r3, #16
    268c:	435a      	muls	r2, r3
    268e:	4660      	mov	r0, ip
    2690:	4690      	mov	r8, r2
    2692:	464a      	mov	r2, r9
    2694:	4342      	muls	r2, r0
    2696:	0010      	movs	r0, r2
    2698:	9203      	str	r2, [sp, #12]
    269a:	4662      	mov	r2, ip
    269c:	001c      	movs	r4, r3
    269e:	0c3f      	lsrs	r7, r7, #16
    26a0:	437a      	muls	r2, r7
    26a2:	437c      	muls	r4, r7
    26a4:	4442      	add	r2, r8
    26a6:	9201      	str	r2, [sp, #4]
    26a8:	0c22      	lsrs	r2, r4, #16
    26aa:	4692      	mov	sl, r2
    26ac:	9a01      	ldr	r2, [sp, #4]
    26ae:	4452      	add	r2, sl
    26b0:	4590      	cmp	r8, r2
    26b2:	d906      	bls.n	26c2 <__aeabi_dmul+0x23a>
    26b4:	4682      	mov	sl, r0
    26b6:	2080      	movs	r0, #128	; 0x80
    26b8:	0240      	lsls	r0, r0, #9
    26ba:	4680      	mov	r8, r0
    26bc:	44c2      	add	sl, r8
    26be:	4650      	mov	r0, sl
    26c0:	9003      	str	r0, [sp, #12]
    26c2:	0c10      	lsrs	r0, r2, #16
    26c4:	9004      	str	r0, [sp, #16]
    26c6:	4648      	mov	r0, r9
    26c8:	0424      	lsls	r4, r4, #16
    26ca:	0c24      	lsrs	r4, r4, #16
    26cc:	0412      	lsls	r2, r2, #16
    26ce:	1912      	adds	r2, r2, r4
    26d0:	9205      	str	r2, [sp, #20]
    26d2:	0c2a      	lsrs	r2, r5, #16
    26d4:	042d      	lsls	r5, r5, #16
    26d6:	0c2d      	lsrs	r5, r5, #16
    26d8:	4368      	muls	r0, r5
    26da:	002c      	movs	r4, r5
    26dc:	4682      	mov	sl, r0
    26de:	4648      	mov	r0, r9
    26e0:	437c      	muls	r4, r7
    26e2:	4350      	muls	r0, r2
    26e4:	4681      	mov	r9, r0
    26e6:	0c20      	lsrs	r0, r4, #16
    26e8:	4680      	mov	r8, r0
    26ea:	4357      	muls	r7, r2
    26ec:	4457      	add	r7, sl
    26ee:	4447      	add	r7, r8
    26f0:	45ba      	cmp	sl, r7
    26f2:	d903      	bls.n	26fc <__aeabi_dmul+0x274>
    26f4:	2080      	movs	r0, #128	; 0x80
    26f6:	0240      	lsls	r0, r0, #9
    26f8:	4680      	mov	r8, r0
    26fa:	44c1      	add	r9, r8
    26fc:	0c38      	lsrs	r0, r7, #16
    26fe:	043f      	lsls	r7, r7, #16
    2700:	46b8      	mov	r8, r7
    2702:	4448      	add	r0, r9
    2704:	0424      	lsls	r4, r4, #16
    2706:	0c24      	lsrs	r4, r4, #16
    2708:	9001      	str	r0, [sp, #4]
    270a:	9804      	ldr	r0, [sp, #16]
    270c:	44a0      	add	r8, r4
    270e:	4440      	add	r0, r8
    2710:	9004      	str	r0, [sp, #16]
    2712:	4658      	mov	r0, fp
    2714:	0c00      	lsrs	r0, r0, #16
    2716:	4681      	mov	r9, r0
    2718:	4658      	mov	r0, fp
    271a:	0404      	lsls	r4, r0, #16
    271c:	0c20      	lsrs	r0, r4, #16
    271e:	4682      	mov	sl, r0
    2720:	0007      	movs	r7, r0
    2722:	4648      	mov	r0, r9
    2724:	435f      	muls	r7, r3
    2726:	464c      	mov	r4, r9
    2728:	4343      	muls	r3, r0
    272a:	4660      	mov	r0, ip
    272c:	4360      	muls	r0, r4
    272e:	4664      	mov	r4, ip
    2730:	4683      	mov	fp, r0
    2732:	4650      	mov	r0, sl
    2734:	4344      	muls	r4, r0
    2736:	0c38      	lsrs	r0, r7, #16
    2738:	4684      	mov	ip, r0
    273a:	18e4      	adds	r4, r4, r3
    273c:	4464      	add	r4, ip
    273e:	42a3      	cmp	r3, r4
    2740:	d903      	bls.n	274a <__aeabi_dmul+0x2c2>
    2742:	2380      	movs	r3, #128	; 0x80
    2744:	025b      	lsls	r3, r3, #9
    2746:	469c      	mov	ip, r3
    2748:	44e3      	add	fp, ip
    274a:	4648      	mov	r0, r9
    274c:	043f      	lsls	r7, r7, #16
    274e:	0c23      	lsrs	r3, r4, #16
    2750:	0c3f      	lsrs	r7, r7, #16
    2752:	0424      	lsls	r4, r4, #16
    2754:	19e4      	adds	r4, r4, r7
    2756:	4657      	mov	r7, sl
    2758:	4368      	muls	r0, r5
    275a:	436f      	muls	r7, r5
    275c:	4684      	mov	ip, r0
    275e:	464d      	mov	r5, r9
    2760:	4650      	mov	r0, sl
    2762:	4355      	muls	r5, r2
    2764:	4342      	muls	r2, r0
    2766:	0c38      	lsrs	r0, r7, #16
    2768:	4681      	mov	r9, r0
    276a:	4462      	add	r2, ip
    276c:	444a      	add	r2, r9
    276e:	445b      	add	r3, fp
    2770:	4594      	cmp	ip, r2
    2772:	d903      	bls.n	277c <__aeabi_dmul+0x2f4>
    2774:	2080      	movs	r0, #128	; 0x80
    2776:	0240      	lsls	r0, r0, #9
    2778:	4684      	mov	ip, r0
    277a:	4465      	add	r5, ip
    277c:	9803      	ldr	r0, [sp, #12]
    277e:	043f      	lsls	r7, r7, #16
    2780:	4683      	mov	fp, r0
    2782:	9804      	ldr	r0, [sp, #16]
    2784:	0c3f      	lsrs	r7, r7, #16
    2786:	4684      	mov	ip, r0
    2788:	44e3      	add	fp, ip
    278a:	45c3      	cmp	fp, r8
    278c:	4180      	sbcs	r0, r0
    278e:	4240      	negs	r0, r0
    2790:	4682      	mov	sl, r0
    2792:	0410      	lsls	r0, r2, #16
    2794:	4684      	mov	ip, r0
    2796:	9801      	ldr	r0, [sp, #4]
    2798:	4467      	add	r7, ip
    279a:	4684      	mov	ip, r0
    279c:	4467      	add	r7, ip
    279e:	44a3      	add	fp, r4
    27a0:	46bc      	mov	ip, r7
    27a2:	45a3      	cmp	fp, r4
    27a4:	41a4      	sbcs	r4, r4
    27a6:	4699      	mov	r9, r3
    27a8:	44d4      	add	ip, sl
    27aa:	4264      	negs	r4, r4
    27ac:	4287      	cmp	r7, r0
    27ae:	41bf      	sbcs	r7, r7
    27b0:	45d4      	cmp	ip, sl
    27b2:	4180      	sbcs	r0, r0
    27b4:	44e1      	add	r9, ip
    27b6:	46a0      	mov	r8, r4
    27b8:	4599      	cmp	r9, r3
    27ba:	419b      	sbcs	r3, r3
    27bc:	427f      	negs	r7, r7
    27be:	4240      	negs	r0, r0
    27c0:	44c8      	add	r8, r9
    27c2:	4307      	orrs	r7, r0
    27c4:	0c12      	lsrs	r2, r2, #16
    27c6:	18ba      	adds	r2, r7, r2
    27c8:	45a0      	cmp	r8, r4
    27ca:	41a4      	sbcs	r4, r4
    27cc:	425f      	negs	r7, r3
    27ce:	003b      	movs	r3, r7
    27d0:	4264      	negs	r4, r4
    27d2:	4323      	orrs	r3, r4
    27d4:	18d7      	adds	r7, r2, r3
    27d6:	4643      	mov	r3, r8
    27d8:	197d      	adds	r5, r7, r5
    27da:	0ddb      	lsrs	r3, r3, #23
    27dc:	026d      	lsls	r5, r5, #9
    27de:	431d      	orrs	r5, r3
    27e0:	465b      	mov	r3, fp
    27e2:	025a      	lsls	r2, r3, #9
    27e4:	9b05      	ldr	r3, [sp, #20]
    27e6:	431a      	orrs	r2, r3
    27e8:	1e53      	subs	r3, r2, #1
    27ea:	419a      	sbcs	r2, r3
    27ec:	465b      	mov	r3, fp
    27ee:	0ddb      	lsrs	r3, r3, #23
    27f0:	431a      	orrs	r2, r3
    27f2:	4643      	mov	r3, r8
    27f4:	025b      	lsls	r3, r3, #9
    27f6:	4313      	orrs	r3, r2
    27f8:	01ea      	lsls	r2, r5, #7
    27fa:	d507      	bpl.n	280c <__aeabi_dmul+0x384>
    27fc:	2201      	movs	r2, #1
    27fe:	085c      	lsrs	r4, r3, #1
    2800:	4013      	ands	r3, r2
    2802:	4323      	orrs	r3, r4
    2804:	07ea      	lsls	r2, r5, #31
    2806:	9e02      	ldr	r6, [sp, #8]
    2808:	4313      	orrs	r3, r2
    280a:	086d      	lsrs	r5, r5, #1
    280c:	4a57      	ldr	r2, [pc, #348]	; (296c <__aeabi_dmul+0x4e4>)
    280e:	18b2      	adds	r2, r6, r2
    2810:	2a00      	cmp	r2, #0
    2812:	dd4b      	ble.n	28ac <__aeabi_dmul+0x424>
    2814:	0758      	lsls	r0, r3, #29
    2816:	d009      	beq.n	282c <__aeabi_dmul+0x3a4>
    2818:	200f      	movs	r0, #15
    281a:	4018      	ands	r0, r3
    281c:	2804      	cmp	r0, #4
    281e:	d005      	beq.n	282c <__aeabi_dmul+0x3a4>
    2820:	1d18      	adds	r0, r3, #4
    2822:	4298      	cmp	r0, r3
    2824:	419b      	sbcs	r3, r3
    2826:	425b      	negs	r3, r3
    2828:	18ed      	adds	r5, r5, r3
    282a:	0003      	movs	r3, r0
    282c:	01e8      	lsls	r0, r5, #7
    282e:	d504      	bpl.n	283a <__aeabi_dmul+0x3b2>
    2830:	4a4f      	ldr	r2, [pc, #316]	; (2970 <__aeabi_dmul+0x4e8>)
    2832:	4015      	ands	r5, r2
    2834:	2280      	movs	r2, #128	; 0x80
    2836:	00d2      	lsls	r2, r2, #3
    2838:	18b2      	adds	r2, r6, r2
    283a:	484e      	ldr	r0, [pc, #312]	; (2974 <__aeabi_dmul+0x4ec>)
    283c:	4282      	cmp	r2, r0
    283e:	dd00      	ble.n	2842 <__aeabi_dmul+0x3ba>
    2840:	e6e7      	b.n	2612 <__aeabi_dmul+0x18a>
    2842:	2401      	movs	r4, #1
    2844:	08db      	lsrs	r3, r3, #3
    2846:	0768      	lsls	r0, r5, #29
    2848:	4318      	orrs	r0, r3
    284a:	026d      	lsls	r5, r5, #9
    284c:	0553      	lsls	r3, r2, #21
    284e:	4680      	mov	r8, r0
    2850:	0b2d      	lsrs	r5, r5, #12
    2852:	0d5b      	lsrs	r3, r3, #21
    2854:	400c      	ands	r4, r1
    2856:	e67d      	b.n	2554 <__aeabi_dmul+0xcc>
    2858:	2280      	movs	r2, #128	; 0x80
    285a:	4659      	mov	r1, fp
    285c:	0312      	lsls	r2, r2, #12
    285e:	4211      	tst	r1, r2
    2860:	d008      	beq.n	2874 <__aeabi_dmul+0x3ec>
    2862:	4215      	tst	r5, r2
    2864:	d106      	bne.n	2874 <__aeabi_dmul+0x3ec>
    2866:	4315      	orrs	r5, r2
    2868:	032d      	lsls	r5, r5, #12
    286a:	4698      	mov	r8, r3
    286c:	0b2d      	lsrs	r5, r5, #12
    286e:	464c      	mov	r4, r9
    2870:	4b41      	ldr	r3, [pc, #260]	; (2978 <__aeabi_dmul+0x4f0>)
    2872:	e66f      	b.n	2554 <__aeabi_dmul+0xcc>
    2874:	465d      	mov	r5, fp
    2876:	4315      	orrs	r5, r2
    2878:	032d      	lsls	r5, r5, #12
    287a:	0b2d      	lsrs	r5, r5, #12
    287c:	4b3e      	ldr	r3, [pc, #248]	; (2978 <__aeabi_dmul+0x4f0>)
    287e:	e669      	b.n	2554 <__aeabi_dmul+0xcc>
    2880:	0003      	movs	r3, r0
    2882:	4655      	mov	r5, sl
    2884:	3b28      	subs	r3, #40	; 0x28
    2886:	409d      	lsls	r5, r3
    2888:	2300      	movs	r3, #0
    288a:	e6bc      	b.n	2606 <__aeabi_dmul+0x17e>
    288c:	4650      	mov	r0, sl
    288e:	f000 f997 	bl	2bc0 <__clzsi2>
    2892:	3020      	adds	r0, #32
    2894:	e6a8      	b.n	25e8 <__aeabi_dmul+0x160>
    2896:	0003      	movs	r3, r0
    2898:	3b28      	subs	r3, #40	; 0x28
    289a:	409f      	lsls	r7, r3
    289c:	2300      	movs	r3, #0
    289e:	46bb      	mov	fp, r7
    28a0:	4698      	mov	r8, r3
    28a2:	e689      	b.n	25b8 <__aeabi_dmul+0x130>
    28a4:	f000 f98c 	bl	2bc0 <__clzsi2>
    28a8:	3020      	adds	r0, #32
    28aa:	e673      	b.n	2594 <__aeabi_dmul+0x10c>
    28ac:	2401      	movs	r4, #1
    28ae:	1aa6      	subs	r6, r4, r2
    28b0:	2e38      	cmp	r6, #56	; 0x38
    28b2:	dd07      	ble.n	28c4 <__aeabi_dmul+0x43c>
    28b4:	2200      	movs	r2, #0
    28b6:	400c      	ands	r4, r1
    28b8:	2300      	movs	r3, #0
    28ba:	2500      	movs	r5, #0
    28bc:	4690      	mov	r8, r2
    28be:	e649      	b.n	2554 <__aeabi_dmul+0xcc>
    28c0:	9e02      	ldr	r6, [sp, #8]
    28c2:	e7a3      	b.n	280c <__aeabi_dmul+0x384>
    28c4:	2e1f      	cmp	r6, #31
    28c6:	dc20      	bgt.n	290a <__aeabi_dmul+0x482>
    28c8:	2220      	movs	r2, #32
    28ca:	002c      	movs	r4, r5
    28cc:	0018      	movs	r0, r3
    28ce:	1b92      	subs	r2, r2, r6
    28d0:	40f0      	lsrs	r0, r6
    28d2:	4094      	lsls	r4, r2
    28d4:	4093      	lsls	r3, r2
    28d6:	4304      	orrs	r4, r0
    28d8:	1e58      	subs	r0, r3, #1
    28da:	4183      	sbcs	r3, r0
    28dc:	431c      	orrs	r4, r3
    28de:	40f5      	lsrs	r5, r6
    28e0:	0763      	lsls	r3, r4, #29
    28e2:	d009      	beq.n	28f8 <__aeabi_dmul+0x470>
    28e4:	230f      	movs	r3, #15
    28e6:	4023      	ands	r3, r4
    28e8:	2b04      	cmp	r3, #4
    28ea:	d005      	beq.n	28f8 <__aeabi_dmul+0x470>
    28ec:	0023      	movs	r3, r4
    28ee:	1d1c      	adds	r4, r3, #4
    28f0:	429c      	cmp	r4, r3
    28f2:	4192      	sbcs	r2, r2
    28f4:	4252      	negs	r2, r2
    28f6:	18ad      	adds	r5, r5, r2
    28f8:	022b      	lsls	r3, r5, #8
    28fa:	d51f      	bpl.n	293c <__aeabi_dmul+0x4b4>
    28fc:	2401      	movs	r4, #1
    28fe:	2200      	movs	r2, #0
    2900:	400c      	ands	r4, r1
    2902:	2301      	movs	r3, #1
    2904:	2500      	movs	r5, #0
    2906:	4690      	mov	r8, r2
    2908:	e624      	b.n	2554 <__aeabi_dmul+0xcc>
    290a:	201f      	movs	r0, #31
    290c:	002c      	movs	r4, r5
    290e:	4240      	negs	r0, r0
    2910:	1a82      	subs	r2, r0, r2
    2912:	40d4      	lsrs	r4, r2
    2914:	2e20      	cmp	r6, #32
    2916:	d01c      	beq.n	2952 <__aeabi_dmul+0x4ca>
    2918:	2240      	movs	r2, #64	; 0x40
    291a:	1b96      	subs	r6, r2, r6
    291c:	40b5      	lsls	r5, r6
    291e:	432b      	orrs	r3, r5
    2920:	1e58      	subs	r0, r3, #1
    2922:	4183      	sbcs	r3, r0
    2924:	2007      	movs	r0, #7
    2926:	4323      	orrs	r3, r4
    2928:	4018      	ands	r0, r3
    292a:	2500      	movs	r5, #0
    292c:	2800      	cmp	r0, #0
    292e:	d009      	beq.n	2944 <__aeabi_dmul+0x4bc>
    2930:	220f      	movs	r2, #15
    2932:	2500      	movs	r5, #0
    2934:	401a      	ands	r2, r3
    2936:	001c      	movs	r4, r3
    2938:	2a04      	cmp	r2, #4
    293a:	d1d8      	bne.n	28ee <__aeabi_dmul+0x466>
    293c:	0023      	movs	r3, r4
    293e:	0768      	lsls	r0, r5, #29
    2940:	026d      	lsls	r5, r5, #9
    2942:	0b2d      	lsrs	r5, r5, #12
    2944:	2401      	movs	r4, #1
    2946:	08db      	lsrs	r3, r3, #3
    2948:	4303      	orrs	r3, r0
    294a:	4698      	mov	r8, r3
    294c:	400c      	ands	r4, r1
    294e:	2300      	movs	r3, #0
    2950:	e600      	b.n	2554 <__aeabi_dmul+0xcc>
    2952:	2500      	movs	r5, #0
    2954:	e7e3      	b.n	291e <__aeabi_dmul+0x496>
    2956:	2280      	movs	r2, #128	; 0x80
    2958:	2401      	movs	r4, #1
    295a:	0312      	lsls	r2, r2, #12
    295c:	4315      	orrs	r5, r2
    295e:	032d      	lsls	r5, r5, #12
    2960:	4698      	mov	r8, r3
    2962:	0b2d      	lsrs	r5, r5, #12
    2964:	400c      	ands	r4, r1
    2966:	4b04      	ldr	r3, [pc, #16]	; (2978 <__aeabi_dmul+0x4f0>)
    2968:	e5f4      	b.n	2554 <__aeabi_dmul+0xcc>
    296a:	46c0      	nop			; (mov r8, r8)
    296c:	000003ff 	.word	0x000003ff
    2970:	feffffff 	.word	0xfeffffff
    2974:	000007fe 	.word	0x000007fe
    2978:	000007ff 	.word	0x000007ff

0000297c <__aeabi_i2d>:
    297c:	b570      	push	{r4, r5, r6, lr}
    297e:	2800      	cmp	r0, #0
    2980:	d030      	beq.n	29e4 <__aeabi_i2d+0x68>
    2982:	17c3      	asrs	r3, r0, #31
    2984:	18c4      	adds	r4, r0, r3
    2986:	405c      	eors	r4, r3
    2988:	0fc5      	lsrs	r5, r0, #31
    298a:	0020      	movs	r0, r4
    298c:	f000 f918 	bl	2bc0 <__clzsi2>
    2990:	4b17      	ldr	r3, [pc, #92]	; (29f0 <__aeabi_i2d+0x74>)
    2992:	4a18      	ldr	r2, [pc, #96]	; (29f4 <__aeabi_i2d+0x78>)
    2994:	1a1b      	subs	r3, r3, r0
    2996:	1ad2      	subs	r2, r2, r3
    2998:	2a1f      	cmp	r2, #31
    299a:	dd18      	ble.n	29ce <__aeabi_i2d+0x52>
    299c:	4a16      	ldr	r2, [pc, #88]	; (29f8 <__aeabi_i2d+0x7c>)
    299e:	1ad2      	subs	r2, r2, r3
    29a0:	4094      	lsls	r4, r2
    29a2:	2200      	movs	r2, #0
    29a4:	0324      	lsls	r4, r4, #12
    29a6:	055b      	lsls	r3, r3, #21
    29a8:	0b24      	lsrs	r4, r4, #12
    29aa:	0d5b      	lsrs	r3, r3, #21
    29ac:	2100      	movs	r1, #0
    29ae:	0010      	movs	r0, r2
    29b0:	0324      	lsls	r4, r4, #12
    29b2:	0d0a      	lsrs	r2, r1, #20
    29b4:	0512      	lsls	r2, r2, #20
    29b6:	0b24      	lsrs	r4, r4, #12
    29b8:	4314      	orrs	r4, r2
    29ba:	4a10      	ldr	r2, [pc, #64]	; (29fc <__aeabi_i2d+0x80>)
    29bc:	051b      	lsls	r3, r3, #20
    29be:	4014      	ands	r4, r2
    29c0:	431c      	orrs	r4, r3
    29c2:	0064      	lsls	r4, r4, #1
    29c4:	07ed      	lsls	r5, r5, #31
    29c6:	0864      	lsrs	r4, r4, #1
    29c8:	432c      	orrs	r4, r5
    29ca:	0021      	movs	r1, r4
    29cc:	bd70      	pop	{r4, r5, r6, pc}
    29ce:	0021      	movs	r1, r4
    29d0:	4091      	lsls	r1, r2
    29d2:	000a      	movs	r2, r1
    29d4:	210b      	movs	r1, #11
    29d6:	1a08      	subs	r0, r1, r0
    29d8:	40c4      	lsrs	r4, r0
    29da:	055b      	lsls	r3, r3, #21
    29dc:	0324      	lsls	r4, r4, #12
    29de:	0b24      	lsrs	r4, r4, #12
    29e0:	0d5b      	lsrs	r3, r3, #21
    29e2:	e7e3      	b.n	29ac <__aeabi_i2d+0x30>
    29e4:	2500      	movs	r5, #0
    29e6:	2300      	movs	r3, #0
    29e8:	2400      	movs	r4, #0
    29ea:	2200      	movs	r2, #0
    29ec:	e7de      	b.n	29ac <__aeabi_i2d+0x30>
    29ee:	46c0      	nop			; (mov r8, r8)
    29f0:	0000041e 	.word	0x0000041e
    29f4:	00000433 	.word	0x00000433
    29f8:	00000413 	.word	0x00000413
    29fc:	800fffff 	.word	0x800fffff

00002a00 <__aeabi_f2d>:
    2a00:	0042      	lsls	r2, r0, #1
    2a02:	0e12      	lsrs	r2, r2, #24
    2a04:	1c51      	adds	r1, r2, #1
    2a06:	0243      	lsls	r3, r0, #9
    2a08:	b2c9      	uxtb	r1, r1
    2a0a:	b570      	push	{r4, r5, r6, lr}
    2a0c:	0a5d      	lsrs	r5, r3, #9
    2a0e:	0fc4      	lsrs	r4, r0, #31
    2a10:	2901      	cmp	r1, #1
    2a12:	dd15      	ble.n	2a40 <__aeabi_f2d+0x40>
    2a14:	21e0      	movs	r1, #224	; 0xe0
    2a16:	0089      	lsls	r1, r1, #2
    2a18:	468c      	mov	ip, r1
    2a1a:	076d      	lsls	r5, r5, #29
    2a1c:	0b1b      	lsrs	r3, r3, #12
    2a1e:	4462      	add	r2, ip
    2a20:	2100      	movs	r1, #0
    2a22:	0028      	movs	r0, r5
    2a24:	0d0d      	lsrs	r5, r1, #20
    2a26:	052d      	lsls	r5, r5, #20
    2a28:	432b      	orrs	r3, r5
    2a2a:	4d1c      	ldr	r5, [pc, #112]	; (2a9c <__aeabi_f2d+0x9c>)
    2a2c:	0552      	lsls	r2, r2, #21
    2a2e:	402b      	ands	r3, r5
    2a30:	0852      	lsrs	r2, r2, #1
    2a32:	4313      	orrs	r3, r2
    2a34:	005b      	lsls	r3, r3, #1
    2a36:	07e4      	lsls	r4, r4, #31
    2a38:	085b      	lsrs	r3, r3, #1
    2a3a:	4323      	orrs	r3, r4
    2a3c:	0019      	movs	r1, r3
    2a3e:	bd70      	pop	{r4, r5, r6, pc}
    2a40:	2a00      	cmp	r2, #0
    2a42:	d115      	bne.n	2a70 <__aeabi_f2d+0x70>
    2a44:	2d00      	cmp	r5, #0
    2a46:	d01f      	beq.n	2a88 <__aeabi_f2d+0x88>
    2a48:	0028      	movs	r0, r5
    2a4a:	f000 f8b9 	bl	2bc0 <__clzsi2>
    2a4e:	280a      	cmp	r0, #10
    2a50:	dc1d      	bgt.n	2a8e <__aeabi_f2d+0x8e>
    2a52:	230b      	movs	r3, #11
    2a54:	002a      	movs	r2, r5
    2a56:	1a1b      	subs	r3, r3, r0
    2a58:	40da      	lsrs	r2, r3
    2a5a:	0013      	movs	r3, r2
    2a5c:	0002      	movs	r2, r0
    2a5e:	3215      	adds	r2, #21
    2a60:	4095      	lsls	r5, r2
    2a62:	4a0f      	ldr	r2, [pc, #60]	; (2aa0 <__aeabi_f2d+0xa0>)
    2a64:	031b      	lsls	r3, r3, #12
    2a66:	1a12      	subs	r2, r2, r0
    2a68:	0552      	lsls	r2, r2, #21
    2a6a:	0b1b      	lsrs	r3, r3, #12
    2a6c:	0d52      	lsrs	r2, r2, #21
    2a6e:	e7d7      	b.n	2a20 <__aeabi_f2d+0x20>
    2a70:	2d00      	cmp	r5, #0
    2a72:	d006      	beq.n	2a82 <__aeabi_f2d+0x82>
    2a74:	2280      	movs	r2, #128	; 0x80
    2a76:	0b1b      	lsrs	r3, r3, #12
    2a78:	0312      	lsls	r2, r2, #12
    2a7a:	4313      	orrs	r3, r2
    2a7c:	076d      	lsls	r5, r5, #29
    2a7e:	4a09      	ldr	r2, [pc, #36]	; (2aa4 <__aeabi_f2d+0xa4>)
    2a80:	e7ce      	b.n	2a20 <__aeabi_f2d+0x20>
    2a82:	4a08      	ldr	r2, [pc, #32]	; (2aa4 <__aeabi_f2d+0xa4>)
    2a84:	2300      	movs	r3, #0
    2a86:	e7cb      	b.n	2a20 <__aeabi_f2d+0x20>
    2a88:	2200      	movs	r2, #0
    2a8a:	2300      	movs	r3, #0
    2a8c:	e7c8      	b.n	2a20 <__aeabi_f2d+0x20>
    2a8e:	0003      	movs	r3, r0
    2a90:	3b0b      	subs	r3, #11
    2a92:	409d      	lsls	r5, r3
    2a94:	002b      	movs	r3, r5
    2a96:	2500      	movs	r5, #0
    2a98:	e7e3      	b.n	2a62 <__aeabi_f2d+0x62>
    2a9a:	46c0      	nop			; (mov r8, r8)
    2a9c:	800fffff 	.word	0x800fffff
    2aa0:	00000389 	.word	0x00000389
    2aa4:	000007ff 	.word	0x000007ff

00002aa8 <__aeabi_d2f>:
    2aa8:	004b      	lsls	r3, r1, #1
    2aaa:	b570      	push	{r4, r5, r6, lr}
    2aac:	0d5e      	lsrs	r6, r3, #21
    2aae:	030c      	lsls	r4, r1, #12
    2ab0:	1c75      	adds	r5, r6, #1
    2ab2:	0a64      	lsrs	r4, r4, #9
    2ab4:	0f42      	lsrs	r2, r0, #29
    2ab6:	056d      	lsls	r5, r5, #21
    2ab8:	4322      	orrs	r2, r4
    2aba:	0fc9      	lsrs	r1, r1, #31
    2abc:	00c4      	lsls	r4, r0, #3
    2abe:	0d6d      	lsrs	r5, r5, #21
    2ac0:	2d01      	cmp	r5, #1
    2ac2:	dd2a      	ble.n	2b1a <__aeabi_d2f+0x72>
    2ac4:	4b3b      	ldr	r3, [pc, #236]	; (2bb4 <__aeabi_d2f+0x10c>)
    2ac6:	18f3      	adds	r3, r6, r3
    2ac8:	2bfe      	cmp	r3, #254	; 0xfe
    2aca:	dc1a      	bgt.n	2b02 <__aeabi_d2f+0x5a>
    2acc:	2b00      	cmp	r3, #0
    2ace:	dd42      	ble.n	2b56 <__aeabi_d2f+0xae>
    2ad0:	0180      	lsls	r0, r0, #6
    2ad2:	1e45      	subs	r5, r0, #1
    2ad4:	41a8      	sbcs	r0, r5
    2ad6:	00d2      	lsls	r2, r2, #3
    2ad8:	4310      	orrs	r0, r2
    2ada:	0f62      	lsrs	r2, r4, #29
    2adc:	4302      	orrs	r2, r0
    2ade:	0750      	lsls	r0, r2, #29
    2ae0:	d004      	beq.n	2aec <__aeabi_d2f+0x44>
    2ae2:	200f      	movs	r0, #15
    2ae4:	4010      	ands	r0, r2
    2ae6:	2804      	cmp	r0, #4
    2ae8:	d000      	beq.n	2aec <__aeabi_d2f+0x44>
    2aea:	3204      	adds	r2, #4
    2aec:	2080      	movs	r0, #128	; 0x80
    2aee:	04c0      	lsls	r0, r0, #19
    2af0:	4010      	ands	r0, r2
    2af2:	d021      	beq.n	2b38 <__aeabi_d2f+0x90>
    2af4:	3301      	adds	r3, #1
    2af6:	2bff      	cmp	r3, #255	; 0xff
    2af8:	d003      	beq.n	2b02 <__aeabi_d2f+0x5a>
    2afa:	0192      	lsls	r2, r2, #6
    2afc:	0a52      	lsrs	r2, r2, #9
    2afe:	b2db      	uxtb	r3, r3
    2b00:	e001      	b.n	2b06 <__aeabi_d2f+0x5e>
    2b02:	23ff      	movs	r3, #255	; 0xff
    2b04:	2200      	movs	r2, #0
    2b06:	0252      	lsls	r2, r2, #9
    2b08:	0a52      	lsrs	r2, r2, #9
    2b0a:	05db      	lsls	r3, r3, #23
    2b0c:	4313      	orrs	r3, r2
    2b0e:	005b      	lsls	r3, r3, #1
    2b10:	07c9      	lsls	r1, r1, #31
    2b12:	085b      	lsrs	r3, r3, #1
    2b14:	430b      	orrs	r3, r1
    2b16:	0018      	movs	r0, r3
    2b18:	bd70      	pop	{r4, r5, r6, pc}
    2b1a:	2e00      	cmp	r6, #0
    2b1c:	d007      	beq.n	2b2e <__aeabi_d2f+0x86>
    2b1e:	4314      	orrs	r4, r2
    2b20:	d0ef      	beq.n	2b02 <__aeabi_d2f+0x5a>
    2b22:	2080      	movs	r0, #128	; 0x80
    2b24:	00d2      	lsls	r2, r2, #3
    2b26:	0480      	lsls	r0, r0, #18
    2b28:	4302      	orrs	r2, r0
    2b2a:	23ff      	movs	r3, #255	; 0xff
    2b2c:	e7d7      	b.n	2ade <__aeabi_d2f+0x36>
    2b2e:	4322      	orrs	r2, r4
    2b30:	2300      	movs	r3, #0
    2b32:	2a00      	cmp	r2, #0
    2b34:	d003      	beq.n	2b3e <__aeabi_d2f+0x96>
    2b36:	2205      	movs	r2, #5
    2b38:	08d2      	lsrs	r2, r2, #3
    2b3a:	2bff      	cmp	r3, #255	; 0xff
    2b3c:	d003      	beq.n	2b46 <__aeabi_d2f+0x9e>
    2b3e:	0252      	lsls	r2, r2, #9
    2b40:	0a52      	lsrs	r2, r2, #9
    2b42:	b2db      	uxtb	r3, r3
    2b44:	e7df      	b.n	2b06 <__aeabi_d2f+0x5e>
    2b46:	2a00      	cmp	r2, #0
    2b48:	d032      	beq.n	2bb0 <__aeabi_d2f+0x108>
    2b4a:	2080      	movs	r0, #128	; 0x80
    2b4c:	03c0      	lsls	r0, r0, #15
    2b4e:	4302      	orrs	r2, r0
    2b50:	0252      	lsls	r2, r2, #9
    2b52:	0a52      	lsrs	r2, r2, #9
    2b54:	e7d7      	b.n	2b06 <__aeabi_d2f+0x5e>
    2b56:	0018      	movs	r0, r3
    2b58:	3017      	adds	r0, #23
    2b5a:	db14      	blt.n	2b86 <__aeabi_d2f+0xde>
    2b5c:	2080      	movs	r0, #128	; 0x80
    2b5e:	0400      	lsls	r0, r0, #16
    2b60:	4302      	orrs	r2, r0
    2b62:	201e      	movs	r0, #30
    2b64:	1ac0      	subs	r0, r0, r3
    2b66:	281f      	cmp	r0, #31
    2b68:	dc0f      	bgt.n	2b8a <__aeabi_d2f+0xe2>
    2b6a:	0025      	movs	r5, r4
    2b6c:	4b12      	ldr	r3, [pc, #72]	; (2bb8 <__aeabi_d2f+0x110>)
    2b6e:	18f3      	adds	r3, r6, r3
    2b70:	409d      	lsls	r5, r3
    2b72:	1e6e      	subs	r6, r5, #1
    2b74:	41b5      	sbcs	r5, r6
    2b76:	409a      	lsls	r2, r3
    2b78:	002b      	movs	r3, r5
    2b7a:	4313      	orrs	r3, r2
    2b7c:	0022      	movs	r2, r4
    2b7e:	40c2      	lsrs	r2, r0
    2b80:	431a      	orrs	r2, r3
    2b82:	2300      	movs	r3, #0
    2b84:	e7ab      	b.n	2ade <__aeabi_d2f+0x36>
    2b86:	2300      	movs	r3, #0
    2b88:	e7d5      	b.n	2b36 <__aeabi_d2f+0x8e>
    2b8a:	2502      	movs	r5, #2
    2b8c:	426d      	negs	r5, r5
    2b8e:	1aeb      	subs	r3, r5, r3
    2b90:	0015      	movs	r5, r2
    2b92:	40dd      	lsrs	r5, r3
    2b94:	2820      	cmp	r0, #32
    2b96:	d009      	beq.n	2bac <__aeabi_d2f+0x104>
    2b98:	4b08      	ldr	r3, [pc, #32]	; (2bbc <__aeabi_d2f+0x114>)
    2b9a:	18f3      	adds	r3, r6, r3
    2b9c:	409a      	lsls	r2, r3
    2b9e:	4314      	orrs	r4, r2
    2ba0:	1e62      	subs	r2, r4, #1
    2ba2:	4194      	sbcs	r4, r2
    2ba4:	0022      	movs	r2, r4
    2ba6:	2300      	movs	r3, #0
    2ba8:	432a      	orrs	r2, r5
    2baa:	e798      	b.n	2ade <__aeabi_d2f+0x36>
    2bac:	2200      	movs	r2, #0
    2bae:	e7f6      	b.n	2b9e <__aeabi_d2f+0xf6>
    2bb0:	2200      	movs	r2, #0
    2bb2:	e7a8      	b.n	2b06 <__aeabi_d2f+0x5e>
    2bb4:	fffffc80 	.word	0xfffffc80
    2bb8:	fffffc82 	.word	0xfffffc82
    2bbc:	fffffca2 	.word	0xfffffca2

00002bc0 <__clzsi2>:
    2bc0:	211c      	movs	r1, #28
    2bc2:	2301      	movs	r3, #1
    2bc4:	041b      	lsls	r3, r3, #16
    2bc6:	4298      	cmp	r0, r3
    2bc8:	d301      	bcc.n	2bce <__clzsi2+0xe>
    2bca:	0c00      	lsrs	r0, r0, #16
    2bcc:	3910      	subs	r1, #16
    2bce:	0a1b      	lsrs	r3, r3, #8
    2bd0:	4298      	cmp	r0, r3
    2bd2:	d301      	bcc.n	2bd8 <__clzsi2+0x18>
    2bd4:	0a00      	lsrs	r0, r0, #8
    2bd6:	3908      	subs	r1, #8
    2bd8:	091b      	lsrs	r3, r3, #4
    2bda:	4298      	cmp	r0, r3
    2bdc:	d301      	bcc.n	2be2 <__clzsi2+0x22>
    2bde:	0900      	lsrs	r0, r0, #4
    2be0:	3904      	subs	r1, #4
    2be2:	a202      	add	r2, pc, #8	; (adr r2, 2bec <__clzsi2+0x2c>)
    2be4:	5c10      	ldrb	r0, [r2, r0]
    2be6:	1840      	adds	r0, r0, r1
    2be8:	4770      	bx	lr
    2bea:	46c0      	nop			; (mov r8, r8)
    2bec:	02020304 	.word	0x02020304
    2bf0:	01010101 	.word	0x01010101
	...

00002bfc <__libc_init_array>:
    2bfc:	b570      	push	{r4, r5, r6, lr}
    2bfe:	4e0d      	ldr	r6, [pc, #52]	; (2c34 <__libc_init_array+0x38>)
    2c00:	4d0d      	ldr	r5, [pc, #52]	; (2c38 <__libc_init_array+0x3c>)
    2c02:	2400      	movs	r4, #0
    2c04:	1bad      	subs	r5, r5, r6
    2c06:	10ad      	asrs	r5, r5, #2
    2c08:	d005      	beq.n	2c16 <__libc_init_array+0x1a>
    2c0a:	00a3      	lsls	r3, r4, #2
    2c0c:	58f3      	ldr	r3, [r6, r3]
    2c0e:	3401      	adds	r4, #1
    2c10:	4798      	blx	r3
    2c12:	42a5      	cmp	r5, r4
    2c14:	d1f9      	bne.n	2c0a <__libc_init_array+0xe>
    2c16:	f000 fa0d 	bl	3034 <_init>
    2c1a:	4e08      	ldr	r6, [pc, #32]	; (2c3c <__libc_init_array+0x40>)
    2c1c:	4d08      	ldr	r5, [pc, #32]	; (2c40 <__libc_init_array+0x44>)
    2c1e:	2400      	movs	r4, #0
    2c20:	1bad      	subs	r5, r5, r6
    2c22:	10ad      	asrs	r5, r5, #2
    2c24:	d005      	beq.n	2c32 <__libc_init_array+0x36>
    2c26:	00a3      	lsls	r3, r4, #2
    2c28:	58f3      	ldr	r3, [r6, r3]
    2c2a:	3401      	adds	r4, #1
    2c2c:	4798      	blx	r3
    2c2e:	42a5      	cmp	r5, r4
    2c30:	d1f9      	bne.n	2c26 <__libc_init_array+0x2a>
    2c32:	bd70      	pop	{r4, r5, r6, pc}
    2c34:	00003040 	.word	0x00003040
    2c38:	00003040 	.word	0x00003040
    2c3c:	00003040 	.word	0x00003040
    2c40:	00003048 	.word	0x00003048

00002c44 <memset>:
    2c44:	b570      	push	{r4, r5, r6, lr}
    2c46:	0783      	lsls	r3, r0, #30
    2c48:	d03f      	beq.n	2cca <memset+0x86>
    2c4a:	1e54      	subs	r4, r2, #1
    2c4c:	2a00      	cmp	r2, #0
    2c4e:	d03b      	beq.n	2cc8 <memset+0x84>
    2c50:	b2ce      	uxtb	r6, r1
    2c52:	0003      	movs	r3, r0
    2c54:	2503      	movs	r5, #3
    2c56:	e003      	b.n	2c60 <memset+0x1c>
    2c58:	1e62      	subs	r2, r4, #1
    2c5a:	2c00      	cmp	r4, #0
    2c5c:	d034      	beq.n	2cc8 <memset+0x84>
    2c5e:	0014      	movs	r4, r2
    2c60:	3301      	adds	r3, #1
    2c62:	1e5a      	subs	r2, r3, #1
    2c64:	7016      	strb	r6, [r2, #0]
    2c66:	422b      	tst	r3, r5
    2c68:	d1f6      	bne.n	2c58 <memset+0x14>
    2c6a:	2c03      	cmp	r4, #3
    2c6c:	d924      	bls.n	2cb8 <memset+0x74>
    2c6e:	25ff      	movs	r5, #255	; 0xff
    2c70:	400d      	ands	r5, r1
    2c72:	022a      	lsls	r2, r5, #8
    2c74:	4315      	orrs	r5, r2
    2c76:	042a      	lsls	r2, r5, #16
    2c78:	4315      	orrs	r5, r2
    2c7a:	2c0f      	cmp	r4, #15
    2c7c:	d911      	bls.n	2ca2 <memset+0x5e>
    2c7e:	0026      	movs	r6, r4
    2c80:	3e10      	subs	r6, #16
    2c82:	0936      	lsrs	r6, r6, #4
    2c84:	3601      	adds	r6, #1
    2c86:	0136      	lsls	r6, r6, #4
    2c88:	001a      	movs	r2, r3
    2c8a:	199b      	adds	r3, r3, r6
    2c8c:	6015      	str	r5, [r2, #0]
    2c8e:	6055      	str	r5, [r2, #4]
    2c90:	6095      	str	r5, [r2, #8]
    2c92:	60d5      	str	r5, [r2, #12]
    2c94:	3210      	adds	r2, #16
    2c96:	4293      	cmp	r3, r2
    2c98:	d1f8      	bne.n	2c8c <memset+0x48>
    2c9a:	220f      	movs	r2, #15
    2c9c:	4014      	ands	r4, r2
    2c9e:	2c03      	cmp	r4, #3
    2ca0:	d90a      	bls.n	2cb8 <memset+0x74>
    2ca2:	1f26      	subs	r6, r4, #4
    2ca4:	08b6      	lsrs	r6, r6, #2
    2ca6:	3601      	adds	r6, #1
    2ca8:	00b6      	lsls	r6, r6, #2
    2caa:	001a      	movs	r2, r3
    2cac:	199b      	adds	r3, r3, r6
    2cae:	c220      	stmia	r2!, {r5}
    2cb0:	4293      	cmp	r3, r2
    2cb2:	d1fc      	bne.n	2cae <memset+0x6a>
    2cb4:	2203      	movs	r2, #3
    2cb6:	4014      	ands	r4, r2
    2cb8:	2c00      	cmp	r4, #0
    2cba:	d005      	beq.n	2cc8 <memset+0x84>
    2cbc:	b2c9      	uxtb	r1, r1
    2cbe:	191c      	adds	r4, r3, r4
    2cc0:	7019      	strb	r1, [r3, #0]
    2cc2:	3301      	adds	r3, #1
    2cc4:	429c      	cmp	r4, r3
    2cc6:	d1fb      	bne.n	2cc0 <memset+0x7c>
    2cc8:	bd70      	pop	{r4, r5, r6, pc}
    2cca:	0014      	movs	r4, r2
    2ccc:	0003      	movs	r3, r0
    2cce:	e7cc      	b.n	2c6a <memset+0x26>

00002cd0 <register_fini>:
    2cd0:	4b03      	ldr	r3, [pc, #12]	; (2ce0 <register_fini+0x10>)
    2cd2:	b510      	push	{r4, lr}
    2cd4:	2b00      	cmp	r3, #0
    2cd6:	d002      	beq.n	2cde <register_fini+0xe>
    2cd8:	4802      	ldr	r0, [pc, #8]	; (2ce4 <register_fini+0x14>)
    2cda:	f000 f805 	bl	2ce8 <atexit>
    2cde:	bd10      	pop	{r4, pc}
    2ce0:	00000000 	.word	0x00000000
    2ce4:	00002cf9 	.word	0x00002cf9

00002ce8 <atexit>:
    2ce8:	b510      	push	{r4, lr}
    2cea:	0001      	movs	r1, r0
    2cec:	2300      	movs	r3, #0
    2cee:	2200      	movs	r2, #0
    2cf0:	2000      	movs	r0, #0
    2cf2:	f000 f81b 	bl	2d2c <__register_exitproc>
    2cf6:	bd10      	pop	{r4, pc}

00002cf8 <__libc_fini_array>:
    2cf8:	b570      	push	{r4, r5, r6, lr}
    2cfa:	4b09      	ldr	r3, [pc, #36]	; (2d20 <__libc_fini_array+0x28>)
    2cfc:	4c09      	ldr	r4, [pc, #36]	; (2d24 <__libc_fini_array+0x2c>)
    2cfe:	1ae4      	subs	r4, r4, r3
    2d00:	10a4      	asrs	r4, r4, #2
    2d02:	d009      	beq.n	2d18 <__libc_fini_array+0x20>
    2d04:	4a08      	ldr	r2, [pc, #32]	; (2d28 <__libc_fini_array+0x30>)
    2d06:	18a5      	adds	r5, r4, r2
    2d08:	00ad      	lsls	r5, r5, #2
    2d0a:	18ed      	adds	r5, r5, r3
    2d0c:	682b      	ldr	r3, [r5, #0]
    2d0e:	3c01      	subs	r4, #1
    2d10:	4798      	blx	r3
    2d12:	3d04      	subs	r5, #4
    2d14:	2c00      	cmp	r4, #0
    2d16:	d1f9      	bne.n	2d0c <__libc_fini_array+0x14>
    2d18:	f000 f996 	bl	3048 <_fini>
    2d1c:	bd70      	pop	{r4, r5, r6, pc}
    2d1e:	46c0      	nop			; (mov r8, r8)
    2d20:	00003054 	.word	0x00003054
    2d24:	00003058 	.word	0x00003058
    2d28:	3fffffff 	.word	0x3fffffff

00002d2c <__register_exitproc>:
    2d2c:	b5f8      	push	{r3, r4, r5, r6, r7, lr}
    2d2e:	4644      	mov	r4, r8
    2d30:	465f      	mov	r7, fp
    2d32:	4656      	mov	r6, sl
    2d34:	464d      	mov	r5, r9
    2d36:	469b      	mov	fp, r3
    2d38:	4b2f      	ldr	r3, [pc, #188]	; (2df8 <__register_exitproc+0xcc>)
    2d3a:	b4f0      	push	{r4, r5, r6, r7}
    2d3c:	681c      	ldr	r4, [r3, #0]
    2d3e:	23a4      	movs	r3, #164	; 0xa4
    2d40:	005b      	lsls	r3, r3, #1
    2d42:	0005      	movs	r5, r0
    2d44:	58e0      	ldr	r0, [r4, r3]
    2d46:	000e      	movs	r6, r1
    2d48:	4690      	mov	r8, r2
    2d4a:	2800      	cmp	r0, #0
    2d4c:	d04b      	beq.n	2de6 <__register_exitproc+0xba>
    2d4e:	6843      	ldr	r3, [r0, #4]
    2d50:	2b1f      	cmp	r3, #31
    2d52:	dc0d      	bgt.n	2d70 <__register_exitproc+0x44>
    2d54:	1c5c      	adds	r4, r3, #1
    2d56:	2d00      	cmp	r5, #0
    2d58:	d121      	bne.n	2d9e <__register_exitproc+0x72>
    2d5a:	3302      	adds	r3, #2
    2d5c:	009b      	lsls	r3, r3, #2
    2d5e:	6044      	str	r4, [r0, #4]
    2d60:	501e      	str	r6, [r3, r0]
    2d62:	2000      	movs	r0, #0
    2d64:	bc3c      	pop	{r2, r3, r4, r5}
    2d66:	4690      	mov	r8, r2
    2d68:	4699      	mov	r9, r3
    2d6a:	46a2      	mov	sl, r4
    2d6c:	46ab      	mov	fp, r5
    2d6e:	bdf8      	pop	{r3, r4, r5, r6, r7, pc}
    2d70:	4b22      	ldr	r3, [pc, #136]	; (2dfc <__register_exitproc+0xd0>)
    2d72:	2b00      	cmp	r3, #0
    2d74:	d03c      	beq.n	2df0 <__register_exitproc+0xc4>
    2d76:	20c8      	movs	r0, #200	; 0xc8
    2d78:	0040      	lsls	r0, r0, #1
    2d7a:	e000      	b.n	2d7e <__register_exitproc+0x52>
    2d7c:	bf00      	nop
    2d7e:	2800      	cmp	r0, #0
    2d80:	d036      	beq.n	2df0 <__register_exitproc+0xc4>
    2d82:	22a4      	movs	r2, #164	; 0xa4
    2d84:	2300      	movs	r3, #0
    2d86:	0052      	lsls	r2, r2, #1
    2d88:	58a1      	ldr	r1, [r4, r2]
    2d8a:	6043      	str	r3, [r0, #4]
    2d8c:	6001      	str	r1, [r0, #0]
    2d8e:	50a0      	str	r0, [r4, r2]
    2d90:	3240      	adds	r2, #64	; 0x40
    2d92:	5083      	str	r3, [r0, r2]
    2d94:	3204      	adds	r2, #4
    2d96:	5083      	str	r3, [r0, r2]
    2d98:	2401      	movs	r4, #1
    2d9a:	2d00      	cmp	r5, #0
    2d9c:	d0dd      	beq.n	2d5a <__register_exitproc+0x2e>
    2d9e:	009a      	lsls	r2, r3, #2
    2da0:	4691      	mov	r9, r2
    2da2:	4481      	add	r9, r0
    2da4:	4642      	mov	r2, r8
    2da6:	2188      	movs	r1, #136	; 0x88
    2da8:	464f      	mov	r7, r9
    2daa:	507a      	str	r2, [r7, r1]
    2dac:	22c4      	movs	r2, #196	; 0xc4
    2dae:	0052      	lsls	r2, r2, #1
    2db0:	4690      	mov	r8, r2
    2db2:	4480      	add	r8, r0
    2db4:	4642      	mov	r2, r8
    2db6:	3987      	subs	r1, #135	; 0x87
    2db8:	4099      	lsls	r1, r3
    2dba:	6812      	ldr	r2, [r2, #0]
    2dbc:	468a      	mov	sl, r1
    2dbe:	430a      	orrs	r2, r1
    2dc0:	4694      	mov	ip, r2
    2dc2:	4642      	mov	r2, r8
    2dc4:	4661      	mov	r1, ip
    2dc6:	6011      	str	r1, [r2, #0]
    2dc8:	2284      	movs	r2, #132	; 0x84
    2dca:	4649      	mov	r1, r9
    2dcc:	465f      	mov	r7, fp
    2dce:	0052      	lsls	r2, r2, #1
    2dd0:	508f      	str	r7, [r1, r2]
    2dd2:	2d02      	cmp	r5, #2
    2dd4:	d1c1      	bne.n	2d5a <__register_exitproc+0x2e>
    2dd6:	0002      	movs	r2, r0
    2dd8:	4655      	mov	r5, sl
    2dda:	328d      	adds	r2, #141	; 0x8d
    2ddc:	32ff      	adds	r2, #255	; 0xff
    2dde:	6811      	ldr	r1, [r2, #0]
    2de0:	430d      	orrs	r5, r1
    2de2:	6015      	str	r5, [r2, #0]
    2de4:	e7b9      	b.n	2d5a <__register_exitproc+0x2e>
    2de6:	0020      	movs	r0, r4
    2de8:	304d      	adds	r0, #77	; 0x4d
    2dea:	30ff      	adds	r0, #255	; 0xff
    2dec:	50e0      	str	r0, [r4, r3]
    2dee:	e7ae      	b.n	2d4e <__register_exitproc+0x22>
    2df0:	2001      	movs	r0, #1
    2df2:	4240      	negs	r0, r0
    2df4:	e7b6      	b.n	2d64 <__register_exitproc+0x38>
    2df6:	46c0      	nop			; (mov r8, r8)
    2df8:	00003030 	.word	0x00003030
    2dfc:	00000000 	.word	0x00000000

00002e00 <spi2MOSI>:
    2e00:	0c000002 00000200                                .....

00002e05 <spi2SCK>:
    2e05:	0e000002 00000200                                .....

00002e0a <spi2MISO>:
    2e0a:	0d000002 8d200000                                ......

00002e10 <lookupTable.12367>:
    2e10:	ffff8d20 ffffada1 ffffce64 ffffef6c      .......d...l...
    2e20:	000010b7 0000324a 00005425 00007649     ....J2..%T..Iv..
    2e30:	000098b7 0000bb72 0000de79 000101d0     ....r...y.......
    2e40:	00012576 0001496f 00016dbc 0001925e     v%..oI...m..^...
    2e50:	0001b758 0001dcaa 00020258 00022862     X.......X...b(..
    2e60:	00024ecc 00027596 00029cc4 0002c457     .N...u......W...
    2e70:	0002ec52 000314b7 00033d89 000366ca     R........=...f..
    2e80:	0003907d 0003baa4 0003e544 0004105e     }.......D...^...
    2e90:	00043bf6 0004680e 000494ac 0004c1d1     .;...h..........
    2ea0:	0004ef81 00051dc1 00054c95 00057c00     .........L...|..
    2eb0:	0005ac07 0005dcae 00060dfb 00063ff2     .............?..
    2ec0:	00067298 0006a5f4 0006da09 00070ee0     .r..............
    2ed0:	0007447d 00077ae8 0007b228 0007ea44     }D...z..(...D...
    2ee0:	00082344 00085d30 00089810 0008d3ef     D#..0]..........
    2ef0:	000910d6 00094ecf 00098de5 0009ce23     .....N......#...
    2f00:	000a0f98 000a524f 000a9657 000adbbf     ....OR..W.......
    2f10:	000b2298 000b6af3 000bb4e2 000c007b     ."...j......{...
    2f20:	000c4dd4 000c9d03 000cee23 000d4150     .M......#...PA..
    2f30:	000d96a9 000dee4e 000e4865 000ea516     ....N...eH......
    2f40:	000f048e                                ....

00002f44 <senseBatPin>:
    2f44:	06000000 01000106                                .....

00002f49 <senseAPin>:
    2f49:	03010001 0100010b                                .....

00002f4e <senseBPin>:
    2f4e:	02010001 0000000a                                .....

00002f53 <senseCPin>:
    2f53:	03000000 00000001                                .....

00002f58 <senseDPin>:
    2f58:	02000000 00000000                                .....

00002f5d <analogAccelPin>:
    2f5d:	07000000 00000207                                .....

00002f62 <spi2MOSI>:
    2f62:	0c000002 00000200                                .....

00002f67 <spi2SCK>:
    2f67:	0e000002 0019c600 0018ea00 0019a800     ................
    2f77:	00198000 0019a800 00197400 0019a800     .........t......
    2f87:	00198000 0018ea00 0018ea00 00197400     .............t..
    2f97:	00198000 001a2c00 001a2c00 001a2c00     .....,...,...,..
    2fa7:	0019ae00 0018ea00 0018ea00 00199400     ................
    2fb7:	00197e00 00199400 00197400 00199400     .~.......t......
    2fc7:	00197e00 0018ea00 0018ea00 00197400     .~...........t..
    2fd7:	00197e00 001a2c00 001a2c00 001a2c00     .~...,...,...,..
    2fe7:	001a3800 00267800 00253800 00253800     .8...x&..8%..8%.
    2ff7:	00253600 00265000 00265000 00264200     .6%..P&..P&..B&.
    3007:	00253600 00265000 00264200 00265000     .6%..P&..B&..P&.
    3017:	00253600 00265800 00265800 00265800     .6%..X&..X&..X&.
    3027:	00285800 00004300 00001000                       .X(..C...

00003030 <_global_impure_ptr>:
    3030:	20000010                                ... 

00003034 <_init>:
    3034:	b5f8      	push	{r3, r4, r5, r6, r7, lr}
    3036:	46c0      	nop			; (mov r8, r8)
    3038:	bcf8      	pop	{r3, r4, r5, r6, r7}
    303a:	bc08      	pop	{r3}
    303c:	469e      	mov	lr, r3
    303e:	4770      	bx	lr

00003040 <__init_array_start>:
    3040:	00002cd1 	.word	0x00002cd1

00003044 <__frame_dummy_init_array_entry>:
    3044:	000000dd                                ....

00003048 <_fini>:
    3048:	b5f8      	push	{r3, r4, r5, r6, r7, lr}
    304a:	46c0      	nop			; (mov r8, r8)
    304c:	bcf8      	pop	{r3, r4, r5, r6, r7}
    304e:	bc08      	pop	{r3}
    3050:	469e      	mov	lr, r3
    3052:	4770      	bx	lr

00003054 <__fini_array_start>:
    3054:	000000b5 	.word	0x000000b5
