
DasAltimeter.elf:     file format elf32-littlearm

Sections:
Idx Name          Size      VMA       LMA       File off  Algn
  0 .text         000065b4  00000000  00000000  00010000  2**3
                  CONTENTS, ALLOC, LOAD, READONLY, CODE
  1 .relocate     000000d8  20000000  000065b4  00020000  2**3
                  CONTENTS, ALLOC, LOAD, DATA
  2 .bss          00000500  200000d8  00006690  000200d8  2**3
                  ALLOC
  3 .stack        00002000  200005d8  00006b90  000200d8  2**0
                  ALLOC
  4 .ARM.attributes 00000028  00000000  00000000  000200d8  2**0
                  CONTENTS, READONLY
  5 .comment      00000059  00000000  00000000  00020100  2**0
                  CONTENTS, READONLY
  6 .debug_frame  00000584  00000000  00000000  0002015c  2**2
                  CONTENTS, READONLY, DEBUGGING

Disassembly of section .text:

00000000 <_sfixed>:
       0:	200025d8 	.word	0x200025d8
       4:	00000119 	.word	0x00000119
       8:	00000115 	.word	0x00000115
       c:	00000a5d 	.word	0x00000a5d
	...
      2c:	00000115 	.word	0x00000115
	...
      38:	00000115 	.word	0x00000115
      3c:	000010f1 	.word	0x000010f1
      40:	00000115 	.word	0x00000115
      44:	00000115 	.word	0x00000115
      48:	00000115 	.word	0x00000115
      4c:	00001125 	.word	0x00001125
      50:	00000115 	.word	0x00000115
      54:	00000115 	.word	0x00000115
      58:	00000115 	.word	0x00000115
      5c:	00000115 	.word	0x00000115
      60:	00000115 	.word	0x00000115
      64:	00000115 	.word	0x00000115
      68:	00000115 	.word	0x00000115
      6c:	00000115 	.word	0x00000115
      70:	00000115 	.word	0x00000115
      74:	00000115 	.word	0x00000115
      78:	00000115 	.word	0x00000115
      7c:	00000115 	.word	0x00000115
      80:	00000115 	.word	0x00000115
      84:	00000115 	.word	0x00000115
      88:	00000115 	.word	0x00000115
      8c:	000011c5 	.word	0x000011c5
      90:	0000122d 	.word	0x0000122d
	...
      9c:	00000115 	.word	0x00000115
      a0:	00000115 	.word	0x00000115
      a4:	00000115 	.word	0x00000115
      a8:	00000115 	.word	0x00000115
      ac:	00000115 	.word	0x00000115
      b0:	00000000 	.word	0x00000000

000000b4 <__do_global_dtors_aux>:
      b4:	b510      	push	{r4, lr}
      b6:	4c06      	ldr	r4, [pc, #24]	; (d0 <__do_global_dtors_aux+0x1c>)
      b8:	7823      	ldrb	r3, [r4, #0]
      ba:	2b00      	cmp	r3, #0
      bc:	d107      	bne.n	ce <__do_global_dtors_aux+0x1a>
      be:	4b05      	ldr	r3, [pc, #20]	; (d4 <__do_global_dtors_aux+0x20>)
      c0:	2b00      	cmp	r3, #0
      c2:	d002      	beq.n	ca <__do_global_dtors_aux+0x16>
      c4:	4804      	ldr	r0, [pc, #16]	; (d8 <__do_global_dtors_aux+0x24>)
      c6:	e000      	b.n	ca <__do_global_dtors_aux+0x16>
      c8:	bf00      	nop
      ca:	2301      	movs	r3, #1
      cc:	7023      	strb	r3, [r4, #0]
      ce:	bd10      	pop	{r4, pc}
      d0:	200000d8 	.word	0x200000d8
      d4:	00000000 	.word	0x00000000
      d8:	000065b4 	.word	0x000065b4

000000dc <frame_dummy>:
      dc:	4b08      	ldr	r3, [pc, #32]	; (100 <frame_dummy+0x24>)
      de:	b510      	push	{r4, lr}
      e0:	2b00      	cmp	r3, #0
      e2:	d003      	beq.n	ec <frame_dummy+0x10>
      e4:	4907      	ldr	r1, [pc, #28]	; (104 <frame_dummy+0x28>)
      e6:	4808      	ldr	r0, [pc, #32]	; (108 <frame_dummy+0x2c>)
      e8:	e000      	b.n	ec <frame_dummy+0x10>
      ea:	bf00      	nop
      ec:	4807      	ldr	r0, [pc, #28]	; (10c <frame_dummy+0x30>)
      ee:	6803      	ldr	r3, [r0, #0]
      f0:	2b00      	cmp	r3, #0
      f2:	d100      	bne.n	f6 <frame_dummy+0x1a>
      f4:	bd10      	pop	{r4, pc}
      f6:	4b06      	ldr	r3, [pc, #24]	; (110 <frame_dummy+0x34>)
      f8:	2b00      	cmp	r3, #0
      fa:	d0fb      	beq.n	f4 <frame_dummy+0x18>
      fc:	4798      	blx	r3
      fe:	e7f9      	b.n	f4 <frame_dummy+0x18>
     100:	00000000 	.word	0x00000000
     104:	200000dc 	.word	0x200000dc
     108:	000065b4 	.word	0x000065b4
     10c:	000065b4 	.word	0x000065b4
     110:	00000000 	.word	0x00000000

00000114 <Dummy_Handler>:
     114:	e7fe      	b.n	114 <Dummy_Handler>
	...

00000118 <Reset_Handler>:
     118:	4821      	ldr	r0, [pc, #132]	; (1a0 <Reset_Handler+0x88>)
     11a:	4922      	ldr	r1, [pc, #136]	; (1a4 <Reset_Handler+0x8c>)
     11c:	b570      	push	{r4, r5, r6, lr}
     11e:	4288      	cmp	r0, r1
     120:	d002      	beq.n	128 <Reset_Handler+0x10>
     122:	2300      	movs	r3, #0
     124:	4c20      	ldr	r4, [pc, #128]	; (1a8 <Reset_Handler+0x90>)
     126:	e003      	b.n	130 <Reset_Handler+0x18>
     128:	4b20      	ldr	r3, [pc, #128]	; (1ac <Reset_Handler+0x94>)
     12a:	4a21      	ldr	r2, [pc, #132]	; (1b0 <Reset_Handler+0x98>)
     12c:	2100      	movs	r1, #0
     12e:	e006      	b.n	13e <Reset_Handler+0x26>
     130:	18ca      	adds	r2, r1, r3
     132:	42a2      	cmp	r2, r4
     134:	d2f8      	bcs.n	128 <Reset_Handler+0x10>
     136:	58c5      	ldr	r5, [r0, r3]
     138:	3304      	adds	r3, #4
     13a:	6015      	str	r5, [r2, #0]
     13c:	e7f8      	b.n	130 <Reset_Handler+0x18>
     13e:	4293      	cmp	r3, r2
     140:	d201      	bcs.n	146 <Reset_Handler+0x2e>
     142:	c302      	stmia	r3!, {r1}
     144:	e7fb      	b.n	13e <Reset_Handler+0x26>
     146:	21ff      	movs	r1, #255	; 0xff
     148:	2402      	movs	r4, #2
     14a:	2503      	movs	r5, #3
     14c:	4b19      	ldr	r3, [pc, #100]	; (1b4 <Reset_Handler+0x9c>)
     14e:	4a1a      	ldr	r2, [pc, #104]	; (1b8 <Reset_Handler+0xa0>)
     150:	438b      	bics	r3, r1
     152:	260c      	movs	r6, #12
     154:	6093      	str	r3, [r2, #8]
     156:	2208      	movs	r2, #8
     158:	4b18      	ldr	r3, [pc, #96]	; (1bc <Reset_Handler+0xa4>)
     15a:	4919      	ldr	r1, [pc, #100]	; (1c0 <Reset_Handler+0xa8>)
     15c:	625c      	str	r4, [r3, #36]	; 0x24
     15e:	78cb      	ldrb	r3, [r1, #3]
     160:	43ab      	bics	r3, r5
     162:	4323      	orrs	r3, r4
     164:	70cb      	strb	r3, [r1, #3]
     166:	78cb      	ldrb	r3, [r1, #3]
     168:	43b3      	bics	r3, r6
     16a:	4313      	orrs	r3, r2
     16c:	70cb      	strb	r3, [r1, #3]
     16e:	2130      	movs	r1, #48	; 0x30
     170:	4b14      	ldr	r3, [pc, #80]	; (1c4 <Reset_Handler+0xac>)
     172:	7b98      	ldrb	r0, [r3, #14]
     174:	4388      	bics	r0, r1
     176:	3910      	subs	r1, #16
     178:	4308      	orrs	r0, r1
     17a:	7398      	strb	r0, [r3, #14]
     17c:	7b99      	ldrb	r1, [r3, #14]
     17e:	43b1      	bics	r1, r6
     180:	4311      	orrs	r1, r2
     182:	7399      	strb	r1, [r3, #14]
     184:	2180      	movs	r1, #128	; 0x80
     186:	7b9a      	ldrb	r2, [r3, #14]
     188:	43aa      	bics	r2, r5
     18a:	4322      	orrs	r2, r4
     18c:	739a      	strb	r2, [r3, #14]
     18e:	4a0e      	ldr	r2, [pc, #56]	; (1c8 <Reset_Handler+0xb0>)
     190:	6853      	ldr	r3, [r2, #4]
     192:	430b      	orrs	r3, r1
     194:	6053      	str	r3, [r2, #4]
     196:	4b0d      	ldr	r3, [pc, #52]	; (1cc <Reset_Handler+0xb4>)
     198:	4798      	blx	r3
     19a:	4b0d      	ldr	r3, [pc, #52]	; (1d0 <Reset_Handler+0xb8>)
     19c:	4798      	blx	r3
     19e:	e7fe      	b.n	19e <Reset_Handler+0x86>
     1a0:	000065b4 	.word	0x000065b4
     1a4:	20000000 	.word	0x20000000
     1a8:	200000d8 	.word	0x200000d8
     1ac:	200000d8 	.word	0x200000d8
     1b0:	200005d8 	.word	0x200005d8
     1b4:	00000000 	.word	0x00000000
     1b8:	e000ed00 	.word	0xe000ed00
     1bc:	410070fc 	.word	0x410070fc
     1c0:	41005000 	.word	0x41005000
     1c4:	41004800 	.word	0x41004800
     1c8:	41004000 	.word	0x41004000
     1cc:	00006449 	.word	0x00006449
     1d0:	000009d5 	.word	0x000009d5

000001d4 <SystemInit>:
     1d4:	4a01      	ldr	r2, [pc, #4]	; (1dc <SystemInit+0x8>)
     1d6:	4b02      	ldr	r3, [pc, #8]	; (1e0 <SystemInit+0xc>)
     1d8:	601a      	str	r2, [r3, #0]
     1da:	4770      	bx	lr
     1dc:	000f4240 	.word	0x000f4240
     1e0:	20000000 	.word	0x20000000

000001e4 <AT25SFHoldTillReady>:
     1e4:	2380      	movs	r3, #128	; 0x80
     1e6:	b570      	push	{r4, r5, r6, lr}
     1e8:	4c08      	ldr	r4, [pc, #32]	; (20c <AT25SFHoldTillReady+0x28>)
     1ea:	02db      	lsls	r3, r3, #11
     1ec:	6163      	str	r3, [r4, #20]
     1ee:	2105      	movs	r1, #5
     1f0:	2001      	movs	r0, #1
     1f2:	4b07      	ldr	r3, [pc, #28]	; (210 <AT25SFHoldTillReady+0x2c>)
     1f4:	4798      	blx	r3
     1f6:	2501      	movs	r5, #1
     1f8:	2001      	movs	r0, #1
     1fa:	4b06      	ldr	r3, [pc, #24]	; (214 <AT25SFHoldTillReady+0x30>)
     1fc:	4798      	blx	r3
     1fe:	4228      	tst	r0, r5
     200:	d1fa      	bne.n	1f8 <AT25SFHoldTillReady+0x14>
     202:	2380      	movs	r3, #128	; 0x80
     204:	02db      	lsls	r3, r3, #11
     206:	61a3      	str	r3, [r4, #24]
     208:	bd70      	pop	{r4, r5, r6, pc}
     20a:	46c0      	nop			; (mov r8, r8)
     20c:	41004400 	.word	0x41004400
     210:	00002c71 	.word	0x00002c71
     214:	00002c89 	.word	0x00002c89

00000218 <AT25SFChipErase>:
     218:	b570      	push	{r4, r5, r6, lr}
     21a:	2580      	movs	r5, #128	; 0x80
     21c:	4c06      	ldr	r4, [pc, #24]	; (238 <AT25SFChipErase+0x20>)
     21e:	02ed      	lsls	r5, r5, #11
     220:	4e06      	ldr	r6, [pc, #24]	; (23c <AT25SFChipErase+0x24>)
     222:	6165      	str	r5, [r4, #20]
     224:	2106      	movs	r1, #6
     226:	2001      	movs	r0, #1
     228:	47b0      	blx	r6
     22a:	61a5      	str	r5, [r4, #24]
     22c:	2160      	movs	r1, #96	; 0x60
     22e:	6165      	str	r5, [r4, #20]
     230:	2001      	movs	r0, #1
     232:	47b0      	blx	r6
     234:	61a5      	str	r5, [r4, #24]
     236:	bd70      	pop	{r4, r5, r6, pc}
     238:	41004400 	.word	0x41004400
     23c:	00002c71 	.word	0x00002c71

00000240 <AT25SFWriteBytes>:
     240:	b5f7      	push	{r0, r1, r2, r4, r5, r6, r7, lr}
     242:	2780      	movs	r7, #128	; 0x80
     244:	0006      	movs	r6, r0
     246:	4d14      	ldr	r5, [pc, #80]	; (298 <AT25SFWriteBytes+0x58>)
     248:	4b14      	ldr	r3, [pc, #80]	; (29c <AT25SFWriteBytes+0x5c>)
     24a:	02ff      	lsls	r7, r7, #11
     24c:	9201      	str	r2, [sp, #4]
     24e:	9100      	str	r1, [sp, #0]
     250:	4798      	blx	r3
     252:	4c13      	ldr	r4, [pc, #76]	; (2a0 <AT25SFWriteBytes+0x60>)
     254:	616f      	str	r7, [r5, #20]
     256:	2106      	movs	r1, #6
     258:	2001      	movs	r0, #1
     25a:	47a0      	blx	r4
     25c:	61af      	str	r7, [r5, #24]
     25e:	2102      	movs	r1, #2
     260:	616f      	str	r7, [r5, #20]
     262:	2001      	movs	r0, #1
     264:	47a0      	blx	r4
     266:	0c31      	lsrs	r1, r6, #16
     268:	b2c9      	uxtb	r1, r1
     26a:	2001      	movs	r0, #1
     26c:	47a0      	blx	r4
     26e:	0a31      	lsrs	r1, r6, #8
     270:	b2c9      	uxtb	r1, r1
     272:	2001      	movs	r0, #1
     274:	47a0      	blx	r4
     276:	b2f1      	uxtb	r1, r6
     278:	2001      	movs	r0, #1
     27a:	47a0      	blx	r4
     27c:	9e01      	ldr	r6, [sp, #4]
     27e:	9b00      	ldr	r3, [sp, #0]
     280:	18f7      	adds	r7, r6, r3
     282:	42be      	cmp	r6, r7
     284:	d004      	beq.n	290 <AT25SFWriteBytes+0x50>
     286:	7831      	ldrb	r1, [r6, #0]
     288:	2001      	movs	r0, #1
     28a:	47a0      	blx	r4
     28c:	3601      	adds	r6, #1
     28e:	e7f8      	b.n	282 <AT25SFWriteBytes+0x42>
     290:	2380      	movs	r3, #128	; 0x80
     292:	02db      	lsls	r3, r3, #11
     294:	61ab      	str	r3, [r5, #24]
     296:	bdf7      	pop	{r0, r1, r2, r4, r5, r6, r7, pc}
     298:	41004400 	.word	0x41004400
     29c:	000001e5 	.word	0x000001e5
     2a0:	00002c71 	.word	0x00002c71

000002a4 <AT25SEWritePage>:
     2a4:	b5f7      	push	{r0, r1, r2, r4, r5, r6, r7, lr}
     2a6:	2780      	movs	r7, #128	; 0x80
     2a8:	0006      	movs	r6, r0
     2aa:	4d13      	ldr	r5, [pc, #76]	; (2f8 <AT25SEWritePage+0x54>)
     2ac:	02ff      	lsls	r7, r7, #11
     2ae:	4c13      	ldr	r4, [pc, #76]	; (2fc <AT25SEWritePage+0x58>)
     2b0:	9101      	str	r1, [sp, #4]
     2b2:	2001      	movs	r0, #1
     2b4:	616f      	str	r7, [r5, #20]
     2b6:	2106      	movs	r1, #6
     2b8:	47a0      	blx	r4
     2ba:	61af      	str	r7, [r5, #24]
     2bc:	2102      	movs	r1, #2
     2be:	616f      	str	r7, [r5, #20]
     2c0:	2001      	movs	r0, #1
     2c2:	47a0      	blx	r4
     2c4:	0c31      	lsrs	r1, r6, #16
     2c6:	b2c9      	uxtb	r1, r1
     2c8:	2001      	movs	r0, #1
     2ca:	47a0      	blx	r4
     2cc:	0a31      	lsrs	r1, r6, #8
     2ce:	b2c9      	uxtb	r1, r1
     2d0:	2001      	movs	r0, #1
     2d2:	47a0      	blx	r4
     2d4:	b2f1      	uxtb	r1, r6
     2d6:	2001      	movs	r0, #1
     2d8:	47a0      	blx	r4
     2da:	9e01      	ldr	r6, [sp, #4]
     2dc:	1c77      	adds	r7, r6, #1
     2de:	37ff      	adds	r7, #255	; 0xff
     2e0:	7831      	ldrb	r1, [r6, #0]
     2e2:	2001      	movs	r0, #1
     2e4:	3601      	adds	r6, #1
     2e6:	47a0      	blx	r4
     2e8:	42be      	cmp	r6, r7
     2ea:	d1f9      	bne.n	2e0 <AT25SEWritePage+0x3c>
     2ec:	2380      	movs	r3, #128	; 0x80
     2ee:	02db      	lsls	r3, r3, #11
     2f0:	61ab      	str	r3, [r5, #24]
     2f2:	2000      	movs	r0, #0
     2f4:	bdfe      	pop	{r1, r2, r3, r4, r5, r6, r7, pc}
     2f6:	46c0      	nop			; (mov r8, r8)
     2f8:	41004400 	.word	0x41004400
     2fc:	00002c71 	.word	0x00002c71

00000300 <AT25SEreadSample>:
     300:	2380      	movs	r3, #128	; 0x80
     302:	b5f7      	push	{r0, r1, r2, r4, r5, r6, r7, lr}
     304:	0005      	movs	r5, r0
     306:	000f      	movs	r7, r1
     308:	4e11      	ldr	r6, [pc, #68]	; (350 <AT25SEreadSample+0x50>)
     30a:	02db      	lsls	r3, r3, #11
     30c:	9201      	str	r2, [sp, #4]
     30e:	4c11      	ldr	r4, [pc, #68]	; (354 <AT25SEreadSample+0x54>)
     310:	6173      	str	r3, [r6, #20]
     312:	210b      	movs	r1, #11
     314:	2001      	movs	r0, #1
     316:	47a0      	blx	r4
     318:	0c29      	lsrs	r1, r5, #16
     31a:	b2c9      	uxtb	r1, r1
     31c:	2001      	movs	r0, #1
     31e:	47a0      	blx	r4
     320:	0a29      	lsrs	r1, r5, #8
     322:	b2c9      	uxtb	r1, r1
     324:	2001      	movs	r0, #1
     326:	47a0      	blx	r4
     328:	b2e9      	uxtb	r1, r5
     32a:	2001      	movs	r0, #1
     32c:	47a0      	blx	r4
     32e:	21ff      	movs	r1, #255	; 0xff
     330:	2001      	movs	r0, #1
     332:	47a0      	blx	r4
     334:	9c01      	ldr	r4, [sp, #4]
     336:	19e7      	adds	r7, r4, r7
     338:	42bc      	cmp	r4, r7
     33a:	d005      	beq.n	348 <AT25SEreadSample+0x48>
     33c:	2001      	movs	r0, #1
     33e:	4b06      	ldr	r3, [pc, #24]	; (358 <AT25SEreadSample+0x58>)
     340:	4798      	blx	r3
     342:	7020      	strb	r0, [r4, #0]
     344:	3401      	adds	r4, #1
     346:	e7f7      	b.n	338 <AT25SEreadSample+0x38>
     348:	2380      	movs	r3, #128	; 0x80
     34a:	02db      	lsls	r3, r3, #11
     34c:	61b3      	str	r3, [r6, #24]
     34e:	bdf7      	pop	{r0, r1, r2, r4, r5, r6, r7, pc}
     350:	41004400 	.word	0x41004400
     354:	00002c71 	.word	0x00002c71
     358:	00002c89 	.word	0x00002c89

0000035c <AT25SEreadPage>:
     35c:	b5f8      	push	{r3, r4, r5, r6, r7, lr}
     35e:	2380      	movs	r3, #128	; 0x80
     360:	0007      	movs	r7, r0
     362:	000c      	movs	r4, r1
     364:	4e10      	ldr	r6, [pc, #64]	; (3a8 <AT25SEreadPage+0x4c>)
     366:	02db      	lsls	r3, r3, #11
     368:	4d10      	ldr	r5, [pc, #64]	; (3ac <AT25SEreadPage+0x50>)
     36a:	6173      	str	r3, [r6, #20]
     36c:	210b      	movs	r1, #11
     36e:	2001      	movs	r0, #1
     370:	47a8      	blx	r5
     372:	0c39      	lsrs	r1, r7, #16
     374:	b2c9      	uxtb	r1, r1
     376:	2001      	movs	r0, #1
     378:	47a8      	blx	r5
     37a:	0a39      	lsrs	r1, r7, #8
     37c:	b2c9      	uxtb	r1, r1
     37e:	2001      	movs	r0, #1
     380:	47a8      	blx	r5
     382:	b2f9      	uxtb	r1, r7
     384:	2001      	movs	r0, #1
     386:	47a8      	blx	r5
     388:	21ff      	movs	r1, #255	; 0xff
     38a:	2001      	movs	r0, #1
     38c:	47a8      	blx	r5
     38e:	1c65      	adds	r5, r4, #1
     390:	35ff      	adds	r5, #255	; 0xff
     392:	2001      	movs	r0, #1
     394:	4b06      	ldr	r3, [pc, #24]	; (3b0 <AT25SEreadPage+0x54>)
     396:	4798      	blx	r3
     398:	7020      	strb	r0, [r4, #0]
     39a:	3401      	adds	r4, #1
     39c:	42ac      	cmp	r4, r5
     39e:	d1f8      	bne.n	392 <AT25SEreadPage+0x36>
     3a0:	2380      	movs	r3, #128	; 0x80
     3a2:	02db      	lsls	r3, r3, #11
     3a4:	61b3      	str	r3, [r6, #24]
     3a6:	bdf8      	pop	{r3, r4, r5, r6, r7, pc}
     3a8:	41004400 	.word	0x41004400
     3ac:	00002c71 	.word	0x00002c71
     3b0:	00002c89 	.word	0x00002c89

000003b4 <readMS5803AdcResults>:
     3b4:	b5f7      	push	{r0, r1, r2, r4, r5, r6, r7, lr}
     3b6:	2780      	movs	r7, #128	; 0x80
     3b8:	4e0b      	ldr	r6, [pc, #44]	; (3e8 <readMS5803AdcResults+0x34>)
     3ba:	01ff      	lsls	r7, r7, #7
     3bc:	2100      	movs	r1, #0
     3be:	4b0b      	ldr	r3, [pc, #44]	; (3ec <readMS5803AdcResults+0x38>)
     3c0:	6177      	str	r7, [r6, #20]
     3c2:	2002      	movs	r0, #2
     3c4:	4798      	blx	r3
     3c6:	4d0a      	ldr	r5, [pc, #40]	; (3f0 <readMS5803AdcResults+0x3c>)
     3c8:	2002      	movs	r0, #2
     3ca:	47a8      	blx	r5
     3cc:	0004      	movs	r4, r0
     3ce:	2002      	movs	r0, #2
     3d0:	47a8      	blx	r5
     3d2:	9001      	str	r0, [sp, #4]
     3d4:	2002      	movs	r0, #2
     3d6:	47a8      	blx	r5
     3d8:	61b7      	str	r7, [r6, #24]
     3da:	9b01      	ldr	r3, [sp, #4]
     3dc:	0424      	lsls	r4, r4, #16
     3de:	021b      	lsls	r3, r3, #8
     3e0:	431c      	orrs	r4, r3
     3e2:	4320      	orrs	r0, r4
     3e4:	bdfe      	pop	{r1, r2, r3, r4, r5, r6, r7, pc}
     3e6:	46c0      	nop			; (mov r8, r8)
     3e8:	41004400 	.word	0x41004400
     3ec:	00002c71 	.word	0x00002c71
     3f0:	00002c89 	.word	0x00002c89

000003f4 <ConvertPressureTemperature>:
     3f4:	b5f0      	push	{r4, r5, r6, r7, lr}
     3f6:	b087      	sub	sp, #28
     3f8:	9304      	str	r3, [sp, #16]
     3fa:	4b24      	ldr	r3, [pc, #144]	; (48c <ConvertPressureTemperature+0x98>)
     3fc:	9003      	str	r0, [sp, #12]
     3fe:	0014      	movs	r4, r2
     400:	885a      	ldrh	r2, [r3, #2]
     402:	4f23      	ldr	r7, [pc, #140]	; (490 <ConvertPressureTemperature+0x9c>)
     404:	9201      	str	r2, [sp, #4]
     406:	889a      	ldrh	r2, [r3, #4]
     408:	9200      	str	r2, [sp, #0]
     40a:	891a      	ldrh	r2, [r3, #8]
     40c:	88dd      	ldrh	r5, [r3, #6]
     40e:	9202      	str	r2, [sp, #8]
     410:	895e      	ldrh	r6, [r3, #10]
     412:	0236      	lsls	r6, r6, #8
     414:	1b8e      	subs	r6, r1, r6
     416:	17f2      	asrs	r2, r6, #31
     418:	9205      	str	r2, [sp, #20]
     41a:	8998      	ldrh	r0, [r3, #12]
     41c:	0032      	movs	r2, r6
     41e:	17f3      	asrs	r3, r6, #31
     420:	2100      	movs	r1, #0
     422:	47b8      	blx	r7
     424:	23fa      	movs	r3, #250	; 0xfa
     426:	0249      	lsls	r1, r1, #9
     428:	0dc0      	lsrs	r0, r0, #23
     42a:	4308      	orrs	r0, r1
     42c:	00db      	lsls	r3, r3, #3
     42e:	18c0      	adds	r0, r0, r3
     430:	6020      	str	r0, [r4, #0]
     432:	0032      	movs	r2, r6
     434:	17f3      	asrs	r3, r6, #31
     436:	0028      	movs	r0, r5
     438:	2100      	movs	r1, #0
     43a:	47b8      	blx	r7
     43c:	064c      	lsls	r4, r1, #25
     43e:	11cb      	asrs	r3, r1, #7
     440:	2100      	movs	r1, #0
     442:	09c2      	lsrs	r2, r0, #7
     444:	4322      	orrs	r2, r4
     446:	9c01      	ldr	r4, [sp, #4]
     448:	0420      	lsls	r0, r4, #16
     44a:	1880      	adds	r0, r0, r2
     44c:	4159      	adcs	r1, r3
     44e:	9a03      	ldr	r2, [sp, #12]
     450:	2300      	movs	r3, #0
     452:	47b8      	blx	r7
     454:	02cb      	lsls	r3, r1, #11
     456:	0d44      	lsrs	r4, r0, #21
     458:	0032      	movs	r2, r6
     45a:	431c      	orrs	r4, r3
     45c:	154d      	asrs	r5, r1, #21
     45e:	9b05      	ldr	r3, [sp, #20]
     460:	9802      	ldr	r0, [sp, #8]
     462:	2100      	movs	r1, #0
     464:	47b8      	blx	r7
     466:	068b      	lsls	r3, r1, #26
     468:	118f      	asrs	r7, r1, #6
     46a:	9900      	ldr	r1, [sp, #0]
     46c:	0986      	lsrs	r6, r0, #6
     46e:	431e      	orrs	r6, r3
     470:	044a      	lsls	r2, r1, #17
     472:	0bcb      	lsrs	r3, r1, #15
     474:	1992      	adds	r2, r2, r6
     476:	417b      	adcs	r3, r7
     478:	1aa4      	subs	r4, r4, r2
     47a:	419d      	sbcs	r5, r3
     47c:	046b      	lsls	r3, r5, #17
     47e:	0be4      	lsrs	r4, r4, #15
     480:	431c      	orrs	r4, r3
     482:	9b04      	ldr	r3, [sp, #16]
     484:	601c      	str	r4, [r3, #0]
     486:	b007      	add	sp, #28
     488:	bdf0      	pop	{r4, r5, r6, r7, pc}
     48a:	46c0      	nop			; (mov r8, r8)
     48c:	20000266 	.word	0x20000266
     490:	00004365 	.word	0x00004365

00000494 <paToFeetNOAA>:
     494:	b510      	push	{r4, lr}
     496:	4b0c      	ldr	r3, [pc, #48]	; (4c8 <paToFeetNOAA+0x34>)
     498:	4798      	blx	r3
     49a:	4c0c      	ldr	r4, [pc, #48]	; (4cc <paToFeetNOAA+0x38>)
     49c:	2200      	movs	r2, #0
     49e:	4b0c      	ldr	r3, [pc, #48]	; (4d0 <paToFeetNOAA+0x3c>)
     4a0:	47a0      	blx	r4
     4a2:	2200      	movs	r2, #0
     4a4:	4b0b      	ldr	r3, [pc, #44]	; (4d4 <paToFeetNOAA+0x40>)
     4a6:	47a0      	blx	r4
     4a8:	4a0b      	ldr	r2, [pc, #44]	; (4d8 <paToFeetNOAA+0x44>)
     4aa:	4b0c      	ldr	r3, [pc, #48]	; (4dc <paToFeetNOAA+0x48>)
     4ac:	4c0c      	ldr	r4, [pc, #48]	; (4e0 <paToFeetNOAA+0x4c>)
     4ae:	47a0      	blx	r4
     4b0:	4c0c      	ldr	r4, [pc, #48]	; (4e4 <paToFeetNOAA+0x50>)
     4b2:	0002      	movs	r2, r0
     4b4:	000b      	movs	r3, r1
     4b6:	2000      	movs	r0, #0
     4b8:	490b      	ldr	r1, [pc, #44]	; (4e8 <paToFeetNOAA+0x54>)
     4ba:	47a0      	blx	r4
     4bc:	4a0b      	ldr	r2, [pc, #44]	; (4ec <paToFeetNOAA+0x58>)
     4be:	4b0c      	ldr	r3, [pc, #48]	; (4f0 <paToFeetNOAA+0x5c>)
     4c0:	4c0c      	ldr	r4, [pc, #48]	; (4f4 <paToFeetNOAA+0x60>)
     4c2:	47a0      	blx	r4
     4c4:	bd10      	pop	{r4, pc}
     4c6:	46c0      	nop			; (mov r8, r8)
     4c8:	0000614d 	.word	0x0000614d
     4cc:	00004cbd 	.word	0x00004cbd
     4d0:	40590000 	.word	0x40590000
     4d4:	408faa00 	.word	0x408faa00
     4d8:	e279dd3c 	.word	0xe279dd3c
     4dc:	3fc85b39 	.word	0x3fc85b39
     4e0:	00002f9d 	.word	0x00002f9d
     4e4:	000059f9 	.word	0x000059f9
     4e8:	3ff00000 	.word	0x3ff00000
     4ec:	9999999a 	.word	0x9999999a
     4f0:	4101beb3 	.word	0x4101beb3
     4f4:	00005505 	.word	0x00005505

000004f8 <readMS5803Coefficients>:
     4f8:	b5f7      	push	{r0, r1, r2, r4, r5, r6, r7, lr}
     4fa:	24a2      	movs	r4, #162	; 0xa2
     4fc:	4d11      	ldr	r5, [pc, #68]	; (544 <readMS5803Coefficients+0x4c>)
     4fe:	2096      	movs	r0, #150	; 0x96
     500:	4e11      	ldr	r6, [pc, #68]	; (548 <readMS5803Coefficients+0x50>)
     502:	0080      	lsls	r0, r0, #2
     504:	47b0      	blx	r6
     506:	2096      	movs	r0, #150	; 0x96
     508:	0080      	lsls	r0, r0, #2
     50a:	47b0      	blx	r6
     50c:	2380      	movs	r3, #128	; 0x80
     50e:	4e0f      	ldr	r6, [pc, #60]	; (54c <readMS5803Coefficients+0x54>)
     510:	01db      	lsls	r3, r3, #7
     512:	0021      	movs	r1, r4
     514:	6173      	str	r3, [r6, #20]
     516:	2002      	movs	r0, #2
     518:	4b0d      	ldr	r3, [pc, #52]	; (550 <readMS5803Coefficients+0x58>)
     51a:	4798      	blx	r3
     51c:	4f0d      	ldr	r7, [pc, #52]	; (554 <readMS5803Coefficients+0x5c>)
     51e:	2002      	movs	r0, #2
     520:	47b8      	blx	r7
     522:	9001      	str	r0, [sp, #4]
     524:	2002      	movs	r0, #2
     526:	47b8      	blx	r7
     528:	2380      	movs	r3, #128	; 0x80
     52a:	01db      	lsls	r3, r3, #7
     52c:	61b3      	str	r3, [r6, #24]
     52e:	9b01      	ldr	r3, [sp, #4]
     530:	3402      	adds	r4, #2
     532:	021b      	lsls	r3, r3, #8
     534:	4318      	orrs	r0, r3
     536:	b2e4      	uxtb	r4, r4
     538:	8028      	strh	r0, [r5, #0]
     53a:	3502      	adds	r5, #2
     53c:	2cae      	cmp	r4, #174	; 0xae
     53e:	d1de      	bne.n	4fe <readMS5803Coefficients+0x6>
     540:	bdf7      	pop	{r0, r1, r2, r4, r5, r6, r7, pc}
     542:	46c0      	nop			; (mov r8, r8)
     544:	20000268 	.word	0x20000268
     548:	000010c1 	.word	0x000010c1
     54c:	41004400 	.word	0x41004400
     550:	00002c71 	.word	0x00002c71
     554:	00002c89 	.word	0x00002c89

00000558 <initMS5803Barometer>:
     558:	b570      	push	{r4, r5, r6, lr}
     55a:	2580      	movs	r5, #128	; 0x80
     55c:	4c06      	ldr	r4, [pc, #24]	; (578 <initMS5803Barometer+0x20>)
     55e:	01ed      	lsls	r5, r5, #7
     560:	211e      	movs	r1, #30
     562:	6165      	str	r5, [r4, #20]
     564:	2002      	movs	r0, #2
     566:	4b05      	ldr	r3, [pc, #20]	; (57c <initMS5803Barometer+0x24>)
     568:	4798      	blx	r3
     56a:	61a5      	str	r5, [r4, #24]
     56c:	20c8      	movs	r0, #200	; 0xc8
     56e:	4b04      	ldr	r3, [pc, #16]	; (580 <initMS5803Barometer+0x28>)
     570:	4798      	blx	r3
     572:	4b04      	ldr	r3, [pc, #16]	; (584 <initMS5803Barometer+0x2c>)
     574:	4798      	blx	r3
     576:	bd70      	pop	{r4, r5, r6, pc}
     578:	41004400 	.word	0x41004400
     57c:	00002c71 	.word	0x00002c71
     580:	000010f5 	.word	0x000010f5
     584:	000004f9 	.word	0x000004f9

00000588 <MS5803_CRC4>:
     588:	4b02      	ldr	r3, [pc, #8]	; (594 <MS5803_CRC4+0xc>)
     58a:	2000      	movs	r0, #0
     58c:	7b9a      	ldrb	r2, [r3, #14]
     58e:	81da      	strh	r2, [r3, #14]
     590:	4770      	bx	lr
     592:	46c0      	nop			; (mov r8, r8)
     594:	20000266 	.word	0x20000266

00000598 <init>:
     598:	211e      	movs	r1, #30
     59a:	b5f0      	push	{r4, r5, r6, r7, lr}
     59c:	4afc      	ldr	r2, [pc, #1008]	; (990 <init+0x3f8>)
     59e:	b085      	sub	sp, #20
     5a0:	6853      	ldr	r3, [r2, #4]
     5a2:	2401      	movs	r4, #1
     5a4:	438b      	bics	r3, r1
     5a6:	391c      	subs	r1, #28
     5a8:	430b      	orrs	r3, r1
     5aa:	6053      	str	r3, [r2, #4]
     5ac:	4af9      	ldr	r2, [pc, #996]	; (994 <init+0x3fc>)
     5ae:	3106      	adds	r1, #6
     5b0:	6993      	ldr	r3, [r2, #24]
     5b2:	260f      	movs	r6, #15
     5b4:	430b      	orrs	r3, r1
     5b6:	6193      	str	r3, [r2, #24]
     5b8:	4bf7      	ldr	r3, [pc, #988]	; (998 <init+0x400>)
     5ba:	4798      	blx	r3
     5bc:	2000      	movs	r0, #0
     5be:	4bf7      	ldr	r3, [pc, #988]	; (99c <init+0x404>)
     5c0:	4798      	blx	r3
     5c2:	4bf7      	ldr	r3, [pc, #988]	; (9a0 <init+0x408>)
     5c4:	4798      	blx	r3
     5c6:	4bf7      	ldr	r3, [pc, #988]	; (9a4 <init+0x40c>)
     5c8:	4798      	blx	r3
     5ca:	4bf7      	ldr	r3, [pc, #988]	; (9a8 <init+0x410>)
     5cc:	4798      	blx	r3
     5ce:	4bf7      	ldr	r3, [pc, #988]	; (9ac <init+0x414>)
     5d0:	2002      	movs	r0, #2
     5d2:	0019      	movs	r1, r3
     5d4:	3154      	adds	r1, #84	; 0x54
     5d6:	780a      	ldrb	r2, [r1, #0]
     5d8:	001d      	movs	r5, r3
     5da:	43a2      	bics	r2, r4
     5dc:	700a      	strb	r2, [r1, #0]
     5de:	2280      	movs	r2, #128	; 0x80
     5e0:	0352      	lsls	r2, r2, #13
     5e2:	609a      	str	r2, [r3, #8]
     5e4:	3533      	adds	r5, #51	; 0x33
     5e6:	782a      	ldrb	r2, [r5, #0]
     5e8:	390e      	subs	r1, #14
     5ea:	43b2      	bics	r2, r6
     5ec:	4322      	orrs	r2, r4
     5ee:	702a      	strb	r2, [r5, #0]
     5f0:	780a      	ldrb	r2, [r1, #0]
     5f2:	001f      	movs	r7, r3
     5f4:	4322      	orrs	r2, r4
     5f6:	700a      	strb	r2, [r1, #0]
     5f8:	001a      	movs	r2, r3
     5fa:	3247      	adds	r2, #71	; 0x47
     5fc:	7811      	ldrb	r1, [r2, #0]
     5fe:	3794      	adds	r7, #148	; 0x94
     600:	43a1      	bics	r1, r4
     602:	7011      	strb	r1, [r2, #0]
     604:	7811      	ldrb	r1, [r2, #0]
     606:	4301      	orrs	r1, r0
     608:	7011      	strb	r1, [r2, #0]
     60a:	2180      	movs	r1, #128	; 0x80
     60c:	6059      	str	r1, [r3, #4]
     60e:	7829      	ldrb	r1, [r5, #0]
     610:	300e      	adds	r0, #14
     612:	4031      	ands	r1, r6
     614:	4301      	orrs	r1, r0
     616:	7029      	strb	r1, [r5, #0]
     618:	2502      	movs	r5, #2
     61a:	7811      	ldrb	r1, [r2, #0]
     61c:	4321      	orrs	r1, r4
     61e:	7011      	strb	r1, [r2, #0]
     620:	327c      	adds	r2, #124	; 0x7c
     622:	7811      	ldrb	r1, [r2, #0]
     624:	43a1      	bics	r1, r4
     626:	7011      	strb	r1, [r2, #0]
     628:	7811      	ldrb	r1, [r2, #0]
     62a:	4329      	orrs	r1, r5
     62c:	7011      	strb	r1, [r2, #0]
     62e:	2108      	movs	r1, #8
     630:	468c      	mov	ip, r1
     632:	449c      	add	ip, r3
     634:	4661      	mov	r1, ip
     636:	3506      	adds	r5, #6
     638:	67cd      	str	r5, [r1, #124]	; 0x7c
     63a:	31a9      	adds	r1, #169	; 0xa9
     63c:	780d      	ldrb	r5, [r1, #0]
     63e:	4035      	ands	r5, r6
     640:	4305      	orrs	r5, r0
     642:	700d      	strb	r5, [r1, #0]
     644:	7815      	ldrb	r5, [r2, #0]
     646:	4325      	orrs	r5, r4
     648:	7015      	strb	r5, [r2, #0]
     64a:	001d      	movs	r5, r3
     64c:	35d7      	adds	r5, #215	; 0xd7
     64e:	782a      	ldrb	r2, [r5, #0]
     650:	43a2      	bics	r2, r4
     652:	702a      	strb	r2, [r5, #0]
     654:	2580      	movs	r5, #128	; 0x80
     656:	4ad6      	ldr	r2, [pc, #856]	; (9b0 <init+0x418>)
     658:	042d      	lsls	r5, r5, #16
     65a:	6015      	str	r5, [r2, #0]
     65c:	002a      	movs	r2, r5
     65e:	9703      	str	r7, [sp, #12]
     660:	603a      	str	r2, [r7, #0]
     662:	001a      	movs	r2, r3
     664:	2702      	movs	r7, #2
     666:	32c2      	adds	r2, #194	; 0xc2
     668:	7815      	ldrb	r5, [r2, #0]
     66a:	43a5      	bics	r5, r4
     66c:	7015      	strb	r5, [r2, #0]
     66e:	7815      	ldrb	r5, [r2, #0]
     670:	433d      	orrs	r5, r7
     672:	7015      	strb	r5, [r2, #0]
     674:	4665      	mov	r5, ip
     676:	19ff      	adds	r7, r7, r7
     678:	67ef      	str	r7, [r5, #124]	; 0x7c
     67a:	780d      	ldrb	r5, [r1, #0]
     67c:	43b5      	bics	r5, r6
     67e:	4325      	orrs	r5, r4
     680:	700d      	strb	r5, [r1, #0]
     682:	7811      	ldrb	r1, [r2, #0]
     684:	2502      	movs	r5, #2
     686:	4321      	orrs	r1, r4
     688:	7011      	strb	r1, [r2, #0]
     68a:	0019      	movs	r1, r3
     68c:	31d6      	adds	r1, #214	; 0xd6
     68e:	780a      	ldrb	r2, [r1, #0]
     690:	43a2      	bics	r2, r4
     692:	700a      	strb	r2, [r1, #0]
     694:	2180      	movs	r1, #128	; 0x80
     696:	4ac6      	ldr	r2, [pc, #792]	; (9b0 <init+0x418>)
     698:	03c9      	lsls	r1, r1, #15
     69a:	6011      	str	r1, [r2, #0]
     69c:	000a      	movs	r2, r1
     69e:	9903      	ldr	r1, [sp, #12]
     6a0:	600a      	str	r2, [r1, #0]
     6a2:	001a      	movs	r2, r3
     6a4:	3243      	adds	r2, #67	; 0x43
     6a6:	7811      	ldrb	r1, [r2, #0]
     6a8:	43a1      	bics	r1, r4
     6aa:	7011      	strb	r1, [r2, #0]
     6ac:	7811      	ldrb	r1, [r2, #0]
     6ae:	4329      	orrs	r1, r5
     6b0:	7011      	strb	r1, [r2, #0]
     6b2:	001d      	movs	r5, r3
     6b4:	2108      	movs	r1, #8
     6b6:	3531      	adds	r5, #49	; 0x31
     6b8:	6059      	str	r1, [r3, #4]
     6ba:	7829      	ldrb	r1, [r5, #0]
     6bc:	4031      	ands	r1, r6
     6be:	4308      	orrs	r0, r1
     6c0:	7028      	strb	r0, [r5, #0]
     6c2:	7811      	ldrb	r1, [r2, #0]
     6c4:	2002      	movs	r0, #2
     6c6:	4321      	orrs	r1, r4
     6c8:	7011      	strb	r1, [r2, #0]
     6ca:	0019      	movs	r1, r3
     6cc:	3159      	adds	r1, #89	; 0x59
     6ce:	780a      	ldrb	r2, [r1, #0]
     6d0:	43a2      	bics	r2, r4
     6d2:	700a      	strb	r2, [r1, #0]
     6d4:	2280      	movs	r2, #128	; 0x80
     6d6:	0492      	lsls	r2, r2, #18
     6d8:	609a      	str	r2, [r3, #8]
     6da:	615a      	str	r2, [r3, #20]
     6dc:	001a      	movs	r2, r3
     6de:	3242      	adds	r2, #66	; 0x42
     6e0:	7811      	ldrb	r1, [r2, #0]
     6e2:	43a1      	bics	r1, r4
     6e4:	7011      	strb	r1, [r2, #0]
     6e6:	7811      	ldrb	r1, [r2, #0]
     6e8:	4301      	orrs	r1, r0
     6ea:	7011      	strb	r1, [r2, #0]
     6ec:	605f      	str	r7, [r3, #4]
     6ee:	7829      	ldrb	r1, [r5, #0]
     6f0:	0018      	movs	r0, r3
     6f2:	43b1      	bics	r1, r6
     6f4:	4321      	orrs	r1, r4
     6f6:	7029      	strb	r1, [r5, #0]
     6f8:	7811      	ldrb	r1, [r2, #0]
     6fa:	3048      	adds	r0, #72	; 0x48
     6fc:	4321      	orrs	r1, r4
     6fe:	7011      	strb	r1, [r2, #0]
     700:	0019      	movs	r1, r3
     702:	3158      	adds	r1, #88	; 0x58
     704:	780a      	ldrb	r2, [r1, #0]
     706:	001f      	movs	r7, r3
     708:	43a2      	bics	r2, r4
     70a:	700a      	strb	r2, [r1, #0]
     70c:	2280      	movs	r2, #128	; 0x80
     70e:	2100      	movs	r1, #0
     710:	0452      	lsls	r2, r2, #17
     712:	609a      	str	r2, [r3, #8]
     714:	615a      	str	r2, [r3, #20]
     716:	4aa7      	ldr	r2, [pc, #668]	; (9b4 <init+0x41c>)
     718:	3749      	adds	r7, #73	; 0x49
     71a:	7011      	strb	r1, [r2, #0]
     71c:	2100      	movs	r1, #0
     71e:	7211      	strb	r1, [r2, #8]
     720:	2100      	movs	r1, #0
     722:	7411      	strb	r1, [r2, #16]
     724:	2100      	movs	r1, #0
     726:	7611      	strb	r1, [r2, #24]
     728:	7802      	ldrb	r2, [r0, #0]
     72a:	2502      	movs	r5, #2
     72c:	43a2      	bics	r2, r4
     72e:	7002      	strb	r2, [r0, #0]
     730:	2280      	movs	r2, #128	; 0x80
     732:	0052      	lsls	r2, r2, #1
     734:	609a      	str	r2, [r3, #8]
     736:	783a      	ldrb	r2, [r7, #0]
     738:	43a2      	bics	r2, r4
     73a:	703a      	strb	r2, [r7, #0]
     73c:	2280      	movs	r2, #128	; 0x80
     73e:	0092      	lsls	r2, r2, #2
     740:	609a      	str	r2, [r3, #8]
     742:	001a      	movs	r2, r3
     744:	324b      	adds	r2, #75	; 0x4b
     746:	7811      	ldrb	r1, [r2, #0]
     748:	43a1      	bics	r1, r4
     74a:	7011      	strb	r1, [r2, #0]
     74c:	7811      	ldrb	r1, [r2, #0]
     74e:	4329      	orrs	r1, r5
     750:	7011      	strb	r1, [r2, #0]
     752:	2180      	movs	r1, #128	; 0x80
     754:	0109      	lsls	r1, r1, #4
     756:	6059      	str	r1, [r3, #4]
     758:	2135      	movs	r1, #53	; 0x35
     75a:	468c      	mov	ip, r1
     75c:	449c      	add	ip, r3
     75e:	4661      	mov	r1, ip
     760:	7809      	ldrb	r1, [r1, #0]
     762:	351e      	adds	r5, #30
     764:	4031      	ands	r1, r6
     766:	4329      	orrs	r1, r5
     768:	4665      	mov	r5, ip
     76a:	7029      	strb	r1, [r5, #0]
     76c:	7811      	ldrb	r1, [r2, #0]
     76e:	2520      	movs	r5, #32
     770:	4321      	orrs	r1, r4
     772:	7011      	strb	r1, [r2, #0]
     774:	0019      	movs	r1, r3
     776:	3134      	adds	r1, #52	; 0x34
     778:	780a      	ldrb	r2, [r1, #0]
     77a:	4032      	ands	r2, r6
     77c:	432a      	orrs	r2, r5
     77e:	700a      	strb	r2, [r1, #0]
     780:	783a      	ldrb	r2, [r7, #0]
     782:	3d1e      	subs	r5, #30
     784:	4322      	orrs	r2, r4
     786:	703a      	strb	r2, [r7, #0]
     788:	780a      	ldrb	r2, [r1, #0]
     78a:	3706      	adds	r7, #6
     78c:	43b2      	bics	r2, r6
     78e:	432a      	orrs	r2, r5
     790:	700a      	strb	r2, [r1, #0]
     792:	7802      	ldrb	r2, [r0, #0]
     794:	3196      	adds	r1, #150	; 0x96
     796:	4322      	orrs	r2, r4
     798:	7002      	strb	r2, [r0, #0]
     79a:	780a      	ldrb	r2, [r1, #0]
     79c:	43a2      	bics	r2, r4
     79e:	700a      	strb	r2, [r1, #0]
     7a0:	2280      	movs	r2, #128	; 0x80
     7a2:	4983      	ldr	r1, [pc, #524]	; (9b0 <init+0x418>)
     7a4:	00d2      	lsls	r2, r2, #3
     7a6:	600a      	str	r2, [r1, #0]
     7a8:	0019      	movs	r1, r3
     7aa:	3198      	adds	r1, #152	; 0x98
     7ac:	600a      	str	r2, [r1, #0]
     7ae:	7881      	ldrb	r1, [r0, #2]
     7b0:	43a1      	bics	r1, r4
     7b2:	7081      	strb	r1, [r0, #2]
     7b4:	609a      	str	r2, [r3, #8]
     7b6:	619a      	str	r2, [r3, #24]
     7b8:	7a02      	ldrb	r2, [r0, #8]
     7ba:	43a2      	bics	r2, r4
     7bc:	7202      	strb	r2, [r0, #8]
     7be:	2280      	movs	r2, #128	; 0x80
     7c0:	0252      	lsls	r2, r2, #9
     7c2:	609a      	str	r2, [r3, #8]
     7c4:	78ba      	ldrb	r2, [r7, #2]
     7c6:	43a2      	bics	r2, r4
     7c8:	70ba      	strb	r2, [r7, #2]
     7ca:	2280      	movs	r2, #128	; 0x80
     7cc:	0292      	lsls	r2, r2, #10
     7ce:	609a      	str	r2, [r3, #8]
     7d0:	001a      	movs	r2, r3
     7d2:	3253      	adds	r2, #83	; 0x53
     7d4:	7811      	ldrb	r1, [r2, #0]
     7d6:	43a1      	bics	r1, r4
     7d8:	7011      	strb	r1, [r2, #0]
     7da:	7811      	ldrb	r1, [r2, #0]
     7dc:	4329      	orrs	r1, r5
     7de:	7011      	strb	r1, [r2, #0]
     7e0:	2180      	movs	r1, #128	; 0x80
     7e2:	0309      	lsls	r1, r1, #12
     7e4:	6059      	str	r1, [r3, #4]
     7e6:	2139      	movs	r1, #57	; 0x39
     7e8:	468c      	mov	ip, r1
     7ea:	449c      	add	ip, r3
     7ec:	4661      	mov	r1, ip
     7ee:	7809      	ldrb	r1, [r1, #0]
     7f0:	351e      	adds	r5, #30
     7f2:	4031      	ands	r1, r6
     7f4:	4329      	orrs	r1, r5
     7f6:	4665      	mov	r5, ip
     7f8:	7029      	strb	r1, [r5, #0]
     7fa:	7811      	ldrb	r1, [r2, #0]
     7fc:	2520      	movs	r5, #32
     7fe:	4321      	orrs	r1, r4
     800:	7011      	strb	r1, [r2, #0]
     802:	0019      	movs	r1, r3
     804:	3138      	adds	r1, #56	; 0x38
     806:	780a      	ldrb	r2, [r1, #0]
     808:	4032      	ands	r2, r6
     80a:	432a      	orrs	r2, r5
     80c:	700a      	strb	r2, [r1, #0]
     80e:	78ba      	ldrb	r2, [r7, #2]
     810:	3d1e      	subs	r5, #30
     812:	4322      	orrs	r2, r4
     814:	70ba      	strb	r2, [r7, #2]
     816:	780a      	ldrb	r2, [r1, #0]
     818:	43b2      	bics	r2, r6
     81a:	432a      	orrs	r2, r5
     81c:	700a      	strb	r2, [r1, #0]
     81e:	7a02      	ldrb	r2, [r0, #8]
     820:	3114      	adds	r1, #20
     822:	4322      	orrs	r2, r4
     824:	7202      	strb	r2, [r0, #8]
     826:	798a      	ldrb	r2, [r1, #6]
     828:	43a2      	bics	r2, r4
     82a:	718a      	strb	r2, [r1, #6]
     82c:	2280      	movs	r2, #128	; 0x80
     82e:	02d2      	lsls	r2, r2, #11
     830:	609a      	str	r2, [r3, #8]
     832:	619a      	str	r2, [r3, #24]
     834:	9103      	str	r1, [sp, #12]
     836:	780a      	ldrb	r2, [r1, #0]
     838:	43a2      	bics	r2, r4
     83a:	700a      	strb	r2, [r1, #0]
     83c:	2280      	movs	r2, #128	; 0x80
     83e:	0152      	lsls	r2, r2, #5
     840:	609a      	str	r2, [r3, #8]
     842:	783a      	ldrb	r2, [r7, #0]
     844:	2120      	movs	r1, #32
     846:	43a2      	bics	r2, r4
     848:	703a      	strb	r2, [r7, #0]
     84a:	2280      	movs	r2, #128	; 0x80
     84c:	0212      	lsls	r2, r2, #8
     84e:	609a      	str	r2, [r3, #8]
     850:	001a      	movs	r2, r3
     852:	324d      	adds	r2, #77	; 0x4d
     854:	7810      	ldrb	r0, [r2, #0]
     856:	43a0      	bics	r0, r4
     858:	7010      	strb	r0, [r2, #0]
     85a:	7810      	ldrb	r0, [r2, #0]
     85c:	4328      	orrs	r0, r5
     85e:	7010      	strb	r0, [r2, #0]
     860:	2080      	movs	r0, #128	; 0x80
     862:	0180      	lsls	r0, r0, #6
     864:	6058      	str	r0, [r3, #4]
     866:	0018      	movs	r0, r3
     868:	3036      	adds	r0, #54	; 0x36
     86a:	7805      	ldrb	r5, [r0, #0]
     86c:	4035      	ands	r5, r6
     86e:	430d      	orrs	r5, r1
     870:	7005      	strb	r5, [r0, #0]
     872:	7811      	ldrb	r1, [r2, #0]
     874:	000d      	movs	r5, r1
     876:	4325      	orrs	r5, r4
     878:	7015      	strb	r5, [r2, #0]
     87a:	2237      	movs	r2, #55	; 0x37
     87c:	4694      	mov	ip, r2
     87e:	449c      	add	ip, r3
     880:	4662      	mov	r2, ip
     882:	2120      	movs	r1, #32
     884:	7812      	ldrb	r2, [r2, #0]
     886:	2502      	movs	r5, #2
     888:	4032      	ands	r2, r6
     88a:	430a      	orrs	r2, r1
     88c:	4661      	mov	r1, ip
     88e:	700a      	strb	r2, [r1, #0]
     890:	2102      	movs	r1, #2
     892:	783a      	ldrb	r2, [r7, #0]
     894:	4322      	orrs	r2, r4
     896:	703a      	strb	r2, [r7, #0]
     898:	7802      	ldrb	r2, [r0, #0]
     89a:	43b2      	bics	r2, r6
     89c:	430a      	orrs	r2, r1
     89e:	7002      	strb	r2, [r0, #0]
     8a0:	9a03      	ldr	r2, [sp, #12]
     8a2:	9903      	ldr	r1, [sp, #12]
     8a4:	7812      	ldrb	r2, [r2, #0]
     8a6:	2040      	movs	r0, #64	; 0x40
     8a8:	4322      	orrs	r2, r4
     8aa:	700a      	strb	r2, [r1, #0]
     8ac:	0019      	movs	r1, r3
     8ae:	314e      	adds	r1, #78	; 0x4e
     8b0:	780a      	ldrb	r2, [r1, #0]
     8b2:	43a2      	bics	r2, r4
     8b4:	700a      	strb	r2, [r1, #0]
     8b6:	2280      	movs	r2, #128	; 0x80
     8b8:	01d2      	lsls	r2, r2, #7
     8ba:	609a      	str	r2, [r3, #8]
     8bc:	619a      	str	r2, [r3, #24]
     8be:	001a      	movs	r2, r3
     8c0:	3255      	adds	r2, #85	; 0x55
     8c2:	7811      	ldrb	r1, [r2, #0]
     8c4:	43a1      	bics	r1, r4
     8c6:	7011      	strb	r1, [r2, #0]
     8c8:	2180      	movs	r1, #128	; 0x80
     8ca:	0389      	lsls	r1, r1, #14
     8cc:	6099      	str	r1, [r3, #8]
     8ce:	7811      	ldrb	r1, [r2, #0]
     8d0:	43a1      	bics	r1, r4
     8d2:	7011      	strb	r1, [r2, #0]
     8d4:	7811      	ldrb	r1, [r2, #0]
     8d6:	4301      	orrs	r1, r0
     8d8:	0018      	movs	r0, r3
     8da:	7011      	strb	r1, [r2, #0]
     8dc:	3056      	adds	r0, #86	; 0x56
     8de:	7802      	ldrb	r2, [r0, #0]
     8e0:	0019      	movs	r1, r3
     8e2:	43a2      	bics	r2, r4
     8e4:	7002      	strb	r2, [r0, #0]
     8e6:	2280      	movs	r2, #128	; 0x80
     8e8:	03d2      	lsls	r2, r2, #15
     8ea:	609a      	str	r2, [r3, #8]
     8ec:	313b      	adds	r1, #59	; 0x3b
     8ee:	780a      	ldrb	r2, [r1, #0]
     8f0:	43b2      	bics	r2, r6
     8f2:	432a      	orrs	r2, r5
     8f4:	700a      	strb	r2, [r1, #0]
     8f6:	7802      	ldrb	r2, [r0, #0]
     8f8:	4322      	orrs	r2, r4
     8fa:	7002      	strb	r2, [r0, #0]
     8fc:	001a      	movs	r2, r3
     8fe:	3257      	adds	r2, #87	; 0x57
     900:	7810      	ldrb	r0, [r2, #0]
     902:	43a0      	bics	r0, r4
     904:	7010      	strb	r0, [r2, #0]
     906:	7810      	ldrb	r0, [r2, #0]
     908:	4328      	orrs	r0, r5
     90a:	7010      	strb	r0, [r2, #0]
     90c:	2080      	movs	r0, #128	; 0x80
     90e:	0400      	lsls	r0, r0, #16
     910:	6058      	str	r0, [r3, #4]
     912:	2020      	movs	r0, #32
     914:	780b      	ldrb	r3, [r1, #0]
     916:	4033      	ands	r3, r6
     918:	4303      	orrs	r3, r0
     91a:	700b      	strb	r3, [r1, #0]
     91c:	7813      	ldrb	r3, [r2, #0]
     91e:	30a8      	adds	r0, #168	; 0xa8
     920:	4323      	orrs	r3, r4
     922:	7013      	strb	r3, [r2, #0]
     924:	4b24      	ldr	r3, [pc, #144]	; (9b8 <init+0x420>)
     926:	4798      	blx	r3
     928:	4f24      	ldr	r7, [pc, #144]	; (9bc <init+0x424>)
     92a:	0028      	movs	r0, r5
     92c:	2204      	movs	r2, #4
     92e:	2103      	movs	r1, #3
     930:	47b8      	blx	r7
     932:	2300      	movs	r3, #0
     934:	4e22      	ldr	r6, [pc, #136]	; (9c0 <init+0x428>)
     936:	9301      	str	r3, [sp, #4]
     938:	9300      	str	r3, [sp, #0]
     93a:	0021      	movs	r1, r4
     93c:	0028      	movs	r0, r5
     93e:	2203      	movs	r2, #3
     940:	47b0      	blx	r6
     942:	2204      	movs	r2, #4
     944:	2103      	movs	r1, #3
     946:	2000      	movs	r0, #0
     948:	47b8      	blx	r7
     94a:	2300      	movs	r3, #0
     94c:	2103      	movs	r1, #3
     94e:	9301      	str	r3, [sp, #4]
     950:	9300      	str	r3, [sp, #0]
     952:	001a      	movs	r2, r3
     954:	0018      	movs	r0, r3
     956:	47b0      	blx	r6
     958:	0020      	movs	r0, r4
     95a:	2204      	movs	r2, #4
     95c:	2103      	movs	r1, #3
     95e:	47b8      	blx	r7
     960:	2300      	movs	r3, #0
     962:	0020      	movs	r0, r4
     964:	9301      	str	r3, [sp, #4]
     966:	9300      	str	r3, [sp, #0]
     968:	001a      	movs	r2, r3
     96a:	2103      	movs	r1, #3
     96c:	47b0      	blx	r6
     96e:	2208      	movs	r2, #8
     970:	2104      	movs	r1, #4
     972:	2003      	movs	r0, #3
     974:	47b8      	blx	r7
     976:	2396      	movs	r3, #150	; 0x96
     978:	0021      	movs	r1, r4
     97a:	2200      	movs	r2, #0
     97c:	2003      	movs	r0, #3
     97e:	01db      	lsls	r3, r3, #7
     980:	4c10      	ldr	r4, [pc, #64]	; (9c4 <init+0x42c>)
     982:	47a0      	blx	r4
     984:	4b10      	ldr	r3, [pc, #64]	; (9c8 <init+0x430>)
     986:	4798      	blx	r3
     988:	4b10      	ldr	r3, [pc, #64]	; (9cc <init+0x434>)
     98a:	4798      	blx	r3
     98c:	b005      	add	sp, #20
     98e:	e01f      	b.n	9d0 <init+0x438>
     990:	41004000 	.word	0x41004000
     994:	40000400 	.word	0x40000400
     998:	000001d5 	.word	0x000001d5
     99c:	00001021 	.word	0x00001021
     9a0:	00000f21 	.word	0x00000f21
     9a4:	00001095 	.word	0x00001095
     9a8:	00000d41 	.word	0x00000d41
     9ac:	41004400 	.word	0x41004400
     9b0:	41004488 	.word	0x41004488
     9b4:	200002ac 	.word	0x200002ac
     9b8:	000010f5 	.word	0x000010f5
     9bc:	00002b49 	.word	0x00002b49
     9c0:	00002bad 	.word	0x00002bad
     9c4:	00002c11 	.word	0x00002c11
     9c8:	00001175 	.word	0x00001175
     9cc:	000011dd 	.word	0x000011dd
     9d0:	bdf0      	pop	{r4, r5, r6, r7, pc}
     9d2:	46c0      	nop			; (mov r8, r8)

000009d4 <main>:
     9d4:	b510      	push	{r4, lr}
     9d6:	4b12      	ldr	r3, [pc, #72]	; (a20 <main+0x4c>)
     9d8:	4798      	blx	r3
     9da:	4b12      	ldr	r3, [pc, #72]	; (a24 <main+0x50>)
     9dc:	4798      	blx	r3
     9de:	4b12      	ldr	r3, [pc, #72]	; (a28 <main+0x54>)
     9e0:	4798      	blx	r3
     9e2:	4b12      	ldr	r3, [pc, #72]	; (a2c <main+0x58>)
     9e4:	4798      	blx	r3
     9e6:	4c12      	ldr	r4, [pc, #72]	; (a30 <main+0x5c>)
     9e8:	47a0      	blx	r4
     9ea:	4b12      	ldr	r3, [pc, #72]	; (a34 <main+0x60>)
     9ec:	4798      	blx	r3
     9ee:	4b12      	ldr	r3, [pc, #72]	; (a38 <main+0x64>)
     9f0:	4798      	blx	r3
     9f2:	4b12      	ldr	r3, [pc, #72]	; (a3c <main+0x68>)
     9f4:	4798      	blx	r3
     9f6:	20c8      	movs	r0, #200	; 0xc8
     9f8:	4b11      	ldr	r3, [pc, #68]	; (a40 <main+0x6c>)
     9fa:	0080      	lsls	r0, r0, #2
     9fc:	4798      	blx	r3
     9fe:	4b11      	ldr	r3, [pc, #68]	; (a44 <main+0x70>)
     a00:	4798      	blx	r3
     a02:	4b11      	ldr	r3, [pc, #68]	; (a48 <main+0x74>)
     a04:	6018      	str	r0, [r3, #0]
     a06:	4b11      	ldr	r3, [pc, #68]	; (a4c <main+0x78>)
     a08:	4798      	blx	r3
     a0a:	2800      	cmp	r0, #0
     a0c:	d0fb      	beq.n	a06 <main+0x32>
     a0e:	47a0      	blx	r4
     a10:	4b0f      	ldr	r3, [pc, #60]	; (a50 <main+0x7c>)
     a12:	4798      	blx	r3
     a14:	4b0f      	ldr	r3, [pc, #60]	; (a54 <main+0x80>)
     a16:	4798      	blx	r3
     a18:	4b0f      	ldr	r3, [pc, #60]	; (a58 <main+0x84>)
     a1a:	4798      	blx	r3
     a1c:	e7f3      	b.n	a06 <main+0x32>
     a1e:	46c0      	nop			; (mov r8, r8)
     a20:	00000599 	.word	0x00000599
     a24:	00000559 	.word	0x00000559
     a28:	00000a75 	.word	0x00000a75
     a2c:	000017ed 	.word	0x000017ed
     a30:	00002839 	.word	0x00002839
     a34:	00000c49 	.word	0x00000c49
     a38:	0000158d 	.word	0x0000158d
     a3c:	00002db9 	.word	0x00002db9
     a40:	00000e25 	.word	0x00000e25
     a44:	00001141 	.word	0x00001141
     a48:	20000154 	.word	0x20000154
     a4c:	00002821 	.word	0x00002821
     a50:	00001245 	.word	0x00001245
     a54:	00001661 	.word	0x00001661
     a58:	00002259 	.word	0x00002259

00000a5c <HardFault_Handler>:
     a5c:	f3bf 8f4f 	dsb	sy
     a60:	4a02      	ldr	r2, [pc, #8]	; (a6c <HardFault_Handler+0x10>)
     a62:	4b03      	ldr	r3, [pc, #12]	; (a70 <HardFault_Handler+0x14>)
     a64:	60da      	str	r2, [r3, #12]
     a66:	f3bf 8f4f 	dsb	sy
     a6a:	e7fe      	b.n	a6a <HardFault_Handler+0xe>
     a6c:	05fa0004 	.word	0x05fa0004
     a70:	e000ed00 	.word	0xe000ed00

00000a74 <IMUinit>:
     a74:	b570      	push	{r4, r5, r6, lr}
     a76:	4c08      	ldr	r4, [pc, #32]	; (a98 <IMUinit+0x24>)
     a78:	2580      	movs	r5, #128	; 0x80
     a7a:	0023      	movs	r3, r4
     a7c:	00ed      	lsls	r5, r5, #3
     a7e:	3394      	adds	r3, #148	; 0x94
     a80:	601d      	str	r5, [r3, #0]
     a82:	4e06      	ldr	r6, [pc, #24]	; (a9c <IMUinit+0x28>)
     a84:	210f      	movs	r1, #15
     a86:	2000      	movs	r0, #0
     a88:	47b0      	blx	r6
     a8a:	3498      	adds	r4, #152	; 0x98
     a8c:	210c      	movs	r1, #12
     a8e:	2000      	movs	r0, #0
     a90:	47b0      	blx	r6
     a92:	6025      	str	r5, [r4, #0]
     a94:	bd70      	pop	{r4, r5, r6, pc}
     a96:	46c0      	nop			; (mov r8, r8)
     a98:	41004400 	.word	0x41004400
     a9c:	00002c71 	.word	0x00002c71

00000aa0 <USARTconnectionAvaliable>:
     aa0:	b510      	push	{r4, lr}
     aa2:	4b09      	ldr	r3, [pc, #36]	; (ac8 <USARTconnectionAvaliable+0x28>)
     aa4:	7e1c      	ldrb	r4, [r3, #24]
     aa6:	0764      	lsls	r4, r4, #29
     aa8:	0fe4      	lsrs	r4, r4, #31
     aaa:	2c01      	cmp	r4, #1
     aac:	d001      	beq.n	ab2 <USARTconnectionAvaliable+0x12>
     aae:	2000      	movs	r0, #0
     ab0:	e009      	b.n	ac6 <USARTconnectionAvaliable+0x26>
     ab2:	2003      	movs	r0, #3
     ab4:	4b05      	ldr	r3, [pc, #20]	; (acc <USARTconnectionAvaliable+0x2c>)
     ab6:	4798      	blx	r3
     ab8:	1e01      	subs	r1, r0, #0
     aba:	2948      	cmp	r1, #72	; 0x48
     abc:	d1f7      	bne.n	aae <USARTconnectionAvaliable+0xe>
     abe:	2003      	movs	r0, #3
     ac0:	4b03      	ldr	r3, [pc, #12]	; (ad0 <USARTconnectionAvaliable+0x30>)
     ac2:	4798      	blx	r3
     ac4:	0020      	movs	r0, r4
     ac6:	bd10      	pop	{r4, pc}
     ac8:	42001400 	.word	0x42001400
     acc:	00002cbd 	.word	0x00002cbd
     ad0:	00002ca5 	.word	0x00002ca5

00000ad4 <sendTheasePagesToComputer>:
     ad4:	b5f0      	push	{r4, r5, r6, r7, lr}
     ad6:	2780      	movs	r7, #128	; 0x80
     ad8:	0005      	movs	r5, r0
     ada:	2400      	movs	r4, #0
     adc:	1a09      	subs	r1, r1, r0
     ade:	0a09      	lsrs	r1, r1, #8
     ae0:	b0c3      	sub	sp, #268	; 0x10c
     ae2:	b28b      	uxth	r3, r1
     ae4:	9301      	str	r3, [sp, #4]
     ae6:	007f      	lsls	r7, r7, #1
     ae8:	a902      	add	r1, sp, #8
     aea:	0028      	movs	r0, r5
     aec:	4b09      	ldr	r3, [pc, #36]	; (b14 <sendTheasePagesToComputer+0x40>)
     aee:	4798      	blx	r3
     af0:	2600      	movs	r6, #0
     af2:	ab02      	add	r3, sp, #8
     af4:	5d99      	ldrb	r1, [r3, r6]
     af6:	2003      	movs	r0, #3
     af8:	4b07      	ldr	r3, [pc, #28]	; (b18 <sendTheasePagesToComputer+0x44>)
     afa:	3601      	adds	r6, #1
     afc:	4798      	blx	r3
     afe:	42be      	cmp	r6, r7
     b00:	d1f7      	bne.n	af2 <sendTheasePagesToComputer+0x1e>
     b02:	3401      	adds	r4, #1
     b04:	9b01      	ldr	r3, [sp, #4]
     b06:	3501      	adds	r5, #1
     b08:	b2a4      	uxth	r4, r4
     b0a:	35ff      	adds	r5, #255	; 0xff
     b0c:	42a3      	cmp	r3, r4
     b0e:	d2eb      	bcs.n	ae8 <sendTheasePagesToComputer+0x14>
     b10:	b043      	add	sp, #268	; 0x10c
     b12:	bdf0      	pop	{r4, r5, r6, r7, pc}
     b14:	0000035d 	.word	0x0000035d
     b18:	00002ca5 	.word	0x00002ca5

00000b1c <altitudeAGL>:
     b1c:	4b07      	ldr	r3, [pc, #28]	; (b3c <altitudeAGL+0x20>)
     b1e:	b510      	push	{r4, lr}
     b20:	6998      	ldr	r0, [r3, #24]
     b22:	4b07      	ldr	r3, [pc, #28]	; (b40 <altitudeAGL+0x24>)
     b24:	4798      	blx	r3
     b26:	000b      	movs	r3, r1
     b28:	4906      	ldr	r1, [pc, #24]	; (b44 <altitudeAGL+0x28>)
     b2a:	0002      	movs	r2, r0
     b2c:	6808      	ldr	r0, [r1, #0]
     b2e:	6849      	ldr	r1, [r1, #4]
     b30:	4c05      	ldr	r4, [pc, #20]	; (b48 <altitudeAGL+0x2c>)
     b32:	47a0      	blx	r4
     b34:	4b05      	ldr	r3, [pc, #20]	; (b4c <altitudeAGL+0x30>)
     b36:	4798      	blx	r3
     b38:	bd10      	pop	{r4, pc}
     b3a:	46c0      	nop			; (mov r8, r8)
     b3c:	20000108 	.word	0x20000108
     b40:	000061d1 	.word	0x000061d1
     b44:	200002e0 	.word	0x200002e0
     b48:	000059f9 	.word	0x000059f9
     b4c:	000060e1 	.word	0x000060e1

00000b50 <unplugged>:
     b50:	4b07      	ldr	r3, [pc, #28]	; (b70 <unplugged+0x20>)
     b52:	b570      	push	{r4, r5, r6, lr}
     b54:	68d8      	ldr	r0, [r3, #12]
     b56:	4b07      	ldr	r3, [pc, #28]	; (b74 <unplugged+0x24>)
     b58:	4798      	blx	r3
     b5a:	4a07      	ldr	r2, [pc, #28]	; (b78 <unplugged+0x28>)
     b5c:	4b07      	ldr	r3, [pc, #28]	; (b7c <unplugged+0x2c>)
     b5e:	4d08      	ldr	r5, [pc, #32]	; (b80 <unplugged+0x30>)
     b60:	2401      	movs	r4, #1
     b62:	47a8      	blx	r5
     b64:	2800      	cmp	r0, #0
     b66:	d100      	bne.n	b6a <unplugged+0x1a>
     b68:	1c04      	adds	r4, r0, #0
     b6a:	b2e0      	uxtb	r0, r4
     b6c:	bd70      	pop	{r4, r5, r6, pc}
     b6e:	46c0      	nop			; (mov r8, r8)
     b70:	20000578 	.word	0x20000578
     b74:	00006241 	.word	0x00006241
     b78:	66666666 	.word	0x66666666
     b7c:	400a6666 	.word	0x400a6666
     b80:	00004315 	.word	0x00004315

00000b84 <shutDown>:
     b84:	b510      	push	{r4, lr}
     b86:	2064      	movs	r0, #100	; 0x64
     b88:	4b14      	ldr	r3, [pc, #80]	; (bdc <shutDown+0x58>)
     b8a:	4798      	blx	r3
     b8c:	2300      	movs	r3, #0
     b8e:	2180      	movs	r1, #128	; 0x80
     b90:	4a13      	ldr	r2, [pc, #76]	; (be0 <shutDown+0x5c>)
     b92:	0309      	lsls	r1, r1, #12
     b94:	8013      	strh	r3, [r2, #0]
     b96:	4a13      	ldr	r2, [pc, #76]	; (be4 <shutDown+0x60>)
     b98:	2480      	movs	r4, #128	; 0x80
     b9a:	8013      	strh	r3, [r2, #0]
     b9c:	4a12      	ldr	r2, [pc, #72]	; (be8 <shutDown+0x64>)
     b9e:	2002      	movs	r0, #2
     ba0:	67d1      	str	r1, [r2, #124]	; 0x7c
     ba2:	2108      	movs	r1, #8
     ba4:	0364      	lsls	r4, r4, #13
     ba6:	67d4      	str	r4, [r2, #124]	; 0x7c
     ba8:	67d1      	str	r1, [r2, #124]	; 0x7c
     baa:	4a10      	ldr	r2, [pc, #64]	; (bec <shutDown+0x68>)
     bac:	8811      	ldrh	r1, [r2, #0]
     bae:	4381      	bics	r1, r0
     bb0:	8011      	strh	r1, [r2, #0]
     bb2:	4a0f      	ldr	r2, [pc, #60]	; (bf0 <shutDown+0x6c>)
     bb4:	6013      	str	r3, [r2, #0]
     bb6:	4a0f      	ldr	r2, [pc, #60]	; (bf4 <shutDown+0x70>)
     bb8:	6193      	str	r3, [r2, #24]
     bba:	2280      	movs	r2, #128	; 0x80
     bbc:	4b0e      	ldr	r3, [pc, #56]	; (bf8 <shutDown+0x74>)
     bbe:	0052      	lsls	r2, r2, #1
     bc0:	609a      	str	r2, [r3, #8]
     bc2:	2283      	movs	r2, #131	; 0x83
     bc4:	0252      	lsls	r2, r2, #9
     bc6:	605a      	str	r2, [r3, #4]
     bc8:	4b0c      	ldr	r3, [pc, #48]	; (bfc <shutDown+0x78>)
     bca:	4a0d      	ldr	r2, [pc, #52]	; (c00 <shutDown+0x7c>)
     bcc:	619c      	str	r4, [r3, #24]
     bce:	4b0d      	ldr	r3, [pc, #52]	; (c04 <shutDown+0x80>)
     bd0:	635a      	str	r2, [r3, #52]	; 0x34
     bd2:	6b5a      	ldr	r2, [r3, #52]	; 0x34
     bd4:	4302      	orrs	r2, r0
     bd6:	635a      	str	r2, [r3, #52]	; 0x34
     bd8:	e7fe      	b.n	bd8 <shutDown+0x54>
     bda:	46c0      	nop			; (mov r8, r8)
     bdc:	000010f5 	.word	0x000010f5
     be0:	42003000 	.word	0x42003000
     be4:	42003400 	.word	0x42003400
     be8:	e000e104 	.word	0xe000e104
     bec:	40001400 	.word	0x40001400
     bf0:	e000e010 	.word	0xe000e010
     bf4:	40000400 	.word	0x40000400
     bf8:	40000c00 	.word	0x40000c00
     bfc:	41004400 	.word	0x41004400
     c00:	003c2008 	.word	0x003c2008
     c04:	40000800 	.word	0x40000800

00000c08 <finishFlight>:
     c08:	2201      	movs	r2, #1
     c0a:	4b05      	ldr	r3, [pc, #20]	; (c20 <finishFlight+0x18>)
     c0c:	b510      	push	{r4, lr}
     c0e:	701a      	strb	r2, [r3, #0]
     c10:	4b04      	ldr	r3, [pc, #16]	; (c24 <finishFlight+0x1c>)
     c12:	4798      	blx	r3
     c14:	4b04      	ldr	r3, [pc, #16]	; (c28 <finishFlight+0x20>)
     c16:	4798      	blx	r3
     c18:	4b04      	ldr	r3, [pc, #16]	; (c2c <finishFlight+0x24>)
     c1a:	4798      	blx	r3
     c1c:	4b04      	ldr	r3, [pc, #16]	; (c30 <finishFlight+0x28>)
     c1e:	4798      	blx	r3
     c20:	20000164 	.word	0x20000164
     c24:	000001e5 	.word	0x000001e5
     c28:	000026dd 	.word	0x000026dd
     c2c:	00000e99 	.word	0x00000e99
     c30:	00000b85 	.word	0x00000b85

00000c34 <finishFromPad>:
     c34:	4b02      	ldr	r3, [pc, #8]	; (c40 <finishFromPad+0xc>)
     c36:	b510      	push	{r4, lr}
     c38:	4798      	blx	r3
     c3a:	4b02      	ldr	r3, [pc, #8]	; (c44 <finishFromPad+0x10>)
     c3c:	4798      	blx	r3
     c3e:	46c0      	nop			; (mov r8, r8)
     c40:	00000e99 	.word	0x00000e99
     c44:	00000b85 	.word	0x00000b85

00000c48 <POST>:
     c48:	b5f0      	push	{r4, r5, r6, r7, lr}
     c4a:	4b32      	ldr	r3, [pc, #200]	; (d14 <POST+0xcc>)
     c4c:	b085      	sub	sp, #20
     c4e:	4798      	blx	r3
     c50:	4b31      	ldr	r3, [pc, #196]	; (d18 <POST+0xd0>)
     c52:	b280      	uxth	r0, r0
     c54:	89db      	ldrh	r3, [r3, #14]
     c56:	2401      	movs	r4, #1
     c58:	4283      	cmp	r3, r0
     c5a:	d100      	bne.n	c5e <POST+0x16>
     c5c:	2400      	movs	r4, #0
     c5e:	2780      	movs	r7, #128	; 0x80
     c60:	4d2e      	ldr	r5, [pc, #184]	; (d1c <POST+0xd4>)
     c62:	02ff      	lsls	r7, r7, #11
     c64:	219f      	movs	r1, #159	; 0x9f
     c66:	4b2e      	ldr	r3, [pc, #184]	; (d20 <POST+0xd8>)
     c68:	9401      	str	r4, [sp, #4]
     c6a:	2001      	movs	r0, #1
     c6c:	616f      	str	r7, [r5, #20]
     c6e:	4798      	blx	r3
     c70:	4e2c      	ldr	r6, [pc, #176]	; (d24 <POST+0xdc>)
     c72:	2001      	movs	r0, #1
     c74:	47b0      	blx	r6
     c76:	9002      	str	r0, [sp, #8]
     c78:	2001      	movs	r0, #1
     c7a:	47b0      	blx	r6
     c7c:	9003      	str	r0, [sp, #12]
     c7e:	2001      	movs	r0, #1
     c80:	47b0      	blx	r6
     c82:	61af      	str	r7, [r5, #24]
     c84:	9b02      	ldr	r3, [sp, #8]
     c86:	3b1f      	subs	r3, #31
     c88:	1e5a      	subs	r2, r3, #1
     c8a:	4193      	sbcs	r3, r2
     c8c:	0019      	movs	r1, r3
     c8e:	9b03      	ldr	r3, [sp, #12]
     c90:	3b86      	subs	r3, #134	; 0x86
     c92:	1e5a      	subs	r2, r3, #1
     c94:	4193      	sbcs	r3, r2
     c96:	4a22      	ldr	r2, [pc, #136]	; (d20 <POST+0xd8>)
     c98:	9202      	str	r2, [sp, #8]
     c9a:	420b      	tst	r3, r1
     c9c:	d004      	beq.n	ca8 <POST+0x60>
     c9e:	2801      	cmp	r0, #1
     ca0:	d002      	beq.n	ca8 <POST+0x60>
     ca2:	2301      	movs	r3, #1
     ca4:	2402      	movs	r4, #2
     ca6:	9301      	str	r3, [sp, #4]
     ca8:	2780      	movs	r7, #128	; 0x80
     caa:	4b1f      	ldr	r3, [pc, #124]	; (d28 <POST+0xe0>)
     cac:	00ff      	lsls	r7, r7, #3
     cae:	601f      	str	r7, [r3, #0]
     cb0:	9b02      	ldr	r3, [sp, #8]
     cb2:	2180      	movs	r1, #128	; 0x80
     cb4:	2000      	movs	r0, #0
     cb6:	4798      	blx	r3
     cb8:	21ff      	movs	r1, #255	; 0xff
     cba:	2000      	movs	r0, #0
     cbc:	4e1b      	ldr	r6, [pc, #108]	; (d2c <POST+0xe4>)
     cbe:	47b0      	blx	r6
     cc0:	4b1b      	ldr	r3, [pc, #108]	; (d30 <POST+0xe8>)
     cc2:	601f      	str	r7, [r3, #0]
     cc4:	28fa      	cmp	r0, #250	; 0xfa
     cc6:	d002      	beq.n	cce <POST+0x86>
     cc8:	2301      	movs	r3, #1
     cca:	2403      	movs	r4, #3
     ccc:	9301      	str	r3, [sp, #4]
     cce:	616f      	str	r7, [r5, #20]
     cd0:	2180      	movs	r1, #128	; 0x80
     cd2:	2000      	movs	r0, #0
     cd4:	9b02      	ldr	r3, [sp, #8]
     cd6:	4798      	blx	r3
     cd8:	21ff      	movs	r1, #255	; 0xff
     cda:	2000      	movs	r0, #0
     cdc:	47b0      	blx	r6
     cde:	61af      	str	r7, [r5, #24]
     ce0:	280f      	cmp	r0, #15
     ce2:	d103      	bne.n	cec <POST+0xa4>
     ce4:	9b01      	ldr	r3, [sp, #4]
     ce6:	2b00      	cmp	r3, #0
     ce8:	d101      	bne.n	cee <POST+0xa6>
     cea:	e011      	b.n	d10 <POST+0xc8>
     cec:	2404      	movs	r4, #4
     cee:	0025      	movs	r5, r4
     cf0:	4e10      	ldr	r6, [pc, #64]	; (d34 <POST+0xec>)
     cf2:	2d00      	cmp	r5, #0
     cf4:	d009      	beq.n	d0a <POST+0xc2>
     cf6:	2096      	movs	r0, #150	; 0x96
     cf8:	4b0f      	ldr	r3, [pc, #60]	; (d38 <POST+0xf0>)
     cfa:	0040      	lsls	r0, r0, #1
     cfc:	4798      	blx	r3
     cfe:	2096      	movs	r0, #150	; 0x96
     d00:	3d01      	subs	r5, #1
     d02:	0040      	lsls	r0, r0, #1
     d04:	47b0      	blx	r6
     d06:	b2ed      	uxtb	r5, r5
     d08:	e7f2      	b.n	cf0 <POST+0xa8>
     d0a:	480c      	ldr	r0, [pc, #48]	; (d3c <POST+0xf4>)
     d0c:	47b0      	blx	r6
     d0e:	e7ee      	b.n	cee <POST+0xa6>
     d10:	b005      	add	sp, #20
     d12:	bdf0      	pop	{r4, r5, r6, r7, pc}
     d14:	00000589 	.word	0x00000589
     d18:	20000266 	.word	0x20000266
     d1c:	41004400 	.word	0x41004400
     d20:	00002c71 	.word	0x00002c71
     d24:	00002c89 	.word	0x00002c89
     d28:	41004494 	.word	0x41004494
     d2c:	00002c59 	.word	0x00002c59
     d30:	41004498 	.word	0x41004498
     d34:	000010f5 	.word	0x000010f5
     d38:	00000e25 	.word	0x00000e25
     d3c:	000005dc 	.word	0x000005dc

00000d40 <adcInit>:
     d40:	2180      	movs	r1, #128	; 0x80
     d42:	b510      	push	{r4, lr}
     d44:	4a10      	ldr	r2, [pc, #64]	; (d88 <adcInit+0x48>)
     d46:	0249      	lsls	r1, r1, #9
     d48:	6a13      	ldr	r3, [r2, #32]
     d4a:	4810      	ldr	r0, [pc, #64]	; (d8c <adcInit+0x4c>)
     d4c:	430b      	orrs	r3, r1
     d4e:	6213      	str	r3, [r2, #32]
     d50:	23e0      	movs	r3, #224	; 0xe0
     d52:	490f      	ldr	r1, [pc, #60]	; (d90 <adcInit+0x50>)
     d54:	4a0f      	ldr	r2, [pc, #60]	; (d94 <adcInit+0x54>)
     d56:	00db      	lsls	r3, r3, #3
     d58:	808b      	strh	r3, [r1, #4]
     d5a:	8050      	strh	r0, [r2, #2]
     d5c:	4a0e      	ldr	r2, [pc, #56]	; (d98 <adcInit+0x58>)
     d5e:	6812      	ldr	r2, [r2, #0]
     d60:	0150      	lsls	r0, r2, #5
     d62:	4018      	ands	r0, r3
     d64:	4b0d      	ldr	r3, [pc, #52]	; (d9c <adcInit+0x5c>)
     d66:	0154      	lsls	r4, r2, #5
     d68:	681a      	ldr	r2, [r3, #0]
     d6a:	0ed3      	lsrs	r3, r2, #27
     d6c:	4323      	orrs	r3, r4
     d6e:	b2da      	uxtb	r2, r3
     d70:	0003      	movs	r3, r0
     d72:	4313      	orrs	r3, r2
     d74:	850b      	strh	r3, [r1, #40]	; 0x28
     d76:	2301      	movs	r3, #1
     d78:	704b      	strb	r3, [r1, #1]
     d7a:	18db      	adds	r3, r3, r3
     d7c:	700b      	strb	r3, [r1, #0]
     d7e:	7e4b      	ldrb	r3, [r1, #25]
     d80:	b25b      	sxtb	r3, r3
     d82:	2b00      	cmp	r3, #0
     d84:	dbfb      	blt.n	d7e <adcInit+0x3e>
     d86:	bd10      	pop	{r4, pc}
     d88:	40000400 	.word	0x40000400
     d8c:	0000401e 	.word	0x0000401e
     d90:	42004000 	.word	0x42004000
     d94:	40000c00 	.word	0x40000c00
     d98:	00806024 	.word	0x00806024
     d9c:	00806020 	.word	0x00806020

00000da0 <adcSample>:
     da0:	2202      	movs	r2, #2
     da2:	4b05      	ldr	r3, [pc, #20]	; (db8 <adcSample+0x18>)
     da4:	731a      	strb	r2, [r3, #12]
     da6:	3a01      	subs	r2, #1
     da8:	7e19      	ldrb	r1, [r3, #24]
     daa:	4211      	tst	r1, r2
     dac:	d0fc      	beq.n	da8 <adcSample+0x8>
     dae:	4b02      	ldr	r3, [pc, #8]	; (db8 <adcSample+0x18>)
     db0:	8b58      	ldrh	r0, [r3, #26]
     db2:	b280      	uxth	r0, r0
     db4:	4770      	bx	lr
     db6:	46c0      	nop			; (mov r8, r8)
     db8:	42004000 	.word	0x42004000

00000dbc <adc_read>:
     dbc:	b537      	push	{r0, r1, r2, r4, r5, lr}
     dbe:	2501      	movs	r5, #1
     dc0:	0c02      	lsrs	r2, r0, #16
     dc2:	b2d4      	uxtb	r4, r2
     dc4:	9000      	str	r0, [sp, #0]
     dc6:	0e00      	lsrs	r0, r0, #24
     dc8:	9101      	str	r1, [sp, #4]
     dca:	0842      	lsrs	r2, r0, #1
     dcc:	01e3      	lsls	r3, r4, #7
     dce:	4911      	ldr	r1, [pc, #68]	; (e14 <adc_read+0x58>)
     dd0:	18d2      	adds	r2, r2, r3
     dd2:	1852      	adds	r2, r2, r1
     dd4:	4228      	tst	r0, r5
     dd6:	d005      	beq.n	de4 <adc_read+0x28>
     dd8:	210f      	movs	r1, #15
     dda:	7814      	ldrb	r4, [r2, #0]
     ddc:	4021      	ands	r1, r4
     dde:	2410      	movs	r4, #16
     de0:	4321      	orrs	r1, r4
     de2:	e003      	b.n	dec <adc_read+0x30>
     de4:	240f      	movs	r4, #15
     de6:	7811      	ldrb	r1, [r2, #0]
     de8:	43a1      	bics	r1, r4
     dea:	4329      	orrs	r1, r5
     dec:	7011      	strb	r1, [r2, #0]
     dee:	2101      	movs	r1, #1
     df0:	4a09      	ldr	r2, [pc, #36]	; (e18 <adc_read+0x5c>)
     df2:	18c3      	adds	r3, r0, r3
     df4:	189b      	adds	r3, r3, r2
     df6:	781a      	ldrb	r2, [r3, #0]
     df8:	430a      	orrs	r2, r1
     dfa:	701a      	strb	r2, [r3, #0]
     dfc:	466b      	mov	r3, sp
     dfe:	791a      	ldrb	r2, [r3, #4]
     e00:	231f      	movs	r3, #31
     e02:	4013      	ands	r3, r2
     e04:	22c0      	movs	r2, #192	; 0xc0
     e06:	0152      	lsls	r2, r2, #5
     e08:	4313      	orrs	r3, r2
     e0a:	4a04      	ldr	r2, [pc, #16]	; (e1c <adc_read+0x60>)
     e0c:	6113      	str	r3, [r2, #16]
     e0e:	4b04      	ldr	r3, [pc, #16]	; (e20 <adc_read+0x64>)
     e10:	4798      	blx	r3
     e12:	bd3e      	pop	{r1, r2, r3, r4, r5, pc}
     e14:	41004430 	.word	0x41004430
     e18:	41004440 	.word	0x41004440
     e1c:	42004000 	.word	0x42004000
     e20:	00000da1 	.word	0x00000da1

00000e24 <beep>:
     e24:	b5f8      	push	{r3, r4, r5, r6, r7, lr}
     e26:	2380      	movs	r3, #128	; 0x80
     e28:	2780      	movs	r7, #128	; 0x80
     e2a:	0006      	movs	r6, r0
     e2c:	2500      	movs	r5, #0
     e2e:	4c0a      	ldr	r4, [pc, #40]	; (e58 <beep+0x34>)
     e30:	035b      	lsls	r3, r3, #13
     e32:	61e3      	str	r3, [r4, #28]
     e34:	03bf      	lsls	r7, r7, #14
     e36:	42b5      	cmp	r5, r6
     e38:	d006      	beq.n	e48 <beep+0x24>
     e3a:	61e7      	str	r7, [r4, #28]
     e3c:	207a      	movs	r0, #122	; 0x7a
     e3e:	4b07      	ldr	r3, [pc, #28]	; (e5c <beep+0x38>)
     e40:	3501      	adds	r5, #1
     e42:	4798      	blx	r3
     e44:	b2ad      	uxth	r5, r5
     e46:	e7f6      	b.n	e36 <beep+0x12>
     e48:	2380      	movs	r3, #128	; 0x80
     e4a:	039b      	lsls	r3, r3, #14
     e4c:	6163      	str	r3, [r4, #20]
     e4e:	2380      	movs	r3, #128	; 0x80
     e50:	035b      	lsls	r3, r3, #13
     e52:	61e3      	str	r3, [r4, #28]
     e54:	bdf8      	pop	{r3, r4, r5, r6, r7, pc}
     e56:	46c0      	nop			; (mov r8, r8)
     e58:	41004400 	.word	0x41004400
     e5c:	000010c1 	.word	0x000010c1

00000e60 <startupJingle>:
     e60:	b570      	push	{r4, r5, r6, lr}
     e62:	2696      	movs	r6, #150	; 0x96
     e64:	0076      	lsls	r6, r6, #1
     e66:	4d0a      	ldr	r5, [pc, #40]	; (e90 <startupJingle+0x30>)
     e68:	0030      	movs	r0, r6
     e6a:	47a8      	blx	r5
     e6c:	4c09      	ldr	r4, [pc, #36]	; (e94 <startupJingle+0x34>)
     e6e:	2050      	movs	r0, #80	; 0x50
     e70:	47a0      	blx	r4
     e72:	0030      	movs	r0, r6
     e74:	47a8      	blx	r5
     e76:	20fa      	movs	r0, #250	; 0xfa
     e78:	47a0      	blx	r4
     e7a:	0030      	movs	r0, r6
     e7c:	47a8      	blx	r5
     e7e:	2050      	movs	r0, #80	; 0x50
     e80:	47a0      	blx	r4
     e82:	0030      	movs	r0, r6
     e84:	47a8      	blx	r5
     e86:	20fa      	movs	r0, #250	; 0xfa
     e88:	0040      	lsls	r0, r0, #1
     e8a:	47a0      	blx	r4
     e8c:	bd70      	pop	{r4, r5, r6, pc}
     e8e:	46c0      	nop			; (mov r8, r8)
     e90:	00000e25 	.word	0x00000e25
     e94:	000010f5 	.word	0x000010f5

00000e98 <unpluggedJingle>:
     e98:	b570      	push	{r4, r5, r6, lr}
     e9a:	2696      	movs	r6, #150	; 0x96
     e9c:	4c0c      	ldr	r4, [pc, #48]	; (ed0 <unpluggedJingle+0x38>)
     e9e:	0076      	lsls	r6, r6, #1
     ea0:	2050      	movs	r0, #80	; 0x50
     ea2:	47a0      	blx	r4
     ea4:	4d0b      	ldr	r5, [pc, #44]	; (ed4 <unpluggedJingle+0x3c>)
     ea6:	0030      	movs	r0, r6
     ea8:	47a8      	blx	r5
     eaa:	2050      	movs	r0, #80	; 0x50
     eac:	47a0      	blx	r4
     eae:	0030      	movs	r0, r6
     eb0:	47a8      	blx	r5
     eb2:	2050      	movs	r0, #80	; 0x50
     eb4:	47a0      	blx	r4
     eb6:	0030      	movs	r0, r6
     eb8:	47a8      	blx	r5
     eba:	2050      	movs	r0, #80	; 0x50
     ebc:	47a0      	blx	r4
     ebe:	2280      	movs	r2, #128	; 0x80
     ec0:	4b05      	ldr	r3, [pc, #20]	; (ed8 <unpluggedJingle+0x40>)
     ec2:	0392      	lsls	r2, r2, #14
     ec4:	615a      	str	r2, [r3, #20]
     ec6:	2280      	movs	r2, #128	; 0x80
     ec8:	0352      	lsls	r2, r2, #13
     eca:	615a      	str	r2, [r3, #20]
     ecc:	bd70      	pop	{r4, r5, r6, pc}
     ece:	46c0      	nop			; (mov r8, r8)
     ed0:	000010f5 	.word	0x000010f5
     ed4:	00000e25 	.word	0x00000e25
     ed8:	41004400 	.word	0x41004400

00000edc <dfll_nvm_val>:
     edc:	4b08      	ldr	r3, [pc, #32]	; (f00 <dfll_nvm_val+0x24>)
     ede:	6818      	ldr	r0, [r3, #0]
     ee0:	0e80      	lsrs	r0, r0, #26
     ee2:	283f      	cmp	r0, #63	; 0x3f
     ee4:	d100      	bne.n	ee8 <dfll_nvm_val+0xc>
     ee6:	3820      	subs	r0, #32
     ee8:	4b06      	ldr	r3, [pc, #24]	; (f04 <dfll_nvm_val+0x28>)
     eea:	4a07      	ldr	r2, [pc, #28]	; (f08 <dfll_nvm_val+0x2c>)
     eec:	681b      	ldr	r3, [r3, #0]
     eee:	059b      	lsls	r3, r3, #22
     ef0:	0d9b      	lsrs	r3, r3, #22
     ef2:	4293      	cmp	r3, r2
     ef4:	d100      	bne.n	ef8 <dfll_nvm_val+0x1c>
     ef6:	4b05      	ldr	r3, [pc, #20]	; (f0c <dfll_nvm_val+0x30>)
     ef8:	0280      	lsls	r0, r0, #10
     efa:	4318      	orrs	r0, r3
     efc:	4770      	bx	lr
     efe:	46c0      	nop			; (mov r8, r8)
     f00:	00806024 	.word	0x00806024
     f04:	00806028 	.word	0x00806028
     f08:	000003ff 	.word	0x000003ff
     f0c:	000001ff 	.word	0x000001ff

00000f10 <dfll_wait_for_sync>:
     f10:	4a02      	ldr	r2, [pc, #8]	; (f1c <dfll_wait_for_sync+0xc>)
     f12:	68d3      	ldr	r3, [r2, #12]
     f14:	06db      	lsls	r3, r3, #27
     f16:	d5fc      	bpl.n	f12 <dfll_wait_for_sync+0x2>
     f18:	4770      	bx	lr
     f1a:	46c0      	nop			; (mov r8, r8)
     f1c:	40000800 	.word	0x40000800

00000f20 <RtcInit>:
     f20:	4b27      	ldr	r3, [pc, #156]	; (fc0 <RtcInit+0xa0>)
     f22:	4a28      	ldr	r2, [pc, #160]	; (fc4 <RtcInit+0xa4>)
     f24:	4828      	ldr	r0, [pc, #160]	; (fc8 <RtcInit+0xa8>)
     f26:	619a      	str	r2, [r3, #24]
     f28:	4a28      	ldr	r2, [pc, #160]	; (fcc <RtcInit+0xac>)
     f2a:	6999      	ldr	r1, [r3, #24]
     f2c:	6812      	ldr	r2, [r2, #0]
     f2e:	4001      	ands	r1, r0
     f30:	04d2      	lsls	r2, r2, #19
     f32:	0e52      	lsrs	r2, r2, #25
     f34:	0412      	lsls	r2, r2, #16
     f36:	4311      	orrs	r1, r2
     f38:	6199      	str	r1, [r3, #24]
     f3a:	4925      	ldr	r1, [pc, #148]	; (fd0 <RtcInit+0xb0>)
     f3c:	6199      	str	r1, [r3, #24]
     f3e:	6999      	ldr	r1, [r3, #24]
     f40:	4008      	ands	r0, r1
     f42:	2102      	movs	r1, #2
     f44:	4302      	orrs	r2, r0
     f46:	619a      	str	r2, [r3, #24]
     f48:	699a      	ldr	r2, [r3, #24]
     f4a:	430a      	orrs	r2, r1
     f4c:	619a      	str	r2, [r3, #24]
     f4e:	2204      	movs	r2, #4
     f50:	68d9      	ldr	r1, [r3, #12]
     f52:	4211      	tst	r1, r2
     f54:	d0fc      	beq.n	f50 <RtcInit+0x30>
     f56:	2281      	movs	r2, #129	; 0x81
     f58:	4b1e      	ldr	r3, [pc, #120]	; (fd4 <RtcInit+0xb4>)
     f5a:	0052      	lsls	r2, r2, #1
     f5c:	609a      	str	r2, [r3, #8]
     f5e:	4a1e      	ldr	r2, [pc, #120]	; (fd8 <RtcInit+0xb8>)
     f60:	605a      	str	r2, [r3, #4]
     f62:	785a      	ldrb	r2, [r3, #1]
     f64:	b252      	sxtb	r2, r2
     f66:	2a00      	cmp	r2, #0
     f68:	dbfb      	blt.n	f62 <RtcInit+0x42>
     f6a:	4a1c      	ldr	r2, [pc, #112]	; (fdc <RtcInit+0xbc>)
     f6c:	4b19      	ldr	r3, [pc, #100]	; (fd4 <RtcInit+0xb4>)
     f6e:	805a      	strh	r2, [r3, #2]
     f70:	2204      	movs	r2, #4
     f72:	4b1b      	ldr	r3, [pc, #108]	; (fe0 <RtcInit+0xc0>)
     f74:	801a      	strh	r2, [r3, #0]
     f76:	7a9a      	ldrb	r2, [r3, #10]
     f78:	4919      	ldr	r1, [pc, #100]	; (fe0 <RtcInit+0xc0>)
     f7a:	09d2      	lsrs	r2, r2, #7
     f7c:	d1fb      	bne.n	f76 <RtcInit+0x56>
     f7e:	20a0      	movs	r0, #160	; 0xa0
     f80:	880a      	ldrh	r2, [r1, #0]
     f82:	00c0      	lsls	r0, r0, #3
     f84:	4302      	orrs	r2, r0
     f86:	800a      	strh	r2, [r1, #0]
     f88:	7a9a      	ldrb	r2, [r3, #10]
     f8a:	09d2      	lsrs	r2, r2, #7
     f8c:	d1fc      	bne.n	f88 <RtcInit+0x68>
     f8e:	4915      	ldr	r1, [pc, #84]	; (fe4 <RtcInit+0xc4>)
     f90:	4a13      	ldr	r2, [pc, #76]	; (fe0 <RtcInit+0xc0>)
     f92:	8291      	strh	r1, [r2, #20]
     f94:	7a99      	ldrb	r1, [r3, #10]
     f96:	4a12      	ldr	r2, [pc, #72]	; (fe0 <RtcInit+0xc0>)
     f98:	09c9      	lsrs	r1, r1, #7
     f9a:	d1fb      	bne.n	f94 <RtcInit+0x74>
     f9c:	8851      	ldrh	r1, [r2, #2]
     f9e:	4812      	ldr	r0, [pc, #72]	; (fe8 <RtcInit+0xc8>)
     fa0:	4301      	orrs	r1, r0
     fa2:	8051      	strh	r1, [r2, #2]
     fa4:	2180      	movs	r1, #128	; 0x80
     fa6:	2002      	movs	r0, #2
     fa8:	71d1      	strb	r1, [r2, #7]
     faa:	8811      	ldrh	r1, [r2, #0]
     fac:	4301      	orrs	r1, r0
     fae:	8011      	strh	r1, [r2, #0]
     fb0:	7a9a      	ldrb	r2, [r3, #10]
     fb2:	09d2      	lsrs	r2, r2, #7
     fb4:	d1fc      	bne.n	fb0 <RtcInit+0x90>
     fb6:	4b0d      	ldr	r3, [pc, #52]	; (fec <RtcInit+0xcc>)
     fb8:	3208      	adds	r2, #8
     fba:	601a      	str	r2, [r3, #0]
     fbc:	4770      	bx	lr
     fbe:	46c0      	nop			; (mov r8, r8)
     fc0:	40000800 	.word	0x40000800
     fc4:	00000606 	.word	0x00000606
     fc8:	ff80ffff 	.word	0xff80ffff
     fcc:	00806024 	.word	0x00806024
     fd0:	00000604 	.word	0x00000604
     fd4:	40000c00 	.word	0x40000c00
     fd8:	00230002 	.word	0x00230002
     fdc:	00004204 	.word	0x00004204
     fe0:	40001400 	.word	0x40001400
     fe4:	000003e6 	.word	0x000003e6
     fe8:	00004010 	.word	0x00004010
     fec:	e000e100 	.word	0xe000e100

00000ff0 <gclkEnable>:
     ff0:	230f      	movs	r3, #15
     ff2:	4018      	ands	r0, r3
     ff4:	4b08      	ldr	r3, [pc, #32]	; (1018 <gclkEnable+0x28>)
     ff6:	0212      	lsls	r2, r2, #8
     ff8:	401a      	ands	r2, r3
     ffa:	23f8      	movs	r3, #248	; 0xf8
     ffc:	0209      	lsls	r1, r1, #8
     ffe:	015b      	lsls	r3, r3, #5
    1000:	4019      	ands	r1, r3
    1002:	2380      	movs	r3, #128	; 0x80
    1004:	b510      	push	{r4, lr}
    1006:	025b      	lsls	r3, r3, #9
    1008:	4c04      	ldr	r4, [pc, #16]	; (101c <gclkEnable+0x2c>)
    100a:	4319      	orrs	r1, r3
    100c:	4302      	orrs	r2, r0
    100e:	4308      	orrs	r0, r1
    1010:	60a2      	str	r2, [r4, #8]
    1012:	6060      	str	r0, [r4, #4]
    1014:	bd10      	pop	{r4, pc}
    1016:	46c0      	nop			; (mov r8, r8)
    1018:	00ffff00 	.word	0x00ffff00
    101c:	40000c00 	.word	0x40000c00

00001020 <GclkInit>:
    1020:	23c2      	movs	r3, #194	; 0xc2
    1022:	211e      	movs	r1, #30
    1024:	b570      	push	{r4, r5, r6, lr}
    1026:	4c12      	ldr	r4, [pc, #72]	; (1070 <GclkInit+0x50>)
    1028:	4a12      	ldr	r2, [pc, #72]	; (1074 <GclkInit+0x54>)
    102a:	00db      	lsls	r3, r3, #3
    102c:	60a3      	str	r3, [r4, #8]
    102e:	6853      	ldr	r3, [r2, #4]
    1030:	0005      	movs	r5, r0
    1032:	438b      	bics	r3, r1
    1034:	391a      	subs	r1, #26
    1036:	430b      	orrs	r3, r1
    1038:	6053      	str	r3, [r2, #4]
    103a:	4a0f      	ldr	r2, [pc, #60]	; (1078 <GclkInit+0x58>)
    103c:	3104      	adds	r1, #4
    103e:	6993      	ldr	r3, [r2, #24]
    1040:	430b      	orrs	r3, r1
    1042:	6193      	str	r3, [r2, #24]
    1044:	2301      	movs	r3, #1
    1046:	4a0d      	ldr	r2, [pc, #52]	; (107c <GclkInit+0x5c>)
    1048:	7013      	strb	r3, [r2, #0]
    104a:	7811      	ldrb	r1, [r2, #0]
    104c:	4219      	tst	r1, r3
    104e:	d1fc      	bne.n	104a <GclkInit+0x2a>
    1050:	4b0b      	ldr	r3, [pc, #44]	; (1080 <GclkInit+0x60>)
    1052:	4e0c      	ldr	r6, [pc, #48]	; (1084 <GclkInit+0x64>)
    1054:	84a3      	strh	r3, [r4, #36]	; 0x24
    1056:	47b0      	blx	r6
    1058:	4b0b      	ldr	r3, [pc, #44]	; (1088 <GclkInit+0x68>)
    105a:	4798      	blx	r3
    105c:	62a0      	str	r0, [r4, #40]	; 0x28
    105e:	47b0      	blx	r6
    1060:	4b0a      	ldr	r3, [pc, #40]	; (108c <GclkInit+0x6c>)
    1062:	0028      	movs	r0, r5
    1064:	84a3      	strh	r3, [r4, #36]	; 0x24
    1066:	2201      	movs	r2, #1
    1068:	2107      	movs	r1, #7
    106a:	4b09      	ldr	r3, [pc, #36]	; (1090 <GclkInit+0x70>)
    106c:	4798      	blx	r3
    106e:	bd70      	pop	{r4, r5, r6, pc}
    1070:	40000800 	.word	0x40000800
    1074:	41004000 	.word	0x41004000
    1078:	40000400 	.word	0x40000400
    107c:	40000c00 	.word	0x40000c00
    1080:	00000502 	.word	0x00000502
    1084:	00000f11 	.word	0x00000f11
    1088:	00000edd 	.word	0x00000edd
    108c:	00000582 	.word	0x00000582
    1090:	00000ff1 	.word	0x00000ff1

00001094 <delayInit>:
    1094:	2230      	movs	r2, #48	; 0x30
    1096:	4b06      	ldr	r3, [pc, #24]	; (10b0 <delayInit+0x1c>)
    1098:	4906      	ldr	r1, [pc, #24]	; (10b4 <delayInit+0x20>)
    109a:	c306      	stmia	r3!, {r1, r2}
    109c:	4a06      	ldr	r2, [pc, #24]	; (10b8 <delayInit+0x24>)
    109e:	6a13      	ldr	r3, [r2, #32]
    10a0:	021b      	lsls	r3, r3, #8
    10a2:	0a1b      	lsrs	r3, r3, #8
    10a4:	6213      	str	r3, [r2, #32]
    10a6:	2205      	movs	r2, #5
    10a8:	4b04      	ldr	r3, [pc, #16]	; (10bc <delayInit+0x28>)
    10aa:	601a      	str	r2, [r3, #0]
    10ac:	4770      	bx	lr
    10ae:	46c0      	nop			; (mov r8, r8)
    10b0:	20000004 	.word	0x20000004
    10b4:	0000bb80 	.word	0x0000bb80
    10b8:	e000ed00 	.word	0xe000ed00
    10bc:	e000e010 	.word	0xe000e010

000010c0 <delay_us>:
    10c0:	b570      	push	{r4, r5, r6, lr}
    10c2:	2480      	movs	r4, #128	; 0x80
    10c4:	2100      	movs	r1, #0
    10c6:	4b08      	ldr	r3, [pc, #32]	; (10e8 <delay_us+0x28>)
    10c8:	4a08      	ldr	r2, [pc, #32]	; (10ec <delay_us+0x2c>)
    10ca:	685b      	ldr	r3, [r3, #4]
    10cc:	0264      	lsls	r4, r4, #9
    10ce:	3801      	subs	r0, #1
    10d0:	d308      	bcc.n	10e4 <delay_us+0x24>
    10d2:	2b00      	cmp	r3, #0
    10d4:	d0fb      	beq.n	10ce <delay_us+0xe>
    10d6:	4e05      	ldr	r6, [pc, #20]	; (10ec <delay_us+0x2c>)
    10d8:	6053      	str	r3, [r2, #4]
    10da:	6091      	str	r1, [r2, #8]
    10dc:	6835      	ldr	r5, [r6, #0]
    10de:	4225      	tst	r5, r4
    10e0:	d0fc      	beq.n	10dc <delay_us+0x1c>
    10e2:	e7f4      	b.n	10ce <delay_us+0xe>
    10e4:	bd70      	pop	{r4, r5, r6, pc}
    10e6:	46c0      	nop			; (mov r8, r8)
    10e8:	20000004 	.word	0x20000004
    10ec:	e000e010 	.word	0xe000e010

000010f0 <SysTick_Handler>:
    10f0:	4770      	bx	lr
	...

000010f4 <delay_ms>:
    10f4:	b570      	push	{r4, r5, r6, lr}
    10f6:	2480      	movs	r4, #128	; 0x80
    10f8:	2100      	movs	r1, #0
    10fa:	4b08      	ldr	r3, [pc, #32]	; (111c <delay_ms+0x28>)
    10fc:	4a08      	ldr	r2, [pc, #32]	; (1120 <delay_ms+0x2c>)
    10fe:	681b      	ldr	r3, [r3, #0]
    1100:	0264      	lsls	r4, r4, #9
    1102:	3801      	subs	r0, #1
    1104:	d308      	bcc.n	1118 <delay_ms+0x24>
    1106:	2b00      	cmp	r3, #0
    1108:	d0fb      	beq.n	1102 <delay_ms+0xe>
    110a:	4e05      	ldr	r6, [pc, #20]	; (1120 <delay_ms+0x2c>)
    110c:	6053      	str	r3, [r2, #4]
    110e:	6091      	str	r1, [r2, #8]
    1110:	6835      	ldr	r5, [r6, #0]
    1112:	4225      	tst	r5, r4
    1114:	d0fc      	beq.n	1110 <delay_ms+0x1c>
    1116:	e7f4      	b.n	1102 <delay_ms+0xe>
    1118:	bd70      	pop	{r4, r5, r6, pc}
    111a:	46c0      	nop			; (mov r8, r8)
    111c:	20000004 	.word	0x20000004
    1120:	e000e010 	.word	0xe000e010

00001124 <RTC_Handler>:
    1124:	21fa      	movs	r1, #250	; 0xfa
    1126:	4a04      	ldr	r2, [pc, #16]	; (1138 <RTC_Handler+0x14>)
    1128:	0089      	lsls	r1, r1, #2
    112a:	6813      	ldr	r3, [r2, #0]
    112c:	185b      	adds	r3, r3, r1
    112e:	6013      	str	r3, [r2, #0]
    1130:	22ff      	movs	r2, #255	; 0xff
    1132:	4b02      	ldr	r3, [pc, #8]	; (113c <RTC_Handler+0x18>)
    1134:	721a      	strb	r2, [r3, #8]
    1136:	4770      	bx	lr
    1138:	200000f4 	.word	0x200000f4
    113c:	40001400 	.word	0x40001400

00001140 <millis>:
    1140:	b530      	push	{r4, r5, lr}
    1142:	f3ef 8110 	mrs	r1, PRIMASK
    1146:	b672      	cpsid	i
    1148:	4a08      	ldr	r2, [pc, #32]	; (116c <millis+0x2c>)
    114a:	4d09      	ldr	r5, [pc, #36]	; (1170 <millis+0x30>)
    114c:	8a10      	ldrh	r0, [r2, #16]
    114e:	682b      	ldr	r3, [r5, #0]
    1150:	7a14      	ldrb	r4, [r2, #8]
    1152:	b280      	uxth	r0, r0
    1154:	09e4      	lsrs	r4, r4, #7
    1156:	d004      	beq.n	1162 <millis+0x22>
    1158:	8a13      	ldrh	r3, [r2, #16]
    115a:	22fa      	movs	r2, #250	; 0xfa
    115c:	6828      	ldr	r0, [r5, #0]
    115e:	0092      	lsls	r2, r2, #2
    1160:	1880      	adds	r0, r0, r2
    1162:	18c0      	adds	r0, r0, r3
    1164:	f381 8810 	msr	PRIMASK, r1
    1168:	bd30      	pop	{r4, r5, pc}
    116a:	46c0      	nop			; (mov r8, r8)
    116c:	40001400 	.word	0x40001400
    1170:	200000f4 	.word	0x200000f4

00001174 <TC4Init>:
    1174:	2180      	movs	r1, #128	; 0x80
    1176:	4a0d      	ldr	r2, [pc, #52]	; (11ac <TC4Init+0x38>)
    1178:	4b0d      	ldr	r3, [pc, #52]	; (11b0 <TC4Init+0x3c>)
    117a:	0149      	lsls	r1, r1, #5
    117c:	805a      	strh	r2, [r3, #2]
    117e:	4a0d      	ldr	r2, [pc, #52]	; (11b4 <TC4Init+0x40>)
    1180:	6a13      	ldr	r3, [r2, #32]
    1182:	430b      	orrs	r3, r1
    1184:	6213      	str	r3, [r2, #32]
    1186:	4b0c      	ldr	r3, [pc, #48]	; (11b8 <TC4Init+0x44>)
    1188:	4a0c      	ldr	r2, [pc, #48]	; (11bc <TC4Init+0x48>)
    118a:	2102      	movs	r1, #2
    118c:	801a      	strh	r2, [r3, #0]
    118e:	2250      	movs	r2, #80	; 0x50
    1190:	751a      	strb	r2, [r3, #20]
    1192:	3a4f      	subs	r2, #79	; 0x4f
    1194:	735a      	strb	r2, [r3, #13]
    1196:	32ff      	adds	r2, #255	; 0xff
    1198:	815a      	strh	r2, [r3, #10]
    119a:	881a      	ldrh	r2, [r3, #0]
    119c:	430a      	orrs	r2, r1
    119e:	801a      	strh	r2, [r3, #0]
    11a0:	2280      	movs	r2, #128	; 0x80
    11a2:	4b07      	ldr	r3, [pc, #28]	; (11c0 <TC4Init+0x4c>)
    11a4:	0312      	lsls	r2, r2, #12
    11a6:	601a      	str	r2, [r3, #0]
    11a8:	4770      	bx	lr
    11aa:	46c0      	nop			; (mov r8, r8)
    11ac:	0000421c 	.word	0x0000421c
    11b0:	40000c00 	.word	0x40000c00
    11b4:	40000400 	.word	0x40000400
    11b8:	42003000 	.word	0x42003000
    11bc:	00000904 	.word	0x00000904
    11c0:	e000e100 	.word	0xe000e100

000011c4 <TC4_Handler>:
    11c4:	22ff      	movs	r2, #255	; 0xff
    11c6:	b510      	push	{r4, lr}
    11c8:	4b02      	ldr	r3, [pc, #8]	; (11d4 <TC4_Handler+0x10>)
    11ca:	739a      	strb	r2, [r3, #14]
    11cc:	4b02      	ldr	r3, [pc, #8]	; (11d8 <TC4_Handler+0x14>)
    11ce:	4798      	blx	r3
    11d0:	bd10      	pop	{r4, pc}
    11d2:	46c0      	nop			; (mov r8, r8)
    11d4:	42003000 	.word	0x42003000
    11d8:	0000282d 	.word	0x0000282d

000011dc <TC5Init>:
    11dc:	2180      	movs	r1, #128	; 0x80
    11de:	4a0d      	ldr	r2, [pc, #52]	; (1214 <TC5Init+0x38>)
    11e0:	4b0d      	ldr	r3, [pc, #52]	; (1218 <TC5Init+0x3c>)
    11e2:	0189      	lsls	r1, r1, #6
    11e4:	805a      	strh	r2, [r3, #2]
    11e6:	4a0d      	ldr	r2, [pc, #52]	; (121c <TC5Init+0x40>)
    11e8:	6a13      	ldr	r3, [r2, #32]
    11ea:	430b      	orrs	r3, r1
    11ec:	6213      	str	r3, [r2, #32]
    11ee:	4b0c      	ldr	r3, [pc, #48]	; (1220 <TC5Init+0x44>)
    11f0:	4a0c      	ldr	r2, [pc, #48]	; (1224 <TC5Init+0x48>)
    11f2:	2102      	movs	r1, #2
    11f4:	801a      	strh	r2, [r3, #0]
    11f6:	2266      	movs	r2, #102	; 0x66
    11f8:	751a      	strb	r2, [r3, #20]
    11fa:	3a65      	subs	r2, #101	; 0x65
    11fc:	735a      	strb	r2, [r3, #13]
    11fe:	32ff      	adds	r2, #255	; 0xff
    1200:	815a      	strh	r2, [r3, #10]
    1202:	881a      	ldrh	r2, [r3, #0]
    1204:	430a      	orrs	r2, r1
    1206:	801a      	strh	r2, [r3, #0]
    1208:	2280      	movs	r2, #128	; 0x80
    120a:	4b07      	ldr	r3, [pc, #28]	; (1228 <TC5Init+0x4c>)
    120c:	0352      	lsls	r2, r2, #13
    120e:	601a      	str	r2, [r3, #0]
    1210:	4770      	bx	lr
    1212:	46c0      	nop			; (mov r8, r8)
    1214:	0000421c 	.word	0x0000421c
    1218:	40000c00 	.word	0x40000c00
    121c:	40000400 	.word	0x40000400
    1220:	42003400 	.word	0x42003400
    1224:	00000c04 	.word	0x00000c04
    1228:	e000e100 	.word	0xe000e100

0000122c <TC5_Handler>:
    122c:	22ff      	movs	r2, #255	; 0xff
    122e:	4b03      	ldr	r3, [pc, #12]	; (123c <TC5_Handler+0x10>)
    1230:	739a      	strb	r2, [r3, #14]
    1232:	4b03      	ldr	r3, [pc, #12]	; (1240 <TC5_Handler+0x14>)
    1234:	3afe      	subs	r2, #254	; 0xfe
    1236:	701a      	strb	r2, [r3, #0]
    1238:	4770      	bx	lr
    123a:	46c0      	nop			; (mov r8, r8)
    123c:	42003400 	.word	0x42003400
    1240:	20000152 	.word	0x20000152

00001244 <flight>:
    1244:	b570      	push	{r4, r5, r6, lr}
    1246:	4d72      	ldr	r5, [pc, #456]	; (1410 <flight+0x1cc>)
    1248:	7828      	ldrb	r0, [r5, #0]
    124a:	280a      	cmp	r0, #10
    124c:	d900      	bls.n	1250 <flight+0xc>
    124e:	e0c5      	b.n	13dc <flight+0x198>
    1250:	f002 ffb4 	bl	41bc <__gnu_thumb1_case_uqi>
    1254:	804d2b06 	.word	0x804d2b06
    1258:	a186c4c4 	.word	0xa186c4c4
    125c:	c4b5      	.short	0xc4b5
    125e:	80          	.byte	0x80
    125f:	00          	.byte	0x00
    1260:	4b6c      	ldr	r3, [pc, #432]	; (1414 <flight+0x1d0>)
    1262:	4798      	blx	r3
    1264:	4b6c      	ldr	r3, [pc, #432]	; (1418 <flight+0x1d4>)
    1266:	4798      	blx	r3
    1268:	4b6c      	ldr	r3, [pc, #432]	; (141c <flight+0x1d8>)
    126a:	681b      	ldr	r3, [r3, #0]
    126c:	1ac0      	subs	r0, r0, r3
    126e:	4b6c      	ldr	r3, [pc, #432]	; (1420 <flight+0x1dc>)
    1270:	4298      	cmp	r0, r3
    1272:	d909      	bls.n	1288 <flight+0x44>
    1274:	4b6b      	ldr	r3, [pc, #428]	; (1424 <flight+0x1e0>)
    1276:	4798      	blx	r3
    1278:	4b6b      	ldr	r3, [pc, #428]	; (1428 <flight+0x1e4>)
    127a:	4798      	blx	r3
    127c:	230a      	movs	r3, #10
    127e:	702b      	strb	r3, [r5, #0]
    1280:	4b6a      	ldr	r3, [pc, #424]	; (142c <flight+0x1e8>)
    1282:	4798      	blx	r3
    1284:	4b6a      	ldr	r3, [pc, #424]	; (1430 <flight+0x1ec>)
    1286:	e062      	b.n	134e <flight+0x10a>
    1288:	4b6a      	ldr	r3, [pc, #424]	; (1434 <flight+0x1f0>)
    128a:	4798      	blx	r3
    128c:	4b6a      	ldr	r3, [pc, #424]	; (1438 <flight+0x1f4>)
    128e:	4798      	blx	r3
    1290:	2800      	cmp	r0, #0
    1292:	d100      	bne.n	1296 <flight+0x52>
    1294:	e0a2      	b.n	13dc <flight+0x198>
    1296:	2301      	movs	r3, #1
    1298:	702b      	strb	r3, [r5, #0]
    129a:	4b68      	ldr	r3, [pc, #416]	; (143c <flight+0x1f8>)
    129c:	4798      	blx	r3
    129e:	20fa      	movs	r0, #250	; 0xfa
    12a0:	4b67      	ldr	r3, [pc, #412]	; (1440 <flight+0x1fc>)
    12a2:	0080      	lsls	r0, r0, #2
    12a4:	4798      	blx	r3
    12a6:	4b67      	ldr	r3, [pc, #412]	; (1444 <flight+0x200>)
    12a8:	e087      	b.n	13ba <flight+0x176>
    12aa:	4e5b      	ldr	r6, [pc, #364]	; (1418 <flight+0x1d4>)
    12ac:	47b0      	blx	r6
    12ae:	4c66      	ldr	r4, [pc, #408]	; (1448 <flight+0x204>)
    12b0:	6ae3      	ldr	r3, [r4, #44]	; 0x2c
    12b2:	1ac0      	subs	r0, r0, r3
    12b4:	23fa      	movs	r3, #250	; 0xfa
    12b6:	00db      	lsls	r3, r3, #3
    12b8:	4298      	cmp	r0, r3
    12ba:	d905      	bls.n	12c8 <flight+0x84>
    12bc:	47b0      	blx	r6
    12be:	62e0      	str	r0, [r4, #44]	; 0x2c
    12c0:	20c8      	movs	r0, #200	; 0xc8
    12c2:	4b62      	ldr	r3, [pc, #392]	; (144c <flight+0x208>)
    12c4:	0040      	lsls	r0, r0, #1
    12c6:	4798      	blx	r3
    12c8:	4b61      	ldr	r3, [pc, #388]	; (1450 <flight+0x20c>)
    12ca:	7e1b      	ldrb	r3, [r3, #24]
    12cc:	075b      	lsls	r3, r3, #29
    12ce:	d400      	bmi.n	12d2 <flight+0x8e>
    12d0:	e084      	b.n	13dc <flight+0x198>
    12d2:	2003      	movs	r0, #3
    12d4:	4b5f      	ldr	r3, [pc, #380]	; (1454 <flight+0x210>)
    12d6:	4798      	blx	r3
    12d8:	2852      	cmp	r0, #82	; 0x52
    12da:	d000      	beq.n	12de <flight+0x9a>
    12dc:	e07e      	b.n	13dc <flight+0x198>
    12de:	f3bf 8f4f 	dsb	sy
    12e2:	4a5d      	ldr	r2, [pc, #372]	; (1458 <flight+0x214>)
    12e4:	4b5d      	ldr	r3, [pc, #372]	; (145c <flight+0x218>)
    12e6:	60da      	str	r2, [r3, #12]
    12e8:	f3bf 8f4f 	dsb	sy
    12ec:	e7fe      	b.n	12ec <flight+0xa8>
    12ee:	4b49      	ldr	r3, [pc, #292]	; (1414 <flight+0x1d0>)
    12f0:	4798      	blx	r3
    12f2:	4b5b      	ldr	r3, [pc, #364]	; (1460 <flight+0x21c>)
    12f4:	781b      	ldrb	r3, [r3, #0]
    12f6:	2b00      	cmp	r3, #0
    12f8:	d005      	beq.n	1306 <flight+0xc2>
    12fa:	4b5a      	ldr	r3, [pc, #360]	; (1464 <flight+0x220>)
    12fc:	4798      	blx	r3
    12fe:	2280      	movs	r2, #128	; 0x80
    1300:	4b59      	ldr	r3, [pc, #356]	; (1468 <flight+0x224>)
    1302:	0352      	lsls	r2, r2, #13
    1304:	61da      	str	r2, [r3, #28]
    1306:	4959      	ldr	r1, [pc, #356]	; (146c <flight+0x228>)
    1308:	4c59      	ldr	r4, [pc, #356]	; (1470 <flight+0x22c>)
    130a:	2200      	movs	r2, #0
    130c:	6808      	ldr	r0, [r1, #0]
    130e:	6849      	ldr	r1, [r1, #4]
    1310:	4b58      	ldr	r3, [pc, #352]	; (1474 <flight+0x230>)
    1312:	47a0      	blx	r4
    1314:	2800      	cmp	r0, #0
    1316:	d00c      	beq.n	1332 <flight+0xee>
    1318:	2380      	movs	r3, #128	; 0x80
    131a:	4957      	ldr	r1, [pc, #348]	; (1478 <flight+0x234>)
    131c:	2200      	movs	r2, #0
    131e:	6808      	ldr	r0, [r1, #0]
    1320:	6849      	ldr	r1, [r1, #4]
    1322:	05db      	lsls	r3, r3, #23
    1324:	47a0      	blx	r4
    1326:	1e44      	subs	r4, r0, #1
    1328:	41a0      	sbcs	r0, r4
    132a:	2401      	movs	r4, #1
    132c:	4240      	negs	r0, r0
    132e:	4004      	ands	r4, r0
    1330:	e000      	b.n	1334 <flight+0xf0>
    1332:	0004      	movs	r4, r0
    1334:	4b51      	ldr	r3, [pc, #324]	; (147c <flight+0x238>)
    1336:	4798      	blx	r3
    1338:	2864      	cmp	r0, #100	; 0x64
    133a:	dc01      	bgt.n	1340 <flight+0xfc>
    133c:	07e3      	lsls	r3, r4, #31
    133e:	d54d      	bpl.n	13dc <flight+0x198>
    1340:	2303      	movs	r3, #3
    1342:	702b      	strb	r3, [r5, #0]
    1344:	4b39      	ldr	r3, [pc, #228]	; (142c <flight+0x1e8>)
    1346:	4798      	blx	r3
    1348:	4b39      	ldr	r3, [pc, #228]	; (1430 <flight+0x1ec>)
    134a:	4798      	blx	r3
    134c:	4b4c      	ldr	r3, [pc, #304]	; (1480 <flight+0x23c>)
    134e:	4798      	blx	r3
    1350:	204c      	movs	r0, #76	; 0x4c
    1352:	e01d      	b.n	1390 <flight+0x14c>
    1354:	4b42      	ldr	r3, [pc, #264]	; (1460 <flight+0x21c>)
    1356:	781b      	ldrb	r3, [r3, #0]
    1358:	2b00      	cmp	r3, #0
    135a:	d03f      	beq.n	13dc <flight+0x198>
    135c:	4b41      	ldr	r3, [pc, #260]	; (1464 <flight+0x220>)
    135e:	e02c      	b.n	13ba <flight+0x176>
    1360:	4b3f      	ldr	r3, [pc, #252]	; (1460 <flight+0x21c>)
    1362:	781b      	ldrb	r3, [r3, #0]
    1364:	2b00      	cmp	r3, #0
    1366:	d001      	beq.n	136c <flight+0x128>
    1368:	4b3e      	ldr	r3, [pc, #248]	; (1464 <flight+0x220>)
    136a:	4798      	blx	r3
    136c:	4b45      	ldr	r3, [pc, #276]	; (1484 <flight+0x240>)
    136e:	8b18      	ldrh	r0, [r3, #24]
    1370:	4b45      	ldr	r3, [pc, #276]	; (1488 <flight+0x244>)
    1372:	4798      	blx	r3
    1374:	000b      	movs	r3, r1
    1376:	4945      	ldr	r1, [pc, #276]	; (148c <flight+0x248>)
    1378:	0002      	movs	r2, r0
    137a:	6d88      	ldr	r0, [r1, #88]	; 0x58
    137c:	6dc9      	ldr	r1, [r1, #92]	; 0x5c
    137e:	4c44      	ldr	r4, [pc, #272]	; (1490 <flight+0x24c>)
    1380:	47a0      	blx	r4
    1382:	2800      	cmp	r0, #0
    1384:	d02a      	beq.n	13dc <flight+0x198>
    1386:	2307      	movs	r3, #7
    1388:	702b      	strb	r3, [r5, #0]
    138a:	4b42      	ldr	r3, [pc, #264]	; (1494 <flight+0x250>)
    138c:	4798      	blx	r3
    138e:	204d      	movs	r0, #77	; 0x4d
    1390:	4b41      	ldr	r3, [pc, #260]	; (1498 <flight+0x254>)
    1392:	4798      	blx	r3
    1394:	e022      	b.n	13dc <flight+0x198>
    1396:	4b32      	ldr	r3, [pc, #200]	; (1460 <flight+0x21c>)
    1398:	781b      	ldrb	r3, [r3, #0]
    139a:	2b00      	cmp	r3, #0
    139c:	d001      	beq.n	13a2 <flight+0x15e>
    139e:	4b31      	ldr	r3, [pc, #196]	; (1464 <flight+0x220>)
    13a0:	4798      	blx	r3
    13a2:	4932      	ldr	r1, [pc, #200]	; (146c <flight+0x228>)
    13a4:	2200      	movs	r2, #0
    13a6:	6808      	ldr	r0, [r1, #0]
    13a8:	6849      	ldr	r1, [r1, #4]
    13aa:	4b3c      	ldr	r3, [pc, #240]	; (149c <flight+0x258>)
    13ac:	4c38      	ldr	r4, [pc, #224]	; (1490 <flight+0x24c>)
    13ae:	47a0      	blx	r4
    13b0:	2800      	cmp	r0, #0
    13b2:	d013      	beq.n	13dc <flight+0x198>
    13b4:	2308      	movs	r3, #8
    13b6:	702b      	strb	r3, [r5, #0]
    13b8:	4b39      	ldr	r3, [pc, #228]	; (14a0 <flight+0x25c>)
    13ba:	4798      	blx	r3
    13bc:	e00e      	b.n	13dc <flight+0x198>
    13be:	4e16      	ldr	r6, [pc, #88]	; (1418 <flight+0x1d4>)
    13c0:	47b0      	blx	r6
    13c2:	4c21      	ldr	r4, [pc, #132]	; (1448 <flight+0x204>)
    13c4:	6ae3      	ldr	r3, [r4, #44]	; 0x2c
    13c6:	1ac0      	subs	r0, r0, r3
    13c8:	23fa      	movs	r3, #250	; 0xfa
    13ca:	00db      	lsls	r3, r3, #3
    13cc:	4298      	cmp	r0, r3
    13ce:	d905      	bls.n	13dc <flight+0x198>
    13d0:	47b0      	blx	r6
    13d2:	62e0      	str	r0, [r4, #44]	; 0x2c
    13d4:	20c8      	movs	r0, #200	; 0xc8
    13d6:	4b1d      	ldr	r3, [pc, #116]	; (144c <flight+0x208>)
    13d8:	0040      	lsls	r0, r0, #1
    13da:	4798      	blx	r3
    13dc:	2302      	movs	r3, #2
    13de:	782c      	ldrb	r4, [r5, #0]
    13e0:	4e15      	ldr	r6, [pc, #84]	; (1438 <flight+0x1f4>)
    13e2:	42a3      	cmp	r3, r4
    13e4:	41a4      	sbcs	r4, r4
    13e6:	4264      	negs	r4, r4
    13e8:	47b0      	blx	r6
    13ea:	2800      	cmp	r0, #0
    13ec:	d003      	beq.n	13f6 <flight+0x1b2>
    13ee:	2c00      	cmp	r4, #0
    13f0:	d001      	beq.n	13f6 <flight+0x1b2>
    13f2:	4b2b      	ldr	r3, [pc, #172]	; (14a0 <flight+0x25c>)
    13f4:	4798      	blx	r3
    13f6:	782c      	ldrb	r4, [r5, #0]
    13f8:	3c02      	subs	r4, #2
    13fa:	4262      	negs	r2, r4
    13fc:	4162      	adcs	r2, r4
    13fe:	b2d4      	uxtb	r4, r2
    1400:	47b0      	blx	r6
    1402:	2c00      	cmp	r4, #0
    1404:	d003      	beq.n	140e <flight+0x1ca>
    1406:	2800      	cmp	r0, #0
    1408:	d001      	beq.n	140e <flight+0x1ca>
    140a:	4b26      	ldr	r3, [pc, #152]	; (14a4 <flight+0x260>)
    140c:	4798      	blx	r3
    140e:	bd70      	pop	{r4, r5, r6, pc}
    1410:	20000164 	.word	0x20000164
    1414:	000014a9 	.word	0x000014a9
    1418:	00001141 	.word	0x00001141
    141c:	20000154 	.word	0x20000154
    1420:	00002710 	.word	0x00002710
    1424:	00002775 	.word	0x00002775
    1428:	00000e61 	.word	0x00000e61
    142c:	000026c1 	.word	0x000026c1
    1430:	000023c5 	.word	0x000023c5
    1434:	00002f21 	.word	0x00002f21
    1438:	00000b51 	.word	0x00000b51
    143c:	00000e99 	.word	0x00000e99
    1440:	000010f5 	.word	0x000010f5
    1444:	00000b85 	.word	0x00000b85
    1448:	20000108 	.word	0x20000108
    144c:	00000e25 	.word	0x00000e25
    1450:	42001400 	.word	0x42001400
    1454:	00002cbd 	.word	0x00002cbd
    1458:	05fa0004 	.word	0x05fa0004
    145c:	e000ed00 	.word	0xe000ed00
    1460:	20000152 	.word	0x20000152
    1464:	00002485 	.word	0x00002485
    1468:	41004400 	.word	0x41004400
    146c:	200002d8 	.word	0x200002d8
    1470:	0000433d 	.word	0x0000433d
    1474:	402e0000 	.word	0x402e0000
    1478:	200002d0 	.word	0x200002d0
    147c:	00000b1d 	.word	0x00000b1d
    1480:	00002719 	.word	0x00002719
    1484:	20000138 	.word	0x20000138
    1488:	0000614d 	.word	0x0000614d
    148c:	20000578 	.word	0x20000578
    1490:	00004315 	.word	0x00004315
    1494:	00001791 	.word	0x00001791
    1498:	00002429 	.word	0x00002429
    149c:	40140000 	.word	0x40140000
    14a0:	00000c09 	.word	0x00000c09
    14a4:	00000c35 	.word	0x00000c35

000014a8 <updateGround>:
    14a8:	b5f7      	push	{r0, r1, r2, r4, r5, r6, r7, lr}
    14aa:	4c2b      	ldr	r4, [pc, #172]	; (1558 <updateGround+0xb0>)
    14ac:	4d2b      	ldr	r5, [pc, #172]	; (155c <updateGround+0xb4>)
    14ae:	4a2c      	ldr	r2, [pc, #176]	; (1560 <updateGround+0xb8>)
    14b0:	6920      	ldr	r0, [r4, #16]
    14b2:	6961      	ldr	r1, [r4, #20]
    14b4:	4b2b      	ldr	r3, [pc, #172]	; (1564 <updateGround+0xbc>)
    14b6:	47a8      	blx	r5
    14b8:	4b2b      	ldr	r3, [pc, #172]	; (1568 <updateGround+0xc0>)
    14ba:	0006      	movs	r6, r0
    14bc:	6a58      	ldr	r0, [r3, #36]	; 0x24
    14be:	4b2b      	ldr	r3, [pc, #172]	; (156c <updateGround+0xc4>)
    14c0:	000f      	movs	r7, r1
    14c2:	4798      	blx	r3
    14c4:	4a26      	ldr	r2, [pc, #152]	; (1560 <updateGround+0xb8>)
    14c6:	4b2a      	ldr	r3, [pc, #168]	; (1570 <updateGround+0xc8>)
    14c8:	47a8      	blx	r5
    14ca:	0002      	movs	r2, r0
    14cc:	000b      	movs	r3, r1
    14ce:	0030      	movs	r0, r6
    14d0:	0039      	movs	r1, r7
    14d2:	4e28      	ldr	r6, [pc, #160]	; (1574 <updateGround+0xcc>)
    14d4:	47b0      	blx	r6
    14d6:	4e28      	ldr	r6, [pc, #160]	; (1578 <updateGround+0xd0>)
    14d8:	6120      	str	r0, [r4, #16]
    14da:	6161      	str	r1, [r4, #20]
    14dc:	69e0      	ldr	r0, [r4, #28]
    14de:	47b0      	blx	r6
    14e0:	2200      	movs	r2, #0
    14e2:	4b26      	ldr	r3, [pc, #152]	; (157c <updateGround+0xd4>)
    14e4:	47a8      	blx	r5
    14e6:	9000      	str	r0, [sp, #0]
    14e8:	9101      	str	r1, [sp, #4]
    14ea:	4925      	ldr	r1, [pc, #148]	; (1580 <updateGround+0xd8>)
    14ec:	2200      	movs	r2, #0
    14ee:	6808      	ldr	r0, [r1, #0]
    14f0:	6849      	ldr	r1, [r1, #4]
    14f2:	4b22      	ldr	r3, [pc, #136]	; (157c <updateGround+0xd4>)
    14f4:	47a8      	blx	r5
    14f6:	4f1f      	ldr	r7, [pc, #124]	; (1574 <updateGround+0xcc>)
    14f8:	0002      	movs	r2, r0
    14fa:	000b      	movs	r3, r1
    14fc:	9800      	ldr	r0, [sp, #0]
    14fe:	9901      	ldr	r1, [sp, #4]
    1500:	47b8      	blx	r7
    1502:	4f20      	ldr	r7, [pc, #128]	; (1584 <updateGround+0xdc>)
    1504:	47b8      	blx	r7
    1506:	61e0      	str	r0, [r4, #28]
    1508:	6a60      	ldr	r0, [r4, #36]	; 0x24
    150a:	47b0      	blx	r6
    150c:	4a14      	ldr	r2, [pc, #80]	; (1560 <updateGround+0xb8>)
    150e:	4b15      	ldr	r3, [pc, #84]	; (1564 <updateGround+0xbc>)
    1510:	47a8      	blx	r5
    1512:	4b15      	ldr	r3, [pc, #84]	; (1568 <updateGround+0xc0>)
    1514:	9000      	str	r0, [sp, #0]
    1516:	9101      	str	r1, [sp, #4]
    1518:	6d58      	ldr	r0, [r3, #84]	; 0x54
    151a:	47b0      	blx	r6
    151c:	4a10      	ldr	r2, [pc, #64]	; (1560 <updateGround+0xb8>)
    151e:	4b14      	ldr	r3, [pc, #80]	; (1570 <updateGround+0xc8>)
    1520:	47a8      	blx	r5
    1522:	4d14      	ldr	r5, [pc, #80]	; (1574 <updateGround+0xcc>)
    1524:	000b      	movs	r3, r1
    1526:	0002      	movs	r2, r0
    1528:	9800      	ldr	r0, [sp, #0]
    152a:	9901      	ldr	r1, [sp, #4]
    152c:	47a8      	blx	r5
    152e:	47b8      	blx	r7
    1530:	4d15      	ldr	r5, [pc, #84]	; (1588 <updateGround+0xe0>)
    1532:	6260      	str	r0, [r4, #36]	; 0x24
    1534:	47a8      	blx	r5
    1536:	6823      	ldr	r3, [r4, #0]
    1538:	1ac0      	subs	r0, r0, r3
    153a:	23fa      	movs	r3, #250	; 0xfa
    153c:	00db      	lsls	r3, r3, #3
    153e:	4298      	cmp	r0, r3
    1540:	d909      	bls.n	1556 <updateGround+0xae>
    1542:	69e3      	ldr	r3, [r4, #28]
    1544:	61a3      	str	r3, [r4, #24]
    1546:	6a63      	ldr	r3, [r4, #36]	; 0x24
    1548:	6223      	str	r3, [r4, #32]
    154a:	6922      	ldr	r2, [r4, #16]
    154c:	6963      	ldr	r3, [r4, #20]
    154e:	60a2      	str	r2, [r4, #8]
    1550:	60e3      	str	r3, [r4, #12]
    1552:	47a8      	blx	r5
    1554:	6020      	str	r0, [r4, #0]
    1556:	bdf7      	pop	{r0, r1, r2, r4, r5, r6, r7, pc}
    1558:	20000108 	.word	0x20000108
    155c:	00005505 	.word	0x00005505
    1560:	9999999a 	.word	0x9999999a
    1564:	3fe99999 	.word	0x3fe99999
    1568:	20000578 	.word	0x20000578
    156c:	00006241 	.word	0x00006241
    1570:	3fc99999 	.word	0x3fc99999
    1574:	00004665 	.word	0x00004665
    1578:	000061d1 	.word	0x000061d1
    157c:	3fe00000 	.word	0x3fe00000
    1580:	200002e0 	.word	0x200002e0
    1584:	000043bd 	.word	0x000043bd
    1588:	00001141 	.word	0x00001141

0000158c <isItPointingUp>:
    158c:	b5f8      	push	{r3, r4, r5, r6, r7, lr}
    158e:	261e      	movs	r6, #30
    1590:	2400      	movs	r4, #0
    1592:	2500      	movs	r5, #0
    1594:	200a      	movs	r0, #10
    1596:	4b21      	ldr	r3, [pc, #132]	; (161c <isItPointingUp+0x90>)
    1598:	4798      	blx	r3
    159a:	4b21      	ldr	r3, [pc, #132]	; (1620 <isItPointingUp+0x94>)
    159c:	4798      	blx	r3
    159e:	4a21      	ldr	r2, [pc, #132]	; (1624 <isItPointingUp+0x98>)
    15a0:	4f21      	ldr	r7, [pc, #132]	; (1628 <isItPointingUp+0x9c>)
    15a2:	4b22      	ldr	r3, [pc, #136]	; (162c <isItPointingUp+0xa0>)
    15a4:	0020      	movs	r0, r4
    15a6:	0029      	movs	r1, r5
    15a8:	47b8      	blx	r7
    15aa:	4b21      	ldr	r3, [pc, #132]	; (1630 <isItPointingUp+0xa4>)
    15ac:	0004      	movs	r4, r0
    15ae:	6a58      	ldr	r0, [r3, #36]	; 0x24
    15b0:	2380      	movs	r3, #128	; 0x80
    15b2:	000d      	movs	r5, r1
    15b4:	061b      	lsls	r3, r3, #24
    15b6:	18c0      	adds	r0, r0, r3
    15b8:	4b1e      	ldr	r3, [pc, #120]	; (1634 <isItPointingUp+0xa8>)
    15ba:	4798      	blx	r3
    15bc:	4a19      	ldr	r2, [pc, #100]	; (1624 <isItPointingUp+0x98>)
    15be:	4b1e      	ldr	r3, [pc, #120]	; (1638 <isItPointingUp+0xac>)
    15c0:	47b8      	blx	r7
    15c2:	0022      	movs	r2, r4
    15c4:	002b      	movs	r3, r5
    15c6:	4c1d      	ldr	r4, [pc, #116]	; (163c <isItPointingUp+0xb0>)
    15c8:	47a0      	blx	r4
    15ca:	3e01      	subs	r6, #1
    15cc:	b2f6      	uxtb	r6, r6
    15ce:	0004      	movs	r4, r0
    15d0:	000d      	movs	r5, r1
    15d2:	2e00      	cmp	r6, #0
    15d4:	d1de      	bne.n	1594 <isItPointingUp+0x8>
    15d6:	4e1a      	ldr	r6, [pc, #104]	; (1640 <isItPointingUp+0xb4>)
    15d8:	4a1a      	ldr	r2, [pc, #104]	; (1644 <isItPointingUp+0xb8>)
    15da:	4b1b      	ldr	r3, [pc, #108]	; (1648 <isItPointingUp+0xbc>)
    15dc:	47b0      	blx	r6
    15de:	0037      	movs	r7, r6
    15e0:	4e1a      	ldr	r6, [pc, #104]	; (164c <isItPointingUp+0xc0>)
    15e2:	2800      	cmp	r0, #0
    15e4:	d007      	beq.n	15f6 <isItPointingUp+0x6a>
    15e6:	4a0f      	ldr	r2, [pc, #60]	; (1624 <isItPointingUp+0x98>)
    15e8:	4b19      	ldr	r3, [pc, #100]	; (1650 <isItPointingUp+0xc4>)
    15ea:	0020      	movs	r0, r4
    15ec:	0029      	movs	r1, r5
    15ee:	47b0      	blx	r6
    15f0:	2201      	movs	r2, #1
    15f2:	2800      	cmp	r0, #0
    15f4:	d10e      	bne.n	1614 <isItPointingUp+0x88>
    15f6:	4a13      	ldr	r2, [pc, #76]	; (1644 <isItPointingUp+0xb8>)
    15f8:	4b16      	ldr	r3, [pc, #88]	; (1654 <isItPointingUp+0xc8>)
    15fa:	0020      	movs	r0, r4
    15fc:	0029      	movs	r1, r5
    15fe:	47b0      	blx	r6
    1600:	2800      	cmp	r0, #0
    1602:	d00a      	beq.n	161a <isItPointingUp+0x8e>
    1604:	4a07      	ldr	r2, [pc, #28]	; (1624 <isItPointingUp+0x98>)
    1606:	4b14      	ldr	r3, [pc, #80]	; (1658 <isItPointingUp+0xcc>)
    1608:	0020      	movs	r0, r4
    160a:	0029      	movs	r1, r5
    160c:	47b8      	blx	r7
    160e:	2800      	cmp	r0, #0
    1610:	d003      	beq.n	161a <isItPointingUp+0x8e>
    1612:	2200      	movs	r2, #0
    1614:	4b11      	ldr	r3, [pc, #68]	; (165c <isItPointingUp+0xd0>)
    1616:	715a      	strb	r2, [r3, #5]
    1618:	bdf8      	pop	{r3, r4, r5, r6, r7, pc}
    161a:	e7fe      	b.n	161a <isItPointingUp+0x8e>
    161c:	000010f5 	.word	0x000010f5
    1620:	00002839 	.word	0x00002839
    1624:	9999999a 	.word	0x9999999a
    1628:	00005505 	.word	0x00005505
    162c:	3fe99999 	.word	0x3fe99999
    1630:	20000578 	.word	0x20000578
    1634:	00006241 	.word	0x00006241
    1638:	3fc99999 	.word	0x3fc99999
    163c:	00004665 	.word	0x00004665
    1640:	0000433d 	.word	0x0000433d
    1644:	cccccccd 	.word	0xcccccccd
    1648:	3feccccc 	.word	0x3feccccc
    164c:	00004315 	.word	0x00004315
    1650:	3ff19999 	.word	0x3ff19999
    1654:	bfeccccc 	.word	0xbfeccccc
    1658:	bff19999 	.word	0xbff19999
    165c:	20000158 	.word	0x20000158

00001660 <igniterTick>:
    1660:	b510      	push	{r4, lr}
    1662:	4c23      	ldr	r4, [pc, #140]	; (16f0 <igniterTick+0x90>)
    1664:	7823      	ldrb	r3, [r4, #0]
    1666:	2b00      	cmp	r3, #0
    1668:	d00d      	beq.n	1686 <igniterTick+0x26>
    166a:	4b22      	ldr	r3, [pc, #136]	; (16f4 <igniterTick+0x94>)
    166c:	4798      	blx	r3
    166e:	6863      	ldr	r3, [r4, #4]
    1670:	1ac0      	subs	r0, r0, r3
    1672:	23fa      	movs	r3, #250	; 0xfa
    1674:	00db      	lsls	r3, r3, #3
    1676:	4298      	cmp	r0, r3
    1678:	d905      	bls.n	1686 <igniterTick+0x26>
    167a:	2280      	movs	r2, #128	; 0x80
    167c:	4b1e      	ldr	r3, [pc, #120]	; (16f8 <igniterTick+0x98>)
    167e:	0412      	lsls	r2, r2, #16
    1680:	601a      	str	r2, [r3, #0]
    1682:	2300      	movs	r3, #0
    1684:	7023      	strb	r3, [r4, #0]
    1686:	7a23      	ldrb	r3, [r4, #8]
    1688:	2b00      	cmp	r3, #0
    168a:	d00d      	beq.n	16a8 <igniterTick+0x48>
    168c:	4b19      	ldr	r3, [pc, #100]	; (16f4 <igniterTick+0x94>)
    168e:	4798      	blx	r3
    1690:	68e3      	ldr	r3, [r4, #12]
    1692:	1ac0      	subs	r0, r0, r3
    1694:	23fa      	movs	r3, #250	; 0xfa
    1696:	00db      	lsls	r3, r3, #3
    1698:	4298      	cmp	r0, r3
    169a:	d905      	bls.n	16a8 <igniterTick+0x48>
    169c:	2280      	movs	r2, #128	; 0x80
    169e:	4b16      	ldr	r3, [pc, #88]	; (16f8 <igniterTick+0x98>)
    16a0:	03d2      	lsls	r2, r2, #15
    16a2:	601a      	str	r2, [r3, #0]
    16a4:	2300      	movs	r3, #0
    16a6:	7223      	strb	r3, [r4, #8]
    16a8:	7c23      	ldrb	r3, [r4, #16]
    16aa:	2b00      	cmp	r3, #0
    16ac:	d00d      	beq.n	16ca <igniterTick+0x6a>
    16ae:	4b11      	ldr	r3, [pc, #68]	; (16f4 <igniterTick+0x94>)
    16b0:	4798      	blx	r3
    16b2:	6963      	ldr	r3, [r4, #20]
    16b4:	1ac0      	subs	r0, r0, r3
    16b6:	23fa      	movs	r3, #250	; 0xfa
    16b8:	00db      	lsls	r3, r3, #3
    16ba:	4298      	cmp	r0, r3
    16bc:	d905      	bls.n	16ca <igniterTick+0x6a>
    16be:	2280      	movs	r2, #128	; 0x80
    16c0:	4b0e      	ldr	r3, [pc, #56]	; (16fc <igniterTick+0x9c>)
    16c2:	0492      	lsls	r2, r2, #18
    16c4:	615a      	str	r2, [r3, #20]
    16c6:	2300      	movs	r3, #0
    16c8:	7423      	strb	r3, [r4, #16]
    16ca:	7e23      	ldrb	r3, [r4, #24]
    16cc:	2b00      	cmp	r3, #0
    16ce:	d00d      	beq.n	16ec <igniterTick+0x8c>
    16d0:	4b08      	ldr	r3, [pc, #32]	; (16f4 <igniterTick+0x94>)
    16d2:	4798      	blx	r3
    16d4:	69e3      	ldr	r3, [r4, #28]
    16d6:	1ac0      	subs	r0, r0, r3
    16d8:	23fa      	movs	r3, #250	; 0xfa
    16da:	00db      	lsls	r3, r3, #3
    16dc:	4298      	cmp	r0, r3
    16de:	d905      	bls.n	16ec <igniterTick+0x8c>
    16e0:	2280      	movs	r2, #128	; 0x80
    16e2:	4b06      	ldr	r3, [pc, #24]	; (16fc <igniterTick+0x9c>)
    16e4:	0452      	lsls	r2, r2, #17
    16e6:	615a      	str	r2, [r3, #20]
    16e8:	2300      	movs	r3, #0
    16ea:	7623      	strb	r3, [r4, #24]
    16ec:	bd10      	pop	{r4, pc}
    16ee:	46c0      	nop			; (mov r8, r8)
    16f0:	200002ac 	.word	0x200002ac
    16f4:	00001141 	.word	0x00001141
    16f8:	41004494 	.word	0x41004494
    16fc:	41004400 	.word	0x41004400

00001700 <lightIgniterA>:
    1700:	2280      	movs	r2, #128	; 0x80
    1702:	4b05      	ldr	r3, [pc, #20]	; (1718 <lightIgniterA+0x18>)
    1704:	0412      	lsls	r2, r2, #16
    1706:	b510      	push	{r4, lr}
    1708:	601a      	str	r2, [r3, #0]
    170a:	2301      	movs	r3, #1
    170c:	4c03      	ldr	r4, [pc, #12]	; (171c <lightIgniterA+0x1c>)
    170e:	7023      	strb	r3, [r4, #0]
    1710:	4b03      	ldr	r3, [pc, #12]	; (1720 <lightIgniterA+0x20>)
    1712:	4798      	blx	r3
    1714:	6060      	str	r0, [r4, #4]
    1716:	bd10      	pop	{r4, pc}
    1718:	41004498 	.word	0x41004498
    171c:	200002ac 	.word	0x200002ac
    1720:	00001141 	.word	0x00001141

00001724 <lightIgniterB>:
    1724:	2280      	movs	r2, #128	; 0x80
    1726:	4b05      	ldr	r3, [pc, #20]	; (173c <lightIgniterB+0x18>)
    1728:	03d2      	lsls	r2, r2, #15
    172a:	b510      	push	{r4, lr}
    172c:	601a      	str	r2, [r3, #0]
    172e:	2301      	movs	r3, #1
    1730:	4c03      	ldr	r4, [pc, #12]	; (1740 <lightIgniterB+0x1c>)
    1732:	7223      	strb	r3, [r4, #8]
    1734:	4b03      	ldr	r3, [pc, #12]	; (1744 <lightIgniterB+0x20>)
    1736:	4798      	blx	r3
    1738:	60e0      	str	r0, [r4, #12]
    173a:	bd10      	pop	{r4, pc}
    173c:	41004498 	.word	0x41004498
    1740:	200002ac 	.word	0x200002ac
    1744:	00001141 	.word	0x00001141

00001748 <lightIgniterC>:
    1748:	2280      	movs	r2, #128	; 0x80
    174a:	4b05      	ldr	r3, [pc, #20]	; (1760 <lightIgniterC+0x18>)
    174c:	0492      	lsls	r2, r2, #18
    174e:	b510      	push	{r4, lr}
    1750:	619a      	str	r2, [r3, #24]
    1752:	2301      	movs	r3, #1
    1754:	4c03      	ldr	r4, [pc, #12]	; (1764 <lightIgniterC+0x1c>)
    1756:	7423      	strb	r3, [r4, #16]
    1758:	4b03      	ldr	r3, [pc, #12]	; (1768 <lightIgniterC+0x20>)
    175a:	4798      	blx	r3
    175c:	6160      	str	r0, [r4, #20]
    175e:	bd10      	pop	{r4, pc}
    1760:	41004400 	.word	0x41004400
    1764:	200002ac 	.word	0x200002ac
    1768:	00001141 	.word	0x00001141

0000176c <lightIgniterD>:
    176c:	2280      	movs	r2, #128	; 0x80
    176e:	4b05      	ldr	r3, [pc, #20]	; (1784 <lightIgniterD+0x18>)
    1770:	0452      	lsls	r2, r2, #17
    1772:	b510      	push	{r4, lr}
    1774:	619a      	str	r2, [r3, #24]
    1776:	2301      	movs	r3, #1
    1778:	4c03      	ldr	r4, [pc, #12]	; (1788 <lightIgniterD+0x1c>)
    177a:	7623      	strb	r3, [r4, #24]
    177c:	4b03      	ldr	r3, [pc, #12]	; (178c <lightIgniterD+0x20>)
    177e:	4798      	blx	r3
    1780:	61e0      	str	r0, [r4, #28]
    1782:	bd10      	pop	{r4, pc}
    1784:	41004400 	.word	0x41004400
    1788:	200002ac 	.word	0x200002ac
    178c:	00001141 	.word	0x00001141

00001790 <igniteMain>:
    1790:	b510      	push	{r4, lr}
    1792:	4c11      	ldr	r4, [pc, #68]	; (17d8 <igniteMain+0x48>)
    1794:	7863      	ldrb	r3, [r4, #1]
    1796:	2b00      	cmp	r3, #0
    1798:	d104      	bne.n	17a4 <igniteMain+0x14>
    179a:	7823      	ldrb	r3, [r4, #0]
    179c:	2b00      	cmp	r3, #0
    179e:	d001      	beq.n	17a4 <igniteMain+0x14>
    17a0:	4b0e      	ldr	r3, [pc, #56]	; (17dc <igniteMain+0x4c>)
    17a2:	4798      	blx	r3
    17a4:	79e3      	ldrb	r3, [r4, #7]
    17a6:	2b00      	cmp	r3, #0
    17a8:	d104      	bne.n	17b4 <igniteMain+0x24>
    17aa:	79a3      	ldrb	r3, [r4, #6]
    17ac:	2b00      	cmp	r3, #0
    17ae:	d001      	beq.n	17b4 <igniteMain+0x24>
    17b0:	4b0b      	ldr	r3, [pc, #44]	; (17e0 <igniteMain+0x50>)
    17b2:	4798      	blx	r3
    17b4:	7b63      	ldrb	r3, [r4, #13]
    17b6:	2b00      	cmp	r3, #0
    17b8:	d104      	bne.n	17c4 <igniteMain+0x34>
    17ba:	7b23      	ldrb	r3, [r4, #12]
    17bc:	2b00      	cmp	r3, #0
    17be:	d001      	beq.n	17c4 <igniteMain+0x34>
    17c0:	4b08      	ldr	r3, [pc, #32]	; (17e4 <igniteMain+0x54>)
    17c2:	4798      	blx	r3
    17c4:	7ce3      	ldrb	r3, [r4, #19]
    17c6:	2b00      	cmp	r3, #0
    17c8:	d104      	bne.n	17d4 <igniteMain+0x44>
    17ca:	7ca3      	ldrb	r3, [r4, #18]
    17cc:	2b00      	cmp	r3, #0
    17ce:	d001      	beq.n	17d4 <igniteMain+0x44>
    17d0:	4b05      	ldr	r3, [pc, #20]	; (17e8 <igniteMain+0x58>)
    17d2:	4798      	blx	r3
    17d4:	bd10      	pop	{r4, pc}
    17d6:	46c0      	nop			; (mov r8, r8)
    17d8:	20000138 	.word	0x20000138
    17dc:	00001701 	.word	0x00001701
    17e0:	00001725 	.word	0x00001725
    17e4:	00001749 	.word	0x00001749
    17e8:	0000176d 	.word	0x0000176d

000017ec <computeKalmanGains>:
    17ec:	4bdc      	ldr	r3, [pc, #880]	; (1b60 <computeKalmanGains+0x374>)
    17ee:	48dd      	ldr	r0, [pc, #884]	; (1b64 <computeKalmanGains+0x378>)
    17f0:	49dd      	ldr	r1, [pc, #884]	; (1b68 <computeKalmanGains+0x37c>)
    17f2:	b5f0      	push	{r4, r5, r6, r7, lr}
    17f4:	6098      	str	r0, [r3, #8]
    17f6:	60d9      	str	r1, [r3, #12]
    17f8:	6298      	str	r0, [r3, #40]	; 0x28
    17fa:	62d9      	str	r1, [r3, #44]	; 0x2c
    17fc:	48db      	ldr	r0, [pc, #876]	; (1b6c <computeKalmanGains+0x380>)
    17fe:	49dc      	ldr	r1, [pc, #880]	; (1b70 <computeKalmanGains+0x384>)
    1800:	2200      	movs	r2, #0
    1802:	6118      	str	r0, [r3, #16]
    1804:	6159      	str	r1, [r3, #20]
    1806:	2000      	movs	r0, #0
    1808:	49da      	ldr	r1, [pc, #872]	; (1b74 <computeKalmanGains+0x388>)
    180a:	4cdb      	ldr	r4, [pc, #876]	; (1b78 <computeKalmanGains+0x38c>)
    180c:	468c      	mov	ip, r1
    180e:	4ddb      	ldr	r5, [pc, #876]	; (1b7c <computeKalmanGains+0x390>)
    1810:	49db      	ldr	r1, [pc, #876]	; (1b80 <computeKalmanGains+0x394>)
    1812:	b0cd      	sub	sp, #308	; 0x134
    1814:	ae40      	add	r6, sp, #256	; 0x100
    1816:	1997      	adds	r7, r2, r6
    1818:	4666      	mov	r6, ip
    181a:	1996      	adds	r6, r2, r6
    181c:	3210      	adds	r2, #16
    181e:	603c      	str	r4, [r7, #0]
    1820:	607d      	str	r5, [r7, #4]
    1822:	6030      	str	r0, [r6, #0]
    1824:	6071      	str	r1, [r6, #4]
    1826:	60bc      	str	r4, [r7, #8]
    1828:	60fd      	str	r5, [r7, #12]
    182a:	60b0      	str	r0, [r6, #8]
    182c:	60f1      	str	r1, [r6, #12]
    182e:	2a30      	cmp	r2, #48	; 0x30
    1830:	d1f0      	bne.n	1814 <computeKalmanGains+0x28>
    1832:	6819      	ldr	r1, [r3, #0]
    1834:	685a      	ldr	r2, [r3, #4]
    1836:	911a      	str	r1, [sp, #104]	; 0x68
    1838:	921b      	str	r2, [sp, #108]	; 0x6c
    183a:	6999      	ldr	r1, [r3, #24]
    183c:	69da      	ldr	r2, [r3, #28]
    183e:	911c      	str	r1, [sp, #112]	; 0x70
    1840:	921d      	str	r2, [sp, #116]	; 0x74
    1842:	6a19      	ldr	r1, [r3, #32]
    1844:	6a5a      	ldr	r2, [r3, #36]	; 0x24
    1846:	911e      	str	r1, [sp, #120]	; 0x78
    1848:	921f      	str	r2, [sp, #124]	; 0x7c
    184a:	6b19      	ldr	r1, [r3, #48]	; 0x30
    184c:	6b5a      	ldr	r2, [r3, #52]	; 0x34
    184e:	9120      	str	r1, [sp, #128]	; 0x80
    1850:	9221      	str	r2, [sp, #132]	; 0x84
    1852:	6b99      	ldr	r1, [r3, #56]	; 0x38
    1854:	6bda      	ldr	r2, [r3, #60]	; 0x3c
    1856:	9122      	str	r1, [sp, #136]	; 0x88
    1858:	9223      	str	r2, [sp, #140]	; 0x8c
    185a:	6c19      	ldr	r1, [r3, #64]	; 0x40
    185c:	6c5a      	ldr	r2, [r3, #68]	; 0x44
    185e:	9124      	str	r1, [sp, #144]	; 0x90
    1860:	9225      	str	r2, [sp, #148]	; 0x94
    1862:	6c99      	ldr	r1, [r3, #72]	; 0x48
    1864:	6cda      	ldr	r2, [r3, #76]	; 0x4c
    1866:	913a      	str	r1, [sp, #232]	; 0xe8
    1868:	923b      	str	r2, [sp, #236]	; 0xec
    186a:	6d19      	ldr	r1, [r3, #80]	; 0x50
    186c:	6d5a      	ldr	r2, [r3, #84]	; 0x54
    186e:	6ddc      	ldr	r4, [r3, #92]	; 0x5c
    1870:	6d9b      	ldr	r3, [r3, #88]	; 0x58
    1872:	933e      	str	r3, [sp, #248]	; 0xf8
    1874:	943f      	str	r4, [sp, #252]	; 0xfc
    1876:	2300      	movs	r3, #0
    1878:	4cc2      	ldr	r4, [pc, #776]	; (1b84 <computeKalmanGains+0x398>)
    187a:	913c      	str	r1, [sp, #240]	; 0xf0
    187c:	923d      	str	r2, [sp, #244]	; 0xf4
    187e:	9302      	str	r3, [sp, #8]
    1880:	9403      	str	r4, [sp, #12]
    1882:	2300      	movs	r3, #0
    1884:	2400      	movs	r4, #0
    1886:	9310      	str	r3, [sp, #64]	; 0x40
    1888:	9411      	str	r4, [sp, #68]	; 0x44
    188a:	9300      	str	r3, [sp, #0]
    188c:	9401      	str	r4, [sp, #4]
    188e:	9304      	str	r3, [sp, #16]
    1890:	9405      	str	r4, [sp, #20]
    1892:	2300      	movs	r3, #0
    1894:	4cbb      	ldr	r4, [pc, #748]	; (1b84 <computeKalmanGains+0x398>)
    1896:	930e      	str	r3, [sp, #56]	; 0x38
    1898:	940f      	str	r4, [sp, #60]	; 0x3c
    189a:	2300      	movs	r3, #0
    189c:	2400      	movs	r4, #0
    189e:	9308      	str	r3, [sp, #32]
    18a0:	9409      	str	r4, [sp, #36]	; 0x24
    18a2:	930c      	str	r3, [sp, #48]	; 0x30
    18a4:	940d      	str	r4, [sp, #52]	; 0x34
    18a6:	930a      	str	r3, [sp, #40]	; 0x28
    18a8:	940b      	str	r4, [sp, #44]	; 0x2c
    18aa:	2480      	movs	r4, #128	; 0x80
    18ac:	2300      	movs	r3, #0
    18ae:	05e4      	lsls	r4, r4, #23
    18b0:	9306      	str	r3, [sp, #24]
    18b2:	9407      	str	r4, [sp, #28]
    18b4:	2300      	movs	r3, #0
    18b6:	9338      	str	r3, [sp, #224]	; 0xe0
    18b8:	4db3      	ldr	r5, [pc, #716]	; (1b88 <computeKalmanGains+0x39c>)
    18ba:	9a06      	ldr	r2, [sp, #24]
    18bc:	9b07      	ldr	r3, [sp, #28]
    18be:	981a      	ldr	r0, [sp, #104]	; 0x68
    18c0:	991b      	ldr	r1, [sp, #108]	; 0x6c
    18c2:	47a8      	blx	r5
    18c4:	4aa7      	ldr	r2, [pc, #668]	; (1b64 <computeKalmanGains+0x378>)
    18c6:	0006      	movs	r6, r0
    18c8:	000f      	movs	r7, r1
    18ca:	9808      	ldr	r0, [sp, #32]
    18cc:	9909      	ldr	r1, [sp, #36]	; 0x24
    18ce:	4ba6      	ldr	r3, [pc, #664]	; (1b68 <computeKalmanGains+0x37c>)
    18d0:	47a8      	blx	r5
    18d2:	4cae      	ldr	r4, [pc, #696]	; (1b8c <computeKalmanGains+0x3a0>)
    18d4:	0002      	movs	r2, r0
    18d6:	000b      	movs	r3, r1
    18d8:	0030      	movs	r0, r6
    18da:	0039      	movs	r1, r7
    18dc:	47a0      	blx	r4
    18de:	4aa3      	ldr	r2, [pc, #652]	; (1b6c <computeKalmanGains+0x380>)
    18e0:	0006      	movs	r6, r0
    18e2:	000f      	movs	r7, r1
    18e4:	9800      	ldr	r0, [sp, #0]
    18e6:	9901      	ldr	r1, [sp, #4]
    18e8:	4ba1      	ldr	r3, [pc, #644]	; (1b70 <computeKalmanGains+0x384>)
    18ea:	47a8      	blx	r5
    18ec:	0002      	movs	r2, r0
    18ee:	000b      	movs	r3, r1
    18f0:	0030      	movs	r0, r6
    18f2:	0039      	movs	r1, r7
    18f4:	47a0      	blx	r4
    18f6:	9a0a      	ldr	r2, [sp, #40]	; 0x28
    18f8:	9b0b      	ldr	r3, [sp, #44]	; 0x2c
    18fa:	9016      	str	r0, [sp, #88]	; 0x58
    18fc:	9117      	str	r1, [sp, #92]	; 0x5c
    18fe:	981a      	ldr	r0, [sp, #104]	; 0x68
    1900:	991b      	ldr	r1, [sp, #108]	; 0x6c
    1902:	47a8      	blx	r5
    1904:	4a97      	ldr	r2, [pc, #604]	; (1b64 <computeKalmanGains+0x378>)
    1906:	0006      	movs	r6, r0
    1908:	000f      	movs	r7, r1
    190a:	980e      	ldr	r0, [sp, #56]	; 0x38
    190c:	990f      	ldr	r1, [sp, #60]	; 0x3c
    190e:	4b96      	ldr	r3, [pc, #600]	; (1b68 <computeKalmanGains+0x37c>)
    1910:	47a8      	blx	r5
    1912:	0002      	movs	r2, r0
    1914:	000b      	movs	r3, r1
    1916:	0030      	movs	r0, r6
    1918:	0039      	movs	r1, r7
    191a:	47a0      	blx	r4
    191c:	4a93      	ldr	r2, [pc, #588]	; (1b6c <computeKalmanGains+0x380>)
    191e:	0006      	movs	r6, r0
    1920:	000f      	movs	r7, r1
    1922:	9810      	ldr	r0, [sp, #64]	; 0x40
    1924:	9911      	ldr	r1, [sp, #68]	; 0x44
    1926:	4b92      	ldr	r3, [pc, #584]	; (1b70 <computeKalmanGains+0x384>)
    1928:	47a8      	blx	r5
    192a:	0002      	movs	r2, r0
    192c:	000b      	movs	r3, r1
    192e:	0030      	movs	r0, r6
    1930:	0039      	movs	r1, r7
    1932:	47a0      	blx	r4
    1934:	9a0c      	ldr	r2, [sp, #48]	; 0x30
    1936:	9b0d      	ldr	r3, [sp, #52]	; 0x34
    1938:	9012      	str	r0, [sp, #72]	; 0x48
    193a:	9113      	str	r1, [sp, #76]	; 0x4c
    193c:	981a      	ldr	r0, [sp, #104]	; 0x68
    193e:	991b      	ldr	r1, [sp, #108]	; 0x6c
    1940:	47a8      	blx	r5
    1942:	4a88      	ldr	r2, [pc, #544]	; (1b64 <computeKalmanGains+0x378>)
    1944:	0006      	movs	r6, r0
    1946:	000f      	movs	r7, r1
    1948:	9804      	ldr	r0, [sp, #16]
    194a:	9905      	ldr	r1, [sp, #20]
    194c:	4b86      	ldr	r3, [pc, #536]	; (1b68 <computeKalmanGains+0x37c>)
    194e:	47a8      	blx	r5
    1950:	0002      	movs	r2, r0
    1952:	000b      	movs	r3, r1
    1954:	0030      	movs	r0, r6
    1956:	0039      	movs	r1, r7
    1958:	47a0      	blx	r4
    195a:	4a84      	ldr	r2, [pc, #528]	; (1b6c <computeKalmanGains+0x380>)
    195c:	0006      	movs	r6, r0
    195e:	000f      	movs	r7, r1
    1960:	9802      	ldr	r0, [sp, #8]
    1962:	9903      	ldr	r1, [sp, #12]
    1964:	4b82      	ldr	r3, [pc, #520]	; (1b70 <computeKalmanGains+0x384>)
    1966:	47a8      	blx	r5
    1968:	0002      	movs	r2, r0
    196a:	000b      	movs	r3, r1
    196c:	0030      	movs	r0, r6
    196e:	0039      	movs	r1, r7
    1970:	47a0      	blx	r4
    1972:	9a06      	ldr	r2, [sp, #24]
    1974:	9b07      	ldr	r3, [sp, #28]
    1976:	9014      	str	r0, [sp, #80]	; 0x50
    1978:	9115      	str	r1, [sp, #84]	; 0x54
    197a:	981c      	ldr	r0, [sp, #112]	; 0x70
    197c:	991d      	ldr	r1, [sp, #116]	; 0x74
    197e:	47a8      	blx	r5
    1980:	9a08      	ldr	r2, [sp, #32]
    1982:	9b09      	ldr	r3, [sp, #36]	; 0x24
    1984:	0006      	movs	r6, r0
    1986:	000f      	movs	r7, r1
    1988:	981e      	ldr	r0, [sp, #120]	; 0x78
    198a:	991f      	ldr	r1, [sp, #124]	; 0x7c
    198c:	47a8      	blx	r5
    198e:	0002      	movs	r2, r0
    1990:	000b      	movs	r3, r1
    1992:	0030      	movs	r0, r6
    1994:	0039      	movs	r1, r7
    1996:	47a0      	blx	r4
    1998:	4a72      	ldr	r2, [pc, #456]	; (1b64 <computeKalmanGains+0x378>)
    199a:	0006      	movs	r6, r0
    199c:	000f      	movs	r7, r1
    199e:	9800      	ldr	r0, [sp, #0]
    19a0:	9901      	ldr	r1, [sp, #4]
    19a2:	4b71      	ldr	r3, [pc, #452]	; (1b68 <computeKalmanGains+0x37c>)
    19a4:	47a8      	blx	r5
    19a6:	0002      	movs	r2, r0
    19a8:	000b      	movs	r3, r1
    19aa:	0030      	movs	r0, r6
    19ac:	0039      	movs	r1, r7
    19ae:	47a0      	blx	r4
    19b0:	9a0a      	ldr	r2, [sp, #40]	; 0x28
    19b2:	9b0b      	ldr	r3, [sp, #44]	; 0x2c
    19b4:	9018      	str	r0, [sp, #96]	; 0x60
    19b6:	9119      	str	r1, [sp, #100]	; 0x64
    19b8:	981c      	ldr	r0, [sp, #112]	; 0x70
    19ba:	991d      	ldr	r1, [sp, #116]	; 0x74
    19bc:	47a8      	blx	r5
    19be:	9a0e      	ldr	r2, [sp, #56]	; 0x38
    19c0:	9b0f      	ldr	r3, [sp, #60]	; 0x3c
    19c2:	0006      	movs	r6, r0
    19c4:	000f      	movs	r7, r1
    19c6:	981e      	ldr	r0, [sp, #120]	; 0x78
    19c8:	991f      	ldr	r1, [sp, #124]	; 0x7c
    19ca:	47a8      	blx	r5
    19cc:	0002      	movs	r2, r0
    19ce:	000b      	movs	r3, r1
    19d0:	0030      	movs	r0, r6
    19d2:	0039      	movs	r1, r7
    19d4:	47a0      	blx	r4
    19d6:	4a63      	ldr	r2, [pc, #396]	; (1b64 <computeKalmanGains+0x378>)
    19d8:	0006      	movs	r6, r0
    19da:	000f      	movs	r7, r1
    19dc:	9810      	ldr	r0, [sp, #64]	; 0x40
    19de:	9911      	ldr	r1, [sp, #68]	; 0x44
    19e0:	4b61      	ldr	r3, [pc, #388]	; (1b68 <computeKalmanGains+0x37c>)
    19e2:	47a8      	blx	r5
    19e4:	0002      	movs	r2, r0
    19e6:	000b      	movs	r3, r1
    19e8:	0030      	movs	r0, r6
    19ea:	0039      	movs	r1, r7
    19ec:	47a0      	blx	r4
    19ee:	9a0c      	ldr	r2, [sp, #48]	; 0x30
    19f0:	9b0d      	ldr	r3, [sp, #52]	; 0x34
    19f2:	9026      	str	r0, [sp, #152]	; 0x98
    19f4:	9127      	str	r1, [sp, #156]	; 0x9c
    19f6:	981c      	ldr	r0, [sp, #112]	; 0x70
    19f8:	991d      	ldr	r1, [sp, #116]	; 0x74
    19fa:	47a8      	blx	r5
    19fc:	9a04      	ldr	r2, [sp, #16]
    19fe:	9b05      	ldr	r3, [sp, #20]
    1a00:	0006      	movs	r6, r0
    1a02:	000f      	movs	r7, r1
    1a04:	981e      	ldr	r0, [sp, #120]	; 0x78
    1a06:	991f      	ldr	r1, [sp, #124]	; 0x7c
    1a08:	47a8      	blx	r5
    1a0a:	0002      	movs	r2, r0
    1a0c:	000b      	movs	r3, r1
    1a0e:	0030      	movs	r0, r6
    1a10:	0039      	movs	r1, r7
    1a12:	47a0      	blx	r4
    1a14:	4a53      	ldr	r2, [pc, #332]	; (1b64 <computeKalmanGains+0x378>)
    1a16:	0006      	movs	r6, r0
    1a18:	000f      	movs	r7, r1
    1a1a:	9802      	ldr	r0, [sp, #8]
    1a1c:	9903      	ldr	r1, [sp, #12]
    1a1e:	4b52      	ldr	r3, [pc, #328]	; (1b68 <computeKalmanGains+0x37c>)
    1a20:	47a8      	blx	r5
    1a22:	0002      	movs	r2, r0
    1a24:	000b      	movs	r3, r1
    1a26:	0030      	movs	r0, r6
    1a28:	0039      	movs	r1, r7
    1a2a:	47a0      	blx	r4
    1a2c:	9a06      	ldr	r2, [sp, #24]
    1a2e:	9b07      	ldr	r3, [sp, #28]
    1a30:	9028      	str	r0, [sp, #160]	; 0xa0
    1a32:	9129      	str	r1, [sp, #164]	; 0xa4
    1a34:	9820      	ldr	r0, [sp, #128]	; 0x80
    1a36:	9921      	ldr	r1, [sp, #132]	; 0x84
    1a38:	47a8      	blx	r5
    1a3a:	9a08      	ldr	r2, [sp, #32]
    1a3c:	9b09      	ldr	r3, [sp, #36]	; 0x24
    1a3e:	0006      	movs	r6, r0
    1a40:	000f      	movs	r7, r1
    1a42:	9822      	ldr	r0, [sp, #136]	; 0x88
    1a44:	9923      	ldr	r1, [sp, #140]	; 0x8c
    1a46:	47a8      	blx	r5
    1a48:	0002      	movs	r2, r0
    1a4a:	000b      	movs	r3, r1
    1a4c:	0030      	movs	r0, r6
    1a4e:	0039      	movs	r1, r7
    1a50:	47a0      	blx	r4
    1a52:	9a00      	ldr	r2, [sp, #0]
    1a54:	9b01      	ldr	r3, [sp, #4]
    1a56:	0006      	movs	r6, r0
    1a58:	000f      	movs	r7, r1
    1a5a:	9824      	ldr	r0, [sp, #144]	; 0x90
    1a5c:	9925      	ldr	r1, [sp, #148]	; 0x94
    1a5e:	47a8      	blx	r5
    1a60:	0002      	movs	r2, r0
    1a62:	000b      	movs	r3, r1
    1a64:	0030      	movs	r0, r6
    1a66:	0039      	movs	r1, r7
    1a68:	47a0      	blx	r4
    1a6a:	9a0a      	ldr	r2, [sp, #40]	; 0x28
    1a6c:	9b0b      	ldr	r3, [sp, #44]	; 0x2c
    1a6e:	902e      	str	r0, [sp, #184]	; 0xb8
    1a70:	912f      	str	r1, [sp, #188]	; 0xbc
    1a72:	9820      	ldr	r0, [sp, #128]	; 0x80
    1a74:	9921      	ldr	r1, [sp, #132]	; 0x84
    1a76:	47a8      	blx	r5
    1a78:	9a0e      	ldr	r2, [sp, #56]	; 0x38
    1a7a:	9b0f      	ldr	r3, [sp, #60]	; 0x3c
    1a7c:	0006      	movs	r6, r0
    1a7e:	000f      	movs	r7, r1
    1a80:	9822      	ldr	r0, [sp, #136]	; 0x88
    1a82:	9923      	ldr	r1, [sp, #140]	; 0x8c
    1a84:	47a8      	blx	r5
    1a86:	0002      	movs	r2, r0
    1a88:	000b      	movs	r3, r1
    1a8a:	0030      	movs	r0, r6
    1a8c:	0039      	movs	r1, r7
    1a8e:	47a0      	blx	r4
    1a90:	9a10      	ldr	r2, [sp, #64]	; 0x40
    1a92:	9b11      	ldr	r3, [sp, #68]	; 0x44
    1a94:	0006      	movs	r6, r0
    1a96:	000f      	movs	r7, r1
    1a98:	9824      	ldr	r0, [sp, #144]	; 0x90
    1a9a:	9925      	ldr	r1, [sp, #148]	; 0x94
    1a9c:	47a8      	blx	r5
    1a9e:	0002      	movs	r2, r0
    1aa0:	000b      	movs	r3, r1
    1aa2:	0030      	movs	r0, r6
    1aa4:	0039      	movs	r1, r7
    1aa6:	47a0      	blx	r4
    1aa8:	9a0c      	ldr	r2, [sp, #48]	; 0x30
    1aaa:	9b0d      	ldr	r3, [sp, #52]	; 0x34
    1aac:	9006      	str	r0, [sp, #24]
    1aae:	9107      	str	r1, [sp, #28]
    1ab0:	9820      	ldr	r0, [sp, #128]	; 0x80
    1ab2:	9921      	ldr	r1, [sp, #132]	; 0x84
    1ab4:	47a8      	blx	r5
    1ab6:	9a04      	ldr	r2, [sp, #16]
    1ab8:	9b05      	ldr	r3, [sp, #20]
    1aba:	0006      	movs	r6, r0
    1abc:	000f      	movs	r7, r1
    1abe:	9822      	ldr	r0, [sp, #136]	; 0x88
    1ac0:	9923      	ldr	r1, [sp, #140]	; 0x8c
    1ac2:	47a8      	blx	r5
    1ac4:	0002      	movs	r2, r0
    1ac6:	000b      	movs	r3, r1
    1ac8:	0030      	movs	r0, r6
    1aca:	0039      	movs	r1, r7
    1acc:	47a0      	blx	r4
    1ace:	9a02      	ldr	r2, [sp, #8]
    1ad0:	9b03      	ldr	r3, [sp, #12]
    1ad2:	0006      	movs	r6, r0
    1ad4:	000f      	movs	r7, r1
    1ad6:	9824      	ldr	r0, [sp, #144]	; 0x90
    1ad8:	9925      	ldr	r1, [sp, #148]	; 0x94
    1ada:	47a8      	blx	r5
    1adc:	0002      	movs	r2, r0
    1ade:	000b      	movs	r3, r1
    1ae0:	0030      	movs	r0, r6
    1ae2:	0039      	movs	r1, r7
    1ae4:	47a0      	blx	r4
    1ae6:	4a1f      	ldr	r2, [pc, #124]	; (1b64 <computeKalmanGains+0x378>)
    1ae8:	9002      	str	r0, [sp, #8]
    1aea:	9103      	str	r1, [sp, #12]
    1aec:	9812      	ldr	r0, [sp, #72]	; 0x48
    1aee:	9913      	ldr	r1, [sp, #76]	; 0x4c
    1af0:	4b1d      	ldr	r3, [pc, #116]	; (1b68 <computeKalmanGains+0x37c>)
    1af2:	47a8      	blx	r5
    1af4:	9a16      	ldr	r2, [sp, #88]	; 0x58
    1af6:	9b17      	ldr	r3, [sp, #92]	; 0x5c
    1af8:	47a0      	blx	r4
    1afa:	4a1c      	ldr	r2, [pc, #112]	; (1b6c <computeKalmanGains+0x380>)
    1afc:	0006      	movs	r6, r0
    1afe:	000f      	movs	r7, r1
    1b00:	9814      	ldr	r0, [sp, #80]	; 0x50
    1b02:	9915      	ldr	r1, [sp, #84]	; 0x54
    1b04:	4b1a      	ldr	r3, [pc, #104]	; (1b70 <computeKalmanGains+0x384>)
    1b06:	47a8      	blx	r5
    1b08:	0002      	movs	r2, r0
    1b0a:	000b      	movs	r3, r1
    1b0c:	0030      	movs	r0, r6
    1b0e:	0039      	movs	r1, r7
    1b10:	47a0      	blx	r4
    1b12:	2200      	movs	r2, #0
    1b14:	9008      	str	r0, [sp, #32]
    1b16:	9109      	str	r1, [sp, #36]	; 0x24
    1b18:	9816      	ldr	r0, [sp, #88]	; 0x58
    1b1a:	9917      	ldr	r1, [sp, #92]	; 0x5c
    1b1c:	2300      	movs	r3, #0
    1b1e:	47a8      	blx	r5
    1b20:	0006      	movs	r6, r0
    1b22:	000f      	movs	r7, r1
    1b24:	0002      	movs	r2, r0
    1b26:	000b      	movs	r3, r1
    1b28:	9812      	ldr	r0, [sp, #72]	; 0x48
    1b2a:	9913      	ldr	r1, [sp, #76]	; 0x4c
    1b2c:	47a0      	blx	r4
    1b2e:	4a0d      	ldr	r2, [pc, #52]	; (1b64 <computeKalmanGains+0x378>)
    1b30:	9000      	str	r0, [sp, #0]
    1b32:	9101      	str	r1, [sp, #4]
    1b34:	9814      	ldr	r0, [sp, #80]	; 0x50
    1b36:	9915      	ldr	r1, [sp, #84]	; 0x54
    1b38:	4b0b      	ldr	r3, [pc, #44]	; (1b68 <computeKalmanGains+0x37c>)
    1b3a:	47a8      	blx	r5
    1b3c:	0002      	movs	r2, r0
    1b3e:	000b      	movs	r3, r1
    1b40:	9800      	ldr	r0, [sp, #0]
    1b42:	9901      	ldr	r1, [sp, #4]
    1b44:	47a0      	blx	r4
    1b46:	2200      	movs	r2, #0
    1b48:	9030      	str	r0, [sp, #192]	; 0xc0
    1b4a:	9131      	str	r1, [sp, #196]	; 0xc4
    1b4c:	9812      	ldr	r0, [sp, #72]	; 0x48
    1b4e:	9913      	ldr	r1, [sp, #76]	; 0x4c
    1b50:	2300      	movs	r3, #0
    1b52:	47a8      	blx	r5
    1b54:	0032      	movs	r2, r6
    1b56:	003b      	movs	r3, r7
    1b58:	47a0      	blx	r4
    1b5a:	9a14      	ldr	r2, [sp, #80]	; 0x50
    1b5c:	9b15      	ldr	r3, [sp, #84]	; 0x54
    1b5e:	e017      	b.n	1b90 <computeKalmanGains+0x3a4>
    1b60:	20000010 	.word	0x20000010
    1b64:	47ae147b 	.word	0x47ae147b
    1b68:	3f747ae1 	.word	0x3f747ae1
    1b6c:	eb1c432d 	.word	0xeb1c432d
    1b70:	3eea36e2 	.word	0x3eea36e2
    1b74:	20000278 	.word	0x20000278
    1b78:	d2f1a9fc 	.word	0xd2f1a9fc
    1b7c:	3f50624d 	.word	0x3f50624d
    1b80:	3ff00000 	.word	0x3ff00000
    1b84:	40220000 	.word	0x40220000
    1b88:	00005505 	.word	0x00005505
    1b8c:	00004665 	.word	0x00004665
    1b90:	47a0      	blx	r4
    1b92:	4ad9      	ldr	r2, [pc, #868]	; (1ef8 <computeKalmanGains+0x70c>)
    1b94:	9112      	str	r1, [sp, #72]	; 0x48
    1b96:	9004      	str	r0, [sp, #16]
    1b98:	9116      	str	r1, [sp, #88]	; 0x58
    1b9a:	4bd8      	ldr	r3, [pc, #864]	; (1efc <computeKalmanGains+0x710>)
    1b9c:	9826      	ldr	r0, [sp, #152]	; 0x98
    1b9e:	9927      	ldr	r1, [sp, #156]	; 0x9c
    1ba0:	47a8      	blx	r5
    1ba2:	9a18      	ldr	r2, [sp, #96]	; 0x60
    1ba4:	9b19      	ldr	r3, [sp, #100]	; 0x64
    1ba6:	47a0      	blx	r4
    1ba8:	4ad5      	ldr	r2, [pc, #852]	; (1f00 <computeKalmanGains+0x714>)
    1baa:	0006      	movs	r6, r0
    1bac:	000f      	movs	r7, r1
    1bae:	9828      	ldr	r0, [sp, #160]	; 0xa0
    1bb0:	9929      	ldr	r1, [sp, #164]	; 0xa4
    1bb2:	4bd4      	ldr	r3, [pc, #848]	; (1f04 <computeKalmanGains+0x718>)
    1bb4:	47a8      	blx	r5
    1bb6:	0002      	movs	r2, r0
    1bb8:	000b      	movs	r3, r1
    1bba:	0030      	movs	r0, r6
    1bbc:	0039      	movs	r1, r7
    1bbe:	47a0      	blx	r4
    1bc0:	2200      	movs	r2, #0
    1bc2:	902a      	str	r0, [sp, #168]	; 0xa8
    1bc4:	912b      	str	r1, [sp, #172]	; 0xac
    1bc6:	9818      	ldr	r0, [sp, #96]	; 0x60
    1bc8:	9919      	ldr	r1, [sp, #100]	; 0x64
    1bca:	2300      	movs	r3, #0
    1bcc:	47a8      	blx	r5
    1bce:	2200      	movs	r2, #0
    1bd0:	9032      	str	r0, [sp, #200]	; 0xc8
    1bd2:	9133      	str	r1, [sp, #204]	; 0xcc
    1bd4:	9826      	ldr	r0, [sp, #152]	; 0x98
    1bd6:	9927      	ldr	r1, [sp, #156]	; 0x9c
    1bd8:	2300      	movs	r3, #0
    1bda:	47a8      	blx	r5
    1bdc:	9a32      	ldr	r2, [sp, #200]	; 0xc8
    1bde:	9b33      	ldr	r3, [sp, #204]	; 0xcc
    1be0:	47a0      	blx	r4
    1be2:	9a28      	ldr	r2, [sp, #160]	; 0xa0
    1be4:	9b29      	ldr	r3, [sp, #164]	; 0xa4
    1be6:	47a0      	blx	r4
    1be8:	4ac3      	ldr	r2, [pc, #780]	; (1ef8 <computeKalmanGains+0x70c>)
    1bea:	902c      	str	r0, [sp, #176]	; 0xb0
    1bec:	912d      	str	r1, [sp, #180]	; 0xb4
    1bee:	9806      	ldr	r0, [sp, #24]
    1bf0:	9907      	ldr	r1, [sp, #28]
    1bf2:	4bc2      	ldr	r3, [pc, #776]	; (1efc <computeKalmanGains+0x710>)
    1bf4:	47a8      	blx	r5
    1bf6:	9a2e      	ldr	r2, [sp, #184]	; 0xb8
    1bf8:	9b2f      	ldr	r3, [sp, #188]	; 0xbc
    1bfa:	47a0      	blx	r4
    1bfc:	4ac0      	ldr	r2, [pc, #768]	; (1f00 <computeKalmanGains+0x714>)
    1bfe:	0006      	movs	r6, r0
    1c00:	000f      	movs	r7, r1
    1c02:	9802      	ldr	r0, [sp, #8]
    1c04:	9903      	ldr	r1, [sp, #12]
    1c06:	4bbf      	ldr	r3, [pc, #764]	; (1f04 <computeKalmanGains+0x718>)
    1c08:	47a8      	blx	r5
    1c0a:	0002      	movs	r2, r0
    1c0c:	000b      	movs	r3, r1
    1c0e:	0030      	movs	r0, r6
    1c10:	0039      	movs	r1, r7
    1c12:	47a0      	blx	r4
    1c14:	2200      	movs	r2, #0
    1c16:	9000      	str	r0, [sp, #0]
    1c18:	9101      	str	r1, [sp, #4]
    1c1a:	982e      	ldr	r0, [sp, #184]	; 0xb8
    1c1c:	992f      	ldr	r1, [sp, #188]	; 0xbc
    1c1e:	2300      	movs	r3, #0
    1c20:	47a8      	blx	r5
    1c22:	0006      	movs	r6, r0
    1c24:	000f      	movs	r7, r1
    1c26:	0002      	movs	r2, r0
    1c28:	000b      	movs	r3, r1
    1c2a:	9806      	ldr	r0, [sp, #24]
    1c2c:	9907      	ldr	r1, [sp, #28]
    1c2e:	47a0      	blx	r4
    1c30:	4ab1      	ldr	r2, [pc, #708]	; (1ef8 <computeKalmanGains+0x70c>)
    1c32:	900a      	str	r0, [sp, #40]	; 0x28
    1c34:	910b      	str	r1, [sp, #44]	; 0x2c
    1c36:	9802      	ldr	r0, [sp, #8]
    1c38:	9903      	ldr	r1, [sp, #12]
    1c3a:	4bb0      	ldr	r3, [pc, #704]	; (1efc <computeKalmanGains+0x710>)
    1c3c:	47a8      	blx	r5
    1c3e:	0002      	movs	r2, r0
    1c40:	000b      	movs	r3, r1
    1c42:	980a      	ldr	r0, [sp, #40]	; 0x28
    1c44:	990b      	ldr	r1, [sp, #44]	; 0x2c
    1c46:	47a0      	blx	r4
    1c48:	2200      	movs	r2, #0
    1c4a:	9010      	str	r0, [sp, #64]	; 0x40
    1c4c:	9111      	str	r1, [sp, #68]	; 0x44
    1c4e:	9806      	ldr	r0, [sp, #24]
    1c50:	9907      	ldr	r1, [sp, #28]
    1c52:	2300      	movs	r3, #0
    1c54:	47a8      	blx	r5
    1c56:	0032      	movs	r2, r6
    1c58:	003b      	movs	r3, r7
    1c5a:	47a0      	blx	r4
    1c5c:	9a02      	ldr	r2, [sp, #8]
    1c5e:	9b03      	ldr	r3, [sp, #12]
    1c60:	47a0      	blx	r4
    1c62:	9a3a      	ldr	r2, [sp, #232]	; 0xe8
    1c64:	9b3b      	ldr	r3, [sp, #236]	; 0xec
    1c66:	47a0      	blx	r4
    1c68:	9a3c      	ldr	r2, [sp, #240]	; 0xf0
    1c6a:	9b3d      	ldr	r3, [sp, #244]	; 0xf4
    1c6c:	9002      	str	r0, [sp, #8]
    1c6e:	9103      	str	r1, [sp, #12]
    1c70:	9808      	ldr	r0, [sp, #32]
    1c72:	9909      	ldr	r1, [sp, #36]	; 0x24
    1c74:	47a0      	blx	r4
    1c76:	9a3e      	ldr	r2, [sp, #248]	; 0xf8
    1c78:	9b3f      	ldr	r3, [sp, #252]	; 0xfc
    1c7a:	900a      	str	r0, [sp, #40]	; 0x28
    1c7c:	910b      	str	r1, [sp, #44]	; 0x2c
    1c7e:	9802      	ldr	r0, [sp, #8]
    1c80:	9903      	ldr	r1, [sp, #12]
    1c82:	47a0      	blx	r4
    1c84:	9a00      	ldr	r2, [sp, #0]
    1c86:	9b01      	ldr	r3, [sp, #4]
    1c88:	900c      	str	r0, [sp, #48]	; 0x30
    1c8a:	910d      	str	r1, [sp, #52]	; 0x34
    1c8c:	9804      	ldr	r0, [sp, #16]
    1c8e:	9916      	ldr	r1, [sp, #88]	; 0x58
    1c90:	47a8      	blx	r5
    1c92:	9a0c      	ldr	r2, [sp, #48]	; 0x30
    1c94:	9b0d      	ldr	r3, [sp, #52]	; 0x34
    1c96:	900e      	str	r0, [sp, #56]	; 0x38
    1c98:	910f      	str	r1, [sp, #60]	; 0x3c
    1c9a:	980a      	ldr	r0, [sp, #40]	; 0x28
    1c9c:	990b      	ldr	r1, [sp, #44]	; 0x2c
    1c9e:	47a8      	blx	r5
    1ca0:	9a0e      	ldr	r2, [sp, #56]	; 0x38
    1ca2:	9b0f      	ldr	r3, [sp, #60]	; 0x3c
    1ca4:	4e98      	ldr	r6, [pc, #608]	; (1f08 <computeKalmanGains+0x71c>)
    1ca6:	47b0      	blx	r6
    1ca8:	9a0c      	ldr	r2, [sp, #48]	; 0x30
    1caa:	9b0d      	ldr	r3, [sp, #52]	; 0x34
    1cac:	9006      	str	r0, [sp, #24]
    1cae:	9107      	str	r1, [sp, #28]
    1cb0:	9808      	ldr	r0, [sp, #32]
    1cb2:	9909      	ldr	r1, [sp, #36]	; 0x24
    1cb4:	47a8      	blx	r5
    1cb6:	9a0e      	ldr	r2, [sp, #56]	; 0x38
    1cb8:	9b0f      	ldr	r3, [sp, #60]	; 0x3c
    1cba:	47b0      	blx	r6
    1cbc:	9a06      	ldr	r2, [sp, #24]
    1cbe:	9b07      	ldr	r3, [sp, #28]
    1cc0:	4e92      	ldr	r6, [pc, #584]	; (1f0c <computeKalmanGains+0x720>)
    1cc2:	47b0      	blx	r6
    1cc4:	9034      	str	r0, [sp, #208]	; 0xd0
    1cc6:	9135      	str	r1, [sp, #212]	; 0xd4
    1cc8:	9a34      	ldr	r2, [sp, #208]	; 0xd0
    1cca:	9b35      	ldr	r3, [sp, #212]	; 0xd4
    1ccc:	4990      	ldr	r1, [pc, #576]	; (1f10 <computeKalmanGains+0x724>)
    1cce:	600a      	str	r2, [r1, #0]
    1cd0:	604b      	str	r3, [r1, #4]
    1cd2:	9808      	ldr	r0, [sp, #32]
    1cd4:	9909      	ldr	r1, [sp, #36]	; 0x24
    1cd6:	2280      	movs	r2, #128	; 0x80
    1cd8:	0612      	lsls	r2, r2, #24
    1cda:	4694      	mov	ip, r2
    1cdc:	9b12      	ldr	r3, [sp, #72]	; 0x48
    1cde:	9a04      	ldr	r2, [sp, #16]
    1ce0:	4463      	add	r3, ip
    1ce2:	932e      	str	r3, [sp, #184]	; 0xb8
    1ce4:	9b2e      	ldr	r3, [sp, #184]	; 0xb8
    1ce6:	47a8      	blx	r5
    1ce8:	9a0a      	ldr	r2, [sp, #40]	; 0x28
    1cea:	9b0b      	ldr	r3, [sp, #44]	; 0x2c
    1cec:	0006      	movs	r6, r0
    1cee:	000f      	movs	r7, r1
    1cf0:	9804      	ldr	r0, [sp, #16]
    1cf2:	9916      	ldr	r1, [sp, #88]	; 0x58
    1cf4:	47a8      	blx	r5
    1cf6:	0002      	movs	r2, r0
    1cf8:	000b      	movs	r3, r1
    1cfa:	0030      	movs	r0, r6
    1cfc:	0039      	movs	r1, r7
    1cfe:	47a0      	blx	r4
    1d00:	9a06      	ldr	r2, [sp, #24]
    1d02:	9b07      	ldr	r3, [sp, #28]
    1d04:	4e81      	ldr	r6, [pc, #516]	; (1f0c <computeKalmanGains+0x720>)
    1d06:	47b0      	blx	r6
    1d08:	900e      	str	r0, [sp, #56]	; 0x38
    1d0a:	910f      	str	r1, [sp, #60]	; 0x3c
    1d0c:	4980      	ldr	r1, [pc, #512]	; (1f10 <computeKalmanGains+0x724>)
    1d0e:	9a0e      	ldr	r2, [sp, #56]	; 0x38
    1d10:	9b0f      	ldr	r3, [sp, #60]	; 0x3c
    1d12:	608a      	str	r2, [r1, #8]
    1d14:	60cb      	str	r3, [r1, #12]
    1d16:	9a0c      	ldr	r2, [sp, #48]	; 0x30
    1d18:	9b0d      	ldr	r3, [sp, #52]	; 0x34
    1d1a:	982a      	ldr	r0, [sp, #168]	; 0xa8
    1d1c:	992b      	ldr	r1, [sp, #172]	; 0xac
    1d1e:	47a8      	blx	r5
    1d20:	9a00      	ldr	r2, [sp, #0]
    1d22:	9b01      	ldr	r3, [sp, #4]
    1d24:	0006      	movs	r6, r0
    1d26:	000f      	movs	r7, r1
    1d28:	982c      	ldr	r0, [sp, #176]	; 0xb0
    1d2a:	992d      	ldr	r1, [sp, #180]	; 0xb4
    1d2c:	47a8      	blx	r5
    1d2e:	0002      	movs	r2, r0
    1d30:	000b      	movs	r3, r1
    1d32:	0030      	movs	r0, r6
    1d34:	0039      	movs	r1, r7
    1d36:	4e74      	ldr	r6, [pc, #464]	; (1f08 <computeKalmanGains+0x71c>)
    1d38:	47b0      	blx	r6
    1d3a:	9a06      	ldr	r2, [sp, #24]
    1d3c:	9b07      	ldr	r3, [sp, #28]
    1d3e:	4e73      	ldr	r6, [pc, #460]	; (1f0c <computeKalmanGains+0x720>)
    1d40:	47b0      	blx	r6
    1d42:	0002      	movs	r2, r0
    1d44:	000b      	movs	r3, r1
    1d46:	9139      	str	r1, [sp, #228]	; 0xe4
    1d48:	4971      	ldr	r1, [pc, #452]	; (1f10 <computeKalmanGains+0x724>)
    1d4a:	9018      	str	r0, [sp, #96]	; 0x60
    1d4c:	610a      	str	r2, [r1, #16]
    1d4e:	614b      	str	r3, [r1, #20]
    1d50:	982a      	ldr	r0, [sp, #168]	; 0xa8
    1d52:	992b      	ldr	r1, [sp, #172]	; 0xac
    1d54:	9a04      	ldr	r2, [sp, #16]
    1d56:	9b2e      	ldr	r3, [sp, #184]	; 0xb8
    1d58:	47a8      	blx	r5
    1d5a:	9a0a      	ldr	r2, [sp, #40]	; 0x28
    1d5c:	9b0b      	ldr	r3, [sp, #44]	; 0x2c
    1d5e:	0006      	movs	r6, r0
    1d60:	000f      	movs	r7, r1
    1d62:	982c      	ldr	r0, [sp, #176]	; 0xb0
    1d64:	992d      	ldr	r1, [sp, #180]	; 0xb4
    1d66:	47a8      	blx	r5
    1d68:	0002      	movs	r2, r0
    1d6a:	000b      	movs	r3, r1
    1d6c:	0030      	movs	r0, r6
    1d6e:	0039      	movs	r1, r7
    1d70:	47a0      	blx	r4
    1d72:	9a06      	ldr	r2, [sp, #24]
    1d74:	9b07      	ldr	r3, [sp, #28]
    1d76:	4e65      	ldr	r6, [pc, #404]	; (1f0c <computeKalmanGains+0x720>)
    1d78:	47b0      	blx	r6
    1d7a:	9012      	str	r0, [sp, #72]	; 0x48
    1d7c:	9113      	str	r1, [sp, #76]	; 0x4c
    1d7e:	9a12      	ldr	r2, [sp, #72]	; 0x48
    1d80:	9b13      	ldr	r3, [sp, #76]	; 0x4c
    1d82:	4963      	ldr	r1, [pc, #396]	; (1f10 <computeKalmanGains+0x724>)
    1d84:	618a      	str	r2, [r1, #24]
    1d86:	61cb      	str	r3, [r1, #28]
    1d88:	9a0c      	ldr	r2, [sp, #48]	; 0x30
    1d8a:	9b0d      	ldr	r3, [sp, #52]	; 0x34
    1d8c:	9800      	ldr	r0, [sp, #0]
    1d8e:	9901      	ldr	r1, [sp, #4]
    1d90:	47a8      	blx	r5
    1d92:	9a02      	ldr	r2, [sp, #8]
    1d94:	9b03      	ldr	r3, [sp, #12]
    1d96:	0006      	movs	r6, r0
    1d98:	000f      	movs	r7, r1
    1d9a:	9800      	ldr	r0, [sp, #0]
    1d9c:	9901      	ldr	r1, [sp, #4]
    1d9e:	47a8      	blx	r5
    1da0:	0002      	movs	r2, r0
    1da2:	000b      	movs	r3, r1
    1da4:	0030      	movs	r0, r6
    1da6:	0039      	movs	r1, r7
    1da8:	4e57      	ldr	r6, [pc, #348]	; (1f08 <computeKalmanGains+0x71c>)
    1daa:	47b0      	blx	r6
    1dac:	9a06      	ldr	r2, [sp, #24]
    1dae:	9b07      	ldr	r3, [sp, #28]
    1db0:	4e56      	ldr	r6, [pc, #344]	; (1f0c <computeKalmanGains+0x720>)
    1db2:	47b0      	blx	r6
    1db4:	9014      	str	r0, [sp, #80]	; 0x50
    1db6:	9115      	str	r1, [sp, #84]	; 0x54
    1db8:	9a14      	ldr	r2, [sp, #80]	; 0x50
    1dba:	9b15      	ldr	r3, [sp, #84]	; 0x54
    1dbc:	4954      	ldr	r1, [pc, #336]	; (1f10 <computeKalmanGains+0x724>)
    1dbe:	620a      	str	r2, [r1, #32]
    1dc0:	624b      	str	r3, [r1, #36]	; 0x24
    1dc2:	9800      	ldr	r0, [sp, #0]
    1dc4:	9901      	ldr	r1, [sp, #4]
    1dc6:	9a04      	ldr	r2, [sp, #16]
    1dc8:	9b2e      	ldr	r3, [sp, #184]	; 0xb8
    1dca:	47a8      	blx	r5
    1dcc:	9a0a      	ldr	r2, [sp, #40]	; 0x28
    1dce:	9b0b      	ldr	r3, [sp, #44]	; 0x2c
    1dd0:	0006      	movs	r6, r0
    1dd2:	000f      	movs	r7, r1
    1dd4:	9802      	ldr	r0, [sp, #8]
    1dd6:	9903      	ldr	r1, [sp, #12]
    1dd8:	47a8      	blx	r5
    1dda:	0002      	movs	r2, r0
    1ddc:	000b      	movs	r3, r1
    1dde:	0030      	movs	r0, r6
    1de0:	0039      	movs	r1, r7
    1de2:	47a0      	blx	r4
    1de4:	9a06      	ldr	r2, [sp, #24]
    1de6:	9b07      	ldr	r3, [sp, #28]
    1de8:	4e48      	ldr	r6, [pc, #288]	; (1f0c <computeKalmanGains+0x720>)
    1dea:	47b0      	blx	r6
    1dec:	9036      	str	r0, [sp, #216]	; 0xd8
    1dee:	9137      	str	r1, [sp, #220]	; 0xdc
    1df0:	9a36      	ldr	r2, [sp, #216]	; 0xd8
    1df2:	9b37      	ldr	r3, [sp, #220]	; 0xdc
    1df4:	4946      	ldr	r1, [pc, #280]	; (1f10 <computeKalmanGains+0x724>)
    1df6:	4e44      	ldr	r6, [pc, #272]	; (1f08 <computeKalmanGains+0x71c>)
    1df8:	628a      	str	r2, [r1, #40]	; 0x28
    1dfa:	62cb      	str	r3, [r1, #44]	; 0x2c
    1dfc:	9a34      	ldr	r2, [sp, #208]	; 0xd0
    1dfe:	9b35      	ldr	r3, [sp, #212]	; 0xd4
    1e00:	2000      	movs	r0, #0
    1e02:	4944      	ldr	r1, [pc, #272]	; (1f14 <computeKalmanGains+0x728>)
    1e04:	47b0      	blx	r6
    1e06:	0002      	movs	r2, r0
    1e08:	000b      	movs	r3, r1
    1e0a:	900c      	str	r0, [sp, #48]	; 0x30
    1e0c:	910d      	str	r1, [sp, #52]	; 0x34
    1e0e:	9808      	ldr	r0, [sp, #32]
    1e10:	9909      	ldr	r1, [sp, #36]	; 0x24
    1e12:	47a8      	blx	r5
    1e14:	9a0e      	ldr	r2, [sp, #56]	; 0x38
    1e16:	9b0f      	ldr	r3, [sp, #60]	; 0x3c
    1e18:	0006      	movs	r6, r0
    1e1a:	000f      	movs	r7, r1
    1e1c:	9800      	ldr	r0, [sp, #0]
    1e1e:	9901      	ldr	r1, [sp, #4]
    1e20:	47a8      	blx	r5
    1e22:	0002      	movs	r2, r0
    1e24:	000b      	movs	r3, r1
    1e26:	0030      	movs	r0, r6
    1e28:	0039      	movs	r1, r7
    1e2a:	4e37      	ldr	r6, [pc, #220]	; (1f08 <computeKalmanGains+0x71c>)
    1e2c:	47b0      	blx	r6
    1e2e:	9a0c      	ldr	r2, [sp, #48]	; 0x30
    1e30:	9b0d      	ldr	r3, [sp, #52]	; 0x34
    1e32:	9006      	str	r0, [sp, #24]
    1e34:	9107      	str	r1, [sp, #28]
    1e36:	9830      	ldr	r0, [sp, #192]	; 0xc0
    1e38:	9931      	ldr	r1, [sp, #196]	; 0xc4
    1e3a:	47a8      	blx	r5
    1e3c:	9a0e      	ldr	r2, [sp, #56]	; 0x38
    1e3e:	9b0f      	ldr	r3, [sp, #60]	; 0x3c
    1e40:	0006      	movs	r6, r0
    1e42:	000f      	movs	r7, r1
    1e44:	9810      	ldr	r0, [sp, #64]	; 0x40
    1e46:	9911      	ldr	r1, [sp, #68]	; 0x44
    1e48:	47a8      	blx	r5
    1e4a:	0002      	movs	r2, r0
    1e4c:	000b      	movs	r3, r1
    1e4e:	0030      	movs	r0, r6
    1e50:	0039      	movs	r1, r7
    1e52:	4e2d      	ldr	r6, [pc, #180]	; (1f08 <computeKalmanGains+0x71c>)
    1e54:	47b0      	blx	r6
    1e56:	9a0c      	ldr	r2, [sp, #48]	; 0x30
    1e58:	9b0d      	ldr	r3, [sp, #52]	; 0x34
    1e5a:	900a      	str	r0, [sp, #40]	; 0x28
    1e5c:	910b      	str	r1, [sp, #44]	; 0x2c
    1e5e:	9804      	ldr	r0, [sp, #16]
    1e60:	9916      	ldr	r1, [sp, #88]	; 0x58
    1e62:	47a8      	blx	r5
    1e64:	9a0e      	ldr	r2, [sp, #56]	; 0x38
    1e66:	9b0f      	ldr	r3, [sp, #60]	; 0x3c
    1e68:	0006      	movs	r6, r0
    1e6a:	000f      	movs	r7, r1
    1e6c:	9802      	ldr	r0, [sp, #8]
    1e6e:	9903      	ldr	r1, [sp, #12]
    1e70:	47a8      	blx	r5
    1e72:	0002      	movs	r2, r0
    1e74:	000b      	movs	r3, r1
    1e76:	0030      	movs	r0, r6
    1e78:	0039      	movs	r1, r7
    1e7a:	4e23      	ldr	r6, [pc, #140]	; (1f08 <computeKalmanGains+0x71c>)
    1e7c:	47b0      	blx	r6
    1e7e:	2280      	movs	r2, #128	; 0x80
    1e80:	0612      	lsls	r2, r2, #24
    1e82:	4694      	mov	ip, r2
    1e84:	9b39      	ldr	r3, [sp, #228]	; 0xe4
    1e86:	9a18      	ldr	r2, [sp, #96]	; 0x60
    1e88:	4463      	add	r3, ip
    1e8a:	932e      	str	r3, [sp, #184]	; 0xb8
    1e8c:	9b2e      	ldr	r3, [sp, #184]	; 0xb8
    1e8e:	900c      	str	r0, [sp, #48]	; 0x30
    1e90:	910d      	str	r1, [sp, #52]	; 0x34
    1e92:	9808      	ldr	r0, [sp, #32]
    1e94:	9909      	ldr	r1, [sp, #36]	; 0x24
    1e96:	47a8      	blx	r5
    1e98:	9a2a      	ldr	r2, [sp, #168]	; 0xa8
    1e9a:	9b2b      	ldr	r3, [sp, #172]	; 0xac
    1e9c:	47a0      	blx	r4
    1e9e:	9a12      	ldr	r2, [sp, #72]	; 0x48
    1ea0:	9b13      	ldr	r3, [sp, #76]	; 0x4c
    1ea2:	0006      	movs	r6, r0
    1ea4:	000f      	movs	r7, r1
    1ea6:	9800      	ldr	r0, [sp, #0]
    1ea8:	9901      	ldr	r1, [sp, #4]
    1eaa:	47a8      	blx	r5
    1eac:	0002      	movs	r2, r0
    1eae:	000b      	movs	r3, r1
    1eb0:	0030      	movs	r0, r6
    1eb2:	0039      	movs	r1, r7
    1eb4:	4e14      	ldr	r6, [pc, #80]	; (1f08 <computeKalmanGains+0x71c>)
    1eb6:	47b0      	blx	r6
    1eb8:	9a32      	ldr	r2, [sp, #200]	; 0xc8
    1eba:	9b33      	ldr	r3, [sp, #204]	; 0xcc
    1ebc:	9008      	str	r0, [sp, #32]
    1ebe:	9109      	str	r1, [sp, #36]	; 0x24
    1ec0:	9826      	ldr	r0, [sp, #152]	; 0x98
    1ec2:	9927      	ldr	r1, [sp, #156]	; 0x9c
    1ec4:	47a0      	blx	r4
    1ec6:	4a0c      	ldr	r2, [pc, #48]	; (1ef8 <computeKalmanGains+0x70c>)
    1ec8:	0006      	movs	r6, r0
    1eca:	000f      	movs	r7, r1
    1ecc:	9828      	ldr	r0, [sp, #160]	; 0xa0
    1ece:	9929      	ldr	r1, [sp, #164]	; 0xa4
    1ed0:	4b0a      	ldr	r3, [pc, #40]	; (1efc <computeKalmanGains+0x710>)
    1ed2:	47a8      	blx	r5
    1ed4:	0002      	movs	r2, r0
    1ed6:	000b      	movs	r3, r1
    1ed8:	0030      	movs	r0, r6
    1eda:	0039      	movs	r1, r7
    1edc:	47a0      	blx	r4
    1ede:	9a18      	ldr	r2, [sp, #96]	; 0x60
    1ee0:	0006      	movs	r6, r0
    1ee2:	000f      	movs	r7, r1
    1ee4:	9830      	ldr	r0, [sp, #192]	; 0xc0
    1ee6:	9931      	ldr	r1, [sp, #196]	; 0xc4
    1ee8:	9b2e      	ldr	r3, [sp, #184]	; 0xb8
    1eea:	47a8      	blx	r5
    1eec:	0002      	movs	r2, r0
    1eee:	000b      	movs	r3, r1
    1ef0:	0030      	movs	r0, r6
    1ef2:	0039      	movs	r1, r7
    1ef4:	47a0      	blx	r4
    1ef6:	e00f      	b.n	1f18 <computeKalmanGains+0x72c>
    1ef8:	47ae147b 	.word	0x47ae147b
    1efc:	3f747ae1 	.word	0x3f747ae1
    1f00:	eb1c432d 	.word	0xeb1c432d
    1f04:	3eea36e2 	.word	0x3eea36e2
    1f08:	000059f9 	.word	0x000059f9
    1f0c:	00004cbd 	.word	0x00004cbd
    1f10:	20000278 	.word	0x20000278
    1f14:	3ff00000 	.word	0x3ff00000
    1f18:	9a12      	ldr	r2, [sp, #72]	; 0x48
    1f1a:	9b13      	ldr	r3, [sp, #76]	; 0x4c
    1f1c:	0006      	movs	r6, r0
    1f1e:	000f      	movs	r7, r1
    1f20:	9810      	ldr	r0, [sp, #64]	; 0x40
    1f22:	9911      	ldr	r1, [sp, #68]	; 0x44
    1f24:	47a8      	blx	r5
    1f26:	0002      	movs	r2, r0
    1f28:	000b      	movs	r3, r1
    1f2a:	0030      	movs	r0, r6
    1f2c:	0039      	movs	r1, r7
    1f2e:	4e50      	ldr	r6, [pc, #320]	; (2070 <STACK_SIZE+0x70>)
    1f30:	47b0      	blx	r6
    1f32:	9a18      	ldr	r2, [sp, #96]	; 0x60
    1f34:	900e      	str	r0, [sp, #56]	; 0x38
    1f36:	910f      	str	r1, [sp, #60]	; 0x3c
    1f38:	9b2e      	ldr	r3, [sp, #184]	; 0xb8
    1f3a:	9804      	ldr	r0, [sp, #16]
    1f3c:	9916      	ldr	r1, [sp, #88]	; 0x58
    1f3e:	47a8      	blx	r5
    1f40:	9a2c      	ldr	r2, [sp, #176]	; 0xb0
    1f42:	9b2d      	ldr	r3, [sp, #180]	; 0xb4
    1f44:	47a0      	blx	r4
    1f46:	9a12      	ldr	r2, [sp, #72]	; 0x48
    1f48:	9b13      	ldr	r3, [sp, #76]	; 0x4c
    1f4a:	0006      	movs	r6, r0
    1f4c:	000f      	movs	r7, r1
    1f4e:	9802      	ldr	r0, [sp, #8]
    1f50:	9903      	ldr	r1, [sp, #12]
    1f52:	47a8      	blx	r5
    1f54:	4c46      	ldr	r4, [pc, #280]	; (2070 <STACK_SIZE+0x70>)
    1f56:	0002      	movs	r2, r0
    1f58:	000b      	movs	r3, r1
    1f5a:	0030      	movs	r0, r6
    1f5c:	0039      	movs	r1, r7
    1f5e:	47a0      	blx	r4
    1f60:	9a36      	ldr	r2, [sp, #216]	; 0xd8
    1f62:	9b37      	ldr	r3, [sp, #220]	; 0xdc
    1f64:	9004      	str	r0, [sp, #16]
    1f66:	9105      	str	r1, [sp, #20]
    1f68:	2000      	movs	r0, #0
    1f6a:	4942      	ldr	r1, [pc, #264]	; (2074 <STACK_SIZE+0x74>)
    1f6c:	47a0      	blx	r4
    1f6e:	0002      	movs	r2, r0
    1f70:	000b      	movs	r3, r1
    1f72:	9012      	str	r0, [sp, #72]	; 0x48
    1f74:	9113      	str	r1, [sp, #76]	; 0x4c
    1f76:	9800      	ldr	r0, [sp, #0]
    1f78:	9901      	ldr	r1, [sp, #4]
    1f7a:	47a8      	blx	r5
    1f7c:	9a14      	ldr	r2, [sp, #80]	; 0x50
    1f7e:	9b15      	ldr	r3, [sp, #84]	; 0x54
    1f80:	0006      	movs	r6, r0
    1f82:	000f      	movs	r7, r1
    1f84:	9800      	ldr	r0, [sp, #0]
    1f86:	9901      	ldr	r1, [sp, #4]
    1f88:	47a8      	blx	r5
    1f8a:	0002      	movs	r2, r0
    1f8c:	000b      	movs	r3, r1
    1f8e:	0030      	movs	r0, r6
    1f90:	0039      	movs	r1, r7
    1f92:	47a0      	blx	r4
    1f94:	9000      	str	r0, [sp, #0]
    1f96:	9101      	str	r1, [sp, #4]
    1f98:	9a12      	ldr	r2, [sp, #72]	; 0x48
    1f9a:	9b13      	ldr	r3, [sp, #76]	; 0x4c
    1f9c:	9810      	ldr	r0, [sp, #64]	; 0x40
    1f9e:	9911      	ldr	r1, [sp, #68]	; 0x44
    1fa0:	47a8      	blx	r5
    1fa2:	9a14      	ldr	r2, [sp, #80]	; 0x50
    1fa4:	9b15      	ldr	r3, [sp, #84]	; 0x54
    1fa6:	0006      	movs	r6, r0
    1fa8:	000f      	movs	r7, r1
    1faa:	9810      	ldr	r0, [sp, #64]	; 0x40
    1fac:	9911      	ldr	r1, [sp, #68]	; 0x44
    1fae:	47a8      	blx	r5
    1fb0:	0002      	movs	r2, r0
    1fb2:	000b      	movs	r3, r1
    1fb4:	0030      	movs	r0, r6
    1fb6:	0039      	movs	r1, r7
    1fb8:	47a0      	blx	r4
    1fba:	9a12      	ldr	r2, [sp, #72]	; 0x48
    1fbc:	9b13      	ldr	r3, [sp, #76]	; 0x4c
    1fbe:	9010      	str	r0, [sp, #64]	; 0x40
    1fc0:	9111      	str	r1, [sp, #68]	; 0x44
    1fc2:	9802      	ldr	r0, [sp, #8]
    1fc4:	9903      	ldr	r1, [sp, #12]
    1fc6:	47a8      	blx	r5
    1fc8:	9a14      	ldr	r2, [sp, #80]	; 0x50
    1fca:	9b15      	ldr	r3, [sp, #84]	; 0x54
    1fcc:	0006      	movs	r6, r0
    1fce:	000f      	movs	r7, r1
    1fd0:	9802      	ldr	r0, [sp, #8]
    1fd2:	9903      	ldr	r1, [sp, #12]
    1fd4:	47a8      	blx	r5
    1fd6:	000b      	movs	r3, r1
    1fd8:	0002      	movs	r2, r0
    1fda:	0039      	movs	r1, r7
    1fdc:	0030      	movs	r0, r6
    1fde:	47a0      	blx	r4
    1fe0:	2400      	movs	r4, #0
    1fe2:	9b38      	ldr	r3, [sp, #224]	; 0xe0
    1fe4:	9002      	str	r0, [sp, #8]
    1fe6:	9103      	str	r1, [sp, #12]
    1fe8:	3301      	adds	r3, #1
    1fea:	9338      	str	r3, [sp, #224]	; 0xe0
    1fec:	4b22      	ldr	r3, [pc, #136]	; (2078 <STACK_SIZE+0x78>)
    1fee:	9414      	str	r4, [sp, #80]	; 0x50
    1ff0:	9326      	str	r3, [sp, #152]	; 0x98
    1ff2:	4b1f      	ldr	r3, [pc, #124]	; (2070 <STACK_SIZE+0x70>)
    1ff4:	9328      	str	r3, [sp, #160]	; 0xa0
    1ff6:	ab40      	add	r3, sp, #256	; 0x100
    1ff8:	18e5      	adds	r5, r4, r3
    1ffa:	2300      	movs	r3, #0
    1ffc:	9516      	str	r5, [sp, #88]	; 0x58
    1ffe:	9312      	str	r3, [sp, #72]	; 0x48
    2000:	9b12      	ldr	r3, [sp, #72]	; 0x48
    2002:	9a26      	ldr	r2, [sp, #152]	; 0x98
    2004:	18e3      	adds	r3, r4, r3
    2006:	189b      	adds	r3, r3, r2
    2008:	681a      	ldr	r2, [r3, #0]
    200a:	685b      	ldr	r3, [r3, #4]
    200c:	9218      	str	r2, [sp, #96]	; 0x60
    200e:	9319      	str	r3, [sp, #100]	; 0x64
    2010:	9818      	ldr	r0, [sp, #96]	; 0x60
    2012:	9919      	ldr	r1, [sp, #100]	; 0x64
    2014:	9b16      	ldr	r3, [sp, #88]	; 0x58
    2016:	9d28      	ldr	r5, [sp, #160]	; 0xa0
    2018:	681e      	ldr	r6, [r3, #0]
    201a:	685f      	ldr	r7, [r3, #4]
    201c:	0032      	movs	r2, r6
    201e:	003b      	movs	r3, r7
    2020:	47a8      	blx	r5
    2022:	0032      	movs	r2, r6
    2024:	003b      	movs	r3, r7
    2026:	4d15      	ldr	r5, [pc, #84]	; (207c <STACK_SIZE+0x7c>)
    2028:	47a8      	blx	r5
    202a:	4b15      	ldr	r3, [pc, #84]	; (2080 <STACK_SIZE+0x80>)
    202c:	4a15      	ldr	r2, [pc, #84]	; (2084 <STACK_SIZE+0x84>)
    202e:	4e16      	ldr	r6, [pc, #88]	; (2088 <STACK_SIZE+0x88>)
    2030:	47b0      	blx	r6
    2032:	1e43      	subs	r3, r0, #1
    2034:	4198      	sbcs	r0, r3
    2036:	9b14      	ldr	r3, [sp, #80]	; 0x50
    2038:	9916      	ldr	r1, [sp, #88]	; 0x58
    203a:	181b      	adds	r3, r3, r0
    203c:	9314      	str	r3, [sp, #80]	; 0x50
    203e:	9a18      	ldr	r2, [sp, #96]	; 0x60
    2040:	9b19      	ldr	r3, [sp, #100]	; 0x64
    2042:	c10c      	stmia	r1!, {r2, r3}
    2044:	9b12      	ldr	r3, [sp, #72]	; 0x48
    2046:	9116      	str	r1, [sp, #88]	; 0x58
    2048:	3308      	adds	r3, #8
    204a:	9312      	str	r3, [sp, #72]	; 0x48
    204c:	2b10      	cmp	r3, #16
    204e:	d1d7      	bne.n	2000 <STACK_SIZE>
    2050:	3410      	adds	r4, #16
    2052:	2c30      	cmp	r4, #48	; 0x30
    2054:	d1cf      	bne.n	1ff6 <computeKalmanGains+0x80a>
    2056:	9b14      	ldr	r3, [sp, #80]	; 0x50
    2058:	2b00      	cmp	r3, #0
    205a:	d001      	beq.n	2060 <STACK_SIZE+0x60>
    205c:	f7ff fc2c 	bl	18b8 <computeKalmanGains+0xcc>
    2060:	9b38      	ldr	r3, [sp, #224]	; 0xe0
    2062:	2b63      	cmp	r3, #99	; 0x63
    2064:	dc01      	bgt.n	206a <STACK_SIZE+0x6a>
    2066:	f7ff fc27 	bl	18b8 <computeKalmanGains+0xcc>
    206a:	b04d      	add	sp, #308	; 0x134
    206c:	bdf0      	pop	{r4, r5, r6, r7, pc}
    206e:	46c0      	nop			; (mov r8, r8)
    2070:	000059f9 	.word	0x000059f9
    2074:	3ff00000 	.word	0x3ff00000
    2078:	20000278 	.word	0x20000278
    207c:	00004cbd 	.word	0x00004cbd
    2080:	3ee4f8b5 	.word	0x3ee4f8b5
    2084:	88e368f1 	.word	0x88e368f1
    2088:	0000433d 	.word	0x0000433d

0000208c <KalmanBothUpdate>:
    208c:	b5f0      	push	{r4, r5, r6, r7, lr}
    208e:	b08f      	sub	sp, #60	; 0x3c
    2090:	9208      	str	r2, [sp, #32]
    2092:	9309      	str	r3, [sp, #36]	; 0x24
    2094:	4b68      	ldr	r3, [pc, #416]	; (2238 <KalmanBothUpdate+0x1ac>)
    2096:	4d69      	ldr	r5, [pc, #420]	; (223c <KalmanBothUpdate+0x1b0>)
    2098:	685c      	ldr	r4, [r3, #4]
    209a:	681b      	ldr	r3, [r3, #0]
    209c:	9300      	str	r3, [sp, #0]
    209e:	9401      	str	r4, [sp, #4]
    20a0:	4b67      	ldr	r3, [pc, #412]	; (2240 <KalmanBothUpdate+0x1b4>)
    20a2:	9006      	str	r0, [sp, #24]
    20a4:	9107      	str	r1, [sp, #28]
    20a6:	685c      	ldr	r4, [r3, #4]
    20a8:	681b      	ldr	r3, [r3, #0]
    20aa:	9800      	ldr	r0, [sp, #0]
    20ac:	9901      	ldr	r1, [sp, #4]
    20ae:	9302      	str	r3, [sp, #8]
    20b0:	9403      	str	r4, [sp, #12]
    20b2:	4b64      	ldr	r3, [pc, #400]	; (2244 <KalmanBothUpdate+0x1b8>)
    20b4:	685c      	ldr	r4, [r3, #4]
    20b6:	681b      	ldr	r3, [r3, #0]
    20b8:	9304      	str	r3, [sp, #16]
    20ba:	9405      	str	r4, [sp, #20]
    20bc:	4c62      	ldr	r4, [pc, #392]	; (2248 <KalmanBothUpdate+0x1bc>)
    20be:	6822      	ldr	r2, [r4, #0]
    20c0:	6863      	ldr	r3, [r4, #4]
    20c2:	47a8      	blx	r5
    20c4:	68a2      	ldr	r2, [r4, #8]
    20c6:	68e3      	ldr	r3, [r4, #12]
    20c8:	0006      	movs	r6, r0
    20ca:	000f      	movs	r7, r1
    20cc:	9802      	ldr	r0, [sp, #8]
    20ce:	9903      	ldr	r1, [sp, #12]
    20d0:	47a8      	blx	r5
    20d2:	0002      	movs	r2, r0
    20d4:	000b      	movs	r3, r1
    20d6:	0030      	movs	r0, r6
    20d8:	0039      	movs	r1, r7
    20da:	4e5c      	ldr	r6, [pc, #368]	; (224c <KalmanBothUpdate+0x1c0>)
    20dc:	47b0      	blx	r6
    20de:	6922      	ldr	r2, [r4, #16]
    20e0:	6963      	ldr	r3, [r4, #20]
    20e2:	0006      	movs	r6, r0
    20e4:	000f      	movs	r7, r1
    20e6:	9804      	ldr	r0, [sp, #16]
    20e8:	9905      	ldr	r1, [sp, #20]
    20ea:	47a8      	blx	r5
    20ec:	0002      	movs	r2, r0
    20ee:	000b      	movs	r3, r1
    20f0:	0030      	movs	r0, r6
    20f2:	0039      	movs	r1, r7
    20f4:	4e55      	ldr	r6, [pc, #340]	; (224c <KalmanBothUpdate+0x1c0>)
    20f6:	47b0      	blx	r6
    20f8:	900a      	str	r0, [sp, #40]	; 0x28
    20fa:	910b      	str	r1, [sp, #44]	; 0x2c
    20fc:	9a0a      	ldr	r2, [sp, #40]	; 0x28
    20fe:	9b0b      	ldr	r3, [sp, #44]	; 0x2c
    2100:	4953      	ldr	r1, [pc, #332]	; (2250 <KalmanBothUpdate+0x1c4>)
    2102:	600a      	str	r2, [r1, #0]
    2104:	604b      	str	r3, [r1, #4]
    2106:	69a2      	ldr	r2, [r4, #24]
    2108:	69e3      	ldr	r3, [r4, #28]
    210a:	9800      	ldr	r0, [sp, #0]
    210c:	9901      	ldr	r1, [sp, #4]
    210e:	47a8      	blx	r5
    2110:	6a22      	ldr	r2, [r4, #32]
    2112:	6a63      	ldr	r3, [r4, #36]	; 0x24
    2114:	0006      	movs	r6, r0
    2116:	000f      	movs	r7, r1
    2118:	9802      	ldr	r0, [sp, #8]
    211a:	9903      	ldr	r1, [sp, #12]
    211c:	47a8      	blx	r5
    211e:	0002      	movs	r2, r0
    2120:	000b      	movs	r3, r1
    2122:	0030      	movs	r0, r6
    2124:	0039      	movs	r1, r7
    2126:	4e49      	ldr	r6, [pc, #292]	; (224c <KalmanBothUpdate+0x1c0>)
    2128:	47b0      	blx	r6
    212a:	6aa2      	ldr	r2, [r4, #40]	; 0x28
    212c:	6ae3      	ldr	r3, [r4, #44]	; 0x2c
    212e:	0006      	movs	r6, r0
    2130:	000f      	movs	r7, r1
    2132:	9804      	ldr	r0, [sp, #16]
    2134:	9905      	ldr	r1, [sp, #20]
    2136:	47a8      	blx	r5
    2138:	0002      	movs	r2, r0
    213a:	000b      	movs	r3, r1
    213c:	0030      	movs	r0, r6
    213e:	0039      	movs	r1, r7
    2140:	4e42      	ldr	r6, [pc, #264]	; (224c <KalmanBothUpdate+0x1c0>)
    2142:	47b0      	blx	r6
    2144:	900c      	str	r0, [sp, #48]	; 0x30
    2146:	910d      	str	r1, [sp, #52]	; 0x34
    2148:	9a0c      	ldr	r2, [sp, #48]	; 0x30
    214a:	9b0d      	ldr	r3, [sp, #52]	; 0x34
    214c:	4940      	ldr	r1, [pc, #256]	; (2250 <KalmanBothUpdate+0x1c4>)
    214e:	608a      	str	r2, [r1, #8]
    2150:	60cb      	str	r3, [r1, #12]
    2152:	6b22      	ldr	r2, [r4, #48]	; 0x30
    2154:	6b63      	ldr	r3, [r4, #52]	; 0x34
    2156:	9800      	ldr	r0, [sp, #0]
    2158:	9901      	ldr	r1, [sp, #4]
    215a:	47a8      	blx	r5
    215c:	6ba2      	ldr	r2, [r4, #56]	; 0x38
    215e:	6be3      	ldr	r3, [r4, #60]	; 0x3c
    2160:	0006      	movs	r6, r0
    2162:	000f      	movs	r7, r1
    2164:	9802      	ldr	r0, [sp, #8]
    2166:	9903      	ldr	r1, [sp, #12]
    2168:	47a8      	blx	r5
    216a:	0002      	movs	r2, r0
    216c:	000b      	movs	r3, r1
    216e:	0030      	movs	r0, r6
    2170:	0039      	movs	r1, r7
    2172:	4e36      	ldr	r6, [pc, #216]	; (224c <KalmanBothUpdate+0x1c0>)
    2174:	47b0      	blx	r6
    2176:	6c22      	ldr	r2, [r4, #64]	; 0x40
    2178:	6c63      	ldr	r3, [r4, #68]	; 0x44
    217a:	0006      	movs	r6, r0
    217c:	000f      	movs	r7, r1
    217e:	9804      	ldr	r0, [sp, #16]
    2180:	9905      	ldr	r1, [sp, #20]
    2182:	47a8      	blx	r5
    2184:	4c31      	ldr	r4, [pc, #196]	; (224c <KalmanBothUpdate+0x1c0>)
    2186:	0002      	movs	r2, r0
    2188:	000b      	movs	r3, r1
    218a:	0030      	movs	r0, r6
    218c:	0039      	movs	r1, r7
    218e:	47a0      	blx	r4
    2190:	0003      	movs	r3, r0
    2192:	000c      	movs	r4, r1
    2194:	4a2e      	ldr	r2, [pc, #184]	; (2250 <KalmanBothUpdate+0x1c4>)
    2196:	9000      	str	r0, [sp, #0]
    2198:	9101      	str	r1, [sp, #4]
    219a:	9806      	ldr	r0, [sp, #24]
    219c:	9907      	ldr	r1, [sp, #28]
    219e:	6113      	str	r3, [r2, #16]
    21a0:	6154      	str	r4, [r2, #20]
    21a2:	4c2c      	ldr	r4, [pc, #176]	; (2254 <KalmanBothUpdate+0x1c8>)
    21a4:	6822      	ldr	r2, [r4, #0]
    21a6:	6863      	ldr	r3, [r4, #4]
    21a8:	47a8      	blx	r5
    21aa:	9a0a      	ldr	r2, [sp, #40]	; 0x28
    21ac:	9b0b      	ldr	r3, [sp, #44]	; 0x2c
    21ae:	4e27      	ldr	r6, [pc, #156]	; (224c <KalmanBothUpdate+0x1c0>)
    21b0:	47b0      	blx	r6
    21b2:	68a2      	ldr	r2, [r4, #8]
    21b4:	68e3      	ldr	r3, [r4, #12]
    21b6:	0006      	movs	r6, r0
    21b8:	000f      	movs	r7, r1
    21ba:	9808      	ldr	r0, [sp, #32]
    21bc:	9909      	ldr	r1, [sp, #36]	; 0x24
    21be:	47a8      	blx	r5
    21c0:	0002      	movs	r2, r0
    21c2:	000b      	movs	r3, r1
    21c4:	0030      	movs	r0, r6
    21c6:	0039      	movs	r1, r7
    21c8:	4e20      	ldr	r6, [pc, #128]	; (224c <KalmanBothUpdate+0x1c0>)
    21ca:	47b0      	blx	r6
    21cc:	4b1a      	ldr	r3, [pc, #104]	; (2238 <KalmanBothUpdate+0x1ac>)
    21ce:	6018      	str	r0, [r3, #0]
    21d0:	6059      	str	r1, [r3, #4]
    21d2:	6922      	ldr	r2, [r4, #16]
    21d4:	6963      	ldr	r3, [r4, #20]
    21d6:	9806      	ldr	r0, [sp, #24]
    21d8:	9907      	ldr	r1, [sp, #28]
    21da:	47a8      	blx	r5
    21dc:	9a0c      	ldr	r2, [sp, #48]	; 0x30
    21de:	9b0d      	ldr	r3, [sp, #52]	; 0x34
    21e0:	47b0      	blx	r6
    21e2:	69a2      	ldr	r2, [r4, #24]
    21e4:	69e3      	ldr	r3, [r4, #28]
    21e6:	0006      	movs	r6, r0
    21e8:	000f      	movs	r7, r1
    21ea:	9808      	ldr	r0, [sp, #32]
    21ec:	9909      	ldr	r1, [sp, #36]	; 0x24
    21ee:	47a8      	blx	r5
    21f0:	0002      	movs	r2, r0
    21f2:	000b      	movs	r3, r1
    21f4:	0030      	movs	r0, r6
    21f6:	0039      	movs	r1, r7
    21f8:	4e14      	ldr	r6, [pc, #80]	; (224c <KalmanBothUpdate+0x1c0>)
    21fa:	47b0      	blx	r6
    21fc:	4b10      	ldr	r3, [pc, #64]	; (2240 <KalmanBothUpdate+0x1b4>)
    21fe:	6018      	str	r0, [r3, #0]
    2200:	6059      	str	r1, [r3, #4]
    2202:	6a22      	ldr	r2, [r4, #32]
    2204:	6a63      	ldr	r3, [r4, #36]	; 0x24
    2206:	9806      	ldr	r0, [sp, #24]
    2208:	9907      	ldr	r1, [sp, #28]
    220a:	47a8      	blx	r5
    220c:	9a00      	ldr	r2, [sp, #0]
    220e:	9b01      	ldr	r3, [sp, #4]
    2210:	47b0      	blx	r6
    2212:	6aa2      	ldr	r2, [r4, #40]	; 0x28
    2214:	6ae3      	ldr	r3, [r4, #44]	; 0x2c
    2216:	0006      	movs	r6, r0
    2218:	000f      	movs	r7, r1
    221a:	9808      	ldr	r0, [sp, #32]
    221c:	9909      	ldr	r1, [sp, #36]	; 0x24
    221e:	47a8      	blx	r5
    2220:	4c0a      	ldr	r4, [pc, #40]	; (224c <KalmanBothUpdate+0x1c0>)
    2222:	0002      	movs	r2, r0
    2224:	000b      	movs	r3, r1
    2226:	0030      	movs	r0, r6
    2228:	0039      	movs	r1, r7
    222a:	47a0      	blx	r4
    222c:	4b05      	ldr	r3, [pc, #20]	; (2244 <KalmanBothUpdate+0x1b8>)
    222e:	6018      	str	r0, [r3, #0]
    2230:	6059      	str	r1, [r3, #4]
    2232:	b00f      	add	sp, #60	; 0x3c
    2234:	bdf0      	pop	{r4, r5, r6, r7, pc}
    2236:	46c0      	nop			; (mov r8, r8)
    2238:	200002e0 	.word	0x200002e0
    223c:	00005505 	.word	0x00005505
    2240:	200002d8 	.word	0x200002d8
    2244:	200002d0 	.word	0x200002d0
    2248:	20000010 	.word	0x20000010
    224c:	00004665 	.word	0x00004665
    2250:	200002e8 	.word	0x200002e8
    2254:	20000278 	.word	0x20000278

00002258 <computeKalmanStates>:
    2258:	b5f7      	push	{r0, r1, r2, r4, r5, r6, r7, lr}
    225a:	4d19      	ldr	r5, [pc, #100]	; (22c0 <computeKalmanStates+0x68>)
    225c:	4b19      	ldr	r3, [pc, #100]	; (22c4 <computeKalmanStates+0x6c>)
    225e:	6a68      	ldr	r0, [r5, #36]	; 0x24
    2260:	4798      	blx	r3
    2262:	4b19      	ldr	r3, [pc, #100]	; (22c8 <computeKalmanStates+0x70>)
    2264:	4c19      	ldr	r4, [pc, #100]	; (22cc <computeKalmanStates+0x74>)
    2266:	689a      	ldr	r2, [r3, #8]
    2268:	68db      	ldr	r3, [r3, #12]
    226a:	47a0      	blx	r4
    226c:	4a18      	ldr	r2, [pc, #96]	; (22d0 <computeKalmanStates+0x78>)
    226e:	4b19      	ldr	r3, [pc, #100]	; (22d4 <computeKalmanStates+0x7c>)
    2270:	4e19      	ldr	r6, [pc, #100]	; (22d8 <computeKalmanStates+0x80>)
    2272:	47b0      	blx	r6
    2274:	6daa      	ldr	r2, [r5, #88]	; 0x58
    2276:	6deb      	ldr	r3, [r5, #92]	; 0x5c
    2278:	4d18      	ldr	r5, [pc, #96]	; (22dc <computeKalmanStates+0x84>)
    227a:	9200      	str	r2, [sp, #0]
    227c:	9301      	str	r3, [sp, #4]
    227e:	4c18      	ldr	r4, [pc, #96]	; (22e0 <computeKalmanStates+0x88>)
    2280:	0006      	movs	r6, r0
    2282:	000f      	movs	r7, r1
    2284:	6828      	ldr	r0, [r5, #0]
    2286:	6869      	ldr	r1, [r5, #4]
    2288:	2200      	movs	r2, #0
    228a:	2300      	movs	r3, #0
    228c:	47a0      	blx	r4
    228e:	4c0f      	ldr	r4, [pc, #60]	; (22cc <computeKalmanStates+0x74>)
    2290:	2800      	cmp	r0, #0
    2292:	d003      	beq.n	229c <computeKalmanStates+0x44>
    2294:	9a00      	ldr	r2, [sp, #0]
    2296:	9b01      	ldr	r3, [sp, #4]
    2298:	602a      	str	r2, [r5, #0]
    229a:	606b      	str	r3, [r5, #4]
    229c:	4d11      	ldr	r5, [pc, #68]	; (22e4 <computeKalmanStates+0x8c>)
    229e:	0030      	movs	r0, r6
    22a0:	692a      	ldr	r2, [r5, #16]
    22a2:	696b      	ldr	r3, [r5, #20]
    22a4:	0039      	movs	r1, r7
    22a6:	47a0      	blx	r4
    22a8:	682a      	ldr	r2, [r5, #0]
    22aa:	686b      	ldr	r3, [r5, #4]
    22ac:	0006      	movs	r6, r0
    22ae:	000f      	movs	r7, r1
    22b0:	9800      	ldr	r0, [sp, #0]
    22b2:	9901      	ldr	r1, [sp, #4]
    22b4:	47a0      	blx	r4
    22b6:	0032      	movs	r2, r6
    22b8:	003b      	movs	r3, r7
    22ba:	4c0b      	ldr	r4, [pc, #44]	; (22e8 <computeKalmanStates+0x90>)
    22bc:	47a0      	blx	r4
    22be:	bdf7      	pop	{r0, r1, r2, r4, r5, r6, r7, pc}
    22c0:	20000578 	.word	0x20000578
    22c4:	00006241 	.word	0x00006241
    22c8:	20000108 	.word	0x20000108
    22cc:	000059f9 	.word	0x000059f9
    22d0:	33daf8df 	.word	0x33daf8df
    22d4:	4040164b 	.word	0x4040164b
    22d8:	00005505 	.word	0x00005505
    22dc:	200002e0 	.word	0x200002e0
    22e0:	00004309 	.word	0x00004309
    22e4:	200002e8 	.word	0x200002e8
    22e8:	0000208d 	.word	0x0000208d

000022ec <makePage>:
    22ec:	b5f0      	push	{r4, r5, r6, r7, lr}
    22ee:	4a1f      	ldr	r2, [pc, #124]	; (236c <makePage+0x80>)
    22f0:	7815      	ldrb	r5, [r2, #0]
    22f2:	1943      	adds	r3, r0, r5
    22f4:	2bff      	cmp	r3, #255	; 0xff
    22f6:	dc03      	bgt.n	2300 <makePage+0x14>
    22f8:	2300      	movs	r3, #0
    22fa:	b280      	uxth	r0, r0
    22fc:	4c1c      	ldr	r4, [pc, #112]	; (2370 <makePage+0x84>)
    22fe:	e029      	b.n	2354 <makePage+0x68>
    2300:	2300      	movs	r3, #0
    2302:	4e1b      	ldr	r6, [pc, #108]	; (2370 <makePage+0x84>)
    2304:	195f      	adds	r7, r3, r5
    2306:	b2dc      	uxtb	r4, r3
    2308:	46b4      	mov	ip, r6
    230a:	2fff      	cmp	r7, #255	; 0xff
    230c:	dc04      	bgt.n	2318 <makePage+0x2c>
    230e:	5ccc      	ldrb	r4, [r1, r3]
    2310:	3301      	adds	r3, #1
    2312:	55f4      	strb	r4, [r6, r7]
    2314:	b29b      	uxth	r3, r3
    2316:	e7f5      	b.n	2304 <makePage+0x18>
    2318:	2300      	movs	r3, #0
    231a:	4f16      	ldr	r7, [pc, #88]	; (2374 <makePage+0x88>)
    231c:	7013      	strb	r3, [r2, #0]
    231e:	4665      	mov	r5, ip
    2320:	18ed      	adds	r5, r5, r3
    2322:	782e      	ldrb	r6, [r5, #0]
    2324:	54fe      	strb	r6, [r7, r3]
    2326:	2600      	movs	r6, #0
    2328:	702e      	strb	r6, [r5, #0]
    232a:	2580      	movs	r5, #128	; 0x80
    232c:	3301      	adds	r3, #1
    232e:	006d      	lsls	r5, r5, #1
    2330:	42ab      	cmp	r3, r5
    2332:	d1f4      	bne.n	231e <makePage+0x32>
    2334:	2300      	movs	r3, #0
    2336:	1c5d      	adds	r5, r3, #1
    2338:	4284      	cmp	r4, r0
    233a:	d207      	bcs.n	234c <makePage+0x60>
    233c:	4667      	mov	r7, ip
    233e:	5d0e      	ldrb	r6, [r1, r4]
    2340:	3401      	adds	r4, #1
    2342:	54fe      	strb	r6, [r7, r3]
    2344:	b2e4      	uxtb	r4, r4
    2346:	7015      	strb	r5, [r2, #0]
    2348:	002b      	movs	r3, r5
    234a:	e7f4      	b.n	2336 <makePage+0x4a>
    234c:	2201      	movs	r2, #1
    234e:	4b0a      	ldr	r3, [pc, #40]	; (2378 <makePage+0x8c>)
    2350:	701a      	strb	r2, [r3, #0]
    2352:	e009      	b.n	2368 <makePage+0x7c>
    2354:	4283      	cmp	r3, r0
    2356:	d807      	bhi.n	2368 <makePage+0x7c>
    2358:	5ccf      	ldrb	r7, [r1, r3]
    235a:	18e6      	adds	r6, r4, r3
    235c:	5577      	strb	r7, [r6, r5]
    235e:	18ee      	adds	r6, r5, r3
    2360:	3301      	adds	r3, #1
    2362:	7016      	strb	r6, [r2, #0]
    2364:	b29b      	uxth	r3, r3
    2366:	e7f5      	b.n	2354 <makePage+0x68>
    2368:	bdf0      	pop	{r4, r5, r6, r7, pc}
    236a:	46c0      	nop			; (mov r8, r8)
    236c:	20000570 	.word	0x20000570
    2370:	20000166 	.word	0x20000166
    2374:	20000302 	.word	0x20000302
    2378:	20000402 	.word	0x20000402

0000237c <writePadBuffer>:
    237c:	b570      	push	{r4, r5, r6, lr}
    237e:	4a0e      	ldr	r2, [pc, #56]	; (23b8 <writePadBuffer+0x3c>)
    2380:	4c0e      	ldr	r4, [pc, #56]	; (23bc <writePadBuffer+0x40>)
    2382:	2300      	movs	r3, #0
    2384:	b2dd      	uxtb	r5, r3
    2386:	42a8      	cmp	r0, r5
    2388:	d905      	bls.n	2396 <writePadBuffer+0x1a>
    238a:	001d      	movs	r5, r3
    238c:	5cd6      	ldrb	r6, [r2, r3]
    238e:	3d23      	subs	r5, #35	; 0x23
    2390:	5556      	strb	r6, [r2, r5]
    2392:	3301      	adds	r3, #1
    2394:	e7f6      	b.n	2384 <writePadBuffer+0x8>
    2396:	3223      	adds	r2, #35	; 0x23
    2398:	42a2      	cmp	r2, r4
    239a:	d1f2      	bne.n	2382 <writePadBuffer+0x6>
    239c:	2300      	movs	r3, #0
    239e:	4c08      	ldr	r4, [pc, #32]	; (23c0 <writePadBuffer+0x44>)
    23a0:	b2da      	uxtb	r2, r3
    23a2:	4290      	cmp	r0, r2
    23a4:	d906      	bls.n	23b4 <writePadBuffer+0x38>
    23a6:	001a      	movs	r2, r3
    23a8:	5ccd      	ldrb	r5, [r1, r3]
    23aa:	323c      	adds	r2, #60	; 0x3c
    23ac:	32ff      	adds	r2, #255	; 0xff
    23ae:	54a5      	strb	r5, [r4, r2]
    23b0:	3301      	adds	r3, #1
    23b2:	e7f5      	b.n	23a0 <writePadBuffer+0x24>
    23b4:	bd70      	pop	{r4, r5, r6, pc}
    23b6:	46c0      	nop			; (mov r8, r8)
    23b8:	2000042f 	.word	0x2000042f
    23bc:	2000056a 	.word	0x2000056a
    23c0:	2000040c 	.word	0x2000040c

000023c4 <logFlight>:
    23c4:	b51f      	push	{r0, r1, r2, r3, r4, lr}
    23c6:	2346      	movs	r3, #70	; 0x46
    23c8:	466a      	mov	r2, sp
    23ca:	7013      	strb	r3, [r2, #0]
    23cc:	2300      	movs	r3, #0
    23ce:	4669      	mov	r1, sp
    23d0:	4668      	mov	r0, sp
    23d2:	7053      	strb	r3, [r2, #1]
    23d4:	4b11      	ldr	r3, [pc, #68]	; (241c <logFlight+0x58>)
    23d6:	4a12      	ldr	r2, [pc, #72]	; (2420 <logFlight+0x5c>)
    23d8:	685b      	ldr	r3, [r3, #4]
    23da:	708b      	strb	r3, [r1, #2]
    23dc:	0a19      	lsrs	r1, r3, #8
    23de:	6053      	str	r3, [r2, #4]
    23e0:	70c1      	strb	r1, [r0, #3]
    23e2:	0c19      	lsrs	r1, r3, #16
    23e4:	0e1b      	lsrs	r3, r3, #24
    23e6:	7143      	strb	r3, [r0, #5]
    23e8:	6993      	ldr	r3, [r2, #24]
    23ea:	7101      	strb	r1, [r0, #4]
    23ec:	0a19      	lsrs	r1, r3, #8
    23ee:	7183      	strb	r3, [r0, #6]
    23f0:	71c1      	strb	r1, [r0, #7]
    23f2:	0c19      	lsrs	r1, r3, #16
    23f4:	0e1b      	lsrs	r3, r3, #24
    23f6:	7243      	strb	r3, [r0, #9]
    23f8:	6a13      	ldr	r3, [r2, #32]
    23fa:	7201      	strb	r1, [r0, #8]
    23fc:	0a1a      	lsrs	r2, r3, #8
    23fe:	7283      	strb	r3, [r0, #10]
    2400:	72c2      	strb	r2, [r0, #11]
    2402:	0c1a      	lsrs	r2, r3, #16
    2404:	0e1b      	lsrs	r3, r3, #24
    2406:	7343      	strb	r3, [r0, #13]
    2408:	23fe      	movs	r3, #254	; 0xfe
    240a:	7302      	strb	r2, [r0, #12]
    240c:	73c3      	strb	r3, [r0, #15]
    240e:	4669      	mov	r1, sp
    2410:	2010      	movs	r0, #16
    2412:	4b04      	ldr	r3, [pc, #16]	; (2424 <logFlight+0x60>)
    2414:	4798      	blx	r3
    2416:	b005      	add	sp, #20
    2418:	bd00      	pop	{pc}
    241a:	46c0      	nop			; (mov r8, r8)
    241c:	20000578 	.word	0x20000578
    2420:	20000108 	.word	0x20000108
    2424:	000022ed 	.word	0x000022ed

00002428 <logEvent>:
    2428:	b57f      	push	{r0, r1, r2, r3, r4, r5, r6, lr}
    242a:	4d12      	ldr	r5, [pc, #72]	; (2474 <logEvent+0x4c>)
    242c:	4b12      	ldr	r3, [pc, #72]	; (2478 <logEvent+0x50>)
    242e:	686a      	ldr	r2, [r5, #4]
    2430:	685b      	ldr	r3, [r3, #4]
    2432:	ac01      	add	r4, sp, #4
    2434:	1ad3      	subs	r3, r2, r3
    2436:	2245      	movs	r2, #69	; 0x45
    2438:	7022      	strb	r2, [r4, #0]
    243a:	0a1a      	lsrs	r2, r3, #8
    243c:	4e0f      	ldr	r6, [pc, #60]	; (247c <logEvent+0x54>)
    243e:	70a3      	strb	r3, [r4, #2]
    2440:	70e2      	strb	r2, [r4, #3]
    2442:	0c1a      	lsrs	r2, r3, #16
    2444:	0e1b      	lsrs	r3, r3, #24
    2446:	7122      	strb	r2, [r4, #4]
    2448:	7163      	strb	r3, [r4, #5]
    244a:	7060      	strb	r0, [r4, #1]
    244c:	47b0      	blx	r6
    244e:	71a0      	strb	r0, [r4, #6]
    2450:	47b0      	blx	r6
    2452:	1200      	asrs	r0, r0, #8
    2454:	71e0      	strb	r0, [r4, #7]
    2456:	47b0      	blx	r6
    2458:	1400      	asrs	r0, r0, #16
    245a:	7220      	strb	r0, [r4, #8]
    245c:	47b0      	blx	r6
    245e:	1600      	asrs	r0, r0, #24
    2460:	7260      	strb	r0, [r4, #9]
    2462:	892b      	ldrh	r3, [r5, #8]
    2464:	0021      	movs	r1, r4
    2466:	72a3      	strb	r3, [r4, #10]
    2468:	0a1b      	lsrs	r3, r3, #8
    246a:	72e3      	strb	r3, [r4, #11]
    246c:	200c      	movs	r0, #12
    246e:	4b04      	ldr	r3, [pc, #16]	; (2480 <logEvent+0x58>)
    2470:	4798      	blx	r3
    2472:	bd7f      	pop	{r0, r1, r2, r3, r4, r5, r6, pc}
    2474:	20000578 	.word	0x20000578
    2478:	20000108 	.word	0x20000108
    247c:	00000b1d 	.word	0x00000b1d
    2480:	000022ed 	.word	0x000022ed

00002484 <logSensors>:
    2484:	2200      	movs	r2, #0
    2486:	b5f0      	push	{r4, r5, r6, r7, lr}
    2488:	4b5d      	ldr	r3, [pc, #372]	; (2600 <logSensors+0x17c>)
    248a:	b08f      	sub	sp, #60	; 0x3c
    248c:	701a      	strb	r2, [r3, #0]
    248e:	4b5d      	ldr	r3, [pc, #372]	; (2604 <logSensors+0x180>)
    2490:	681e      	ldr	r6, [r3, #0]
    2492:	685f      	ldr	r7, [r3, #4]
    2494:	4b5c      	ldr	r3, [pc, #368]	; (2608 <logSensors+0x184>)
    2496:	0039      	movs	r1, r7
    2498:	0030      	movs	r0, r6
    249a:	4798      	blx	r3
    249c:	4d5b      	ldr	r5, [pc, #364]	; (260c <logSensors+0x188>)
    249e:	b200      	sxth	r0, r0
    24a0:	47a8      	blx	r5
    24a2:	4c5b      	ldr	r4, [pc, #364]	; (2610 <logSensors+0x18c>)
    24a4:	0002      	movs	r2, r0
    24a6:	000b      	movs	r3, r1
    24a8:	0030      	movs	r0, r6
    24aa:	0039      	movs	r1, r7
    24ac:	47a0      	blx	r4
    24ae:	4f59      	ldr	r7, [pc, #356]	; (2614 <logSensors+0x190>)
    24b0:	47b8      	blx	r7
    24b2:	4b59      	ldr	r3, [pc, #356]	; (2618 <logSensors+0x194>)
    24b4:	4959      	ldr	r1, [pc, #356]	; (261c <logSensors+0x198>)
    24b6:	4798      	blx	r3
    24b8:	4e59      	ldr	r6, [pc, #356]	; (2620 <logSensors+0x19c>)
    24ba:	47b0      	blx	r6
    24bc:	b203      	sxth	r3, r0
    24be:	9301      	str	r3, [sp, #4]
    24c0:	4b58      	ldr	r3, [pc, #352]	; (2624 <logSensors+0x1a0>)
    24c2:	681a      	ldr	r2, [r3, #0]
    24c4:	685b      	ldr	r3, [r3, #4]
    24c6:	9202      	str	r2, [sp, #8]
    24c8:	9303      	str	r3, [sp, #12]
    24ca:	0010      	movs	r0, r2
    24cc:	0019      	movs	r1, r3
    24ce:	4b4e      	ldr	r3, [pc, #312]	; (2608 <logSensors+0x184>)
    24d0:	4798      	blx	r3
    24d2:	b200      	sxth	r0, r0
    24d4:	47a8      	blx	r5
    24d6:	0002      	movs	r2, r0
    24d8:	000b      	movs	r3, r1
    24da:	9802      	ldr	r0, [sp, #8]
    24dc:	9903      	ldr	r1, [sp, #12]
    24de:	47a0      	blx	r4
    24e0:	47b8      	blx	r7
    24e2:	494e      	ldr	r1, [pc, #312]	; (261c <logSensors+0x198>)
    24e4:	4b4c      	ldr	r3, [pc, #304]	; (2618 <logSensors+0x194>)
    24e6:	4798      	blx	r3
    24e8:	47b0      	blx	r6
    24ea:	2353      	movs	r3, #83	; 0x53
    24ec:	4d4e      	ldr	r5, [pc, #312]	; (2628 <logSensors+0x1a4>)
    24ee:	ac05      	add	r4, sp, #20
    24f0:	7023      	strb	r3, [r4, #0]
    24f2:	686b      	ldr	r3, [r5, #4]
    24f4:	b206      	sxth	r6, r0
    24f6:	0a1a      	lsrs	r2, r3, #8
    24f8:	7063      	strb	r3, [r4, #1]
    24fa:	70a2      	strb	r2, [r4, #2]
    24fc:	0c1a      	lsrs	r2, r3, #16
    24fe:	0e1b      	lsrs	r3, r3, #24
    2500:	70e2      	strb	r2, [r4, #3]
    2502:	7123      	strb	r3, [r4, #4]
    2504:	4f49      	ldr	r7, [pc, #292]	; (262c <logSensors+0x1a8>)
    2506:	47b8      	blx	r7
    2508:	7160      	strb	r0, [r4, #5]
    250a:	47b8      	blx	r7
    250c:	1200      	asrs	r0, r0, #8
    250e:	71a0      	strb	r0, [r4, #6]
    2510:	47b8      	blx	r7
    2512:	1400      	asrs	r0, r0, #16
    2514:	71e0      	strb	r0, [r4, #7]
    2516:	47b8      	blx	r7
    2518:	4b3a      	ldr	r3, [pc, #232]	; (2604 <logSensors+0x180>)
    251a:	1600      	asrs	r0, r0, #24
    251c:	7220      	strb	r0, [r4, #8]
    251e:	6818      	ldr	r0, [r3, #0]
    2520:	6859      	ldr	r1, [r3, #4]
    2522:	4b39      	ldr	r3, [pc, #228]	; (2608 <logSensors+0x184>)
    2524:	4798      	blx	r3
    2526:	466b      	mov	r3, sp
    2528:	791b      	ldrb	r3, [r3, #4]
    252a:	b200      	sxth	r0, r0
    252c:	72e3      	strb	r3, [r4, #11]
    252e:	9b01      	ldr	r3, [sp, #4]
    2530:	7260      	strb	r0, [r4, #9]
    2532:	1200      	asrs	r0, r0, #8
    2534:	72a0      	strb	r0, [r4, #10]
    2536:	1218      	asrs	r0, r3, #8
    2538:	4b3a      	ldr	r3, [pc, #232]	; (2624 <logSensors+0x1a0>)
    253a:	7320      	strb	r0, [r4, #12]
    253c:	6818      	ldr	r0, [r3, #0]
    253e:	6859      	ldr	r1, [r3, #4]
    2540:	4b31      	ldr	r3, [pc, #196]	; (2608 <logSensors+0x184>)
    2542:	4798      	blx	r3
    2544:	b200      	sxth	r0, r0
    2546:	7360      	strb	r0, [r4, #13]
    2548:	73e6      	strb	r6, [r4, #15]
    254a:	1200      	asrs	r0, r0, #8
    254c:	1236      	asrs	r6, r6, #8
    254e:	4b38      	ldr	r3, [pc, #224]	; (2630 <logSensors+0x1ac>)
    2550:	73a0      	strb	r0, [r4, #14]
    2552:	7426      	strb	r6, [r4, #16]
    2554:	6da8      	ldr	r0, [r5, #88]	; 0x58
    2556:	6de9      	ldr	r1, [r5, #92]	; 0x5c
    2558:	4798      	blx	r3
    255a:	0a03      	lsrs	r3, r0, #8
    255c:	7460      	strb	r0, [r4, #17]
    255e:	74a3      	strb	r3, [r4, #18]
    2560:	0c03      	lsrs	r3, r0, #16
    2562:	0e00      	lsrs	r0, r0, #24
    2564:	7520      	strb	r0, [r4, #20]
    2566:	74e3      	strb	r3, [r4, #19]
    2568:	2220      	movs	r2, #32
    256a:	5eab      	ldrsh	r3, [r5, r2]
    256c:	0021      	movs	r1, r4
    256e:	7563      	strb	r3, [r4, #21]
    2570:	121b      	asrs	r3, r3, #8
    2572:	75a3      	strb	r3, [r4, #22]
    2574:	2228      	movs	r2, #40	; 0x28
    2576:	5eab      	ldrsh	r3, [r5, r2]
    2578:	2023      	movs	r0, #35	; 0x23
    257a:	75e3      	strb	r3, [r4, #23]
    257c:	121b      	asrs	r3, r3, #8
    257e:	7623      	strb	r3, [r4, #24]
    2580:	2230      	movs	r2, #48	; 0x30
    2582:	5eab      	ldrsh	r3, [r5, r2]
    2584:	7663      	strb	r3, [r4, #25]
    2586:	121b      	asrs	r3, r3, #8
    2588:	76a3      	strb	r3, [r4, #26]
    258a:	2238      	movs	r2, #56	; 0x38
    258c:	5eab      	ldrsh	r3, [r5, r2]
    258e:	76e3      	strb	r3, [r4, #27]
    2590:	121b      	asrs	r3, r3, #8
    2592:	7723      	strb	r3, [r4, #28]
    2594:	1cab      	adds	r3, r5, #2
    2596:	223e      	movs	r2, #62	; 0x3e
    2598:	5e9b      	ldrsh	r3, [r3, r2]
    259a:	7763      	strb	r3, [r4, #29]
    259c:	121b      	asrs	r3, r3, #8
    259e:	77a3      	strb	r3, [r4, #30]
    25a0:	002b      	movs	r3, r5
    25a2:	3348      	adds	r3, #72	; 0x48
    25a4:	2200      	movs	r2, #0
    25a6:	5e9b      	ldrsh	r3, [r3, r2]
    25a8:	aa04      	add	r2, sp, #16
    25aa:	77e3      	strb	r3, [r4, #31]
    25ac:	3205      	adds	r2, #5
    25ae:	121b      	asrs	r3, r3, #8
    25b0:	77d3      	strb	r3, [r2, #31]
    25b2:	8b2b      	ldrh	r3, [r5, #24]
    25b4:	aa04      	add	r2, sp, #16
    25b6:	3206      	adds	r2, #6
    25b8:	77d3      	strb	r3, [r2, #31]
    25ba:	aa04      	add	r2, sp, #16
    25bc:	0a1b      	lsrs	r3, r3, #8
    25be:	3207      	adds	r2, #7
    25c0:	77d3      	strb	r3, [r2, #31]
    25c2:	4b1c      	ldr	r3, [pc, #112]	; (2634 <logSensors+0x1b0>)
    25c4:	781b      	ldrb	r3, [r3, #0]
    25c6:	2b02      	cmp	r3, #2
    25c8:	d102      	bne.n	25d0 <logSensors+0x14c>
    25ca:	4b1b      	ldr	r3, [pc, #108]	; (2638 <logSensors+0x1b4>)
    25cc:	4798      	blx	r3
    25ce:	e014      	b.n	25fa <logSensors+0x176>
    25d0:	4b1a      	ldr	r3, [pc, #104]	; (263c <logSensors+0x1b8>)
    25d2:	4798      	blx	r3
    25d4:	4b1a      	ldr	r3, [pc, #104]	; (2640 <logSensors+0x1bc>)
    25d6:	781a      	ldrb	r2, [r3, #0]
    25d8:	2a00      	cmp	r2, #0
    25da:	d00e      	beq.n	25fa <logSensors+0x176>
    25dc:	2200      	movs	r2, #0
    25de:	701a      	strb	r2, [r3, #0]
    25e0:	2280      	movs	r2, #128	; 0x80
    25e2:	4b18      	ldr	r3, [pc, #96]	; (2644 <logSensors+0x1c0>)
    25e4:	4c18      	ldr	r4, [pc, #96]	; (2648 <logSensors+0x1c4>)
    25e6:	0352      	lsls	r2, r2, #13
    25e8:	61da      	str	r2, [r3, #28]
    25ea:	4918      	ldr	r1, [pc, #96]	; (264c <logSensors+0x1c8>)
    25ec:	4b18      	ldr	r3, [pc, #96]	; (2650 <logSensors+0x1cc>)
    25ee:	6820      	ldr	r0, [r4, #0]
    25f0:	4798      	blx	r3
    25f2:	6823      	ldr	r3, [r4, #0]
    25f4:	3301      	adds	r3, #1
    25f6:	33ff      	adds	r3, #255	; 0xff
    25f8:	6023      	str	r3, [r4, #0]
    25fa:	b00f      	add	sp, #60	; 0x3c
    25fc:	bdf0      	pop	{r4, r5, r6, r7, pc}
    25fe:	46c0      	nop			; (mov r8, r8)
    2600:	20000152 	.word	0x20000152
    2604:	200002d0 	.word	0x200002d0
    2608:	000060e1 	.word	0x000060e1
    260c:	0000614d 	.word	0x0000614d
    2610:	000059f9 	.word	0x000059f9
    2614:	000062e9 	.word	0x000062e9
    2618:	000043f9 	.word	0x000043f9
    261c:	447a0000 	.word	0x447a0000
    2620:	00004621 	.word	0x00004621
    2624:	200002d8 	.word	0x200002d8
    2628:	20000578 	.word	0x20000578
    262c:	00000b1d 	.word	0x00000b1d
    2630:	000043bd 	.word	0x000043bd
    2634:	20000164 	.word	0x20000164
    2638:	0000237d 	.word	0x0000237d
    263c:	000022ed 	.word	0x000022ed
    2640:	20000402 	.word	0x20000402
    2644:	41004400 	.word	0x41004400
    2648:	20000408 	.word	0x20000408
    264c:	20000302 	.word	0x20000302
    2650:	000002a5 	.word	0x000002a5

00002654 <getFlightStartAddress>:
    2654:	2306      	movs	r3, #6
    2656:	b513      	push	{r0, r1, r4, lr}
    2658:	4358      	muls	r0, r3
    265a:	ac01      	add	r4, sp, #4
    265c:	3001      	adds	r0, #1
    265e:	30ff      	adds	r0, #255	; 0xff
    2660:	0022      	movs	r2, r4
    2662:	2103      	movs	r1, #3
    2664:	4b04      	ldr	r3, [pc, #16]	; (2678 <getFlightStartAddress+0x24>)
    2666:	4798      	blx	r3
    2668:	7860      	ldrb	r0, [r4, #1]
    266a:	78a3      	ldrb	r3, [r4, #2]
    266c:	0200      	lsls	r0, r0, #8
    266e:	041b      	lsls	r3, r3, #16
    2670:	4318      	orrs	r0, r3
    2672:	7823      	ldrb	r3, [r4, #0]
    2674:	4318      	orrs	r0, r3
    2676:	bd16      	pop	{r1, r2, r4, pc}
    2678:	00000301 	.word	0x00000301

0000267c <FindFlightEndingAddress>:
    267c:	2306      	movs	r3, #6
    267e:	b513      	push	{r0, r1, r4, lr}
    2680:	4358      	muls	r0, r3
    2682:	ac01      	add	r4, sp, #4
    2684:	3004      	adds	r0, #4
    2686:	30ff      	adds	r0, #255	; 0xff
    2688:	0022      	movs	r2, r4
    268a:	2103      	movs	r1, #3
    268c:	4b04      	ldr	r3, [pc, #16]	; (26a0 <FindFlightEndingAddress+0x24>)
    268e:	4798      	blx	r3
    2690:	7860      	ldrb	r0, [r4, #1]
    2692:	78a3      	ldrb	r3, [r4, #2]
    2694:	0200      	lsls	r0, r0, #8
    2696:	041b      	lsls	r3, r3, #16
    2698:	4318      	orrs	r0, r3
    269a:	7823      	ldrb	r3, [r4, #0]
    269c:	4318      	orrs	r0, r3
    269e:	bd16      	pop	{r1, r2, r4, pc}
    26a0:	00000301 	.word	0x00000301

000026a4 <isFlightLogged>:
    26a4:	b510      	push	{r4, lr}
    26a6:	4b04      	ldr	r3, [pc, #16]	; (26b8 <isFlightLogged+0x14>)
    26a8:	4798      	blx	r3
    26aa:	4b04      	ldr	r3, [pc, #16]	; (26bc <isFlightLogged+0x18>)
    26ac:	18c0      	adds	r0, r0, r3
    26ae:	1e43      	subs	r3, r0, #1
    26b0:	4198      	sbcs	r0, r3
    26b2:	b2c0      	uxtb	r0, r0
    26b4:	bd10      	pop	{r4, pc}
    26b6:	46c0      	nop			; (mov r8, r8)
    26b8:	00002655 	.word	0x00002655
    26bc:	ff000001 	.word	0xff000001

000026c0 <writeFlightStartAddress>:
    26c0:	b510      	push	{r4, lr}
    26c2:	4b03      	ldr	r3, [pc, #12]	; (26d0 <writeFlightStartAddress+0x10>)
    26c4:	4a03      	ldr	r2, [pc, #12]	; (26d4 <writeFlightStartAddress+0x14>)
    26c6:	8818      	ldrh	r0, [r3, #0]
    26c8:	2103      	movs	r1, #3
    26ca:	4b03      	ldr	r3, [pc, #12]	; (26d8 <writeFlightStartAddress+0x18>)
    26cc:	4798      	blx	r3
    26ce:	bd10      	pop	{r4, pc}
    26d0:	20000300 	.word	0x20000300
    26d4:	20000403 	.word	0x20000403
    26d8:	00000241 	.word	0x00000241

000026dc <writeFlightEndAddress>:
    26dc:	b507      	push	{r0, r1, r2, lr}
    26de:	2006      	movs	r0, #6
    26e0:	4b09      	ldr	r3, [pc, #36]	; (2708 <writeFlightEndAddress+0x2c>)
    26e2:	aa01      	add	r2, sp, #4
    26e4:	681b      	ldr	r3, [r3, #0]
    26e6:	7013      	strb	r3, [r2, #0]
    26e8:	0a19      	lsrs	r1, r3, #8
    26ea:	0c1b      	lsrs	r3, r3, #16
    26ec:	7093      	strb	r3, [r2, #2]
    26ee:	4b07      	ldr	r3, [pc, #28]	; (270c <writeFlightEndAddress+0x30>)
    26f0:	7051      	strb	r1, [r2, #1]
    26f2:	781b      	ldrb	r3, [r3, #0]
    26f4:	2103      	movs	r1, #3
    26f6:	4358      	muls	r0, r3
    26f8:	3004      	adds	r0, #4
    26fa:	30ff      	adds	r0, #255	; 0xff
    26fc:	4b04      	ldr	r3, [pc, #16]	; (2710 <writeFlightEndAddress+0x34>)
    26fe:	4798      	blx	r3
    2700:	200a      	movs	r0, #10
    2702:	4b04      	ldr	r3, [pc, #16]	; (2714 <writeFlightEndAddress+0x38>)
    2704:	4798      	blx	r3
    2706:	bd07      	pop	{r0, r1, r2, pc}
    2708:	20000408 	.word	0x20000408
    270c:	20000153 	.word	0x20000153
    2710:	00000241 	.word	0x00000241
    2714:	000010f5 	.word	0x000010f5

00002718 <writeGroundLog>:
    2718:	b5f8      	push	{r3, r4, r5, r6, r7, lr}
    271a:	2780      	movs	r7, #128	; 0x80
    271c:	26af      	movs	r6, #175	; 0xaf
    271e:	2400      	movs	r4, #0
    2720:	037f      	lsls	r7, r7, #13
    2722:	0076      	lsls	r6, r6, #1
    2724:	490c      	ldr	r1, [pc, #48]	; (2758 <writeGroundLog+0x40>)
    2726:	4b0d      	ldr	r3, [pc, #52]	; (275c <writeGroundLog+0x44>)
    2728:	1861      	adds	r1, r4, r1
    272a:	2023      	movs	r0, #35	; 0x23
    272c:	4798      	blx	r3
    272e:	4b0c      	ldr	r3, [pc, #48]	; (2760 <writeGroundLog+0x48>)
    2730:	781a      	ldrb	r2, [r3, #0]
    2732:	2a00      	cmp	r2, #0
    2734:	d00c      	beq.n	2750 <writeGroundLog+0x38>
    2736:	2200      	movs	r2, #0
    2738:	701a      	strb	r2, [r3, #0]
    273a:	4b0a      	ldr	r3, [pc, #40]	; (2764 <writeGroundLog+0x4c>)
    273c:	4d0a      	ldr	r5, [pc, #40]	; (2768 <writeGroundLog+0x50>)
    273e:	61df      	str	r7, [r3, #28]
    2740:	490a      	ldr	r1, [pc, #40]	; (276c <writeGroundLog+0x54>)
    2742:	4b0b      	ldr	r3, [pc, #44]	; (2770 <writeGroundLog+0x58>)
    2744:	6828      	ldr	r0, [r5, #0]
    2746:	4798      	blx	r3
    2748:	682b      	ldr	r3, [r5, #0]
    274a:	3301      	adds	r3, #1
    274c:	33ff      	adds	r3, #255	; 0xff
    274e:	602b      	str	r3, [r5, #0]
    2750:	3423      	adds	r4, #35	; 0x23
    2752:	42b4      	cmp	r4, r6
    2754:	d1e6      	bne.n	2724 <writeGroundLog+0xc>
    2756:	bdf8      	pop	{r3, r4, r5, r6, r7, pc}
    2758:	2000040c 	.word	0x2000040c
    275c:	000022ed 	.word	0x000022ed
    2760:	20000402 	.word	0x20000402
    2764:	41004400 	.word	0x41004400
    2768:	20000408 	.word	0x20000408
    276c:	20000302 	.word	0x20000302
    2770:	000002a5 	.word	0x000002a5

00002774 <findNewFlightStart>:
    2774:	b5f8      	push	{r3, r4, r5, r6, r7, lr}
    2776:	2400      	movs	r4, #0
    2778:	0020      	movs	r0, r4
    277a:	4b21      	ldr	r3, [pc, #132]	; (2800 <findNewFlightStart+0x8c>)
    277c:	4798      	blx	r3
    277e:	2800      	cmp	r0, #0
    2780:	d138      	bne.n	27f4 <findNewFlightStart+0x80>
    2782:	4f20      	ldr	r7, [pc, #128]	; (2804 <findNewFlightStart+0x90>)
    2784:	4d20      	ldr	r5, [pc, #128]	; (2808 <findNewFlightStart+0x94>)
    2786:	2c00      	cmp	r4, #0
    2788:	d014      	beq.n	27b4 <findNewFlightStart+0x40>
    278a:	1e60      	subs	r0, r4, #1
    278c:	4b1f      	ldr	r3, [pc, #124]	; (280c <findNewFlightStart+0x98>)
    278e:	b2c0      	uxtb	r0, r0
    2790:	4798      	blx	r3
    2792:	0006      	movs	r6, r0
    2794:	4b1e      	ldr	r3, [pc, #120]	; (2810 <findNewFlightStart+0x9c>)
    2796:	2005      	movs	r0, #5
    2798:	4798      	blx	r3
    279a:	0a33      	lsrs	r3, r6, #8
    279c:	706b      	strb	r3, [r5, #1]
    279e:	2306      	movs	r3, #6
    27a0:	4363      	muls	r3, r4
    27a2:	4a1c      	ldr	r2, [pc, #112]	; (2814 <findNewFlightStart+0xa0>)
    27a4:	3301      	adds	r3, #1
    27a6:	603e      	str	r6, [r7, #0]
    27a8:	702e      	strb	r6, [r5, #0]
    27aa:	33ff      	adds	r3, #255	; 0xff
    27ac:	0c36      	lsrs	r6, r6, #16
    27ae:	70ae      	strb	r6, [r5, #2]
    27b0:	8013      	strh	r3, [r2, #0]
    27b2:	e00d      	b.n	27d0 <findNewFlightStart+0x5c>
    27b4:	2310      	movs	r3, #16
    27b6:	4a17      	ldr	r2, [pc, #92]	; (2814 <findNewFlightStart+0xa0>)
    27b8:	706b      	strb	r3, [r5, #1]
    27ba:	33f0      	adds	r3, #240	; 0xf0
    27bc:	8013      	strh	r3, [r2, #0]
    27be:	2380      	movs	r3, #128	; 0x80
    27c0:	20fa      	movs	r0, #250	; 0xfa
    27c2:	015b      	lsls	r3, r3, #5
    27c4:	603b      	str	r3, [r7, #0]
    27c6:	0080      	lsls	r0, r0, #2
    27c8:	4b13      	ldr	r3, [pc, #76]	; (2818 <findNewFlightStart+0xa4>)
    27ca:	702c      	strb	r4, [r5, #0]
    27cc:	70ac      	strb	r4, [r5, #2]
    27ce:	4798      	blx	r3
    27d0:	4b12      	ldr	r3, [pc, #72]	; (281c <findNewFlightStart+0xa8>)
    27d2:	701c      	strb	r4, [r3, #0]
    27d4:	20fa      	movs	r0, #250	; 0xfa
    27d6:	0040      	lsls	r0, r0, #1
    27d8:	2c00      	cmp	r4, #0
    27da:	d008      	beq.n	27ee <findNewFlightStart+0x7a>
    27dc:	4b0e      	ldr	r3, [pc, #56]	; (2818 <findNewFlightStart+0xa4>)
    27de:	4798      	blx	r3
    27e0:	20fa      	movs	r0, #250	; 0xfa
    27e2:	4b0b      	ldr	r3, [pc, #44]	; (2810 <findNewFlightStart+0x9c>)
    27e4:	0040      	lsls	r0, r0, #1
    27e6:	3c01      	subs	r4, #1
    27e8:	4798      	blx	r3
    27ea:	b2e4      	uxtb	r4, r4
    27ec:	e7f2      	b.n	27d4 <findNewFlightStart+0x60>
    27ee:	4b08      	ldr	r3, [pc, #32]	; (2810 <findNewFlightStart+0x9c>)
    27f0:	4798      	blx	r3
    27f2:	e003      	b.n	27fc <findNewFlightStart+0x88>
    27f4:	3401      	adds	r4, #1
    27f6:	b2e4      	uxtb	r4, r4
    27f8:	2c14      	cmp	r4, #20
    27fa:	d1bd      	bne.n	2778 <findNewFlightStart+0x4>
    27fc:	bdf8      	pop	{r3, r4, r5, r6, r7, pc}
    27fe:	46c0      	nop			; (mov r8, r8)
    2800:	000026a5 	.word	0x000026a5
    2804:	20000408 	.word	0x20000408
    2808:	20000403 	.word	0x20000403
    280c:	0000267d 	.word	0x0000267d
    2810:	000010f5 	.word	0x000010f5
    2814:	20000300 	.word	0x20000300
    2818:	00000e25 	.word	0x00000e25
    281c:	20000153 	.word	0x20000153

00002820 <takeSample>:
    2820:	4b01      	ldr	r3, [pc, #4]	; (2828 <takeSample+0x8>)
    2822:	7818      	ldrb	r0, [r3, #0]
    2824:	4770      	bx	lr
    2826:	46c0      	nop			; (mov r8, r8)
    2828:	20000165 	.word	0x20000165

0000282c <pullSample>:
    282c:	2201      	movs	r2, #1
    282e:	4b01      	ldr	r3, [pc, #4]	; (2834 <pullSample+0x8>)
    2830:	701a      	strb	r2, [r3, #0]
    2832:	4770      	bx	lr
    2834:	20000165 	.word	0x20000165

00002838 <sampleTick>:
    2838:	b5f7      	push	{r0, r1, r2, r4, r5, r6, r7, lr}
    283a:	2200      	movs	r2, #0
    283c:	4ba7      	ldr	r3, [pc, #668]	; (2adc <sampleTick+0x2a4>)
    283e:	4fa8      	ldr	r7, [pc, #672]	; (2ae0 <sampleTick+0x2a8>)
    2840:	701a      	strb	r2, [r3, #0]
    2842:	4ba8      	ldr	r3, [pc, #672]	; (2ae4 <sampleTick+0x2ac>)
    2844:	687c      	ldr	r4, [r7, #4]
    2846:	4798      	blx	r3
    2848:	6078      	str	r0, [r7, #4]
    284a:	1b00      	subs	r0, r0, r4
    284c:	4ca6      	ldr	r4, [pc, #664]	; (2ae8 <sampleTick+0x2b0>)
    284e:	8038      	strh	r0, [r7, #0]
    2850:	7863      	ldrb	r3, [r4, #1]
    2852:	7821      	ldrb	r1, [r4, #0]
    2854:	78a0      	ldrb	r0, [r4, #2]
    2856:	021b      	lsls	r3, r3, #8
    2858:	430b      	orrs	r3, r1
    285a:	0400      	lsls	r0, r0, #16
    285c:	001a      	movs	r2, r3
    285e:	0003      	movs	r3, r0
    2860:	78e0      	ldrb	r0, [r4, #3]
    2862:	4313      	orrs	r3, r2
    2864:	0600      	lsls	r0, r0, #24
    2866:	4ea1      	ldr	r6, [pc, #644]	; (2aec <sampleTick+0x2b4>)
    2868:	7921      	ldrb	r1, [r4, #4]
    286a:	4318      	orrs	r0, r3
    286c:	47b0      	blx	r6
    286e:	4ba0      	ldr	r3, [pc, #640]	; (2af0 <sampleTick+0x2b8>)
    2870:	8138      	strh	r0, [r7, #8]
    2872:	4798      	blx	r3
    2874:	4a9f      	ldr	r2, [pc, #636]	; (2af4 <sampleTick+0x2bc>)
    2876:	4da0      	ldr	r5, [pc, #640]	; (2af8 <sampleTick+0x2c0>)
    2878:	4ba0      	ldr	r3, [pc, #640]	; (2afc <sampleTick+0x2c4>)
    287a:	47a8      	blx	r5
    287c:	4ba0      	ldr	r3, [pc, #640]	; (2b00 <sampleTick+0x2c8>)
    287e:	4798      	blx	r3
    2880:	79a3      	ldrb	r3, [r4, #6]
    2882:	7961      	ldrb	r1, [r4, #5]
    2884:	60f8      	str	r0, [r7, #12]
    2886:	79e0      	ldrb	r0, [r4, #7]
    2888:	021b      	lsls	r3, r3, #8
    288a:	430b      	orrs	r3, r1
    288c:	0400      	lsls	r0, r0, #16
    288e:	001a      	movs	r2, r3
    2890:	0003      	movs	r3, r0
    2892:	7a20      	ldrb	r0, [r4, #8]
    2894:	4313      	orrs	r3, r2
    2896:	0600      	lsls	r0, r0, #24
    2898:	7a61      	ldrb	r1, [r4, #9]
    289a:	4318      	orrs	r0, r3
    289c:	47b0      	blx	r6
    289e:	7ae3      	ldrb	r3, [r4, #11]
    28a0:	7aa1      	ldrb	r1, [r4, #10]
    28a2:	8238      	strh	r0, [r7, #16]
    28a4:	7b20      	ldrb	r0, [r4, #12]
    28a6:	021b      	lsls	r3, r3, #8
    28a8:	430b      	orrs	r3, r1
    28aa:	0400      	lsls	r0, r0, #16
    28ac:	001a      	movs	r2, r3
    28ae:	0003      	movs	r3, r0
    28b0:	7b60      	ldrb	r0, [r4, #13]
    28b2:	4313      	orrs	r3, r2
    28b4:	0600      	lsls	r0, r0, #24
    28b6:	7ba1      	ldrb	r1, [r4, #14]
    28b8:	4318      	orrs	r0, r3
    28ba:	47b0      	blx	r6
    28bc:	7c23      	ldrb	r3, [r4, #16]
    28be:	7be1      	ldrb	r1, [r4, #15]
    28c0:	8278      	strh	r0, [r7, #18]
    28c2:	7c60      	ldrb	r0, [r4, #17]
    28c4:	021b      	lsls	r3, r3, #8
    28c6:	430b      	orrs	r3, r1
    28c8:	0400      	lsls	r0, r0, #16
    28ca:	001a      	movs	r2, r3
    28cc:	0003      	movs	r3, r0
    28ce:	7ca0      	ldrb	r0, [r4, #18]
    28d0:	4313      	orrs	r3, r2
    28d2:	0600      	lsls	r0, r0, #24
    28d4:	7ce1      	ldrb	r1, [r4, #19]
    28d6:	4318      	orrs	r0, r3
    28d8:	47b0      	blx	r6
    28da:	7d63      	ldrb	r3, [r4, #21]
    28dc:	7d21      	ldrb	r1, [r4, #20]
    28de:	82b8      	strh	r0, [r7, #20]
    28e0:	7da0      	ldrb	r0, [r4, #22]
    28e2:	021b      	lsls	r3, r3, #8
    28e4:	430b      	orrs	r3, r1
    28e6:	0400      	lsls	r0, r0, #16
    28e8:	001a      	movs	r2, r3
    28ea:	0003      	movs	r3, r0
    28ec:	7de0      	ldrb	r0, [r4, #23]
    28ee:	4313      	orrs	r3, r2
    28f0:	0600      	lsls	r0, r0, #24
    28f2:	7e21      	ldrb	r1, [r4, #24]
    28f4:	4318      	orrs	r0, r3
    28f6:	47b0      	blx	r6
    28f8:	2210      	movs	r2, #16
    28fa:	4d82      	ldr	r5, [pc, #520]	; (2b04 <sampleTick+0x2cc>)
    28fc:	82f8      	strh	r0, [r7, #22]
    28fe:	88ab      	ldrh	r3, [r5, #4]
    2900:	7e61      	ldrb	r1, [r4, #25]
    2902:	4313      	orrs	r3, r2
    2904:	80ab      	strh	r3, [r5, #4]
    2906:	2304      	movs	r3, #4
    2908:	70ab      	strb	r3, [r5, #2]
    290a:	7ea3      	ldrb	r3, [r4, #26]
    290c:	7ee0      	ldrb	r0, [r4, #27]
    290e:	021b      	lsls	r3, r3, #8
    2910:	430b      	orrs	r3, r1
    2912:	0400      	lsls	r0, r0, #16
    2914:	4303      	orrs	r3, r0
    2916:	7f20      	ldrb	r0, [r4, #28]
    2918:	7f61      	ldrb	r1, [r4, #29]
    291a:	0600      	lsls	r0, r0, #24
    291c:	4318      	orrs	r0, r3
    291e:	47b0      	blx	r6
    2920:	4b79      	ldr	r3, [pc, #484]	; (2b08 <sampleTick+0x2d0>)
    2922:	8338      	strh	r0, [r7, #24]
    2924:	18c0      	adds	r0, r0, r3
    2926:	4b72      	ldr	r3, [pc, #456]	; (2af0 <sampleTick+0x2b8>)
    2928:	4798      	blx	r3
    292a:	4a78      	ldr	r2, [pc, #480]	; (2b0c <sampleTick+0x2d4>)
    292c:	4c72      	ldr	r4, [pc, #456]	; (2af8 <sampleTick+0x2c0>)
    292e:	4b78      	ldr	r3, [pc, #480]	; (2b10 <sampleTick+0x2d8>)
    2930:	47a0      	blx	r4
    2932:	4b73      	ldr	r3, [pc, #460]	; (2b00 <sampleTick+0x2c8>)
    2934:	4798      	blx	r3
    2936:	2300      	movs	r3, #0
    2938:	61f8      	str	r0, [r7, #28]
    293a:	70ab      	strb	r3, [r5, #2]
    293c:	88ab      	ldrh	r3, [r5, #4]
    293e:	4e75      	ldr	r6, [pc, #468]	; (2b14 <sampleTick+0x2dc>)
    2940:	b29b      	uxth	r3, r3
    2942:	80ab      	strh	r3, [r5, #4]
    2944:	2580      	movs	r5, #128	; 0x80
    2946:	01ed      	lsls	r5, r5, #7
    2948:	2150      	movs	r1, #80	; 0x50
    294a:	4c73      	ldr	r4, [pc, #460]	; (2b18 <sampleTick+0x2e0>)
    294c:	6175      	str	r5, [r6, #20]
    294e:	2002      	movs	r0, #2
    2950:	47a0      	blx	r4
    2952:	2096      	movs	r0, #150	; 0x96
    2954:	61b5      	str	r5, [r6, #24]
    2956:	0080      	lsls	r0, r0, #2
    2958:	4b70      	ldr	r3, [pc, #448]	; (2b1c <sampleTick+0x2e4>)
    295a:	4798      	blx	r3
    295c:	4b70      	ldr	r3, [pc, #448]	; (2b20 <sampleTick+0x2e8>)
    295e:	4798      	blx	r3
    2960:	2140      	movs	r1, #64	; 0x40
    2962:	9001      	str	r0, [sp, #4]
    2964:	6175      	str	r5, [r6, #20]
    2966:	2002      	movs	r0, #2
    2968:	47a0      	blx	r4
    296a:	2280      	movs	r2, #128	; 0x80
    296c:	4b6d      	ldr	r3, [pc, #436]	; (2b24 <sampleTick+0x2ec>)
    296e:	00d2      	lsls	r2, r2, #3
    2970:	2182      	movs	r1, #130	; 0x82
    2972:	61b5      	str	r5, [r6, #24]
    2974:	2000      	movs	r0, #0
    2976:	601a      	str	r2, [r3, #0]
    2978:	47a0      	blx	r4
    297a:	4d6b      	ldr	r5, [pc, #428]	; (2b28 <sampleTick+0x2f0>)
    297c:	2000      	movs	r0, #0
    297e:	47a8      	blx	r5
    2980:	0004      	movs	r4, r0
    2982:	2000      	movs	r0, #0
    2984:	47a8      	blx	r5
    2986:	0200      	lsls	r0, r0, #8
    2988:	4304      	orrs	r4, r0
    298a:	2000      	movs	r0, #0
    298c:	843c      	strh	r4, [r7, #32]
    298e:	47a8      	blx	r5
    2990:	0004      	movs	r4, r0
    2992:	2000      	movs	r0, #0
    2994:	47a8      	blx	r5
    2996:	0200      	lsls	r0, r0, #8
    2998:	4304      	orrs	r4, r0
    299a:	2000      	movs	r0, #0
    299c:	853c      	strh	r4, [r7, #40]	; 0x28
    299e:	47a8      	blx	r5
    29a0:	0004      	movs	r4, r0
    29a2:	2000      	movs	r0, #0
    29a4:	47a8      	blx	r5
    29a6:	2280      	movs	r2, #128	; 0x80
    29a8:	4b60      	ldr	r3, [pc, #384]	; (2b2c <sampleTick+0x2f4>)
    29aa:	00d2      	lsls	r2, r2, #3
    29ac:	601a      	str	r2, [r3, #0]
    29ae:	4b60      	ldr	r3, [pc, #384]	; (2b30 <sampleTick+0x2f8>)
    29b0:	0200      	lsls	r0, r0, #8
    29b2:	795a      	ldrb	r2, [r3, #5]
    29b4:	4304      	orrs	r4, r0
    29b6:	9600      	str	r6, [sp, #0]
    29b8:	b224      	sxth	r4, r4
    29ba:	003d      	movs	r5, r7
    29bc:	2120      	movs	r1, #32
    29be:	5e7b      	ldrsh	r3, [r7, r1]
    29c0:	2a00      	cmp	r2, #0
    29c2:	d000      	beq.n	29c6 <sampleTick+0x18e>
    29c4:	425b      	negs	r3, r3
    29c6:	111b      	asrs	r3, r3, #4
    29c8:	842b      	strh	r3, [r5, #32]
    29ca:	2328      	movs	r3, #40	; 0x28
    29cc:	5eee      	ldrsh	r6, [r5, r3]
    29ce:	1124      	asrs	r4, r4, #4
    29d0:	1136      	asrs	r6, r6, #4
    29d2:	2320      	movs	r3, #32
    29d4:	5ee8      	ldrsh	r0, [r5, r3]
    29d6:	852e      	strh	r6, [r5, #40]	; 0x28
    29d8:	862c      	strh	r4, [r5, #48]	; 0x30
    29da:	4b45      	ldr	r3, [pc, #276]	; (2af0 <sampleTick+0x2b8>)
    29dc:	4798      	blx	r3
    29de:	23fe      	movs	r3, #254	; 0xfe
    29e0:	2200      	movs	r2, #0
    29e2:	059b      	lsls	r3, r3, #22
    29e4:	4f44      	ldr	r7, [pc, #272]	; (2af8 <sampleTick+0x2c0>)
    29e6:	47b8      	blx	r7
    29e8:	4f45      	ldr	r7, [pc, #276]	; (2b00 <sampleTick+0x2c8>)
    29ea:	47b8      	blx	r7
    29ec:	4b40      	ldr	r3, [pc, #256]	; (2af0 <sampleTick+0x2b8>)
    29ee:	6268      	str	r0, [r5, #36]	; 0x24
    29f0:	0030      	movs	r0, r6
    29f2:	4798      	blx	r3
    29f4:	23fe      	movs	r3, #254	; 0xfe
    29f6:	2200      	movs	r2, #0
    29f8:	4e3f      	ldr	r6, [pc, #252]	; (2af8 <sampleTick+0x2c0>)
    29fa:	059b      	lsls	r3, r3, #22
    29fc:	47b0      	blx	r6
    29fe:	47b8      	blx	r7
    2a00:	4b3b      	ldr	r3, [pc, #236]	; (2af0 <sampleTick+0x2b8>)
    2a02:	62e8      	str	r0, [r5, #44]	; 0x2c
    2a04:	0020      	movs	r0, r4
    2a06:	4798      	blx	r3
    2a08:	23fe      	movs	r3, #254	; 0xfe
    2a0a:	2200      	movs	r2, #0
    2a0c:	059b      	lsls	r3, r3, #22
    2a0e:	47b0      	blx	r6
    2a10:	47b8      	blx	r7
    2a12:	2280      	movs	r2, #128	; 0x80
    2a14:	9b00      	ldr	r3, [sp, #0]
    2a16:	00d2      	lsls	r2, r2, #3
    2a18:	2182      	movs	r1, #130	; 0x82
    2a1a:	6368      	str	r0, [r5, #52]	; 0x34
    2a1c:	615a      	str	r2, [r3, #20]
    2a1e:	2000      	movs	r0, #0
    2a20:	4b3d      	ldr	r3, [pc, #244]	; (2b18 <sampleTick+0x2e0>)
    2a22:	4798      	blx	r3
    2a24:	4e40      	ldr	r6, [pc, #256]	; (2b28 <sampleTick+0x2f0>)
    2a26:	2000      	movs	r0, #0
    2a28:	47b0      	blx	r6
    2a2a:	0004      	movs	r4, r0
    2a2c:	2000      	movs	r0, #0
    2a2e:	47b0      	blx	r6
    2a30:	0200      	lsls	r0, r0, #8
    2a32:	4304      	orrs	r4, r0
    2a34:	2000      	movs	r0, #0
    2a36:	872c      	strh	r4, [r5, #56]	; 0x38
    2a38:	47b0      	blx	r6
    2a3a:	0004      	movs	r4, r0
    2a3c:	2000      	movs	r0, #0
    2a3e:	47b0      	blx	r6
    2a40:	4b3c      	ldr	r3, [pc, #240]	; (2b34 <sampleTick+0x2fc>)
    2a42:	0200      	lsls	r0, r0, #8
    2a44:	4304      	orrs	r4, r0
    2a46:	2000      	movs	r0, #0
    2a48:	87dc      	strh	r4, [r3, #62]	; 0x3e
    2a4a:	47b0      	blx	r6
    2a4c:	0004      	movs	r4, r0
    2a4e:	2000      	movs	r0, #0
    2a50:	47b0      	blx	r6
    2a52:	2180      	movs	r1, #128	; 0x80
    2a54:	0003      	movs	r3, r0
    2a56:	9a00      	ldr	r2, [sp, #0]
    2a58:	00c9      	lsls	r1, r1, #3
    2a5a:	6191      	str	r1, [r2, #24]
    2a5c:	2238      	movs	r2, #56	; 0x38
    2a5e:	5ea8      	ldrsh	r0, [r5, r2]
    2a60:	4a34      	ldr	r2, [pc, #208]	; (2b34 <sampleTick+0x2fc>)
    2a62:	1100      	asrs	r0, r0, #4
    2a64:	8728      	strh	r0, [r5, #56]	; 0x38
    2a66:	263e      	movs	r6, #62	; 0x3e
    2a68:	5f96      	ldrsh	r6, [r2, r6]
    2a6a:	021b      	lsls	r3, r3, #8
    2a6c:	4a31      	ldr	r2, [pc, #196]	; (2b34 <sampleTick+0x2fc>)
    2a6e:	431c      	orrs	r4, r3
    2a70:	1136      	asrs	r6, r6, #4
    2a72:	b224      	sxth	r4, r4
    2a74:	87d6      	strh	r6, [r2, #62]	; 0x3e
    2a76:	1123      	asrs	r3, r4, #4
    2a78:	466a      	mov	r2, sp
    2a7a:	9300      	str	r3, [sp, #0]
    2a7c:	002b      	movs	r3, r5
    2a7e:	8812      	ldrh	r2, [r2, #0]
    2a80:	3348      	adds	r3, #72	; 0x48
    2a82:	801a      	strh	r2, [r3, #0]
    2a84:	4b1a      	ldr	r3, [pc, #104]	; (2af0 <sampleTick+0x2b8>)
    2a86:	4798      	blx	r3
    2a88:	23fe      	movs	r3, #254	; 0xfe
    2a8a:	4c1b      	ldr	r4, [pc, #108]	; (2af8 <sampleTick+0x2c0>)
    2a8c:	2200      	movs	r2, #0
    2a8e:	059b      	lsls	r3, r3, #22
    2a90:	47a0      	blx	r4
    2a92:	47b8      	blx	r7
    2a94:	4b16      	ldr	r3, [pc, #88]	; (2af0 <sampleTick+0x2b8>)
    2a96:	63e8      	str	r0, [r5, #60]	; 0x3c
    2a98:	0030      	movs	r0, r6
    2a9a:	4798      	blx	r3
    2a9c:	23fe      	movs	r3, #254	; 0xfe
    2a9e:	2200      	movs	r2, #0
    2aa0:	059b      	lsls	r3, r3, #22
    2aa2:	47a0      	blx	r4
    2aa4:	47b8      	blx	r7
    2aa6:	4b12      	ldr	r3, [pc, #72]	; (2af0 <sampleTick+0x2b8>)
    2aa8:	6468      	str	r0, [r5, #68]	; 0x44
    2aaa:	9800      	ldr	r0, [sp, #0]
    2aac:	4798      	blx	r3
    2aae:	23fe      	movs	r3, #254	; 0xfe
    2ab0:	2200      	movs	r2, #0
    2ab2:	059b      	lsls	r3, r3, #22
    2ab4:	47a0      	blx	r4
    2ab6:	47b8      	blx	r7
    2ab8:	64e8      	str	r0, [r5, #76]	; 0x4c
    2aba:	20c8      	movs	r0, #200	; 0xc8
    2abc:	4b17      	ldr	r3, [pc, #92]	; (2b1c <sampleTick+0x2e4>)
    2abe:	0040      	lsls	r0, r0, #1
    2ac0:	4798      	blx	r3
    2ac2:	4b17      	ldr	r3, [pc, #92]	; (2b20 <sampleTick+0x2e8>)
    2ac4:	4798      	blx	r3
    2ac6:	4a1c      	ldr	r2, [pc, #112]	; (2b38 <sampleTick+0x300>)
    2ac8:	9901      	ldr	r1, [sp, #4]
    2aca:	4b1c      	ldr	r3, [pc, #112]	; (2b3c <sampleTick+0x304>)
    2acc:	4c1c      	ldr	r4, [pc, #112]	; (2b40 <sampleTick+0x308>)
    2ace:	47a0      	blx	r4
    2ad0:	6d28      	ldr	r0, [r5, #80]	; 0x50
    2ad2:	4b1c      	ldr	r3, [pc, #112]	; (2b44 <sampleTick+0x30c>)
    2ad4:	4798      	blx	r3
    2ad6:	65a8      	str	r0, [r5, #88]	; 0x58
    2ad8:	65e9      	str	r1, [r5, #92]	; 0x5c
    2ada:	bdf7      	pop	{r0, r1, r2, r4, r5, r6, r7, pc}
    2adc:	20000165 	.word	0x20000165
    2ae0:	20000578 	.word	0x20000578
    2ae4:	00001141 	.word	0x00001141
    2ae8:	00006494 	.word	0x00006494
    2aec:	00000dbd 	.word	0x00000dbd
    2af0:	0000614d 	.word	0x0000614d
    2af4:	a97e132b 	.word	0xa97e132b
    2af8:	00005505 	.word	0x00005505
    2afc:	3f65379f 	.word	0x3f65379f
    2b00:	000062e9 	.word	0x000062e9
    2b04:	42004000 	.word	0x42004000
    2b08:	ffff41c9 	.word	0xffff41c9
    2b0c:	abb44e51 	.word	0xabb44e51
    2b10:	3f73f290 	.word	0x3f73f290
    2b14:	41004400 	.word	0x41004400
    2b18:	00002c71 	.word	0x00002c71
    2b1c:	000010c1 	.word	0x000010c1
    2b20:	000003b5 	.word	0x000003b5
    2b24:	41004494 	.word	0x41004494
    2b28:	00002c89 	.word	0x00002c89
    2b2c:	41004498 	.word	0x41004498
    2b30:	20000158 	.word	0x20000158
    2b34:	2000057a 	.word	0x2000057a
    2b38:	200005cc 	.word	0x200005cc
    2b3c:	200005c8 	.word	0x200005c8
    2b40:	000003f5 	.word	0x000003f5
    2b44:	00000495 	.word	0x00000495

00002b48 <sercomClockEnable>:
    2b48:	b570      	push	{r4, r5, r6, lr}
    2b4a:	0004      	movs	r4, r0
    2b4c:	2301      	movs	r3, #1
    2b4e:	1ca6      	adds	r6, r4, #2
    2b50:	40b3      	lsls	r3, r6
    2b52:	480d      	ldr	r0, [pc, #52]	; (2b88 <sercomClockEnable+0x40>)
    2b54:	000d      	movs	r5, r1
    2b56:	6a01      	ldr	r1, [r0, #32]
    2b58:	430b      	orrs	r3, r1
    2b5a:	6203      	str	r3, [r0, #32]
    2b5c:	2d00      	cmp	r5, #0
    2b5e:	d003      	beq.n	2b68 <sercomClockEnable+0x20>
    2b60:	2107      	movs	r1, #7
    2b62:	0028      	movs	r0, r5
    2b64:	4b09      	ldr	r3, [pc, #36]	; (2b8c <sercomClockEnable+0x44>)
    2b66:	4798      	blx	r3
    2b68:	22f0      	movs	r2, #240	; 0xf0
    2b6a:	2080      	movs	r0, #128	; 0x80
    2b6c:	0229      	lsls	r1, r5, #8
    2b6e:	0112      	lsls	r2, r2, #4
    2b70:	4011      	ands	r1, r2
    2b72:	01c0      	lsls	r0, r0, #7
    2b74:	4301      	orrs	r1, r0
    2b76:	0020      	movs	r0, r4
    2b78:	3014      	adds	r0, #20
    2b7a:	223f      	movs	r2, #63	; 0x3f
    2b7c:	0003      	movs	r3, r0
    2b7e:	4013      	ands	r3, r2
    2b80:	4319      	orrs	r1, r3
    2b82:	4b03      	ldr	r3, [pc, #12]	; (2b90 <sercomClockEnable+0x48>)
    2b84:	8059      	strh	r1, [r3, #2]
    2b86:	bd70      	pop	{r4, r5, r6, pc}
    2b88:	40000400 	.word	0x40000400
    2b8c:	00000ff1 	.word	0x00000ff1
    2b90:	40000c00 	.word	0x40000c00

00002b94 <sercomReset>:
    2b94:	4b04      	ldr	r3, [pc, #16]	; (2ba8 <sercomReset+0x14>)
    2b96:	0280      	lsls	r0, r0, #10
    2b98:	18c0      	adds	r0, r0, r3
    2b9a:	2301      	movs	r3, #1
    2b9c:	6003      	str	r3, [r0, #0]
    2b9e:	6802      	ldr	r2, [r0, #0]
    2ba0:	421a      	tst	r2, r3
    2ba2:	d1fc      	bne.n	2b9e <sercomReset+0xa>
    2ba4:	4770      	bx	lr
    2ba6:	46c0      	nop			; (mov r8, r8)
    2ba8:	42000800 	.word	0x42000800

00002bac <sercomSpiMasterInit>:
    2bac:	b5f7      	push	{r0, r1, r2, r4, r5, r6, r7, lr}
    2bae:	0004      	movs	r4, r0
    2bb0:	9300      	str	r3, [sp, #0]
    2bb2:	ab08      	add	r3, sp, #32
    2bb4:	781b      	ldrb	r3, [r3, #0]
    2bb6:	000e      	movs	r6, r1
    2bb8:	9301      	str	r3, [sp, #4]
    2bba:	ab09      	add	r3, sp, #36	; 0x24
    2bbc:	781f      	ldrb	r7, [r3, #0]
    2bbe:	4b12      	ldr	r3, [pc, #72]	; (2c08 <sercomSpiMasterInit+0x5c>)
    2bc0:	0015      	movs	r5, r2
    2bc2:	4798      	blx	r3
    2bc4:	4b11      	ldr	r3, [pc, #68]	; (2c0c <sercomSpiMasterInit+0x60>)
    2bc6:	02a4      	lsls	r4, r4, #10
    2bc8:	18e4      	adds	r4, r4, r3
    2bca:	2380      	movs	r3, #128	; 0x80
    2bcc:	029b      	lsls	r3, r3, #10
    2bce:	6063      	str	r3, [r4, #4]
    2bd0:	23c0      	movs	r3, #192	; 0xc0
    2bd2:	21c0      	movs	r1, #192	; 0xc0
    2bd4:	042d      	lsls	r5, r5, #16
    2bd6:	029b      	lsls	r3, r3, #10
    2bd8:	402b      	ands	r3, r5
    2bda:	250e      	movs	r5, #14
    2bdc:	0536      	lsls	r6, r6, #20
    2bde:	0389      	lsls	r1, r1, #14
    2be0:	4031      	ands	r1, r6
    2be2:	9e00      	ldr	r6, [sp, #0]
    2be4:	431d      	orrs	r5, r3
    2be6:	1e73      	subs	r3, r6, #1
    2be8:	419e      	sbcs	r6, r3
    2bea:	9b01      	ldr	r3, [sp, #4]
    2bec:	0772      	lsls	r2, r6, #29
    2bee:	430d      	orrs	r5, r1
    2bf0:	432a      	orrs	r2, r5
    2bf2:	1e59      	subs	r1, r3, #1
    2bf4:	418b      	sbcs	r3, r1
    2bf6:	0016      	movs	r6, r2
    2bf8:	071b      	lsls	r3, r3, #28
    2bfa:	431e      	orrs	r6, r3
    2bfc:	7327      	strb	r7, [r4, #12]
    2bfe:	6026      	str	r6, [r4, #0]
    2c00:	69e3      	ldr	r3, [r4, #28]
    2c02:	075b      	lsls	r3, r3, #29
    2c04:	d4fc      	bmi.n	2c00 <sercomSpiMasterInit+0x54>
    2c06:	bdf7      	pop	{r0, r1, r2, r4, r5, r6, r7, pc}
    2c08:	00002b95 	.word	0x00002b95
    2c0c:	42000800 	.word	0x42000800

00002c10 <sercomUartInit>:
    2c10:	b570      	push	{r4, r5, r6, lr}
    2c12:	0006      	movs	r6, r0
    2c14:	4b0c      	ldr	r3, [pc, #48]	; (2c48 <sercomUartInit+0x38>)
    2c16:	000d      	movs	r5, r1
    2c18:	0014      	movs	r4, r2
    2c1a:	4798      	blx	r3
    2c1c:	4b0b      	ldr	r3, [pc, #44]	; (2c4c <sercomUartInit+0x3c>)
    2c1e:	02b0      	lsls	r0, r6, #10
    2c20:	18c0      	adds	r0, r0, r3
    2c22:	2304      	movs	r3, #4
    2c24:	22c0      	movs	r2, #192	; 0xc0
    2c26:	6003      	str	r3, [r0, #0]
    2c28:	4b09      	ldr	r3, [pc, #36]	; (2c50 <sercomUartInit+0x40>)
    2c2a:	0529      	lsls	r1, r5, #20
    2c2c:	8183      	strh	r3, [r0, #12]
    2c2e:	23c0      	movs	r3, #192	; 0xc0
    2c30:	0392      	lsls	r2, r2, #14
    2c32:	4011      	ands	r1, r2
    2c34:	4a07      	ldr	r2, [pc, #28]	; (2c54 <sercomUartInit+0x44>)
    2c36:	029b      	lsls	r3, r3, #10
    2c38:	0424      	lsls	r4, r4, #16
    2c3a:	6043      	str	r3, [r0, #4]
    2c3c:	4311      	orrs	r1, r2
    2c3e:	4023      	ands	r3, r4
    2c40:	430b      	orrs	r3, r1
    2c42:	6003      	str	r3, [r0, #0]
    2c44:	bd70      	pop	{r4, r5, r6, pc}
    2c46:	46c0      	nop			; (mov r8, r8)
    2c48:	00002b95 	.word	0x00002b95
    2c4c:	42000800 	.word	0x42000800
    2c50:	ffffb15b 	.word	0xffffb15b
    2c54:	40000006 	.word	0x40000006

00002c58 <spiDataTransfer>:
    2c58:	4b04      	ldr	r3, [pc, #16]	; (2c6c <spiDataTransfer+0x14>)
    2c5a:	0280      	lsls	r0, r0, #10
    2c5c:	18c0      	adds	r0, r0, r3
    2c5e:	6281      	str	r1, [r0, #40]	; 0x28
    2c60:	7e03      	ldrb	r3, [r0, #24]
    2c62:	075b      	lsls	r3, r3, #29
    2c64:	d5fc      	bpl.n	2c60 <spiDataTransfer+0x8>
    2c66:	6a80      	ldr	r0, [r0, #40]	; 0x28
    2c68:	b2c0      	uxtb	r0, r0
    2c6a:	4770      	bx	lr
    2c6c:	42000800 	.word	0x42000800

00002c70 <spiDataOut>:
    2c70:	4b04      	ldr	r3, [pc, #16]	; (2c84 <spiDataOut+0x14>)
    2c72:	0280      	lsls	r0, r0, #10
    2c74:	18c0      	adds	r0, r0, r3
    2c76:	6281      	str	r1, [r0, #40]	; 0x28
    2c78:	7e03      	ldrb	r3, [r0, #24]
    2c7a:	075b      	lsls	r3, r3, #29
    2c7c:	d5fc      	bpl.n	2c78 <spiDataOut+0x8>
    2c7e:	6a83      	ldr	r3, [r0, #40]	; 0x28
    2c80:	4770      	bx	lr
    2c82:	46c0      	nop			; (mov r8, r8)
    2c84:	42000800 	.word	0x42000800

00002c88 <spiDataIn>:
    2c88:	4b05      	ldr	r3, [pc, #20]	; (2ca0 <spiDataIn+0x18>)
    2c8a:	0280      	lsls	r0, r0, #10
    2c8c:	18c0      	adds	r0, r0, r3
    2c8e:	23ff      	movs	r3, #255	; 0xff
    2c90:	6283      	str	r3, [r0, #40]	; 0x28
    2c92:	7e03      	ldrb	r3, [r0, #24]
    2c94:	075b      	lsls	r3, r3, #29
    2c96:	d5fc      	bpl.n	2c92 <spiDataIn+0xa>
    2c98:	6a80      	ldr	r0, [r0, #40]	; 0x28
    2c9a:	b2c0      	uxtb	r0, r0
    2c9c:	4770      	bx	lr
    2c9e:	46c0      	nop			; (mov r8, r8)
    2ca0:	42000800 	.word	0x42000800

00002ca4 <usartDataOut>:
    2ca4:	4b04      	ldr	r3, [pc, #16]	; (2cb8 <usartDataOut+0x14>)
    2ca6:	0280      	lsls	r0, r0, #10
    2ca8:	18c0      	adds	r0, r0, r3
    2caa:	b289      	uxth	r1, r1
    2cac:	8501      	strh	r1, [r0, #40]	; 0x28
    2cae:	7e03      	ldrb	r3, [r0, #24]
    2cb0:	07db      	lsls	r3, r3, #31
    2cb2:	d5fc      	bpl.n	2cae <usartDataOut+0xa>
    2cb4:	4770      	bx	lr
    2cb6:	46c0      	nop			; (mov r8, r8)
    2cb8:	42000800 	.word	0x42000800

00002cbc <usartDataIn>:
    2cbc:	4b02      	ldr	r3, [pc, #8]	; (2cc8 <usartDataIn+0xc>)
    2cbe:	0280      	lsls	r0, r0, #10
    2cc0:	18c0      	adds	r0, r0, r3
    2cc2:	8d00      	ldrh	r0, [r0, #40]	; 0x28
    2cc4:	b2c0      	uxtb	r0, r0
    2cc6:	4770      	bx	lr
    2cc8:	42000800 	.word	0x42000800

00002ccc <findMainAltitude>:
    2ccc:	4a11      	ldr	r2, [pc, #68]	; (2d14 <findMainAltitude+0x48>)
    2cce:	7851      	ldrb	r1, [r2, #1]
    2cd0:	0013      	movs	r3, r2
    2cd2:	2900      	cmp	r1, #0
    2cd4:	d105      	bne.n	2ce2 <findMainAltitude+0x16>
    2cd6:	7811      	ldrb	r1, [r2, #0]
    2cd8:	2900      	cmp	r1, #0
    2cda:	d002      	beq.n	2ce2 <findMainAltitude+0x16>
    2cdc:	8853      	ldrh	r3, [r2, #2]
    2cde:	8313      	strh	r3, [r2, #24]
    2ce0:	e017      	b.n	2d12 <findMainAltitude+0x46>
    2ce2:	79da      	ldrb	r2, [r3, #7]
    2ce4:	2a00      	cmp	r2, #0
    2ce6:	d104      	bne.n	2cf2 <findMainAltitude+0x26>
    2ce8:	799a      	ldrb	r2, [r3, #6]
    2cea:	2a00      	cmp	r2, #0
    2cec:	d001      	beq.n	2cf2 <findMainAltitude+0x26>
    2cee:	891a      	ldrh	r2, [r3, #8]
    2cf0:	e00e      	b.n	2d10 <findMainAltitude+0x44>
    2cf2:	7b5a      	ldrb	r2, [r3, #13]
    2cf4:	2a00      	cmp	r2, #0
    2cf6:	d104      	bne.n	2d02 <findMainAltitude+0x36>
    2cf8:	7b1a      	ldrb	r2, [r3, #12]
    2cfa:	2a00      	cmp	r2, #0
    2cfc:	d001      	beq.n	2d02 <findMainAltitude+0x36>
    2cfe:	89da      	ldrh	r2, [r3, #14]
    2d00:	e006      	b.n	2d10 <findMainAltitude+0x44>
    2d02:	7cda      	ldrb	r2, [r3, #19]
    2d04:	2a00      	cmp	r2, #0
    2d06:	d104      	bne.n	2d12 <findMainAltitude+0x46>
    2d08:	7c9a      	ldrb	r2, [r3, #18]
    2d0a:	2a00      	cmp	r2, #0
    2d0c:	d001      	beq.n	2d12 <findMainAltitude+0x46>
    2d0e:	8a9a      	ldrh	r2, [r3, #20]
    2d10:	831a      	strh	r2, [r3, #24]
    2d12:	4770      	bx	lr
    2d14:	20000138 	.word	0x20000138

00002d18 <applyDefaultSettings>:
    2d18:	2096      	movs	r0, #150	; 0x96
    2d1a:	2200      	movs	r2, #0
    2d1c:	2101      	movs	r1, #1
    2d1e:	4b09      	ldr	r3, [pc, #36]	; (2d44 <applyDefaultSettings+0x2c>)
    2d20:	0040      	lsls	r0, r0, #1
    2d22:	7019      	strb	r1, [r3, #0]
    2d24:	7059      	strb	r1, [r3, #1]
    2d26:	805a      	strh	r2, [r3, #2]
    2d28:	711a      	strb	r2, [r3, #4]
    2d2a:	7199      	strb	r1, [r3, #6]
    2d2c:	71da      	strb	r2, [r3, #7]
    2d2e:	8118      	strh	r0, [r3, #8]
    2d30:	729a      	strb	r2, [r3, #10]
    2d32:	731a      	strb	r2, [r3, #12]
    2d34:	7359      	strb	r1, [r3, #13]
    2d36:	81da      	strh	r2, [r3, #14]
    2d38:	741a      	strb	r2, [r3, #16]
    2d3a:	749a      	strb	r2, [r3, #18]
    2d3c:	74da      	strb	r2, [r3, #19]
    2d3e:	8298      	strh	r0, [r3, #20]
    2d40:	759a      	strb	r2, [r3, #22]
    2d42:	4770      	bx	lr
    2d44:	20000138 	.word	0x20000138

00002d48 <putSettings>:
    2d48:	b500      	push	{lr}
    2d4a:	b0c1      	sub	sp, #260	; 0x104
    2d4c:	4669      	mov	r1, sp
    2d4e:	4668      	mov	r0, sp
    2d50:	4b17      	ldr	r3, [pc, #92]	; (2db0 <putSettings+0x68>)
    2d52:	781a      	ldrb	r2, [r3, #0]
    2d54:	700a      	strb	r2, [r1, #0]
    2d56:	785a      	ldrb	r2, [r3, #1]
    2d58:	704a      	strb	r2, [r1, #1]
    2d5a:	885a      	ldrh	r2, [r3, #2]
    2d5c:	0a11      	lsrs	r1, r2, #8
    2d5e:	7081      	strb	r1, [r0, #2]
    2d60:	70c2      	strb	r2, [r0, #3]
    2d62:	791a      	ldrb	r2, [r3, #4]
    2d64:	7102      	strb	r2, [r0, #4]
    2d66:	799a      	ldrb	r2, [r3, #6]
    2d68:	7142      	strb	r2, [r0, #5]
    2d6a:	79da      	ldrb	r2, [r3, #7]
    2d6c:	7182      	strb	r2, [r0, #6]
    2d6e:	891a      	ldrh	r2, [r3, #8]
    2d70:	0a11      	lsrs	r1, r2, #8
    2d72:	71c1      	strb	r1, [r0, #7]
    2d74:	7202      	strb	r2, [r0, #8]
    2d76:	7a9a      	ldrb	r2, [r3, #10]
    2d78:	7242      	strb	r2, [r0, #9]
    2d7a:	7b1a      	ldrb	r2, [r3, #12]
    2d7c:	7282      	strb	r2, [r0, #10]
    2d7e:	7b5a      	ldrb	r2, [r3, #13]
    2d80:	72c2      	strb	r2, [r0, #11]
    2d82:	89da      	ldrh	r2, [r3, #14]
    2d84:	0a11      	lsrs	r1, r2, #8
    2d86:	7301      	strb	r1, [r0, #12]
    2d88:	7342      	strb	r2, [r0, #13]
    2d8a:	7c1a      	ldrb	r2, [r3, #16]
    2d8c:	7382      	strb	r2, [r0, #14]
    2d8e:	7c9a      	ldrb	r2, [r3, #18]
    2d90:	73c2      	strb	r2, [r0, #15]
    2d92:	7cda      	ldrb	r2, [r3, #19]
    2d94:	7402      	strb	r2, [r0, #16]
    2d96:	8a9a      	ldrh	r2, [r3, #20]
    2d98:	0a11      	lsrs	r1, r2, #8
    2d9a:	7441      	strb	r1, [r0, #17]
    2d9c:	7482      	strb	r2, [r0, #18]
    2d9e:	7d9b      	ldrb	r3, [r3, #22]
    2da0:	4669      	mov	r1, sp
    2da2:	74c3      	strb	r3, [r0, #19]
    2da4:	2000      	movs	r0, #0
    2da6:	4b03      	ldr	r3, [pc, #12]	; (2db4 <putSettings+0x6c>)
    2da8:	7508      	strb	r0, [r1, #20]
    2daa:	4798      	blx	r3
    2dac:	b041      	add	sp, #260	; 0x104
    2dae:	bd00      	pop	{pc}
    2db0:	20000138 	.word	0x20000138
    2db4:	000002a5 	.word	0x000002a5

00002db8 <getSettings>:
    2db8:	b500      	push	{lr}
    2dba:	b0c1      	sub	sp, #260	; 0x104
    2dbc:	4669      	mov	r1, sp
    2dbe:	4b2c      	ldr	r3, [pc, #176]	; (2e70 <getSettings+0xb8>)
    2dc0:	2000      	movs	r0, #0
    2dc2:	4798      	blx	r3
    2dc4:	466a      	mov	r2, sp
    2dc6:	7812      	ldrb	r2, [r2, #0]
    2dc8:	4b2a      	ldr	r3, [pc, #168]	; (2e74 <getSettings+0xbc>)
    2dca:	1e51      	subs	r1, r2, #1
    2dcc:	418a      	sbcs	r2, r1
    2dce:	701a      	strb	r2, [r3, #0]
    2dd0:	466a      	mov	r2, sp
    2dd2:	7852      	ldrb	r2, [r2, #1]
    2dd4:	4669      	mov	r1, sp
    2dd6:	705a      	strb	r2, [r3, #1]
    2dd8:	466a      	mov	r2, sp
    2dda:	7892      	ldrb	r2, [r2, #2]
    2ddc:	78c9      	ldrb	r1, [r1, #3]
    2dde:	0212      	lsls	r2, r2, #8
    2de0:	430a      	orrs	r2, r1
    2de2:	805a      	strh	r2, [r3, #2]
    2de4:	466a      	mov	r2, sp
    2de6:	7912      	ldrb	r2, [r2, #4]
    2de8:	711a      	strb	r2, [r3, #4]
    2dea:	466a      	mov	r2, sp
    2dec:	7952      	ldrb	r2, [r2, #5]
    2dee:	1e51      	subs	r1, r2, #1
    2df0:	418a      	sbcs	r2, r1
    2df2:	719a      	strb	r2, [r3, #6]
    2df4:	466a      	mov	r2, sp
    2df6:	7992      	ldrb	r2, [r2, #6]
    2df8:	4669      	mov	r1, sp
    2dfa:	71da      	strb	r2, [r3, #7]
    2dfc:	466a      	mov	r2, sp
    2dfe:	79d2      	ldrb	r2, [r2, #7]
    2e00:	7a09      	ldrb	r1, [r1, #8]
    2e02:	0212      	lsls	r2, r2, #8
    2e04:	430a      	orrs	r2, r1
    2e06:	811a      	strh	r2, [r3, #8]
    2e08:	466a      	mov	r2, sp
    2e0a:	7a52      	ldrb	r2, [r2, #9]
    2e0c:	729a      	strb	r2, [r3, #10]
    2e0e:	466a      	mov	r2, sp
    2e10:	7a92      	ldrb	r2, [r2, #10]
    2e12:	1e51      	subs	r1, r2, #1
    2e14:	418a      	sbcs	r2, r1
    2e16:	731a      	strb	r2, [r3, #12]
    2e18:	466a      	mov	r2, sp
    2e1a:	7ad2      	ldrb	r2, [r2, #11]
    2e1c:	4669      	mov	r1, sp
    2e1e:	735a      	strb	r2, [r3, #13]
    2e20:	466a      	mov	r2, sp
    2e22:	7b12      	ldrb	r2, [r2, #12]
    2e24:	7b49      	ldrb	r1, [r1, #13]
    2e26:	0212      	lsls	r2, r2, #8
    2e28:	430a      	orrs	r2, r1
    2e2a:	81da      	strh	r2, [r3, #14]
    2e2c:	466a      	mov	r2, sp
    2e2e:	7b92      	ldrb	r2, [r2, #14]
    2e30:	741a      	strb	r2, [r3, #16]
    2e32:	466a      	mov	r2, sp
    2e34:	7bd2      	ldrb	r2, [r2, #15]
    2e36:	1e51      	subs	r1, r2, #1
    2e38:	418a      	sbcs	r2, r1
    2e3a:	749a      	strb	r2, [r3, #18]
    2e3c:	466a      	mov	r2, sp
    2e3e:	7c12      	ldrb	r2, [r2, #16]
    2e40:	4669      	mov	r1, sp
    2e42:	74da      	strb	r2, [r3, #19]
    2e44:	466a      	mov	r2, sp
    2e46:	7c52      	ldrb	r2, [r2, #17]
    2e48:	7c89      	ldrb	r1, [r1, #18]
    2e4a:	0212      	lsls	r2, r2, #8
    2e4c:	430a      	orrs	r2, r1
    2e4e:	829a      	strh	r2, [r3, #20]
    2e50:	466a      	mov	r2, sp
    2e52:	7cd2      	ldrb	r2, [r2, #19]
    2e54:	759a      	strb	r2, [r3, #22]
    2e56:	466b      	mov	r3, sp
    2e58:	7d1b      	ldrb	r3, [r3, #20]
    2e5a:	2bff      	cmp	r3, #255	; 0xff
    2e5c:	d103      	bne.n	2e66 <getSettings+0xae>
    2e5e:	4b06      	ldr	r3, [pc, #24]	; (2e78 <getSettings+0xc0>)
    2e60:	4798      	blx	r3
    2e62:	4b06      	ldr	r3, [pc, #24]	; (2e7c <getSettings+0xc4>)
    2e64:	4798      	blx	r3
    2e66:	4b06      	ldr	r3, [pc, #24]	; (2e80 <getSettings+0xc8>)
    2e68:	4798      	blx	r3
    2e6a:	b041      	add	sp, #260	; 0x104
    2e6c:	bd00      	pop	{pc}
    2e6e:	46c0      	nop			; (mov r8, r8)
    2e70:	0000035d 	.word	0x0000035d
    2e74:	20000138 	.word	0x20000138
    2e78:	00002d19 	.word	0x00002d19
    2e7c:	00002d49 	.word	0x00002d49
    2e80:	00002ccd 	.word	0x00002ccd

00002e84 <sendFlightLogs>:
    2e84:	b5f7      	push	{r0, r1, r2, r4, r5, r6, r7, lr}
    2e86:	2400      	movs	r4, #0
    2e88:	0020      	movs	r0, r4
    2e8a:	4b1e      	ldr	r3, [pc, #120]	; (2f04 <sendFlightLogs+0x80>)
    2e8c:	4798      	blx	r3
    2e8e:	2800      	cmp	r0, #0
    2e90:	d003      	beq.n	2e9a <sendFlightLogs+0x16>
    2e92:	0021      	movs	r1, r4
    2e94:	2003      	movs	r0, #3
    2e96:	4b1c      	ldr	r3, [pc, #112]	; (2f08 <sendFlightLogs+0x84>)
    2e98:	4798      	blx	r3
    2e9a:	3401      	adds	r4, #1
    2e9c:	b2e4      	uxtb	r4, r4
    2e9e:	2c14      	cmp	r4, #20
    2ea0:	d1f2      	bne.n	2e88 <sendFlightLogs+0x4>
    2ea2:	21ff      	movs	r1, #255	; 0xff
    2ea4:	2003      	movs	r0, #3
    2ea6:	4c18      	ldr	r4, [pc, #96]	; (2f08 <sendFlightLogs+0x84>)
    2ea8:	47a0      	blx	r4
    2eaa:	4a18      	ldr	r2, [pc, #96]	; (2f0c <sendFlightLogs+0x88>)
    2eac:	7e13      	ldrb	r3, [r2, #24]
    2eae:	075b      	lsls	r3, r3, #29
    2eb0:	d5fc      	bpl.n	2eac <sendFlightLogs+0x28>
    2eb2:	4b17      	ldr	r3, [pc, #92]	; (2f10 <sendFlightLogs+0x8c>)
    2eb4:	2003      	movs	r0, #3
    2eb6:	4798      	blx	r3
    2eb8:	466b      	mov	r3, sp
    2eba:	71d8      	strb	r0, [r3, #7]
    2ebc:	79d8      	ldrb	r0, [r3, #7]
    2ebe:	1ddd      	adds	r5, r3, #7
    2ec0:	b2c0      	uxtb	r0, r0
    2ec2:	4b14      	ldr	r3, [pc, #80]	; (2f14 <sendFlightLogs+0x90>)
    2ec4:	4798      	blx	r3
    2ec6:	0007      	movs	r7, r0
    2ec8:	7828      	ldrb	r0, [r5, #0]
    2eca:	4b13      	ldr	r3, [pc, #76]	; (2f18 <sendFlightLogs+0x94>)
    2ecc:	b2c0      	uxtb	r0, r0
    2ece:	4798      	blx	r3
    2ed0:	0006      	movs	r6, r0
    2ed2:	1bc5      	subs	r5, r0, r7
    2ed4:	0a2d      	lsrs	r5, r5, #8
    2ed6:	b2e9      	uxtb	r1, r5
    2ed8:	2003      	movs	r0, #3
    2eda:	47a0      	blx	r4
    2edc:	b2a9      	uxth	r1, r5
    2ede:	0a09      	lsrs	r1, r1, #8
    2ee0:	2003      	movs	r0, #3
    2ee2:	47a0      	blx	r4
    2ee4:	b2f1      	uxtb	r1, r6
    2ee6:	2003      	movs	r0, #3
    2ee8:	47a0      	blx	r4
    2eea:	0a31      	lsrs	r1, r6, #8
    2eec:	b2c9      	uxtb	r1, r1
    2eee:	2003      	movs	r0, #3
    2ef0:	47a0      	blx	r4
    2ef2:	0c31      	lsrs	r1, r6, #16
    2ef4:	b2c9      	uxtb	r1, r1
    2ef6:	2003      	movs	r0, #3
    2ef8:	47a0      	blx	r4
    2efa:	0031      	movs	r1, r6
    2efc:	0038      	movs	r0, r7
    2efe:	4b07      	ldr	r3, [pc, #28]	; (2f1c <sendFlightLogs+0x98>)
    2f00:	4798      	blx	r3
    2f02:	bdf7      	pop	{r0, r1, r2, r4, r5, r6, r7, pc}
    2f04:	000026a5 	.word	0x000026a5
    2f08:	00002ca5 	.word	0x00002ca5
    2f0c:	42001400 	.word	0x42001400
    2f10:	00002cbd 	.word	0x00002cbd
    2f14:	00002655 	.word	0x00002655
    2f18:	0000267d 	.word	0x0000267d
    2f1c:	00000ad5 	.word	0x00000ad5

00002f20 <attemptConnection>:
    2f20:	b570      	push	{r4, r5, r6, lr}
    2f22:	4b14      	ldr	r3, [pc, #80]	; (2f74 <attemptConnection+0x54>)
    2f24:	4798      	blx	r3
    2f26:	2800      	cmp	r0, #0
    2f28:	d022      	beq.n	2f70 <attemptConnection+0x50>
    2f2a:	2201      	movs	r2, #1
    2f2c:	4b12      	ldr	r3, [pc, #72]	; (2f78 <attemptConnection+0x58>)
    2f2e:	701a      	strb	r2, [r3, #0]
    2f30:	4a12      	ldr	r2, [pc, #72]	; (2f7c <attemptConnection+0x5c>)
    2f32:	7e13      	ldrb	r3, [r2, #24]
    2f34:	075b      	lsls	r3, r3, #29
    2f36:	d5fc      	bpl.n	2f32 <attemptConnection+0x12>
    2f38:	2003      	movs	r0, #3
    2f3a:	4b11      	ldr	r3, [pc, #68]	; (2f80 <attemptConnection+0x60>)
    2f3c:	4798      	blx	r3
    2f3e:	1e04      	subs	r4, r0, #0
    2f40:	2c4c      	cmp	r4, #76	; 0x4c
    2f42:	d102      	bne.n	2f4a <attemptConnection+0x2a>
    2f44:	4b0f      	ldr	r3, [pc, #60]	; (2f84 <attemptConnection+0x64>)
    2f46:	4798      	blx	r3
    2f48:	e012      	b.n	2f70 <attemptConnection+0x50>
    2f4a:	2845      	cmp	r0, #69	; 0x45
    2f4c:	d110      	bne.n	2f70 <attemptConnection+0x50>
    2f4e:	4e0e      	ldr	r6, [pc, #56]	; (2f88 <attemptConnection+0x68>)
    2f50:	47b0      	blx	r6
    2f52:	4d0e      	ldr	r5, [pc, #56]	; (2f8c <attemptConnection+0x6c>)
    2f54:	47a8      	blx	r5
    2f56:	2064      	movs	r0, #100	; 0x64
    2f58:	4b0d      	ldr	r3, [pc, #52]	; (2f90 <attemptConnection+0x70>)
    2f5a:	4798      	blx	r3
    2f5c:	47b0      	blx	r6
    2f5e:	47a8      	blx	r5
    2f60:	2003      	movs	r0, #3
    2f62:	4b0c      	ldr	r3, [pc, #48]	; (2f94 <attemptConnection+0x74>)
    2f64:	0021      	movs	r1, r4
    2f66:	4798      	blx	r3
    2f68:	20c8      	movs	r0, #200	; 0xc8
    2f6a:	4b0b      	ldr	r3, [pc, #44]	; (2f98 <attemptConnection+0x78>)
    2f6c:	0040      	lsls	r0, r0, #1
    2f6e:	4798      	blx	r3
    2f70:	bd70      	pop	{r4, r5, r6, pc}
    2f72:	46c0      	nop			; (mov r8, r8)
    2f74:	00000aa1 	.word	0x00000aa1
    2f78:	20000164 	.word	0x20000164
    2f7c:	42001400 	.word	0x42001400
    2f80:	00002cbd 	.word	0x00002cbd
    2f84:	00002e85 	.word	0x00002e85
    2f88:	00000219 	.word	0x00000219
    2f8c:	000001e5 	.word	0x000001e5
    2f90:	000010f5 	.word	0x000010f5
    2f94:	00002ca5 	.word	0x00002ca5
    2f98:	00000e25 	.word	0x00000e25

00002f9c <pow>:
    2f9c:	b5f0      	push	{r4, r5, r6, r7, lr}
    2f9e:	465f      	mov	r7, fp
    2fa0:	464d      	mov	r5, r9
    2fa2:	4656      	mov	r6, sl
    2fa4:	4644      	mov	r4, r8
    2fa6:	b4f0      	push	{r4, r5, r6, r7}
    2fa8:	b091      	sub	sp, #68	; 0x44
    2faa:	001f      	movs	r7, r3
    2fac:	0004      	movs	r4, r0
    2fae:	000d      	movs	r5, r1
    2fb0:	0016      	movs	r6, r2
    2fb2:	f000 f9af 	bl	3314 <__ieee754_pow>
    2fb6:	4bcf      	ldr	r3, [pc, #828]	; (32f4 <pow+0x358>)
    2fb8:	9002      	str	r0, [sp, #8]
    2fba:	9103      	str	r1, [sp, #12]
    2fbc:	469b      	mov	fp, r3
    2fbe:	781b      	ldrb	r3, [r3, #0]
    2fc0:	b25b      	sxtb	r3, r3
    2fc2:	4699      	mov	r9, r3
    2fc4:	3301      	adds	r3, #1
    2fc6:	d04f      	beq.n	3068 <pow+0xcc>
    2fc8:	0032      	movs	r2, r6
    2fca:	003b      	movs	r3, r7
    2fcc:	0030      	movs	r0, r6
    2fce:	0039      	movs	r1, r7
    2fd0:	f003 f866 	bl	60a0 <__aeabi_dcmpun>
    2fd4:	9000      	str	r0, [sp, #0]
    2fd6:	2800      	cmp	r0, #0
    2fd8:	d146      	bne.n	3068 <pow+0xcc>
    2fda:	0022      	movs	r2, r4
    2fdc:	002b      	movs	r3, r5
    2fde:	0020      	movs	r0, r4
    2fe0:	0029      	movs	r1, r5
    2fe2:	f003 f85d 	bl	60a0 <__aeabi_dcmpun>
    2fe6:	2200      	movs	r2, #0
    2fe8:	4682      	mov	sl, r0
    2fea:	2800      	cmp	r0, #0
    2fec:	d134      	bne.n	3058 <pow+0xbc>
    2fee:	2300      	movs	r3, #0
    2ff0:	0020      	movs	r0, r4
    2ff2:	0029      	movs	r1, r5
    2ff4:	f001 f988 	bl	4308 <__aeabi_dcmpeq>
    2ff8:	2800      	cmp	r0, #0
    2ffa:	d03a      	beq.n	3072 <pow+0xd6>
    2ffc:	2200      	movs	r2, #0
    2ffe:	2300      	movs	r3, #0
    3000:	0030      	movs	r0, r6
    3002:	0039      	movs	r1, r7
    3004:	f001 f980 	bl	4308 <__aeabi_dcmpeq>
    3008:	9005      	str	r0, [sp, #20]
    300a:	2800      	cmp	r0, #0
    300c:	d100      	bne.n	3010 <pow+0x74>
    300e:	e074      	b.n	30fa <pow+0x15e>
    3010:	ab06      	add	r3, sp, #24
    3012:	4698      	mov	r8, r3
    3014:	2301      	movs	r3, #1
    3016:	4642      	mov	r2, r8
    3018:	9306      	str	r3, [sp, #24]
    301a:	4bb7      	ldr	r3, [pc, #732]	; (32f8 <pow+0x35c>)
    301c:	6053      	str	r3, [r2, #4]
    301e:	4643      	mov	r3, r8
    3020:	4652      	mov	r2, sl
    3022:	609c      	str	r4, [r3, #8]
    3024:	60dd      	str	r5, [r3, #12]
    3026:	621a      	str	r2, [r3, #32]
    3028:	611e      	str	r6, [r3, #16]
    302a:	615f      	str	r7, [r3, #20]
    302c:	4642      	mov	r2, r8
    302e:	2300      	movs	r3, #0
    3030:	2400      	movs	r4, #0
    3032:	6193      	str	r3, [r2, #24]
    3034:	61d4      	str	r4, [r2, #28]
    3036:	464b      	mov	r3, r9
    3038:	2b00      	cmp	r3, #0
    303a:	d100      	bne.n	303e <pow+0xa2>
    303c:	e094      	b.n	3168 <pow+0x1cc>
    303e:	2300      	movs	r3, #0
    3040:	4cae      	ldr	r4, [pc, #696]	; (32fc <pow+0x360>)
    3042:	9300      	str	r3, [sp, #0]
    3044:	9401      	str	r4, [sp, #4]
    3046:	9800      	ldr	r0, [sp, #0]
    3048:	9901      	ldr	r1, [sp, #4]
    304a:	b011      	add	sp, #68	; 0x44
    304c:	bc3c      	pop	{r2, r3, r4, r5}
    304e:	4690      	mov	r8, r2
    3050:	4699      	mov	r9, r3
    3052:	46a2      	mov	sl, r4
    3054:	46ab      	mov	fp, r5
    3056:	bdf0      	pop	{r4, r5, r6, r7, pc}
    3058:	2300      	movs	r3, #0
    305a:	0030      	movs	r0, r6
    305c:	0039      	movs	r1, r7
    305e:	f001 f953 	bl	4308 <__aeabi_dcmpeq>
    3062:	2800      	cmp	r0, #0
    3064:	d000      	beq.n	3068 <pow+0xcc>
    3066:	e0eb      	b.n	3240 <pow+0x2a4>
    3068:	9b02      	ldr	r3, [sp, #8]
    306a:	9c03      	ldr	r4, [sp, #12]
    306c:	9300      	str	r3, [sp, #0]
    306e:	9401      	str	r4, [sp, #4]
    3070:	e7e9      	b.n	3046 <pow+0xaa>
    3072:	9802      	ldr	r0, [sp, #8]
    3074:	9903      	ldr	r1, [sp, #12]
    3076:	f000 ff7d 	bl	3f74 <finite>
    307a:	4681      	mov	r9, r0
    307c:	2800      	cmp	r0, #0
    307e:	d100      	bne.n	3082 <pow+0xe6>
    3080:	e086      	b.n	3190 <pow+0x1f4>
    3082:	9802      	ldr	r0, [sp, #8]
    3084:	9903      	ldr	r1, [sp, #12]
    3086:	2200      	movs	r2, #0
    3088:	2300      	movs	r3, #0
    308a:	f001 f93d 	bl	4308 <__aeabi_dcmpeq>
    308e:	2800      	cmp	r0, #0
    3090:	d0ea      	beq.n	3068 <pow+0xcc>
    3092:	0020      	movs	r0, r4
    3094:	0029      	movs	r1, r5
    3096:	f000 ff6d 	bl	3f74 <finite>
    309a:	9a02      	ldr	r2, [sp, #8]
    309c:	9b03      	ldr	r3, [sp, #12]
    309e:	9200      	str	r2, [sp, #0]
    30a0:	9301      	str	r3, [sp, #4]
    30a2:	2800      	cmp	r0, #0
    30a4:	d0cf      	beq.n	3046 <pow+0xaa>
    30a6:	0030      	movs	r0, r6
    30a8:	0039      	movs	r1, r7
    30aa:	f000 ff63 	bl	3f74 <finite>
    30ae:	9a02      	ldr	r2, [sp, #8]
    30b0:	9b03      	ldr	r3, [sp, #12]
    30b2:	9200      	str	r2, [sp, #0]
    30b4:	9301      	str	r3, [sp, #4]
    30b6:	2800      	cmp	r0, #0
    30b8:	d0c5      	beq.n	3046 <pow+0xaa>
    30ba:	ab06      	add	r3, sp, #24
    30bc:	4698      	mov	r8, r3
    30be:	2304      	movs	r3, #4
    30c0:	4642      	mov	r2, r8
    30c2:	9306      	str	r3, [sp, #24]
    30c4:	4b8c      	ldr	r3, [pc, #560]	; (32f8 <pow+0x35c>)
    30c6:	6094      	str	r4, [r2, #8]
    30c8:	60d5      	str	r5, [r2, #12]
    30ca:	6053      	str	r3, [r2, #4]
    30cc:	2300      	movs	r3, #0
    30ce:	2400      	movs	r4, #0
    30d0:	6213      	str	r3, [r2, #32]
    30d2:	2300      	movs	r3, #0
    30d4:	6193      	str	r3, [r2, #24]
    30d6:	61d4      	str	r4, [r2, #28]
    30d8:	465b      	mov	r3, fp
    30da:	781b      	ldrb	r3, [r3, #0]
    30dc:	6116      	str	r6, [r2, #16]
    30de:	6157      	str	r7, [r2, #20]
    30e0:	b25b      	sxtb	r3, r3
    30e2:	2b02      	cmp	r3, #2
    30e4:	d004      	beq.n	30f0 <pow+0x154>
    30e6:	4640      	mov	r0, r8
    30e8:	f000 ff4e 	bl	3f88 <matherr>
    30ec:	2800      	cmp	r0, #0
    30ee:	d140      	bne.n	3172 <pow+0x1d6>
    30f0:	f003 f9a4 	bl	643c <__errno>
    30f4:	2322      	movs	r3, #34	; 0x22
    30f6:	6003      	str	r3, [r0, #0]
    30f8:	e03b      	b.n	3172 <pow+0x1d6>
    30fa:	0030      	movs	r0, r6
    30fc:	0039      	movs	r1, r7
    30fe:	f000 ff39 	bl	3f74 <finite>
    3102:	9a02      	ldr	r2, [sp, #8]
    3104:	9b03      	ldr	r3, [sp, #12]
    3106:	9200      	str	r2, [sp, #0]
    3108:	9301      	str	r3, [sp, #4]
    310a:	2800      	cmp	r0, #0
    310c:	d09b      	beq.n	3046 <pow+0xaa>
    310e:	2200      	movs	r2, #0
    3110:	2300      	movs	r3, #0
    3112:	0030      	movs	r0, r6
    3114:	0039      	movs	r1, r7
    3116:	f001 f8fd 	bl	4314 <__aeabi_dcmplt>
    311a:	2800      	cmp	r0, #0
    311c:	d100      	bne.n	3120 <pow+0x184>
    311e:	e792      	b.n	3046 <pow+0xaa>
    3120:	ab06      	add	r3, sp, #24
    3122:	4698      	mov	r8, r3
    3124:	2301      	movs	r3, #1
    3126:	4642      	mov	r2, r8
    3128:	9306      	str	r3, [sp, #24]
    312a:	4b73      	ldr	r3, [pc, #460]	; (32f8 <pow+0x35c>)
    312c:	6053      	str	r3, [r2, #4]
    312e:	4643      	mov	r3, r8
    3130:	9a05      	ldr	r2, [sp, #20]
    3132:	609c      	str	r4, [r3, #8]
    3134:	60dd      	str	r5, [r3, #12]
    3136:	621a      	str	r2, [r3, #32]
    3138:	611e      	str	r6, [r3, #16]
    313a:	615f      	str	r7, [r3, #20]
    313c:	465b      	mov	r3, fp
    313e:	781b      	ldrb	r3, [r3, #0]
    3140:	b25b      	sxtb	r3, r3
    3142:	2b00      	cmp	r3, #0
    3144:	d00b      	beq.n	315e <pow+0x1c2>
    3146:	2000      	movs	r0, #0
    3148:	4642      	mov	r2, r8
    314a:	496d      	ldr	r1, [pc, #436]	; (3300 <pow+0x364>)
    314c:	6190      	str	r0, [r2, #24]
    314e:	61d1      	str	r1, [r2, #28]
    3150:	2b02      	cmp	r3, #2
    3152:	d109      	bne.n	3168 <pow+0x1cc>
    3154:	f003 f972 	bl	643c <__errno>
    3158:	2321      	movs	r3, #33	; 0x21
    315a:	6003      	str	r3, [r0, #0]
    315c:	e009      	b.n	3172 <pow+0x1d6>
    315e:	4642      	mov	r2, r8
    3160:	2300      	movs	r3, #0
    3162:	2400      	movs	r4, #0
    3164:	6193      	str	r3, [r2, #24]
    3166:	61d4      	str	r4, [r2, #28]
    3168:	4640      	mov	r0, r8
    316a:	f000 ff0d 	bl	3f88 <matherr>
    316e:	2800      	cmp	r0, #0
    3170:	d0f0      	beq.n	3154 <pow+0x1b8>
    3172:	4643      	mov	r3, r8
    3174:	6a1b      	ldr	r3, [r3, #32]
    3176:	2b00      	cmp	r3, #0
    3178:	d004      	beq.n	3184 <pow+0x1e8>
    317a:	f003 f95f 	bl	643c <__errno>
    317e:	4643      	mov	r3, r8
    3180:	6a1b      	ldr	r3, [r3, #32]
    3182:	6003      	str	r3, [r0, #0]
    3184:	4643      	mov	r3, r8
    3186:	69dc      	ldr	r4, [r3, #28]
    3188:	699b      	ldr	r3, [r3, #24]
    318a:	9300      	str	r3, [sp, #0]
    318c:	9401      	str	r4, [sp, #4]
    318e:	e75a      	b.n	3046 <pow+0xaa>
    3190:	0020      	movs	r0, r4
    3192:	0029      	movs	r1, r5
    3194:	f000 feee 	bl	3f74 <finite>
    3198:	2800      	cmp	r0, #0
    319a:	d100      	bne.n	319e <pow+0x202>
    319c:	e771      	b.n	3082 <pow+0xe6>
    319e:	0030      	movs	r0, r6
    31a0:	0039      	movs	r1, r7
    31a2:	f000 fee7 	bl	3f74 <finite>
    31a6:	2800      	cmp	r0, #0
    31a8:	d100      	bne.n	31ac <pow+0x210>
    31aa:	e76a      	b.n	3082 <pow+0xe6>
    31ac:	9802      	ldr	r0, [sp, #8]
    31ae:	9903      	ldr	r1, [sp, #12]
    31b0:	000b      	movs	r3, r1
    31b2:	0002      	movs	r2, r0
    31b4:	f002 ff74 	bl	60a0 <__aeabi_dcmpun>
    31b8:	ab06      	add	r3, sp, #24
    31ba:	4698      	mov	r8, r3
    31bc:	2800      	cmp	r0, #0
    31be:	d17a      	bne.n	32b6 <pow+0x31a>
    31c0:	2303      	movs	r3, #3
    31c2:	4642      	mov	r2, r8
    31c4:	9306      	str	r3, [sp, #24]
    31c6:	4b4c      	ldr	r3, [pc, #304]	; (32f8 <pow+0x35c>)
    31c8:	6210      	str	r0, [r2, #32]
    31ca:	6053      	str	r3, [r2, #4]
    31cc:	465b      	mov	r3, fp
    31ce:	781b      	ldrb	r3, [r3, #0]
    31d0:	6094      	str	r4, [r2, #8]
    31d2:	60d5      	str	r5, [r2, #12]
    31d4:	b25b      	sxtb	r3, r3
    31d6:	6116      	str	r6, [r2, #16]
    31d8:	6157      	str	r7, [r2, #20]
    31da:	4699      	mov	r9, r3
    31dc:	2b00      	cmp	r3, #0
    31de:	d148      	bne.n	3272 <pow+0x2d6>
    31e0:	22e0      	movs	r2, #224	; 0xe0
    31e2:	4641      	mov	r1, r8
    31e4:	4b47      	ldr	r3, [pc, #284]	; (3304 <pow+0x368>)
    31e6:	0612      	lsls	r2, r2, #24
    31e8:	618a      	str	r2, [r1, #24]
    31ea:	61cb      	str	r3, [r1, #28]
    31ec:	0020      	movs	r0, r4
    31ee:	2200      	movs	r2, #0
    31f0:	2300      	movs	r3, #0
    31f2:	0029      	movs	r1, r5
    31f4:	f001 f88e 	bl	4314 <__aeabi_dcmplt>
    31f8:	2800      	cmp	r0, #0
    31fa:	d100      	bne.n	31fe <pow+0x262>
    31fc:	e773      	b.n	30e6 <pow+0x14a>
    31fe:	2200      	movs	r2, #0
    3200:	4b41      	ldr	r3, [pc, #260]	; (3308 <pow+0x36c>)
    3202:	0030      	movs	r0, r6
    3204:	0039      	movs	r1, r7
    3206:	f002 f97d 	bl	5504 <__aeabi_dmul>
    320a:	0004      	movs	r4, r0
    320c:	000d      	movs	r5, r1
    320e:	f000 fec3 	bl	3f98 <rint>
    3212:	0002      	movs	r2, r0
    3214:	000b      	movs	r3, r1
    3216:	0020      	movs	r0, r4
    3218:	0029      	movs	r1, r5
    321a:	f001 f875 	bl	4308 <__aeabi_dcmpeq>
    321e:	2800      	cmp	r0, #0
    3220:	d105      	bne.n	322e <pow+0x292>
    3222:	22e0      	movs	r2, #224	; 0xe0
    3224:	4b39      	ldr	r3, [pc, #228]	; (330c <pow+0x370>)
    3226:	0612      	lsls	r2, r2, #24
    3228:	4641      	mov	r1, r8
    322a:	618a      	str	r2, [r1, #24]
    322c:	61cb      	str	r3, [r1, #28]
    322e:	465b      	mov	r3, fp
    3230:	781b      	ldrb	r3, [r3, #0]
    3232:	b25b      	sxtb	r3, r3
    3234:	4699      	mov	r9, r3
    3236:	464b      	mov	r3, r9
    3238:	2b02      	cmp	r3, #2
    323a:	d000      	beq.n	323e <pow+0x2a2>
    323c:	e753      	b.n	30e6 <pow+0x14a>
    323e:	e757      	b.n	30f0 <pow+0x154>
    3240:	ab06      	add	r3, sp, #24
    3242:	4698      	mov	r8, r3
    3244:	2301      	movs	r3, #1
    3246:	4642      	mov	r2, r8
    3248:	9306      	str	r3, [sp, #24]
    324a:	4b2b      	ldr	r3, [pc, #172]	; (32f8 <pow+0x35c>)
    324c:	6053      	str	r3, [r2, #4]
    324e:	4643      	mov	r3, r8
    3250:	609c      	str	r4, [r3, #8]
    3252:	60dd      	str	r5, [r3, #12]
    3254:	2400      	movs	r4, #0
    3256:	9a00      	ldr	r2, [sp, #0]
    3258:	4d28      	ldr	r5, [pc, #160]	; (32fc <pow+0x360>)
    325a:	621a      	str	r2, [r3, #32]
    325c:	611e      	str	r6, [r3, #16]
    325e:	615f      	str	r7, [r3, #20]
    3260:	619c      	str	r4, [r3, #24]
    3262:	61dd      	str	r5, [r3, #28]
    3264:	464b      	mov	r3, r9
    3266:	9400      	str	r4, [sp, #0]
    3268:	9501      	str	r5, [sp, #4]
    326a:	2b02      	cmp	r3, #2
    326c:	d000      	beq.n	3270 <pow+0x2d4>
    326e:	e77b      	b.n	3168 <pow+0x1cc>
    3270:	e6e9      	b.n	3046 <pow+0xaa>
    3272:	2200      	movs	r2, #0
    3274:	4641      	mov	r1, r8
    3276:	4b26      	ldr	r3, [pc, #152]	; (3310 <pow+0x374>)
    3278:	0020      	movs	r0, r4
    327a:	618a      	str	r2, [r1, #24]
    327c:	61cb      	str	r3, [r1, #28]
    327e:	2200      	movs	r2, #0
    3280:	2300      	movs	r3, #0
    3282:	0029      	movs	r1, r5
    3284:	f001 f846 	bl	4314 <__aeabi_dcmplt>
    3288:	2800      	cmp	r0, #0
    328a:	d0d4      	beq.n	3236 <pow+0x29a>
    328c:	2200      	movs	r2, #0
    328e:	4b1e      	ldr	r3, [pc, #120]	; (3308 <pow+0x36c>)
    3290:	0030      	movs	r0, r6
    3292:	0039      	movs	r1, r7
    3294:	f002 f936 	bl	5504 <__aeabi_dmul>
    3298:	0004      	movs	r4, r0
    329a:	000d      	movs	r5, r1
    329c:	f000 fe7c 	bl	3f98 <rint>
    32a0:	0002      	movs	r2, r0
    32a2:	000b      	movs	r3, r1
    32a4:	0020      	movs	r0, r4
    32a6:	0029      	movs	r1, r5
    32a8:	f001 f82e 	bl	4308 <__aeabi_dcmpeq>
    32ac:	2800      	cmp	r0, #0
    32ae:	d1be      	bne.n	322e <pow+0x292>
    32b0:	2200      	movs	r2, #0
    32b2:	4b13      	ldr	r3, [pc, #76]	; (3300 <pow+0x364>)
    32b4:	e7b8      	b.n	3228 <pow+0x28c>
    32b6:	2301      	movs	r3, #1
    32b8:	4642      	mov	r2, r8
    32ba:	9306      	str	r3, [sp, #24]
    32bc:	4b0e      	ldr	r3, [pc, #56]	; (32f8 <pow+0x35c>)
    32be:	6053      	str	r3, [r2, #4]
    32c0:	4643      	mov	r3, r8
    32c2:	464a      	mov	r2, r9
    32c4:	609c      	str	r4, [r3, #8]
    32c6:	60dd      	str	r5, [r3, #12]
    32c8:	621a      	str	r2, [r3, #32]
    32ca:	611e      	str	r6, [r3, #16]
    32cc:	615f      	str	r7, [r3, #20]
    32ce:	2400      	movs	r4, #0
    32d0:	465b      	mov	r3, fp
    32d2:	571c      	ldrsb	r4, [r3, r4]
    32d4:	2c00      	cmp	r4, #0
    32d6:	d100      	bne.n	32da <pow+0x33e>
    32d8:	e741      	b.n	315e <pow+0x1c2>
    32da:	2300      	movs	r3, #0
    32dc:	2200      	movs	r2, #0
    32de:	0019      	movs	r1, r3
    32e0:	0010      	movs	r0, r2
    32e2:	f001 fceb 	bl	4cbc <__aeabi_ddiv>
    32e6:	4643      	mov	r3, r8
    32e8:	6198      	str	r0, [r3, #24]
    32ea:	61d9      	str	r1, [r3, #28]
    32ec:	2c02      	cmp	r4, #2
    32ee:	d100      	bne.n	32f2 <pow+0x356>
    32f0:	e730      	b.n	3154 <pow+0x1b8>
    32f2:	e739      	b.n	3168 <pow+0x1cc>
    32f4:	20000070 	.word	0x20000070
    32f8:	000064b4 	.word	0x000064b4
    32fc:	3ff00000 	.word	0x3ff00000
    3300:	fff00000 	.word	0xfff00000
    3304:	47efffff 	.word	0x47efffff
    3308:	3fe00000 	.word	0x3fe00000
    330c:	c7efffff 	.word	0xc7efffff
    3310:	7ff00000 	.word	0x7ff00000

00003314 <__ieee754_pow>:
    3314:	b5f0      	push	{r4, r5, r6, r7, lr}
    3316:	4656      	mov	r6, sl
    3318:	464d      	mov	r5, r9
    331a:	4644      	mov	r4, r8
    331c:	465f      	mov	r7, fp
    331e:	b4f0      	push	{r4, r5, r6, r7}
    3320:	001c      	movs	r4, r3
    3322:	0013      	movs	r3, r2
    3324:	0067      	lsls	r7, r4, #1
    3326:	b091      	sub	sp, #68	; 0x44
    3328:	087f      	lsrs	r7, r7, #1
    332a:	9300      	str	r3, [sp, #0]
    332c:	9401      	str	r4, [sp, #4]
    332e:	0006      	movs	r6, r0
    3330:	000d      	movs	r5, r1
    3332:	4680      	mov	r8, r0
    3334:	4689      	mov	r9, r1
    3336:	46a2      	mov	sl, r4
    3338:	433b      	orrs	r3, r7
    333a:	d032      	beq.n	33a2 <__ieee754_pow+0x8e>
    333c:	4b6e      	ldr	r3, [pc, #440]	; (34f8 <__ieee754_pow+0x1e4>)
    333e:	006c      	lsls	r4, r5, #1
    3340:	0864      	lsrs	r4, r4, #1
    3342:	429c      	cmp	r4, r3
    3344:	dc29      	bgt.n	339a <__ieee754_pow+0x86>
    3346:	d026      	beq.n	3396 <__ieee754_pow+0x82>
    3348:	429f      	cmp	r7, r3
    334a:	dc26      	bgt.n	339a <__ieee754_pow+0x86>
    334c:	4b6a      	ldr	r3, [pc, #424]	; (34f8 <__ieee754_pow+0x1e4>)
    334e:	429f      	cmp	r7, r3
    3350:	d100      	bne.n	3354 <__ieee754_pow+0x40>
    3352:	e089      	b.n	3468 <__ieee754_pow+0x154>
    3354:	2300      	movs	r3, #0
    3356:	469b      	mov	fp, r3
    3358:	464b      	mov	r3, r9
    335a:	2b00      	cmp	r3, #0
    335c:	da00      	bge.n	3360 <__ieee754_pow+0x4c>
    335e:	e087      	b.n	3470 <__ieee754_pow+0x15c>
    3360:	2a00      	cmp	r2, #0
    3362:	d12f      	bne.n	33c4 <__ieee754_pow+0xb0>
    3364:	4b64      	ldr	r3, [pc, #400]	; (34f8 <__ieee754_pow+0x1e4>)
    3366:	429f      	cmp	r7, r3
    3368:	d100      	bne.n	336c <__ieee754_pow+0x58>
    336a:	e09f      	b.n	34ac <__ieee754_pow+0x198>
    336c:	4b63      	ldr	r3, [pc, #396]	; (34fc <__ieee754_pow+0x1e8>)
    336e:	429f      	cmp	r7, r3
    3370:	d05d      	beq.n	342e <__ieee754_pow+0x11a>
    3372:	2380      	movs	r3, #128	; 0x80
    3374:	05db      	lsls	r3, r3, #23
    3376:	459a      	cmp	sl, r3
    3378:	d101      	bne.n	337e <__ieee754_pow+0x6a>
    337a:	f000 fbc1 	bl	3b00 <__ieee754_pow+0x7ec>
    337e:	4b60      	ldr	r3, [pc, #384]	; (3500 <__ieee754_pow+0x1ec>)
    3380:	459a      	cmp	sl, r3
    3382:	d11f      	bne.n	33c4 <__ieee754_pow+0xb0>
    3384:	464b      	mov	r3, r9
    3386:	2b00      	cmp	r3, #0
    3388:	db1c      	blt.n	33c4 <__ieee754_pow+0xb0>
    338a:	0030      	movs	r0, r6
    338c:	0029      	movs	r1, r5
    338e:	f000 fcf7 	bl	3d80 <__ieee754_sqrt>
    3392:	0006      	movs	r6, r0
    3394:	e007      	b.n	33a6 <__ieee754_pow+0x92>
    3396:	2800      	cmp	r0, #0
    3398:	d00d      	beq.n	33b6 <__ieee754_pow+0xa2>
    339a:	4b5a      	ldr	r3, [pc, #360]	; (3504 <__ieee754_pow+0x1f0>)
    339c:	18e0      	adds	r0, r4, r3
    339e:	4330      	orrs	r0, r6
    33a0:	d10b      	bne.n	33ba <__ieee754_pow+0xa6>
    33a2:	2600      	movs	r6, #0
    33a4:	4955      	ldr	r1, [pc, #340]	; (34fc <__ieee754_pow+0x1e8>)
    33a6:	0030      	movs	r0, r6
    33a8:	b011      	add	sp, #68	; 0x44
    33aa:	bc3c      	pop	{r2, r3, r4, r5}
    33ac:	4690      	mov	r8, r2
    33ae:	4699      	mov	r9, r3
    33b0:	46a2      	mov	sl, r4
    33b2:	46ab      	mov	fp, r5
    33b4:	bdf0      	pop	{r4, r5, r6, r7, pc}
    33b6:	42a7      	cmp	r7, r4
    33b8:	ddc8      	ble.n	334c <__ieee754_pow+0x38>
    33ba:	4853      	ldr	r0, [pc, #332]	; (3508 <__ieee754_pow+0x1f4>)
    33bc:	f000 fde6 	bl	3f8c <nan>
    33c0:	0006      	movs	r6, r0
    33c2:	e7f0      	b.n	33a6 <__ieee754_pow+0x92>
    33c4:	0030      	movs	r0, r6
    33c6:	0029      	movs	r1, r5
    33c8:	f000 fdd0 	bl	3f6c <fabs>
    33cc:	4643      	mov	r3, r8
    33ce:	2b00      	cmp	r3, #0
    33d0:	d01d      	beq.n	340e <__ieee754_pow+0xfa>
    33d2:	0feb      	lsrs	r3, r5, #31
    33d4:	3b01      	subs	r3, #1
    33d6:	4698      	mov	r8, r3
    33d8:	465b      	mov	r3, fp
    33da:	4642      	mov	r2, r8
    33dc:	4313      	orrs	r3, r2
    33de:	d079      	beq.n	34d4 <__ieee754_pow+0x1c0>
    33e0:	4b4a      	ldr	r3, [pc, #296]	; (350c <__ieee754_pow+0x1f8>)
    33e2:	429f      	cmp	r7, r3
    33e4:	dc00      	bgt.n	33e8 <__ieee754_pow+0xd4>
    33e6:	e09f      	b.n	3528 <__ieee754_pow+0x214>
    33e8:	4b49      	ldr	r3, [pc, #292]	; (3510 <__ieee754_pow+0x1fc>)
    33ea:	429f      	cmp	r7, r3
    33ec:	dc01      	bgt.n	33f2 <__ieee754_pow+0xde>
    33ee:	f000 fbce 	bl	3b8e <__ieee754_pow+0x87a>
    33f2:	4b48      	ldr	r3, [pc, #288]	; (3514 <__ieee754_pow+0x200>)
    33f4:	429c      	cmp	r4, r3
    33f6:	dd79      	ble.n	34ec <__ieee754_pow+0x1d8>
    33f8:	4653      	mov	r3, sl
    33fa:	2b00      	cmp	r3, #0
    33fc:	dd79      	ble.n	34f2 <__ieee754_pow+0x1de>
    33fe:	4a46      	ldr	r2, [pc, #280]	; (3518 <__ieee754_pow+0x204>)
    3400:	4b46      	ldr	r3, [pc, #280]	; (351c <__ieee754_pow+0x208>)
    3402:	0010      	movs	r0, r2
    3404:	0019      	movs	r1, r3
    3406:	f002 f87d 	bl	5504 <__aeabi_dmul>
    340a:	0006      	movs	r6, r0
    340c:	e7cb      	b.n	33a6 <__ieee754_pow+0x92>
    340e:	2c00      	cmp	r4, #0
    3410:	d004      	beq.n	341c <__ieee754_pow+0x108>
    3412:	4a3a      	ldr	r2, [pc, #232]	; (34fc <__ieee754_pow+0x1e8>)
    3414:	00ab      	lsls	r3, r5, #2
    3416:	089b      	lsrs	r3, r3, #2
    3418:	4293      	cmp	r3, r2
    341a:	d1da      	bne.n	33d2 <__ieee754_pow+0xbe>
    341c:	4653      	mov	r3, sl
    341e:	2b00      	cmp	r3, #0
    3420:	da00      	bge.n	3424 <__ieee754_pow+0x110>
    3422:	e3ad      	b.n	3b80 <__ieee754_pow+0x86c>
    3424:	464b      	mov	r3, r9
    3426:	2b00      	cmp	r3, #0
    3428:	db0d      	blt.n	3446 <__ieee754_pow+0x132>
    342a:	0006      	movs	r6, r0
    342c:	e7bb      	b.n	33a6 <__ieee754_pow+0x92>
    342e:	4653      	mov	r3, sl
    3430:	0029      	movs	r1, r5
    3432:	2b00      	cmp	r3, #0
    3434:	dab7      	bge.n	33a6 <__ieee754_pow+0x92>
    3436:	0032      	movs	r2, r6
    3438:	002b      	movs	r3, r5
    343a:	2000      	movs	r0, #0
    343c:	492f      	ldr	r1, [pc, #188]	; (34fc <__ieee754_pow+0x1e8>)
    343e:	f001 fc3d 	bl	4cbc <__aeabi_ddiv>
    3442:	0006      	movs	r6, r0
    3444:	e7af      	b.n	33a6 <__ieee754_pow+0x92>
    3446:	4b2f      	ldr	r3, [pc, #188]	; (3504 <__ieee754_pow+0x1f0>)
    3448:	469c      	mov	ip, r3
    344a:	465b      	mov	r3, fp
    344c:	4464      	add	r4, ip
    344e:	431c      	orrs	r4, r3
    3450:	d101      	bne.n	3456 <__ieee754_pow+0x142>
    3452:	f000 fc2b 	bl	3cac <__ieee754_pow+0x998>
    3456:	465b      	mov	r3, fp
    3458:	0006      	movs	r6, r0
    345a:	2b01      	cmp	r3, #1
    345c:	d1a3      	bne.n	33a6 <__ieee754_pow+0x92>
    345e:	2380      	movs	r3, #128	; 0x80
    3460:	061b      	lsls	r3, r3, #24
    3462:	469c      	mov	ip, r3
    3464:	4461      	add	r1, ip
    3466:	e79e      	b.n	33a6 <__ieee754_pow+0x92>
    3468:	2a00      	cmp	r2, #0
    346a:	d100      	bne.n	346e <__ieee754_pow+0x15a>
    346c:	e772      	b.n	3354 <__ieee754_pow+0x40>
    346e:	e794      	b.n	339a <__ieee754_pow+0x86>
    3470:	4b2b      	ldr	r3, [pc, #172]	; (3520 <__ieee754_pow+0x20c>)
    3472:	429f      	cmp	r7, r3
    3474:	dc2b      	bgt.n	34ce <__ieee754_pow+0x1ba>
    3476:	4b27      	ldr	r3, [pc, #156]	; (3514 <__ieee754_pow+0x200>)
    3478:	429f      	cmp	r7, r3
    347a:	dc00      	bgt.n	347e <__ieee754_pow+0x16a>
    347c:	e770      	b.n	3360 <__ieee754_pow+0x4c>
    347e:	4929      	ldr	r1, [pc, #164]	; (3524 <__ieee754_pow+0x210>)
    3480:	153b      	asrs	r3, r7, #20
    3482:	468c      	mov	ip, r1
    3484:	4463      	add	r3, ip
    3486:	2b14      	cmp	r3, #20
    3488:	dc01      	bgt.n	348e <__ieee754_pow+0x17a>
    348a:	f000 fbf2 	bl	3c72 <__ieee754_pow+0x95e>
    348e:	2134      	movs	r1, #52	; 0x34
    3490:	1acb      	subs	r3, r1, r3
    3492:	9900      	ldr	r1, [sp, #0]
    3494:	40d9      	lsrs	r1, r3
    3496:	0008      	movs	r0, r1
    3498:	4098      	lsls	r0, r3
    349a:	4282      	cmp	r2, r0
    349c:	d000      	beq.n	34a0 <__ieee754_pow+0x18c>
    349e:	e75f      	b.n	3360 <__ieee754_pow+0x4c>
    34a0:	2301      	movs	r3, #1
    34a2:	4019      	ands	r1, r3
    34a4:	3301      	adds	r3, #1
    34a6:	1a5b      	subs	r3, r3, r1
    34a8:	469b      	mov	fp, r3
    34aa:	e759      	b.n	3360 <__ieee754_pow+0x4c>
    34ac:	4b15      	ldr	r3, [pc, #84]	; (3504 <__ieee754_pow+0x1f0>)
    34ae:	18e0      	adds	r0, r4, r3
    34b0:	4306      	orrs	r6, r0
    34b2:	d100      	bne.n	34b6 <__ieee754_pow+0x1a2>
    34b4:	e775      	b.n	33a2 <__ieee754_pow+0x8e>
    34b6:	4b17      	ldr	r3, [pc, #92]	; (3514 <__ieee754_pow+0x200>)
    34b8:	429c      	cmp	r4, r3
    34ba:	dc00      	bgt.n	34be <__ieee754_pow+0x1aa>
    34bc:	e351      	b.n	3b62 <__ieee754_pow+0x84e>
    34be:	4653      	mov	r3, sl
    34c0:	2b00      	cmp	r3, #0
    34c2:	db16      	blt.n	34f2 <__ieee754_pow+0x1de>
    34c4:	9b00      	ldr	r3, [sp, #0]
    34c6:	9c01      	ldr	r4, [sp, #4]
    34c8:	001e      	movs	r6, r3
    34ca:	0021      	movs	r1, r4
    34cc:	e76b      	b.n	33a6 <__ieee754_pow+0x92>
    34ce:	2302      	movs	r3, #2
    34d0:	469b      	mov	fp, r3
    34d2:	e745      	b.n	3360 <__ieee754_pow+0x4c>
    34d4:	0032      	movs	r2, r6
    34d6:	002b      	movs	r3, r5
    34d8:	0030      	movs	r0, r6
    34da:	0029      	movs	r1, r5
    34dc:	f002 fa8c 	bl	59f8 <__aeabi_dsub>
    34e0:	0002      	movs	r2, r0
    34e2:	000b      	movs	r3, r1
    34e4:	f001 fbea 	bl	4cbc <__aeabi_ddiv>
    34e8:	0006      	movs	r6, r0
    34ea:	e75c      	b.n	33a6 <__ieee754_pow+0x92>
    34ec:	4653      	mov	r3, sl
    34ee:	2b00      	cmp	r3, #0
    34f0:	db85      	blt.n	33fe <__ieee754_pow+0xea>
    34f2:	2600      	movs	r6, #0
    34f4:	2100      	movs	r1, #0
    34f6:	e756      	b.n	33a6 <__ieee754_pow+0x92>
    34f8:	7ff00000 	.word	0x7ff00000
    34fc:	3ff00000 	.word	0x3ff00000
    3500:	3fe00000 	.word	0x3fe00000
    3504:	c0100000 	.word	0xc0100000
    3508:	000064b8 	.word	0x000064b8
    350c:	41e00000 	.word	0x41e00000
    3510:	43f00000 	.word	0x43f00000
    3514:	3fefffff 	.word	0x3fefffff
    3518:	8800759c 	.word	0x8800759c
    351c:	7e37e43c 	.word	0x7e37e43c
    3520:	433fffff 	.word	0x433fffff
    3524:	fffffc01 	.word	0xfffffc01
    3528:	4be8      	ldr	r3, [pc, #928]	; (38cc <__ieee754_pow+0x5b8>)
    352a:	2200      	movs	r2, #0
    352c:	429c      	cmp	r4, r3
    352e:	dc06      	bgt.n	353e <__ieee754_pow+0x22a>
    3530:	2200      	movs	r2, #0
    3532:	4be7      	ldr	r3, [pc, #924]	; (38d0 <__ieee754_pow+0x5bc>)
    3534:	f001 ffe6 	bl	5504 <__aeabi_dmul>
    3538:	2235      	movs	r2, #53	; 0x35
    353a:	000c      	movs	r4, r1
    353c:	4252      	negs	r2, r2
    353e:	4de5      	ldr	r5, [pc, #916]	; (38d4 <__ieee754_pow+0x5c0>)
    3540:	1523      	asrs	r3, r4, #20
    3542:	46ac      	mov	ip, r5
    3544:	4463      	add	r3, ip
    3546:	4699      	mov	r9, r3
    3548:	0324      	lsls	r4, r4, #12
    354a:	4de3      	ldr	r5, [pc, #908]	; (38d8 <__ieee754_pow+0x5c4>)
    354c:	4be3      	ldr	r3, [pc, #908]	; (38dc <__ieee754_pow+0x5c8>)
    354e:	0b24      	lsrs	r4, r4, #12
    3550:	4491      	add	r9, r2
    3552:	4325      	orrs	r5, r4
    3554:	429c      	cmp	r4, r3
    3556:	dd09      	ble.n	356c <__ieee754_pow+0x258>
    3558:	4be1      	ldr	r3, [pc, #900]	; (38e0 <__ieee754_pow+0x5cc>)
    355a:	429c      	cmp	r4, r3
    355c:	dc00      	bgt.n	3560 <__ieee754_pow+0x24c>
    355e:	e3a9      	b.n	3cb4 <__ieee754_pow+0x9a0>
    3560:	2301      	movs	r3, #1
    3562:	469c      	mov	ip, r3
    3564:	4bdf      	ldr	r3, [pc, #892]	; (38e4 <__ieee754_pow+0x5d0>)
    3566:	44e1      	add	r9, ip
    3568:	469c      	mov	ip, r3
    356a:	4465      	add	r5, ip
    356c:	2300      	movs	r3, #0
    356e:	2400      	movs	r4, #0
    3570:	2200      	movs	r2, #0
    3572:	9308      	str	r3, [sp, #32]
    3574:	9409      	str	r4, [sp, #36]	; 0x24
    3576:	930c      	str	r3, [sp, #48]	; 0x30
    3578:	940d      	str	r4, [sp, #52]	; 0x34
    357a:	2400      	movs	r4, #0
    357c:	4bd6      	ldr	r3, [pc, #856]	; (38d8 <__ieee754_pow+0x5c4>)
    357e:	9206      	str	r2, [sp, #24]
    3580:	9307      	str	r3, [sp, #28]
    3582:	9a06      	ldr	r2, [sp, #24]
    3584:	9b07      	ldr	r3, [sp, #28]
    3586:	0029      	movs	r1, r5
    3588:	900a      	str	r0, [sp, #40]	; 0x28
    358a:	910b      	str	r1, [sp, #44]	; 0x2c
    358c:	f002 fa34 	bl	59f8 <__aeabi_dsub>
    3590:	9a06      	ldr	r2, [sp, #24]
    3592:	9b07      	ldr	r3, [sp, #28]
    3594:	0006      	movs	r6, r0
    3596:	000f      	movs	r7, r1
    3598:	980a      	ldr	r0, [sp, #40]	; 0x28
    359a:	990b      	ldr	r1, [sp, #44]	; 0x2c
    359c:	f001 f862 	bl	4664 <__aeabi_dadd>
    35a0:	0002      	movs	r2, r0
    35a2:	000b      	movs	r3, r1
    35a4:	2000      	movs	r0, #0
    35a6:	49cc      	ldr	r1, [pc, #816]	; (38d8 <__ieee754_pow+0x5c4>)
    35a8:	f001 fb88 	bl	4cbc <__aeabi_ddiv>
    35ac:	000a      	movs	r2, r1
    35ae:	0001      	movs	r1, r0
    35b0:	0013      	movs	r3, r2
    35b2:	910e      	str	r1, [sp, #56]	; 0x38
    35b4:	920f      	str	r2, [sp, #60]	; 0x3c
    35b6:	0002      	movs	r2, r0
    35b8:	0039      	movs	r1, r7
    35ba:	0030      	movs	r0, r6
    35bc:	f001 ffa2 	bl	5504 <__aeabi_dmul>
    35c0:	000a      	movs	r2, r1
    35c2:	0001      	movs	r1, r0
    35c4:	2080      	movs	r0, #128	; 0x80
    35c6:	9104      	str	r1, [sp, #16]
    35c8:	9205      	str	r2, [sp, #20]
    35ca:	0013      	movs	r3, r2
    35cc:	2200      	movs	r2, #0
    35ce:	2180      	movs	r1, #128	; 0x80
    35d0:	0300      	lsls	r0, r0, #12
    35d2:	4684      	mov	ip, r0
    35d4:	9202      	str	r2, [sp, #8]
    35d6:	9303      	str	r3, [sp, #12]
    35d8:	2200      	movs	r2, #0
    35da:	0589      	lsls	r1, r1, #22
    35dc:	106d      	asrs	r5, r5, #1
    35de:	430d      	orrs	r5, r1
    35e0:	4465      	add	r5, ip
    35e2:	192b      	adds	r3, r5, r4
    35e4:	9802      	ldr	r0, [sp, #8]
    35e6:	9903      	ldr	r1, [sp, #12]
    35e8:	0014      	movs	r4, r2
    35ea:	001d      	movs	r5, r3
    35ec:	f001 ff8a 	bl	5504 <__aeabi_dmul>
    35f0:	0002      	movs	r2, r0
    35f2:	000b      	movs	r3, r1
    35f4:	0030      	movs	r0, r6
    35f6:	0039      	movs	r1, r7
    35f8:	f002 f9fe 	bl	59f8 <__aeabi_dsub>
    35fc:	9a06      	ldr	r2, [sp, #24]
    35fe:	9b07      	ldr	r3, [sp, #28]
    3600:	0006      	movs	r6, r0
    3602:	000f      	movs	r7, r1
    3604:	0020      	movs	r0, r4
    3606:	0029      	movs	r1, r5
    3608:	f002 f9f6 	bl	59f8 <__aeabi_dsub>
    360c:	0002      	movs	r2, r0
    360e:	000b      	movs	r3, r1
    3610:	980a      	ldr	r0, [sp, #40]	; 0x28
    3612:	990b      	ldr	r1, [sp, #44]	; 0x2c
    3614:	f002 f9f0 	bl	59f8 <__aeabi_dsub>
    3618:	9a02      	ldr	r2, [sp, #8]
    361a:	9b03      	ldr	r3, [sp, #12]
    361c:	f001 ff72 	bl	5504 <__aeabi_dmul>
    3620:	0002      	movs	r2, r0
    3622:	000b      	movs	r3, r1
    3624:	0030      	movs	r0, r6
    3626:	0039      	movs	r1, r7
    3628:	f002 f9e6 	bl	59f8 <__aeabi_dsub>
    362c:	9a0e      	ldr	r2, [sp, #56]	; 0x38
    362e:	9b0f      	ldr	r3, [sp, #60]	; 0x3c
    3630:	f001 ff68 	bl	5504 <__aeabi_dmul>
    3634:	9d04      	ldr	r5, [sp, #16]
    3636:	9e05      	ldr	r6, [sp, #20]
    3638:	9006      	str	r0, [sp, #24]
    363a:	9107      	str	r1, [sp, #28]
    363c:	002a      	movs	r2, r5
    363e:	0033      	movs	r3, r6
    3640:	0028      	movs	r0, r5
    3642:	0031      	movs	r1, r6
    3644:	f001 ff5e 	bl	5504 <__aeabi_dmul>
    3648:	0006      	movs	r6, r0
    364a:	000f      	movs	r7, r1
    364c:	4aa6      	ldr	r2, [pc, #664]	; (38e8 <__ieee754_pow+0x5d4>)
    364e:	4ba7      	ldr	r3, [pc, #668]	; (38ec <__ieee754_pow+0x5d8>)
    3650:	f001 ff58 	bl	5504 <__aeabi_dmul>
    3654:	4aa6      	ldr	r2, [pc, #664]	; (38f0 <__ieee754_pow+0x5dc>)
    3656:	4ba7      	ldr	r3, [pc, #668]	; (38f4 <__ieee754_pow+0x5e0>)
    3658:	f001 f804 	bl	4664 <__aeabi_dadd>
    365c:	0032      	movs	r2, r6
    365e:	003b      	movs	r3, r7
    3660:	f001 ff50 	bl	5504 <__aeabi_dmul>
    3664:	4aa4      	ldr	r2, [pc, #656]	; (38f8 <__ieee754_pow+0x5e4>)
    3666:	4ba5      	ldr	r3, [pc, #660]	; (38fc <__ieee754_pow+0x5e8>)
    3668:	f000 fffc 	bl	4664 <__aeabi_dadd>
    366c:	0032      	movs	r2, r6
    366e:	003b      	movs	r3, r7
    3670:	f001 ff48 	bl	5504 <__aeabi_dmul>
    3674:	4aa2      	ldr	r2, [pc, #648]	; (3900 <__ieee754_pow+0x5ec>)
    3676:	4ba3      	ldr	r3, [pc, #652]	; (3904 <__ieee754_pow+0x5f0>)
    3678:	f000 fff4 	bl	4664 <__aeabi_dadd>
    367c:	0032      	movs	r2, r6
    367e:	003b      	movs	r3, r7
    3680:	f001 ff40 	bl	5504 <__aeabi_dmul>
    3684:	4aa0      	ldr	r2, [pc, #640]	; (3908 <__ieee754_pow+0x5f4>)
    3686:	4ba1      	ldr	r3, [pc, #644]	; (390c <__ieee754_pow+0x5f8>)
    3688:	f000 ffec 	bl	4664 <__aeabi_dadd>
    368c:	0032      	movs	r2, r6
    368e:	003b      	movs	r3, r7
    3690:	f001 ff38 	bl	5504 <__aeabi_dmul>
    3694:	4a9e      	ldr	r2, [pc, #632]	; (3910 <__ieee754_pow+0x5fc>)
    3696:	4b9f      	ldr	r3, [pc, #636]	; (3914 <__ieee754_pow+0x600>)
    3698:	f000 ffe4 	bl	4664 <__aeabi_dadd>
    369c:	0032      	movs	r2, r6
    369e:	0004      	movs	r4, r0
    36a0:	000d      	movs	r5, r1
    36a2:	003b      	movs	r3, r7
    36a4:	0030      	movs	r0, r6
    36a6:	0039      	movs	r1, r7
    36a8:	f001 ff2c 	bl	5504 <__aeabi_dmul>
    36ac:	0002      	movs	r2, r0
    36ae:	000b      	movs	r3, r1
    36b0:	0020      	movs	r0, r4
    36b2:	0029      	movs	r1, r5
    36b4:	f001 ff26 	bl	5504 <__aeabi_dmul>
    36b8:	9e02      	ldr	r6, [sp, #8]
    36ba:	9f03      	ldr	r7, [sp, #12]
    36bc:	0004      	movs	r4, r0
    36be:	000d      	movs	r5, r1
    36c0:	9804      	ldr	r0, [sp, #16]
    36c2:	9905      	ldr	r1, [sp, #20]
    36c4:	0032      	movs	r2, r6
    36c6:	003b      	movs	r3, r7
    36c8:	f000 ffcc 	bl	4664 <__aeabi_dadd>
    36cc:	9a06      	ldr	r2, [sp, #24]
    36ce:	9b07      	ldr	r3, [sp, #28]
    36d0:	f001 ff18 	bl	5504 <__aeabi_dmul>
    36d4:	0022      	movs	r2, r4
    36d6:	002b      	movs	r3, r5
    36d8:	f000 ffc4 	bl	4664 <__aeabi_dadd>
    36dc:	0032      	movs	r2, r6
    36de:	900a      	str	r0, [sp, #40]	; 0x28
    36e0:	910b      	str	r1, [sp, #44]	; 0x2c
    36e2:	003b      	movs	r3, r7
    36e4:	0030      	movs	r0, r6
    36e6:	0039      	movs	r1, r7
    36e8:	9602      	str	r6, [sp, #8]
    36ea:	9703      	str	r7, [sp, #12]
    36ec:	f001 ff0a 	bl	5504 <__aeabi_dmul>
    36f0:	2200      	movs	r2, #0
    36f2:	4b89      	ldr	r3, [pc, #548]	; (3918 <__ieee754_pow+0x604>)
    36f4:	0004      	movs	r4, r0
    36f6:	000d      	movs	r5, r1
    36f8:	f000 ffb4 	bl	4664 <__aeabi_dadd>
    36fc:	9a0a      	ldr	r2, [sp, #40]	; 0x28
    36fe:	9b0b      	ldr	r3, [sp, #44]	; 0x2c
    3700:	f000 ffb0 	bl	4664 <__aeabi_dadd>
    3704:	2600      	movs	r6, #0
    3706:	000f      	movs	r7, r1
    3708:	0032      	movs	r2, r6
    370a:	000b      	movs	r3, r1
    370c:	9802      	ldr	r0, [sp, #8]
    370e:	9903      	ldr	r1, [sp, #12]
    3710:	f001 fef8 	bl	5504 <__aeabi_dmul>
    3714:	2200      	movs	r2, #0
    3716:	9002      	str	r0, [sp, #8]
    3718:	9103      	str	r1, [sp, #12]
    371a:	4b7f      	ldr	r3, [pc, #508]	; (3918 <__ieee754_pow+0x604>)
    371c:	0030      	movs	r0, r6
    371e:	0039      	movs	r1, r7
    3720:	f002 f96a 	bl	59f8 <__aeabi_dsub>
    3724:	0022      	movs	r2, r4
    3726:	002b      	movs	r3, r5
    3728:	f002 f966 	bl	59f8 <__aeabi_dsub>
    372c:	0002      	movs	r2, r0
    372e:	000b      	movs	r3, r1
    3730:	980a      	ldr	r0, [sp, #40]	; 0x28
    3732:	990b      	ldr	r1, [sp, #44]	; 0x2c
    3734:	f002 f960 	bl	59f8 <__aeabi_dsub>
    3738:	9a04      	ldr	r2, [sp, #16]
    373a:	9b05      	ldr	r3, [sp, #20]
    373c:	f001 fee2 	bl	5504 <__aeabi_dmul>
    3740:	0032      	movs	r2, r6
    3742:	0004      	movs	r4, r0
    3744:	000d      	movs	r5, r1
    3746:	9806      	ldr	r0, [sp, #24]
    3748:	9907      	ldr	r1, [sp, #28]
    374a:	003b      	movs	r3, r7
    374c:	f001 feda 	bl	5504 <__aeabi_dmul>
    3750:	0002      	movs	r2, r0
    3752:	000b      	movs	r3, r1
    3754:	0020      	movs	r0, r4
    3756:	0029      	movs	r1, r5
    3758:	f000 ff84 	bl	4664 <__aeabi_dadd>
    375c:	0004      	movs	r4, r0
    375e:	000d      	movs	r5, r1
    3760:	0002      	movs	r2, r0
    3762:	000b      	movs	r3, r1
    3764:	9802      	ldr	r0, [sp, #8]
    3766:	9903      	ldr	r1, [sp, #12]
    3768:	f000 ff7c 	bl	4664 <__aeabi_dadd>
    376c:	2600      	movs	r6, #0
    376e:	22e0      	movs	r2, #224	; 0xe0
    3770:	4b6a      	ldr	r3, [pc, #424]	; (391c <__ieee754_pow+0x608>)
    3772:	0612      	lsls	r2, r2, #24
    3774:	0030      	movs	r0, r6
    3776:	000f      	movs	r7, r1
    3778:	f001 fec4 	bl	5504 <__aeabi_dmul>
    377c:	9a02      	ldr	r2, [sp, #8]
    377e:	9b03      	ldr	r3, [sp, #12]
    3780:	9004      	str	r0, [sp, #16]
    3782:	9105      	str	r1, [sp, #20]
    3784:	0030      	movs	r0, r6
    3786:	0039      	movs	r1, r7
    3788:	f002 f936 	bl	59f8 <__aeabi_dsub>
    378c:	0002      	movs	r2, r0
    378e:	000b      	movs	r3, r1
    3790:	0020      	movs	r0, r4
    3792:	0029      	movs	r1, r5
    3794:	f002 f930 	bl	59f8 <__aeabi_dsub>
    3798:	4a61      	ldr	r2, [pc, #388]	; (3920 <__ieee754_pow+0x60c>)
    379a:	4b60      	ldr	r3, [pc, #384]	; (391c <__ieee754_pow+0x608>)
    379c:	f001 feb2 	bl	5504 <__aeabi_dmul>
    37a0:	4a60      	ldr	r2, [pc, #384]	; (3924 <__ieee754_pow+0x610>)
    37a2:	0004      	movs	r4, r0
    37a4:	000d      	movs	r5, r1
    37a6:	4b60      	ldr	r3, [pc, #384]	; (3928 <__ieee754_pow+0x614>)
    37a8:	0030      	movs	r0, r6
    37aa:	0039      	movs	r1, r7
    37ac:	f001 feaa 	bl	5504 <__aeabi_dmul>
    37b0:	0002      	movs	r2, r0
    37b2:	000b      	movs	r3, r1
    37b4:	0020      	movs	r0, r4
    37b6:	0029      	movs	r1, r5
    37b8:	f000 ff54 	bl	4664 <__aeabi_dadd>
    37bc:	9a0c      	ldr	r2, [sp, #48]	; 0x30
    37be:	9b0d      	ldr	r3, [sp, #52]	; 0x34
    37c0:	f000 ff50 	bl	4664 <__aeabi_dadd>
    37c4:	0006      	movs	r6, r0
    37c6:	4648      	mov	r0, r9
    37c8:	000f      	movs	r7, r1
    37ca:	f002 fcbf 	bl	614c <__aeabi_i2d>
    37ce:	0004      	movs	r4, r0
    37d0:	000d      	movs	r5, r1
    37d2:	9804      	ldr	r0, [sp, #16]
    37d4:	9905      	ldr	r1, [sp, #20]
    37d6:	0032      	movs	r2, r6
    37d8:	003b      	movs	r3, r7
    37da:	f000 ff43 	bl	4664 <__aeabi_dadd>
    37de:	9a08      	ldr	r2, [sp, #32]
    37e0:	9b09      	ldr	r3, [sp, #36]	; 0x24
    37e2:	f000 ff3f 	bl	4664 <__aeabi_dadd>
    37e6:	0022      	movs	r2, r4
    37e8:	002b      	movs	r3, r5
    37ea:	f000 ff3b 	bl	4664 <__aeabi_dadd>
    37ee:	2000      	movs	r0, #0
    37f0:	0022      	movs	r2, r4
    37f2:	002b      	movs	r3, r5
    37f4:	9002      	str	r0, [sp, #8]
    37f6:	9103      	str	r1, [sp, #12]
    37f8:	f002 f8fe 	bl	59f8 <__aeabi_dsub>
    37fc:	9a08      	ldr	r2, [sp, #32]
    37fe:	9b09      	ldr	r3, [sp, #36]	; 0x24
    3800:	f002 f8fa 	bl	59f8 <__aeabi_dsub>
    3804:	9a04      	ldr	r2, [sp, #16]
    3806:	9b05      	ldr	r3, [sp, #20]
    3808:	f002 f8f6 	bl	59f8 <__aeabi_dsub>
    380c:	0002      	movs	r2, r0
    380e:	000b      	movs	r3, r1
    3810:	0030      	movs	r0, r6
    3812:	0039      	movs	r1, r7
    3814:	f002 f8f0 	bl	59f8 <__aeabi_dsub>
    3818:	9004      	str	r0, [sp, #16]
    381a:	9105      	str	r1, [sp, #20]
    381c:	465b      	mov	r3, fp
    381e:	4642      	mov	r2, r8
    3820:	3b01      	subs	r3, #1
    3822:	4313      	orrs	r3, r2
    3824:	d100      	bne.n	3828 <__ieee754_pow+0x514>
    3826:	e197      	b.n	3b58 <__ieee754_pow+0x844>
    3828:	2300      	movs	r3, #0
    382a:	4c2b      	ldr	r4, [pc, #172]	; (38d8 <__ieee754_pow+0x5c4>)
    382c:	9306      	str	r3, [sp, #24]
    382e:	9407      	str	r4, [sp, #28]
    3830:	9800      	ldr	r0, [sp, #0]
    3832:	9901      	ldr	r1, [sp, #4]
    3834:	2600      	movs	r6, #0
    3836:	000b      	movs	r3, r1
    3838:	0032      	movs	r2, r6
    383a:	000f      	movs	r7, r1
    383c:	f002 f8dc 	bl	59f8 <__aeabi_dsub>
    3840:	9a02      	ldr	r2, [sp, #8]
    3842:	9b03      	ldr	r3, [sp, #12]
    3844:	f001 fe5e 	bl	5504 <__aeabi_dmul>
    3848:	9a00      	ldr	r2, [sp, #0]
    384a:	9b01      	ldr	r3, [sp, #4]
    384c:	0004      	movs	r4, r0
    384e:	000d      	movs	r5, r1
    3850:	9804      	ldr	r0, [sp, #16]
    3852:	9905      	ldr	r1, [sp, #20]
    3854:	f001 fe56 	bl	5504 <__aeabi_dmul>
    3858:	0002      	movs	r2, r0
    385a:	000b      	movs	r3, r1
    385c:	0020      	movs	r0, r4
    385e:	0029      	movs	r1, r5
    3860:	f000 ff00 	bl	4664 <__aeabi_dadd>
    3864:	0004      	movs	r4, r0
    3866:	000d      	movs	r5, r1
    3868:	9802      	ldr	r0, [sp, #8]
    386a:	9903      	ldr	r1, [sp, #12]
    386c:	003b      	movs	r3, r7
    386e:	0032      	movs	r2, r6
    3870:	9404      	str	r4, [sp, #16]
    3872:	9505      	str	r5, [sp, #20]
    3874:	f001 fe46 	bl	5504 <__aeabi_dmul>
    3878:	9000      	str	r0, [sp, #0]
    387a:	9101      	str	r1, [sp, #4]
    387c:	000b      	movs	r3, r1
    387e:	0002      	movs	r2, r0
    3880:	0029      	movs	r1, r5
    3882:	0020      	movs	r0, r4
    3884:	f000 feee 	bl	4664 <__aeabi_dadd>
    3888:	4b28      	ldr	r3, [pc, #160]	; (392c <__ieee754_pow+0x618>)
    388a:	4681      	mov	r9, r0
    388c:	1e0f      	subs	r7, r1, #0
    388e:	468a      	mov	sl, r1
    3890:	429f      	cmp	r7, r3
    3892:	dc00      	bgt.n	3896 <__ieee754_pow+0x582>
    3894:	e13c      	b.n	3b10 <__ieee754_pow+0x7fc>
    3896:	4b26      	ldr	r3, [pc, #152]	; (3930 <__ieee754_pow+0x61c>)
    3898:	18cb      	adds	r3, r1, r3
    389a:	4303      	orrs	r3, r0
    389c:	d000      	beq.n	38a0 <__ieee754_pow+0x58c>
    389e:	e1db      	b.n	3c58 <__ieee754_pow+0x944>
    38a0:	9804      	ldr	r0, [sp, #16]
    38a2:	9905      	ldr	r1, [sp, #20]
    38a4:	4a23      	ldr	r2, [pc, #140]	; (3934 <__ieee754_pow+0x620>)
    38a6:	4b24      	ldr	r3, [pc, #144]	; (3938 <__ieee754_pow+0x624>)
    38a8:	f000 fedc 	bl	4664 <__aeabi_dadd>
    38ac:	9a00      	ldr	r2, [sp, #0]
    38ae:	9b01      	ldr	r3, [sp, #4]
    38b0:	0004      	movs	r4, r0
    38b2:	000d      	movs	r5, r1
    38b4:	4648      	mov	r0, r9
    38b6:	0039      	movs	r1, r7
    38b8:	f002 f89e 	bl	59f8 <__aeabi_dsub>
    38bc:	0002      	movs	r2, r0
    38be:	000b      	movs	r3, r1
    38c0:	0020      	movs	r0, r4
    38c2:	0029      	movs	r1, r5
    38c4:	f000 fd3a 	bl	433c <__aeabi_dcmpgt>
    38c8:	003e      	movs	r6, r7
    38ca:	e037      	b.n	393c <__ieee754_pow+0x628>
    38cc:	000fffff 	.word	0x000fffff
    38d0:	43400000 	.word	0x43400000
    38d4:	fffffc01 	.word	0xfffffc01
    38d8:	3ff00000 	.word	0x3ff00000
    38dc:	0003988e 	.word	0x0003988e
    38e0:	000bb679 	.word	0x000bb679
    38e4:	fff00000 	.word	0xfff00000
    38e8:	4a454eef 	.word	0x4a454eef
    38ec:	3fca7e28 	.word	0x3fca7e28
    38f0:	93c9db65 	.word	0x93c9db65
    38f4:	3fcd864a 	.word	0x3fcd864a
    38f8:	a91d4101 	.word	0xa91d4101
    38fc:	3fd17460 	.word	0x3fd17460
    3900:	518f264d 	.word	0x518f264d
    3904:	3fd55555 	.word	0x3fd55555
    3908:	db6fabff 	.word	0xdb6fabff
    390c:	3fdb6db6 	.word	0x3fdb6db6
    3910:	33333303 	.word	0x33333303
    3914:	3fe33333 	.word	0x3fe33333
    3918:	40080000 	.word	0x40080000
    391c:	3feec709 	.word	0x3feec709
    3920:	dc3a03fd 	.word	0xdc3a03fd
    3924:	145b01f5 	.word	0x145b01f5
    3928:	be3e2fe0 	.word	0xbe3e2fe0
    392c:	408fffff 	.word	0x408fffff
    3930:	bf700000 	.word	0xbf700000
    3934:	652b82fe 	.word	0x652b82fe
    3938:	3c971547 	.word	0x3c971547
    393c:	2800      	cmp	r0, #0
    393e:	d000      	beq.n	3942 <__ieee754_pow+0x62e>
    3940:	e18a      	b.n	3c58 <__ieee754_pow+0x944>
    3942:	2280      	movs	r2, #128	; 0x80
    3944:	4be7      	ldr	r3, [pc, #924]	; (3ce4 <__ieee754_pow+0x9d0>)
    3946:	0352      	lsls	r2, r2, #13
    3948:	469c      	mov	ip, r3
    394a:	0013      	movs	r3, r2
    394c:	1536      	asrs	r6, r6, #20
    394e:	4466      	add	r6, ip
    3950:	4133      	asrs	r3, r6
    3952:	49e5      	ldr	r1, [pc, #916]	; (3ce8 <__ieee754_pow+0x9d4>)
    3954:	19db      	adds	r3, r3, r7
    3956:	005e      	lsls	r6, r3, #1
    3958:	001c      	movs	r4, r3
    395a:	031b      	lsls	r3, r3, #12
    395c:	468c      	mov	ip, r1
    395e:	0b1b      	lsrs	r3, r3, #12
    3960:	4313      	orrs	r3, r2
    3962:	2214      	movs	r2, #20
    3964:	0d76      	lsrs	r6, r6, #21
    3966:	4fe1      	ldr	r7, [pc, #900]	; (3cec <__ieee754_pow+0x9d8>)
    3968:	4466      	add	r6, ip
    396a:	4137      	asrs	r7, r6
    396c:	1b96      	subs	r6, r2, r6
    396e:	4133      	asrs	r3, r6
    3970:	4698      	mov	r8, r3
    3972:	4653      	mov	r3, sl
    3974:	43bc      	bics	r4, r7
    3976:	2000      	movs	r0, #0
    3978:	0021      	movs	r1, r4
    397a:	2b00      	cmp	r3, #0
    397c:	da00      	bge.n	3980 <__ieee754_pow+0x66c>
    397e:	e1a9      	b.n	3cd4 <__ieee754_pow+0x9c0>
    3980:	0002      	movs	r2, r0
    3982:	000b      	movs	r3, r1
    3984:	9800      	ldr	r0, [sp, #0]
    3986:	9901      	ldr	r1, [sp, #4]
    3988:	f002 f836 	bl	59f8 <__aeabi_dsub>
    398c:	000b      	movs	r3, r1
    398e:	9000      	str	r0, [sp, #0]
    3990:	9101      	str	r1, [sp, #4]
    3992:	0002      	movs	r2, r0
    3994:	9804      	ldr	r0, [sp, #16]
    3996:	9905      	ldr	r1, [sp, #20]
    3998:	f000 fe64 	bl	4664 <__aeabi_dadd>
    399c:	4643      	mov	r3, r8
    399e:	051b      	lsls	r3, r3, #20
    39a0:	4699      	mov	r9, r3
    39a2:	2000      	movs	r0, #0
    39a4:	2200      	movs	r2, #0
    39a6:	4bd2      	ldr	r3, [pc, #840]	; (3cf0 <__ieee754_pow+0x9dc>)
    39a8:	0006      	movs	r6, r0
    39aa:	000f      	movs	r7, r1
    39ac:	f001 fdaa 	bl	5504 <__aeabi_dmul>
    39b0:	9a00      	ldr	r2, [sp, #0]
    39b2:	9b01      	ldr	r3, [sp, #4]
    39b4:	9002      	str	r0, [sp, #8]
    39b6:	9103      	str	r1, [sp, #12]
    39b8:	0030      	movs	r0, r6
    39ba:	0039      	movs	r1, r7
    39bc:	f002 f81c 	bl	59f8 <__aeabi_dsub>
    39c0:	0002      	movs	r2, r0
    39c2:	000b      	movs	r3, r1
    39c4:	9804      	ldr	r0, [sp, #16]
    39c6:	9905      	ldr	r1, [sp, #20]
    39c8:	f002 f816 	bl	59f8 <__aeabi_dsub>
    39cc:	4ac9      	ldr	r2, [pc, #804]	; (3cf4 <__ieee754_pow+0x9e0>)
    39ce:	4bca      	ldr	r3, [pc, #808]	; (3cf8 <__ieee754_pow+0x9e4>)
    39d0:	f001 fd98 	bl	5504 <__aeabi_dmul>
    39d4:	4ac9      	ldr	r2, [pc, #804]	; (3cfc <__ieee754_pow+0x9e8>)
    39d6:	0004      	movs	r4, r0
    39d8:	000d      	movs	r5, r1
    39da:	4bc9      	ldr	r3, [pc, #804]	; (3d00 <__ieee754_pow+0x9ec>)
    39dc:	0030      	movs	r0, r6
    39de:	0039      	movs	r1, r7
    39e0:	f001 fd90 	bl	5504 <__aeabi_dmul>
    39e4:	0002      	movs	r2, r0
    39e6:	000b      	movs	r3, r1
    39e8:	0020      	movs	r0, r4
    39ea:	0029      	movs	r1, r5
    39ec:	f000 fe3a 	bl	4664 <__aeabi_dadd>
    39f0:	0004      	movs	r4, r0
    39f2:	000d      	movs	r5, r1
    39f4:	0002      	movs	r2, r0
    39f6:	000b      	movs	r3, r1
    39f8:	9802      	ldr	r0, [sp, #8]
    39fa:	9903      	ldr	r1, [sp, #12]
    39fc:	f000 fe32 	bl	4664 <__aeabi_dadd>
    3a00:	9a02      	ldr	r2, [sp, #8]
    3a02:	9b03      	ldr	r3, [sp, #12]
    3a04:	0006      	movs	r6, r0
    3a06:	000f      	movs	r7, r1
    3a08:	f001 fff6 	bl	59f8 <__aeabi_dsub>
    3a0c:	0002      	movs	r2, r0
    3a0e:	000b      	movs	r3, r1
    3a10:	0020      	movs	r0, r4
    3a12:	0029      	movs	r1, r5
    3a14:	f001 fff0 	bl	59f8 <__aeabi_dsub>
    3a18:	0032      	movs	r2, r6
    3a1a:	9000      	str	r0, [sp, #0]
    3a1c:	9101      	str	r1, [sp, #4]
    3a1e:	003b      	movs	r3, r7
    3a20:	0030      	movs	r0, r6
    3a22:	0039      	movs	r1, r7
    3a24:	f001 fd6e 	bl	5504 <__aeabi_dmul>
    3a28:	0004      	movs	r4, r0
    3a2a:	000d      	movs	r5, r1
    3a2c:	4ab5      	ldr	r2, [pc, #724]	; (3d04 <__ieee754_pow+0x9f0>)
    3a2e:	4bb6      	ldr	r3, [pc, #728]	; (3d08 <__ieee754_pow+0x9f4>)
    3a30:	f001 fd68 	bl	5504 <__aeabi_dmul>
    3a34:	4ab5      	ldr	r2, [pc, #724]	; (3d0c <__ieee754_pow+0x9f8>)
    3a36:	4bb6      	ldr	r3, [pc, #728]	; (3d10 <__ieee754_pow+0x9fc>)
    3a38:	f001 ffde 	bl	59f8 <__aeabi_dsub>
    3a3c:	0022      	movs	r2, r4
    3a3e:	002b      	movs	r3, r5
    3a40:	f001 fd60 	bl	5504 <__aeabi_dmul>
    3a44:	4ab3      	ldr	r2, [pc, #716]	; (3d14 <__ieee754_pow+0xa00>)
    3a46:	4bb4      	ldr	r3, [pc, #720]	; (3d18 <__ieee754_pow+0xa04>)
    3a48:	f000 fe0c 	bl	4664 <__aeabi_dadd>
    3a4c:	0022      	movs	r2, r4
    3a4e:	002b      	movs	r3, r5
    3a50:	f001 fd58 	bl	5504 <__aeabi_dmul>
    3a54:	4ab1      	ldr	r2, [pc, #708]	; (3d1c <__ieee754_pow+0xa08>)
    3a56:	4bb2      	ldr	r3, [pc, #712]	; (3d20 <__ieee754_pow+0xa0c>)
    3a58:	f001 ffce 	bl	59f8 <__aeabi_dsub>
    3a5c:	0022      	movs	r2, r4
    3a5e:	002b      	movs	r3, r5
    3a60:	f001 fd50 	bl	5504 <__aeabi_dmul>
    3a64:	4aaf      	ldr	r2, [pc, #700]	; (3d24 <__ieee754_pow+0xa10>)
    3a66:	4bb0      	ldr	r3, [pc, #704]	; (3d28 <__ieee754_pow+0xa14>)
    3a68:	f000 fdfc 	bl	4664 <__aeabi_dadd>
    3a6c:	0022      	movs	r2, r4
    3a6e:	002b      	movs	r3, r5
    3a70:	f001 fd48 	bl	5504 <__aeabi_dmul>
    3a74:	0002      	movs	r2, r0
    3a76:	000b      	movs	r3, r1
    3a78:	0030      	movs	r0, r6
    3a7a:	0039      	movs	r1, r7
    3a7c:	f001 ffbc 	bl	59f8 <__aeabi_dsub>
    3a80:	0004      	movs	r4, r0
    3a82:	000d      	movs	r5, r1
    3a84:	0002      	movs	r2, r0
    3a86:	000b      	movs	r3, r1
    3a88:	0030      	movs	r0, r6
    3a8a:	0039      	movs	r1, r7
    3a8c:	f001 fd3a 	bl	5504 <__aeabi_dmul>
    3a90:	2380      	movs	r3, #128	; 0x80
    3a92:	9002      	str	r0, [sp, #8]
    3a94:	9103      	str	r1, [sp, #12]
    3a96:	2200      	movs	r2, #0
    3a98:	05db      	lsls	r3, r3, #23
    3a9a:	0020      	movs	r0, r4
    3a9c:	0029      	movs	r1, r5
    3a9e:	f001 ffab 	bl	59f8 <__aeabi_dsub>
    3aa2:	0002      	movs	r2, r0
    3aa4:	000b      	movs	r3, r1
    3aa6:	9802      	ldr	r0, [sp, #8]
    3aa8:	9903      	ldr	r1, [sp, #12]
    3aaa:	f001 f907 	bl	4cbc <__aeabi_ddiv>
    3aae:	9a00      	ldr	r2, [sp, #0]
    3ab0:	9b01      	ldr	r3, [sp, #4]
    3ab2:	0004      	movs	r4, r0
    3ab4:	000d      	movs	r5, r1
    3ab6:	0030      	movs	r0, r6
    3ab8:	0039      	movs	r1, r7
    3aba:	f001 fd23 	bl	5504 <__aeabi_dmul>
    3abe:	9a00      	ldr	r2, [sp, #0]
    3ac0:	9b01      	ldr	r3, [sp, #4]
    3ac2:	f000 fdcf 	bl	4664 <__aeabi_dadd>
    3ac6:	0002      	movs	r2, r0
    3ac8:	000b      	movs	r3, r1
    3aca:	0020      	movs	r0, r4
    3acc:	0029      	movs	r1, r5
    3ace:	f001 ff93 	bl	59f8 <__aeabi_dsub>
    3ad2:	0032      	movs	r2, r6
    3ad4:	003b      	movs	r3, r7
    3ad6:	f001 ff8f 	bl	59f8 <__aeabi_dsub>
    3ada:	0002      	movs	r2, r0
    3adc:	000b      	movs	r3, r1
    3ade:	2000      	movs	r0, #0
    3ae0:	4992      	ldr	r1, [pc, #584]	; (3d2c <__ieee754_pow+0xa18>)
    3ae2:	f001 ff89 	bl	59f8 <__aeabi_dsub>
    3ae6:	464b      	mov	r3, r9
    3ae8:	185b      	adds	r3, r3, r1
    3aea:	151a      	asrs	r2, r3, #20
    3aec:	2a00      	cmp	r2, #0
    3aee:	dc00      	bgt.n	3af2 <__ieee754_pow+0x7de>
    3af0:	e0f4      	b.n	3cdc <__ieee754_pow+0x9c8>
    3af2:	0019      	movs	r1, r3
    3af4:	9a06      	ldr	r2, [sp, #24]
    3af6:	9b07      	ldr	r3, [sp, #28]
    3af8:	f001 fd04 	bl	5504 <__aeabi_dmul>
    3afc:	0006      	movs	r6, r0
    3afe:	e452      	b.n	33a6 <__ieee754_pow+0x92>
    3b00:	0032      	movs	r2, r6
    3b02:	0030      	movs	r0, r6
    3b04:	002b      	movs	r3, r5
    3b06:	0029      	movs	r1, r5
    3b08:	f001 fcfc 	bl	5504 <__aeabi_dmul>
    3b0c:	0006      	movs	r6, r0
    3b0e:	e44a      	b.n	33a6 <__ieee754_pow+0x92>
    3b10:	4b87      	ldr	r3, [pc, #540]	; (3d30 <__ieee754_pow+0xa1c>)
    3b12:	004e      	lsls	r6, r1, #1
    3b14:	0876      	lsrs	r6, r6, #1
    3b16:	429e      	cmp	r6, r3
    3b18:	dc00      	bgt.n	3b1c <__ieee754_pow+0x808>
    3b1a:	e0bf      	b.n	3c9c <__ieee754_pow+0x988>
    3b1c:	4b85      	ldr	r3, [pc, #532]	; (3d34 <__ieee754_pow+0xa20>)
    3b1e:	18cb      	adds	r3, r1, r3
    3b20:	4303      	orrs	r3, r0
    3b22:	d10c      	bne.n	3b3e <__ieee754_pow+0x82a>
    3b24:	9a00      	ldr	r2, [sp, #0]
    3b26:	9b01      	ldr	r3, [sp, #4]
    3b28:	f001 ff66 	bl	59f8 <__aeabi_dsub>
    3b2c:	0002      	movs	r2, r0
    3b2e:	000b      	movs	r3, r1
    3b30:	9804      	ldr	r0, [sp, #16]
    3b32:	9905      	ldr	r1, [sp, #20]
    3b34:	f000 fbf8 	bl	4328 <__aeabi_dcmple>
    3b38:	2800      	cmp	r0, #0
    3b3a:	d100      	bne.n	3b3e <__ieee754_pow+0x82a>
    3b3c:	e701      	b.n	3942 <__ieee754_pow+0x62e>
    3b3e:	9806      	ldr	r0, [sp, #24]
    3b40:	9907      	ldr	r1, [sp, #28]
    3b42:	4a7d      	ldr	r2, [pc, #500]	; (3d38 <__ieee754_pow+0xa24>)
    3b44:	4b7d      	ldr	r3, [pc, #500]	; (3d3c <__ieee754_pow+0xa28>)
    3b46:	f001 fcdd 	bl	5504 <__aeabi_dmul>
    3b4a:	4a7b      	ldr	r2, [pc, #492]	; (3d38 <__ieee754_pow+0xa24>)
    3b4c:	4b7b      	ldr	r3, [pc, #492]	; (3d3c <__ieee754_pow+0xa28>)
    3b4e:	f001 fcd9 	bl	5504 <__aeabi_dmul>
    3b52:	0006      	movs	r6, r0
    3b54:	f7ff fc27 	bl	33a6 <__ieee754_pow+0x92>
    3b58:	2300      	movs	r3, #0
    3b5a:	4c79      	ldr	r4, [pc, #484]	; (3d40 <__ieee754_pow+0xa2c>)
    3b5c:	9306      	str	r3, [sp, #24]
    3b5e:	9407      	str	r4, [sp, #28]
    3b60:	e666      	b.n	3830 <__ieee754_pow+0x51c>
    3b62:	4653      	mov	r3, sl
    3b64:	2b00      	cmp	r3, #0
    3b66:	db00      	blt.n	3b6a <__ieee754_pow+0x856>
    3b68:	e4c3      	b.n	34f2 <__ieee754_pow+0x1de>
    3b6a:	9b00      	ldr	r3, [sp, #0]
    3b6c:	9c01      	ldr	r4, [sp, #4]
    3b6e:	2280      	movs	r2, #128	; 0x80
    3b70:	0612      	lsls	r2, r2, #24
    3b72:	001e      	movs	r6, r3
    3b74:	4694      	mov	ip, r2
    3b76:	0023      	movs	r3, r4
    3b78:	4463      	add	r3, ip
    3b7a:	0019      	movs	r1, r3
    3b7c:	f7ff fc13 	bl	33a6 <__ieee754_pow+0x92>
    3b80:	0002      	movs	r2, r0
    3b82:	000b      	movs	r3, r1
    3b84:	2000      	movs	r0, #0
    3b86:	4969      	ldr	r1, [pc, #420]	; (3d2c <__ieee754_pow+0xa18>)
    3b88:	f001 f898 	bl	4cbc <__aeabi_ddiv>
    3b8c:	e44a      	b.n	3424 <__ieee754_pow+0x110>
    3b8e:	4b6d      	ldr	r3, [pc, #436]	; (3d44 <__ieee754_pow+0xa30>)
    3b90:	429c      	cmp	r4, r3
    3b92:	dc00      	bgt.n	3b96 <__ieee754_pow+0x882>
    3b94:	e4aa      	b.n	34ec <__ieee754_pow+0x1d8>
    3b96:	4b65      	ldr	r3, [pc, #404]	; (3d2c <__ieee754_pow+0xa18>)
    3b98:	429c      	cmp	r4, r3
    3b9a:	dd01      	ble.n	3ba0 <__ieee754_pow+0x88c>
    3b9c:	f7ff fc2c 	bl	33f8 <__ieee754_pow+0xe4>
    3ba0:	2200      	movs	r2, #0
    3ba2:	4b62      	ldr	r3, [pc, #392]	; (3d2c <__ieee754_pow+0xa18>)
    3ba4:	f001 ff28 	bl	59f8 <__aeabi_dsub>
    3ba8:	22c0      	movs	r2, #192	; 0xc0
    3baa:	4b67      	ldr	r3, [pc, #412]	; (3d48 <__ieee754_pow+0xa34>)
    3bac:	05d2      	lsls	r2, r2, #23
    3bae:	0004      	movs	r4, r0
    3bb0:	000d      	movs	r5, r1
    3bb2:	f001 fca7 	bl	5504 <__aeabi_dmul>
    3bb6:	4a65      	ldr	r2, [pc, #404]	; (3d4c <__ieee754_pow+0xa38>)
    3bb8:	0006      	movs	r6, r0
    3bba:	000f      	movs	r7, r1
    3bbc:	4b64      	ldr	r3, [pc, #400]	; (3d50 <__ieee754_pow+0xa3c>)
    3bbe:	0020      	movs	r0, r4
    3bc0:	0029      	movs	r1, r5
    3bc2:	f001 fc9f 	bl	5504 <__aeabi_dmul>
    3bc6:	2200      	movs	r2, #0
    3bc8:	9002      	str	r0, [sp, #8]
    3bca:	9103      	str	r1, [sp, #12]
    3bcc:	4b61      	ldr	r3, [pc, #388]	; (3d54 <__ieee754_pow+0xa40>)
    3bce:	0020      	movs	r0, r4
    3bd0:	0029      	movs	r1, r5
    3bd2:	f001 fc97 	bl	5504 <__aeabi_dmul>
    3bd6:	0002      	movs	r2, r0
    3bd8:	000b      	movs	r3, r1
    3bda:	485f      	ldr	r0, [pc, #380]	; (3d58 <__ieee754_pow+0xa44>)
    3bdc:	495f      	ldr	r1, [pc, #380]	; (3d5c <__ieee754_pow+0xa48>)
    3bde:	f001 ff0b 	bl	59f8 <__aeabi_dsub>
    3be2:	0022      	movs	r2, r4
    3be4:	002b      	movs	r3, r5
    3be6:	f001 fc8d 	bl	5504 <__aeabi_dmul>
    3bea:	0002      	movs	r2, r0
    3bec:	000b      	movs	r3, r1
    3bee:	2000      	movs	r0, #0
    3bf0:	495b      	ldr	r1, [pc, #364]	; (3d60 <__ieee754_pow+0xa4c>)
    3bf2:	f001 ff01 	bl	59f8 <__aeabi_dsub>
    3bf6:	0022      	movs	r2, r4
    3bf8:	9004      	str	r0, [sp, #16]
    3bfa:	9105      	str	r1, [sp, #20]
    3bfc:	002b      	movs	r3, r5
    3bfe:	0020      	movs	r0, r4
    3c00:	0029      	movs	r1, r5
    3c02:	f001 fc7f 	bl	5504 <__aeabi_dmul>
    3c06:	0002      	movs	r2, r0
    3c08:	000b      	movs	r3, r1
    3c0a:	9804      	ldr	r0, [sp, #16]
    3c0c:	9905      	ldr	r1, [sp, #20]
    3c0e:	f001 fc79 	bl	5504 <__aeabi_dmul>
    3c12:	4a54      	ldr	r2, [pc, #336]	; (3d64 <__ieee754_pow+0xa50>)
    3c14:	4b4c      	ldr	r3, [pc, #304]	; (3d48 <__ieee754_pow+0xa34>)
    3c16:	f001 fc75 	bl	5504 <__aeabi_dmul>
    3c1a:	0002      	movs	r2, r0
    3c1c:	000b      	movs	r3, r1
    3c1e:	9802      	ldr	r0, [sp, #8]
    3c20:	9903      	ldr	r1, [sp, #12]
    3c22:	f001 fee9 	bl	59f8 <__aeabi_dsub>
    3c26:	0002      	movs	r2, r0
    3c28:	000b      	movs	r3, r1
    3c2a:	0004      	movs	r4, r0
    3c2c:	000d      	movs	r5, r1
    3c2e:	0030      	movs	r0, r6
    3c30:	0039      	movs	r1, r7
    3c32:	f000 fd17 	bl	4664 <__aeabi_dadd>
    3c36:	2200      	movs	r2, #0
    3c38:	0010      	movs	r0, r2
    3c3a:	003b      	movs	r3, r7
    3c3c:	0032      	movs	r2, r6
    3c3e:	9002      	str	r0, [sp, #8]
    3c40:	9103      	str	r1, [sp, #12]
    3c42:	f001 fed9 	bl	59f8 <__aeabi_dsub>
    3c46:	0002      	movs	r2, r0
    3c48:	000b      	movs	r3, r1
    3c4a:	0020      	movs	r0, r4
    3c4c:	0029      	movs	r1, r5
    3c4e:	f001 fed3 	bl	59f8 <__aeabi_dsub>
    3c52:	9004      	str	r0, [sp, #16]
    3c54:	9105      	str	r1, [sp, #20]
    3c56:	e5e1      	b.n	381c <__ieee754_pow+0x508>
    3c58:	4a43      	ldr	r2, [pc, #268]	; (3d68 <__ieee754_pow+0xa54>)
    3c5a:	4b44      	ldr	r3, [pc, #272]	; (3d6c <__ieee754_pow+0xa58>)
    3c5c:	9806      	ldr	r0, [sp, #24]
    3c5e:	9907      	ldr	r1, [sp, #28]
    3c60:	f001 fc50 	bl	5504 <__aeabi_dmul>
    3c64:	4a40      	ldr	r2, [pc, #256]	; (3d68 <__ieee754_pow+0xa54>)
    3c66:	4b41      	ldr	r3, [pc, #260]	; (3d6c <__ieee754_pow+0xa58>)
    3c68:	f001 fc4c 	bl	5504 <__aeabi_dmul>
    3c6c:	0006      	movs	r6, r0
    3c6e:	f7ff fb9a 	bl	33a6 <__ieee754_pow+0x92>
    3c72:	2a00      	cmp	r2, #0
    3c74:	d001      	beq.n	3c7a <__ieee754_pow+0x966>
    3c76:	f7ff fba5 	bl	33c4 <__ieee754_pow+0xb0>
    3c7a:	3214      	adds	r2, #20
    3c7c:	1ad3      	subs	r3, r2, r3
    3c7e:	003a      	movs	r2, r7
    3c80:	411a      	asrs	r2, r3
    3c82:	0011      	movs	r1, r2
    3c84:	4099      	lsls	r1, r3
    3c86:	428f      	cmp	r7, r1
    3c88:	d001      	beq.n	3c8e <__ieee754_pow+0x97a>
    3c8a:	f7ff fb6f 	bl	336c <__ieee754_pow+0x58>
    3c8e:	2301      	movs	r3, #1
    3c90:	4013      	ands	r3, r2
    3c92:	2202      	movs	r2, #2
    3c94:	1ad3      	subs	r3, r2, r3
    3c96:	469b      	mov	fp, r3
    3c98:	f7ff fb68 	bl	336c <__ieee754_pow+0x58>
    3c9c:	4b30      	ldr	r3, [pc, #192]	; (3d60 <__ieee754_pow+0xa4c>)
    3c9e:	429e      	cmp	r6, r3
    3ca0:	dd00      	ble.n	3ca4 <__ieee754_pow+0x990>
    3ca2:	e64e      	b.n	3942 <__ieee754_pow+0x62e>
    3ca4:	2300      	movs	r3, #0
    3ca6:	4699      	mov	r9, r3
    3ca8:	4698      	mov	r8, r3
    3caa:	e67a      	b.n	39a2 <__ieee754_pow+0x68e>
    3cac:	0002      	movs	r2, r0
    3cae:	000b      	movs	r3, r1
    3cb0:	f7ff fc14 	bl	34dc <__ieee754_pow+0x1c8>
    3cb4:	2380      	movs	r3, #128	; 0x80
    3cb6:	4c2e      	ldr	r4, [pc, #184]	; (3d70 <__ieee754_pow+0xa5c>)
    3cb8:	05db      	lsls	r3, r3, #23
    3cba:	9308      	str	r3, [sp, #32]
    3cbc:	9409      	str	r4, [sp, #36]	; 0x24
    3cbe:	4b2d      	ldr	r3, [pc, #180]	; (3d74 <__ieee754_pow+0xa60>)
    3cc0:	4c2d      	ldr	r4, [pc, #180]	; (3d78 <__ieee754_pow+0xa64>)
    3cc2:	2200      	movs	r2, #0
    3cc4:	930c      	str	r3, [sp, #48]	; 0x30
    3cc6:	940d      	str	r4, [sp, #52]	; 0x34
    3cc8:	2480      	movs	r4, #128	; 0x80
    3cca:	4b2c      	ldr	r3, [pc, #176]	; (3d7c <__ieee754_pow+0xa68>)
    3ccc:	02e4      	lsls	r4, r4, #11
    3cce:	9206      	str	r2, [sp, #24]
    3cd0:	9307      	str	r3, [sp, #28]
    3cd2:	e456      	b.n	3582 <__ieee754_pow+0x26e>
    3cd4:	4643      	mov	r3, r8
    3cd6:	425b      	negs	r3, r3
    3cd8:	4698      	mov	r8, r3
    3cda:	e651      	b.n	3980 <__ieee754_pow+0x66c>
    3cdc:	4642      	mov	r2, r8
    3cde:	f000 f9fd 	bl	40dc <scalbn>
    3ce2:	e707      	b.n	3af4 <__ieee754_pow+0x7e0>
    3ce4:	fffffc02 	.word	0xfffffc02
    3ce8:	fffffc01 	.word	0xfffffc01
    3cec:	000fffff 	.word	0x000fffff
    3cf0:	3fe62e43 	.word	0x3fe62e43
    3cf4:	fefa39ef 	.word	0xfefa39ef
    3cf8:	3fe62e42 	.word	0x3fe62e42
    3cfc:	0ca86c39 	.word	0x0ca86c39
    3d00:	be205c61 	.word	0xbe205c61
    3d04:	72bea4d0 	.word	0x72bea4d0
    3d08:	3e663769 	.word	0x3e663769
    3d0c:	c5d26bf1 	.word	0xc5d26bf1
    3d10:	3ebbbd41 	.word	0x3ebbbd41
    3d14:	af25de2c 	.word	0xaf25de2c
    3d18:	3f11566a 	.word	0x3f11566a
    3d1c:	16bebd93 	.word	0x16bebd93
    3d20:	3f66c16c 	.word	0x3f66c16c
    3d24:	5555553e 	.word	0x5555553e
    3d28:	3fc55555 	.word	0x3fc55555
    3d2c:	3ff00000 	.word	0x3ff00000
    3d30:	4090cbff 	.word	0x4090cbff
    3d34:	3f6f3400 	.word	0x3f6f3400
    3d38:	c2f8f359 	.word	0xc2f8f359
    3d3c:	01a56e1f 	.word	0x01a56e1f
    3d40:	bff00000 	.word	0xbff00000
    3d44:	3feffffe 	.word	0x3feffffe
    3d48:	3ff71547 	.word	0x3ff71547
    3d4c:	f85ddf44 	.word	0xf85ddf44
    3d50:	3e54ae0b 	.word	0x3e54ae0b
    3d54:	3fd00000 	.word	0x3fd00000
    3d58:	55555555 	.word	0x55555555
    3d5c:	3fd55555 	.word	0x3fd55555
    3d60:	3fe00000 	.word	0x3fe00000
    3d64:	652b82fe 	.word	0x652b82fe
    3d68:	8800759c 	.word	0x8800759c
    3d6c:	7e37e43c 	.word	0x7e37e43c
    3d70:	3fe2b803 	.word	0x3fe2b803
    3d74:	43cfd006 	.word	0x43cfd006
    3d78:	3e4cfdeb 	.word	0x3e4cfdeb
    3d7c:	3ff80000 	.word	0x3ff80000

00003d80 <__ieee754_sqrt>:
    3d80:	b5f0      	push	{r4, r5, r6, r7, lr}
    3d82:	4656      	mov	r6, sl
    3d84:	464d      	mov	r5, r9
    3d86:	4644      	mov	r4, r8
    3d88:	465f      	mov	r7, fp
    3d8a:	4b75      	ldr	r3, [pc, #468]	; (3f60 <__ieee754_sqrt+0x1e0>)
    3d8c:	b4f0      	push	{r4, r5, r6, r7}
    3d8e:	000a      	movs	r2, r1
    3d90:	000d      	movs	r5, r1
    3d92:	0019      	movs	r1, r3
    3d94:	b083      	sub	sp, #12
    3d96:	0006      	movs	r6, r0
    3d98:	0004      	movs	r4, r0
    3d9a:	4029      	ands	r1, r5
    3d9c:	4299      	cmp	r1, r3
    3d9e:	d100      	bne.n	3da2 <__ieee754_sqrt+0x22>
    3da0:	e0ba      	b.n	3f18 <__ieee754_sqrt+0x198>
    3da2:	2d00      	cmp	r5, #0
    3da4:	dc00      	bgt.n	3da8 <__ieee754_sqrt+0x28>
    3da6:	e094      	b.n	3ed2 <__ieee754_sqrt+0x152>
    3da8:	152d      	asrs	r5, r5, #20
    3daa:	d100      	bne.n	3dae <__ieee754_sqrt+0x2e>
    3dac:	e0a3      	b.n	3ef6 <__ieee754_sqrt+0x176>
    3dae:	4b6d      	ldr	r3, [pc, #436]	; (3f64 <__ieee754_sqrt+0x1e4>)
    3db0:	0312      	lsls	r2, r2, #12
    3db2:	469c      	mov	ip, r3
    3db4:	2380      	movs	r3, #128	; 0x80
    3db6:	0b12      	lsrs	r2, r2, #12
    3db8:	035b      	lsls	r3, r3, #13
    3dba:	4465      	add	r5, ip
    3dbc:	431a      	orrs	r2, r3
    3dbe:	07eb      	lsls	r3, r5, #31
    3dc0:	d500      	bpl.n	3dc4 <__ieee754_sqrt+0x44>
    3dc2:	e081      	b.n	3ec8 <__ieee754_sqrt+0x148>
    3dc4:	106b      	asrs	r3, r5, #1
    3dc6:	4698      	mov	r8, r3
    3dc8:	0fe3      	lsrs	r3, r4, #31
    3dca:	189b      	adds	r3, r3, r2
    3dcc:	189b      	adds	r3, r3, r2
    3dce:	2280      	movs	r2, #128	; 0x80
    3dd0:	2116      	movs	r1, #22
    3dd2:	2600      	movs	r6, #0
    3dd4:	2700      	movs	r7, #0
    3dd6:	0064      	lsls	r4, r4, #1
    3dd8:	0392      	lsls	r2, r2, #14
    3dda:	18b8      	adds	r0, r7, r2
    3ddc:	4298      	cmp	r0, r3
    3dde:	dc02      	bgt.n	3de6 <__ieee754_sqrt+0x66>
    3de0:	1887      	adds	r7, r0, r2
    3de2:	1a1b      	subs	r3, r3, r0
    3de4:	18b6      	adds	r6, r6, r2
    3de6:	0fe0      	lsrs	r0, r4, #31
    3de8:	005b      	lsls	r3, r3, #1
    3dea:	3901      	subs	r1, #1
    3dec:	181b      	adds	r3, r3, r0
    3dee:	0064      	lsls	r4, r4, #1
    3df0:	0852      	lsrs	r2, r2, #1
    3df2:	2900      	cmp	r1, #0
    3df4:	d1f1      	bne.n	3dda <__ieee754_sqrt+0x5a>
    3df6:	2200      	movs	r2, #0
    3df8:	9201      	str	r2, [sp, #4]
    3dfa:	4694      	mov	ip, r2
    3dfc:	2280      	movs	r2, #128	; 0x80
    3dfe:	0612      	lsls	r2, r2, #24
    3e00:	2020      	movs	r0, #32
    3e02:	4691      	mov	r9, r2
    3e04:	e009      	b.n	3e1a <__ieee754_sqrt+0x9a>
    3e06:	429f      	cmp	r7, r3
    3e08:	d041      	beq.n	3e8e <__ieee754_sqrt+0x10e>
    3e0a:	0fe1      	lsrs	r1, r4, #31
    3e0c:	18c9      	adds	r1, r1, r3
    3e0e:	3801      	subs	r0, #1
    3e10:	18cb      	adds	r3, r1, r3
    3e12:	0064      	lsls	r4, r4, #1
    3e14:	0852      	lsrs	r2, r2, #1
    3e16:	2800      	cmp	r0, #0
    3e18:	d01e      	beq.n	3e58 <__ieee754_sqrt+0xd8>
    3e1a:	4661      	mov	r1, ip
    3e1c:	1851      	adds	r1, r2, r1
    3e1e:	429f      	cmp	r7, r3
    3e20:	daf1      	bge.n	3e06 <__ieee754_sqrt+0x86>
    3e22:	188d      	adds	r5, r1, r2
    3e24:	46ac      	mov	ip, r5
    3e26:	0fcd      	lsrs	r5, r1, #31
    3e28:	07ed      	lsls	r5, r5, #31
    3e2a:	46ba      	mov	sl, r7
    3e2c:	454d      	cmp	r5, r9
    3e2e:	d039      	beq.n	3ea4 <__ieee754_sqrt+0x124>
    3e30:	1bdb      	subs	r3, r3, r7
    3e32:	428c      	cmp	r4, r1
    3e34:	41bf      	sbcs	r7, r7
    3e36:	427f      	negs	r7, r7
    3e38:	1bdb      	subs	r3, r3, r7
    3e3a:	1a64      	subs	r4, r4, r1
    3e3c:	9901      	ldr	r1, [sp, #4]
    3e3e:	3801      	subs	r0, #1
    3e40:	468b      	mov	fp, r1
    3e42:	4493      	add	fp, r2
    3e44:	4659      	mov	r1, fp
    3e46:	9101      	str	r1, [sp, #4]
    3e48:	0fe1      	lsrs	r1, r4, #31
    3e4a:	18c9      	adds	r1, r1, r3
    3e4c:	4657      	mov	r7, sl
    3e4e:	18cb      	adds	r3, r1, r3
    3e50:	0064      	lsls	r4, r4, #1
    3e52:	0852      	lsrs	r2, r2, #1
    3e54:	2800      	cmp	r0, #0
    3e56:	d1e0      	bne.n	3e1a <__ieee754_sqrt+0x9a>
    3e58:	4323      	orrs	r3, r4
    3e5a:	d12b      	bne.n	3eb4 <__ieee754_sqrt+0x134>
    3e5c:	9b01      	ldr	r3, [sp, #4]
    3e5e:	085b      	lsrs	r3, r3, #1
    3e60:	4941      	ldr	r1, [pc, #260]	; (3f68 <__ieee754_sqrt+0x1e8>)
    3e62:	1072      	asrs	r2, r6, #1
    3e64:	468c      	mov	ip, r1
    3e66:	4462      	add	r2, ip
    3e68:	07f1      	lsls	r1, r6, #31
    3e6a:	d502      	bpl.n	3e72 <__ieee754_sqrt+0xf2>
    3e6c:	2180      	movs	r1, #128	; 0x80
    3e6e:	0609      	lsls	r1, r1, #24
    3e70:	430b      	orrs	r3, r1
    3e72:	4641      	mov	r1, r8
    3e74:	0509      	lsls	r1, r1, #20
    3e76:	188d      	adds	r5, r1, r2
    3e78:	001e      	movs	r6, r3
    3e7a:	002f      	movs	r7, r5
    3e7c:	0030      	movs	r0, r6
    3e7e:	0039      	movs	r1, r7
    3e80:	b003      	add	sp, #12
    3e82:	bc3c      	pop	{r2, r3, r4, r5}
    3e84:	4690      	mov	r8, r2
    3e86:	4699      	mov	r9, r3
    3e88:	46a2      	mov	sl, r4
    3e8a:	46ab      	mov	fp, r5
    3e8c:	bdf0      	pop	{r4, r5, r6, r7, pc}
    3e8e:	42a1      	cmp	r1, r4
    3e90:	d80e      	bhi.n	3eb0 <__ieee754_sqrt+0x130>
    3e92:	188d      	adds	r5, r1, r2
    3e94:	46ac      	mov	ip, r5
    3e96:	0fcd      	lsrs	r5, r1, #31
    3e98:	07ed      	lsls	r5, r5, #31
    3e9a:	454d      	cmp	r5, r9
    3e9c:	d048      	beq.n	3f30 <__ieee754_sqrt+0x1b0>
    3e9e:	469a      	mov	sl, r3
    3ea0:	2300      	movs	r3, #0
    3ea2:	e7ca      	b.n	3e3a <__ieee754_sqrt+0xba>
    3ea4:	4665      	mov	r5, ip
    3ea6:	2d00      	cmp	r5, #0
    3ea8:	dbc2      	blt.n	3e30 <__ieee754_sqrt+0xb0>
    3eaa:	1c7d      	adds	r5, r7, #1
    3eac:	46aa      	mov	sl, r5
    3eae:	e7bf      	b.n	3e30 <__ieee754_sqrt+0xb0>
    3eb0:	003b      	movs	r3, r7
    3eb2:	e7aa      	b.n	3e0a <__ieee754_sqrt+0x8a>
    3eb4:	9b01      	ldr	r3, [sp, #4]
    3eb6:	3301      	adds	r3, #1
    3eb8:	d03e      	beq.n	3f38 <__ieee754_sqrt+0x1b8>
    3eba:	9a01      	ldr	r2, [sp, #4]
    3ebc:	2301      	movs	r3, #1
    3ebe:	4694      	mov	ip, r2
    3ec0:	4013      	ands	r3, r2
    3ec2:	4463      	add	r3, ip
    3ec4:	085b      	lsrs	r3, r3, #1
    3ec6:	e7cb      	b.n	3e60 <__ieee754_sqrt+0xe0>
    3ec8:	0fe3      	lsrs	r3, r4, #31
    3eca:	0052      	lsls	r2, r2, #1
    3ecc:	189a      	adds	r2, r3, r2
    3ece:	0064      	lsls	r4, r4, #1
    3ed0:	e778      	b.n	3dc4 <__ieee754_sqrt+0x44>
    3ed2:	006b      	lsls	r3, r5, #1
    3ed4:	085b      	lsrs	r3, r3, #1
    3ed6:	4303      	orrs	r3, r0
    3ed8:	002f      	movs	r7, r5
    3eda:	2b00      	cmp	r3, #0
    3edc:	d0ce      	beq.n	3e7c <__ieee754_sqrt+0xfc>
    3ede:	2500      	movs	r5, #0
    3ee0:	2a00      	cmp	r2, #0
    3ee2:	d131      	bne.n	3f48 <__ieee754_sqrt+0x1c8>
    3ee4:	0ae2      	lsrs	r2, r4, #11
    3ee6:	3d15      	subs	r5, #21
    3ee8:	0564      	lsls	r4, r4, #21
    3eea:	2a00      	cmp	r2, #0
    3eec:	d0fa      	beq.n	3ee4 <__ieee754_sqrt+0x164>
    3eee:	2380      	movs	r3, #128	; 0x80
    3ef0:	035b      	lsls	r3, r3, #13
    3ef2:	421a      	tst	r2, r3
    3ef4:	d123      	bne.n	3f3e <__ieee754_sqrt+0x1be>
    3ef6:	2080      	movs	r0, #128	; 0x80
    3ef8:	2300      	movs	r3, #0
    3efa:	0340      	lsls	r0, r0, #13
    3efc:	e000      	b.n	3f00 <__ieee754_sqrt+0x180>
    3efe:	000b      	movs	r3, r1
    3f00:	0052      	lsls	r2, r2, #1
    3f02:	1c59      	adds	r1, r3, #1
    3f04:	4202      	tst	r2, r0
    3f06:	d0fa      	beq.n	3efe <__ieee754_sqrt+0x17e>
    3f08:	2020      	movs	r0, #32
    3f0a:	1a40      	subs	r0, r0, r1
    3f0c:	1aed      	subs	r5, r5, r3
    3f0e:	0023      	movs	r3, r4
    3f10:	40c3      	lsrs	r3, r0
    3f12:	408c      	lsls	r4, r1
    3f14:	431a      	orrs	r2, r3
    3f16:	e74a      	b.n	3dae <__ieee754_sqrt+0x2e>
    3f18:	0002      	movs	r2, r0
    3f1a:	002b      	movs	r3, r5
    3f1c:	0029      	movs	r1, r5
    3f1e:	f001 faf1 	bl	5504 <__aeabi_dmul>
    3f22:	0032      	movs	r2, r6
    3f24:	002b      	movs	r3, r5
    3f26:	f000 fb9d 	bl	4664 <__aeabi_dadd>
    3f2a:	0006      	movs	r6, r0
    3f2c:	000f      	movs	r7, r1
    3f2e:	e7a5      	b.n	3e7c <__ieee754_sqrt+0xfc>
    3f30:	4665      	mov	r5, ip
    3f32:	2d00      	cmp	r5, #0
    3f34:	dab9      	bge.n	3eaa <__ieee754_sqrt+0x12a>
    3f36:	e7b2      	b.n	3e9e <__ieee754_sqrt+0x11e>
    3f38:	3601      	adds	r6, #1
    3f3a:	2300      	movs	r3, #0
    3f3c:	e790      	b.n	3e60 <__ieee754_sqrt+0xe0>
    3f3e:	2301      	movs	r3, #1
    3f40:	2020      	movs	r0, #32
    3f42:	425b      	negs	r3, r3
    3f44:	2100      	movs	r1, #0
    3f46:	e7e1      	b.n	3f0c <__ieee754_sqrt+0x18c>
    3f48:	003b      	movs	r3, r7
    3f4a:	0002      	movs	r2, r0
    3f4c:	0039      	movs	r1, r7
    3f4e:	f001 fd53 	bl	59f8 <__aeabi_dsub>
    3f52:	0002      	movs	r2, r0
    3f54:	000b      	movs	r3, r1
    3f56:	f000 feb1 	bl	4cbc <__aeabi_ddiv>
    3f5a:	0006      	movs	r6, r0
    3f5c:	000f      	movs	r7, r1
    3f5e:	e78d      	b.n	3e7c <__ieee754_sqrt+0xfc>
    3f60:	7ff00000 	.word	0x7ff00000
    3f64:	fffffc01 	.word	0xfffffc01
    3f68:	3fe00000 	.word	0x3fe00000

00003f6c <fabs>:
    3f6c:	0049      	lsls	r1, r1, #1
    3f6e:	084b      	lsrs	r3, r1, #1
    3f70:	0019      	movs	r1, r3
    3f72:	4770      	bx	lr

00003f74 <finite>:
    3f74:	4b03      	ldr	r3, [pc, #12]	; (3f84 <finite+0x10>)
    3f76:	0048      	lsls	r0, r1, #1
    3f78:	469c      	mov	ip, r3
    3f7a:	0840      	lsrs	r0, r0, #1
    3f7c:	4460      	add	r0, ip
    3f7e:	0fc0      	lsrs	r0, r0, #31
    3f80:	4770      	bx	lr
    3f82:	46c0      	nop			; (mov r8, r8)
    3f84:	80100000 	.word	0x80100000

00003f88 <matherr>:
    3f88:	2000      	movs	r0, #0
    3f8a:	4770      	bx	lr

00003f8c <nan>:
    3f8c:	2000      	movs	r0, #0
    3f8e:	4901      	ldr	r1, [pc, #4]	; (3f94 <nan+0x8>)
    3f90:	4770      	bx	lr
    3f92:	46c0      	nop			; (mov r8, r8)
    3f94:	7ff80000 	.word	0x7ff80000

00003f98 <rint>:
    3f98:	b5f0      	push	{r4, r5, r6, r7, lr}
    3f9a:	4647      	mov	r7, r8
    3f9c:	b480      	push	{r7}
    3f9e:	0fcb      	lsrs	r3, r1, #31
    3fa0:	4698      	mov	r8, r3
    3fa2:	4c4a      	ldr	r4, [pc, #296]	; (40cc <rint+0x134>)
    3fa4:	004b      	lsls	r3, r1, #1
    3fa6:	0d5b      	lsrs	r3, r3, #21
    3fa8:	191e      	adds	r6, r3, r4
    3faa:	b082      	sub	sp, #8
    3fac:	0007      	movs	r7, r0
    3fae:	000a      	movs	r2, r1
    3fb0:	2e13      	cmp	r6, #19
    3fb2:	dc35      	bgt.n	4020 <rint+0x88>
    3fb4:	2e00      	cmp	r6, #0
    3fb6:	db57      	blt.n	4068 <rint+0xd0>
    3fb8:	4b45      	ldr	r3, [pc, #276]	; (40d0 <rint+0x138>)
    3fba:	0004      	movs	r4, r0
    3fbc:	4133      	asrs	r3, r6
    3fbe:	001f      	movs	r7, r3
    3fc0:	400f      	ands	r7, r1
    3fc2:	4307      	orrs	r7, r0
    3fc4:	000d      	movs	r5, r1
    3fc6:	2f00      	cmp	r7, #0
    3fc8:	d024      	beq.n	4014 <rint+0x7c>
    3fca:	085b      	lsrs	r3, r3, #1
    3fcc:	001c      	movs	r4, r3
    3fce:	400c      	ands	r4, r1
    3fd0:	4320      	orrs	r0, r4
    3fd2:	2700      	movs	r7, #0
    3fd4:	2800      	cmp	r0, #0
    3fd6:	d007      	beq.n	3fe8 <rint+0x50>
    3fd8:	2e13      	cmp	r6, #19
    3fda:	d100      	bne.n	3fde <rint+0x46>
    3fdc:	e072      	b.n	40c4 <rint+0x12c>
    3fde:	2280      	movs	r2, #128	; 0x80
    3fe0:	02d2      	lsls	r2, r2, #11
    3fe2:	4132      	asrs	r2, r6
    3fe4:	4399      	bics	r1, r3
    3fe6:	430a      	orrs	r2, r1
    3fe8:	4643      	mov	r3, r8
    3fea:	00de      	lsls	r6, r3, #3
    3fec:	4b39      	ldr	r3, [pc, #228]	; (40d4 <rint+0x13c>)
    3fee:	0011      	movs	r1, r2
    3ff0:	199e      	adds	r6, r3, r6
    3ff2:	6834      	ldr	r4, [r6, #0]
    3ff4:	6875      	ldr	r5, [r6, #4]
    3ff6:	0038      	movs	r0, r7
    3ff8:	0022      	movs	r2, r4
    3ffa:	002b      	movs	r3, r5
    3ffc:	f000 fb32 	bl	4664 <__aeabi_dadd>
    4000:	9000      	str	r0, [sp, #0]
    4002:	9101      	str	r1, [sp, #4]
    4004:	9800      	ldr	r0, [sp, #0]
    4006:	9901      	ldr	r1, [sp, #4]
    4008:	0022      	movs	r2, r4
    400a:	002b      	movs	r3, r5
    400c:	f001 fcf4 	bl	59f8 <__aeabi_dsub>
    4010:	0004      	movs	r4, r0
    4012:	000d      	movs	r5, r1
    4014:	0020      	movs	r0, r4
    4016:	0029      	movs	r1, r5
    4018:	b002      	add	sp, #8
    401a:	bc04      	pop	{r2}
    401c:	4690      	mov	r8, r2
    401e:	bdf0      	pop	{r4, r5, r6, r7, pc}
    4020:	2e33      	cmp	r6, #51	; 0x33
    4022:	dd0c      	ble.n	403e <rint+0xa6>
    4024:	2380      	movs	r3, #128	; 0x80
    4026:	0004      	movs	r4, r0
    4028:	000d      	movs	r5, r1
    402a:	00db      	lsls	r3, r3, #3
    402c:	429e      	cmp	r6, r3
    402e:	d1f1      	bne.n	4014 <rint+0x7c>
    4030:	0002      	movs	r2, r0
    4032:	000b      	movs	r3, r1
    4034:	f000 fb16 	bl	4664 <__aeabi_dadd>
    4038:	0004      	movs	r4, r0
    403a:	000d      	movs	r5, r1
    403c:	e7ea      	b.n	4014 <rint+0x7c>
    403e:	4c26      	ldr	r4, [pc, #152]	; (40d8 <rint+0x140>)
    4040:	000d      	movs	r5, r1
    4042:	46a4      	mov	ip, r4
    4044:	2401      	movs	r4, #1
    4046:	4463      	add	r3, ip
    4048:	4264      	negs	r4, r4
    404a:	40dc      	lsrs	r4, r3
    404c:	46a4      	mov	ip, r4
    404e:	4661      	mov	r1, ip
    4050:	0004      	movs	r4, r0
    4052:	4201      	tst	r1, r0
    4054:	d0de      	beq.n	4014 <rint+0x7c>
    4056:	0849      	lsrs	r1, r1, #1
    4058:	4201      	tst	r1, r0
    405a:	d0c5      	beq.n	3fe8 <rint+0x50>
    405c:	2780      	movs	r7, #128	; 0x80
    405e:	05ff      	lsls	r7, r7, #23
    4060:	411f      	asrs	r7, r3
    4062:	4388      	bics	r0, r1
    4064:	4307      	orrs	r7, r0
    4066:	e7bf      	b.n	3fe8 <rint+0x50>
    4068:	004b      	lsls	r3, r1, #1
    406a:	085b      	lsrs	r3, r3, #1
    406c:	4303      	orrs	r3, r0
    406e:	0004      	movs	r4, r0
    4070:	000d      	movs	r5, r1
    4072:	2b00      	cmp	r3, #0
    4074:	d0ce      	beq.n	4014 <rint+0x7c>
    4076:	030b      	lsls	r3, r1, #12
    4078:	0b1b      	lsrs	r3, r3, #12
    407a:	4303      	orrs	r3, r0
    407c:	425a      	negs	r2, r3
    407e:	4313      	orrs	r3, r2
    4080:	2280      	movs	r2, #128	; 0x80
    4082:	0b1b      	lsrs	r3, r3, #12
    4084:	0312      	lsls	r2, r2, #12
    4086:	4013      	ands	r3, r2
    4088:	0c4a      	lsrs	r2, r1, #17
    408a:	0452      	lsls	r2, r2, #17
    408c:	4313      	orrs	r3, r2
    408e:	0019      	movs	r1, r3
    4090:	4643      	mov	r3, r8
    4092:	4a10      	ldr	r2, [pc, #64]	; (40d4 <rint+0x13c>)
    4094:	00db      	lsls	r3, r3, #3
    4096:	18d3      	adds	r3, r2, r3
    4098:	681c      	ldr	r4, [r3, #0]
    409a:	685d      	ldr	r5, [r3, #4]
    409c:	0022      	movs	r2, r4
    409e:	002b      	movs	r3, r5
    40a0:	f000 fae0 	bl	4664 <__aeabi_dadd>
    40a4:	9000      	str	r0, [sp, #0]
    40a6:	9101      	str	r1, [sp, #4]
    40a8:	9800      	ldr	r0, [sp, #0]
    40aa:	9901      	ldr	r1, [sp, #4]
    40ac:	0022      	movs	r2, r4
    40ae:	002b      	movs	r3, r5
    40b0:	f001 fca2 	bl	59f8 <__aeabi_dsub>
    40b4:	4642      	mov	r2, r8
    40b6:	004b      	lsls	r3, r1, #1
    40b8:	085b      	lsrs	r3, r3, #1
    40ba:	07d6      	lsls	r6, r2, #31
    40bc:	4333      	orrs	r3, r6
    40be:	0004      	movs	r4, r0
    40c0:	001d      	movs	r5, r3
    40c2:	e7a7      	b.n	4014 <rint+0x7c>
    40c4:	2780      	movs	r7, #128	; 0x80
    40c6:	063f      	lsls	r7, r7, #24
    40c8:	e789      	b.n	3fde <rint+0x46>
    40ca:	46c0      	nop			; (mov r8, r8)
    40cc:	fffffc01 	.word	0xfffffc01
    40d0:	000fffff 	.word	0x000fffff
    40d4:	000064c0 	.word	0x000064c0
    40d8:	fffffbed 	.word	0xfffffbed

000040dc <scalbn>:
    40dc:	004b      	lsls	r3, r1, #1
    40de:	b570      	push	{r4, r5, r6, lr}
    40e0:	0d5b      	lsrs	r3, r3, #21
    40e2:	0014      	movs	r4, r2
    40e4:	000a      	movs	r2, r1
    40e6:	2b00      	cmp	r3, #0
    40e8:	d11a      	bne.n	4120 <scalbn+0x44>
    40ea:	004b      	lsls	r3, r1, #1
    40ec:	085b      	lsrs	r3, r3, #1
    40ee:	4303      	orrs	r3, r0
    40f0:	d015      	beq.n	411e <scalbn+0x42>
    40f2:	2200      	movs	r2, #0
    40f4:	4b22      	ldr	r3, [pc, #136]	; (4180 <scalbn+0xa4>)
    40f6:	f001 fa05 	bl	5504 <__aeabi_dmul>
    40fa:	4b22      	ldr	r3, [pc, #136]	; (4184 <scalbn+0xa8>)
    40fc:	000a      	movs	r2, r1
    40fe:	429c      	cmp	r4, r3
    4100:	db22      	blt.n	4148 <scalbn+0x6c>
    4102:	004b      	lsls	r3, r1, #1
    4104:	0d5b      	lsrs	r3, r3, #21
    4106:	3b36      	subs	r3, #54	; 0x36
    4108:	4d1f      	ldr	r5, [pc, #124]	; (4188 <scalbn+0xac>)
    410a:	18e3      	adds	r3, r4, r3
    410c:	42ab      	cmp	r3, r5
    410e:	dc20      	bgt.n	4152 <scalbn+0x76>
    4110:	2b00      	cmp	r3, #0
    4112:	dd0d      	ble.n	4130 <scalbn+0x54>
    4114:	4c1d      	ldr	r4, [pc, #116]	; (418c <scalbn+0xb0>)
    4116:	051b      	lsls	r3, r3, #20
    4118:	4022      	ands	r2, r4
    411a:	431a      	orrs	r2, r3
    411c:	0011      	movs	r1, r2
    411e:	bd70      	pop	{r4, r5, r6, pc}
    4120:	4d1b      	ldr	r5, [pc, #108]	; (4190 <scalbn+0xb4>)
    4122:	42ab      	cmp	r3, r5
    4124:	d1f0      	bne.n	4108 <scalbn+0x2c>
    4126:	0002      	movs	r2, r0
    4128:	000b      	movs	r3, r1
    412a:	f000 fa9b 	bl	4664 <__aeabi_dadd>
    412e:	e7f6      	b.n	411e <scalbn+0x42>
    4130:	001d      	movs	r5, r3
    4132:	3535      	adds	r5, #53	; 0x35
    4134:	da18      	bge.n	4168 <scalbn+0x8c>
    4136:	4b17      	ldr	r3, [pc, #92]	; (4194 <scalbn+0xb8>)
    4138:	0002      	movs	r2, r0
    413a:	429c      	cmp	r4, r3
    413c:	dc0a      	bgt.n	4154 <scalbn+0x78>
    413e:	000b      	movs	r3, r1
    4140:	4815      	ldr	r0, [pc, #84]	; (4198 <scalbn+0xbc>)
    4142:	4916      	ldr	r1, [pc, #88]	; (419c <scalbn+0xc0>)
    4144:	f000 f832 	bl	41ac <copysign>
    4148:	4a13      	ldr	r2, [pc, #76]	; (4198 <scalbn+0xbc>)
    414a:	4b14      	ldr	r3, [pc, #80]	; (419c <scalbn+0xc0>)
    414c:	f001 f9da 	bl	5504 <__aeabi_dmul>
    4150:	e7e5      	b.n	411e <scalbn+0x42>
    4152:	0002      	movs	r2, r0
    4154:	000b      	movs	r3, r1
    4156:	4812      	ldr	r0, [pc, #72]	; (41a0 <scalbn+0xc4>)
    4158:	4912      	ldr	r1, [pc, #72]	; (41a4 <scalbn+0xc8>)
    415a:	f000 f827 	bl	41ac <copysign>
    415e:	4a10      	ldr	r2, [pc, #64]	; (41a0 <scalbn+0xc4>)
    4160:	4b10      	ldr	r3, [pc, #64]	; (41a4 <scalbn+0xc8>)
    4162:	f001 f9cf 	bl	5504 <__aeabi_dmul>
    4166:	e7da      	b.n	411e <scalbn+0x42>
    4168:	4c08      	ldr	r4, [pc, #32]	; (418c <scalbn+0xb0>)
    416a:	3336      	adds	r3, #54	; 0x36
    416c:	4022      	ands	r2, r4
    416e:	051b      	lsls	r3, r3, #20
    4170:	4313      	orrs	r3, r2
    4172:	0019      	movs	r1, r3
    4174:	2200      	movs	r2, #0
    4176:	4b0c      	ldr	r3, [pc, #48]	; (41a8 <scalbn+0xcc>)
    4178:	f001 f9c4 	bl	5504 <__aeabi_dmul>
    417c:	e7cf      	b.n	411e <scalbn+0x42>
    417e:	46c0      	nop			; (mov r8, r8)
    4180:	43500000 	.word	0x43500000
    4184:	ffff3cb0 	.word	0xffff3cb0
    4188:	000007fe 	.word	0x000007fe
    418c:	800fffff 	.word	0x800fffff
    4190:	000007ff 	.word	0x000007ff
    4194:	0000c350 	.word	0x0000c350
    4198:	c2f8f359 	.word	0xc2f8f359
    419c:	01a56e1f 	.word	0x01a56e1f
    41a0:	8800759c 	.word	0x8800759c
    41a4:	7e37e43c 	.word	0x7e37e43c
    41a8:	3c900000 	.word	0x3c900000

000041ac <copysign>:
    41ac:	b530      	push	{r4, r5, lr}
    41ae:	004a      	lsls	r2, r1, #1
    41b0:	0fdb      	lsrs	r3, r3, #31
    41b2:	07db      	lsls	r3, r3, #31
    41b4:	0852      	lsrs	r2, r2, #1
    41b6:	431a      	orrs	r2, r3
    41b8:	0011      	movs	r1, r2
    41ba:	bd30      	pop	{r4, r5, pc}

000041bc <__gnu_thumb1_case_uqi>:
    41bc:	b402      	push	{r1}
    41be:	4671      	mov	r1, lr
    41c0:	0849      	lsrs	r1, r1, #1
    41c2:	0049      	lsls	r1, r1, #1
    41c4:	5c09      	ldrb	r1, [r1, r0]
    41c6:	0049      	lsls	r1, r1, #1
    41c8:	448e      	add	lr, r1
    41ca:	bc02      	pop	{r1}
    41cc:	4770      	bx	lr
    41ce:	46c0      	nop			; (mov r8, r8)

000041d0 <__aeabi_uidiv>:
    41d0:	2200      	movs	r2, #0
    41d2:	0843      	lsrs	r3, r0, #1
    41d4:	428b      	cmp	r3, r1
    41d6:	d374      	bcc.n	42c2 <__aeabi_uidiv+0xf2>
    41d8:	0903      	lsrs	r3, r0, #4
    41da:	428b      	cmp	r3, r1
    41dc:	d35f      	bcc.n	429e <__aeabi_uidiv+0xce>
    41de:	0a03      	lsrs	r3, r0, #8
    41e0:	428b      	cmp	r3, r1
    41e2:	d344      	bcc.n	426e <__aeabi_uidiv+0x9e>
    41e4:	0b03      	lsrs	r3, r0, #12
    41e6:	428b      	cmp	r3, r1
    41e8:	d328      	bcc.n	423c <__aeabi_uidiv+0x6c>
    41ea:	0c03      	lsrs	r3, r0, #16
    41ec:	428b      	cmp	r3, r1
    41ee:	d30d      	bcc.n	420c <__aeabi_uidiv+0x3c>
    41f0:	22ff      	movs	r2, #255	; 0xff
    41f2:	0209      	lsls	r1, r1, #8
    41f4:	ba12      	rev	r2, r2
    41f6:	0c03      	lsrs	r3, r0, #16
    41f8:	428b      	cmp	r3, r1
    41fa:	d302      	bcc.n	4202 <__aeabi_uidiv+0x32>
    41fc:	1212      	asrs	r2, r2, #8
    41fe:	0209      	lsls	r1, r1, #8
    4200:	d065      	beq.n	42ce <__aeabi_uidiv+0xfe>
    4202:	0b03      	lsrs	r3, r0, #12
    4204:	428b      	cmp	r3, r1
    4206:	d319      	bcc.n	423c <__aeabi_uidiv+0x6c>
    4208:	e000      	b.n	420c <__aeabi_uidiv+0x3c>
    420a:	0a09      	lsrs	r1, r1, #8
    420c:	0bc3      	lsrs	r3, r0, #15
    420e:	428b      	cmp	r3, r1
    4210:	d301      	bcc.n	4216 <__aeabi_uidiv+0x46>
    4212:	03cb      	lsls	r3, r1, #15
    4214:	1ac0      	subs	r0, r0, r3
    4216:	4152      	adcs	r2, r2
    4218:	0b83      	lsrs	r3, r0, #14
    421a:	428b      	cmp	r3, r1
    421c:	d301      	bcc.n	4222 <__aeabi_uidiv+0x52>
    421e:	038b      	lsls	r3, r1, #14
    4220:	1ac0      	subs	r0, r0, r3
    4222:	4152      	adcs	r2, r2
    4224:	0b43      	lsrs	r3, r0, #13
    4226:	428b      	cmp	r3, r1
    4228:	d301      	bcc.n	422e <__aeabi_uidiv+0x5e>
    422a:	034b      	lsls	r3, r1, #13
    422c:	1ac0      	subs	r0, r0, r3
    422e:	4152      	adcs	r2, r2
    4230:	0b03      	lsrs	r3, r0, #12
    4232:	428b      	cmp	r3, r1
    4234:	d301      	bcc.n	423a <__aeabi_uidiv+0x6a>
    4236:	030b      	lsls	r3, r1, #12
    4238:	1ac0      	subs	r0, r0, r3
    423a:	4152      	adcs	r2, r2
    423c:	0ac3      	lsrs	r3, r0, #11
    423e:	428b      	cmp	r3, r1
    4240:	d301      	bcc.n	4246 <__aeabi_uidiv+0x76>
    4242:	02cb      	lsls	r3, r1, #11
    4244:	1ac0      	subs	r0, r0, r3
    4246:	4152      	adcs	r2, r2
    4248:	0a83      	lsrs	r3, r0, #10
    424a:	428b      	cmp	r3, r1
    424c:	d301      	bcc.n	4252 <__aeabi_uidiv+0x82>
    424e:	028b      	lsls	r3, r1, #10
    4250:	1ac0      	subs	r0, r0, r3
    4252:	4152      	adcs	r2, r2
    4254:	0a43      	lsrs	r3, r0, #9
    4256:	428b      	cmp	r3, r1
    4258:	d301      	bcc.n	425e <__aeabi_uidiv+0x8e>
    425a:	024b      	lsls	r3, r1, #9
    425c:	1ac0      	subs	r0, r0, r3
    425e:	4152      	adcs	r2, r2
    4260:	0a03      	lsrs	r3, r0, #8
    4262:	428b      	cmp	r3, r1
    4264:	d301      	bcc.n	426a <__aeabi_uidiv+0x9a>
    4266:	020b      	lsls	r3, r1, #8
    4268:	1ac0      	subs	r0, r0, r3
    426a:	4152      	adcs	r2, r2
    426c:	d2cd      	bcs.n	420a <__aeabi_uidiv+0x3a>
    426e:	09c3      	lsrs	r3, r0, #7
    4270:	428b      	cmp	r3, r1
    4272:	d301      	bcc.n	4278 <__aeabi_uidiv+0xa8>
    4274:	01cb      	lsls	r3, r1, #7
    4276:	1ac0      	subs	r0, r0, r3
    4278:	4152      	adcs	r2, r2
    427a:	0983      	lsrs	r3, r0, #6
    427c:	428b      	cmp	r3, r1
    427e:	d301      	bcc.n	4284 <__aeabi_uidiv+0xb4>
    4280:	018b      	lsls	r3, r1, #6
    4282:	1ac0      	subs	r0, r0, r3
    4284:	4152      	adcs	r2, r2
    4286:	0943      	lsrs	r3, r0, #5
    4288:	428b      	cmp	r3, r1
    428a:	d301      	bcc.n	4290 <__aeabi_uidiv+0xc0>
    428c:	014b      	lsls	r3, r1, #5
    428e:	1ac0      	subs	r0, r0, r3
    4290:	4152      	adcs	r2, r2
    4292:	0903      	lsrs	r3, r0, #4
    4294:	428b      	cmp	r3, r1
    4296:	d301      	bcc.n	429c <__aeabi_uidiv+0xcc>
    4298:	010b      	lsls	r3, r1, #4
    429a:	1ac0      	subs	r0, r0, r3
    429c:	4152      	adcs	r2, r2
    429e:	08c3      	lsrs	r3, r0, #3
    42a0:	428b      	cmp	r3, r1
    42a2:	d301      	bcc.n	42a8 <__aeabi_uidiv+0xd8>
    42a4:	00cb      	lsls	r3, r1, #3
    42a6:	1ac0      	subs	r0, r0, r3
    42a8:	4152      	adcs	r2, r2
    42aa:	0883      	lsrs	r3, r0, #2
    42ac:	428b      	cmp	r3, r1
    42ae:	d301      	bcc.n	42b4 <__aeabi_uidiv+0xe4>
    42b0:	008b      	lsls	r3, r1, #2
    42b2:	1ac0      	subs	r0, r0, r3
    42b4:	4152      	adcs	r2, r2
    42b6:	0843      	lsrs	r3, r0, #1
    42b8:	428b      	cmp	r3, r1
    42ba:	d301      	bcc.n	42c0 <__aeabi_uidiv+0xf0>
    42bc:	004b      	lsls	r3, r1, #1
    42be:	1ac0      	subs	r0, r0, r3
    42c0:	4152      	adcs	r2, r2
    42c2:	1a41      	subs	r1, r0, r1
    42c4:	d200      	bcs.n	42c8 <__aeabi_uidiv+0xf8>
    42c6:	4601      	mov	r1, r0
    42c8:	4152      	adcs	r2, r2
    42ca:	4610      	mov	r0, r2
    42cc:	4770      	bx	lr
    42ce:	e7ff      	b.n	42d0 <__aeabi_uidiv+0x100>
    42d0:	b501      	push	{r0, lr}
    42d2:	2000      	movs	r0, #0
    42d4:	f000 f806 	bl	42e4 <__aeabi_idiv0>
    42d8:	bd02      	pop	{r1, pc}
    42da:	46c0      	nop			; (mov r8, r8)

000042dc <__aeabi_uidivmod>:
    42dc:	2900      	cmp	r1, #0
    42de:	d0f7      	beq.n	42d0 <__aeabi_uidiv+0x100>
    42e0:	e776      	b.n	41d0 <__aeabi_uidiv>
    42e2:	4770      	bx	lr

000042e4 <__aeabi_idiv0>:
    42e4:	4770      	bx	lr
    42e6:	46c0      	nop			; (mov r8, r8)

000042e8 <__aeabi_cdrcmple>:
    42e8:	4684      	mov	ip, r0
    42ea:	1c10      	adds	r0, r2, #0
    42ec:	4662      	mov	r2, ip
    42ee:	468c      	mov	ip, r1
    42f0:	1c19      	adds	r1, r3, #0
    42f2:	4663      	mov	r3, ip
    42f4:	e000      	b.n	42f8 <__aeabi_cdcmpeq>
    42f6:	46c0      	nop			; (mov r8, r8)

000042f8 <__aeabi_cdcmpeq>:
    42f8:	b51f      	push	{r0, r1, r2, r3, r4, lr}
    42fa:	f001 f899 	bl	5430 <__ledf2>
    42fe:	2800      	cmp	r0, #0
    4300:	d401      	bmi.n	4306 <__aeabi_cdcmpeq+0xe>
    4302:	2100      	movs	r1, #0
    4304:	42c8      	cmn	r0, r1
    4306:	bd1f      	pop	{r0, r1, r2, r3, r4, pc}

00004308 <__aeabi_dcmpeq>:
    4308:	b510      	push	{r4, lr}
    430a:	f000 ffed 	bl	52e8 <__eqdf2>
    430e:	4240      	negs	r0, r0
    4310:	3001      	adds	r0, #1
    4312:	bd10      	pop	{r4, pc}

00004314 <__aeabi_dcmplt>:
    4314:	b510      	push	{r4, lr}
    4316:	f001 f88b 	bl	5430 <__ledf2>
    431a:	2800      	cmp	r0, #0
    431c:	db01      	blt.n	4322 <__aeabi_dcmplt+0xe>
    431e:	2000      	movs	r0, #0
    4320:	bd10      	pop	{r4, pc}
    4322:	2001      	movs	r0, #1
    4324:	bd10      	pop	{r4, pc}
    4326:	46c0      	nop			; (mov r8, r8)

00004328 <__aeabi_dcmple>:
    4328:	b510      	push	{r4, lr}
    432a:	f001 f881 	bl	5430 <__ledf2>
    432e:	2800      	cmp	r0, #0
    4330:	dd01      	ble.n	4336 <__aeabi_dcmple+0xe>
    4332:	2000      	movs	r0, #0
    4334:	bd10      	pop	{r4, pc}
    4336:	2001      	movs	r0, #1
    4338:	bd10      	pop	{r4, pc}
    433a:	46c0      	nop			; (mov r8, r8)

0000433c <__aeabi_dcmpgt>:
    433c:	b510      	push	{r4, lr}
    433e:	f001 f813 	bl	5368 <__gedf2>
    4342:	2800      	cmp	r0, #0
    4344:	dc01      	bgt.n	434a <__aeabi_dcmpgt+0xe>
    4346:	2000      	movs	r0, #0
    4348:	bd10      	pop	{r4, pc}
    434a:	2001      	movs	r0, #1
    434c:	bd10      	pop	{r4, pc}
    434e:	46c0      	nop			; (mov r8, r8)

00004350 <__aeabi_dcmpge>:
    4350:	b510      	push	{r4, lr}
    4352:	f001 f809 	bl	5368 <__gedf2>
    4356:	2800      	cmp	r0, #0
    4358:	da01      	bge.n	435e <__aeabi_dcmpge+0xe>
    435a:	2000      	movs	r0, #0
    435c:	bd10      	pop	{r4, pc}
    435e:	2001      	movs	r0, #1
    4360:	bd10      	pop	{r4, pc}
    4362:	46c0      	nop			; (mov r8, r8)

00004364 <__aeabi_lmul>:
    4364:	b5f0      	push	{r4, r5, r6, r7, lr}
    4366:	464f      	mov	r7, r9
    4368:	4646      	mov	r6, r8
    436a:	b4c0      	push	{r6, r7}
    436c:	0416      	lsls	r6, r2, #16
    436e:	0c36      	lsrs	r6, r6, #16
    4370:	4699      	mov	r9, r3
    4372:	0033      	movs	r3, r6
    4374:	0405      	lsls	r5, r0, #16
    4376:	0c2c      	lsrs	r4, r5, #16
    4378:	0c07      	lsrs	r7, r0, #16
    437a:	0c15      	lsrs	r5, r2, #16
    437c:	4363      	muls	r3, r4
    437e:	437e      	muls	r6, r7
    4380:	436f      	muls	r7, r5
    4382:	4365      	muls	r5, r4
    4384:	0c1c      	lsrs	r4, r3, #16
    4386:	19ad      	adds	r5, r5, r6
    4388:	1964      	adds	r4, r4, r5
    438a:	469c      	mov	ip, r3
    438c:	42a6      	cmp	r6, r4
    438e:	d903      	bls.n	4398 <__aeabi_lmul+0x34>
    4390:	2380      	movs	r3, #128	; 0x80
    4392:	025b      	lsls	r3, r3, #9
    4394:	4698      	mov	r8, r3
    4396:	4447      	add	r7, r8
    4398:	4663      	mov	r3, ip
    439a:	0c25      	lsrs	r5, r4, #16
    439c:	19ef      	adds	r7, r5, r7
    439e:	041d      	lsls	r5, r3, #16
    43a0:	464b      	mov	r3, r9
    43a2:	434a      	muls	r2, r1
    43a4:	4343      	muls	r3, r0
    43a6:	0c2d      	lsrs	r5, r5, #16
    43a8:	0424      	lsls	r4, r4, #16
    43aa:	1964      	adds	r4, r4, r5
    43ac:	1899      	adds	r1, r3, r2
    43ae:	19c9      	adds	r1, r1, r7
    43b0:	0020      	movs	r0, r4
    43b2:	bc0c      	pop	{r2, r3}
    43b4:	4690      	mov	r8, r2
    43b6:	4699      	mov	r9, r3
    43b8:	bdf0      	pop	{r4, r5, r6, r7, pc}
    43ba:	46c0      	nop			; (mov r8, r8)

000043bc <__aeabi_d2uiz>:
    43bc:	b570      	push	{r4, r5, r6, lr}
    43be:	2200      	movs	r2, #0
    43c0:	4b0c      	ldr	r3, [pc, #48]	; (43f4 <__aeabi_d2uiz+0x38>)
    43c2:	0004      	movs	r4, r0
    43c4:	000d      	movs	r5, r1
    43c6:	f7ff ffc3 	bl	4350 <__aeabi_dcmpge>
    43ca:	2800      	cmp	r0, #0
    43cc:	d104      	bne.n	43d8 <__aeabi_d2uiz+0x1c>
    43ce:	0020      	movs	r0, r4
    43d0:	0029      	movs	r1, r5
    43d2:	f001 fe85 	bl	60e0 <__aeabi_d2iz>
    43d6:	bd70      	pop	{r4, r5, r6, pc}
    43d8:	4b06      	ldr	r3, [pc, #24]	; (43f4 <__aeabi_d2uiz+0x38>)
    43da:	2200      	movs	r2, #0
    43dc:	0020      	movs	r0, r4
    43de:	0029      	movs	r1, r5
    43e0:	f001 fb0a 	bl	59f8 <__aeabi_dsub>
    43e4:	f001 fe7c 	bl	60e0 <__aeabi_d2iz>
    43e8:	2380      	movs	r3, #128	; 0x80
    43ea:	061b      	lsls	r3, r3, #24
    43ec:	469c      	mov	ip, r3
    43ee:	4460      	add	r0, ip
    43f0:	e7f1      	b.n	43d6 <__aeabi_d2uiz+0x1a>
    43f2:	46c0      	nop			; (mov r8, r8)
    43f4:	41e00000 	.word	0x41e00000

000043f8 <__aeabi_fmul>:
    43f8:	b5f0      	push	{r4, r5, r6, r7, lr}
    43fa:	4657      	mov	r7, sl
    43fc:	464e      	mov	r6, r9
    43fe:	4645      	mov	r5, r8
    4400:	0043      	lsls	r3, r0, #1
    4402:	b4e0      	push	{r5, r6, r7}
    4404:	0246      	lsls	r6, r0, #9
    4406:	4688      	mov	r8, r1
    4408:	0a76      	lsrs	r6, r6, #9
    440a:	0e1f      	lsrs	r7, r3, #24
    440c:	0fc4      	lsrs	r4, r0, #31
    440e:	2f00      	cmp	r7, #0
    4410:	d047      	beq.n	44a2 <__aeabi_fmul+0xaa>
    4412:	2fff      	cmp	r7, #255	; 0xff
    4414:	d025      	beq.n	4462 <__aeabi_fmul+0x6a>
    4416:	2300      	movs	r3, #0
    4418:	2580      	movs	r5, #128	; 0x80
    441a:	469a      	mov	sl, r3
    441c:	4699      	mov	r9, r3
    441e:	00f6      	lsls	r6, r6, #3
    4420:	04ed      	lsls	r5, r5, #19
    4422:	432e      	orrs	r6, r5
    4424:	3f7f      	subs	r7, #127	; 0x7f
    4426:	4643      	mov	r3, r8
    4428:	4642      	mov	r2, r8
    442a:	025d      	lsls	r5, r3, #9
    442c:	0fd2      	lsrs	r2, r2, #31
    442e:	005b      	lsls	r3, r3, #1
    4430:	0a6d      	lsrs	r5, r5, #9
    4432:	0e1b      	lsrs	r3, r3, #24
    4434:	4690      	mov	r8, r2
    4436:	d040      	beq.n	44ba <__aeabi_fmul+0xc2>
    4438:	2bff      	cmp	r3, #255	; 0xff
    443a:	d039      	beq.n	44b0 <__aeabi_fmul+0xb8>
    443c:	2280      	movs	r2, #128	; 0x80
    443e:	2000      	movs	r0, #0
    4440:	00ed      	lsls	r5, r5, #3
    4442:	04d2      	lsls	r2, r2, #19
    4444:	4315      	orrs	r5, r2
    4446:	3b7f      	subs	r3, #127	; 0x7f
    4448:	18fb      	adds	r3, r7, r3
    444a:	4642      	mov	r2, r8
    444c:	4657      	mov	r7, sl
    444e:	1c59      	adds	r1, r3, #1
    4450:	4062      	eors	r2, r4
    4452:	468c      	mov	ip, r1
    4454:	4307      	orrs	r7, r0
    4456:	2f0f      	cmp	r7, #15
    4458:	d85c      	bhi.n	4514 <__aeabi_fmul+0x11c>
    445a:	496f      	ldr	r1, [pc, #444]	; (4618 <__aeabi_fmul+0x220>)
    445c:	00bf      	lsls	r7, r7, #2
    445e:	59c9      	ldr	r1, [r1, r7]
    4460:	468f      	mov	pc, r1
    4462:	2e00      	cmp	r6, #0
    4464:	d145      	bne.n	44f2 <__aeabi_fmul+0xfa>
    4466:	2308      	movs	r3, #8
    4468:	469a      	mov	sl, r3
    446a:	3b06      	subs	r3, #6
    446c:	4699      	mov	r9, r3
    446e:	e7da      	b.n	4426 <__aeabi_fmul+0x2e>
    4470:	4642      	mov	r2, r8
    4472:	2802      	cmp	r0, #2
    4474:	d02d      	beq.n	44d2 <__aeabi_fmul+0xda>
    4476:	2803      	cmp	r0, #3
    4478:	d100      	bne.n	447c <__aeabi_fmul+0x84>
    447a:	e0c3      	b.n	4604 <__aeabi_fmul+0x20c>
    447c:	2801      	cmp	r0, #1
    447e:	d000      	beq.n	4482 <__aeabi_fmul+0x8a>
    4480:	e0a2      	b.n	45c8 <__aeabi_fmul+0x1d0>
    4482:	2500      	movs	r5, #0
    4484:	2600      	movs	r6, #0
    4486:	4002      	ands	r2, r0
    4488:	b2d4      	uxtb	r4, r2
    448a:	0276      	lsls	r6, r6, #9
    448c:	05ed      	lsls	r5, r5, #23
    448e:	0a76      	lsrs	r6, r6, #9
    4490:	432e      	orrs	r6, r5
    4492:	07e4      	lsls	r4, r4, #31
    4494:	4326      	orrs	r6, r4
    4496:	0030      	movs	r0, r6
    4498:	bc1c      	pop	{r2, r3, r4}
    449a:	4690      	mov	r8, r2
    449c:	4699      	mov	r9, r3
    449e:	46a2      	mov	sl, r4
    44a0:	bdf0      	pop	{r4, r5, r6, r7, pc}
    44a2:	2e00      	cmp	r6, #0
    44a4:	d11a      	bne.n	44dc <__aeabi_fmul+0xe4>
    44a6:	2304      	movs	r3, #4
    44a8:	469a      	mov	sl, r3
    44aa:	3b03      	subs	r3, #3
    44ac:	4699      	mov	r9, r3
    44ae:	e7ba      	b.n	4426 <__aeabi_fmul+0x2e>
    44b0:	002a      	movs	r2, r5
    44b2:	1e51      	subs	r1, r2, #1
    44b4:	418a      	sbcs	r2, r1
    44b6:	1c90      	adds	r0, r2, #2
    44b8:	e7c6      	b.n	4448 <__aeabi_fmul+0x50>
    44ba:	2001      	movs	r0, #1
    44bc:	2d00      	cmp	r5, #0
    44be:	d0c3      	beq.n	4448 <__aeabi_fmul+0x50>
    44c0:	0028      	movs	r0, r5
    44c2:	f001 ff9d 	bl	6400 <__clzsi2>
    44c6:	1f43      	subs	r3, r0, #5
    44c8:	3076      	adds	r0, #118	; 0x76
    44ca:	409d      	lsls	r5, r3
    44cc:	4243      	negs	r3, r0
    44ce:	2000      	movs	r0, #0
    44d0:	e7ba      	b.n	4448 <__aeabi_fmul+0x50>
    44d2:	2401      	movs	r4, #1
    44d4:	25ff      	movs	r5, #255	; 0xff
    44d6:	4014      	ands	r4, r2
    44d8:	2600      	movs	r6, #0
    44da:	e7d6      	b.n	448a <__aeabi_fmul+0x92>
    44dc:	0030      	movs	r0, r6
    44de:	f001 ff8f 	bl	6400 <__clzsi2>
    44e2:	1f43      	subs	r3, r0, #5
    44e4:	409e      	lsls	r6, r3
    44e6:	2300      	movs	r3, #0
    44e8:	3076      	adds	r0, #118	; 0x76
    44ea:	4247      	negs	r7, r0
    44ec:	469a      	mov	sl, r3
    44ee:	4699      	mov	r9, r3
    44f0:	e799      	b.n	4426 <__aeabi_fmul+0x2e>
    44f2:	230c      	movs	r3, #12
    44f4:	469a      	mov	sl, r3
    44f6:	3b09      	subs	r3, #9
    44f8:	4699      	mov	r9, r3
    44fa:	e794      	b.n	4426 <__aeabi_fmul+0x2e>
    44fc:	2680      	movs	r6, #128	; 0x80
    44fe:	2400      	movs	r4, #0
    4500:	03f6      	lsls	r6, r6, #15
    4502:	25ff      	movs	r5, #255	; 0xff
    4504:	e7c1      	b.n	448a <__aeabi_fmul+0x92>
    4506:	0035      	movs	r5, r6
    4508:	4648      	mov	r0, r9
    450a:	e7b2      	b.n	4472 <__aeabi_fmul+0x7a>
    450c:	0035      	movs	r5, r6
    450e:	0022      	movs	r2, r4
    4510:	4648      	mov	r0, r9
    4512:	e7ae      	b.n	4472 <__aeabi_fmul+0x7a>
    4514:	0429      	lsls	r1, r5, #16
    4516:	0c09      	lsrs	r1, r1, #16
    4518:	0008      	movs	r0, r1
    451a:	0c37      	lsrs	r7, r6, #16
    451c:	0436      	lsls	r6, r6, #16
    451e:	0c36      	lsrs	r6, r6, #16
    4520:	0c2c      	lsrs	r4, r5, #16
    4522:	4379      	muls	r1, r7
    4524:	4370      	muls	r0, r6
    4526:	4367      	muls	r7, r4
    4528:	4374      	muls	r4, r6
    452a:	0c06      	lsrs	r6, r0, #16
    452c:	1864      	adds	r4, r4, r1
    452e:	1936      	adds	r6, r6, r4
    4530:	42b1      	cmp	r1, r6
    4532:	d903      	bls.n	453c <__aeabi_fmul+0x144>
    4534:	2180      	movs	r1, #128	; 0x80
    4536:	0249      	lsls	r1, r1, #9
    4538:	4688      	mov	r8, r1
    453a:	4447      	add	r7, r8
    453c:	0400      	lsls	r0, r0, #16
    453e:	0c00      	lsrs	r0, r0, #16
    4540:	0431      	lsls	r1, r6, #16
    4542:	1809      	adds	r1, r1, r0
    4544:	018d      	lsls	r5, r1, #6
    4546:	1e68      	subs	r0, r5, #1
    4548:	4185      	sbcs	r5, r0
    454a:	0e89      	lsrs	r1, r1, #26
    454c:	4329      	orrs	r1, r5
    454e:	0c35      	lsrs	r5, r6, #16
    4550:	19ed      	adds	r5, r5, r7
    4552:	01ad      	lsls	r5, r5, #6
    4554:	430d      	orrs	r5, r1
    4556:	0129      	lsls	r1, r5, #4
    4558:	d504      	bpl.n	4564 <__aeabi_fmul+0x16c>
    455a:	2301      	movs	r3, #1
    455c:	0869      	lsrs	r1, r5, #1
    455e:	401d      	ands	r5, r3
    4560:	4663      	mov	r3, ip
    4562:	430d      	orrs	r5, r1
    4564:	0019      	movs	r1, r3
    4566:	317f      	adds	r1, #127	; 0x7f
    4568:	2900      	cmp	r1, #0
    456a:	dd25      	ble.n	45b8 <__aeabi_fmul+0x1c0>
    456c:	0768      	lsls	r0, r5, #29
    456e:	d004      	beq.n	457a <__aeabi_fmul+0x182>
    4570:	200f      	movs	r0, #15
    4572:	4028      	ands	r0, r5
    4574:	2804      	cmp	r0, #4
    4576:	d000      	beq.n	457a <__aeabi_fmul+0x182>
    4578:	3504      	adds	r5, #4
    457a:	0128      	lsls	r0, r5, #4
    457c:	d503      	bpl.n	4586 <__aeabi_fmul+0x18e>
    457e:	4927      	ldr	r1, [pc, #156]	; (461c <__aeabi_fmul+0x224>)
    4580:	3380      	adds	r3, #128	; 0x80
    4582:	400d      	ands	r5, r1
    4584:	0019      	movs	r1, r3
    4586:	29fe      	cmp	r1, #254	; 0xfe
    4588:	dca3      	bgt.n	44d2 <__aeabi_fmul+0xda>
    458a:	2401      	movs	r4, #1
    458c:	01ad      	lsls	r5, r5, #6
    458e:	0a6e      	lsrs	r6, r5, #9
    4590:	4014      	ands	r4, r2
    4592:	b2cd      	uxtb	r5, r1
    4594:	e779      	b.n	448a <__aeabi_fmul+0x92>
    4596:	2080      	movs	r0, #128	; 0x80
    4598:	03c0      	lsls	r0, r0, #15
    459a:	4206      	tst	r6, r0
    459c:	d007      	beq.n	45ae <__aeabi_fmul+0x1b6>
    459e:	4205      	tst	r5, r0
    45a0:	d105      	bne.n	45ae <__aeabi_fmul+0x1b6>
    45a2:	4328      	orrs	r0, r5
    45a4:	0246      	lsls	r6, r0, #9
    45a6:	0a76      	lsrs	r6, r6, #9
    45a8:	4644      	mov	r4, r8
    45aa:	25ff      	movs	r5, #255	; 0xff
    45ac:	e76d      	b.n	448a <__aeabi_fmul+0x92>
    45ae:	4306      	orrs	r6, r0
    45b0:	0276      	lsls	r6, r6, #9
    45b2:	0a76      	lsrs	r6, r6, #9
    45b4:	25ff      	movs	r5, #255	; 0xff
    45b6:	e768      	b.n	448a <__aeabi_fmul+0x92>
    45b8:	2401      	movs	r4, #1
    45ba:	1a61      	subs	r1, r4, r1
    45bc:	291b      	cmp	r1, #27
    45be:	dd05      	ble.n	45cc <__aeabi_fmul+0x1d4>
    45c0:	4014      	ands	r4, r2
    45c2:	2500      	movs	r5, #0
    45c4:	2600      	movs	r6, #0
    45c6:	e760      	b.n	448a <__aeabi_fmul+0x92>
    45c8:	4663      	mov	r3, ip
    45ca:	e7cb      	b.n	4564 <__aeabi_fmul+0x16c>
    45cc:	002e      	movs	r6, r5
    45ce:	2320      	movs	r3, #32
    45d0:	40ce      	lsrs	r6, r1
    45d2:	1a59      	subs	r1, r3, r1
    45d4:	408d      	lsls	r5, r1
    45d6:	1e6b      	subs	r3, r5, #1
    45d8:	419d      	sbcs	r5, r3
    45da:	432e      	orrs	r6, r5
    45dc:	0773      	lsls	r3, r6, #29
    45de:	d004      	beq.n	45ea <__aeabi_fmul+0x1f2>
    45e0:	230f      	movs	r3, #15
    45e2:	4033      	ands	r3, r6
    45e4:	2b04      	cmp	r3, #4
    45e6:	d000      	beq.n	45ea <__aeabi_fmul+0x1f2>
    45e8:	3604      	adds	r6, #4
    45ea:	0173      	lsls	r3, r6, #5
    45ec:	d504      	bpl.n	45f8 <__aeabi_fmul+0x200>
    45ee:	2401      	movs	r4, #1
    45f0:	2501      	movs	r5, #1
    45f2:	4014      	ands	r4, r2
    45f4:	2600      	movs	r6, #0
    45f6:	e748      	b.n	448a <__aeabi_fmul+0x92>
    45f8:	2401      	movs	r4, #1
    45fa:	01b6      	lsls	r6, r6, #6
    45fc:	0a76      	lsrs	r6, r6, #9
    45fe:	4014      	ands	r4, r2
    4600:	2500      	movs	r5, #0
    4602:	e742      	b.n	448a <__aeabi_fmul+0x92>
    4604:	2680      	movs	r6, #128	; 0x80
    4606:	2401      	movs	r4, #1
    4608:	03f6      	lsls	r6, r6, #15
    460a:	432e      	orrs	r6, r5
    460c:	0276      	lsls	r6, r6, #9
    460e:	0a76      	lsrs	r6, r6, #9
    4610:	4014      	ands	r4, r2
    4612:	25ff      	movs	r5, #255	; 0xff
    4614:	e739      	b.n	448a <__aeabi_fmul+0x92>
    4616:	46c0      	nop			; (mov r8, r8)
    4618:	000064d0 	.word	0x000064d0
    461c:	f7ffffff 	.word	0xf7ffffff

00004620 <__aeabi_f2iz>:
    4620:	0243      	lsls	r3, r0, #9
    4622:	0a59      	lsrs	r1, r3, #9
    4624:	0043      	lsls	r3, r0, #1
    4626:	0fc2      	lsrs	r2, r0, #31
    4628:	0e1b      	lsrs	r3, r3, #24
    462a:	2000      	movs	r0, #0
    462c:	2b7e      	cmp	r3, #126	; 0x7e
    462e:	dd0e      	ble.n	464e <__aeabi_f2iz+0x2e>
    4630:	2b9d      	cmp	r3, #157	; 0x9d
    4632:	dc0d      	bgt.n	4650 <__aeabi_f2iz+0x30>
    4634:	2080      	movs	r0, #128	; 0x80
    4636:	0400      	lsls	r0, r0, #16
    4638:	4301      	orrs	r1, r0
    463a:	2b95      	cmp	r3, #149	; 0x95
    463c:	dc0b      	bgt.n	4656 <__aeabi_f2iz+0x36>
    463e:	2096      	movs	r0, #150	; 0x96
    4640:	1ac3      	subs	r3, r0, r3
    4642:	40d9      	lsrs	r1, r3
    4644:	000b      	movs	r3, r1
    4646:	4258      	negs	r0, r3
    4648:	2a00      	cmp	r2, #0
    464a:	d100      	bne.n	464e <__aeabi_f2iz+0x2e>
    464c:	0018      	movs	r0, r3
    464e:	4770      	bx	lr
    4650:	4b03      	ldr	r3, [pc, #12]	; (4660 <__aeabi_f2iz+0x40>)
    4652:	18d0      	adds	r0, r2, r3
    4654:	e7fb      	b.n	464e <__aeabi_f2iz+0x2e>
    4656:	3b96      	subs	r3, #150	; 0x96
    4658:	4099      	lsls	r1, r3
    465a:	000b      	movs	r3, r1
    465c:	e7f3      	b.n	4646 <__aeabi_f2iz+0x26>
    465e:	46c0      	nop			; (mov r8, r8)
    4660:	7fffffff 	.word	0x7fffffff

00004664 <__aeabi_dadd>:
    4664:	b5f8      	push	{r3, r4, r5, r6, r7, lr}
    4666:	4656      	mov	r6, sl
    4668:	465f      	mov	r7, fp
    466a:	464d      	mov	r5, r9
    466c:	4644      	mov	r4, r8
    466e:	b4f0      	push	{r4, r5, r6, r7}
    4670:	000f      	movs	r7, r1
    4672:	0ffd      	lsrs	r5, r7, #31
    4674:	46aa      	mov	sl, r5
    4676:	0309      	lsls	r1, r1, #12
    4678:	007c      	lsls	r4, r7, #1
    467a:	002e      	movs	r6, r5
    467c:	005f      	lsls	r7, r3, #1
    467e:	0f45      	lsrs	r5, r0, #29
    4680:	0a49      	lsrs	r1, r1, #9
    4682:	0d7f      	lsrs	r7, r7, #21
    4684:	4329      	orrs	r1, r5
    4686:	00c5      	lsls	r5, r0, #3
    4688:	0318      	lsls	r0, r3, #12
    468a:	46bc      	mov	ip, r7
    468c:	0a40      	lsrs	r0, r0, #9
    468e:	0f57      	lsrs	r7, r2, #29
    4690:	0d64      	lsrs	r4, r4, #21
    4692:	0fdb      	lsrs	r3, r3, #31
    4694:	4338      	orrs	r0, r7
    4696:	00d2      	lsls	r2, r2, #3
    4698:	459a      	cmp	sl, r3
    469a:	d100      	bne.n	469e <__aeabi_dadd+0x3a>
    469c:	e0aa      	b.n	47f4 <__aeabi_dadd+0x190>
    469e:	4666      	mov	r6, ip
    46a0:	1ba6      	subs	r6, r4, r6
    46a2:	2e00      	cmp	r6, #0
    46a4:	dc00      	bgt.n	46a8 <__aeabi_dadd+0x44>
    46a6:	e0ff      	b.n	48a8 <__aeabi_dadd+0x244>
    46a8:	4663      	mov	r3, ip
    46aa:	2b00      	cmp	r3, #0
    46ac:	d139      	bne.n	4722 <__aeabi_dadd+0xbe>
    46ae:	0003      	movs	r3, r0
    46b0:	4313      	orrs	r3, r2
    46b2:	d000      	beq.n	46b6 <__aeabi_dadd+0x52>
    46b4:	e0d9      	b.n	486a <__aeabi_dadd+0x206>
    46b6:	076b      	lsls	r3, r5, #29
    46b8:	d009      	beq.n	46ce <__aeabi_dadd+0x6a>
    46ba:	230f      	movs	r3, #15
    46bc:	402b      	ands	r3, r5
    46be:	2b04      	cmp	r3, #4
    46c0:	d005      	beq.n	46ce <__aeabi_dadd+0x6a>
    46c2:	1d2b      	adds	r3, r5, #4
    46c4:	42ab      	cmp	r3, r5
    46c6:	41ad      	sbcs	r5, r5
    46c8:	426d      	negs	r5, r5
    46ca:	1949      	adds	r1, r1, r5
    46cc:	001d      	movs	r5, r3
    46ce:	020b      	lsls	r3, r1, #8
    46d0:	d400      	bmi.n	46d4 <__aeabi_dadd+0x70>
    46d2:	e082      	b.n	47da <__aeabi_dadd+0x176>
    46d4:	4bca      	ldr	r3, [pc, #808]	; (4a00 <__aeabi_dadd+0x39c>)
    46d6:	3401      	adds	r4, #1
    46d8:	429c      	cmp	r4, r3
    46da:	d100      	bne.n	46de <__aeabi_dadd+0x7a>
    46dc:	e0fe      	b.n	48dc <__aeabi_dadd+0x278>
    46de:	000a      	movs	r2, r1
    46e0:	4656      	mov	r6, sl
    46e2:	4bc8      	ldr	r3, [pc, #800]	; (4a04 <__aeabi_dadd+0x3a0>)
    46e4:	08ed      	lsrs	r5, r5, #3
    46e6:	401a      	ands	r2, r3
    46e8:	0750      	lsls	r0, r2, #29
    46ea:	0564      	lsls	r4, r4, #21
    46ec:	0252      	lsls	r2, r2, #9
    46ee:	4305      	orrs	r5, r0
    46f0:	0b12      	lsrs	r2, r2, #12
    46f2:	0d64      	lsrs	r4, r4, #21
    46f4:	2100      	movs	r1, #0
    46f6:	0312      	lsls	r2, r2, #12
    46f8:	0d0b      	lsrs	r3, r1, #20
    46fa:	051b      	lsls	r3, r3, #20
    46fc:	0564      	lsls	r4, r4, #21
    46fe:	0b12      	lsrs	r2, r2, #12
    4700:	431a      	orrs	r2, r3
    4702:	0863      	lsrs	r3, r4, #1
    4704:	4cc0      	ldr	r4, [pc, #768]	; (4a08 <__aeabi_dadd+0x3a4>)
    4706:	07f6      	lsls	r6, r6, #31
    4708:	4014      	ands	r4, r2
    470a:	431c      	orrs	r4, r3
    470c:	0064      	lsls	r4, r4, #1
    470e:	0864      	lsrs	r4, r4, #1
    4710:	4334      	orrs	r4, r6
    4712:	0028      	movs	r0, r5
    4714:	0021      	movs	r1, r4
    4716:	bc3c      	pop	{r2, r3, r4, r5}
    4718:	4690      	mov	r8, r2
    471a:	4699      	mov	r9, r3
    471c:	46a2      	mov	sl, r4
    471e:	46ab      	mov	fp, r5
    4720:	bdf8      	pop	{r3, r4, r5, r6, r7, pc}
    4722:	4bb7      	ldr	r3, [pc, #732]	; (4a00 <__aeabi_dadd+0x39c>)
    4724:	429c      	cmp	r4, r3
    4726:	d0c6      	beq.n	46b6 <__aeabi_dadd+0x52>
    4728:	2380      	movs	r3, #128	; 0x80
    472a:	041b      	lsls	r3, r3, #16
    472c:	4318      	orrs	r0, r3
    472e:	2e38      	cmp	r6, #56	; 0x38
    4730:	dd00      	ble.n	4734 <__aeabi_dadd+0xd0>
    4732:	e0eb      	b.n	490c <__aeabi_dadd+0x2a8>
    4734:	2e1f      	cmp	r6, #31
    4736:	dd00      	ble.n	473a <__aeabi_dadd+0xd6>
    4738:	e11e      	b.n	4978 <__aeabi_dadd+0x314>
    473a:	2320      	movs	r3, #32
    473c:	1b9b      	subs	r3, r3, r6
    473e:	469c      	mov	ip, r3
    4740:	0003      	movs	r3, r0
    4742:	4667      	mov	r7, ip
    4744:	40bb      	lsls	r3, r7
    4746:	4698      	mov	r8, r3
    4748:	0013      	movs	r3, r2
    474a:	4647      	mov	r7, r8
    474c:	40f3      	lsrs	r3, r6
    474e:	433b      	orrs	r3, r7
    4750:	4667      	mov	r7, ip
    4752:	40ba      	lsls	r2, r7
    4754:	1e57      	subs	r7, r2, #1
    4756:	41ba      	sbcs	r2, r7
    4758:	4313      	orrs	r3, r2
    475a:	0002      	movs	r2, r0
    475c:	40f2      	lsrs	r2, r6
    475e:	1aeb      	subs	r3, r5, r3
    4760:	429d      	cmp	r5, r3
    4762:	41b6      	sbcs	r6, r6
    4764:	001d      	movs	r5, r3
    4766:	1a8a      	subs	r2, r1, r2
    4768:	4276      	negs	r6, r6
    476a:	1b91      	subs	r1, r2, r6
    476c:	020b      	lsls	r3, r1, #8
    476e:	d531      	bpl.n	47d4 <__aeabi_dadd+0x170>
    4770:	024a      	lsls	r2, r1, #9
    4772:	0a56      	lsrs	r6, r2, #9
    4774:	2e00      	cmp	r6, #0
    4776:	d100      	bne.n	477a <__aeabi_dadd+0x116>
    4778:	e0b4      	b.n	48e4 <__aeabi_dadd+0x280>
    477a:	0030      	movs	r0, r6
    477c:	f001 fe40 	bl	6400 <__clzsi2>
    4780:	0003      	movs	r3, r0
    4782:	3b08      	subs	r3, #8
    4784:	2b1f      	cmp	r3, #31
    4786:	dd00      	ble.n	478a <__aeabi_dadd+0x126>
    4788:	e0b5      	b.n	48f6 <__aeabi_dadd+0x292>
    478a:	2220      	movs	r2, #32
    478c:	0029      	movs	r1, r5
    478e:	1ad2      	subs	r2, r2, r3
    4790:	40d1      	lsrs	r1, r2
    4792:	409e      	lsls	r6, r3
    4794:	000a      	movs	r2, r1
    4796:	409d      	lsls	r5, r3
    4798:	4332      	orrs	r2, r6
    479a:	429c      	cmp	r4, r3
    479c:	dd00      	ble.n	47a0 <__aeabi_dadd+0x13c>
    479e:	e0b1      	b.n	4904 <__aeabi_dadd+0x2a0>
    47a0:	1b1c      	subs	r4, r3, r4
    47a2:	1c63      	adds	r3, r4, #1
    47a4:	2b1f      	cmp	r3, #31
    47a6:	dd00      	ble.n	47aa <__aeabi_dadd+0x146>
    47a8:	e0d5      	b.n	4956 <__aeabi_dadd+0x2f2>
    47aa:	2120      	movs	r1, #32
    47ac:	0014      	movs	r4, r2
    47ae:	0028      	movs	r0, r5
    47b0:	1ac9      	subs	r1, r1, r3
    47b2:	408c      	lsls	r4, r1
    47b4:	40d8      	lsrs	r0, r3
    47b6:	408d      	lsls	r5, r1
    47b8:	4304      	orrs	r4, r0
    47ba:	40da      	lsrs	r2, r3
    47bc:	1e68      	subs	r0, r5, #1
    47be:	4185      	sbcs	r5, r0
    47c0:	0011      	movs	r1, r2
    47c2:	4325      	orrs	r5, r4
    47c4:	2400      	movs	r4, #0
    47c6:	e776      	b.n	46b6 <__aeabi_dadd+0x52>
    47c8:	4641      	mov	r1, r8
    47ca:	4331      	orrs	r1, r6
    47cc:	d100      	bne.n	47d0 <__aeabi_dadd+0x16c>
    47ce:	e234      	b.n	4c3a <__aeabi_dadd+0x5d6>
    47d0:	0031      	movs	r1, r6
    47d2:	4645      	mov	r5, r8
    47d4:	076b      	lsls	r3, r5, #29
    47d6:	d000      	beq.n	47da <__aeabi_dadd+0x176>
    47d8:	e76f      	b.n	46ba <__aeabi_dadd+0x56>
    47da:	4656      	mov	r6, sl
    47dc:	0748      	lsls	r0, r1, #29
    47de:	08ed      	lsrs	r5, r5, #3
    47e0:	08c9      	lsrs	r1, r1, #3
    47e2:	4305      	orrs	r5, r0
    47e4:	4b86      	ldr	r3, [pc, #536]	; (4a00 <__aeabi_dadd+0x39c>)
    47e6:	429c      	cmp	r4, r3
    47e8:	d035      	beq.n	4856 <__aeabi_dadd+0x1f2>
    47ea:	030a      	lsls	r2, r1, #12
    47ec:	0564      	lsls	r4, r4, #21
    47ee:	0b12      	lsrs	r2, r2, #12
    47f0:	0d64      	lsrs	r4, r4, #21
    47f2:	e77f      	b.n	46f4 <__aeabi_dadd+0x90>
    47f4:	4663      	mov	r3, ip
    47f6:	1ae3      	subs	r3, r4, r3
    47f8:	469b      	mov	fp, r3
    47fa:	2b00      	cmp	r3, #0
    47fc:	dc00      	bgt.n	4800 <__aeabi_dadd+0x19c>
    47fe:	e08b      	b.n	4918 <__aeabi_dadd+0x2b4>
    4800:	4667      	mov	r7, ip
    4802:	2f00      	cmp	r7, #0
    4804:	d03c      	beq.n	4880 <__aeabi_dadd+0x21c>
    4806:	4f7e      	ldr	r7, [pc, #504]	; (4a00 <__aeabi_dadd+0x39c>)
    4808:	42bc      	cmp	r4, r7
    480a:	d100      	bne.n	480e <__aeabi_dadd+0x1aa>
    480c:	e753      	b.n	46b6 <__aeabi_dadd+0x52>
    480e:	2780      	movs	r7, #128	; 0x80
    4810:	043f      	lsls	r7, r7, #16
    4812:	4338      	orrs	r0, r7
    4814:	465b      	mov	r3, fp
    4816:	2b38      	cmp	r3, #56	; 0x38
    4818:	dc00      	bgt.n	481c <__aeabi_dadd+0x1b8>
    481a:	e0f7      	b.n	4a0c <__aeabi_dadd+0x3a8>
    481c:	4302      	orrs	r2, r0
    481e:	1e50      	subs	r0, r2, #1
    4820:	4182      	sbcs	r2, r0
    4822:	2000      	movs	r0, #0
    4824:	b2d2      	uxtb	r2, r2
    4826:	1953      	adds	r3, r2, r5
    4828:	1842      	adds	r2, r0, r1
    482a:	42ab      	cmp	r3, r5
    482c:	4189      	sbcs	r1, r1
    482e:	001d      	movs	r5, r3
    4830:	4249      	negs	r1, r1
    4832:	1889      	adds	r1, r1, r2
    4834:	020b      	lsls	r3, r1, #8
    4836:	d5cd      	bpl.n	47d4 <__aeabi_dadd+0x170>
    4838:	4b71      	ldr	r3, [pc, #452]	; (4a00 <__aeabi_dadd+0x39c>)
    483a:	3401      	adds	r4, #1
    483c:	429c      	cmp	r4, r3
    483e:	d100      	bne.n	4842 <__aeabi_dadd+0x1de>
    4840:	e13d      	b.n	4abe <__aeabi_dadd+0x45a>
    4842:	2001      	movs	r0, #1
    4844:	4a6f      	ldr	r2, [pc, #444]	; (4a04 <__aeabi_dadd+0x3a0>)
    4846:	086b      	lsrs	r3, r5, #1
    4848:	400a      	ands	r2, r1
    484a:	4028      	ands	r0, r5
    484c:	4318      	orrs	r0, r3
    484e:	07d5      	lsls	r5, r2, #31
    4850:	4305      	orrs	r5, r0
    4852:	0851      	lsrs	r1, r2, #1
    4854:	e72f      	b.n	46b6 <__aeabi_dadd+0x52>
    4856:	002b      	movs	r3, r5
    4858:	430b      	orrs	r3, r1
    485a:	d100      	bne.n	485e <__aeabi_dadd+0x1fa>
    485c:	e1cb      	b.n	4bf6 <__aeabi_dadd+0x592>
    485e:	2380      	movs	r3, #128	; 0x80
    4860:	031b      	lsls	r3, r3, #12
    4862:	430b      	orrs	r3, r1
    4864:	031a      	lsls	r2, r3, #12
    4866:	0b12      	lsrs	r2, r2, #12
    4868:	e744      	b.n	46f4 <__aeabi_dadd+0x90>
    486a:	3e01      	subs	r6, #1
    486c:	2e00      	cmp	r6, #0
    486e:	d16d      	bne.n	494c <__aeabi_dadd+0x2e8>
    4870:	1aae      	subs	r6, r5, r2
    4872:	42b5      	cmp	r5, r6
    4874:	419b      	sbcs	r3, r3
    4876:	1a09      	subs	r1, r1, r0
    4878:	425b      	negs	r3, r3
    487a:	1ac9      	subs	r1, r1, r3
    487c:	0035      	movs	r5, r6
    487e:	e775      	b.n	476c <__aeabi_dadd+0x108>
    4880:	0007      	movs	r7, r0
    4882:	4317      	orrs	r7, r2
    4884:	d100      	bne.n	4888 <__aeabi_dadd+0x224>
    4886:	e716      	b.n	46b6 <__aeabi_dadd+0x52>
    4888:	2301      	movs	r3, #1
    488a:	425b      	negs	r3, r3
    488c:	469c      	mov	ip, r3
    488e:	44e3      	add	fp, ip
    4890:	465b      	mov	r3, fp
    4892:	2b00      	cmp	r3, #0
    4894:	d000      	beq.n	4898 <__aeabi_dadd+0x234>
    4896:	e0e0      	b.n	4a5a <__aeabi_dadd+0x3f6>
    4898:	18aa      	adds	r2, r5, r2
    489a:	42aa      	cmp	r2, r5
    489c:	419b      	sbcs	r3, r3
    489e:	1809      	adds	r1, r1, r0
    48a0:	425b      	negs	r3, r3
    48a2:	1859      	adds	r1, r3, r1
    48a4:	0015      	movs	r5, r2
    48a6:	e7c5      	b.n	4834 <__aeabi_dadd+0x1d0>
    48a8:	2e00      	cmp	r6, #0
    48aa:	d175      	bne.n	4998 <__aeabi_dadd+0x334>
    48ac:	1c66      	adds	r6, r4, #1
    48ae:	0576      	lsls	r6, r6, #21
    48b0:	0d76      	lsrs	r6, r6, #21
    48b2:	2e01      	cmp	r6, #1
    48b4:	dc00      	bgt.n	48b8 <__aeabi_dadd+0x254>
    48b6:	e0f3      	b.n	4aa0 <__aeabi_dadd+0x43c>
    48b8:	1aae      	subs	r6, r5, r2
    48ba:	46b0      	mov	r8, r6
    48bc:	4545      	cmp	r5, r8
    48be:	41bf      	sbcs	r7, r7
    48c0:	1a0e      	subs	r6, r1, r0
    48c2:	427f      	negs	r7, r7
    48c4:	1bf6      	subs	r6, r6, r7
    48c6:	0237      	lsls	r7, r6, #8
    48c8:	d400      	bmi.n	48cc <__aeabi_dadd+0x268>
    48ca:	e08f      	b.n	49ec <__aeabi_dadd+0x388>
    48cc:	1b55      	subs	r5, r2, r5
    48ce:	42aa      	cmp	r2, r5
    48d0:	41b6      	sbcs	r6, r6
    48d2:	1a41      	subs	r1, r0, r1
    48d4:	4276      	negs	r6, r6
    48d6:	1b8e      	subs	r6, r1, r6
    48d8:	469a      	mov	sl, r3
    48da:	e74b      	b.n	4774 <__aeabi_dadd+0x110>
    48dc:	4656      	mov	r6, sl
    48de:	2200      	movs	r2, #0
    48e0:	2500      	movs	r5, #0
    48e2:	e707      	b.n	46f4 <__aeabi_dadd+0x90>
    48e4:	0028      	movs	r0, r5
    48e6:	f001 fd8b 	bl	6400 <__clzsi2>
    48ea:	3020      	adds	r0, #32
    48ec:	0003      	movs	r3, r0
    48ee:	3b08      	subs	r3, #8
    48f0:	2b1f      	cmp	r3, #31
    48f2:	dc00      	bgt.n	48f6 <__aeabi_dadd+0x292>
    48f4:	e749      	b.n	478a <__aeabi_dadd+0x126>
    48f6:	002a      	movs	r2, r5
    48f8:	3828      	subs	r0, #40	; 0x28
    48fa:	4082      	lsls	r2, r0
    48fc:	2500      	movs	r5, #0
    48fe:	429c      	cmp	r4, r3
    4900:	dc00      	bgt.n	4904 <__aeabi_dadd+0x2a0>
    4902:	e74d      	b.n	47a0 <__aeabi_dadd+0x13c>
    4904:	493f      	ldr	r1, [pc, #252]	; (4a04 <__aeabi_dadd+0x3a0>)
    4906:	1ae4      	subs	r4, r4, r3
    4908:	4011      	ands	r1, r2
    490a:	e6d4      	b.n	46b6 <__aeabi_dadd+0x52>
    490c:	4302      	orrs	r2, r0
    490e:	1e50      	subs	r0, r2, #1
    4910:	4182      	sbcs	r2, r0
    4912:	b2d3      	uxtb	r3, r2
    4914:	2200      	movs	r2, #0
    4916:	e722      	b.n	475e <__aeabi_dadd+0xfa>
    4918:	2b00      	cmp	r3, #0
    491a:	d000      	beq.n	491e <__aeabi_dadd+0x2ba>
    491c:	e0f3      	b.n	4b06 <__aeabi_dadd+0x4a2>
    491e:	1c63      	adds	r3, r4, #1
    4920:	469c      	mov	ip, r3
    4922:	055b      	lsls	r3, r3, #21
    4924:	0d5b      	lsrs	r3, r3, #21
    4926:	2b01      	cmp	r3, #1
    4928:	dc00      	bgt.n	492c <__aeabi_dadd+0x2c8>
    492a:	e09f      	b.n	4a6c <__aeabi_dadd+0x408>
    492c:	4b34      	ldr	r3, [pc, #208]	; (4a00 <__aeabi_dadd+0x39c>)
    492e:	459c      	cmp	ip, r3
    4930:	d100      	bne.n	4934 <__aeabi_dadd+0x2d0>
    4932:	e0c3      	b.n	4abc <__aeabi_dadd+0x458>
    4934:	18aa      	adds	r2, r5, r2
    4936:	1809      	adds	r1, r1, r0
    4938:	42aa      	cmp	r2, r5
    493a:	4180      	sbcs	r0, r0
    493c:	4240      	negs	r0, r0
    493e:	1841      	adds	r1, r0, r1
    4940:	07cd      	lsls	r5, r1, #31
    4942:	0852      	lsrs	r2, r2, #1
    4944:	4315      	orrs	r5, r2
    4946:	0849      	lsrs	r1, r1, #1
    4948:	4664      	mov	r4, ip
    494a:	e6b4      	b.n	46b6 <__aeabi_dadd+0x52>
    494c:	4b2c      	ldr	r3, [pc, #176]	; (4a00 <__aeabi_dadd+0x39c>)
    494e:	429c      	cmp	r4, r3
    4950:	d000      	beq.n	4954 <__aeabi_dadd+0x2f0>
    4952:	e6ec      	b.n	472e <__aeabi_dadd+0xca>
    4954:	e6af      	b.n	46b6 <__aeabi_dadd+0x52>
    4956:	0011      	movs	r1, r2
    4958:	3c1f      	subs	r4, #31
    495a:	40e1      	lsrs	r1, r4
    495c:	000c      	movs	r4, r1
    495e:	2b20      	cmp	r3, #32
    4960:	d100      	bne.n	4964 <__aeabi_dadd+0x300>
    4962:	e07f      	b.n	4a64 <__aeabi_dadd+0x400>
    4964:	2140      	movs	r1, #64	; 0x40
    4966:	1acb      	subs	r3, r1, r3
    4968:	409a      	lsls	r2, r3
    496a:	4315      	orrs	r5, r2
    496c:	1e6a      	subs	r2, r5, #1
    496e:	4195      	sbcs	r5, r2
    4970:	2100      	movs	r1, #0
    4972:	4325      	orrs	r5, r4
    4974:	2400      	movs	r4, #0
    4976:	e72d      	b.n	47d4 <__aeabi_dadd+0x170>
    4978:	0033      	movs	r3, r6
    497a:	0007      	movs	r7, r0
    497c:	3b20      	subs	r3, #32
    497e:	40df      	lsrs	r7, r3
    4980:	003b      	movs	r3, r7
    4982:	2e20      	cmp	r6, #32
    4984:	d070      	beq.n	4a68 <__aeabi_dadd+0x404>
    4986:	2740      	movs	r7, #64	; 0x40
    4988:	1bbe      	subs	r6, r7, r6
    498a:	40b0      	lsls	r0, r6
    498c:	4302      	orrs	r2, r0
    498e:	1e50      	subs	r0, r2, #1
    4990:	4182      	sbcs	r2, r0
    4992:	4313      	orrs	r3, r2
    4994:	2200      	movs	r2, #0
    4996:	e6e2      	b.n	475e <__aeabi_dadd+0xfa>
    4998:	2c00      	cmp	r4, #0
    499a:	d04f      	beq.n	4a3c <__aeabi_dadd+0x3d8>
    499c:	4c18      	ldr	r4, [pc, #96]	; (4a00 <__aeabi_dadd+0x39c>)
    499e:	45a4      	cmp	ip, r4
    49a0:	d100      	bne.n	49a4 <__aeabi_dadd+0x340>
    49a2:	e0ab      	b.n	4afc <__aeabi_dadd+0x498>
    49a4:	2480      	movs	r4, #128	; 0x80
    49a6:	0424      	lsls	r4, r4, #16
    49a8:	4276      	negs	r6, r6
    49aa:	4321      	orrs	r1, r4
    49ac:	2e38      	cmp	r6, #56	; 0x38
    49ae:	dd00      	ble.n	49b2 <__aeabi_dadd+0x34e>
    49b0:	e0df      	b.n	4b72 <__aeabi_dadd+0x50e>
    49b2:	2e1f      	cmp	r6, #31
    49b4:	dd00      	ble.n	49b8 <__aeabi_dadd+0x354>
    49b6:	e143      	b.n	4c40 <__aeabi_dadd+0x5dc>
    49b8:	2720      	movs	r7, #32
    49ba:	1bbc      	subs	r4, r7, r6
    49bc:	46a1      	mov	r9, r4
    49be:	000c      	movs	r4, r1
    49c0:	464f      	mov	r7, r9
    49c2:	40bc      	lsls	r4, r7
    49c4:	46a0      	mov	r8, r4
    49c6:	002c      	movs	r4, r5
    49c8:	4647      	mov	r7, r8
    49ca:	40f4      	lsrs	r4, r6
    49cc:	433c      	orrs	r4, r7
    49ce:	464f      	mov	r7, r9
    49d0:	40bd      	lsls	r5, r7
    49d2:	1e6f      	subs	r7, r5, #1
    49d4:	41bd      	sbcs	r5, r7
    49d6:	40f1      	lsrs	r1, r6
    49d8:	432c      	orrs	r4, r5
    49da:	1b15      	subs	r5, r2, r4
    49dc:	42aa      	cmp	r2, r5
    49de:	4192      	sbcs	r2, r2
    49e0:	1a41      	subs	r1, r0, r1
    49e2:	4252      	negs	r2, r2
    49e4:	1a89      	subs	r1, r1, r2
    49e6:	4664      	mov	r4, ip
    49e8:	469a      	mov	sl, r3
    49ea:	e6bf      	b.n	476c <__aeabi_dadd+0x108>
    49ec:	4641      	mov	r1, r8
    49ee:	4645      	mov	r5, r8
    49f0:	4331      	orrs	r1, r6
    49f2:	d000      	beq.n	49f6 <__aeabi_dadd+0x392>
    49f4:	e6be      	b.n	4774 <__aeabi_dadd+0x110>
    49f6:	2600      	movs	r6, #0
    49f8:	2400      	movs	r4, #0
    49fa:	2500      	movs	r5, #0
    49fc:	e6f2      	b.n	47e4 <__aeabi_dadd+0x180>
    49fe:	46c0      	nop			; (mov r8, r8)
    4a00:	000007ff 	.word	0x000007ff
    4a04:	ff7fffff 	.word	0xff7fffff
    4a08:	800fffff 	.word	0x800fffff
    4a0c:	2b1f      	cmp	r3, #31
    4a0e:	dc59      	bgt.n	4ac4 <__aeabi_dadd+0x460>
    4a10:	2720      	movs	r7, #32
    4a12:	1aff      	subs	r7, r7, r3
    4a14:	46bc      	mov	ip, r7
    4a16:	0007      	movs	r7, r0
    4a18:	4663      	mov	r3, ip
    4a1a:	409f      	lsls	r7, r3
    4a1c:	465b      	mov	r3, fp
    4a1e:	46b9      	mov	r9, r7
    4a20:	0017      	movs	r7, r2
    4a22:	40df      	lsrs	r7, r3
    4a24:	46b8      	mov	r8, r7
    4a26:	464f      	mov	r7, r9
    4a28:	4643      	mov	r3, r8
    4a2a:	431f      	orrs	r7, r3
    4a2c:	4663      	mov	r3, ip
    4a2e:	409a      	lsls	r2, r3
    4a30:	1e53      	subs	r3, r2, #1
    4a32:	419a      	sbcs	r2, r3
    4a34:	465b      	mov	r3, fp
    4a36:	433a      	orrs	r2, r7
    4a38:	40d8      	lsrs	r0, r3
    4a3a:	e6f4      	b.n	4826 <__aeabi_dadd+0x1c2>
    4a3c:	000c      	movs	r4, r1
    4a3e:	432c      	orrs	r4, r5
    4a40:	d05c      	beq.n	4afc <__aeabi_dadd+0x498>
    4a42:	43f6      	mvns	r6, r6
    4a44:	2e00      	cmp	r6, #0
    4a46:	d155      	bne.n	4af4 <__aeabi_dadd+0x490>
    4a48:	1b55      	subs	r5, r2, r5
    4a4a:	42aa      	cmp	r2, r5
    4a4c:	41a4      	sbcs	r4, r4
    4a4e:	1a41      	subs	r1, r0, r1
    4a50:	4264      	negs	r4, r4
    4a52:	1b09      	subs	r1, r1, r4
    4a54:	469a      	mov	sl, r3
    4a56:	4664      	mov	r4, ip
    4a58:	e688      	b.n	476c <__aeabi_dadd+0x108>
    4a5a:	4f96      	ldr	r7, [pc, #600]	; (4cb4 <__aeabi_dadd+0x650>)
    4a5c:	42bc      	cmp	r4, r7
    4a5e:	d000      	beq.n	4a62 <__aeabi_dadd+0x3fe>
    4a60:	e6d8      	b.n	4814 <__aeabi_dadd+0x1b0>
    4a62:	e628      	b.n	46b6 <__aeabi_dadd+0x52>
    4a64:	2200      	movs	r2, #0
    4a66:	e780      	b.n	496a <__aeabi_dadd+0x306>
    4a68:	2000      	movs	r0, #0
    4a6a:	e78f      	b.n	498c <__aeabi_dadd+0x328>
    4a6c:	000b      	movs	r3, r1
    4a6e:	432b      	orrs	r3, r5
    4a70:	2c00      	cmp	r4, #0
    4a72:	d000      	beq.n	4a76 <__aeabi_dadd+0x412>
    4a74:	e0c2      	b.n	4bfc <__aeabi_dadd+0x598>
    4a76:	2b00      	cmp	r3, #0
    4a78:	d100      	bne.n	4a7c <__aeabi_dadd+0x418>
    4a7a:	e101      	b.n	4c80 <__aeabi_dadd+0x61c>
    4a7c:	0003      	movs	r3, r0
    4a7e:	4313      	orrs	r3, r2
    4a80:	d100      	bne.n	4a84 <__aeabi_dadd+0x420>
    4a82:	e618      	b.n	46b6 <__aeabi_dadd+0x52>
    4a84:	18ab      	adds	r3, r5, r2
    4a86:	42ab      	cmp	r3, r5
    4a88:	41b6      	sbcs	r6, r6
    4a8a:	1809      	adds	r1, r1, r0
    4a8c:	4276      	negs	r6, r6
    4a8e:	1871      	adds	r1, r6, r1
    4a90:	020a      	lsls	r2, r1, #8
    4a92:	d400      	bmi.n	4a96 <__aeabi_dadd+0x432>
    4a94:	e109      	b.n	4caa <__aeabi_dadd+0x646>
    4a96:	4a88      	ldr	r2, [pc, #544]	; (4cb8 <__aeabi_dadd+0x654>)
    4a98:	001d      	movs	r5, r3
    4a9a:	4011      	ands	r1, r2
    4a9c:	4664      	mov	r4, ip
    4a9e:	e60a      	b.n	46b6 <__aeabi_dadd+0x52>
    4aa0:	2c00      	cmp	r4, #0
    4aa2:	d15b      	bne.n	4b5c <__aeabi_dadd+0x4f8>
    4aa4:	000e      	movs	r6, r1
    4aa6:	432e      	orrs	r6, r5
    4aa8:	d000      	beq.n	4aac <__aeabi_dadd+0x448>
    4aaa:	e08a      	b.n	4bc2 <__aeabi_dadd+0x55e>
    4aac:	0001      	movs	r1, r0
    4aae:	4311      	orrs	r1, r2
    4ab0:	d100      	bne.n	4ab4 <__aeabi_dadd+0x450>
    4ab2:	e0c2      	b.n	4c3a <__aeabi_dadd+0x5d6>
    4ab4:	0001      	movs	r1, r0
    4ab6:	0015      	movs	r5, r2
    4ab8:	469a      	mov	sl, r3
    4aba:	e5fc      	b.n	46b6 <__aeabi_dadd+0x52>
    4abc:	4664      	mov	r4, ip
    4abe:	2100      	movs	r1, #0
    4ac0:	2500      	movs	r5, #0
    4ac2:	e68f      	b.n	47e4 <__aeabi_dadd+0x180>
    4ac4:	2320      	movs	r3, #32
    4ac6:	425b      	negs	r3, r3
    4ac8:	469c      	mov	ip, r3
    4aca:	44dc      	add	ip, fp
    4acc:	4663      	mov	r3, ip
    4ace:	0007      	movs	r7, r0
    4ad0:	40df      	lsrs	r7, r3
    4ad2:	465b      	mov	r3, fp
    4ad4:	46bc      	mov	ip, r7
    4ad6:	2b20      	cmp	r3, #32
    4ad8:	d100      	bne.n	4adc <__aeabi_dadd+0x478>
    4ada:	e0ac      	b.n	4c36 <__aeabi_dadd+0x5d2>
    4adc:	2340      	movs	r3, #64	; 0x40
    4ade:	465f      	mov	r7, fp
    4ae0:	1bdb      	subs	r3, r3, r7
    4ae2:	4098      	lsls	r0, r3
    4ae4:	4302      	orrs	r2, r0
    4ae6:	1e50      	subs	r0, r2, #1
    4ae8:	4182      	sbcs	r2, r0
    4aea:	4663      	mov	r3, ip
    4aec:	4313      	orrs	r3, r2
    4aee:	001a      	movs	r2, r3
    4af0:	2000      	movs	r0, #0
    4af2:	e698      	b.n	4826 <__aeabi_dadd+0x1c2>
    4af4:	4c6f      	ldr	r4, [pc, #444]	; (4cb4 <__aeabi_dadd+0x650>)
    4af6:	45a4      	cmp	ip, r4
    4af8:	d000      	beq.n	4afc <__aeabi_dadd+0x498>
    4afa:	e757      	b.n	49ac <__aeabi_dadd+0x348>
    4afc:	0001      	movs	r1, r0
    4afe:	0015      	movs	r5, r2
    4b00:	4664      	mov	r4, ip
    4b02:	469a      	mov	sl, r3
    4b04:	e5d7      	b.n	46b6 <__aeabi_dadd+0x52>
    4b06:	2c00      	cmp	r4, #0
    4b08:	d139      	bne.n	4b7e <__aeabi_dadd+0x51a>
    4b0a:	000c      	movs	r4, r1
    4b0c:	432c      	orrs	r4, r5
    4b0e:	d06e      	beq.n	4bee <__aeabi_dadd+0x58a>
    4b10:	43db      	mvns	r3, r3
    4b12:	2b00      	cmp	r3, #0
    4b14:	d01a      	beq.n	4b4c <__aeabi_dadd+0x4e8>
    4b16:	4c67      	ldr	r4, [pc, #412]	; (4cb4 <__aeabi_dadd+0x650>)
    4b18:	45a4      	cmp	ip, r4
    4b1a:	d068      	beq.n	4bee <__aeabi_dadd+0x58a>
    4b1c:	2b38      	cmp	r3, #56	; 0x38
    4b1e:	dd00      	ble.n	4b22 <__aeabi_dadd+0x4be>
    4b20:	e0a4      	b.n	4c6c <__aeabi_dadd+0x608>
    4b22:	2b1f      	cmp	r3, #31
    4b24:	dd00      	ble.n	4b28 <__aeabi_dadd+0x4c4>
    4b26:	e0ae      	b.n	4c86 <__aeabi_dadd+0x622>
    4b28:	2420      	movs	r4, #32
    4b2a:	000f      	movs	r7, r1
    4b2c:	1ae4      	subs	r4, r4, r3
    4b2e:	40a7      	lsls	r7, r4
    4b30:	46b9      	mov	r9, r7
    4b32:	002f      	movs	r7, r5
    4b34:	40df      	lsrs	r7, r3
    4b36:	46b8      	mov	r8, r7
    4b38:	46a3      	mov	fp, r4
    4b3a:	464f      	mov	r7, r9
    4b3c:	4644      	mov	r4, r8
    4b3e:	4327      	orrs	r7, r4
    4b40:	465c      	mov	r4, fp
    4b42:	40a5      	lsls	r5, r4
    4b44:	1e6c      	subs	r4, r5, #1
    4b46:	41a5      	sbcs	r5, r4
    4b48:	40d9      	lsrs	r1, r3
    4b4a:	433d      	orrs	r5, r7
    4b4c:	18ad      	adds	r5, r5, r2
    4b4e:	4295      	cmp	r5, r2
    4b50:	419b      	sbcs	r3, r3
    4b52:	1809      	adds	r1, r1, r0
    4b54:	425b      	negs	r3, r3
    4b56:	1859      	adds	r1, r3, r1
    4b58:	4664      	mov	r4, ip
    4b5a:	e66b      	b.n	4834 <__aeabi_dadd+0x1d0>
    4b5c:	000c      	movs	r4, r1
    4b5e:	432c      	orrs	r4, r5
    4b60:	d115      	bne.n	4b8e <__aeabi_dadd+0x52a>
    4b62:	0001      	movs	r1, r0
    4b64:	4311      	orrs	r1, r2
    4b66:	d07b      	beq.n	4c60 <__aeabi_dadd+0x5fc>
    4b68:	0001      	movs	r1, r0
    4b6a:	0015      	movs	r5, r2
    4b6c:	469a      	mov	sl, r3
    4b6e:	4c51      	ldr	r4, [pc, #324]	; (4cb4 <__aeabi_dadd+0x650>)
    4b70:	e5a1      	b.n	46b6 <__aeabi_dadd+0x52>
    4b72:	430d      	orrs	r5, r1
    4b74:	1e69      	subs	r1, r5, #1
    4b76:	418d      	sbcs	r5, r1
    4b78:	2100      	movs	r1, #0
    4b7a:	b2ec      	uxtb	r4, r5
    4b7c:	e72d      	b.n	49da <__aeabi_dadd+0x376>
    4b7e:	4c4d      	ldr	r4, [pc, #308]	; (4cb4 <__aeabi_dadd+0x650>)
    4b80:	45a4      	cmp	ip, r4
    4b82:	d034      	beq.n	4bee <__aeabi_dadd+0x58a>
    4b84:	2480      	movs	r4, #128	; 0x80
    4b86:	0424      	lsls	r4, r4, #16
    4b88:	425b      	negs	r3, r3
    4b8a:	4321      	orrs	r1, r4
    4b8c:	e7c6      	b.n	4b1c <__aeabi_dadd+0x4b8>
    4b8e:	0004      	movs	r4, r0
    4b90:	4314      	orrs	r4, r2
    4b92:	d04e      	beq.n	4c32 <__aeabi_dadd+0x5ce>
    4b94:	08ed      	lsrs	r5, r5, #3
    4b96:	074c      	lsls	r4, r1, #29
    4b98:	432c      	orrs	r4, r5
    4b9a:	2580      	movs	r5, #128	; 0x80
    4b9c:	08c9      	lsrs	r1, r1, #3
    4b9e:	032d      	lsls	r5, r5, #12
    4ba0:	4229      	tst	r1, r5
    4ba2:	d008      	beq.n	4bb6 <__aeabi_dadd+0x552>
    4ba4:	08c6      	lsrs	r6, r0, #3
    4ba6:	422e      	tst	r6, r5
    4ba8:	d105      	bne.n	4bb6 <__aeabi_dadd+0x552>
    4baa:	08d2      	lsrs	r2, r2, #3
    4bac:	0741      	lsls	r1, r0, #29
    4bae:	4311      	orrs	r1, r2
    4bb0:	000c      	movs	r4, r1
    4bb2:	469a      	mov	sl, r3
    4bb4:	0031      	movs	r1, r6
    4bb6:	0f62      	lsrs	r2, r4, #29
    4bb8:	00c9      	lsls	r1, r1, #3
    4bba:	00e5      	lsls	r5, r4, #3
    4bbc:	4311      	orrs	r1, r2
    4bbe:	4c3d      	ldr	r4, [pc, #244]	; (4cb4 <__aeabi_dadd+0x650>)
    4bc0:	e579      	b.n	46b6 <__aeabi_dadd+0x52>
    4bc2:	0006      	movs	r6, r0
    4bc4:	4316      	orrs	r6, r2
    4bc6:	d100      	bne.n	4bca <__aeabi_dadd+0x566>
    4bc8:	e575      	b.n	46b6 <__aeabi_dadd+0x52>
    4bca:	1aae      	subs	r6, r5, r2
    4bcc:	46b0      	mov	r8, r6
    4bce:	4545      	cmp	r5, r8
    4bd0:	41bf      	sbcs	r7, r7
    4bd2:	1a0e      	subs	r6, r1, r0
    4bd4:	427f      	negs	r7, r7
    4bd6:	1bf6      	subs	r6, r6, r7
    4bd8:	0237      	lsls	r7, r6, #8
    4bda:	d400      	bmi.n	4bde <__aeabi_dadd+0x57a>
    4bdc:	e5f4      	b.n	47c8 <__aeabi_dadd+0x164>
    4bde:	1b55      	subs	r5, r2, r5
    4be0:	42aa      	cmp	r2, r5
    4be2:	41b6      	sbcs	r6, r6
    4be4:	1a41      	subs	r1, r0, r1
    4be6:	4276      	negs	r6, r6
    4be8:	1b89      	subs	r1, r1, r6
    4bea:	469a      	mov	sl, r3
    4bec:	e563      	b.n	46b6 <__aeabi_dadd+0x52>
    4bee:	0001      	movs	r1, r0
    4bf0:	0015      	movs	r5, r2
    4bf2:	4664      	mov	r4, ip
    4bf4:	e55f      	b.n	46b6 <__aeabi_dadd+0x52>
    4bf6:	2200      	movs	r2, #0
    4bf8:	2500      	movs	r5, #0
    4bfa:	e57b      	b.n	46f4 <__aeabi_dadd+0x90>
    4bfc:	2b00      	cmp	r3, #0
    4bfe:	d03b      	beq.n	4c78 <__aeabi_dadd+0x614>
    4c00:	0003      	movs	r3, r0
    4c02:	4313      	orrs	r3, r2
    4c04:	d015      	beq.n	4c32 <__aeabi_dadd+0x5ce>
    4c06:	08ed      	lsrs	r5, r5, #3
    4c08:	074b      	lsls	r3, r1, #29
    4c0a:	432b      	orrs	r3, r5
    4c0c:	2580      	movs	r5, #128	; 0x80
    4c0e:	08c9      	lsrs	r1, r1, #3
    4c10:	032d      	lsls	r5, r5, #12
    4c12:	4229      	tst	r1, r5
    4c14:	d007      	beq.n	4c26 <__aeabi_dadd+0x5c2>
    4c16:	08c4      	lsrs	r4, r0, #3
    4c18:	422c      	tst	r4, r5
    4c1a:	d104      	bne.n	4c26 <__aeabi_dadd+0x5c2>
    4c1c:	0741      	lsls	r1, r0, #29
    4c1e:	000b      	movs	r3, r1
    4c20:	0021      	movs	r1, r4
    4c22:	08d2      	lsrs	r2, r2, #3
    4c24:	4313      	orrs	r3, r2
    4c26:	00c9      	lsls	r1, r1, #3
    4c28:	0f5a      	lsrs	r2, r3, #29
    4c2a:	4311      	orrs	r1, r2
    4c2c:	00dd      	lsls	r5, r3, #3
    4c2e:	4c21      	ldr	r4, [pc, #132]	; (4cb4 <__aeabi_dadd+0x650>)
    4c30:	e541      	b.n	46b6 <__aeabi_dadd+0x52>
    4c32:	4c20      	ldr	r4, [pc, #128]	; (4cb4 <__aeabi_dadd+0x650>)
    4c34:	e53f      	b.n	46b6 <__aeabi_dadd+0x52>
    4c36:	2000      	movs	r0, #0
    4c38:	e754      	b.n	4ae4 <__aeabi_dadd+0x480>
    4c3a:	2600      	movs	r6, #0
    4c3c:	2500      	movs	r5, #0
    4c3e:	e5d1      	b.n	47e4 <__aeabi_dadd+0x180>
    4c40:	0034      	movs	r4, r6
    4c42:	000f      	movs	r7, r1
    4c44:	3c20      	subs	r4, #32
    4c46:	40e7      	lsrs	r7, r4
    4c48:	003c      	movs	r4, r7
    4c4a:	2e20      	cmp	r6, #32
    4c4c:	d02b      	beq.n	4ca6 <__aeabi_dadd+0x642>
    4c4e:	2740      	movs	r7, #64	; 0x40
    4c50:	1bbe      	subs	r6, r7, r6
    4c52:	40b1      	lsls	r1, r6
    4c54:	430d      	orrs	r5, r1
    4c56:	1e69      	subs	r1, r5, #1
    4c58:	418d      	sbcs	r5, r1
    4c5a:	2100      	movs	r1, #0
    4c5c:	432c      	orrs	r4, r5
    4c5e:	e6bc      	b.n	49da <__aeabi_dadd+0x376>
    4c60:	2180      	movs	r1, #128	; 0x80
    4c62:	2600      	movs	r6, #0
    4c64:	0309      	lsls	r1, r1, #12
    4c66:	4c13      	ldr	r4, [pc, #76]	; (4cb4 <__aeabi_dadd+0x650>)
    4c68:	2500      	movs	r5, #0
    4c6a:	e5bb      	b.n	47e4 <__aeabi_dadd+0x180>
    4c6c:	430d      	orrs	r5, r1
    4c6e:	1e69      	subs	r1, r5, #1
    4c70:	418d      	sbcs	r5, r1
    4c72:	2100      	movs	r1, #0
    4c74:	b2ed      	uxtb	r5, r5
    4c76:	e769      	b.n	4b4c <__aeabi_dadd+0x4e8>
    4c78:	0001      	movs	r1, r0
    4c7a:	0015      	movs	r5, r2
    4c7c:	4c0d      	ldr	r4, [pc, #52]	; (4cb4 <__aeabi_dadd+0x650>)
    4c7e:	e51a      	b.n	46b6 <__aeabi_dadd+0x52>
    4c80:	0001      	movs	r1, r0
    4c82:	0015      	movs	r5, r2
    4c84:	e517      	b.n	46b6 <__aeabi_dadd+0x52>
    4c86:	001c      	movs	r4, r3
    4c88:	000f      	movs	r7, r1
    4c8a:	3c20      	subs	r4, #32
    4c8c:	40e7      	lsrs	r7, r4
    4c8e:	003c      	movs	r4, r7
    4c90:	2b20      	cmp	r3, #32
    4c92:	d00c      	beq.n	4cae <__aeabi_dadd+0x64a>
    4c94:	2740      	movs	r7, #64	; 0x40
    4c96:	1afb      	subs	r3, r7, r3
    4c98:	4099      	lsls	r1, r3
    4c9a:	430d      	orrs	r5, r1
    4c9c:	1e69      	subs	r1, r5, #1
    4c9e:	418d      	sbcs	r5, r1
    4ca0:	2100      	movs	r1, #0
    4ca2:	4325      	orrs	r5, r4
    4ca4:	e752      	b.n	4b4c <__aeabi_dadd+0x4e8>
    4ca6:	2100      	movs	r1, #0
    4ca8:	e7d4      	b.n	4c54 <__aeabi_dadd+0x5f0>
    4caa:	001d      	movs	r5, r3
    4cac:	e592      	b.n	47d4 <__aeabi_dadd+0x170>
    4cae:	2100      	movs	r1, #0
    4cb0:	e7f3      	b.n	4c9a <__aeabi_dadd+0x636>
    4cb2:	46c0      	nop			; (mov r8, r8)
    4cb4:	000007ff 	.word	0x000007ff
    4cb8:	ff7fffff 	.word	0xff7fffff

00004cbc <__aeabi_ddiv>:
    4cbc:	b5f0      	push	{r4, r5, r6, r7, lr}
    4cbe:	4656      	mov	r6, sl
    4cc0:	464d      	mov	r5, r9
    4cc2:	4644      	mov	r4, r8
    4cc4:	465f      	mov	r7, fp
    4cc6:	b4f0      	push	{r4, r5, r6, r7}
    4cc8:	001d      	movs	r5, r3
    4cca:	030e      	lsls	r6, r1, #12
    4ccc:	004c      	lsls	r4, r1, #1
    4cce:	0fcb      	lsrs	r3, r1, #31
    4cd0:	b087      	sub	sp, #28
    4cd2:	0007      	movs	r7, r0
    4cd4:	4692      	mov	sl, r2
    4cd6:	4681      	mov	r9, r0
    4cd8:	0b36      	lsrs	r6, r6, #12
    4cda:	0d64      	lsrs	r4, r4, #21
    4cdc:	4698      	mov	r8, r3
    4cde:	d06a      	beq.n	4db6 <__aeabi_ddiv+0xfa>
    4ce0:	4b6d      	ldr	r3, [pc, #436]	; (4e98 <__aeabi_ddiv+0x1dc>)
    4ce2:	429c      	cmp	r4, r3
    4ce4:	d035      	beq.n	4d52 <__aeabi_ddiv+0x96>
    4ce6:	2280      	movs	r2, #128	; 0x80
    4ce8:	0f43      	lsrs	r3, r0, #29
    4cea:	0412      	lsls	r2, r2, #16
    4cec:	4313      	orrs	r3, r2
    4cee:	00f6      	lsls	r6, r6, #3
    4cf0:	431e      	orrs	r6, r3
    4cf2:	00c3      	lsls	r3, r0, #3
    4cf4:	4699      	mov	r9, r3
    4cf6:	4b69      	ldr	r3, [pc, #420]	; (4e9c <__aeabi_ddiv+0x1e0>)
    4cf8:	2700      	movs	r7, #0
    4cfa:	469c      	mov	ip, r3
    4cfc:	2300      	movs	r3, #0
    4cfe:	4464      	add	r4, ip
    4d00:	9302      	str	r3, [sp, #8]
    4d02:	032b      	lsls	r3, r5, #12
    4d04:	0068      	lsls	r0, r5, #1
    4d06:	0b1b      	lsrs	r3, r3, #12
    4d08:	0fed      	lsrs	r5, r5, #31
    4d0a:	4651      	mov	r1, sl
    4d0c:	469b      	mov	fp, r3
    4d0e:	0d40      	lsrs	r0, r0, #21
    4d10:	9500      	str	r5, [sp, #0]
    4d12:	d100      	bne.n	4d16 <__aeabi_ddiv+0x5a>
    4d14:	e078      	b.n	4e08 <__aeabi_ddiv+0x14c>
    4d16:	4b60      	ldr	r3, [pc, #384]	; (4e98 <__aeabi_ddiv+0x1dc>)
    4d18:	4298      	cmp	r0, r3
    4d1a:	d06c      	beq.n	4df6 <__aeabi_ddiv+0x13a>
    4d1c:	465b      	mov	r3, fp
    4d1e:	00da      	lsls	r2, r3, #3
    4d20:	0f4b      	lsrs	r3, r1, #29
    4d22:	2180      	movs	r1, #128	; 0x80
    4d24:	0409      	lsls	r1, r1, #16
    4d26:	430b      	orrs	r3, r1
    4d28:	4313      	orrs	r3, r2
    4d2a:	469b      	mov	fp, r3
    4d2c:	4653      	mov	r3, sl
    4d2e:	00d9      	lsls	r1, r3, #3
    4d30:	4b5a      	ldr	r3, [pc, #360]	; (4e9c <__aeabi_ddiv+0x1e0>)
    4d32:	469c      	mov	ip, r3
    4d34:	2300      	movs	r3, #0
    4d36:	4460      	add	r0, ip
    4d38:	4642      	mov	r2, r8
    4d3a:	1a20      	subs	r0, r4, r0
    4d3c:	406a      	eors	r2, r5
    4d3e:	4692      	mov	sl, r2
    4d40:	9001      	str	r0, [sp, #4]
    4d42:	431f      	orrs	r7, r3
    4d44:	2f0f      	cmp	r7, #15
    4d46:	d900      	bls.n	4d4a <__aeabi_ddiv+0x8e>
    4d48:	e0b0      	b.n	4eac <__aeabi_ddiv+0x1f0>
    4d4a:	4855      	ldr	r0, [pc, #340]	; (4ea0 <__aeabi_ddiv+0x1e4>)
    4d4c:	00bf      	lsls	r7, r7, #2
    4d4e:	59c0      	ldr	r0, [r0, r7]
    4d50:	4687      	mov	pc, r0
    4d52:	4337      	orrs	r7, r6
    4d54:	d000      	beq.n	4d58 <__aeabi_ddiv+0x9c>
    4d56:	e088      	b.n	4e6a <__aeabi_ddiv+0x1ae>
    4d58:	2300      	movs	r3, #0
    4d5a:	4699      	mov	r9, r3
    4d5c:	3302      	adds	r3, #2
    4d5e:	2708      	movs	r7, #8
    4d60:	2600      	movs	r6, #0
    4d62:	9302      	str	r3, [sp, #8]
    4d64:	e7cd      	b.n	4d02 <__aeabi_ddiv+0x46>
    4d66:	4643      	mov	r3, r8
    4d68:	46b3      	mov	fp, r6
    4d6a:	4649      	mov	r1, r9
    4d6c:	9300      	str	r3, [sp, #0]
    4d6e:	9b02      	ldr	r3, [sp, #8]
    4d70:	9a00      	ldr	r2, [sp, #0]
    4d72:	4692      	mov	sl, r2
    4d74:	2b02      	cmp	r3, #2
    4d76:	d000      	beq.n	4d7a <__aeabi_ddiv+0xbe>
    4d78:	e1bf      	b.n	50fa <__aeabi_ddiv+0x43e>
    4d7a:	2100      	movs	r1, #0
    4d7c:	4653      	mov	r3, sl
    4d7e:	2201      	movs	r2, #1
    4d80:	2600      	movs	r6, #0
    4d82:	4689      	mov	r9, r1
    4d84:	401a      	ands	r2, r3
    4d86:	4b44      	ldr	r3, [pc, #272]	; (4e98 <__aeabi_ddiv+0x1dc>)
    4d88:	2100      	movs	r1, #0
    4d8a:	0336      	lsls	r6, r6, #12
    4d8c:	0d0c      	lsrs	r4, r1, #20
    4d8e:	0524      	lsls	r4, r4, #20
    4d90:	0b36      	lsrs	r6, r6, #12
    4d92:	4326      	orrs	r6, r4
    4d94:	4c43      	ldr	r4, [pc, #268]	; (4ea4 <__aeabi_ddiv+0x1e8>)
    4d96:	051b      	lsls	r3, r3, #20
    4d98:	4026      	ands	r6, r4
    4d9a:	431e      	orrs	r6, r3
    4d9c:	0076      	lsls	r6, r6, #1
    4d9e:	07d2      	lsls	r2, r2, #31
    4da0:	0876      	lsrs	r6, r6, #1
    4da2:	4316      	orrs	r6, r2
    4da4:	4648      	mov	r0, r9
    4da6:	0031      	movs	r1, r6
    4da8:	b007      	add	sp, #28
    4daa:	bc3c      	pop	{r2, r3, r4, r5}
    4dac:	4690      	mov	r8, r2
    4dae:	4699      	mov	r9, r3
    4db0:	46a2      	mov	sl, r4
    4db2:	46ab      	mov	fp, r5
    4db4:	bdf0      	pop	{r4, r5, r6, r7, pc}
    4db6:	0033      	movs	r3, r6
    4db8:	4303      	orrs	r3, r0
    4dba:	d04f      	beq.n	4e5c <__aeabi_ddiv+0x1a0>
    4dbc:	2e00      	cmp	r6, #0
    4dbe:	d100      	bne.n	4dc2 <__aeabi_ddiv+0x106>
    4dc0:	e1bc      	b.n	513c <__aeabi_ddiv+0x480>
    4dc2:	0030      	movs	r0, r6
    4dc4:	f001 fb1c 	bl	6400 <__clzsi2>
    4dc8:	0003      	movs	r3, r0
    4dca:	3b0b      	subs	r3, #11
    4dcc:	2b1c      	cmp	r3, #28
    4dce:	dd00      	ble.n	4dd2 <__aeabi_ddiv+0x116>
    4dd0:	e1ad      	b.n	512e <__aeabi_ddiv+0x472>
    4dd2:	221d      	movs	r2, #29
    4dd4:	0001      	movs	r1, r0
    4dd6:	1ad3      	subs	r3, r2, r3
    4dd8:	3908      	subs	r1, #8
    4dda:	003a      	movs	r2, r7
    4ddc:	408f      	lsls	r7, r1
    4dde:	408e      	lsls	r6, r1
    4de0:	40da      	lsrs	r2, r3
    4de2:	46b9      	mov	r9, r7
    4de4:	4316      	orrs	r6, r2
    4de6:	4b30      	ldr	r3, [pc, #192]	; (4ea8 <__aeabi_ddiv+0x1ec>)
    4de8:	2700      	movs	r7, #0
    4dea:	469c      	mov	ip, r3
    4dec:	2300      	movs	r3, #0
    4dee:	4460      	add	r0, ip
    4df0:	4244      	negs	r4, r0
    4df2:	9302      	str	r3, [sp, #8]
    4df4:	e785      	b.n	4d02 <__aeabi_ddiv+0x46>
    4df6:	4653      	mov	r3, sl
    4df8:	465a      	mov	r2, fp
    4dfa:	4313      	orrs	r3, r2
    4dfc:	d12c      	bne.n	4e58 <__aeabi_ddiv+0x19c>
    4dfe:	2300      	movs	r3, #0
    4e00:	2100      	movs	r1, #0
    4e02:	469b      	mov	fp, r3
    4e04:	3302      	adds	r3, #2
    4e06:	e797      	b.n	4d38 <__aeabi_ddiv+0x7c>
    4e08:	430b      	orrs	r3, r1
    4e0a:	d020      	beq.n	4e4e <__aeabi_ddiv+0x192>
    4e0c:	465b      	mov	r3, fp
    4e0e:	2b00      	cmp	r3, #0
    4e10:	d100      	bne.n	4e14 <__aeabi_ddiv+0x158>
    4e12:	e19e      	b.n	5152 <__aeabi_ddiv+0x496>
    4e14:	4658      	mov	r0, fp
    4e16:	f001 faf3 	bl	6400 <__clzsi2>
    4e1a:	0003      	movs	r3, r0
    4e1c:	3b0b      	subs	r3, #11
    4e1e:	2b1c      	cmp	r3, #28
    4e20:	dd00      	ble.n	4e24 <__aeabi_ddiv+0x168>
    4e22:	e18f      	b.n	5144 <__aeabi_ddiv+0x488>
    4e24:	0002      	movs	r2, r0
    4e26:	4659      	mov	r1, fp
    4e28:	3a08      	subs	r2, #8
    4e2a:	4091      	lsls	r1, r2
    4e2c:	468b      	mov	fp, r1
    4e2e:	211d      	movs	r1, #29
    4e30:	1acb      	subs	r3, r1, r3
    4e32:	4651      	mov	r1, sl
    4e34:	40d9      	lsrs	r1, r3
    4e36:	000b      	movs	r3, r1
    4e38:	4659      	mov	r1, fp
    4e3a:	430b      	orrs	r3, r1
    4e3c:	4651      	mov	r1, sl
    4e3e:	469b      	mov	fp, r3
    4e40:	4091      	lsls	r1, r2
    4e42:	4b19      	ldr	r3, [pc, #100]	; (4ea8 <__aeabi_ddiv+0x1ec>)
    4e44:	469c      	mov	ip, r3
    4e46:	4460      	add	r0, ip
    4e48:	4240      	negs	r0, r0
    4e4a:	2300      	movs	r3, #0
    4e4c:	e774      	b.n	4d38 <__aeabi_ddiv+0x7c>
    4e4e:	2300      	movs	r3, #0
    4e50:	2100      	movs	r1, #0
    4e52:	469b      	mov	fp, r3
    4e54:	3301      	adds	r3, #1
    4e56:	e76f      	b.n	4d38 <__aeabi_ddiv+0x7c>
    4e58:	2303      	movs	r3, #3
    4e5a:	e76d      	b.n	4d38 <__aeabi_ddiv+0x7c>
    4e5c:	2300      	movs	r3, #0
    4e5e:	4699      	mov	r9, r3
    4e60:	3301      	adds	r3, #1
    4e62:	2704      	movs	r7, #4
    4e64:	2600      	movs	r6, #0
    4e66:	9302      	str	r3, [sp, #8]
    4e68:	e74b      	b.n	4d02 <__aeabi_ddiv+0x46>
    4e6a:	2303      	movs	r3, #3
    4e6c:	270c      	movs	r7, #12
    4e6e:	9302      	str	r3, [sp, #8]
    4e70:	e747      	b.n	4d02 <__aeabi_ddiv+0x46>
    4e72:	2201      	movs	r2, #1
    4e74:	1ad5      	subs	r5, r2, r3
    4e76:	2d38      	cmp	r5, #56	; 0x38
    4e78:	dc00      	bgt.n	4e7c <__aeabi_ddiv+0x1c0>
    4e7a:	e1b0      	b.n	51de <__aeabi_ddiv+0x522>
    4e7c:	4653      	mov	r3, sl
    4e7e:	401a      	ands	r2, r3
    4e80:	2100      	movs	r1, #0
    4e82:	2300      	movs	r3, #0
    4e84:	2600      	movs	r6, #0
    4e86:	4689      	mov	r9, r1
    4e88:	e77e      	b.n	4d88 <__aeabi_ddiv+0xcc>
    4e8a:	2300      	movs	r3, #0
    4e8c:	2680      	movs	r6, #128	; 0x80
    4e8e:	4699      	mov	r9, r3
    4e90:	2200      	movs	r2, #0
    4e92:	0336      	lsls	r6, r6, #12
    4e94:	4b00      	ldr	r3, [pc, #0]	; (4e98 <__aeabi_ddiv+0x1dc>)
    4e96:	e777      	b.n	4d88 <__aeabi_ddiv+0xcc>
    4e98:	000007ff 	.word	0x000007ff
    4e9c:	fffffc01 	.word	0xfffffc01
    4ea0:	00006510 	.word	0x00006510
    4ea4:	800fffff 	.word	0x800fffff
    4ea8:	000003f3 	.word	0x000003f3
    4eac:	455e      	cmp	r6, fp
    4eae:	d900      	bls.n	4eb2 <__aeabi_ddiv+0x1f6>
    4eb0:	e172      	b.n	5198 <__aeabi_ddiv+0x4dc>
    4eb2:	d100      	bne.n	4eb6 <__aeabi_ddiv+0x1fa>
    4eb4:	e16d      	b.n	5192 <__aeabi_ddiv+0x4d6>
    4eb6:	9b01      	ldr	r3, [sp, #4]
    4eb8:	464d      	mov	r5, r9
    4eba:	3b01      	subs	r3, #1
    4ebc:	9301      	str	r3, [sp, #4]
    4ebe:	2300      	movs	r3, #0
    4ec0:	0034      	movs	r4, r6
    4ec2:	9302      	str	r3, [sp, #8]
    4ec4:	465b      	mov	r3, fp
    4ec6:	021e      	lsls	r6, r3, #8
    4ec8:	0e0b      	lsrs	r3, r1, #24
    4eca:	431e      	orrs	r6, r3
    4ecc:	020b      	lsls	r3, r1, #8
    4ece:	9303      	str	r3, [sp, #12]
    4ed0:	0c33      	lsrs	r3, r6, #16
    4ed2:	4699      	mov	r9, r3
    4ed4:	0433      	lsls	r3, r6, #16
    4ed6:	0c1b      	lsrs	r3, r3, #16
    4ed8:	4649      	mov	r1, r9
    4eda:	0020      	movs	r0, r4
    4edc:	9300      	str	r3, [sp, #0]
    4ede:	f7ff f977 	bl	41d0 <__aeabi_uidiv>
    4ee2:	9b00      	ldr	r3, [sp, #0]
    4ee4:	0037      	movs	r7, r6
    4ee6:	4343      	muls	r3, r0
    4ee8:	0006      	movs	r6, r0
    4eea:	4649      	mov	r1, r9
    4eec:	0020      	movs	r0, r4
    4eee:	4698      	mov	r8, r3
    4ef0:	f7ff f9f4 	bl	42dc <__aeabi_uidivmod>
    4ef4:	0c2c      	lsrs	r4, r5, #16
    4ef6:	0409      	lsls	r1, r1, #16
    4ef8:	430c      	orrs	r4, r1
    4efa:	45a0      	cmp	r8, r4
    4efc:	d909      	bls.n	4f12 <__aeabi_ddiv+0x256>
    4efe:	19e4      	adds	r4, r4, r7
    4f00:	1e73      	subs	r3, r6, #1
    4f02:	42a7      	cmp	r7, r4
    4f04:	d900      	bls.n	4f08 <__aeabi_ddiv+0x24c>
    4f06:	e15c      	b.n	51c2 <__aeabi_ddiv+0x506>
    4f08:	45a0      	cmp	r8, r4
    4f0a:	d800      	bhi.n	4f0e <__aeabi_ddiv+0x252>
    4f0c:	e159      	b.n	51c2 <__aeabi_ddiv+0x506>
    4f0e:	3e02      	subs	r6, #2
    4f10:	19e4      	adds	r4, r4, r7
    4f12:	4643      	mov	r3, r8
    4f14:	1ae4      	subs	r4, r4, r3
    4f16:	4649      	mov	r1, r9
    4f18:	0020      	movs	r0, r4
    4f1a:	f7ff f959 	bl	41d0 <__aeabi_uidiv>
    4f1e:	0003      	movs	r3, r0
    4f20:	9a00      	ldr	r2, [sp, #0]
    4f22:	4680      	mov	r8, r0
    4f24:	4353      	muls	r3, r2
    4f26:	4649      	mov	r1, r9
    4f28:	0020      	movs	r0, r4
    4f2a:	469b      	mov	fp, r3
    4f2c:	f7ff f9d6 	bl	42dc <__aeabi_uidivmod>
    4f30:	042a      	lsls	r2, r5, #16
    4f32:	0409      	lsls	r1, r1, #16
    4f34:	0c12      	lsrs	r2, r2, #16
    4f36:	430a      	orrs	r2, r1
    4f38:	4593      	cmp	fp, r2
    4f3a:	d90d      	bls.n	4f58 <__aeabi_ddiv+0x29c>
    4f3c:	4643      	mov	r3, r8
    4f3e:	19d2      	adds	r2, r2, r7
    4f40:	3b01      	subs	r3, #1
    4f42:	4297      	cmp	r7, r2
    4f44:	d900      	bls.n	4f48 <__aeabi_ddiv+0x28c>
    4f46:	e13a      	b.n	51be <__aeabi_ddiv+0x502>
    4f48:	4593      	cmp	fp, r2
    4f4a:	d800      	bhi.n	4f4e <__aeabi_ddiv+0x292>
    4f4c:	e137      	b.n	51be <__aeabi_ddiv+0x502>
    4f4e:	2302      	movs	r3, #2
    4f50:	425b      	negs	r3, r3
    4f52:	469c      	mov	ip, r3
    4f54:	19d2      	adds	r2, r2, r7
    4f56:	44e0      	add	r8, ip
    4f58:	465b      	mov	r3, fp
    4f5a:	1ad2      	subs	r2, r2, r3
    4f5c:	4643      	mov	r3, r8
    4f5e:	0436      	lsls	r6, r6, #16
    4f60:	4333      	orrs	r3, r6
    4f62:	469b      	mov	fp, r3
    4f64:	9903      	ldr	r1, [sp, #12]
    4f66:	0c18      	lsrs	r0, r3, #16
    4f68:	0c0b      	lsrs	r3, r1, #16
    4f6a:	001d      	movs	r5, r3
    4f6c:	9305      	str	r3, [sp, #20]
    4f6e:	0409      	lsls	r1, r1, #16
    4f70:	465b      	mov	r3, fp
    4f72:	0c09      	lsrs	r1, r1, #16
    4f74:	000c      	movs	r4, r1
    4f76:	041b      	lsls	r3, r3, #16
    4f78:	0c1b      	lsrs	r3, r3, #16
    4f7a:	4344      	muls	r4, r0
    4f7c:	9104      	str	r1, [sp, #16]
    4f7e:	4359      	muls	r1, r3
    4f80:	436b      	muls	r3, r5
    4f82:	4368      	muls	r0, r5
    4f84:	191b      	adds	r3, r3, r4
    4f86:	0c0d      	lsrs	r5, r1, #16
    4f88:	18eb      	adds	r3, r5, r3
    4f8a:	429c      	cmp	r4, r3
    4f8c:	d903      	bls.n	4f96 <__aeabi_ddiv+0x2da>
    4f8e:	2480      	movs	r4, #128	; 0x80
    4f90:	0264      	lsls	r4, r4, #9
    4f92:	46a4      	mov	ip, r4
    4f94:	4460      	add	r0, ip
    4f96:	0c1c      	lsrs	r4, r3, #16
    4f98:	0409      	lsls	r1, r1, #16
    4f9a:	041b      	lsls	r3, r3, #16
    4f9c:	0c09      	lsrs	r1, r1, #16
    4f9e:	1820      	adds	r0, r4, r0
    4fa0:	185d      	adds	r5, r3, r1
    4fa2:	4282      	cmp	r2, r0
    4fa4:	d200      	bcs.n	4fa8 <__aeabi_ddiv+0x2ec>
    4fa6:	e0de      	b.n	5166 <__aeabi_ddiv+0x4aa>
    4fa8:	d100      	bne.n	4fac <__aeabi_ddiv+0x2f0>
    4faa:	e0d7      	b.n	515c <__aeabi_ddiv+0x4a0>
    4fac:	1a16      	subs	r6, r2, r0
    4fae:	9b02      	ldr	r3, [sp, #8]
    4fb0:	469c      	mov	ip, r3
    4fb2:	1b5d      	subs	r5, r3, r5
    4fb4:	45ac      	cmp	ip, r5
    4fb6:	419b      	sbcs	r3, r3
    4fb8:	425b      	negs	r3, r3
    4fba:	1af6      	subs	r6, r6, r3
    4fbc:	42b7      	cmp	r7, r6
    4fbe:	d100      	bne.n	4fc2 <__aeabi_ddiv+0x306>
    4fc0:	e106      	b.n	51d0 <__aeabi_ddiv+0x514>
    4fc2:	4649      	mov	r1, r9
    4fc4:	0030      	movs	r0, r6
    4fc6:	f7ff f903 	bl	41d0 <__aeabi_uidiv>
    4fca:	9b00      	ldr	r3, [sp, #0]
    4fcc:	0004      	movs	r4, r0
    4fce:	4343      	muls	r3, r0
    4fd0:	4649      	mov	r1, r9
    4fd2:	0030      	movs	r0, r6
    4fd4:	4698      	mov	r8, r3
    4fd6:	f7ff f981 	bl	42dc <__aeabi_uidivmod>
    4fda:	0c2e      	lsrs	r6, r5, #16
    4fdc:	0409      	lsls	r1, r1, #16
    4fde:	430e      	orrs	r6, r1
    4fe0:	45b0      	cmp	r8, r6
    4fe2:	d909      	bls.n	4ff8 <__aeabi_ddiv+0x33c>
    4fe4:	19f6      	adds	r6, r6, r7
    4fe6:	1e63      	subs	r3, r4, #1
    4fe8:	42b7      	cmp	r7, r6
    4fea:	d900      	bls.n	4fee <__aeabi_ddiv+0x332>
    4fec:	e0f3      	b.n	51d6 <__aeabi_ddiv+0x51a>
    4fee:	45b0      	cmp	r8, r6
    4ff0:	d800      	bhi.n	4ff4 <__aeabi_ddiv+0x338>
    4ff2:	e0f0      	b.n	51d6 <__aeabi_ddiv+0x51a>
    4ff4:	3c02      	subs	r4, #2
    4ff6:	19f6      	adds	r6, r6, r7
    4ff8:	4643      	mov	r3, r8
    4ffa:	1af3      	subs	r3, r6, r3
    4ffc:	4649      	mov	r1, r9
    4ffe:	0018      	movs	r0, r3
    5000:	9302      	str	r3, [sp, #8]
    5002:	f7ff f8e5 	bl	41d0 <__aeabi_uidiv>
    5006:	9b00      	ldr	r3, [sp, #0]
    5008:	0006      	movs	r6, r0
    500a:	4343      	muls	r3, r0
    500c:	4649      	mov	r1, r9
    500e:	9802      	ldr	r0, [sp, #8]
    5010:	4698      	mov	r8, r3
    5012:	f7ff f963 	bl	42dc <__aeabi_uidivmod>
    5016:	042d      	lsls	r5, r5, #16
    5018:	0409      	lsls	r1, r1, #16
    501a:	0c2d      	lsrs	r5, r5, #16
    501c:	430d      	orrs	r5, r1
    501e:	45a8      	cmp	r8, r5
    5020:	d909      	bls.n	5036 <__aeabi_ddiv+0x37a>
    5022:	19ed      	adds	r5, r5, r7
    5024:	1e73      	subs	r3, r6, #1
    5026:	42af      	cmp	r7, r5
    5028:	d900      	bls.n	502c <__aeabi_ddiv+0x370>
    502a:	e0d6      	b.n	51da <__aeabi_ddiv+0x51e>
    502c:	45a8      	cmp	r8, r5
    502e:	d800      	bhi.n	5032 <__aeabi_ddiv+0x376>
    5030:	e0d3      	b.n	51da <__aeabi_ddiv+0x51e>
    5032:	3e02      	subs	r6, #2
    5034:	19ed      	adds	r5, r5, r7
    5036:	0424      	lsls	r4, r4, #16
    5038:	0021      	movs	r1, r4
    503a:	4643      	mov	r3, r8
    503c:	4331      	orrs	r1, r6
    503e:	9e04      	ldr	r6, [sp, #16]
    5040:	9a05      	ldr	r2, [sp, #20]
    5042:	0030      	movs	r0, r6
    5044:	1aed      	subs	r5, r5, r3
    5046:	040b      	lsls	r3, r1, #16
    5048:	0c0c      	lsrs	r4, r1, #16
    504a:	0c1b      	lsrs	r3, r3, #16
    504c:	4358      	muls	r0, r3
    504e:	4366      	muls	r6, r4
    5050:	4353      	muls	r3, r2
    5052:	4354      	muls	r4, r2
    5054:	199a      	adds	r2, r3, r6
    5056:	0c03      	lsrs	r3, r0, #16
    5058:	189b      	adds	r3, r3, r2
    505a:	429e      	cmp	r6, r3
    505c:	d903      	bls.n	5066 <__aeabi_ddiv+0x3aa>
    505e:	2280      	movs	r2, #128	; 0x80
    5060:	0252      	lsls	r2, r2, #9
    5062:	4694      	mov	ip, r2
    5064:	4464      	add	r4, ip
    5066:	0c1a      	lsrs	r2, r3, #16
    5068:	0400      	lsls	r0, r0, #16
    506a:	041b      	lsls	r3, r3, #16
    506c:	0c00      	lsrs	r0, r0, #16
    506e:	1914      	adds	r4, r2, r4
    5070:	181b      	adds	r3, r3, r0
    5072:	42a5      	cmp	r5, r4
    5074:	d350      	bcc.n	5118 <__aeabi_ddiv+0x45c>
    5076:	d04d      	beq.n	5114 <__aeabi_ddiv+0x458>
    5078:	2301      	movs	r3, #1
    507a:	4319      	orrs	r1, r3
    507c:	4a96      	ldr	r2, [pc, #600]	; (52d8 <__aeabi_ddiv+0x61c>)
    507e:	9b01      	ldr	r3, [sp, #4]
    5080:	4694      	mov	ip, r2
    5082:	4463      	add	r3, ip
    5084:	2b00      	cmp	r3, #0
    5086:	dc00      	bgt.n	508a <__aeabi_ddiv+0x3ce>
    5088:	e6f3      	b.n	4e72 <__aeabi_ddiv+0x1b6>
    508a:	074a      	lsls	r2, r1, #29
    508c:	d009      	beq.n	50a2 <__aeabi_ddiv+0x3e6>
    508e:	220f      	movs	r2, #15
    5090:	400a      	ands	r2, r1
    5092:	2a04      	cmp	r2, #4
    5094:	d005      	beq.n	50a2 <__aeabi_ddiv+0x3e6>
    5096:	1d0a      	adds	r2, r1, #4
    5098:	428a      	cmp	r2, r1
    509a:	4189      	sbcs	r1, r1
    509c:	4249      	negs	r1, r1
    509e:	448b      	add	fp, r1
    50a0:	0011      	movs	r1, r2
    50a2:	465a      	mov	r2, fp
    50a4:	01d2      	lsls	r2, r2, #7
    50a6:	d508      	bpl.n	50ba <__aeabi_ddiv+0x3fe>
    50a8:	465a      	mov	r2, fp
    50aa:	4b8c      	ldr	r3, [pc, #560]	; (52dc <__aeabi_ddiv+0x620>)
    50ac:	401a      	ands	r2, r3
    50ae:	4693      	mov	fp, r2
    50b0:	2280      	movs	r2, #128	; 0x80
    50b2:	00d2      	lsls	r2, r2, #3
    50b4:	4694      	mov	ip, r2
    50b6:	9b01      	ldr	r3, [sp, #4]
    50b8:	4463      	add	r3, ip
    50ba:	4a89      	ldr	r2, [pc, #548]	; (52e0 <__aeabi_ddiv+0x624>)
    50bc:	4293      	cmp	r3, r2
    50be:	dd00      	ble.n	50c2 <__aeabi_ddiv+0x406>
    50c0:	e65b      	b.n	4d7a <__aeabi_ddiv+0xbe>
    50c2:	465a      	mov	r2, fp
    50c4:	08c9      	lsrs	r1, r1, #3
    50c6:	0750      	lsls	r0, r2, #29
    50c8:	4308      	orrs	r0, r1
    50ca:	0256      	lsls	r6, r2, #9
    50cc:	4651      	mov	r1, sl
    50ce:	2201      	movs	r2, #1
    50d0:	055b      	lsls	r3, r3, #21
    50d2:	4681      	mov	r9, r0
    50d4:	0b36      	lsrs	r6, r6, #12
    50d6:	0d5b      	lsrs	r3, r3, #21
    50d8:	400a      	ands	r2, r1
    50da:	e655      	b.n	4d88 <__aeabi_ddiv+0xcc>
    50dc:	2380      	movs	r3, #128	; 0x80
    50de:	031b      	lsls	r3, r3, #12
    50e0:	421e      	tst	r6, r3
    50e2:	d011      	beq.n	5108 <__aeabi_ddiv+0x44c>
    50e4:	465a      	mov	r2, fp
    50e6:	421a      	tst	r2, r3
    50e8:	d10e      	bne.n	5108 <__aeabi_ddiv+0x44c>
    50ea:	465e      	mov	r6, fp
    50ec:	431e      	orrs	r6, r3
    50ee:	0336      	lsls	r6, r6, #12
    50f0:	0b36      	lsrs	r6, r6, #12
    50f2:	002a      	movs	r2, r5
    50f4:	4689      	mov	r9, r1
    50f6:	4b7b      	ldr	r3, [pc, #492]	; (52e4 <__aeabi_ddiv+0x628>)
    50f8:	e646      	b.n	4d88 <__aeabi_ddiv+0xcc>
    50fa:	2b03      	cmp	r3, #3
    50fc:	d100      	bne.n	5100 <__aeabi_ddiv+0x444>
    50fe:	e0e1      	b.n	52c4 <__aeabi_ddiv+0x608>
    5100:	2b01      	cmp	r3, #1
    5102:	d1bb      	bne.n	507c <__aeabi_ddiv+0x3c0>
    5104:	401a      	ands	r2, r3
    5106:	e6bb      	b.n	4e80 <__aeabi_ddiv+0x1c4>
    5108:	431e      	orrs	r6, r3
    510a:	0336      	lsls	r6, r6, #12
    510c:	0b36      	lsrs	r6, r6, #12
    510e:	4642      	mov	r2, r8
    5110:	4b74      	ldr	r3, [pc, #464]	; (52e4 <__aeabi_ddiv+0x628>)
    5112:	e639      	b.n	4d88 <__aeabi_ddiv+0xcc>
    5114:	2b00      	cmp	r3, #0
    5116:	d0b1      	beq.n	507c <__aeabi_ddiv+0x3c0>
    5118:	197d      	adds	r5, r7, r5
    511a:	1e4a      	subs	r2, r1, #1
    511c:	42af      	cmp	r7, r5
    511e:	d952      	bls.n	51c6 <__aeabi_ddiv+0x50a>
    5120:	0011      	movs	r1, r2
    5122:	42a5      	cmp	r5, r4
    5124:	d1a8      	bne.n	5078 <__aeabi_ddiv+0x3bc>
    5126:	9a03      	ldr	r2, [sp, #12]
    5128:	429a      	cmp	r2, r3
    512a:	d1a5      	bne.n	5078 <__aeabi_ddiv+0x3bc>
    512c:	e7a6      	b.n	507c <__aeabi_ddiv+0x3c0>
    512e:	0003      	movs	r3, r0
    5130:	003e      	movs	r6, r7
    5132:	3b28      	subs	r3, #40	; 0x28
    5134:	409e      	lsls	r6, r3
    5136:	2300      	movs	r3, #0
    5138:	4699      	mov	r9, r3
    513a:	e654      	b.n	4de6 <__aeabi_ddiv+0x12a>
    513c:	f001 f960 	bl	6400 <__clzsi2>
    5140:	3020      	adds	r0, #32
    5142:	e641      	b.n	4dc8 <__aeabi_ddiv+0x10c>
    5144:	0003      	movs	r3, r0
    5146:	4652      	mov	r2, sl
    5148:	3b28      	subs	r3, #40	; 0x28
    514a:	409a      	lsls	r2, r3
    514c:	2100      	movs	r1, #0
    514e:	4693      	mov	fp, r2
    5150:	e677      	b.n	4e42 <__aeabi_ddiv+0x186>
    5152:	4650      	mov	r0, sl
    5154:	f001 f954 	bl	6400 <__clzsi2>
    5158:	3020      	adds	r0, #32
    515a:	e65e      	b.n	4e1a <__aeabi_ddiv+0x15e>
    515c:	9b02      	ldr	r3, [sp, #8]
    515e:	2600      	movs	r6, #0
    5160:	42ab      	cmp	r3, r5
    5162:	d300      	bcc.n	5166 <__aeabi_ddiv+0x4aa>
    5164:	e723      	b.n	4fae <__aeabi_ddiv+0x2f2>
    5166:	9e03      	ldr	r6, [sp, #12]
    5168:	9902      	ldr	r1, [sp, #8]
    516a:	46b4      	mov	ip, r6
    516c:	4461      	add	r1, ip
    516e:	4688      	mov	r8, r1
    5170:	45b0      	cmp	r8, r6
    5172:	41b6      	sbcs	r6, r6
    5174:	465b      	mov	r3, fp
    5176:	4276      	negs	r6, r6
    5178:	19f6      	adds	r6, r6, r7
    517a:	18b2      	adds	r2, r6, r2
    517c:	3b01      	subs	r3, #1
    517e:	9102      	str	r1, [sp, #8]
    5180:	4297      	cmp	r7, r2
    5182:	d213      	bcs.n	51ac <__aeabi_ddiv+0x4f0>
    5184:	4290      	cmp	r0, r2
    5186:	d84f      	bhi.n	5228 <__aeabi_ddiv+0x56c>
    5188:	d100      	bne.n	518c <__aeabi_ddiv+0x4d0>
    518a:	e08e      	b.n	52aa <__aeabi_ddiv+0x5ee>
    518c:	1a16      	subs	r6, r2, r0
    518e:	469b      	mov	fp, r3
    5190:	e70d      	b.n	4fae <__aeabi_ddiv+0x2f2>
    5192:	4589      	cmp	r9, r1
    5194:	d200      	bcs.n	5198 <__aeabi_ddiv+0x4dc>
    5196:	e68e      	b.n	4eb6 <__aeabi_ddiv+0x1fa>
    5198:	0874      	lsrs	r4, r6, #1
    519a:	464b      	mov	r3, r9
    519c:	07f6      	lsls	r6, r6, #31
    519e:	0035      	movs	r5, r6
    51a0:	085b      	lsrs	r3, r3, #1
    51a2:	431d      	orrs	r5, r3
    51a4:	464b      	mov	r3, r9
    51a6:	07db      	lsls	r3, r3, #31
    51a8:	9302      	str	r3, [sp, #8]
    51aa:	e68b      	b.n	4ec4 <__aeabi_ddiv+0x208>
    51ac:	4297      	cmp	r7, r2
    51ae:	d1ed      	bne.n	518c <__aeabi_ddiv+0x4d0>
    51b0:	9903      	ldr	r1, [sp, #12]
    51b2:	9c02      	ldr	r4, [sp, #8]
    51b4:	42a1      	cmp	r1, r4
    51b6:	d9e5      	bls.n	5184 <__aeabi_ddiv+0x4c8>
    51b8:	1a3e      	subs	r6, r7, r0
    51ba:	469b      	mov	fp, r3
    51bc:	e6f7      	b.n	4fae <__aeabi_ddiv+0x2f2>
    51be:	4698      	mov	r8, r3
    51c0:	e6ca      	b.n	4f58 <__aeabi_ddiv+0x29c>
    51c2:	001e      	movs	r6, r3
    51c4:	e6a5      	b.n	4f12 <__aeabi_ddiv+0x256>
    51c6:	42ac      	cmp	r4, r5
    51c8:	d83e      	bhi.n	5248 <__aeabi_ddiv+0x58c>
    51ca:	d074      	beq.n	52b6 <__aeabi_ddiv+0x5fa>
    51cc:	0011      	movs	r1, r2
    51ce:	e753      	b.n	5078 <__aeabi_ddiv+0x3bc>
    51d0:	2101      	movs	r1, #1
    51d2:	4249      	negs	r1, r1
    51d4:	e752      	b.n	507c <__aeabi_ddiv+0x3c0>
    51d6:	001c      	movs	r4, r3
    51d8:	e70e      	b.n	4ff8 <__aeabi_ddiv+0x33c>
    51da:	001e      	movs	r6, r3
    51dc:	e72b      	b.n	5036 <__aeabi_ddiv+0x37a>
    51de:	2d1f      	cmp	r5, #31
    51e0:	dc3c      	bgt.n	525c <__aeabi_ddiv+0x5a0>
    51e2:	2320      	movs	r3, #32
    51e4:	000a      	movs	r2, r1
    51e6:	4658      	mov	r0, fp
    51e8:	1b5b      	subs	r3, r3, r5
    51ea:	4098      	lsls	r0, r3
    51ec:	40ea      	lsrs	r2, r5
    51ee:	4099      	lsls	r1, r3
    51f0:	4302      	orrs	r2, r0
    51f2:	1e48      	subs	r0, r1, #1
    51f4:	4181      	sbcs	r1, r0
    51f6:	465e      	mov	r6, fp
    51f8:	4311      	orrs	r1, r2
    51fa:	40ee      	lsrs	r6, r5
    51fc:	074b      	lsls	r3, r1, #29
    51fe:	d009      	beq.n	5214 <__aeabi_ddiv+0x558>
    5200:	230f      	movs	r3, #15
    5202:	400b      	ands	r3, r1
    5204:	2b04      	cmp	r3, #4
    5206:	d005      	beq.n	5214 <__aeabi_ddiv+0x558>
    5208:	000b      	movs	r3, r1
    520a:	1d19      	adds	r1, r3, #4
    520c:	4299      	cmp	r1, r3
    520e:	419b      	sbcs	r3, r3
    5210:	425b      	negs	r3, r3
    5212:	18f6      	adds	r6, r6, r3
    5214:	0233      	lsls	r3, r6, #8
    5216:	d53c      	bpl.n	5292 <__aeabi_ddiv+0x5d6>
    5218:	4653      	mov	r3, sl
    521a:	2201      	movs	r2, #1
    521c:	2100      	movs	r1, #0
    521e:	401a      	ands	r2, r3
    5220:	2600      	movs	r6, #0
    5222:	2301      	movs	r3, #1
    5224:	4689      	mov	r9, r1
    5226:	e5af      	b.n	4d88 <__aeabi_ddiv+0xcc>
    5228:	2302      	movs	r3, #2
    522a:	425b      	negs	r3, r3
    522c:	469c      	mov	ip, r3
    522e:	9c03      	ldr	r4, [sp, #12]
    5230:	44e3      	add	fp, ip
    5232:	46a4      	mov	ip, r4
    5234:	9b02      	ldr	r3, [sp, #8]
    5236:	4463      	add	r3, ip
    5238:	4698      	mov	r8, r3
    523a:	45a0      	cmp	r8, r4
    523c:	41b6      	sbcs	r6, r6
    523e:	4276      	negs	r6, r6
    5240:	19f6      	adds	r6, r6, r7
    5242:	9302      	str	r3, [sp, #8]
    5244:	18b2      	adds	r2, r6, r2
    5246:	e6b1      	b.n	4fac <__aeabi_ddiv+0x2f0>
    5248:	9803      	ldr	r0, [sp, #12]
    524a:	1e8a      	subs	r2, r1, #2
    524c:	0041      	lsls	r1, r0, #1
    524e:	4281      	cmp	r1, r0
    5250:	41b6      	sbcs	r6, r6
    5252:	4276      	negs	r6, r6
    5254:	19f6      	adds	r6, r6, r7
    5256:	19ad      	adds	r5, r5, r6
    5258:	9103      	str	r1, [sp, #12]
    525a:	e761      	b.n	5120 <__aeabi_ddiv+0x464>
    525c:	221f      	movs	r2, #31
    525e:	4252      	negs	r2, r2
    5260:	1ad3      	subs	r3, r2, r3
    5262:	465a      	mov	r2, fp
    5264:	40da      	lsrs	r2, r3
    5266:	0013      	movs	r3, r2
    5268:	2d20      	cmp	r5, #32
    526a:	d029      	beq.n	52c0 <__aeabi_ddiv+0x604>
    526c:	2240      	movs	r2, #64	; 0x40
    526e:	4658      	mov	r0, fp
    5270:	1b55      	subs	r5, r2, r5
    5272:	40a8      	lsls	r0, r5
    5274:	4301      	orrs	r1, r0
    5276:	1e48      	subs	r0, r1, #1
    5278:	4181      	sbcs	r1, r0
    527a:	2007      	movs	r0, #7
    527c:	430b      	orrs	r3, r1
    527e:	4018      	ands	r0, r3
    5280:	2600      	movs	r6, #0
    5282:	2800      	cmp	r0, #0
    5284:	d009      	beq.n	529a <__aeabi_ddiv+0x5de>
    5286:	220f      	movs	r2, #15
    5288:	2600      	movs	r6, #0
    528a:	401a      	ands	r2, r3
    528c:	0019      	movs	r1, r3
    528e:	2a04      	cmp	r2, #4
    5290:	d1bb      	bne.n	520a <__aeabi_ddiv+0x54e>
    5292:	000b      	movs	r3, r1
    5294:	0770      	lsls	r0, r6, #29
    5296:	0276      	lsls	r6, r6, #9
    5298:	0b36      	lsrs	r6, r6, #12
    529a:	08db      	lsrs	r3, r3, #3
    529c:	4303      	orrs	r3, r0
    529e:	4699      	mov	r9, r3
    52a0:	2201      	movs	r2, #1
    52a2:	4653      	mov	r3, sl
    52a4:	401a      	ands	r2, r3
    52a6:	2300      	movs	r3, #0
    52a8:	e56e      	b.n	4d88 <__aeabi_ddiv+0xcc>
    52aa:	9902      	ldr	r1, [sp, #8]
    52ac:	428d      	cmp	r5, r1
    52ae:	d8bb      	bhi.n	5228 <__aeabi_ddiv+0x56c>
    52b0:	469b      	mov	fp, r3
    52b2:	2600      	movs	r6, #0
    52b4:	e67b      	b.n	4fae <__aeabi_ddiv+0x2f2>
    52b6:	9803      	ldr	r0, [sp, #12]
    52b8:	4298      	cmp	r0, r3
    52ba:	d3c5      	bcc.n	5248 <__aeabi_ddiv+0x58c>
    52bc:	0011      	movs	r1, r2
    52be:	e732      	b.n	5126 <__aeabi_ddiv+0x46a>
    52c0:	2000      	movs	r0, #0
    52c2:	e7d7      	b.n	5274 <__aeabi_ddiv+0x5b8>
    52c4:	2680      	movs	r6, #128	; 0x80
    52c6:	465b      	mov	r3, fp
    52c8:	0336      	lsls	r6, r6, #12
    52ca:	431e      	orrs	r6, r3
    52cc:	0336      	lsls	r6, r6, #12
    52ce:	0b36      	lsrs	r6, r6, #12
    52d0:	9a00      	ldr	r2, [sp, #0]
    52d2:	4689      	mov	r9, r1
    52d4:	4b03      	ldr	r3, [pc, #12]	; (52e4 <__aeabi_ddiv+0x628>)
    52d6:	e557      	b.n	4d88 <__aeabi_ddiv+0xcc>
    52d8:	000003ff 	.word	0x000003ff
    52dc:	feffffff 	.word	0xfeffffff
    52e0:	000007fe 	.word	0x000007fe
    52e4:	000007ff 	.word	0x000007ff

000052e8 <__eqdf2>:
    52e8:	b5f0      	push	{r4, r5, r6, r7, lr}
    52ea:	465f      	mov	r7, fp
    52ec:	4656      	mov	r6, sl
    52ee:	464d      	mov	r5, r9
    52f0:	4644      	mov	r4, r8
    52f2:	b4f0      	push	{r4, r5, r6, r7}
    52f4:	031f      	lsls	r7, r3, #12
    52f6:	005c      	lsls	r4, r3, #1
    52f8:	0fdb      	lsrs	r3, r3, #31
    52fa:	469a      	mov	sl, r3
    52fc:	4b19      	ldr	r3, [pc, #100]	; (5364 <__eqdf2+0x7c>)
    52fe:	030e      	lsls	r6, r1, #12
    5300:	004d      	lsls	r5, r1, #1
    5302:	0fc9      	lsrs	r1, r1, #31
    5304:	4680      	mov	r8, r0
    5306:	0b36      	lsrs	r6, r6, #12
    5308:	0d6d      	lsrs	r5, r5, #21
    530a:	468b      	mov	fp, r1
    530c:	4691      	mov	r9, r2
    530e:	0b3f      	lsrs	r7, r7, #12
    5310:	0d64      	lsrs	r4, r4, #21
    5312:	429d      	cmp	r5, r3
    5314:	d019      	beq.n	534a <__eqdf2+0x62>
    5316:	4b13      	ldr	r3, [pc, #76]	; (5364 <__eqdf2+0x7c>)
    5318:	429c      	cmp	r4, r3
    531a:	d01b      	beq.n	5354 <__eqdf2+0x6c>
    531c:	2301      	movs	r3, #1
    531e:	42a5      	cmp	r5, r4
    5320:	d006      	beq.n	5330 <__eqdf2+0x48>
    5322:	0018      	movs	r0, r3
    5324:	bc3c      	pop	{r2, r3, r4, r5}
    5326:	4690      	mov	r8, r2
    5328:	4699      	mov	r9, r3
    532a:	46a2      	mov	sl, r4
    532c:	46ab      	mov	fp, r5
    532e:	bdf0      	pop	{r4, r5, r6, r7, pc}
    5330:	42be      	cmp	r6, r7
    5332:	d1f6      	bne.n	5322 <__eqdf2+0x3a>
    5334:	45c8      	cmp	r8, r9
    5336:	d1f4      	bne.n	5322 <__eqdf2+0x3a>
    5338:	45d3      	cmp	fp, sl
    533a:	d010      	beq.n	535e <__eqdf2+0x76>
    533c:	2d00      	cmp	r5, #0
    533e:	d1f0      	bne.n	5322 <__eqdf2+0x3a>
    5340:	4330      	orrs	r0, r6
    5342:	0003      	movs	r3, r0
    5344:	1e5a      	subs	r2, r3, #1
    5346:	4193      	sbcs	r3, r2
    5348:	e7eb      	b.n	5322 <__eqdf2+0x3a>
    534a:	0031      	movs	r1, r6
    534c:	2301      	movs	r3, #1
    534e:	4301      	orrs	r1, r0
    5350:	d1e7      	bne.n	5322 <__eqdf2+0x3a>
    5352:	e7e0      	b.n	5316 <__eqdf2+0x2e>
    5354:	433a      	orrs	r2, r7
    5356:	2301      	movs	r3, #1
    5358:	2a00      	cmp	r2, #0
    535a:	d1e2      	bne.n	5322 <__eqdf2+0x3a>
    535c:	e7de      	b.n	531c <__eqdf2+0x34>
    535e:	2300      	movs	r3, #0
    5360:	e7df      	b.n	5322 <__eqdf2+0x3a>
    5362:	46c0      	nop			; (mov r8, r8)
    5364:	000007ff 	.word	0x000007ff

00005368 <__gedf2>:
    5368:	b5f0      	push	{r4, r5, r6, r7, lr}
    536a:	465f      	mov	r7, fp
    536c:	4644      	mov	r4, r8
    536e:	4656      	mov	r6, sl
    5370:	464d      	mov	r5, r9
    5372:	b4f0      	push	{r4, r5, r6, r7}
    5374:	031f      	lsls	r7, r3, #12
    5376:	0b3c      	lsrs	r4, r7, #12
    5378:	4f2c      	ldr	r7, [pc, #176]	; (542c <__gedf2+0xc4>)
    537a:	030e      	lsls	r6, r1, #12
    537c:	004d      	lsls	r5, r1, #1
    537e:	46a3      	mov	fp, r4
    5380:	005c      	lsls	r4, r3, #1
    5382:	4684      	mov	ip, r0
    5384:	0b36      	lsrs	r6, r6, #12
    5386:	0d6d      	lsrs	r5, r5, #21
    5388:	0fc9      	lsrs	r1, r1, #31
    538a:	4690      	mov	r8, r2
    538c:	0d64      	lsrs	r4, r4, #21
    538e:	0fdb      	lsrs	r3, r3, #31
    5390:	42bd      	cmp	r5, r7
    5392:	d02b      	beq.n	53ec <__gedf2+0x84>
    5394:	4f25      	ldr	r7, [pc, #148]	; (542c <__gedf2+0xc4>)
    5396:	42bc      	cmp	r4, r7
    5398:	d02e      	beq.n	53f8 <__gedf2+0x90>
    539a:	2d00      	cmp	r5, #0
    539c:	d10e      	bne.n	53bc <__gedf2+0x54>
    539e:	4330      	orrs	r0, r6
    53a0:	0007      	movs	r7, r0
    53a2:	4681      	mov	r9, r0
    53a4:	4278      	negs	r0, r7
    53a6:	4178      	adcs	r0, r7
    53a8:	2c00      	cmp	r4, #0
    53aa:	d117      	bne.n	53dc <__gedf2+0x74>
    53ac:	465f      	mov	r7, fp
    53ae:	433a      	orrs	r2, r7
    53b0:	d114      	bne.n	53dc <__gedf2+0x74>
    53b2:	464b      	mov	r3, r9
    53b4:	2000      	movs	r0, #0
    53b6:	2b00      	cmp	r3, #0
    53b8:	d00a      	beq.n	53d0 <__gedf2+0x68>
    53ba:	e006      	b.n	53ca <__gedf2+0x62>
    53bc:	2c00      	cmp	r4, #0
    53be:	d102      	bne.n	53c6 <__gedf2+0x5e>
    53c0:	4658      	mov	r0, fp
    53c2:	4302      	orrs	r2, r0
    53c4:	d001      	beq.n	53ca <__gedf2+0x62>
    53c6:	4299      	cmp	r1, r3
    53c8:	d01a      	beq.n	5400 <__gedf2+0x98>
    53ca:	2301      	movs	r3, #1
    53cc:	4248      	negs	r0, r1
    53ce:	4318      	orrs	r0, r3
    53d0:	bc3c      	pop	{r2, r3, r4, r5}
    53d2:	4690      	mov	r8, r2
    53d4:	4699      	mov	r9, r3
    53d6:	46a2      	mov	sl, r4
    53d8:	46ab      	mov	fp, r5
    53da:	bdf0      	pop	{r4, r5, r6, r7, pc}
    53dc:	2800      	cmp	r0, #0
    53de:	d0f2      	beq.n	53c6 <__gedf2+0x5e>
    53e0:	4258      	negs	r0, r3
    53e2:	4158      	adcs	r0, r3
    53e4:	2201      	movs	r2, #1
    53e6:	4240      	negs	r0, r0
    53e8:	4310      	orrs	r0, r2
    53ea:	e7f1      	b.n	53d0 <__gedf2+0x68>
    53ec:	0037      	movs	r7, r6
    53ee:	4307      	orrs	r7, r0
    53f0:	d0d0      	beq.n	5394 <__gedf2+0x2c>
    53f2:	2002      	movs	r0, #2
    53f4:	4240      	negs	r0, r0
    53f6:	e7eb      	b.n	53d0 <__gedf2+0x68>
    53f8:	465f      	mov	r7, fp
    53fa:	4317      	orrs	r7, r2
    53fc:	d0cd      	beq.n	539a <__gedf2+0x32>
    53fe:	e7f8      	b.n	53f2 <__gedf2+0x8a>
    5400:	42a5      	cmp	r5, r4
    5402:	dce2      	bgt.n	53ca <__gedf2+0x62>
    5404:	db05      	blt.n	5412 <__gedf2+0xaa>
    5406:	455e      	cmp	r6, fp
    5408:	d8df      	bhi.n	53ca <__gedf2+0x62>
    540a:	d008      	beq.n	541e <__gedf2+0xb6>
    540c:	2000      	movs	r0, #0
    540e:	455e      	cmp	r6, fp
    5410:	d2de      	bcs.n	53d0 <__gedf2+0x68>
    5412:	4248      	negs	r0, r1
    5414:	4148      	adcs	r0, r1
    5416:	2301      	movs	r3, #1
    5418:	4240      	negs	r0, r0
    541a:	4318      	orrs	r0, r3
    541c:	e7d8      	b.n	53d0 <__gedf2+0x68>
    541e:	45c4      	cmp	ip, r8
    5420:	d8d3      	bhi.n	53ca <__gedf2+0x62>
    5422:	2000      	movs	r0, #0
    5424:	45c4      	cmp	ip, r8
    5426:	d3f4      	bcc.n	5412 <__gedf2+0xaa>
    5428:	e7d2      	b.n	53d0 <__gedf2+0x68>
    542a:	46c0      	nop			; (mov r8, r8)
    542c:	000007ff 	.word	0x000007ff

00005430 <__ledf2>:
    5430:	b5f0      	push	{r4, r5, r6, r7, lr}
    5432:	465f      	mov	r7, fp
    5434:	464d      	mov	r5, r9
    5436:	4644      	mov	r4, r8
    5438:	4656      	mov	r6, sl
    543a:	b4f0      	push	{r4, r5, r6, r7}
    543c:	031c      	lsls	r4, r3, #12
    543e:	0b24      	lsrs	r4, r4, #12
    5440:	46a4      	mov	ip, r4
    5442:	4c2f      	ldr	r4, [pc, #188]	; (5500 <__ledf2+0xd0>)
    5444:	030f      	lsls	r7, r1, #12
    5446:	004d      	lsls	r5, r1, #1
    5448:	005e      	lsls	r6, r3, #1
    544a:	0fc9      	lsrs	r1, r1, #31
    544c:	4680      	mov	r8, r0
    544e:	0b3f      	lsrs	r7, r7, #12
    5450:	0d6d      	lsrs	r5, r5, #21
    5452:	468b      	mov	fp, r1
    5454:	4691      	mov	r9, r2
    5456:	0d76      	lsrs	r6, r6, #21
    5458:	0fdb      	lsrs	r3, r3, #31
    545a:	42a5      	cmp	r5, r4
    545c:	d020      	beq.n	54a0 <__ledf2+0x70>
    545e:	4c28      	ldr	r4, [pc, #160]	; (5500 <__ledf2+0xd0>)
    5460:	42a6      	cmp	r6, r4
    5462:	d022      	beq.n	54aa <__ledf2+0x7a>
    5464:	2d00      	cmp	r5, #0
    5466:	d112      	bne.n	548e <__ledf2+0x5e>
    5468:	4338      	orrs	r0, r7
    546a:	4244      	negs	r4, r0
    546c:	4144      	adcs	r4, r0
    546e:	2e00      	cmp	r6, #0
    5470:	d020      	beq.n	54b4 <__ledf2+0x84>
    5472:	2c00      	cmp	r4, #0
    5474:	d00d      	beq.n	5492 <__ledf2+0x62>
    5476:	425c      	negs	r4, r3
    5478:	4163      	adcs	r3, r4
    547a:	2401      	movs	r4, #1
    547c:	425b      	negs	r3, r3
    547e:	431c      	orrs	r4, r3
    5480:	0020      	movs	r0, r4
    5482:	bc3c      	pop	{r2, r3, r4, r5}
    5484:	4690      	mov	r8, r2
    5486:	4699      	mov	r9, r3
    5488:	46a2      	mov	sl, r4
    548a:	46ab      	mov	fp, r5
    548c:	bdf0      	pop	{r4, r5, r6, r7, pc}
    548e:	2e00      	cmp	r6, #0
    5490:	d017      	beq.n	54c2 <__ledf2+0x92>
    5492:	455b      	cmp	r3, fp
    5494:	d019      	beq.n	54ca <__ledf2+0x9a>
    5496:	465b      	mov	r3, fp
    5498:	425c      	negs	r4, r3
    549a:	2301      	movs	r3, #1
    549c:	431c      	orrs	r4, r3
    549e:	e7ef      	b.n	5480 <__ledf2+0x50>
    54a0:	0039      	movs	r1, r7
    54a2:	2402      	movs	r4, #2
    54a4:	4301      	orrs	r1, r0
    54a6:	d1eb      	bne.n	5480 <__ledf2+0x50>
    54a8:	e7d9      	b.n	545e <__ledf2+0x2e>
    54aa:	4661      	mov	r1, ip
    54ac:	2402      	movs	r4, #2
    54ae:	4311      	orrs	r1, r2
    54b0:	d1e6      	bne.n	5480 <__ledf2+0x50>
    54b2:	e7d7      	b.n	5464 <__ledf2+0x34>
    54b4:	4661      	mov	r1, ip
    54b6:	430a      	orrs	r2, r1
    54b8:	d1db      	bne.n	5472 <__ledf2+0x42>
    54ba:	2400      	movs	r4, #0
    54bc:	2800      	cmp	r0, #0
    54be:	d0df      	beq.n	5480 <__ledf2+0x50>
    54c0:	e7e9      	b.n	5496 <__ledf2+0x66>
    54c2:	4661      	mov	r1, ip
    54c4:	430a      	orrs	r2, r1
    54c6:	d1e4      	bne.n	5492 <__ledf2+0x62>
    54c8:	e7e5      	b.n	5496 <__ledf2+0x66>
    54ca:	42b5      	cmp	r5, r6
    54cc:	dd03      	ble.n	54d6 <__ledf2+0xa6>
    54ce:	2201      	movs	r2, #1
    54d0:	425c      	negs	r4, r3
    54d2:	4314      	orrs	r4, r2
    54d4:	e7d4      	b.n	5480 <__ledf2+0x50>
    54d6:	42b5      	cmp	r5, r6
    54d8:	dbcd      	blt.n	5476 <__ledf2+0x46>
    54da:	4567      	cmp	r7, ip
    54dc:	d8db      	bhi.n	5496 <__ledf2+0x66>
    54de:	d009      	beq.n	54f4 <__ledf2+0xc4>
    54e0:	2400      	movs	r4, #0
    54e2:	4567      	cmp	r7, ip
    54e4:	d2cc      	bcs.n	5480 <__ledf2+0x50>
    54e6:	4659      	mov	r1, fp
    54e8:	424c      	negs	r4, r1
    54ea:	4161      	adcs	r1, r4
    54ec:	2401      	movs	r4, #1
    54ee:	4249      	negs	r1, r1
    54f0:	430c      	orrs	r4, r1
    54f2:	e7c5      	b.n	5480 <__ledf2+0x50>
    54f4:	45c8      	cmp	r8, r9
    54f6:	d8ce      	bhi.n	5496 <__ledf2+0x66>
    54f8:	2400      	movs	r4, #0
    54fa:	45c8      	cmp	r8, r9
    54fc:	d3f3      	bcc.n	54e6 <__ledf2+0xb6>
    54fe:	e7bf      	b.n	5480 <__ledf2+0x50>
    5500:	000007ff 	.word	0x000007ff

00005504 <__aeabi_dmul>:
    5504:	b5f0      	push	{r4, r5, r6, r7, lr}
    5506:	465f      	mov	r7, fp
    5508:	4656      	mov	r6, sl
    550a:	464d      	mov	r5, r9
    550c:	4644      	mov	r4, r8
    550e:	b4f0      	push	{r4, r5, r6, r7}
    5510:	030d      	lsls	r5, r1, #12
    5512:	4699      	mov	r9, r3
    5514:	004e      	lsls	r6, r1, #1
    5516:	0b2b      	lsrs	r3, r5, #12
    5518:	b087      	sub	sp, #28
    551a:	0007      	movs	r7, r0
    551c:	4692      	mov	sl, r2
    551e:	4680      	mov	r8, r0
    5520:	469b      	mov	fp, r3
    5522:	0d76      	lsrs	r6, r6, #21
    5524:	0fcc      	lsrs	r4, r1, #31
    5526:	2e00      	cmp	r6, #0
    5528:	d069      	beq.n	55fe <__aeabi_dmul+0xfa>
    552a:	4b6d      	ldr	r3, [pc, #436]	; (56e0 <__aeabi_dmul+0x1dc>)
    552c:	429e      	cmp	r6, r3
    552e:	d035      	beq.n	559c <__aeabi_dmul+0x98>
    5530:	465b      	mov	r3, fp
    5532:	2280      	movs	r2, #128	; 0x80
    5534:	00dd      	lsls	r5, r3, #3
    5536:	0412      	lsls	r2, r2, #16
    5538:	0f43      	lsrs	r3, r0, #29
    553a:	4313      	orrs	r3, r2
    553c:	432b      	orrs	r3, r5
    553e:	469b      	mov	fp, r3
    5540:	00c3      	lsls	r3, r0, #3
    5542:	4698      	mov	r8, r3
    5544:	4b67      	ldr	r3, [pc, #412]	; (56e4 <__aeabi_dmul+0x1e0>)
    5546:	2700      	movs	r7, #0
    5548:	469c      	mov	ip, r3
    554a:	2300      	movs	r3, #0
    554c:	4466      	add	r6, ip
    554e:	9301      	str	r3, [sp, #4]
    5550:	464a      	mov	r2, r9
    5552:	0315      	lsls	r5, r2, #12
    5554:	0050      	lsls	r0, r2, #1
    5556:	0fd2      	lsrs	r2, r2, #31
    5558:	4653      	mov	r3, sl
    555a:	0b2d      	lsrs	r5, r5, #12
    555c:	0d40      	lsrs	r0, r0, #21
    555e:	4691      	mov	r9, r2
    5560:	d100      	bne.n	5564 <__aeabi_dmul+0x60>
    5562:	e076      	b.n	5652 <__aeabi_dmul+0x14e>
    5564:	4a5e      	ldr	r2, [pc, #376]	; (56e0 <__aeabi_dmul+0x1dc>)
    5566:	4290      	cmp	r0, r2
    5568:	d06c      	beq.n	5644 <__aeabi_dmul+0x140>
    556a:	2280      	movs	r2, #128	; 0x80
    556c:	0f5b      	lsrs	r3, r3, #29
    556e:	0412      	lsls	r2, r2, #16
    5570:	4313      	orrs	r3, r2
    5572:	4a5c      	ldr	r2, [pc, #368]	; (56e4 <__aeabi_dmul+0x1e0>)
    5574:	00ed      	lsls	r5, r5, #3
    5576:	4694      	mov	ip, r2
    5578:	431d      	orrs	r5, r3
    557a:	4653      	mov	r3, sl
    557c:	2200      	movs	r2, #0
    557e:	00db      	lsls	r3, r3, #3
    5580:	4460      	add	r0, ip
    5582:	4649      	mov	r1, r9
    5584:	1836      	adds	r6, r6, r0
    5586:	1c70      	adds	r0, r6, #1
    5588:	4061      	eors	r1, r4
    558a:	9002      	str	r0, [sp, #8]
    558c:	4317      	orrs	r7, r2
    558e:	2f0f      	cmp	r7, #15
    5590:	d900      	bls.n	5594 <__aeabi_dmul+0x90>
    5592:	e0af      	b.n	56f4 <__aeabi_dmul+0x1f0>
    5594:	4854      	ldr	r0, [pc, #336]	; (56e8 <__aeabi_dmul+0x1e4>)
    5596:	00bf      	lsls	r7, r7, #2
    5598:	59c7      	ldr	r7, [r0, r7]
    559a:	46bf      	mov	pc, r7
    559c:	465b      	mov	r3, fp
    559e:	431f      	orrs	r7, r3
    55a0:	d000      	beq.n	55a4 <__aeabi_dmul+0xa0>
    55a2:	e088      	b.n	56b6 <__aeabi_dmul+0x1b2>
    55a4:	2300      	movs	r3, #0
    55a6:	469b      	mov	fp, r3
    55a8:	4698      	mov	r8, r3
    55aa:	3302      	adds	r3, #2
    55ac:	2708      	movs	r7, #8
    55ae:	9301      	str	r3, [sp, #4]
    55b0:	e7ce      	b.n	5550 <__aeabi_dmul+0x4c>
    55b2:	4649      	mov	r1, r9
    55b4:	2a02      	cmp	r2, #2
    55b6:	d06a      	beq.n	568e <__aeabi_dmul+0x18a>
    55b8:	2a03      	cmp	r2, #3
    55ba:	d100      	bne.n	55be <__aeabi_dmul+0xba>
    55bc:	e209      	b.n	59d2 <__aeabi_dmul+0x4ce>
    55be:	2a01      	cmp	r2, #1
    55c0:	d000      	beq.n	55c4 <__aeabi_dmul+0xc0>
    55c2:	e1bb      	b.n	593c <__aeabi_dmul+0x438>
    55c4:	4011      	ands	r1, r2
    55c6:	2200      	movs	r2, #0
    55c8:	2300      	movs	r3, #0
    55ca:	2500      	movs	r5, #0
    55cc:	4690      	mov	r8, r2
    55ce:	b2cc      	uxtb	r4, r1
    55d0:	2100      	movs	r1, #0
    55d2:	032d      	lsls	r5, r5, #12
    55d4:	0d0a      	lsrs	r2, r1, #20
    55d6:	0512      	lsls	r2, r2, #20
    55d8:	0b2d      	lsrs	r5, r5, #12
    55da:	4315      	orrs	r5, r2
    55dc:	4a43      	ldr	r2, [pc, #268]	; (56ec <__aeabi_dmul+0x1e8>)
    55de:	051b      	lsls	r3, r3, #20
    55e0:	4015      	ands	r5, r2
    55e2:	431d      	orrs	r5, r3
    55e4:	006d      	lsls	r5, r5, #1
    55e6:	07e4      	lsls	r4, r4, #31
    55e8:	086d      	lsrs	r5, r5, #1
    55ea:	4325      	orrs	r5, r4
    55ec:	4640      	mov	r0, r8
    55ee:	0029      	movs	r1, r5
    55f0:	b007      	add	sp, #28
    55f2:	bc3c      	pop	{r2, r3, r4, r5}
    55f4:	4690      	mov	r8, r2
    55f6:	4699      	mov	r9, r3
    55f8:	46a2      	mov	sl, r4
    55fa:	46ab      	mov	fp, r5
    55fc:	bdf0      	pop	{r4, r5, r6, r7, pc}
    55fe:	4303      	orrs	r3, r0
    5600:	d052      	beq.n	56a8 <__aeabi_dmul+0x1a4>
    5602:	465b      	mov	r3, fp
    5604:	2b00      	cmp	r3, #0
    5606:	d100      	bne.n	560a <__aeabi_dmul+0x106>
    5608:	e18a      	b.n	5920 <__aeabi_dmul+0x41c>
    560a:	4658      	mov	r0, fp
    560c:	f000 fef8 	bl	6400 <__clzsi2>
    5610:	0003      	movs	r3, r0
    5612:	3b0b      	subs	r3, #11
    5614:	2b1c      	cmp	r3, #28
    5616:	dd00      	ble.n	561a <__aeabi_dmul+0x116>
    5618:	e17b      	b.n	5912 <__aeabi_dmul+0x40e>
    561a:	221d      	movs	r2, #29
    561c:	1ad3      	subs	r3, r2, r3
    561e:	003a      	movs	r2, r7
    5620:	0001      	movs	r1, r0
    5622:	465d      	mov	r5, fp
    5624:	40da      	lsrs	r2, r3
    5626:	3908      	subs	r1, #8
    5628:	408d      	lsls	r5, r1
    562a:	0013      	movs	r3, r2
    562c:	408f      	lsls	r7, r1
    562e:	432b      	orrs	r3, r5
    5630:	469b      	mov	fp, r3
    5632:	46b8      	mov	r8, r7
    5634:	4b2e      	ldr	r3, [pc, #184]	; (56f0 <__aeabi_dmul+0x1ec>)
    5636:	2700      	movs	r7, #0
    5638:	469c      	mov	ip, r3
    563a:	2300      	movs	r3, #0
    563c:	4460      	add	r0, ip
    563e:	4246      	negs	r6, r0
    5640:	9301      	str	r3, [sp, #4]
    5642:	e785      	b.n	5550 <__aeabi_dmul+0x4c>
    5644:	4652      	mov	r2, sl
    5646:	432a      	orrs	r2, r5
    5648:	d12c      	bne.n	56a4 <__aeabi_dmul+0x1a0>
    564a:	2500      	movs	r5, #0
    564c:	2300      	movs	r3, #0
    564e:	2202      	movs	r2, #2
    5650:	e797      	b.n	5582 <__aeabi_dmul+0x7e>
    5652:	4652      	mov	r2, sl
    5654:	432a      	orrs	r2, r5
    5656:	d021      	beq.n	569c <__aeabi_dmul+0x198>
    5658:	2d00      	cmp	r5, #0
    565a:	d100      	bne.n	565e <__aeabi_dmul+0x15a>
    565c:	e154      	b.n	5908 <__aeabi_dmul+0x404>
    565e:	0028      	movs	r0, r5
    5660:	f000 fece 	bl	6400 <__clzsi2>
    5664:	0003      	movs	r3, r0
    5666:	3b0b      	subs	r3, #11
    5668:	2b1c      	cmp	r3, #28
    566a:	dd00      	ble.n	566e <__aeabi_dmul+0x16a>
    566c:	e146      	b.n	58fc <__aeabi_dmul+0x3f8>
    566e:	211d      	movs	r1, #29
    5670:	1acb      	subs	r3, r1, r3
    5672:	4651      	mov	r1, sl
    5674:	0002      	movs	r2, r0
    5676:	40d9      	lsrs	r1, r3
    5678:	4653      	mov	r3, sl
    567a:	3a08      	subs	r2, #8
    567c:	4095      	lsls	r5, r2
    567e:	4093      	lsls	r3, r2
    5680:	430d      	orrs	r5, r1
    5682:	4a1b      	ldr	r2, [pc, #108]	; (56f0 <__aeabi_dmul+0x1ec>)
    5684:	4694      	mov	ip, r2
    5686:	4460      	add	r0, ip
    5688:	4240      	negs	r0, r0
    568a:	2200      	movs	r2, #0
    568c:	e779      	b.n	5582 <__aeabi_dmul+0x7e>
    568e:	2401      	movs	r4, #1
    5690:	2200      	movs	r2, #0
    5692:	400c      	ands	r4, r1
    5694:	4b12      	ldr	r3, [pc, #72]	; (56e0 <__aeabi_dmul+0x1dc>)
    5696:	2500      	movs	r5, #0
    5698:	4690      	mov	r8, r2
    569a:	e799      	b.n	55d0 <__aeabi_dmul+0xcc>
    569c:	2500      	movs	r5, #0
    569e:	2300      	movs	r3, #0
    56a0:	2201      	movs	r2, #1
    56a2:	e76e      	b.n	5582 <__aeabi_dmul+0x7e>
    56a4:	2203      	movs	r2, #3
    56a6:	e76c      	b.n	5582 <__aeabi_dmul+0x7e>
    56a8:	2300      	movs	r3, #0
    56aa:	469b      	mov	fp, r3
    56ac:	4698      	mov	r8, r3
    56ae:	3301      	adds	r3, #1
    56b0:	2704      	movs	r7, #4
    56b2:	9301      	str	r3, [sp, #4]
    56b4:	e74c      	b.n	5550 <__aeabi_dmul+0x4c>
    56b6:	2303      	movs	r3, #3
    56b8:	270c      	movs	r7, #12
    56ba:	9301      	str	r3, [sp, #4]
    56bc:	e748      	b.n	5550 <__aeabi_dmul+0x4c>
    56be:	2300      	movs	r3, #0
    56c0:	2580      	movs	r5, #128	; 0x80
    56c2:	4698      	mov	r8, r3
    56c4:	2400      	movs	r4, #0
    56c6:	032d      	lsls	r5, r5, #12
    56c8:	4b05      	ldr	r3, [pc, #20]	; (56e0 <__aeabi_dmul+0x1dc>)
    56ca:	e781      	b.n	55d0 <__aeabi_dmul+0xcc>
    56cc:	465d      	mov	r5, fp
    56ce:	4643      	mov	r3, r8
    56d0:	9a01      	ldr	r2, [sp, #4]
    56d2:	e76f      	b.n	55b4 <__aeabi_dmul+0xb0>
    56d4:	465d      	mov	r5, fp
    56d6:	4643      	mov	r3, r8
    56d8:	0021      	movs	r1, r4
    56da:	9a01      	ldr	r2, [sp, #4]
    56dc:	e76a      	b.n	55b4 <__aeabi_dmul+0xb0>
    56de:	46c0      	nop			; (mov r8, r8)
    56e0:	000007ff 	.word	0x000007ff
    56e4:	fffffc01 	.word	0xfffffc01
    56e8:	00006550 	.word	0x00006550
    56ec:	800fffff 	.word	0x800fffff
    56f0:	000003f3 	.word	0x000003f3
    56f4:	4642      	mov	r2, r8
    56f6:	0c12      	lsrs	r2, r2, #16
    56f8:	4691      	mov	r9, r2
    56fa:	0c1a      	lsrs	r2, r3, #16
    56fc:	4694      	mov	ip, r2
    56fe:	4642      	mov	r2, r8
    5700:	0417      	lsls	r7, r2, #16
    5702:	464a      	mov	r2, r9
    5704:	041b      	lsls	r3, r3, #16
    5706:	0c1b      	lsrs	r3, r3, #16
    5708:	435a      	muls	r2, r3
    570a:	4660      	mov	r0, ip
    570c:	4690      	mov	r8, r2
    570e:	464a      	mov	r2, r9
    5710:	4342      	muls	r2, r0
    5712:	0010      	movs	r0, r2
    5714:	9203      	str	r2, [sp, #12]
    5716:	4662      	mov	r2, ip
    5718:	001c      	movs	r4, r3
    571a:	0c3f      	lsrs	r7, r7, #16
    571c:	437a      	muls	r2, r7
    571e:	437c      	muls	r4, r7
    5720:	4442      	add	r2, r8
    5722:	9201      	str	r2, [sp, #4]
    5724:	0c22      	lsrs	r2, r4, #16
    5726:	4692      	mov	sl, r2
    5728:	9a01      	ldr	r2, [sp, #4]
    572a:	4452      	add	r2, sl
    572c:	4590      	cmp	r8, r2
    572e:	d906      	bls.n	573e <__aeabi_dmul+0x23a>
    5730:	4682      	mov	sl, r0
    5732:	2080      	movs	r0, #128	; 0x80
    5734:	0240      	lsls	r0, r0, #9
    5736:	4680      	mov	r8, r0
    5738:	44c2      	add	sl, r8
    573a:	4650      	mov	r0, sl
    573c:	9003      	str	r0, [sp, #12]
    573e:	0c10      	lsrs	r0, r2, #16
    5740:	9004      	str	r0, [sp, #16]
    5742:	4648      	mov	r0, r9
    5744:	0424      	lsls	r4, r4, #16
    5746:	0c24      	lsrs	r4, r4, #16
    5748:	0412      	lsls	r2, r2, #16
    574a:	1912      	adds	r2, r2, r4
    574c:	9205      	str	r2, [sp, #20]
    574e:	0c2a      	lsrs	r2, r5, #16
    5750:	042d      	lsls	r5, r5, #16
    5752:	0c2d      	lsrs	r5, r5, #16
    5754:	4368      	muls	r0, r5
    5756:	002c      	movs	r4, r5
    5758:	4682      	mov	sl, r0
    575a:	4648      	mov	r0, r9
    575c:	437c      	muls	r4, r7
    575e:	4350      	muls	r0, r2
    5760:	4681      	mov	r9, r0
    5762:	0c20      	lsrs	r0, r4, #16
    5764:	4680      	mov	r8, r0
    5766:	4357      	muls	r7, r2
    5768:	4457      	add	r7, sl
    576a:	4447      	add	r7, r8
    576c:	45ba      	cmp	sl, r7
    576e:	d903      	bls.n	5778 <__aeabi_dmul+0x274>
    5770:	2080      	movs	r0, #128	; 0x80
    5772:	0240      	lsls	r0, r0, #9
    5774:	4680      	mov	r8, r0
    5776:	44c1      	add	r9, r8
    5778:	0c38      	lsrs	r0, r7, #16
    577a:	043f      	lsls	r7, r7, #16
    577c:	46b8      	mov	r8, r7
    577e:	4448      	add	r0, r9
    5780:	0424      	lsls	r4, r4, #16
    5782:	0c24      	lsrs	r4, r4, #16
    5784:	9001      	str	r0, [sp, #4]
    5786:	9804      	ldr	r0, [sp, #16]
    5788:	44a0      	add	r8, r4
    578a:	4440      	add	r0, r8
    578c:	9004      	str	r0, [sp, #16]
    578e:	4658      	mov	r0, fp
    5790:	0c00      	lsrs	r0, r0, #16
    5792:	4681      	mov	r9, r0
    5794:	4658      	mov	r0, fp
    5796:	0404      	lsls	r4, r0, #16
    5798:	0c20      	lsrs	r0, r4, #16
    579a:	4682      	mov	sl, r0
    579c:	0007      	movs	r7, r0
    579e:	4648      	mov	r0, r9
    57a0:	435f      	muls	r7, r3
    57a2:	464c      	mov	r4, r9
    57a4:	4343      	muls	r3, r0
    57a6:	4660      	mov	r0, ip
    57a8:	4360      	muls	r0, r4
    57aa:	4664      	mov	r4, ip
    57ac:	4683      	mov	fp, r0
    57ae:	4650      	mov	r0, sl
    57b0:	4344      	muls	r4, r0
    57b2:	0c38      	lsrs	r0, r7, #16
    57b4:	4684      	mov	ip, r0
    57b6:	18e4      	adds	r4, r4, r3
    57b8:	4464      	add	r4, ip
    57ba:	42a3      	cmp	r3, r4
    57bc:	d903      	bls.n	57c6 <__aeabi_dmul+0x2c2>
    57be:	2380      	movs	r3, #128	; 0x80
    57c0:	025b      	lsls	r3, r3, #9
    57c2:	469c      	mov	ip, r3
    57c4:	44e3      	add	fp, ip
    57c6:	4648      	mov	r0, r9
    57c8:	043f      	lsls	r7, r7, #16
    57ca:	0c23      	lsrs	r3, r4, #16
    57cc:	0c3f      	lsrs	r7, r7, #16
    57ce:	0424      	lsls	r4, r4, #16
    57d0:	19e4      	adds	r4, r4, r7
    57d2:	4657      	mov	r7, sl
    57d4:	4368      	muls	r0, r5
    57d6:	436f      	muls	r7, r5
    57d8:	4684      	mov	ip, r0
    57da:	464d      	mov	r5, r9
    57dc:	4650      	mov	r0, sl
    57de:	4355      	muls	r5, r2
    57e0:	4342      	muls	r2, r0
    57e2:	0c38      	lsrs	r0, r7, #16
    57e4:	4681      	mov	r9, r0
    57e6:	4462      	add	r2, ip
    57e8:	444a      	add	r2, r9
    57ea:	445b      	add	r3, fp
    57ec:	4594      	cmp	ip, r2
    57ee:	d903      	bls.n	57f8 <__aeabi_dmul+0x2f4>
    57f0:	2080      	movs	r0, #128	; 0x80
    57f2:	0240      	lsls	r0, r0, #9
    57f4:	4684      	mov	ip, r0
    57f6:	4465      	add	r5, ip
    57f8:	9803      	ldr	r0, [sp, #12]
    57fa:	043f      	lsls	r7, r7, #16
    57fc:	4683      	mov	fp, r0
    57fe:	9804      	ldr	r0, [sp, #16]
    5800:	0c3f      	lsrs	r7, r7, #16
    5802:	4684      	mov	ip, r0
    5804:	44e3      	add	fp, ip
    5806:	45c3      	cmp	fp, r8
    5808:	4180      	sbcs	r0, r0
    580a:	4240      	negs	r0, r0
    580c:	4682      	mov	sl, r0
    580e:	0410      	lsls	r0, r2, #16
    5810:	4684      	mov	ip, r0
    5812:	9801      	ldr	r0, [sp, #4]
    5814:	4467      	add	r7, ip
    5816:	4684      	mov	ip, r0
    5818:	4467      	add	r7, ip
    581a:	44a3      	add	fp, r4
    581c:	46bc      	mov	ip, r7
    581e:	45a3      	cmp	fp, r4
    5820:	41a4      	sbcs	r4, r4
    5822:	4699      	mov	r9, r3
    5824:	44d4      	add	ip, sl
    5826:	4264      	negs	r4, r4
    5828:	4287      	cmp	r7, r0
    582a:	41bf      	sbcs	r7, r7
    582c:	45d4      	cmp	ip, sl
    582e:	4180      	sbcs	r0, r0
    5830:	44e1      	add	r9, ip
    5832:	46a0      	mov	r8, r4
    5834:	4599      	cmp	r9, r3
    5836:	419b      	sbcs	r3, r3
    5838:	427f      	negs	r7, r7
    583a:	4240      	negs	r0, r0
    583c:	44c8      	add	r8, r9
    583e:	4307      	orrs	r7, r0
    5840:	0c12      	lsrs	r2, r2, #16
    5842:	18ba      	adds	r2, r7, r2
    5844:	45a0      	cmp	r8, r4
    5846:	41a4      	sbcs	r4, r4
    5848:	425f      	negs	r7, r3
    584a:	003b      	movs	r3, r7
    584c:	4264      	negs	r4, r4
    584e:	4323      	orrs	r3, r4
    5850:	18d7      	adds	r7, r2, r3
    5852:	4643      	mov	r3, r8
    5854:	197d      	adds	r5, r7, r5
    5856:	0ddb      	lsrs	r3, r3, #23
    5858:	026d      	lsls	r5, r5, #9
    585a:	431d      	orrs	r5, r3
    585c:	465b      	mov	r3, fp
    585e:	025a      	lsls	r2, r3, #9
    5860:	9b05      	ldr	r3, [sp, #20]
    5862:	431a      	orrs	r2, r3
    5864:	1e53      	subs	r3, r2, #1
    5866:	419a      	sbcs	r2, r3
    5868:	465b      	mov	r3, fp
    586a:	0ddb      	lsrs	r3, r3, #23
    586c:	431a      	orrs	r2, r3
    586e:	4643      	mov	r3, r8
    5870:	025b      	lsls	r3, r3, #9
    5872:	4313      	orrs	r3, r2
    5874:	01ea      	lsls	r2, r5, #7
    5876:	d507      	bpl.n	5888 <__aeabi_dmul+0x384>
    5878:	2201      	movs	r2, #1
    587a:	085c      	lsrs	r4, r3, #1
    587c:	4013      	ands	r3, r2
    587e:	4323      	orrs	r3, r4
    5880:	07ea      	lsls	r2, r5, #31
    5882:	9e02      	ldr	r6, [sp, #8]
    5884:	4313      	orrs	r3, r2
    5886:	086d      	lsrs	r5, r5, #1
    5888:	4a57      	ldr	r2, [pc, #348]	; (59e8 <__aeabi_dmul+0x4e4>)
    588a:	18b2      	adds	r2, r6, r2
    588c:	2a00      	cmp	r2, #0
    588e:	dd4b      	ble.n	5928 <__aeabi_dmul+0x424>
    5890:	0758      	lsls	r0, r3, #29
    5892:	d009      	beq.n	58a8 <__aeabi_dmul+0x3a4>
    5894:	200f      	movs	r0, #15
    5896:	4018      	ands	r0, r3
    5898:	2804      	cmp	r0, #4
    589a:	d005      	beq.n	58a8 <__aeabi_dmul+0x3a4>
    589c:	1d18      	adds	r0, r3, #4
    589e:	4298      	cmp	r0, r3
    58a0:	419b      	sbcs	r3, r3
    58a2:	425b      	negs	r3, r3
    58a4:	18ed      	adds	r5, r5, r3
    58a6:	0003      	movs	r3, r0
    58a8:	01e8      	lsls	r0, r5, #7
    58aa:	d504      	bpl.n	58b6 <__aeabi_dmul+0x3b2>
    58ac:	4a4f      	ldr	r2, [pc, #316]	; (59ec <__aeabi_dmul+0x4e8>)
    58ae:	4015      	ands	r5, r2
    58b0:	2280      	movs	r2, #128	; 0x80
    58b2:	00d2      	lsls	r2, r2, #3
    58b4:	18b2      	adds	r2, r6, r2
    58b6:	484e      	ldr	r0, [pc, #312]	; (59f0 <__aeabi_dmul+0x4ec>)
    58b8:	4282      	cmp	r2, r0
    58ba:	dd00      	ble.n	58be <__aeabi_dmul+0x3ba>
    58bc:	e6e7      	b.n	568e <__aeabi_dmul+0x18a>
    58be:	2401      	movs	r4, #1
    58c0:	08db      	lsrs	r3, r3, #3
    58c2:	0768      	lsls	r0, r5, #29
    58c4:	4318      	orrs	r0, r3
    58c6:	026d      	lsls	r5, r5, #9
    58c8:	0553      	lsls	r3, r2, #21
    58ca:	4680      	mov	r8, r0
    58cc:	0b2d      	lsrs	r5, r5, #12
    58ce:	0d5b      	lsrs	r3, r3, #21
    58d0:	400c      	ands	r4, r1
    58d2:	e67d      	b.n	55d0 <__aeabi_dmul+0xcc>
    58d4:	2280      	movs	r2, #128	; 0x80
    58d6:	4659      	mov	r1, fp
    58d8:	0312      	lsls	r2, r2, #12
    58da:	4211      	tst	r1, r2
    58dc:	d008      	beq.n	58f0 <__aeabi_dmul+0x3ec>
    58de:	4215      	tst	r5, r2
    58e0:	d106      	bne.n	58f0 <__aeabi_dmul+0x3ec>
    58e2:	4315      	orrs	r5, r2
    58e4:	032d      	lsls	r5, r5, #12
    58e6:	4698      	mov	r8, r3
    58e8:	0b2d      	lsrs	r5, r5, #12
    58ea:	464c      	mov	r4, r9
    58ec:	4b41      	ldr	r3, [pc, #260]	; (59f4 <__aeabi_dmul+0x4f0>)
    58ee:	e66f      	b.n	55d0 <__aeabi_dmul+0xcc>
    58f0:	465d      	mov	r5, fp
    58f2:	4315      	orrs	r5, r2
    58f4:	032d      	lsls	r5, r5, #12
    58f6:	0b2d      	lsrs	r5, r5, #12
    58f8:	4b3e      	ldr	r3, [pc, #248]	; (59f4 <__aeabi_dmul+0x4f0>)
    58fa:	e669      	b.n	55d0 <__aeabi_dmul+0xcc>
    58fc:	0003      	movs	r3, r0
    58fe:	4655      	mov	r5, sl
    5900:	3b28      	subs	r3, #40	; 0x28
    5902:	409d      	lsls	r5, r3
    5904:	2300      	movs	r3, #0
    5906:	e6bc      	b.n	5682 <__aeabi_dmul+0x17e>
    5908:	4650      	mov	r0, sl
    590a:	f000 fd79 	bl	6400 <__clzsi2>
    590e:	3020      	adds	r0, #32
    5910:	e6a8      	b.n	5664 <__aeabi_dmul+0x160>
    5912:	0003      	movs	r3, r0
    5914:	3b28      	subs	r3, #40	; 0x28
    5916:	409f      	lsls	r7, r3
    5918:	2300      	movs	r3, #0
    591a:	46bb      	mov	fp, r7
    591c:	4698      	mov	r8, r3
    591e:	e689      	b.n	5634 <__aeabi_dmul+0x130>
    5920:	f000 fd6e 	bl	6400 <__clzsi2>
    5924:	3020      	adds	r0, #32
    5926:	e673      	b.n	5610 <__aeabi_dmul+0x10c>
    5928:	2401      	movs	r4, #1
    592a:	1aa6      	subs	r6, r4, r2
    592c:	2e38      	cmp	r6, #56	; 0x38
    592e:	dd07      	ble.n	5940 <__aeabi_dmul+0x43c>
    5930:	2200      	movs	r2, #0
    5932:	400c      	ands	r4, r1
    5934:	2300      	movs	r3, #0
    5936:	2500      	movs	r5, #0
    5938:	4690      	mov	r8, r2
    593a:	e649      	b.n	55d0 <__aeabi_dmul+0xcc>
    593c:	9e02      	ldr	r6, [sp, #8]
    593e:	e7a3      	b.n	5888 <__aeabi_dmul+0x384>
    5940:	2e1f      	cmp	r6, #31
    5942:	dc20      	bgt.n	5986 <__aeabi_dmul+0x482>
    5944:	2220      	movs	r2, #32
    5946:	002c      	movs	r4, r5
    5948:	0018      	movs	r0, r3
    594a:	1b92      	subs	r2, r2, r6
    594c:	40f0      	lsrs	r0, r6
    594e:	4094      	lsls	r4, r2
    5950:	4093      	lsls	r3, r2
    5952:	4304      	orrs	r4, r0
    5954:	1e58      	subs	r0, r3, #1
    5956:	4183      	sbcs	r3, r0
    5958:	431c      	orrs	r4, r3
    595a:	40f5      	lsrs	r5, r6
    595c:	0763      	lsls	r3, r4, #29
    595e:	d009      	beq.n	5974 <__aeabi_dmul+0x470>
    5960:	230f      	movs	r3, #15
    5962:	4023      	ands	r3, r4
    5964:	2b04      	cmp	r3, #4
    5966:	d005      	beq.n	5974 <__aeabi_dmul+0x470>
    5968:	0023      	movs	r3, r4
    596a:	1d1c      	adds	r4, r3, #4
    596c:	429c      	cmp	r4, r3
    596e:	4192      	sbcs	r2, r2
    5970:	4252      	negs	r2, r2
    5972:	18ad      	adds	r5, r5, r2
    5974:	022b      	lsls	r3, r5, #8
    5976:	d51f      	bpl.n	59b8 <__aeabi_dmul+0x4b4>
    5978:	2401      	movs	r4, #1
    597a:	2200      	movs	r2, #0
    597c:	400c      	ands	r4, r1
    597e:	2301      	movs	r3, #1
    5980:	2500      	movs	r5, #0
    5982:	4690      	mov	r8, r2
    5984:	e624      	b.n	55d0 <__aeabi_dmul+0xcc>
    5986:	201f      	movs	r0, #31
    5988:	002c      	movs	r4, r5
    598a:	4240      	negs	r0, r0
    598c:	1a82      	subs	r2, r0, r2
    598e:	40d4      	lsrs	r4, r2
    5990:	2e20      	cmp	r6, #32
    5992:	d01c      	beq.n	59ce <__aeabi_dmul+0x4ca>
    5994:	2240      	movs	r2, #64	; 0x40
    5996:	1b96      	subs	r6, r2, r6
    5998:	40b5      	lsls	r5, r6
    599a:	432b      	orrs	r3, r5
    599c:	1e58      	subs	r0, r3, #1
    599e:	4183      	sbcs	r3, r0
    59a0:	2007      	movs	r0, #7
    59a2:	4323      	orrs	r3, r4
    59a4:	4018      	ands	r0, r3
    59a6:	2500      	movs	r5, #0
    59a8:	2800      	cmp	r0, #0
    59aa:	d009      	beq.n	59c0 <__aeabi_dmul+0x4bc>
    59ac:	220f      	movs	r2, #15
    59ae:	2500      	movs	r5, #0
    59b0:	401a      	ands	r2, r3
    59b2:	001c      	movs	r4, r3
    59b4:	2a04      	cmp	r2, #4
    59b6:	d1d8      	bne.n	596a <__aeabi_dmul+0x466>
    59b8:	0023      	movs	r3, r4
    59ba:	0768      	lsls	r0, r5, #29
    59bc:	026d      	lsls	r5, r5, #9
    59be:	0b2d      	lsrs	r5, r5, #12
    59c0:	2401      	movs	r4, #1
    59c2:	08db      	lsrs	r3, r3, #3
    59c4:	4303      	orrs	r3, r0
    59c6:	4698      	mov	r8, r3
    59c8:	400c      	ands	r4, r1
    59ca:	2300      	movs	r3, #0
    59cc:	e600      	b.n	55d0 <__aeabi_dmul+0xcc>
    59ce:	2500      	movs	r5, #0
    59d0:	e7e3      	b.n	599a <__aeabi_dmul+0x496>
    59d2:	2280      	movs	r2, #128	; 0x80
    59d4:	2401      	movs	r4, #1
    59d6:	0312      	lsls	r2, r2, #12
    59d8:	4315      	orrs	r5, r2
    59da:	032d      	lsls	r5, r5, #12
    59dc:	4698      	mov	r8, r3
    59de:	0b2d      	lsrs	r5, r5, #12
    59e0:	400c      	ands	r4, r1
    59e2:	4b04      	ldr	r3, [pc, #16]	; (59f4 <__aeabi_dmul+0x4f0>)
    59e4:	e5f4      	b.n	55d0 <__aeabi_dmul+0xcc>
    59e6:	46c0      	nop			; (mov r8, r8)
    59e8:	000003ff 	.word	0x000003ff
    59ec:	feffffff 	.word	0xfeffffff
    59f0:	000007fe 	.word	0x000007fe
    59f4:	000007ff 	.word	0x000007ff

000059f8 <__aeabi_dsub>:
    59f8:	b5f0      	push	{r4, r5, r6, r7, lr}
    59fa:	4657      	mov	r7, sl
    59fc:	464e      	mov	r6, r9
    59fe:	4645      	mov	r5, r8
    5a00:	b4e0      	push	{r5, r6, r7}
    5a02:	000e      	movs	r6, r1
    5a04:	0011      	movs	r1, r2
    5a06:	0ff2      	lsrs	r2, r6, #31
    5a08:	4692      	mov	sl, r2
    5a0a:	00c5      	lsls	r5, r0, #3
    5a0c:	0f42      	lsrs	r2, r0, #29
    5a0e:	0318      	lsls	r0, r3, #12
    5a10:	0337      	lsls	r7, r6, #12
    5a12:	0074      	lsls	r4, r6, #1
    5a14:	0a40      	lsrs	r0, r0, #9
    5a16:	0f4e      	lsrs	r6, r1, #29
    5a18:	0a7f      	lsrs	r7, r7, #9
    5a1a:	4330      	orrs	r0, r6
    5a1c:	4ecf      	ldr	r6, [pc, #828]	; (5d5c <__aeabi_dsub+0x364>)
    5a1e:	4317      	orrs	r7, r2
    5a20:	005a      	lsls	r2, r3, #1
    5a22:	0d64      	lsrs	r4, r4, #21
    5a24:	0d52      	lsrs	r2, r2, #21
    5a26:	0fdb      	lsrs	r3, r3, #31
    5a28:	00c9      	lsls	r1, r1, #3
    5a2a:	42b2      	cmp	r2, r6
    5a2c:	d100      	bne.n	5a30 <__aeabi_dsub+0x38>
    5a2e:	e0e5      	b.n	5bfc <__aeabi_dsub+0x204>
    5a30:	2601      	movs	r6, #1
    5a32:	4073      	eors	r3, r6
    5a34:	1aa6      	subs	r6, r4, r2
    5a36:	46b4      	mov	ip, r6
    5a38:	4553      	cmp	r3, sl
    5a3a:	d100      	bne.n	5a3e <__aeabi_dsub+0x46>
    5a3c:	e0af      	b.n	5b9e <__aeabi_dsub+0x1a6>
    5a3e:	2e00      	cmp	r6, #0
    5a40:	dc00      	bgt.n	5a44 <__aeabi_dsub+0x4c>
    5a42:	e10d      	b.n	5c60 <__aeabi_dsub+0x268>
    5a44:	2a00      	cmp	r2, #0
    5a46:	d13a      	bne.n	5abe <__aeabi_dsub+0xc6>
    5a48:	0003      	movs	r3, r0
    5a4a:	430b      	orrs	r3, r1
    5a4c:	d000      	beq.n	5a50 <__aeabi_dsub+0x58>
    5a4e:	e0e4      	b.n	5c1a <__aeabi_dsub+0x222>
    5a50:	076b      	lsls	r3, r5, #29
    5a52:	d009      	beq.n	5a68 <__aeabi_dsub+0x70>
    5a54:	230f      	movs	r3, #15
    5a56:	402b      	ands	r3, r5
    5a58:	2b04      	cmp	r3, #4
    5a5a:	d005      	beq.n	5a68 <__aeabi_dsub+0x70>
    5a5c:	1d2b      	adds	r3, r5, #4
    5a5e:	42ab      	cmp	r3, r5
    5a60:	41ad      	sbcs	r5, r5
    5a62:	426d      	negs	r5, r5
    5a64:	197f      	adds	r7, r7, r5
    5a66:	001d      	movs	r5, r3
    5a68:	023b      	lsls	r3, r7, #8
    5a6a:	d400      	bmi.n	5a6e <__aeabi_dsub+0x76>
    5a6c:	e088      	b.n	5b80 <__aeabi_dsub+0x188>
    5a6e:	4bbb      	ldr	r3, [pc, #748]	; (5d5c <__aeabi_dsub+0x364>)
    5a70:	3401      	adds	r4, #1
    5a72:	429c      	cmp	r4, r3
    5a74:	d100      	bne.n	5a78 <__aeabi_dsub+0x80>
    5a76:	e110      	b.n	5c9a <__aeabi_dsub+0x2a2>
    5a78:	003a      	movs	r2, r7
    5a7a:	4bb9      	ldr	r3, [pc, #740]	; (5d60 <__aeabi_dsub+0x368>)
    5a7c:	4651      	mov	r1, sl
    5a7e:	401a      	ands	r2, r3
    5a80:	2301      	movs	r3, #1
    5a82:	0750      	lsls	r0, r2, #29
    5a84:	08ed      	lsrs	r5, r5, #3
    5a86:	0252      	lsls	r2, r2, #9
    5a88:	0564      	lsls	r4, r4, #21
    5a8a:	4305      	orrs	r5, r0
    5a8c:	0b12      	lsrs	r2, r2, #12
    5a8e:	0d64      	lsrs	r4, r4, #21
    5a90:	400b      	ands	r3, r1
    5a92:	2100      	movs	r1, #0
    5a94:	0028      	movs	r0, r5
    5a96:	0312      	lsls	r2, r2, #12
    5a98:	0d0d      	lsrs	r5, r1, #20
    5a9a:	0b12      	lsrs	r2, r2, #12
    5a9c:	0564      	lsls	r4, r4, #21
    5a9e:	052d      	lsls	r5, r5, #20
    5aa0:	4315      	orrs	r5, r2
    5aa2:	0862      	lsrs	r2, r4, #1
    5aa4:	4caf      	ldr	r4, [pc, #700]	; (5d64 <__aeabi_dsub+0x36c>)
    5aa6:	07db      	lsls	r3, r3, #31
    5aa8:	402c      	ands	r4, r5
    5aaa:	4314      	orrs	r4, r2
    5aac:	0064      	lsls	r4, r4, #1
    5aae:	0864      	lsrs	r4, r4, #1
    5ab0:	431c      	orrs	r4, r3
    5ab2:	0021      	movs	r1, r4
    5ab4:	bc1c      	pop	{r2, r3, r4}
    5ab6:	4690      	mov	r8, r2
    5ab8:	4699      	mov	r9, r3
    5aba:	46a2      	mov	sl, r4
    5abc:	bdf0      	pop	{r4, r5, r6, r7, pc}
    5abe:	4ba7      	ldr	r3, [pc, #668]	; (5d5c <__aeabi_dsub+0x364>)
    5ac0:	429c      	cmp	r4, r3
    5ac2:	d0c5      	beq.n	5a50 <__aeabi_dsub+0x58>
    5ac4:	2380      	movs	r3, #128	; 0x80
    5ac6:	041b      	lsls	r3, r3, #16
    5ac8:	4318      	orrs	r0, r3
    5aca:	4663      	mov	r3, ip
    5acc:	2b38      	cmp	r3, #56	; 0x38
    5ace:	dd00      	ble.n	5ad2 <__aeabi_dsub+0xda>
    5ad0:	e0fd      	b.n	5cce <__aeabi_dsub+0x2d6>
    5ad2:	2b1f      	cmp	r3, #31
    5ad4:	dd00      	ble.n	5ad8 <__aeabi_dsub+0xe0>
    5ad6:	e130      	b.n	5d3a <__aeabi_dsub+0x342>
    5ad8:	4662      	mov	r2, ip
    5ada:	2320      	movs	r3, #32
    5adc:	1a9b      	subs	r3, r3, r2
    5ade:	0002      	movs	r2, r0
    5ae0:	409a      	lsls	r2, r3
    5ae2:	4666      	mov	r6, ip
    5ae4:	4690      	mov	r8, r2
    5ae6:	000a      	movs	r2, r1
    5ae8:	4099      	lsls	r1, r3
    5aea:	40f2      	lsrs	r2, r6
    5aec:	4646      	mov	r6, r8
    5aee:	1e4b      	subs	r3, r1, #1
    5af0:	4199      	sbcs	r1, r3
    5af2:	4332      	orrs	r2, r6
    5af4:	4311      	orrs	r1, r2
    5af6:	4663      	mov	r3, ip
    5af8:	0002      	movs	r2, r0
    5afa:	40da      	lsrs	r2, r3
    5afc:	1a69      	subs	r1, r5, r1
    5afe:	428d      	cmp	r5, r1
    5b00:	419b      	sbcs	r3, r3
    5b02:	000d      	movs	r5, r1
    5b04:	1aba      	subs	r2, r7, r2
    5b06:	425b      	negs	r3, r3
    5b08:	1ad7      	subs	r7, r2, r3
    5b0a:	023b      	lsls	r3, r7, #8
    5b0c:	d535      	bpl.n	5b7a <__aeabi_dsub+0x182>
    5b0e:	027a      	lsls	r2, r7, #9
    5b10:	0a53      	lsrs	r3, r2, #9
    5b12:	4698      	mov	r8, r3
    5b14:	4643      	mov	r3, r8
    5b16:	2b00      	cmp	r3, #0
    5b18:	d100      	bne.n	5b1c <__aeabi_dsub+0x124>
    5b1a:	e0c4      	b.n	5ca6 <__aeabi_dsub+0x2ae>
    5b1c:	4640      	mov	r0, r8
    5b1e:	f000 fc6f 	bl	6400 <__clzsi2>
    5b22:	0003      	movs	r3, r0
    5b24:	3b08      	subs	r3, #8
    5b26:	2b1f      	cmp	r3, #31
    5b28:	dd00      	ble.n	5b2c <__aeabi_dsub+0x134>
    5b2a:	e0c5      	b.n	5cb8 <__aeabi_dsub+0x2c0>
    5b2c:	2220      	movs	r2, #32
    5b2e:	0029      	movs	r1, r5
    5b30:	1ad2      	subs	r2, r2, r3
    5b32:	4647      	mov	r7, r8
    5b34:	40d1      	lsrs	r1, r2
    5b36:	409f      	lsls	r7, r3
    5b38:	000a      	movs	r2, r1
    5b3a:	409d      	lsls	r5, r3
    5b3c:	433a      	orrs	r2, r7
    5b3e:	429c      	cmp	r4, r3
    5b40:	dd00      	ble.n	5b44 <__aeabi_dsub+0x14c>
    5b42:	e0c0      	b.n	5cc6 <__aeabi_dsub+0x2ce>
    5b44:	1b1c      	subs	r4, r3, r4
    5b46:	1c63      	adds	r3, r4, #1
    5b48:	2b1f      	cmp	r3, #31
    5b4a:	dd00      	ble.n	5b4e <__aeabi_dsub+0x156>
    5b4c:	e0e4      	b.n	5d18 <__aeabi_dsub+0x320>
    5b4e:	2120      	movs	r1, #32
    5b50:	0014      	movs	r4, r2
    5b52:	0028      	movs	r0, r5
    5b54:	1ac9      	subs	r1, r1, r3
    5b56:	40d8      	lsrs	r0, r3
    5b58:	408c      	lsls	r4, r1
    5b5a:	408d      	lsls	r5, r1
    5b5c:	4304      	orrs	r4, r0
    5b5e:	40da      	lsrs	r2, r3
    5b60:	1e68      	subs	r0, r5, #1
    5b62:	4185      	sbcs	r5, r0
    5b64:	0017      	movs	r7, r2
    5b66:	4325      	orrs	r5, r4
    5b68:	2400      	movs	r4, #0
    5b6a:	e771      	b.n	5a50 <__aeabi_dsub+0x58>
    5b6c:	4642      	mov	r2, r8
    5b6e:	4663      	mov	r3, ip
    5b70:	431a      	orrs	r2, r3
    5b72:	d100      	bne.n	5b76 <__aeabi_dsub+0x17e>
    5b74:	e24c      	b.n	6010 <__aeabi_dsub+0x618>
    5b76:	4667      	mov	r7, ip
    5b78:	4645      	mov	r5, r8
    5b7a:	076b      	lsls	r3, r5, #29
    5b7c:	d000      	beq.n	5b80 <__aeabi_dsub+0x188>
    5b7e:	e769      	b.n	5a54 <__aeabi_dsub+0x5c>
    5b80:	2301      	movs	r3, #1
    5b82:	4651      	mov	r1, sl
    5b84:	0778      	lsls	r0, r7, #29
    5b86:	08ed      	lsrs	r5, r5, #3
    5b88:	08fa      	lsrs	r2, r7, #3
    5b8a:	400b      	ands	r3, r1
    5b8c:	4305      	orrs	r5, r0
    5b8e:	4973      	ldr	r1, [pc, #460]	; (5d5c <__aeabi_dsub+0x364>)
    5b90:	428c      	cmp	r4, r1
    5b92:	d038      	beq.n	5c06 <__aeabi_dsub+0x20e>
    5b94:	0312      	lsls	r2, r2, #12
    5b96:	0564      	lsls	r4, r4, #21
    5b98:	0b12      	lsrs	r2, r2, #12
    5b9a:	0d64      	lsrs	r4, r4, #21
    5b9c:	e779      	b.n	5a92 <__aeabi_dsub+0x9a>
    5b9e:	2e00      	cmp	r6, #0
    5ba0:	dc00      	bgt.n	5ba4 <__aeabi_dsub+0x1ac>
    5ba2:	e09a      	b.n	5cda <__aeabi_dsub+0x2e2>
    5ba4:	2a00      	cmp	r2, #0
    5ba6:	d047      	beq.n	5c38 <__aeabi_dsub+0x240>
    5ba8:	4a6c      	ldr	r2, [pc, #432]	; (5d5c <__aeabi_dsub+0x364>)
    5baa:	4294      	cmp	r4, r2
    5bac:	d100      	bne.n	5bb0 <__aeabi_dsub+0x1b8>
    5bae:	e74f      	b.n	5a50 <__aeabi_dsub+0x58>
    5bb0:	2280      	movs	r2, #128	; 0x80
    5bb2:	0412      	lsls	r2, r2, #16
    5bb4:	4310      	orrs	r0, r2
    5bb6:	4662      	mov	r2, ip
    5bb8:	2a38      	cmp	r2, #56	; 0x38
    5bba:	dc00      	bgt.n	5bbe <__aeabi_dsub+0x1c6>
    5bbc:	e108      	b.n	5dd0 <__aeabi_dsub+0x3d8>
    5bbe:	4301      	orrs	r1, r0
    5bc0:	1e48      	subs	r0, r1, #1
    5bc2:	4181      	sbcs	r1, r0
    5bc4:	2200      	movs	r2, #0
    5bc6:	b2c9      	uxtb	r1, r1
    5bc8:	1949      	adds	r1, r1, r5
    5bca:	19d2      	adds	r2, r2, r7
    5bcc:	42a9      	cmp	r1, r5
    5bce:	41bf      	sbcs	r7, r7
    5bd0:	000d      	movs	r5, r1
    5bd2:	427f      	negs	r7, r7
    5bd4:	18bf      	adds	r7, r7, r2
    5bd6:	023a      	lsls	r2, r7, #8
    5bd8:	d400      	bmi.n	5bdc <__aeabi_dsub+0x1e4>
    5bda:	e142      	b.n	5e62 <__aeabi_dsub+0x46a>
    5bdc:	4a5f      	ldr	r2, [pc, #380]	; (5d5c <__aeabi_dsub+0x364>)
    5bde:	3401      	adds	r4, #1
    5be0:	4294      	cmp	r4, r2
    5be2:	d100      	bne.n	5be6 <__aeabi_dsub+0x1ee>
    5be4:	e14e      	b.n	5e84 <__aeabi_dsub+0x48c>
    5be6:	2001      	movs	r0, #1
    5be8:	4a5d      	ldr	r2, [pc, #372]	; (5d60 <__aeabi_dsub+0x368>)
    5bea:	0869      	lsrs	r1, r5, #1
    5bec:	403a      	ands	r2, r7
    5bee:	4028      	ands	r0, r5
    5bf0:	4308      	orrs	r0, r1
    5bf2:	07d5      	lsls	r5, r2, #31
    5bf4:	4305      	orrs	r5, r0
    5bf6:	0857      	lsrs	r7, r2, #1
    5bf8:	469a      	mov	sl, r3
    5bfa:	e729      	b.n	5a50 <__aeabi_dsub+0x58>
    5bfc:	0006      	movs	r6, r0
    5bfe:	430e      	orrs	r6, r1
    5c00:	d000      	beq.n	5c04 <__aeabi_dsub+0x20c>
    5c02:	e717      	b.n	5a34 <__aeabi_dsub+0x3c>
    5c04:	e714      	b.n	5a30 <__aeabi_dsub+0x38>
    5c06:	0029      	movs	r1, r5
    5c08:	4311      	orrs	r1, r2
    5c0a:	d100      	bne.n	5c0e <__aeabi_dsub+0x216>
    5c0c:	e1f9      	b.n	6002 <__aeabi_dsub+0x60a>
    5c0e:	2180      	movs	r1, #128	; 0x80
    5c10:	0309      	lsls	r1, r1, #12
    5c12:	430a      	orrs	r2, r1
    5c14:	0312      	lsls	r2, r2, #12
    5c16:	0b12      	lsrs	r2, r2, #12
    5c18:	e73b      	b.n	5a92 <__aeabi_dsub+0x9a>
    5c1a:	2301      	movs	r3, #1
    5c1c:	425b      	negs	r3, r3
    5c1e:	4698      	mov	r8, r3
    5c20:	44c4      	add	ip, r8
    5c22:	4663      	mov	r3, ip
    5c24:	2b00      	cmp	r3, #0
    5c26:	d172      	bne.n	5d0e <__aeabi_dsub+0x316>
    5c28:	1a69      	subs	r1, r5, r1
    5c2a:	428d      	cmp	r5, r1
    5c2c:	419b      	sbcs	r3, r3
    5c2e:	1a3f      	subs	r7, r7, r0
    5c30:	425b      	negs	r3, r3
    5c32:	1aff      	subs	r7, r7, r3
    5c34:	000d      	movs	r5, r1
    5c36:	e768      	b.n	5b0a <__aeabi_dsub+0x112>
    5c38:	0002      	movs	r2, r0
    5c3a:	430a      	orrs	r2, r1
    5c3c:	d100      	bne.n	5c40 <__aeabi_dsub+0x248>
    5c3e:	e707      	b.n	5a50 <__aeabi_dsub+0x58>
    5c40:	2201      	movs	r2, #1
    5c42:	4252      	negs	r2, r2
    5c44:	4690      	mov	r8, r2
    5c46:	44c4      	add	ip, r8
    5c48:	4662      	mov	r2, ip
    5c4a:	2a00      	cmp	r2, #0
    5c4c:	d000      	beq.n	5c50 <__aeabi_dsub+0x258>
    5c4e:	e0e6      	b.n	5e1e <__aeabi_dsub+0x426>
    5c50:	1869      	adds	r1, r5, r1
    5c52:	42a9      	cmp	r1, r5
    5c54:	41b6      	sbcs	r6, r6
    5c56:	183f      	adds	r7, r7, r0
    5c58:	4276      	negs	r6, r6
    5c5a:	19f7      	adds	r7, r6, r7
    5c5c:	000d      	movs	r5, r1
    5c5e:	e7ba      	b.n	5bd6 <__aeabi_dsub+0x1de>
    5c60:	2e00      	cmp	r6, #0
    5c62:	d000      	beq.n	5c66 <__aeabi_dsub+0x26e>
    5c64:	e080      	b.n	5d68 <__aeabi_dsub+0x370>
    5c66:	1c62      	adds	r2, r4, #1
    5c68:	0552      	lsls	r2, r2, #21
    5c6a:	0d52      	lsrs	r2, r2, #21
    5c6c:	2a01      	cmp	r2, #1
    5c6e:	dc00      	bgt.n	5c72 <__aeabi_dsub+0x27a>
    5c70:	e0f9      	b.n	5e66 <__aeabi_dsub+0x46e>
    5c72:	1a6a      	subs	r2, r5, r1
    5c74:	4691      	mov	r9, r2
    5c76:	454d      	cmp	r5, r9
    5c78:	41b6      	sbcs	r6, r6
    5c7a:	1a3a      	subs	r2, r7, r0
    5c7c:	4276      	negs	r6, r6
    5c7e:	1b92      	subs	r2, r2, r6
    5c80:	4690      	mov	r8, r2
    5c82:	0212      	lsls	r2, r2, #8
    5c84:	d400      	bmi.n	5c88 <__aeabi_dsub+0x290>
    5c86:	e099      	b.n	5dbc <__aeabi_dsub+0x3c4>
    5c88:	1b4d      	subs	r5, r1, r5
    5c8a:	42a9      	cmp	r1, r5
    5c8c:	4189      	sbcs	r1, r1
    5c8e:	1bc7      	subs	r7, r0, r7
    5c90:	4249      	negs	r1, r1
    5c92:	1a7a      	subs	r2, r7, r1
    5c94:	4690      	mov	r8, r2
    5c96:	469a      	mov	sl, r3
    5c98:	e73c      	b.n	5b14 <__aeabi_dsub+0x11c>
    5c9a:	4652      	mov	r2, sl
    5c9c:	2301      	movs	r3, #1
    5c9e:	2500      	movs	r5, #0
    5ca0:	4013      	ands	r3, r2
    5ca2:	2200      	movs	r2, #0
    5ca4:	e6f5      	b.n	5a92 <__aeabi_dsub+0x9a>
    5ca6:	0028      	movs	r0, r5
    5ca8:	f000 fbaa 	bl	6400 <__clzsi2>
    5cac:	3020      	adds	r0, #32
    5cae:	0003      	movs	r3, r0
    5cb0:	3b08      	subs	r3, #8
    5cb2:	2b1f      	cmp	r3, #31
    5cb4:	dc00      	bgt.n	5cb8 <__aeabi_dsub+0x2c0>
    5cb6:	e739      	b.n	5b2c <__aeabi_dsub+0x134>
    5cb8:	002a      	movs	r2, r5
    5cba:	3828      	subs	r0, #40	; 0x28
    5cbc:	4082      	lsls	r2, r0
    5cbe:	2500      	movs	r5, #0
    5cc0:	429c      	cmp	r4, r3
    5cc2:	dc00      	bgt.n	5cc6 <__aeabi_dsub+0x2ce>
    5cc4:	e73e      	b.n	5b44 <__aeabi_dsub+0x14c>
    5cc6:	4f26      	ldr	r7, [pc, #152]	; (5d60 <__aeabi_dsub+0x368>)
    5cc8:	1ae4      	subs	r4, r4, r3
    5cca:	4017      	ands	r7, r2
    5ccc:	e6c0      	b.n	5a50 <__aeabi_dsub+0x58>
    5cce:	4301      	orrs	r1, r0
    5cd0:	1e48      	subs	r0, r1, #1
    5cd2:	4181      	sbcs	r1, r0
    5cd4:	2200      	movs	r2, #0
    5cd6:	b2c9      	uxtb	r1, r1
    5cd8:	e710      	b.n	5afc <__aeabi_dsub+0x104>
    5cda:	2e00      	cmp	r6, #0
    5cdc:	d000      	beq.n	5ce0 <__aeabi_dsub+0x2e8>
    5cde:	e0f1      	b.n	5ec4 <__aeabi_dsub+0x4cc>
    5ce0:	1c62      	adds	r2, r4, #1
    5ce2:	4694      	mov	ip, r2
    5ce4:	0552      	lsls	r2, r2, #21
    5ce6:	0d52      	lsrs	r2, r2, #21
    5ce8:	2a01      	cmp	r2, #1
    5cea:	dc00      	bgt.n	5cee <__aeabi_dsub+0x2f6>
    5cec:	e0a0      	b.n	5e30 <__aeabi_dsub+0x438>
    5cee:	4a1b      	ldr	r2, [pc, #108]	; (5d5c <__aeabi_dsub+0x364>)
    5cf0:	4594      	cmp	ip, r2
    5cf2:	d100      	bne.n	5cf6 <__aeabi_dsub+0x2fe>
    5cf4:	e0c5      	b.n	5e82 <__aeabi_dsub+0x48a>
    5cf6:	1869      	adds	r1, r5, r1
    5cf8:	42a9      	cmp	r1, r5
    5cfa:	4192      	sbcs	r2, r2
    5cfc:	183f      	adds	r7, r7, r0
    5cfe:	4252      	negs	r2, r2
    5d00:	19d2      	adds	r2, r2, r7
    5d02:	0849      	lsrs	r1, r1, #1
    5d04:	07d5      	lsls	r5, r2, #31
    5d06:	430d      	orrs	r5, r1
    5d08:	0857      	lsrs	r7, r2, #1
    5d0a:	4664      	mov	r4, ip
    5d0c:	e6a0      	b.n	5a50 <__aeabi_dsub+0x58>
    5d0e:	4b13      	ldr	r3, [pc, #76]	; (5d5c <__aeabi_dsub+0x364>)
    5d10:	429c      	cmp	r4, r3
    5d12:	d000      	beq.n	5d16 <__aeabi_dsub+0x31e>
    5d14:	e6d9      	b.n	5aca <__aeabi_dsub+0xd2>
    5d16:	e69b      	b.n	5a50 <__aeabi_dsub+0x58>
    5d18:	0011      	movs	r1, r2
    5d1a:	3c1f      	subs	r4, #31
    5d1c:	40e1      	lsrs	r1, r4
    5d1e:	000c      	movs	r4, r1
    5d20:	2b20      	cmp	r3, #32
    5d22:	d100      	bne.n	5d26 <__aeabi_dsub+0x32e>
    5d24:	e080      	b.n	5e28 <__aeabi_dsub+0x430>
    5d26:	2140      	movs	r1, #64	; 0x40
    5d28:	1acb      	subs	r3, r1, r3
    5d2a:	409a      	lsls	r2, r3
    5d2c:	4315      	orrs	r5, r2
    5d2e:	1e6a      	subs	r2, r5, #1
    5d30:	4195      	sbcs	r5, r2
    5d32:	2700      	movs	r7, #0
    5d34:	4325      	orrs	r5, r4
    5d36:	2400      	movs	r4, #0
    5d38:	e71f      	b.n	5b7a <__aeabi_dsub+0x182>
    5d3a:	4663      	mov	r3, ip
    5d3c:	0002      	movs	r2, r0
    5d3e:	3b20      	subs	r3, #32
    5d40:	40da      	lsrs	r2, r3
    5d42:	4663      	mov	r3, ip
    5d44:	2b20      	cmp	r3, #32
    5d46:	d071      	beq.n	5e2c <__aeabi_dsub+0x434>
    5d48:	2340      	movs	r3, #64	; 0x40
    5d4a:	4666      	mov	r6, ip
    5d4c:	1b9b      	subs	r3, r3, r6
    5d4e:	4098      	lsls	r0, r3
    5d50:	4301      	orrs	r1, r0
    5d52:	1e48      	subs	r0, r1, #1
    5d54:	4181      	sbcs	r1, r0
    5d56:	4311      	orrs	r1, r2
    5d58:	2200      	movs	r2, #0
    5d5a:	e6cf      	b.n	5afc <__aeabi_dsub+0x104>
    5d5c:	000007ff 	.word	0x000007ff
    5d60:	ff7fffff 	.word	0xff7fffff
    5d64:	800fffff 	.word	0x800fffff
    5d68:	2c00      	cmp	r4, #0
    5d6a:	d048      	beq.n	5dfe <__aeabi_dsub+0x406>
    5d6c:	4cca      	ldr	r4, [pc, #808]	; (6098 <__aeabi_dsub+0x6a0>)
    5d6e:	42a2      	cmp	r2, r4
    5d70:	d100      	bne.n	5d74 <__aeabi_dsub+0x37c>
    5d72:	e0a2      	b.n	5eba <__aeabi_dsub+0x4c2>
    5d74:	4274      	negs	r4, r6
    5d76:	46a1      	mov	r9, r4
    5d78:	2480      	movs	r4, #128	; 0x80
    5d7a:	0424      	lsls	r4, r4, #16
    5d7c:	4327      	orrs	r7, r4
    5d7e:	464c      	mov	r4, r9
    5d80:	2c38      	cmp	r4, #56	; 0x38
    5d82:	dd00      	ble.n	5d86 <__aeabi_dsub+0x38e>
    5d84:	e0db      	b.n	5f3e <__aeabi_dsub+0x546>
    5d86:	2c1f      	cmp	r4, #31
    5d88:	dd00      	ble.n	5d8c <__aeabi_dsub+0x394>
    5d8a:	e144      	b.n	6016 <__aeabi_dsub+0x61e>
    5d8c:	464e      	mov	r6, r9
    5d8e:	2420      	movs	r4, #32
    5d90:	1ba4      	subs	r4, r4, r6
    5d92:	003e      	movs	r6, r7
    5d94:	40a6      	lsls	r6, r4
    5d96:	46a2      	mov	sl, r4
    5d98:	46b0      	mov	r8, r6
    5d9a:	464c      	mov	r4, r9
    5d9c:	002e      	movs	r6, r5
    5d9e:	40e6      	lsrs	r6, r4
    5da0:	46b4      	mov	ip, r6
    5da2:	4646      	mov	r6, r8
    5da4:	4664      	mov	r4, ip
    5da6:	4326      	orrs	r6, r4
    5da8:	4654      	mov	r4, sl
    5daa:	40a5      	lsls	r5, r4
    5dac:	1e6c      	subs	r4, r5, #1
    5dae:	41a5      	sbcs	r5, r4
    5db0:	0034      	movs	r4, r6
    5db2:	432c      	orrs	r4, r5
    5db4:	464d      	mov	r5, r9
    5db6:	40ef      	lsrs	r7, r5
    5db8:	1b0d      	subs	r5, r1, r4
    5dba:	e028      	b.n	5e0e <__aeabi_dsub+0x416>
    5dbc:	464a      	mov	r2, r9
    5dbe:	4643      	mov	r3, r8
    5dc0:	464d      	mov	r5, r9
    5dc2:	431a      	orrs	r2, r3
    5dc4:	d000      	beq.n	5dc8 <__aeabi_dsub+0x3d0>
    5dc6:	e6a5      	b.n	5b14 <__aeabi_dsub+0x11c>
    5dc8:	2300      	movs	r3, #0
    5dca:	2400      	movs	r4, #0
    5dcc:	2500      	movs	r5, #0
    5dce:	e6de      	b.n	5b8e <__aeabi_dsub+0x196>
    5dd0:	2a1f      	cmp	r2, #31
    5dd2:	dc5a      	bgt.n	5e8a <__aeabi_dsub+0x492>
    5dd4:	4666      	mov	r6, ip
    5dd6:	2220      	movs	r2, #32
    5dd8:	1b92      	subs	r2, r2, r6
    5dda:	0006      	movs	r6, r0
    5ddc:	4096      	lsls	r6, r2
    5dde:	4691      	mov	r9, r2
    5de0:	46b0      	mov	r8, r6
    5de2:	4662      	mov	r2, ip
    5de4:	000e      	movs	r6, r1
    5de6:	40d6      	lsrs	r6, r2
    5de8:	4642      	mov	r2, r8
    5dea:	4316      	orrs	r6, r2
    5dec:	464a      	mov	r2, r9
    5dee:	4091      	lsls	r1, r2
    5df0:	1e4a      	subs	r2, r1, #1
    5df2:	4191      	sbcs	r1, r2
    5df4:	0002      	movs	r2, r0
    5df6:	4660      	mov	r0, ip
    5df8:	4331      	orrs	r1, r6
    5dfa:	40c2      	lsrs	r2, r0
    5dfc:	e6e4      	b.n	5bc8 <__aeabi_dsub+0x1d0>
    5dfe:	003c      	movs	r4, r7
    5e00:	432c      	orrs	r4, r5
    5e02:	d05a      	beq.n	5eba <__aeabi_dsub+0x4c2>
    5e04:	43f4      	mvns	r4, r6
    5e06:	46a1      	mov	r9, r4
    5e08:	2c00      	cmp	r4, #0
    5e0a:	d152      	bne.n	5eb2 <__aeabi_dsub+0x4ba>
    5e0c:	1b4d      	subs	r5, r1, r5
    5e0e:	42a9      	cmp	r1, r5
    5e10:	4189      	sbcs	r1, r1
    5e12:	1bc7      	subs	r7, r0, r7
    5e14:	4249      	negs	r1, r1
    5e16:	1a7f      	subs	r7, r7, r1
    5e18:	0014      	movs	r4, r2
    5e1a:	469a      	mov	sl, r3
    5e1c:	e675      	b.n	5b0a <__aeabi_dsub+0x112>
    5e1e:	4a9e      	ldr	r2, [pc, #632]	; (6098 <__aeabi_dsub+0x6a0>)
    5e20:	4294      	cmp	r4, r2
    5e22:	d000      	beq.n	5e26 <__aeabi_dsub+0x42e>
    5e24:	e6c7      	b.n	5bb6 <__aeabi_dsub+0x1be>
    5e26:	e613      	b.n	5a50 <__aeabi_dsub+0x58>
    5e28:	2200      	movs	r2, #0
    5e2a:	e77f      	b.n	5d2c <__aeabi_dsub+0x334>
    5e2c:	2000      	movs	r0, #0
    5e2e:	e78f      	b.n	5d50 <__aeabi_dsub+0x358>
    5e30:	2c00      	cmp	r4, #0
    5e32:	d000      	beq.n	5e36 <__aeabi_dsub+0x43e>
    5e34:	e0c8      	b.n	5fc8 <__aeabi_dsub+0x5d0>
    5e36:	003b      	movs	r3, r7
    5e38:	432b      	orrs	r3, r5
    5e3a:	d100      	bne.n	5e3e <__aeabi_dsub+0x446>
    5e3c:	e10f      	b.n	605e <__aeabi_dsub+0x666>
    5e3e:	0003      	movs	r3, r0
    5e40:	430b      	orrs	r3, r1
    5e42:	d100      	bne.n	5e46 <__aeabi_dsub+0x44e>
    5e44:	e604      	b.n	5a50 <__aeabi_dsub+0x58>
    5e46:	1869      	adds	r1, r5, r1
    5e48:	42a9      	cmp	r1, r5
    5e4a:	419b      	sbcs	r3, r3
    5e4c:	183f      	adds	r7, r7, r0
    5e4e:	425b      	negs	r3, r3
    5e50:	19df      	adds	r7, r3, r7
    5e52:	023b      	lsls	r3, r7, #8
    5e54:	d400      	bmi.n	5e58 <__aeabi_dsub+0x460>
    5e56:	e11a      	b.n	608e <__aeabi_dsub+0x696>
    5e58:	4b90      	ldr	r3, [pc, #576]	; (609c <__aeabi_dsub+0x6a4>)
    5e5a:	000d      	movs	r5, r1
    5e5c:	401f      	ands	r7, r3
    5e5e:	4664      	mov	r4, ip
    5e60:	e5f6      	b.n	5a50 <__aeabi_dsub+0x58>
    5e62:	469a      	mov	sl, r3
    5e64:	e689      	b.n	5b7a <__aeabi_dsub+0x182>
    5e66:	003a      	movs	r2, r7
    5e68:	432a      	orrs	r2, r5
    5e6a:	2c00      	cmp	r4, #0
    5e6c:	d15c      	bne.n	5f28 <__aeabi_dsub+0x530>
    5e6e:	2a00      	cmp	r2, #0
    5e70:	d175      	bne.n	5f5e <__aeabi_dsub+0x566>
    5e72:	0002      	movs	r2, r0
    5e74:	430a      	orrs	r2, r1
    5e76:	d100      	bne.n	5e7a <__aeabi_dsub+0x482>
    5e78:	e0ca      	b.n	6010 <__aeabi_dsub+0x618>
    5e7a:	0007      	movs	r7, r0
    5e7c:	000d      	movs	r5, r1
    5e7e:	469a      	mov	sl, r3
    5e80:	e5e6      	b.n	5a50 <__aeabi_dsub+0x58>
    5e82:	4664      	mov	r4, ip
    5e84:	2200      	movs	r2, #0
    5e86:	2500      	movs	r5, #0
    5e88:	e681      	b.n	5b8e <__aeabi_dsub+0x196>
    5e8a:	4662      	mov	r2, ip
    5e8c:	0006      	movs	r6, r0
    5e8e:	3a20      	subs	r2, #32
    5e90:	40d6      	lsrs	r6, r2
    5e92:	4662      	mov	r2, ip
    5e94:	46b0      	mov	r8, r6
    5e96:	2a20      	cmp	r2, #32
    5e98:	d100      	bne.n	5e9c <__aeabi_dsub+0x4a4>
    5e9a:	e0b7      	b.n	600c <__aeabi_dsub+0x614>
    5e9c:	2240      	movs	r2, #64	; 0x40
    5e9e:	4666      	mov	r6, ip
    5ea0:	1b92      	subs	r2, r2, r6
    5ea2:	4090      	lsls	r0, r2
    5ea4:	4301      	orrs	r1, r0
    5ea6:	4642      	mov	r2, r8
    5ea8:	1e48      	subs	r0, r1, #1
    5eaa:	4181      	sbcs	r1, r0
    5eac:	4311      	orrs	r1, r2
    5eae:	2200      	movs	r2, #0
    5eb0:	e68a      	b.n	5bc8 <__aeabi_dsub+0x1d0>
    5eb2:	4c79      	ldr	r4, [pc, #484]	; (6098 <__aeabi_dsub+0x6a0>)
    5eb4:	42a2      	cmp	r2, r4
    5eb6:	d000      	beq.n	5eba <__aeabi_dsub+0x4c2>
    5eb8:	e761      	b.n	5d7e <__aeabi_dsub+0x386>
    5eba:	0007      	movs	r7, r0
    5ebc:	000d      	movs	r5, r1
    5ebe:	0014      	movs	r4, r2
    5ec0:	469a      	mov	sl, r3
    5ec2:	e5c5      	b.n	5a50 <__aeabi_dsub+0x58>
    5ec4:	2c00      	cmp	r4, #0
    5ec6:	d141      	bne.n	5f4c <__aeabi_dsub+0x554>
    5ec8:	003c      	movs	r4, r7
    5eca:	432c      	orrs	r4, r5
    5ecc:	d078      	beq.n	5fc0 <__aeabi_dsub+0x5c8>
    5ece:	43f4      	mvns	r4, r6
    5ed0:	46a1      	mov	r9, r4
    5ed2:	2c00      	cmp	r4, #0
    5ed4:	d020      	beq.n	5f18 <__aeabi_dsub+0x520>
    5ed6:	4c70      	ldr	r4, [pc, #448]	; (6098 <__aeabi_dsub+0x6a0>)
    5ed8:	42a2      	cmp	r2, r4
    5eda:	d071      	beq.n	5fc0 <__aeabi_dsub+0x5c8>
    5edc:	464c      	mov	r4, r9
    5ede:	2c38      	cmp	r4, #56	; 0x38
    5ee0:	dd00      	ble.n	5ee4 <__aeabi_dsub+0x4ec>
    5ee2:	e0b2      	b.n	604a <__aeabi_dsub+0x652>
    5ee4:	2c1f      	cmp	r4, #31
    5ee6:	dd00      	ble.n	5eea <__aeabi_dsub+0x4f2>
    5ee8:	e0bc      	b.n	6064 <__aeabi_dsub+0x66c>
    5eea:	2620      	movs	r6, #32
    5eec:	1b34      	subs	r4, r6, r4
    5eee:	46a2      	mov	sl, r4
    5ef0:	003c      	movs	r4, r7
    5ef2:	4656      	mov	r6, sl
    5ef4:	40b4      	lsls	r4, r6
    5ef6:	464e      	mov	r6, r9
    5ef8:	46a0      	mov	r8, r4
    5efa:	002c      	movs	r4, r5
    5efc:	40f4      	lsrs	r4, r6
    5efe:	46a4      	mov	ip, r4
    5f00:	4644      	mov	r4, r8
    5f02:	4666      	mov	r6, ip
    5f04:	4334      	orrs	r4, r6
    5f06:	46a4      	mov	ip, r4
    5f08:	4654      	mov	r4, sl
    5f0a:	40a5      	lsls	r5, r4
    5f0c:	4664      	mov	r4, ip
    5f0e:	1e6e      	subs	r6, r5, #1
    5f10:	41b5      	sbcs	r5, r6
    5f12:	4325      	orrs	r5, r4
    5f14:	464c      	mov	r4, r9
    5f16:	40e7      	lsrs	r7, r4
    5f18:	186d      	adds	r5, r5, r1
    5f1a:	428d      	cmp	r5, r1
    5f1c:	4189      	sbcs	r1, r1
    5f1e:	183f      	adds	r7, r7, r0
    5f20:	4249      	negs	r1, r1
    5f22:	19cf      	adds	r7, r1, r7
    5f24:	0014      	movs	r4, r2
    5f26:	e656      	b.n	5bd6 <__aeabi_dsub+0x1de>
    5f28:	2a00      	cmp	r2, #0
    5f2a:	d12f      	bne.n	5f8c <__aeabi_dsub+0x594>
    5f2c:	0002      	movs	r2, r0
    5f2e:	430a      	orrs	r2, r1
    5f30:	d100      	bne.n	5f34 <__aeabi_dsub+0x53c>
    5f32:	e084      	b.n	603e <__aeabi_dsub+0x646>
    5f34:	0007      	movs	r7, r0
    5f36:	000d      	movs	r5, r1
    5f38:	469a      	mov	sl, r3
    5f3a:	4c57      	ldr	r4, [pc, #348]	; (6098 <__aeabi_dsub+0x6a0>)
    5f3c:	e588      	b.n	5a50 <__aeabi_dsub+0x58>
    5f3e:	433d      	orrs	r5, r7
    5f40:	1e6f      	subs	r7, r5, #1
    5f42:	41bd      	sbcs	r5, r7
    5f44:	b2ec      	uxtb	r4, r5
    5f46:	2700      	movs	r7, #0
    5f48:	1b0d      	subs	r5, r1, r4
    5f4a:	e760      	b.n	5e0e <__aeabi_dsub+0x416>
    5f4c:	4c52      	ldr	r4, [pc, #328]	; (6098 <__aeabi_dsub+0x6a0>)
    5f4e:	42a2      	cmp	r2, r4
    5f50:	d036      	beq.n	5fc0 <__aeabi_dsub+0x5c8>
    5f52:	4274      	negs	r4, r6
    5f54:	2680      	movs	r6, #128	; 0x80
    5f56:	0436      	lsls	r6, r6, #16
    5f58:	46a1      	mov	r9, r4
    5f5a:	4337      	orrs	r7, r6
    5f5c:	e7be      	b.n	5edc <__aeabi_dsub+0x4e4>
    5f5e:	0002      	movs	r2, r0
    5f60:	430a      	orrs	r2, r1
    5f62:	d100      	bne.n	5f66 <__aeabi_dsub+0x56e>
    5f64:	e574      	b.n	5a50 <__aeabi_dsub+0x58>
    5f66:	1a6a      	subs	r2, r5, r1
    5f68:	4690      	mov	r8, r2
    5f6a:	4545      	cmp	r5, r8
    5f6c:	41b6      	sbcs	r6, r6
    5f6e:	1a3a      	subs	r2, r7, r0
    5f70:	4276      	negs	r6, r6
    5f72:	1b92      	subs	r2, r2, r6
    5f74:	4694      	mov	ip, r2
    5f76:	0212      	lsls	r2, r2, #8
    5f78:	d400      	bmi.n	5f7c <__aeabi_dsub+0x584>
    5f7a:	e5f7      	b.n	5b6c <__aeabi_dsub+0x174>
    5f7c:	1b4d      	subs	r5, r1, r5
    5f7e:	42a9      	cmp	r1, r5
    5f80:	4189      	sbcs	r1, r1
    5f82:	1bc7      	subs	r7, r0, r7
    5f84:	4249      	negs	r1, r1
    5f86:	1a7f      	subs	r7, r7, r1
    5f88:	469a      	mov	sl, r3
    5f8a:	e561      	b.n	5a50 <__aeabi_dsub+0x58>
    5f8c:	0002      	movs	r2, r0
    5f8e:	430a      	orrs	r2, r1
    5f90:	d03a      	beq.n	6008 <__aeabi_dsub+0x610>
    5f92:	08ed      	lsrs	r5, r5, #3
    5f94:	077c      	lsls	r4, r7, #29
    5f96:	432c      	orrs	r4, r5
    5f98:	2580      	movs	r5, #128	; 0x80
    5f9a:	08fa      	lsrs	r2, r7, #3
    5f9c:	032d      	lsls	r5, r5, #12
    5f9e:	422a      	tst	r2, r5
    5fa0:	d008      	beq.n	5fb4 <__aeabi_dsub+0x5bc>
    5fa2:	08c7      	lsrs	r7, r0, #3
    5fa4:	422f      	tst	r7, r5
    5fa6:	d105      	bne.n	5fb4 <__aeabi_dsub+0x5bc>
    5fa8:	0745      	lsls	r5, r0, #29
    5faa:	002c      	movs	r4, r5
    5fac:	003a      	movs	r2, r7
    5fae:	469a      	mov	sl, r3
    5fb0:	08c9      	lsrs	r1, r1, #3
    5fb2:	430c      	orrs	r4, r1
    5fb4:	0f67      	lsrs	r7, r4, #29
    5fb6:	00d2      	lsls	r2, r2, #3
    5fb8:	00e5      	lsls	r5, r4, #3
    5fba:	4317      	orrs	r7, r2
    5fbc:	4c36      	ldr	r4, [pc, #216]	; (6098 <__aeabi_dsub+0x6a0>)
    5fbe:	e547      	b.n	5a50 <__aeabi_dsub+0x58>
    5fc0:	0007      	movs	r7, r0
    5fc2:	000d      	movs	r5, r1
    5fc4:	0014      	movs	r4, r2
    5fc6:	e543      	b.n	5a50 <__aeabi_dsub+0x58>
    5fc8:	003a      	movs	r2, r7
    5fca:	432a      	orrs	r2, r5
    5fcc:	d043      	beq.n	6056 <__aeabi_dsub+0x65e>
    5fce:	0002      	movs	r2, r0
    5fd0:	430a      	orrs	r2, r1
    5fd2:	d019      	beq.n	6008 <__aeabi_dsub+0x610>
    5fd4:	08ed      	lsrs	r5, r5, #3
    5fd6:	077c      	lsls	r4, r7, #29
    5fd8:	432c      	orrs	r4, r5
    5fda:	2580      	movs	r5, #128	; 0x80
    5fdc:	08fa      	lsrs	r2, r7, #3
    5fde:	032d      	lsls	r5, r5, #12
    5fe0:	422a      	tst	r2, r5
    5fe2:	d007      	beq.n	5ff4 <__aeabi_dsub+0x5fc>
    5fe4:	08c6      	lsrs	r6, r0, #3
    5fe6:	422e      	tst	r6, r5
    5fe8:	d104      	bne.n	5ff4 <__aeabi_dsub+0x5fc>
    5fea:	0747      	lsls	r7, r0, #29
    5fec:	003c      	movs	r4, r7
    5fee:	0032      	movs	r2, r6
    5ff0:	08c9      	lsrs	r1, r1, #3
    5ff2:	430c      	orrs	r4, r1
    5ff4:	00d7      	lsls	r7, r2, #3
    5ff6:	0f62      	lsrs	r2, r4, #29
    5ff8:	00e5      	lsls	r5, r4, #3
    5ffa:	4317      	orrs	r7, r2
    5ffc:	469a      	mov	sl, r3
    5ffe:	4c26      	ldr	r4, [pc, #152]	; (6098 <__aeabi_dsub+0x6a0>)
    6000:	e526      	b.n	5a50 <__aeabi_dsub+0x58>
    6002:	2200      	movs	r2, #0
    6004:	2500      	movs	r5, #0
    6006:	e544      	b.n	5a92 <__aeabi_dsub+0x9a>
    6008:	4c23      	ldr	r4, [pc, #140]	; (6098 <__aeabi_dsub+0x6a0>)
    600a:	e521      	b.n	5a50 <__aeabi_dsub+0x58>
    600c:	2000      	movs	r0, #0
    600e:	e749      	b.n	5ea4 <__aeabi_dsub+0x4ac>
    6010:	2300      	movs	r3, #0
    6012:	2500      	movs	r5, #0
    6014:	e5bb      	b.n	5b8e <__aeabi_dsub+0x196>
    6016:	464c      	mov	r4, r9
    6018:	003e      	movs	r6, r7
    601a:	3c20      	subs	r4, #32
    601c:	40e6      	lsrs	r6, r4
    601e:	464c      	mov	r4, r9
    6020:	46b4      	mov	ip, r6
    6022:	2c20      	cmp	r4, #32
    6024:	d031      	beq.n	608a <__aeabi_dsub+0x692>
    6026:	2440      	movs	r4, #64	; 0x40
    6028:	464e      	mov	r6, r9
    602a:	1ba6      	subs	r6, r4, r6
    602c:	40b7      	lsls	r7, r6
    602e:	433d      	orrs	r5, r7
    6030:	1e6c      	subs	r4, r5, #1
    6032:	41a5      	sbcs	r5, r4
    6034:	4664      	mov	r4, ip
    6036:	432c      	orrs	r4, r5
    6038:	2700      	movs	r7, #0
    603a:	1b0d      	subs	r5, r1, r4
    603c:	e6e7      	b.n	5e0e <__aeabi_dsub+0x416>
    603e:	2280      	movs	r2, #128	; 0x80
    6040:	2300      	movs	r3, #0
    6042:	0312      	lsls	r2, r2, #12
    6044:	4c14      	ldr	r4, [pc, #80]	; (6098 <__aeabi_dsub+0x6a0>)
    6046:	2500      	movs	r5, #0
    6048:	e5a1      	b.n	5b8e <__aeabi_dsub+0x196>
    604a:	433d      	orrs	r5, r7
    604c:	1e6f      	subs	r7, r5, #1
    604e:	41bd      	sbcs	r5, r7
    6050:	2700      	movs	r7, #0
    6052:	b2ed      	uxtb	r5, r5
    6054:	e760      	b.n	5f18 <__aeabi_dsub+0x520>
    6056:	0007      	movs	r7, r0
    6058:	000d      	movs	r5, r1
    605a:	4c0f      	ldr	r4, [pc, #60]	; (6098 <__aeabi_dsub+0x6a0>)
    605c:	e4f8      	b.n	5a50 <__aeabi_dsub+0x58>
    605e:	0007      	movs	r7, r0
    6060:	000d      	movs	r5, r1
    6062:	e4f5      	b.n	5a50 <__aeabi_dsub+0x58>
    6064:	464e      	mov	r6, r9
    6066:	003c      	movs	r4, r7
    6068:	3e20      	subs	r6, #32
    606a:	40f4      	lsrs	r4, r6
    606c:	46a0      	mov	r8, r4
    606e:	464c      	mov	r4, r9
    6070:	2c20      	cmp	r4, #32
    6072:	d00e      	beq.n	6092 <__aeabi_dsub+0x69a>
    6074:	2440      	movs	r4, #64	; 0x40
    6076:	464e      	mov	r6, r9
    6078:	1ba4      	subs	r4, r4, r6
    607a:	40a7      	lsls	r7, r4
    607c:	433d      	orrs	r5, r7
    607e:	1e6f      	subs	r7, r5, #1
    6080:	41bd      	sbcs	r5, r7
    6082:	4644      	mov	r4, r8
    6084:	2700      	movs	r7, #0
    6086:	4325      	orrs	r5, r4
    6088:	e746      	b.n	5f18 <__aeabi_dsub+0x520>
    608a:	2700      	movs	r7, #0
    608c:	e7cf      	b.n	602e <__aeabi_dsub+0x636>
    608e:	000d      	movs	r5, r1
    6090:	e573      	b.n	5b7a <__aeabi_dsub+0x182>
    6092:	2700      	movs	r7, #0
    6094:	e7f2      	b.n	607c <__aeabi_dsub+0x684>
    6096:	46c0      	nop			; (mov r8, r8)
    6098:	000007ff 	.word	0x000007ff
    609c:	ff7fffff 	.word	0xff7fffff

000060a0 <__aeabi_dcmpun>:
    60a0:	b570      	push	{r4, r5, r6, lr}
    60a2:	4e0e      	ldr	r6, [pc, #56]	; (60dc <__aeabi_dcmpun+0x3c>)
    60a4:	030c      	lsls	r4, r1, #12
    60a6:	031d      	lsls	r5, r3, #12
    60a8:	0049      	lsls	r1, r1, #1
    60aa:	005b      	lsls	r3, r3, #1
    60ac:	0b24      	lsrs	r4, r4, #12
    60ae:	0d49      	lsrs	r1, r1, #21
    60b0:	0b2d      	lsrs	r5, r5, #12
    60b2:	0d5b      	lsrs	r3, r3, #21
    60b4:	42b1      	cmp	r1, r6
    60b6:	d004      	beq.n	60c2 <__aeabi_dcmpun+0x22>
    60b8:	4908      	ldr	r1, [pc, #32]	; (60dc <__aeabi_dcmpun+0x3c>)
    60ba:	2000      	movs	r0, #0
    60bc:	428b      	cmp	r3, r1
    60be:	d008      	beq.n	60d2 <__aeabi_dcmpun+0x32>
    60c0:	bd70      	pop	{r4, r5, r6, pc}
    60c2:	4304      	orrs	r4, r0
    60c4:	2001      	movs	r0, #1
    60c6:	2c00      	cmp	r4, #0
    60c8:	d1fa      	bne.n	60c0 <__aeabi_dcmpun+0x20>
    60ca:	4904      	ldr	r1, [pc, #16]	; (60dc <__aeabi_dcmpun+0x3c>)
    60cc:	2000      	movs	r0, #0
    60ce:	428b      	cmp	r3, r1
    60d0:	d1f6      	bne.n	60c0 <__aeabi_dcmpun+0x20>
    60d2:	4315      	orrs	r5, r2
    60d4:	0028      	movs	r0, r5
    60d6:	1e45      	subs	r5, r0, #1
    60d8:	41a8      	sbcs	r0, r5
    60da:	e7f1      	b.n	60c0 <__aeabi_dcmpun+0x20>
    60dc:	000007ff 	.word	0x000007ff

000060e0 <__aeabi_d2iz>:
    60e0:	030b      	lsls	r3, r1, #12
    60e2:	b530      	push	{r4, r5, lr}
    60e4:	4d13      	ldr	r5, [pc, #76]	; (6134 <__aeabi_d2iz+0x54>)
    60e6:	0b1a      	lsrs	r2, r3, #12
    60e8:	004b      	lsls	r3, r1, #1
    60ea:	0d5b      	lsrs	r3, r3, #21
    60ec:	0fc9      	lsrs	r1, r1, #31
    60ee:	2400      	movs	r4, #0
    60f0:	42ab      	cmp	r3, r5
    60f2:	dd11      	ble.n	6118 <__aeabi_d2iz+0x38>
    60f4:	4c10      	ldr	r4, [pc, #64]	; (6138 <__aeabi_d2iz+0x58>)
    60f6:	42a3      	cmp	r3, r4
    60f8:	dc10      	bgt.n	611c <__aeabi_d2iz+0x3c>
    60fa:	2480      	movs	r4, #128	; 0x80
    60fc:	0364      	lsls	r4, r4, #13
    60fe:	4322      	orrs	r2, r4
    6100:	4c0e      	ldr	r4, [pc, #56]	; (613c <__aeabi_d2iz+0x5c>)
    6102:	1ae4      	subs	r4, r4, r3
    6104:	2c1f      	cmp	r4, #31
    6106:	dd0c      	ble.n	6122 <__aeabi_d2iz+0x42>
    6108:	480d      	ldr	r0, [pc, #52]	; (6140 <__aeabi_d2iz+0x60>)
    610a:	1ac3      	subs	r3, r0, r3
    610c:	40da      	lsrs	r2, r3
    610e:	0013      	movs	r3, r2
    6110:	425c      	negs	r4, r3
    6112:	2900      	cmp	r1, #0
    6114:	d100      	bne.n	6118 <__aeabi_d2iz+0x38>
    6116:	001c      	movs	r4, r3
    6118:	0020      	movs	r0, r4
    611a:	bd30      	pop	{r4, r5, pc}
    611c:	4b09      	ldr	r3, [pc, #36]	; (6144 <__aeabi_d2iz+0x64>)
    611e:	18cc      	adds	r4, r1, r3
    6120:	e7fa      	b.n	6118 <__aeabi_d2iz+0x38>
    6122:	40e0      	lsrs	r0, r4
    6124:	4c08      	ldr	r4, [pc, #32]	; (6148 <__aeabi_d2iz+0x68>)
    6126:	46a4      	mov	ip, r4
    6128:	4463      	add	r3, ip
    612a:	409a      	lsls	r2, r3
    612c:	0013      	movs	r3, r2
    612e:	4303      	orrs	r3, r0
    6130:	e7ee      	b.n	6110 <__aeabi_d2iz+0x30>
    6132:	46c0      	nop			; (mov r8, r8)
    6134:	000003fe 	.word	0x000003fe
    6138:	0000041d 	.word	0x0000041d
    613c:	00000433 	.word	0x00000433
    6140:	00000413 	.word	0x00000413
    6144:	7fffffff 	.word	0x7fffffff
    6148:	fffffbed 	.word	0xfffffbed

0000614c <__aeabi_i2d>:
    614c:	b570      	push	{r4, r5, r6, lr}
    614e:	2800      	cmp	r0, #0
    6150:	d030      	beq.n	61b4 <__aeabi_i2d+0x68>
    6152:	17c3      	asrs	r3, r0, #31
    6154:	18c4      	adds	r4, r0, r3
    6156:	405c      	eors	r4, r3
    6158:	0fc5      	lsrs	r5, r0, #31
    615a:	0020      	movs	r0, r4
    615c:	f000 f950 	bl	6400 <__clzsi2>
    6160:	4b17      	ldr	r3, [pc, #92]	; (61c0 <__aeabi_i2d+0x74>)
    6162:	4a18      	ldr	r2, [pc, #96]	; (61c4 <__aeabi_i2d+0x78>)
    6164:	1a1b      	subs	r3, r3, r0
    6166:	1ad2      	subs	r2, r2, r3
    6168:	2a1f      	cmp	r2, #31
    616a:	dd18      	ble.n	619e <__aeabi_i2d+0x52>
    616c:	4a16      	ldr	r2, [pc, #88]	; (61c8 <__aeabi_i2d+0x7c>)
    616e:	1ad2      	subs	r2, r2, r3
    6170:	4094      	lsls	r4, r2
    6172:	2200      	movs	r2, #0
    6174:	0324      	lsls	r4, r4, #12
    6176:	055b      	lsls	r3, r3, #21
    6178:	0b24      	lsrs	r4, r4, #12
    617a:	0d5b      	lsrs	r3, r3, #21
    617c:	2100      	movs	r1, #0
    617e:	0010      	movs	r0, r2
    6180:	0324      	lsls	r4, r4, #12
    6182:	0d0a      	lsrs	r2, r1, #20
    6184:	0512      	lsls	r2, r2, #20
    6186:	0b24      	lsrs	r4, r4, #12
    6188:	4314      	orrs	r4, r2
    618a:	4a10      	ldr	r2, [pc, #64]	; (61cc <__aeabi_i2d+0x80>)
    618c:	051b      	lsls	r3, r3, #20
    618e:	4014      	ands	r4, r2
    6190:	431c      	orrs	r4, r3
    6192:	0064      	lsls	r4, r4, #1
    6194:	07ed      	lsls	r5, r5, #31
    6196:	0864      	lsrs	r4, r4, #1
    6198:	432c      	orrs	r4, r5
    619a:	0021      	movs	r1, r4
    619c:	bd70      	pop	{r4, r5, r6, pc}
    619e:	0021      	movs	r1, r4
    61a0:	4091      	lsls	r1, r2
    61a2:	000a      	movs	r2, r1
    61a4:	210b      	movs	r1, #11
    61a6:	1a08      	subs	r0, r1, r0
    61a8:	40c4      	lsrs	r4, r0
    61aa:	055b      	lsls	r3, r3, #21
    61ac:	0324      	lsls	r4, r4, #12
    61ae:	0b24      	lsrs	r4, r4, #12
    61b0:	0d5b      	lsrs	r3, r3, #21
    61b2:	e7e3      	b.n	617c <__aeabi_i2d+0x30>
    61b4:	2500      	movs	r5, #0
    61b6:	2300      	movs	r3, #0
    61b8:	2400      	movs	r4, #0
    61ba:	2200      	movs	r2, #0
    61bc:	e7de      	b.n	617c <__aeabi_i2d+0x30>
    61be:	46c0      	nop			; (mov r8, r8)
    61c0:	0000041e 	.word	0x0000041e
    61c4:	00000433 	.word	0x00000433
    61c8:	00000413 	.word	0x00000413
    61cc:	800fffff 	.word	0x800fffff

000061d0 <__aeabi_ui2d>:
    61d0:	b570      	push	{r4, r5, r6, lr}
    61d2:	1e05      	subs	r5, r0, #0
    61d4:	d028      	beq.n	6228 <__aeabi_ui2d+0x58>
    61d6:	f000 f913 	bl	6400 <__clzsi2>
    61da:	4b15      	ldr	r3, [pc, #84]	; (6230 <__aeabi_ui2d+0x60>)
    61dc:	4a15      	ldr	r2, [pc, #84]	; (6234 <__aeabi_ui2d+0x64>)
    61de:	1a1b      	subs	r3, r3, r0
    61e0:	1ad2      	subs	r2, r2, r3
    61e2:	2a1f      	cmp	r2, #31
    61e4:	dd16      	ble.n	6214 <__aeabi_ui2d+0x44>
    61e6:	002c      	movs	r4, r5
    61e8:	4a13      	ldr	r2, [pc, #76]	; (6238 <__aeabi_ui2d+0x68>)
    61ea:	2500      	movs	r5, #0
    61ec:	1ad2      	subs	r2, r2, r3
    61ee:	4094      	lsls	r4, r2
    61f0:	055a      	lsls	r2, r3, #21
    61f2:	0324      	lsls	r4, r4, #12
    61f4:	0b24      	lsrs	r4, r4, #12
    61f6:	0d52      	lsrs	r2, r2, #21
    61f8:	2100      	movs	r1, #0
    61fa:	0324      	lsls	r4, r4, #12
    61fc:	0d0b      	lsrs	r3, r1, #20
    61fe:	0b24      	lsrs	r4, r4, #12
    6200:	051b      	lsls	r3, r3, #20
    6202:	4323      	orrs	r3, r4
    6204:	4c0d      	ldr	r4, [pc, #52]	; (623c <__aeabi_ui2d+0x6c>)
    6206:	0512      	lsls	r2, r2, #20
    6208:	4023      	ands	r3, r4
    620a:	4313      	orrs	r3, r2
    620c:	005b      	lsls	r3, r3, #1
    620e:	0028      	movs	r0, r5
    6210:	0859      	lsrs	r1, r3, #1
    6212:	bd70      	pop	{r4, r5, r6, pc}
    6214:	210b      	movs	r1, #11
    6216:	002c      	movs	r4, r5
    6218:	1a08      	subs	r0, r1, r0
    621a:	40c4      	lsrs	r4, r0
    621c:	4095      	lsls	r5, r2
    621e:	0324      	lsls	r4, r4, #12
    6220:	055a      	lsls	r2, r3, #21
    6222:	0b24      	lsrs	r4, r4, #12
    6224:	0d52      	lsrs	r2, r2, #21
    6226:	e7e7      	b.n	61f8 <__aeabi_ui2d+0x28>
    6228:	2200      	movs	r2, #0
    622a:	2400      	movs	r4, #0
    622c:	e7e4      	b.n	61f8 <__aeabi_ui2d+0x28>
    622e:	46c0      	nop			; (mov r8, r8)
    6230:	0000041e 	.word	0x0000041e
    6234:	00000433 	.word	0x00000433
    6238:	00000413 	.word	0x00000413
    623c:	800fffff 	.word	0x800fffff

00006240 <__aeabi_f2d>:
    6240:	0042      	lsls	r2, r0, #1
    6242:	0e12      	lsrs	r2, r2, #24
    6244:	1c51      	adds	r1, r2, #1
    6246:	0243      	lsls	r3, r0, #9
    6248:	b2c9      	uxtb	r1, r1
    624a:	b570      	push	{r4, r5, r6, lr}
    624c:	0a5d      	lsrs	r5, r3, #9
    624e:	0fc4      	lsrs	r4, r0, #31
    6250:	2901      	cmp	r1, #1
    6252:	dd15      	ble.n	6280 <__aeabi_f2d+0x40>
    6254:	21e0      	movs	r1, #224	; 0xe0
    6256:	0089      	lsls	r1, r1, #2
    6258:	468c      	mov	ip, r1
    625a:	076d      	lsls	r5, r5, #29
    625c:	0b1b      	lsrs	r3, r3, #12
    625e:	4462      	add	r2, ip
    6260:	2100      	movs	r1, #0
    6262:	0028      	movs	r0, r5
    6264:	0d0d      	lsrs	r5, r1, #20
    6266:	052d      	lsls	r5, r5, #20
    6268:	432b      	orrs	r3, r5
    626a:	4d1c      	ldr	r5, [pc, #112]	; (62dc <__aeabi_f2d+0x9c>)
    626c:	0552      	lsls	r2, r2, #21
    626e:	402b      	ands	r3, r5
    6270:	0852      	lsrs	r2, r2, #1
    6272:	4313      	orrs	r3, r2
    6274:	005b      	lsls	r3, r3, #1
    6276:	07e4      	lsls	r4, r4, #31
    6278:	085b      	lsrs	r3, r3, #1
    627a:	4323      	orrs	r3, r4
    627c:	0019      	movs	r1, r3
    627e:	bd70      	pop	{r4, r5, r6, pc}
    6280:	2a00      	cmp	r2, #0
    6282:	d115      	bne.n	62b0 <__aeabi_f2d+0x70>
    6284:	2d00      	cmp	r5, #0
    6286:	d01f      	beq.n	62c8 <__aeabi_f2d+0x88>
    6288:	0028      	movs	r0, r5
    628a:	f000 f8b9 	bl	6400 <__clzsi2>
    628e:	280a      	cmp	r0, #10
    6290:	dc1d      	bgt.n	62ce <__aeabi_f2d+0x8e>
    6292:	230b      	movs	r3, #11
    6294:	002a      	movs	r2, r5
    6296:	1a1b      	subs	r3, r3, r0
    6298:	40da      	lsrs	r2, r3
    629a:	0013      	movs	r3, r2
    629c:	0002      	movs	r2, r0
    629e:	3215      	adds	r2, #21
    62a0:	4095      	lsls	r5, r2
    62a2:	4a0f      	ldr	r2, [pc, #60]	; (62e0 <__aeabi_f2d+0xa0>)
    62a4:	031b      	lsls	r3, r3, #12
    62a6:	1a12      	subs	r2, r2, r0
    62a8:	0552      	lsls	r2, r2, #21
    62aa:	0b1b      	lsrs	r3, r3, #12
    62ac:	0d52      	lsrs	r2, r2, #21
    62ae:	e7d7      	b.n	6260 <__aeabi_f2d+0x20>
    62b0:	2d00      	cmp	r5, #0
    62b2:	d006      	beq.n	62c2 <__aeabi_f2d+0x82>
    62b4:	2280      	movs	r2, #128	; 0x80
    62b6:	0b1b      	lsrs	r3, r3, #12
    62b8:	0312      	lsls	r2, r2, #12
    62ba:	4313      	orrs	r3, r2
    62bc:	076d      	lsls	r5, r5, #29
    62be:	4a09      	ldr	r2, [pc, #36]	; (62e4 <__aeabi_f2d+0xa4>)
    62c0:	e7ce      	b.n	6260 <__aeabi_f2d+0x20>
    62c2:	4a08      	ldr	r2, [pc, #32]	; (62e4 <__aeabi_f2d+0xa4>)
    62c4:	2300      	movs	r3, #0
    62c6:	e7cb      	b.n	6260 <__aeabi_f2d+0x20>
    62c8:	2200      	movs	r2, #0
    62ca:	2300      	movs	r3, #0
    62cc:	e7c8      	b.n	6260 <__aeabi_f2d+0x20>
    62ce:	0003      	movs	r3, r0
    62d0:	3b0b      	subs	r3, #11
    62d2:	409d      	lsls	r5, r3
    62d4:	002b      	movs	r3, r5
    62d6:	2500      	movs	r5, #0
    62d8:	e7e3      	b.n	62a2 <__aeabi_f2d+0x62>
    62da:	46c0      	nop			; (mov r8, r8)
    62dc:	800fffff 	.word	0x800fffff
    62e0:	00000389 	.word	0x00000389
    62e4:	000007ff 	.word	0x000007ff

000062e8 <__aeabi_d2f>:
    62e8:	004b      	lsls	r3, r1, #1
    62ea:	b570      	push	{r4, r5, r6, lr}
    62ec:	0d5e      	lsrs	r6, r3, #21
    62ee:	030c      	lsls	r4, r1, #12
    62f0:	1c75      	adds	r5, r6, #1
    62f2:	0a64      	lsrs	r4, r4, #9
    62f4:	0f42      	lsrs	r2, r0, #29
    62f6:	056d      	lsls	r5, r5, #21
    62f8:	4322      	orrs	r2, r4
    62fa:	0fc9      	lsrs	r1, r1, #31
    62fc:	00c4      	lsls	r4, r0, #3
    62fe:	0d6d      	lsrs	r5, r5, #21
    6300:	2d01      	cmp	r5, #1
    6302:	dd2a      	ble.n	635a <__aeabi_d2f+0x72>
    6304:	4b3b      	ldr	r3, [pc, #236]	; (63f4 <__aeabi_d2f+0x10c>)
    6306:	18f3      	adds	r3, r6, r3
    6308:	2bfe      	cmp	r3, #254	; 0xfe
    630a:	dc1a      	bgt.n	6342 <__aeabi_d2f+0x5a>
    630c:	2b00      	cmp	r3, #0
    630e:	dd42      	ble.n	6396 <__aeabi_d2f+0xae>
    6310:	0180      	lsls	r0, r0, #6
    6312:	1e45      	subs	r5, r0, #1
    6314:	41a8      	sbcs	r0, r5
    6316:	00d2      	lsls	r2, r2, #3
    6318:	4310      	orrs	r0, r2
    631a:	0f62      	lsrs	r2, r4, #29
    631c:	4302      	orrs	r2, r0
    631e:	0750      	lsls	r0, r2, #29
    6320:	d004      	beq.n	632c <__aeabi_d2f+0x44>
    6322:	200f      	movs	r0, #15
    6324:	4010      	ands	r0, r2
    6326:	2804      	cmp	r0, #4
    6328:	d000      	beq.n	632c <__aeabi_d2f+0x44>
    632a:	3204      	adds	r2, #4
    632c:	2080      	movs	r0, #128	; 0x80
    632e:	04c0      	lsls	r0, r0, #19
    6330:	4010      	ands	r0, r2
    6332:	d021      	beq.n	6378 <__aeabi_d2f+0x90>
    6334:	3301      	adds	r3, #1
    6336:	2bff      	cmp	r3, #255	; 0xff
    6338:	d003      	beq.n	6342 <__aeabi_d2f+0x5a>
    633a:	0192      	lsls	r2, r2, #6
    633c:	0a52      	lsrs	r2, r2, #9
    633e:	b2db      	uxtb	r3, r3
    6340:	e001      	b.n	6346 <__aeabi_d2f+0x5e>
    6342:	23ff      	movs	r3, #255	; 0xff
    6344:	2200      	movs	r2, #0
    6346:	0252      	lsls	r2, r2, #9
    6348:	0a52      	lsrs	r2, r2, #9
    634a:	05db      	lsls	r3, r3, #23
    634c:	4313      	orrs	r3, r2
    634e:	005b      	lsls	r3, r3, #1
    6350:	07c9      	lsls	r1, r1, #31
    6352:	085b      	lsrs	r3, r3, #1
    6354:	430b      	orrs	r3, r1
    6356:	0018      	movs	r0, r3
    6358:	bd70      	pop	{r4, r5, r6, pc}
    635a:	2e00      	cmp	r6, #0
    635c:	d007      	beq.n	636e <__aeabi_d2f+0x86>
    635e:	4314      	orrs	r4, r2
    6360:	d0ef      	beq.n	6342 <__aeabi_d2f+0x5a>
    6362:	2080      	movs	r0, #128	; 0x80
    6364:	00d2      	lsls	r2, r2, #3
    6366:	0480      	lsls	r0, r0, #18
    6368:	4302      	orrs	r2, r0
    636a:	23ff      	movs	r3, #255	; 0xff
    636c:	e7d7      	b.n	631e <__aeabi_d2f+0x36>
    636e:	4322      	orrs	r2, r4
    6370:	2300      	movs	r3, #0
    6372:	2a00      	cmp	r2, #0
    6374:	d003      	beq.n	637e <__aeabi_d2f+0x96>
    6376:	2205      	movs	r2, #5
    6378:	08d2      	lsrs	r2, r2, #3
    637a:	2bff      	cmp	r3, #255	; 0xff
    637c:	d003      	beq.n	6386 <__aeabi_d2f+0x9e>
    637e:	0252      	lsls	r2, r2, #9
    6380:	0a52      	lsrs	r2, r2, #9
    6382:	b2db      	uxtb	r3, r3
    6384:	e7df      	b.n	6346 <__aeabi_d2f+0x5e>
    6386:	2a00      	cmp	r2, #0
    6388:	d032      	beq.n	63f0 <__aeabi_d2f+0x108>
    638a:	2080      	movs	r0, #128	; 0x80
    638c:	03c0      	lsls	r0, r0, #15
    638e:	4302      	orrs	r2, r0
    6390:	0252      	lsls	r2, r2, #9
    6392:	0a52      	lsrs	r2, r2, #9
    6394:	e7d7      	b.n	6346 <__aeabi_d2f+0x5e>
    6396:	0018      	movs	r0, r3
    6398:	3017      	adds	r0, #23
    639a:	db14      	blt.n	63c6 <__aeabi_d2f+0xde>
    639c:	2080      	movs	r0, #128	; 0x80
    639e:	0400      	lsls	r0, r0, #16
    63a0:	4302      	orrs	r2, r0
    63a2:	201e      	movs	r0, #30
    63a4:	1ac0      	subs	r0, r0, r3
    63a6:	281f      	cmp	r0, #31
    63a8:	dc0f      	bgt.n	63ca <__aeabi_d2f+0xe2>
    63aa:	0025      	movs	r5, r4
    63ac:	4b12      	ldr	r3, [pc, #72]	; (63f8 <__aeabi_d2f+0x110>)
    63ae:	18f3      	adds	r3, r6, r3
    63b0:	409d      	lsls	r5, r3
    63b2:	1e6e      	subs	r6, r5, #1
    63b4:	41b5      	sbcs	r5, r6
    63b6:	409a      	lsls	r2, r3
    63b8:	002b      	movs	r3, r5
    63ba:	4313      	orrs	r3, r2
    63bc:	0022      	movs	r2, r4
    63be:	40c2      	lsrs	r2, r0
    63c0:	431a      	orrs	r2, r3
    63c2:	2300      	movs	r3, #0
    63c4:	e7ab      	b.n	631e <__aeabi_d2f+0x36>
    63c6:	2300      	movs	r3, #0
    63c8:	e7d5      	b.n	6376 <__aeabi_d2f+0x8e>
    63ca:	2502      	movs	r5, #2
    63cc:	426d      	negs	r5, r5
    63ce:	1aeb      	subs	r3, r5, r3
    63d0:	0015      	movs	r5, r2
    63d2:	40dd      	lsrs	r5, r3
    63d4:	2820      	cmp	r0, #32
    63d6:	d009      	beq.n	63ec <__aeabi_d2f+0x104>
    63d8:	4b08      	ldr	r3, [pc, #32]	; (63fc <__aeabi_d2f+0x114>)
    63da:	18f3      	adds	r3, r6, r3
    63dc:	409a      	lsls	r2, r3
    63de:	4314      	orrs	r4, r2
    63e0:	1e62      	subs	r2, r4, #1
    63e2:	4194      	sbcs	r4, r2
    63e4:	0022      	movs	r2, r4
    63e6:	2300      	movs	r3, #0
    63e8:	432a      	orrs	r2, r5
    63ea:	e798      	b.n	631e <__aeabi_d2f+0x36>
    63ec:	2200      	movs	r2, #0
    63ee:	e7f6      	b.n	63de <__aeabi_d2f+0xf6>
    63f0:	2200      	movs	r2, #0
    63f2:	e7a8      	b.n	6346 <__aeabi_d2f+0x5e>
    63f4:	fffffc80 	.word	0xfffffc80
    63f8:	fffffc82 	.word	0xfffffc82
    63fc:	fffffca2 	.word	0xfffffca2

00006400 <__clzsi2>:
    6400:	211c      	movs	r1, #28
    6402:	2301      	movs	r3, #1
    6404:	041b      	lsls	r3, r3, #16
    6406:	4298      	cmp	r0, r3
    6408:	d301      	bcc.n	640e <__clzsi2+0xe>
    640a:	0c00      	lsrs	r0, r0, #16
    640c:	3910      	subs	r1, #16
    640e:	0a1b      	lsrs	r3, r3, #8
    6410:	4298      	cmp	r0, r3
    6412:	d301      	bcc.n	6418 <__clzsi2+0x18>
    6414:	0a00      	lsrs	r0, r0, #8
    6416:	3908      	subs	r1, #8
    6418:	091b      	lsrs	r3, r3, #4
    641a:	4298      	cmp	r0, r3
    641c:	d301      	bcc.n	6422 <__clzsi2+0x22>
    641e:	0900      	lsrs	r0, r0, #4
    6420:	3904      	subs	r1, #4
    6422:	a202      	add	r2, pc, #8	; (adr r2, 642c <__clzsi2+0x2c>)
    6424:	5c10      	ldrb	r0, [r2, r0]
    6426:	1840      	adds	r0, r0, r1
    6428:	4770      	bx	lr
    642a:	46c0      	nop			; (mov r8, r8)
    642c:	02020304 	.word	0x02020304
    6430:	01010101 	.word	0x01010101
	...

0000643c <__errno>:
    643c:	4b01      	ldr	r3, [pc, #4]	; (6444 <__errno+0x8>)
    643e:	6818      	ldr	r0, [r3, #0]
    6440:	4770      	bx	lr
    6442:	46c0      	nop			; (mov r8, r8)
    6444:	200000d4 	.word	0x200000d4

00006448 <__libc_init_array>:
    6448:	4b0e      	ldr	r3, [pc, #56]	; (6484 <__libc_init_array+0x3c>)
    644a:	b570      	push	{r4, r5, r6, lr}
    644c:	2500      	movs	r5, #0
    644e:	001e      	movs	r6, r3
    6450:	4c0d      	ldr	r4, [pc, #52]	; (6488 <__libc_init_array+0x40>)
    6452:	1ae4      	subs	r4, r4, r3
    6454:	10a4      	asrs	r4, r4, #2
    6456:	42a5      	cmp	r5, r4
    6458:	d004      	beq.n	6464 <__libc_init_array+0x1c>
    645a:	00ab      	lsls	r3, r5, #2
    645c:	58f3      	ldr	r3, [r6, r3]
    645e:	4798      	blx	r3
    6460:	3501      	adds	r5, #1
    6462:	e7f8      	b.n	6456 <__libc_init_array+0xe>
    6464:	f000 f896 	bl	6594 <_init>
    6468:	4b08      	ldr	r3, [pc, #32]	; (648c <__libc_init_array+0x44>)
    646a:	2500      	movs	r5, #0
    646c:	001e      	movs	r6, r3
    646e:	4c08      	ldr	r4, [pc, #32]	; (6490 <__libc_init_array+0x48>)
    6470:	1ae4      	subs	r4, r4, r3
    6472:	10a4      	asrs	r4, r4, #2
    6474:	42a5      	cmp	r5, r4
    6476:	d004      	beq.n	6482 <__libc_init_array+0x3a>
    6478:	00ab      	lsls	r3, r5, #2
    647a:	58f3      	ldr	r3, [r6, r3]
    647c:	4798      	blx	r3
    647e:	3501      	adds	r5, #1
    6480:	e7f8      	b.n	6474 <__libc_init_array+0x2c>
    6482:	bd70      	pop	{r4, r5, r6, pc}
    6484:	000065a0 	.word	0x000065a0
    6488:	000065a0 	.word	0x000065a0
    648c:	000065a0 	.word	0x000065a0
    6490:	000065a4 	.word	0x000065a4

00006494 <senseBatPin>:
    6494:	06000000 01000106                                .....

00006499 <senseAPin>:
    6499:	03010001 0100010b                                .....

0000649e <senseBPin>:
    649e:	02010001 0000010a                                .....

000064a3 <senseCPin>:
    64a3:	03000001 00000101                                .....

000064a8 <senseDPin>:
    64a8:	02000001 00000100                                .....

000064ad <analogAccelPin>:
    64ad:	07000001 70000007 0000776f 00000000     .......pow......
    64bd:	00000000                                         ...

000064c0 <TWO52>:
    64c0:	00000000 43300000 00000000 c3300000     ......0C......0.
    64d0:	00004514 00004472 00004472 00004470     .E..rD..rD..pD..
    64e0:	00004506 00004506 000044fc 00004470     .E...E...D..pD..
    64f0:	00004506 000044fc 00004506 00004470     .E...D...E..pD..
    6500:	0000450c 0000450c 0000450c 00004596     .E...E...E...E..
    6510:	00004eac 00004d7a 00004e80 00004d70     .N..zM...N..pM..
    6520:	00004e80 00004e8a 00004e80 00004d70     .N...N...N..pM..
    6530:	00004d7a 00004d7a 00004e8a 00004d70     zM..zM...N..pM..
    6540:	00004d66 00004d66 00004d66 000050dc     fM..fM..fM...P..
    6550:	000056f4 000055b4 000055b4 000055b2     .V...U...U...U..
    6560:	000056cc 000056cc 000056be 000055b2     .V...V...V...U..
    6570:	000056cc 000056be 000056cc 000055b2     .V...V...V...U..
    6580:	000056d4 000056d4 000056d4 000058d4     .V...V...V...X..
    6590:	00000043                                C...

00006594 <_init>:
    6594:	b5f8      	push	{r3, r4, r5, r6, r7, lr}
    6596:	46c0      	nop			; (mov r8, r8)
    6598:	bcf8      	pop	{r3, r4, r5, r6, r7}
    659a:	bc08      	pop	{r3}
    659c:	469e      	mov	lr, r3
    659e:	4770      	bx	lr

000065a0 <__init_array_start>:
    65a0:	000000dd 	.word	0x000000dd

000065a4 <_fini>:
    65a4:	b5f8      	push	{r3, r4, r5, r6, r7, lr}
    65a6:	46c0      	nop			; (mov r8, r8)
    65a8:	bcf8      	pop	{r3, r4, r5, r6, r7}
    65aa:	bc08      	pop	{r3}
    65ac:	469e      	mov	lr, r3
    65ae:	4770      	bx	lr

000065b0 <__fini_array_start>:
    65b0:	000000b5 	.word	0x000000b5
