
Girlfriend Tracker V0.2.elf:     file format elf32-littlearm

Sections:
Idx Name          Size      VMA       LMA       File off  Algn
  0 .text         00000be0  00000000  00000000  00010000  2**2
                  CONTENTS, ALLOC, LOAD, READONLY, CODE
  1 .relocate     0000002c  20000000  00000be0  00020000  2**2
                  CONTENTS, ALLOC, LOAD, DATA
  2 .bss          00000078  2000002c  00000c0c  0002002c  2**2
                  ALLOC
  3 .stack        00002004  200000a4  00000c84  0002002c  2**0
                  ALLOC
  4 .ARM.attributes 00000028  00000000  00000000  0002002c  2**0
                  CONTENTS, READONLY
  5 .comment      00000059  00000000  00000000  00020054  2**0
                  CONTENTS, READONLY
  6 .debug_info   0000f531  00000000  00000000  000200ad  2**0
                  CONTENTS, READONLY, DEBUGGING
  7 .debug_abbrev 0000112d  00000000  00000000  0002f5de  2**0
                  CONTENTS, READONLY, DEBUGGING
  8 .debug_loc    0000117d  00000000  00000000  0003070b  2**0
                  CONTENTS, READONLY, DEBUGGING
  9 .debug_aranges 00000208  00000000  00000000  00031888  2**0
                  CONTENTS, READONLY, DEBUGGING
 10 .debug_ranges 000003e0  00000000  00000000  00031a90  2**0
                  CONTENTS, READONLY, DEBUGGING
 11 .debug_line   00001713  00000000  00000000  00031e70  2**0
                  CONTENTS, READONLY, DEBUGGING
 12 .debug_str    00002bdc  00000000  00000000  00033583  2**0
                  CONTENTS, READONLY, DEBUGGING
 13 .debug_frame  000004bc  00000000  00000000  00036160  2**2
                  CONTENTS, READONLY, DEBUGGING

Disassembly of section .text:

00000000 <_sfixed>:
   0:	200020a8 	.word	0x200020a8
   4:	00000119 	.word	0x00000119
   8:	00000115 	.word	0x00000115
   c:	00000115 	.word	0x00000115
	...
  2c:	00000115 	.word	0x00000115
	...
  38:	00000115 	.word	0x00000115
  3c:	00000a45 	.word	0x00000a45
  40:	00000115 	.word	0x00000115
  44:	00000115 	.word	0x00000115
  48:	00000115 	.word	0x00000115
  4c:	00000a75 	.word	0x00000a75
  50:	00000115 	.word	0x00000115
  54:	00000115 	.word	0x00000115
  58:	00000115 	.word	0x00000115
  5c:	00000115 	.word	0x00000115
  60:	00000115 	.word	0x00000115
  64:	00000115 	.word	0x00000115
  68:	00000115 	.word	0x00000115
  6c:	00000115 	.word	0x00000115
  70:	00000115 	.word	0x00000115
  74:	00000115 	.word	0x00000115
  78:	00000115 	.word	0x00000115
  7c:	00000115 	.word	0x00000115
  80:	00000115 	.word	0x00000115
  84:	00000115 	.word	0x00000115
  88:	00000115 	.word	0x00000115
  8c:	00000a95 	.word	0x00000a95
  90:	00000aa1 	.word	0x00000aa1
	...
  9c:	00000115 	.word	0x00000115
  a0:	00000115 	.word	0x00000115
  a4:	00000115 	.word	0x00000115
  a8:	00000115 	.word	0x00000115
  ac:	00000115 	.word	0x00000115
  b0:	00000000 	.word	0x00000000

000000b4 <__do_global_dtors_aux>:
  b4:	b510      	push	{r4, lr}
  b6:	4c06      	ldr	r4, [pc, #24]	; (d0 <__do_global_dtors_aux+0x1c>)
  b8:	7823      	ldrb	r3, [r4, #0]
  ba:	2b00      	cmp	r3, #0
  bc:	d107      	bne.n	ce <__do_global_dtors_aux+0x1a>
  be:	4b05      	ldr	r3, [pc, #20]	; (d4 <__do_global_dtors_aux+0x20>)
  c0:	2b00      	cmp	r3, #0
  c2:	d002      	beq.n	ca <__do_global_dtors_aux+0x16>
  c4:	4804      	ldr	r0, [pc, #16]	; (d8 <__do_global_dtors_aux+0x24>)
  c6:	e000      	b.n	ca <__do_global_dtors_aux+0x16>
  c8:	bf00      	nop
  ca:	2301      	movs	r3, #1
  cc:	7023      	strb	r3, [r4, #0]
  ce:	bd10      	pop	{r4, pc}
  d0:	2000002c 	.word	0x2000002c
  d4:	00000000 	.word	0x00000000
  d8:	00000be0 	.word	0x00000be0

000000dc <frame_dummy>:
  dc:	4b08      	ldr	r3, [pc, #32]	; (100 <frame_dummy+0x24>)
  de:	b510      	push	{r4, lr}
  e0:	2b00      	cmp	r3, #0
  e2:	d003      	beq.n	ec <frame_dummy+0x10>
  e4:	4907      	ldr	r1, [pc, #28]	; (104 <frame_dummy+0x28>)
  e6:	4808      	ldr	r0, [pc, #32]	; (108 <frame_dummy+0x2c>)
  e8:	e000      	b.n	ec <frame_dummy+0x10>
  ea:	bf00      	nop
  ec:	4807      	ldr	r0, [pc, #28]	; (10c <frame_dummy+0x30>)
  ee:	6803      	ldr	r3, [r0, #0]
  f0:	2b00      	cmp	r3, #0
  f2:	d100      	bne.n	f6 <frame_dummy+0x1a>
  f4:	bd10      	pop	{r4, pc}
  f6:	4b06      	ldr	r3, [pc, #24]	; (110 <frame_dummy+0x34>)
  f8:	2b00      	cmp	r3, #0
  fa:	d0fb      	beq.n	f4 <frame_dummy+0x18>
  fc:	4798      	blx	r3
  fe:	e7f9      	b.n	f4 <frame_dummy+0x18>
 100:	00000000 	.word	0x00000000
 104:	20000030 	.word	0x20000030
 108:	00000be0 	.word	0x00000be0
 10c:	00000be0 	.word	0x00000be0
 110:	00000000 	.word	0x00000000

00000114 <Dummy_Handler>:

/**
 * \brief Default interrupt handler for unused IRQs.
 */
void Dummy_Handler(void)
{
 114:	e7fe      	b.n	114 <Dummy_Handler>
 116:	46c0      	nop			; (mov r8, r8)

00000118 <Reset_Handler>:
/**
 * \brief This is the code that gets called on processor reset.
 * To initialize the device, and call the main() routine.
 */
void Reset_Handler(void)
{
 118:	b570      	push	{r4, r5, r6, lr}

        /* Initialize the relocate segment */
        pSrc = &_etext;
        pDest = &_srelocate;

        if (pSrc != pDest) {
 11a:	4b2e      	ldr	r3, [pc, #184]	; (1d4 <Reset_Handler+0xbc>)
 11c:	4a2e      	ldr	r2, [pc, #184]	; (1d8 <Reset_Handler+0xc0>)
 11e:	429a      	cmp	r2, r3
 120:	d003      	beq.n	12a <Reset_Handler+0x12>
                for (; pDest < &_erelocate;) {
 122:	4b2e      	ldr	r3, [pc, #184]	; (1dc <Reset_Handler+0xc4>)
 124:	4a2b      	ldr	r2, [pc, #172]	; (1d4 <Reset_Handler+0xbc>)
 126:	429a      	cmp	r2, r3
 128:	d304      	bcc.n	134 <Reset_Handler+0x1c>
                        *pDest++ = *pSrc++;
                }
        }

        /* Clear the zero segment */
        for (pDest = &_szero; pDest < &_ezero;) {
 12a:	4b2d      	ldr	r3, [pc, #180]	; (1e0 <Reset_Handler+0xc8>)
 12c:	4a2d      	ldr	r2, [pc, #180]	; (1e4 <Reset_Handler+0xcc>)
 12e:	429a      	cmp	r2, r3
 130:	d310      	bcc.n	154 <Reset_Handler+0x3c>
 132:	e01e      	b.n	172 <Reset_Handler+0x5a>
 134:	4a2c      	ldr	r2, [pc, #176]	; (1e8 <Reset_Handler+0xd0>)
 136:	4b29      	ldr	r3, [pc, #164]	; (1dc <Reset_Handler+0xc4>)
 138:	3303      	adds	r3, #3
 13a:	1a9b      	subs	r3, r3, r2
 13c:	089b      	lsrs	r3, r3, #2
 13e:	3301      	adds	r3, #1
 140:	009b      	lsls	r3, r3, #2
        /* Initialize the relocate segment */
        pSrc = &_etext;
        pDest = &_srelocate;

        if (pSrc != pDest) {
                for (; pDest < &_erelocate;) {
 142:	2200      	movs	r2, #0
                        *pDest++ = *pSrc++;
 144:	4823      	ldr	r0, [pc, #140]	; (1d4 <Reset_Handler+0xbc>)
 146:	4924      	ldr	r1, [pc, #144]	; (1d8 <Reset_Handler+0xc0>)
 148:	588c      	ldr	r4, [r1, r2]
 14a:	5084      	str	r4, [r0, r2]
 14c:	3204      	adds	r2, #4
        /* Initialize the relocate segment */
        pSrc = &_etext;
        pDest = &_srelocate;

        if (pSrc != pDest) {
                for (; pDest < &_erelocate;) {
 14e:	429a      	cmp	r2, r3
 150:	d1fa      	bne.n	148 <Reset_Handler+0x30>
 152:	e7ea      	b.n	12a <Reset_Handler+0x12>
 154:	4a25      	ldr	r2, [pc, #148]	; (1ec <Reset_Handler+0xd4>)
 156:	4b22      	ldr	r3, [pc, #136]	; (1e0 <Reset_Handler+0xc8>)
 158:	3303      	adds	r3, #3
 15a:	1a9b      	subs	r3, r3, r2
 15c:	089b      	lsrs	r3, r3, #2
 15e:	3301      	adds	r3, #1
 160:	009b      	lsls	r3, r3, #2
                        *pDest++ = *pSrc++;
                }
        }

        /* Clear the zero segment */
        for (pDest = &_szero; pDest < &_ezero;) {
 162:	2200      	movs	r2, #0
                *pDest++ = 0;
 164:	481f      	ldr	r0, [pc, #124]	; (1e4 <Reset_Handler+0xcc>)
 166:	2100      	movs	r1, #0
 168:	1814      	adds	r4, r2, r0
 16a:	6021      	str	r1, [r4, #0]
 16c:	3204      	adds	r2, #4
                        *pDest++ = *pSrc++;
                }
        }

        /* Clear the zero segment */
        for (pDest = &_szero; pDest < &_ezero;) {
 16e:	429a      	cmp	r2, r3
 170:	d1fa      	bne.n	168 <Reset_Handler+0x50>
                *pDest++ = 0;
        }

        /* Set the vector table base address */
        pSrc = (uint32_t *) & _sfixed;
        SCB->VTOR = ((uint32_t) pSrc & SCB_VTOR_TBLOFF_Msk);
 172:	4a1f      	ldr	r2, [pc, #124]	; (1f0 <Reset_Handler+0xd8>)
 174:	21ff      	movs	r1, #255	; 0xff
 176:	4b1f      	ldr	r3, [pc, #124]	; (1f4 <Reset_Handler+0xdc>)
 178:	438b      	bics	r3, r1
 17a:	6093      	str	r3, [r2, #8]

        /* Change default QOS values to have the best performance and correct USB behaviour */
        SBMATRIX->SFR[SBMATRIX_SLAVE_HMCRAMC0].reg = 2;
 17c:	39fd      	subs	r1, #253	; 0xfd
 17e:	2390      	movs	r3, #144	; 0x90
 180:	005b      	lsls	r3, r3, #1
 182:	4a1d      	ldr	r2, [pc, #116]	; (1f8 <Reset_Handler+0xe0>)
 184:	50d1      	str	r1, [r2, r3]
#if defined(ID_USB)
        USB->DEVICE.QOSCTRL.bit.CQOS = 2;
 186:	481d      	ldr	r0, [pc, #116]	; (1fc <Reset_Handler+0xe4>)
 188:	78c3      	ldrb	r3, [r0, #3]
 18a:	2403      	movs	r4, #3
 18c:	43a3      	bics	r3, r4
 18e:	2202      	movs	r2, #2
 190:	4313      	orrs	r3, r2
 192:	70c3      	strb	r3, [r0, #3]
        USB->DEVICE.QOSCTRL.bit.DQOS = 2;
 194:	78c3      	ldrb	r3, [r0, #3]
 196:	260c      	movs	r6, #12
 198:	43b3      	bics	r3, r6
 19a:	2108      	movs	r1, #8
 19c:	430b      	orrs	r3, r1
 19e:	70c3      	strb	r3, [r0, #3]
#endif
        DMAC->QOSCTRL.bit.DQOS = 2;
 1a0:	4b17      	ldr	r3, [pc, #92]	; (200 <Reset_Handler+0xe8>)
 1a2:	7b98      	ldrb	r0, [r3, #14]
 1a4:	2530      	movs	r5, #48	; 0x30
 1a6:	43a8      	bics	r0, r5
 1a8:	0005      	movs	r5, r0
 1aa:	2020      	movs	r0, #32
 1ac:	4328      	orrs	r0, r5
 1ae:	7398      	strb	r0, [r3, #14]
        DMAC->QOSCTRL.bit.FQOS = 2;
 1b0:	7b98      	ldrb	r0, [r3, #14]
 1b2:	43b0      	bics	r0, r6
 1b4:	4301      	orrs	r1, r0
 1b6:	7399      	strb	r1, [r3, #14]
        DMAC->QOSCTRL.bit.WRBQOS = 2;
 1b8:	7b99      	ldrb	r1, [r3, #14]
 1ba:	43a1      	bics	r1, r4
 1bc:	430a      	orrs	r2, r1
 1be:	739a      	strb	r2, [r3, #14]

        /* Overwriting the default value of the NVMCTRL.CTRLB.MANW bit (errata reference 13134) */
        NVMCTRL->CTRLB.bit.MANW = 1;
 1c0:	4a10      	ldr	r2, [pc, #64]	; (204 <Reset_Handler+0xec>)
 1c2:	6851      	ldr	r1, [r2, #4]
 1c4:	2380      	movs	r3, #128	; 0x80
 1c6:	430b      	orrs	r3, r1
 1c8:	6053      	str	r3, [r2, #4]

        /* Initialize the C library */
        __libc_init_array();
 1ca:	4b0f      	ldr	r3, [pc, #60]	; (208 <Reset_Handler+0xf0>)
 1cc:	4798      	blx	r3

        /* Branch to main function */
        main();
 1ce:	4b0f      	ldr	r3, [pc, #60]	; (20c <Reset_Handler+0xf4>)
 1d0:	4798      	blx	r3
 1d2:	e7fe      	b.n	1d2 <Reset_Handler+0xba>
 1d4:	20000000 	.word	0x20000000
 1d8:	00000be0 	.word	0x00000be0
 1dc:	2000002c 	.word	0x2000002c
 1e0:	200000a4 	.word	0x200000a4
 1e4:	2000002c 	.word	0x2000002c
 1e8:	20000004 	.word	0x20000004
 1ec:	20000030 	.word	0x20000030
 1f0:	e000ed00 	.word	0xe000ed00
 1f4:	00000000 	.word	0x00000000
 1f8:	41007000 	.word	0x41007000
 1fc:	41005000 	.word	0x41005000
 200:	41004800 	.word	0x41004800
 204:	41004000 	.word	0x41004000
 208:	00000b5d 	.word	0x00000b5d
 20c:	00000349 	.word	0x00000349

00000210 <SystemInit>:
 *         Initialize the System and update the SystemCoreClock variable.
 */
void SystemInit(void)
{
	// Keep the default device state after reset
	SystemCoreClock = __SYSTEM_CLOCK;
 210:	4a01      	ldr	r2, [pc, #4]	; (218 <SystemInit+0x8>)
 212:	4b02      	ldr	r3, [pc, #8]	; (21c <SystemInit+0xc>)
 214:	601a      	str	r2, [r3, #0]
	return;
}
 216:	4770      	bx	lr
 218:	000f4240 	.word	0x000f4240
 21c:	20000000 	.word	0x20000000

00000220 <init>:

#include "sam.h"
#include <util.h>
#include <boardDefines.h>

void init() {
 220:	b5f8      	push	{r3, r4, r5, r6, r7, lr}

    /* Set 1 Flash Wait State for 48MHz, cf tables 20.9 and 35.27 in SAMD21 Datasheet */
    NVMCTRL->CTRLB.bit.RWS = NVMCTRL_CTRLB_RWS_HALF_Val;
 222:	4a3f      	ldr	r2, [pc, #252]	; (320 <init+0x100>)
 224:	6853      	ldr	r3, [r2, #4]
 226:	211e      	movs	r1, #30
 228:	438b      	bics	r3, r1
 22a:	2402      	movs	r4, #2
 22c:	4323      	orrs	r3, r4
 22e:	6053      	str	r3, [r2, #4]


    /* Turn on the digital interface clock */
    PM->APBAMASK.reg |= PM_APBAMASK_GCLK;
 230:	4a3c      	ldr	r2, [pc, #240]	; (324 <init+0x104>)
 232:	6991      	ldr	r1, [r2, #24]
 234:	2308      	movs	r3, #8
 236:	430b      	orrs	r3, r1
 238:	6193      	str	r3, [r2, #24]

    SystemInit();
 23a:	4b3b      	ldr	r3, [pc, #236]	; (328 <init+0x108>)
 23c:	4798      	blx	r3
    GclkInit(0);
 23e:	2000      	movs	r0, #0
 240:	4b3a      	ldr	r3, [pc, #232]	; (32c <init+0x10c>)
 242:	4798      	blx	r3
    RtcInit();
 244:	4b3a      	ldr	r3, [pc, #232]	; (330 <init+0x110>)
 246:	4798      	blx	r3
    delayInit();
 248:	4b3a      	ldr	r3, [pc, #232]	; (334 <init+0x114>)
 24a:	4798      	blx	r3
    PORT->Group[p.group].PINCFG[p.pin].bit.PMUXEN = 1;
}


inline static void pinGpio(Pin p) {
    PORT->Group[p.group].PINCFG[p.pin].bit.PMUXEN = 0;
 24c:	4b3a      	ldr	r3, [pc, #232]	; (338 <init+0x118>)
 24e:	2640      	movs	r6, #64	; 0x40
 250:	5d99      	ldrb	r1, [r3, r6]
 252:	2201      	movs	r2, #1
 254:	4391      	bics	r1, r2
 256:	5599      	strb	r1, [r3, r6]
}


inline static void pinOut(Pin p) {
    pinGpio(p);
    PORT->Group[p.group].DIRSET.reg = (1<<p.pin);
 258:	609a      	str	r2, [r3, #8]
    PORT->Group[p.group].PINCFG[p.pin].bit.PMUXEN = 1;
}


inline static void pinGpio(Pin p) {
    PORT->Group[p.group].PINCFG[p.pin].bit.PMUXEN = 0;
 25a:	2141      	movs	r1, #65	; 0x41
 25c:	5c58      	ldrb	r0, [r3, r1]
 25e:	4390      	bics	r0, r2
 260:	5458      	strb	r0, [r3, r1]
}


inline static void pinIn(Pin p) {
    pinGpio(p);
    PORT->Group[p.group].PINCFG[p.pin].bit.INEN = 1;
 262:	5c5d      	ldrb	r5, [r3, r1]
 264:	2002      	movs	r0, #2
 266:	4305      	orrs	r5, r0
 268:	545d      	strb	r5, [r3, r1]
    PORT->Group[p.group].DIRCLR.reg = (1<<p.pin);
 26a:	605c      	str	r4, [r3, #4]

inline static void pinMux(Pin p) {
    if (p.pin & 1) {
        PORT->Group[p.group].PMUX[p.pin/2].bit.PMUXO = p.mux;
    } else {
        PORT->Group[p.group].PMUX[p.pin/2].bit.PMUXE = p.mux;
 26c:	2530      	movs	r5, #48	; 0x30
 26e:	5d5c      	ldrb	r4, [r3, r5]
 270:	270f      	movs	r7, #15
 272:	43bc      	bics	r4, r7
 274:	2703      	movs	r7, #3
 276:	433c      	orrs	r4, r7
 278:	555c      	strb	r4, [r3, r5]
    }
    PORT->Group[p.group].PINCFG[p.pin].bit.PMUXEN = 1;
 27a:	5d9f      	ldrb	r7, [r3, r6]
 27c:	2401      	movs	r4, #1
 27e:	4327      	orrs	r7, r4
 280:	559f      	strb	r7, [r3, r6]
    return (PORT->Group[p.group].IN.reg & (1<<p.pin)) != 0;
}

inline static void pinMux(Pin p) {
    if (p.pin & 1) {
        PORT->Group[p.group].PMUX[p.pin/2].bit.PMUXO = p.mux;
 282:	5d5e      	ldrb	r6, [r3, r5]
 284:	270f      	movs	r7, #15
 286:	403e      	ands	r6, r7
 288:	2730      	movs	r7, #48	; 0x30
 28a:	433e      	orrs	r6, r7
 28c:	555e      	strb	r6, [r3, r5]
    } else {
        PORT->Group[p.group].PMUX[p.pin/2].bit.PMUXE = p.mux;
    }
    PORT->Group[p.group].PINCFG[p.pin].bit.PMUXEN = 1;
 28e:	5c5d      	ldrb	r5, [r3, r1]
 290:	432c      	orrs	r4, r5
 292:	545c      	strb	r4, [r3, r1]
}


inline static void pinGpio(Pin p) {
    PORT->Group[p.group].PINCFG[p.pin].bit.PMUXEN = 0;
 294:	24c9      	movs	r4, #201	; 0xc9
 296:	5d19      	ldrb	r1, [r3, r4]
 298:	4391      	bics	r1, r2
 29a:	5519      	strb	r1, [r3, r4]
}


inline static void pinOut(Pin p) {
    pinGpio(p);
    PORT->Group[p.group].DIRSET.reg = (1<<p.pin);
 29c:	3438      	adds	r4, #56	; 0x38
 29e:	34ff      	adds	r4, #255	; 0xff
 2a0:	2188      	movs	r1, #136	; 0x88
 2a2:	505c      	str	r4, [r3, r1]
    PORT->Group[p.group].PINCFG[p.pin].bit.PMUXEN = 1;
}


inline static void pinGpio(Pin p) {
    PORT->Group[p.group].PINCFG[p.pin].bit.PMUXEN = 0;
 2a4:	3ca9      	subs	r4, #169	; 0xa9
 2a6:	3cff      	subs	r4, #255	; 0xff
 2a8:	5d19      	ldrb	r1, [r3, r4]
 2aa:	4391      	bics	r1, r2
 2ac:	5519      	strb	r1, [r3, r4]
}


inline static void pinOut(Pin p) {
    pinGpio(p);
    PORT->Group[p.group].DIRSET.reg = (1<<p.pin);
 2ae:	2180      	movs	r1, #128	; 0x80
 2b0:	0449      	lsls	r1, r1, #17
 2b2:	6099      	str	r1, [r3, #8]
    PORT->Group[p.group].PINCFG[p.pin].bit.PMUXEN = 1;
}


inline static void pinGpio(Pin p) {
    PORT->Group[p.group].PINCFG[p.pin].bit.PMUXEN = 0;
 2b4:	2151      	movs	r1, #81	; 0x51
 2b6:	5c5c      	ldrb	r4, [r3, r1]
 2b8:	4394      	bics	r4, r2
 2ba:	545c      	strb	r4, [r3, r1]
}


inline static void pinIn(Pin p) {
    pinGpio(p);
    PORT->Group[p.group].PINCFG[p.pin].bit.INEN = 1;
 2bc:	5c5c      	ldrb	r4, [r3, r1]
 2be:	4304      	orrs	r4, r0
 2c0:	545c      	strb	r4, [r3, r1]
    PORT->Group[p.group].DIRCLR.reg = (1<<p.pin);
 2c2:	2180      	movs	r1, #128	; 0x80
 2c4:	0289      	lsls	r1, r1, #10
 2c6:	6059      	str	r1, [r3, #4]
    PORT->Group[p.group].PINCFG[p.pin].bit.PMUXEN = 1;
}


inline static void pinGpio(Pin p) {
    PORT->Group[p.group].PINCFG[p.pin].bit.PMUXEN = 0;
 2c8:	2457      	movs	r4, #87	; 0x57
 2ca:	5d19      	ldrb	r1, [r3, r4]
 2cc:	4391      	bics	r1, r2
 2ce:	5519      	strb	r1, [r3, r4]
}


inline static void pinOut(Pin p) {
    pinGpio(p);
    PORT->Group[p.group].DIRSET.reg = (1<<p.pin);
 2d0:	2180      	movs	r1, #128	; 0x80
 2d2:	0409      	lsls	r1, r1, #16
 2d4:	6099      	str	r1, [r3, #8]
    PORT->Group[p.group].PINCFG[p.pin].bit.PMUXEN = 1;
}


inline static void pinGpio(Pin p) {
    PORT->Group[p.group].PINCFG[p.pin].bit.PMUXEN = 0;
 2d6:	3c01      	subs	r4, #1
 2d8:	5d19      	ldrb	r1, [r3, r4]
 2da:	4391      	bics	r1, r2
 2dc:	5519      	strb	r1, [r3, r4]
}


inline static void pinOut(Pin p) {
    pinGpio(p);
    PORT->Group[p.group].DIRSET.reg = (1<<p.pin);
 2de:	2180      	movs	r1, #128	; 0x80
 2e0:	03c9      	lsls	r1, r1, #15
 2e2:	6099      	str	r1, [r3, #8]
    PORT->Group[p.group].PINCFG[p.pin].bit.PMUXEN = 1;
}


inline static void pinGpio(Pin p) {
    PORT->Group[p.group].PINCFG[p.pin].bit.PMUXEN = 0;
 2e4:	2155      	movs	r1, #85	; 0x55
 2e6:	5c5c      	ldrb	r4, [r3, r1]
 2e8:	4394      	bics	r4, r2
 2ea:	545c      	strb	r4, [r3, r1]
}


inline static void pinIn(Pin p) {
    pinGpio(p);
    PORT->Group[p.group].PINCFG[p.pin].bit.INEN = 1;
 2ec:	5c5c      	ldrb	r4, [r3, r1]
 2ee:	4320      	orrs	r0, r4
 2f0:	5458      	strb	r0, [r3, r1]
    PORT->Group[p.group].DIRCLR.reg = (1<<p.pin);
 2f2:	2180      	movs	r1, #128	; 0x80
 2f4:	0389      	lsls	r1, r1, #14
 2f6:	6059      	str	r1, [r3, #4]
    PORT->Group[p.group].PINCFG[p.pin].bit.PMUXEN = 1;
}


inline static void pinGpio(Pin p) {
    PORT->Group[p.group].PINCFG[p.pin].bit.PMUXEN = 0;
 2f8:	2050      	movs	r0, #80	; 0x50
 2fa:	5c19      	ldrb	r1, [r3, r0]
 2fc:	4391      	bics	r1, r2
 2fe:	5419      	strb	r1, [r3, r0]
}


inline static void pinOut(Pin p) {
    pinGpio(p);
    PORT->Group[p.group].DIRSET.reg = (1<<p.pin);
 300:	2280      	movs	r2, #128	; 0x80
 302:	0252      	lsls	r2, r2, #9
 304:	609a      	str	r2, [r3, #8]
}

inline static void pinHigh(Pin p) {
    PORT->Group[p.group].OUTSET.reg = (1<<p.pin);
 306:	619a      	str	r2, [r3, #24]
    //pinOut(cs_mem);
    // pinHigh(cs_mem);
    pinOut(cs_tx);
    pinHigh(cs_tx);

    sercomClockEnable(USART1, 4, 8);
 308:	2208      	movs	r2, #8
 30a:	2104      	movs	r1, #4
 30c:	384f      	subs	r0, #79	; 0x4f
 30e:	4b0b      	ldr	r3, [pc, #44]	; (33c <init+0x11c>)
 310:	4798      	blx	r3
    sercomUartInit(USART1,1,0,63860);
 312:	4b0b      	ldr	r3, [pc, #44]	; (340 <init+0x120>)
 314:	2200      	movs	r2, #0
 316:	2101      	movs	r1, #1
 318:	2001      	movs	r0, #1
 31a:	4c0a      	ldr	r4, [pc, #40]	; (344 <init+0x124>)
 31c:	47a0      	blx	r4
//     sercomClockEnable(USART1, 4, 8);
//     sercomUartInit(USART1,3,1,45403);

    //TC1Init();

}
 31e:	bdf8      	pop	{r3, r4, r5, r6, r7, pc}
 320:	41004000 	.word	0x41004000
 324:	40000400 	.word	0x40000400
 328:	00000211 	.word	0x00000211
 32c:	0000086d 	.word	0x0000086d
 330:	000008e5 	.word	0x000008e5
 334:	000009ed 	.word	0x000009ed
 338:	41004400 	.word	0x41004400
 33c:	00000aad 	.word	0x00000aad
 340:	0000f974 	.word	0x0000f974
 344:	00000b15 	.word	0x00000b15

00000348 <main>:
// }

u8_t packet[30] = {0x13, 0x0d, 0x89, 0x0a, 0x1c, 0xdb, 0xae, 0x32, 0x20, 0x9a, 0x50, 0xee, 0x40, 0x78, 0x36, 0xfd, 0x12, 0x49, 0x32, 0xf6, 0x9e, 0x7d, 0x49, 0xdc, 0xad, 0x4f, 0x14, 0xf2 };


int main(void) {
 348:	b5f0      	push	{r4, r5, r6, r7, lr}
 34a:	464f      	mov	r7, r9
 34c:	4646      	mov	r6, r8
 34e:	b4c0      	push	{r6, r7}
 350:	b083      	sub	sp, #12
    /* Initialize the SAM system */
    init();
 352:	4b21      	ldr	r3, [pc, #132]	; (3d8 <main+0x90>)
 354:	4798      	blx	r3
//     u8_t ID2 = byteIn(spiSCK, spiMISO);
//     u8_t ID3 = byteIn(spiSCK, spiMISO);
//     pinHigh(cs_mem);


    CC1101_reset_chip();
 356:	4b21      	ldr	r3, [pc, #132]	; (3dc <main+0x94>)
 358:	4798      	blx	r3
    delay_ms(1000);
 35a:	20fa      	movs	r0, #250	; 0xfa
 35c:	0080      	lsls	r0, r0, #2
 35e:	4b20      	ldr	r3, [pc, #128]	; (3e0 <main+0x98>)
 360:	4798      	blx	r3

    //sendreg();


    CC1101_cmd_strobe(CC1101_SFSTXON);
 362:	2031      	movs	r0, #49	; 0x31
 364:	4c1f      	ldr	r4, [pc, #124]	; (3e4 <main+0x9c>)
 366:	47a0      	blx	r4


    cc1101_write_reg(CC1101_PATABLE, 0xC0);
 368:	21c0      	movs	r1, #192	; 0xc0
 36a:	203e      	movs	r0, #62	; 0x3e
 36c:	4b1e      	ldr	r3, [pc, #120]	; (3e8 <main+0xa0>)
 36e:	4798      	blx	r3

    CC1101_cmd_strobe(CC1101_SIDLE);
 370:	2036      	movs	r0, #54	; 0x36
 372:	47a0      	blx	r4



    while (1) {

        delay_ms(1000);
 374:	4d1a      	ldr	r5, [pc, #104]	; (3e0 <main+0x98>)
        pinHigh(LEDPin);
        delay_ms(200);

        //volatile bool sent = CC1101_tx_data(packet, 0x1E);

        cc1101_write_reg(CC1101_TXFIFO, 31);
 376:	4b1c      	ldr	r3, [pc, #112]	; (3e8 <main+0xa0>)
 378:	4698      	mov	r8, r3



    while (1) {

        delay_ms(1000);
 37a:	20fa      	movs	r0, #250	; 0xfa
 37c:	0080      	lsls	r0, r0, #2
 37e:	47a8      	blx	r5
 380:	4c1a      	ldr	r4, [pc, #104]	; (3ec <main+0xa4>)
 382:	2780      	movs	r7, #128	; 0x80
 384:	047f      	lsls	r7, r7, #17
 386:	61a7      	str	r7, [r4, #24]
 388:	2680      	movs	r6, #128	; 0x80
 38a:	00b6      	lsls	r6, r6, #2
 38c:	2398      	movs	r3, #152	; 0x98
 38e:	50e6      	str	r6, [r4, r3]
//         //TX packed over VHF

        pinHigh(AMP_EN);
        pinHigh(LEDPin);
        delay_ms(200);
 390:	20c8      	movs	r0, #200	; 0xc8
 392:	47a8      	blx	r5

        //volatile bool sent = CC1101_tx_data(packet, 0x1E);

        cc1101_write_reg(CC1101_TXFIFO, 31);
 394:	211f      	movs	r1, #31
 396:	203f      	movs	r0, #63	; 0x3f
 398:	47c0      	blx	r8
        CC1101_write_burst_reg(CC1101_TXFIFO, packet, 30);
 39a:	221e      	movs	r2, #30
 39c:	4914      	ldr	r1, [pc, #80]	; (3f0 <main+0xa8>)
 39e:	203f      	movs	r0, #63	; 0x3f
 3a0:	4b14      	ldr	r3, [pc, #80]	; (3f4 <main+0xac>)
 3a2:	4798      	blx	r3

        CC1101_cmd_strobe(CC1101_SIDLE);
 3a4:	2036      	movs	r0, #54	; 0x36
 3a6:	4b0f      	ldr	r3, [pc, #60]	; (3e4 <main+0x9c>)
 3a8:	4699      	mov	r9, r3
 3aa:	4798      	blx	r3
        CC1101_cmd_strobe(CC1101_STX);
 3ac:	2035      	movs	r0, #53	; 0x35
 3ae:	47c8      	blx	r9

        volatile u8_t status2 = CC1101_read_status_reg(CC1101_MARCSTATE);
 3b0:	20f5      	movs	r0, #245	; 0xf5
 3b2:	4b11      	ldr	r3, [pc, #68]	; (3f8 <main+0xb0>)
 3b4:	4798      	blx	r3
 3b6:	466b      	mov	r3, sp
 3b8:	71d8      	strb	r0, [r3, #7]
}


inline static void pinLow(Pin p) {
    PORT->Group[p.group].OUTCLR.reg = (1<<p.pin);
 3ba:	6167      	str	r7, [r4, #20]

        pinLow(AMP_EN);
        delay_ms(50);
 3bc:	2032      	movs	r0, #50	; 0x32
 3be:	47a8      	blx	r5
 3c0:	2394      	movs	r3, #148	; 0x94
 3c2:	50e6      	str	r6, [r4, r3]


        //parseGPSMessage();

        //myMessage.messageReady == true && myMessage.transmitMessage == true
        if (myMessage.messageReady == true) {
 3c4:	4b0d      	ldr	r3, [pc, #52]	; (3fc <main+0xb4>)
 3c6:	785b      	ldrb	r3, [r3, #1]
 3c8:	2b00      	cmp	r3, #0
 3ca:	d0d6      	beq.n	37a <main+0x32>
            //pinToggle(LEDPin);
            myMessage.messageReady = false;
 3cc:	4b0b      	ldr	r3, [pc, #44]	; (3fc <main+0xb4>)
 3ce:	2200      	movs	r2, #0
 3d0:	705a      	strb	r2, [r3, #1]
            myMessage.transmitMessage = false;
 3d2:	701a      	strb	r2, [r3, #0]
 3d4:	e7d1      	b.n	37a <main+0x32>
 3d6:	46c0      	nop			; (mov r8, r8)
 3d8:	00000221 	.word	0x00000221
 3dc:	0000079d 	.word	0x0000079d
 3e0:	00000a49 	.word	0x00000a49
 3e4:	000004a9 	.word	0x000004a9
 3e8:	000005b5 	.word	0x000005b5
 3ec:	41004400 	.word	0x41004400
 3f0:	20000004 	.word	0x20000004
 3f4:	00000539 	.word	0x00000539
 3f8:	000004e9 	.word	0x000004e9
 3fc:	2000004c 	.word	0x2000004c

00000400 <byteOut>:





void byteOut(Pin SCK_PIN, Pin MOSI_PIN, uint8_t byte) {
 400:	b5f0      	push	{r4, r5, r6, r7, lr}
 402:	b085      	sub	sp, #20
 404:	0c03      	lsrs	r3, r0, #16
 406:	0c14      	lsrs	r4, r2, #16
 408:	a90a      	add	r1, sp, #40	; 0x28
 40a:	7809      	ldrb	r1, [r1, #0]
 40c:	b2e6      	uxtb	r6, r4
 40e:	b2dc      	uxtb	r4, r3
 410:	0e00      	lsrs	r0, r0, #24
 412:	2701      	movs	r7, #1
 414:	003d      	movs	r5, r7
 416:	4085      	lsls	r5, r0
    pinGpio(p);
    PORT->Group[p.group].DIRSET.reg = (1<<p.pin);
}

inline static void pinHigh(Pin p) {
    PORT->Group[p.group].OUTSET.reg = (1<<p.pin);
 418:	0e12      	lsrs	r2, r2, #24
 41a:	4097      	lsls	r7, r2
 41c:	2308      	movs	r3, #8
}


inline static void pinLow(Pin p) {
    PORT->Group[p.group].OUTCLR.reg = (1<<p.pin);
 41e:	01e0      	lsls	r0, r4, #7
 420:	4a0a      	ldr	r2, [pc, #40]	; (44c <byteOut+0x4c>)
 422:	4694      	mov	ip, r2
 424:	4460      	add	r0, ip
 426:	01f4      	lsls	r4, r6, #7
 428:	4464      	add	r4, ip
 42a:	6145      	str	r5, [r0, #20]

    for (uint8_t i = 0; i<8; ++i) {
        pinLow(SCK_PIN);
        if (byte & 0x80) {
 42c:	b24a      	sxtb	r2, r1
 42e:	2a00      	cmp	r2, #0
 430:	da01      	bge.n	436 <byteOut+0x36>
    pinGpio(p);
    PORT->Group[p.group].DIRSET.reg = (1<<p.pin);
}

inline static void pinHigh(Pin p) {
    PORT->Group[p.group].OUTSET.reg = (1<<p.pin);
 432:	61a7      	str	r7, [r4, #24]
 434:	e000      	b.n	438 <byteOut+0x38>
}


inline static void pinLow(Pin p) {
    PORT->Group[p.group].OUTCLR.reg = (1<<p.pin);
 436:	6167      	str	r7, [r4, #20]
    pinGpio(p);
    PORT->Group[p.group].DIRSET.reg = (1<<p.pin);
}

inline static void pinHigh(Pin p) {
    PORT->Group[p.group].OUTSET.reg = (1<<p.pin);
 438:	6185      	str	r5, [r0, #24]
            pinHigh(MOSI_PIN);
        } else {
            pinLow(MOSI_PIN);
        }
        pinHigh(SCK_PIN);
        byte <<= 1;
 43a:	0049      	lsls	r1, r1, #1
 43c:	b2c9      	uxtb	r1, r1
 43e:	3b01      	subs	r3, #1
 440:	b2db      	uxtb	r3, r3



void byteOut(Pin SCK_PIN, Pin MOSI_PIN, uint8_t byte) {

    for (uint8_t i = 0; i<8; ++i) {
 442:	2b00      	cmp	r3, #0
 444:	d1f1      	bne.n	42a <byteOut+0x2a>
            pinLow(MOSI_PIN);
        }
        pinHigh(SCK_PIN);
        byte <<= 1;
    }
}
 446:	b005      	add	sp, #20
 448:	bdf0      	pop	{r4, r5, r6, r7, pc}
 44a:	46c0      	nop			; (mov r8, r8)
 44c:	41004400 	.word	0x41004400

00000450 <byteIn>:

uint8_t byteIn(Pin SCK_PIN, Pin MISO_PIN) {
 450:	b5f0      	push	{r4, r5, r6, r7, lr}
 452:	b085      	sub	sp, #20
 454:	0c04      	lsrs	r4, r0, #16
 456:	9002      	str	r0, [sp, #8]
 458:	9103      	str	r1, [sp, #12]
 45a:	0c11      	lsrs	r1, r2, #16
 45c:	0017      	movs	r7, r2
 45e:	9200      	str	r2, [sp, #0]
 460:	9301      	str	r3, [sp, #4]
}


inline static void pinLow(Pin p) {
    PORT->Group[p.group].OUTCLR.reg = (1<<p.pin);
 462:	b2e4      	uxtb	r4, r4
 464:	0e05      	lsrs	r5, r0, #24
 466:	2601      	movs	r6, #1
 468:	0033      	movs	r3, r6
 46a:	40ab      	lsls	r3, r5
 46c:	001d      	movs	r5, r3
    PORT->Group[p.group].PINCFG[p.pin].bit.PMUXEN = 1;
}


inline static bool pinRead(Pin p) {
    return (PORT->Group[p.group].IN.reg & (1<<p.pin)) != 0;
 46e:	b2ca      	uxtb	r2, r1
 470:	0e3f      	lsrs	r7, r7, #24
 472:	40be      	lsls	r6, r7
 474:	2108      	movs	r1, #8
    uint8_t byte = 0x00;
 476:	2000      	movs	r0, #0
    PORT->Group[p.group].OUTSET.reg = (1<<p.pin);
}


inline static void pinLow(Pin p) {
    PORT->Group[p.group].OUTCLR.reg = (1<<p.pin);
 478:	01e4      	lsls	r4, r4, #7
 47a:	4b0a      	ldr	r3, [pc, #40]	; (4a4 <byteIn+0x54>)
 47c:	469c      	mov	ip, r3
 47e:	4464      	add	r4, ip
    PORT->Group[p.group].PINCFG[p.pin].bit.PMUXEN = 1;
}


inline static bool pinRead(Pin p) {
    return (PORT->Group[p.group].IN.reg & (1<<p.pin)) != 0;
 480:	01d2      	lsls	r2, r2, #7
 482:	4462      	add	r2, ip
    PORT->Group[p.group].OUTSET.reg = (1<<p.pin);
}


inline static void pinLow(Pin p) {
    PORT->Group[p.group].OUTCLR.reg = (1<<p.pin);
 484:	6165      	str	r5, [r4, #20]
    PORT->Group[p.group].PINCFG[p.pin].bit.PMUXEN = 1;
}


inline static bool pinRead(Pin p) {
    return (PORT->Group[p.group].IN.reg & (1<<p.pin)) != 0;
 486:	6a13      	ldr	r3, [r2, #32]

    for (uint8_t i = 0; i<8; ++i) {
        pinLow(SCK_PIN);
        byte = (byte << 1 ) | pinRead(MISO_PIN);
 488:	4033      	ands	r3, r6
 48a:	1e5f      	subs	r7, r3, #1
 48c:	41bb      	sbcs	r3, r7
 48e:	0040      	lsls	r0, r0, #1
 490:	4303      	orrs	r3, r0
 492:	b2d8      	uxtb	r0, r3
    pinGpio(p);
    PORT->Group[p.group].DIRSET.reg = (1<<p.pin);
}

inline static void pinHigh(Pin p) {
    PORT->Group[p.group].OUTSET.reg = (1<<p.pin);
 494:	61a5      	str	r5, [r4, #24]
 496:	3901      	subs	r1, #1
 498:	b2c9      	uxtb	r1, r1
}

uint8_t byteIn(Pin SCK_PIN, Pin MISO_PIN) {
    uint8_t byte = 0x00;

    for (uint8_t i = 0; i<8; ++i) {
 49a:	2900      	cmp	r1, #0
 49c:	d1f2      	bne.n	484 <byteIn+0x34>
        pinLow(SCK_PIN);
        byte = (byte << 1 ) | pinRead(MISO_PIN);
        pinHigh(SCK_PIN);
    }
    return byte;
}
 49e:	b005      	add	sp, #20
 4a0:	bdf0      	pop	{r4, r5, r6, r7, pc}
 4a2:	46c0      	nop			; (mov r8, r8)
 4a4:	41004400 	.word	0x41004400

000004a8 <CC1101_cmd_strobe>:
u8_t cc1101_num_reg = (sizeof(cc1101_reg) / sizeof(cc1101_reg[0]));




void CC1101_cmd_strobe(u8_t reg) {
 4a8:	b510      	push	{r4, lr}
 4aa:	b082      	sub	sp, #8
}


inline static void pinLow(Pin p) {
    PORT->Group[p.group].OUTCLR.reg = (1<<p.pin);
 4ac:	2280      	movs	r2, #128	; 0x80
 4ae:	0252      	lsls	r2, r2, #9
 4b0:	4b0a      	ldr	r3, [pc, #40]	; (4dc <CC1101_cmd_strobe+0x34>)
 4b2:	615a      	str	r2, [r3, #20]
    PORT->Group[p.group].PINCFG[p.pin].bit.PMUXEN = 1;
}


inline static bool pinRead(Pin p) {
    return (PORT->Group[p.group].IN.reg & (1<<p.pin)) != 0;
 4b4:	0019      	movs	r1, r3

    cc1101_select();
    while(pinRead(spiMISO) == true);
 4b6:	2280      	movs	r2, #128	; 0x80
 4b8:	0392      	lsls	r2, r2, #14
 4ba:	6a0b      	ldr	r3, [r1, #32]
 4bc:	4213      	tst	r3, r2
 4be:	d1fc      	bne.n	4ba <CC1101_cmd_strobe+0x12>
    byteOut(spiSCK, spiMOSI, reg);
 4c0:	4907      	ldr	r1, [pc, #28]	; (4e0 <CC1101_cmd_strobe+0x38>)
 4c2:	9000      	str	r0, [sp, #0]
 4c4:	680a      	ldr	r2, [r1, #0]
 4c6:	684b      	ldr	r3, [r1, #4]
 4c8:	6888      	ldr	r0, [r1, #8]
 4ca:	68c9      	ldr	r1, [r1, #12]
 4cc:	4c05      	ldr	r4, [pc, #20]	; (4e4 <CC1101_cmd_strobe+0x3c>)
 4ce:	47a0      	blx	r4
    pinGpio(p);
    PORT->Group[p.group].DIRSET.reg = (1<<p.pin);
}

inline static void pinHigh(Pin p) {
    PORT->Group[p.group].OUTSET.reg = (1<<p.pin);
 4d0:	2280      	movs	r2, #128	; 0x80
 4d2:	0252      	lsls	r2, r2, #9
 4d4:	4b01      	ldr	r3, [pc, #4]	; (4dc <CC1101_cmd_strobe+0x34>)
 4d6:	619a      	str	r2, [r3, #24]
    cc1101_deselect();

}
 4d8:	b002      	add	sp, #8
 4da:	bd10      	pop	{r4, pc}
 4dc:	41004400 	.word	0x41004400
 4e0:	00000ba8 	.word	0x00000ba8
 4e4:	00000401 	.word	0x00000401

000004e8 <cc1101_read_reg>:

u8_t cc1101_read_reg(u8_t regester) {
 4e8:	b530      	push	{r4, r5, lr}
 4ea:	b083      	sub	sp, #12
}


inline static void pinLow(Pin p) {
    PORT->Group[p.group].OUTCLR.reg = (1<<p.pin);
 4ec:	2280      	movs	r2, #128	; 0x80
 4ee:	0252      	lsls	r2, r2, #9
 4f0:	4b0d      	ldr	r3, [pc, #52]	; (528 <cc1101_read_reg+0x40>)
 4f2:	615a      	str	r2, [r3, #20]
    PORT->Group[p.group].PINCFG[p.pin].bit.PMUXEN = 1;
}


inline static bool pinRead(Pin p) {
    return (PORT->Group[p.group].IN.reg & (1<<p.pin)) != 0;
 4f4:	0019      	movs	r1, r3
    u8_t reg = 0;

    cc1101_select();
    while(pinRead(spiMISO) == true);
 4f6:	2280      	movs	r2, #128	; 0x80
 4f8:	0392      	lsls	r2, r2, #14
 4fa:	6a0b      	ldr	r3, [r1, #32]
 4fc:	4213      	tst	r3, r2
 4fe:	d1fc      	bne.n	4fa <cc1101_read_reg+0x12>
    byteOut(spiSCK, spiMOSI, regester);
 500:	4c0a      	ldr	r4, [pc, #40]	; (52c <cc1101_read_reg+0x44>)
 502:	9000      	str	r0, [sp, #0]
 504:	6822      	ldr	r2, [r4, #0]
 506:	6863      	ldr	r3, [r4, #4]
 508:	68a0      	ldr	r0, [r4, #8]
 50a:	68e1      	ldr	r1, [r4, #12]
 50c:	4d08      	ldr	r5, [pc, #32]	; (530 <cc1101_read_reg+0x48>)
 50e:	47a8      	blx	r5
    reg = byteIn(spiSCK, spiMISO);
 510:	6922      	ldr	r2, [r4, #16]
 512:	6963      	ldr	r3, [r4, #20]
 514:	68a0      	ldr	r0, [r4, #8]
 516:	68e1      	ldr	r1, [r4, #12]
 518:	4c06      	ldr	r4, [pc, #24]	; (534 <cc1101_read_reg+0x4c>)
 51a:	47a0      	blx	r4
    pinGpio(p);
    PORT->Group[p.group].DIRSET.reg = (1<<p.pin);
}

inline static void pinHigh(Pin p) {
    PORT->Group[p.group].OUTSET.reg = (1<<p.pin);
 51c:	2280      	movs	r2, #128	; 0x80
 51e:	0252      	lsls	r2, r2, #9
 520:	4b01      	ldr	r3, [pc, #4]	; (528 <cc1101_read_reg+0x40>)
 522:	619a      	str	r2, [r3, #24]
    cc1101_deselect();

    return reg;
}
 524:	b003      	add	sp, #12
 526:	bd30      	pop	{r4, r5, pc}
 528:	41004400 	.word	0x41004400
 52c:	00000ba8 	.word	0x00000ba8
 530:	00000401 	.word	0x00000401
 534:	00000451 	.word	0x00000451

00000538 <CC1101_write_burst_reg>:



void CC1101_write_burst_reg(u8_t reg, u8_t* buffer, u8_t length) {
 538:	b5f0      	push	{r4, r5, r6, r7, lr}
 53a:	b087      	sub	sp, #28
 53c:	000c      	movs	r4, r1
 53e:	0015      	movs	r5, r2

    u8_t i = 0;
    u8_t add = reg | WRITE_BURST;
 540:	2340      	movs	r3, #64	; 0x40
 542:	4318      	orrs	r0, r3
}


inline static void pinLow(Pin p) {
    PORT->Group[p.group].OUTCLR.reg = (1<<p.pin);
 544:	2280      	movs	r2, #128	; 0x80
 546:	0252      	lsls	r2, r2, #9
 548:	4b17      	ldr	r3, [pc, #92]	; (5a8 <CC1101_write_burst_reg+0x70>)
 54a:	615a      	str	r2, [r3, #20]
    PORT->Group[p.group].PINCFG[p.pin].bit.PMUXEN = 1;
}


inline static bool pinRead(Pin p) {
    return (PORT->Group[p.group].IN.reg & (1<<p.pin)) != 0;
 54c:	0019      	movs	r1, r3

    cc1101_select();
    while(pinRead(spiMISO) == true);
 54e:	2280      	movs	r2, #128	; 0x80
 550:	0392      	lsls	r2, r2, #14
 552:	6a0b      	ldr	r3, [r1, #32]
 554:	4213      	tst	r3, r2
 556:	d1fc      	bne.n	552 <CC1101_write_burst_reg+0x1a>
    byteOut(spiSCK, spiMOSI, add);
 558:	4914      	ldr	r1, [pc, #80]	; (5ac <CC1101_write_burst_reg+0x74>)
 55a:	9000      	str	r0, [sp, #0]
 55c:	680a      	ldr	r2, [r1, #0]
 55e:	684b      	ldr	r3, [r1, #4]
 560:	6888      	ldr	r0, [r1, #8]
 562:	68c9      	ldr	r1, [r1, #12]
 564:	4e12      	ldr	r6, [pc, #72]	; (5b0 <CC1101_write_burst_reg+0x78>)
 566:	47b0      	blx	r6
    for(i = 0; i < length; i++) {
 568:	2d00      	cmp	r5, #0
 56a:	d017      	beq.n	59c <CC1101_write_burst_reg+0x64>
 56c:	0026      	movs	r6, r4
 56e:	3d01      	subs	r5, #1
 570:	b2ed      	uxtb	r5, r5
 572:	3501      	adds	r5, #1
 574:	1965      	adds	r5, r4, r5
        byteOut(spiSCK, spiMOSI, buffer[i]);
 576:	4b0d      	ldr	r3, [pc, #52]	; (5ac <CC1101_write_burst_reg+0x74>)
 578:	681f      	ldr	r7, [r3, #0]
 57a:	685a      	ldr	r2, [r3, #4]
 57c:	9203      	str	r2, [sp, #12]
 57e:	689a      	ldr	r2, [r3, #8]
 580:	9204      	str	r2, [sp, #16]
 582:	68db      	ldr	r3, [r3, #12]
 584:	9305      	str	r3, [sp, #20]
 586:	4c0a      	ldr	r4, [pc, #40]	; (5b0 <CC1101_write_burst_reg+0x78>)
 588:	7833      	ldrb	r3, [r6, #0]
 58a:	9300      	str	r3, [sp, #0]
 58c:	003a      	movs	r2, r7
 58e:	9b03      	ldr	r3, [sp, #12]
 590:	9804      	ldr	r0, [sp, #16]
 592:	9905      	ldr	r1, [sp, #20]
 594:	47a0      	blx	r4
 596:	3601      	adds	r6, #1
    u8_t add = reg | WRITE_BURST;

    cc1101_select();
    while(pinRead(spiMISO) == true);
    byteOut(spiSCK, spiMOSI, add);
    for(i = 0; i < length; i++) {
 598:	42ae      	cmp	r6, r5
 59a:	d1f5      	bne.n	588 <CC1101_write_burst_reg+0x50>
    pinGpio(p);
    PORT->Group[p.group].DIRSET.reg = (1<<p.pin);
}

inline static void pinHigh(Pin p) {
    PORT->Group[p.group].OUTSET.reg = (1<<p.pin);
 59c:	2280      	movs	r2, #128	; 0x80
 59e:	0252      	lsls	r2, r2, #9
 5a0:	4b01      	ldr	r3, [pc, #4]	; (5a8 <CC1101_write_burst_reg+0x70>)
 5a2:	619a      	str	r2, [r3, #24]
        byteOut(spiSCK, spiMOSI, buffer[i]);
    }
    cc1101_deselect();

}
 5a4:	b007      	add	sp, #28
 5a6:	bdf0      	pop	{r4, r5, r6, r7, pc}
 5a8:	41004400 	.word	0x41004400
 5ac:	00000ba8 	.word	0x00000ba8
 5b0:	00000401 	.word	0x00000401

000005b4 <cc1101_write_reg>:

void cc1101_write_reg(u8_t reg, u8_t value) {
 5b4:	b570      	push	{r4, r5, r6, lr}
 5b6:	b082      	sub	sp, #8
 5b8:	000e      	movs	r6, r1
}


inline static void pinLow(Pin p) {
    PORT->Group[p.group].OUTCLR.reg = (1<<p.pin);
 5ba:	2280      	movs	r2, #128	; 0x80
 5bc:	0252      	lsls	r2, r2, #9
 5be:	4b0e      	ldr	r3, [pc, #56]	; (5f8 <cc1101_write_reg+0x44>)
 5c0:	615a      	str	r2, [r3, #20]
    PORT->Group[p.group].PINCFG[p.pin].bit.PMUXEN = 1;
}


inline static bool pinRead(Pin p) {
    return (PORT->Group[p.group].IN.reg & (1<<p.pin)) != 0;
 5c2:	0019      	movs	r1, r3

    cc1101_select();
    CC1101_wait_miso();
 5c4:	2280      	movs	r2, #128	; 0x80
 5c6:	0392      	lsls	r2, r2, #14
 5c8:	6a0b      	ldr	r3, [r1, #32]
 5ca:	4213      	tst	r3, r2
 5cc:	d1fc      	bne.n	5c8 <cc1101_write_reg+0x14>
    byteOut(spiSCK, spiMOSI, reg);
 5ce:	4c0b      	ldr	r4, [pc, #44]	; (5fc <cc1101_write_reg+0x48>)
 5d0:	9000      	str	r0, [sp, #0]
 5d2:	6822      	ldr	r2, [r4, #0]
 5d4:	6863      	ldr	r3, [r4, #4]
 5d6:	68a0      	ldr	r0, [r4, #8]
 5d8:	68e1      	ldr	r1, [r4, #12]
 5da:	4d09      	ldr	r5, [pc, #36]	; (600 <cc1101_write_reg+0x4c>)
 5dc:	47a8      	blx	r5
    byteOut(spiSCK, spiMOSI, value);
 5de:	9600      	str	r6, [sp, #0]
 5e0:	6822      	ldr	r2, [r4, #0]
 5e2:	6863      	ldr	r3, [r4, #4]
 5e4:	68a0      	ldr	r0, [r4, #8]
 5e6:	68e1      	ldr	r1, [r4, #12]
 5e8:	47a8      	blx	r5
    pinGpio(p);
    PORT->Group[p.group].DIRSET.reg = (1<<p.pin);
}

inline static void pinHigh(Pin p) {
    PORT->Group[p.group].OUTSET.reg = (1<<p.pin);
 5ea:	2280      	movs	r2, #128	; 0x80
 5ec:	0252      	lsls	r2, r2, #9
 5ee:	4b02      	ldr	r3, [pc, #8]	; (5f8 <cc1101_write_reg+0x44>)
 5f0:	619a      	str	r2, [r3, #24]
    cc1101_deselect();

}
 5f2:	b002      	add	sp, #8
 5f4:	bd70      	pop	{r4, r5, r6, pc}
 5f6:	46c0      	nop			; (mov r8, r8)
 5f8:	41004400 	.word	0x41004400
 5fc:	00000ba8 	.word	0x00000ba8
 600:	00000401 	.word	0x00000401

00000604 <write_cc1101_status_regersters>:
    CC1101_set_RX_state(); // enter RX state

    return res;
}

void write_cc1101_status_regersters() {
 604:	b510      	push	{r4, lr}

    cc1101_write_reg(CC1101_IOCFG2,RF_IOCFG2);
 606:	212e      	movs	r1, #46	; 0x2e
 608:	2000      	movs	r0, #0
 60a:	4c62      	ldr	r4, [pc, #392]	; (794 <write_cc1101_status_regersters+0x190>)
 60c:	47a0      	blx	r4
    cc1101_write_reg(CC1101_IOCFG1,RF_IOCFG1);
 60e:	212e      	movs	r1, #46	; 0x2e
 610:	2001      	movs	r0, #1
 612:	47a0      	blx	r4
    cc1101_write_reg(CC1101_IOCFG0,RF_IOCFG0);
 614:	2106      	movs	r1, #6
 616:	2002      	movs	r0, #2
 618:	47a0      	blx	r4
    cc1101_write_reg(CC1101_FIFOTHR,RF_FIFOTHR);
 61a:	2107      	movs	r1, #7
 61c:	2003      	movs	r0, #3
 61e:	47a0      	blx	r4
    cc1101_write_reg(CC1101_SYNC1,RF_SYNC1);
 620:	21b5      	movs	r1, #181	; 0xb5
 622:	2004      	movs	r0, #4
 624:	47a0      	blx	r4
    cc1101_write_reg(CC1101_SYNC0,RF_SYNC0);
 626:	2147      	movs	r1, #71	; 0x47
 628:	2005      	movs	r0, #5
 62a:	47a0      	blx	r4
    cc1101_write_reg(CC1101_PKTLEN,RF_PKTLEN);
 62c:	21ff      	movs	r1, #255	; 0xff
 62e:	2006      	movs	r0, #6
 630:	47a0      	blx	r4
    cc1101_write_reg(CC1101_PKTCTRL1,RF_PKTCTRL1);
 632:	2106      	movs	r1, #6
 634:	2007      	movs	r0, #7
 636:	47a0      	blx	r4
    cc1101_write_reg(CC1101_PKTCTRL0,RF_PKTCTRL0);
 638:	2101      	movs	r1, #1
 63a:	2008      	movs	r0, #8
 63c:	47a0      	blx	r4
    cc1101_write_reg(CC1101_ADDR,RF_ADDR);
 63e:	21ff      	movs	r1, #255	; 0xff
 640:	2009      	movs	r0, #9
 642:	47a0      	blx	r4
    cc1101_write_reg(CC1101_CHANNR,RF_CHANNR);
 644:	2100      	movs	r1, #0
 646:	200a      	movs	r0, #10
 648:	47a0      	blx	r4
    cc1101_write_reg(CC1101_FSCTRL1,RF_FSCTRL1);
 64a:	2108      	movs	r1, #8
 64c:	200b      	movs	r0, #11
 64e:	47a0      	blx	r4
    cc1101_write_reg(CC1101_FSCTRL0,RF_FSCTRL0);
 650:	2100      	movs	r1, #0
 652:	200c      	movs	r0, #12
 654:	47a0      	blx	r4
    cc1101_write_reg(CC1101_FREQ2,RF_FREQ2);
 656:	2110      	movs	r1, #16
 658:	2010      	movs	r0, #16
 65a:	47a0      	blx	r4
    cc1101_write_reg(CC1101_FREQ1,RF_FREQ1);
 65c:	21a7      	movs	r1, #167	; 0xa7
 65e:	20b5      	movs	r0, #181	; 0xb5
 660:	47a0      	blx	r4
    cc1101_write_reg(CC1101_FREQ0,RF_FREQ0);
 662:	2162      	movs	r1, #98	; 0x62
 664:	202b      	movs	r0, #43	; 0x2b
 666:	47a0      	blx	r4
    cc1101_write_reg(CC1101_MDMCFG4,RF_MDMCFG4);
 668:	21f5      	movs	r1, #245	; 0xf5
 66a:	2010      	movs	r0, #16
 66c:	47a0      	blx	r4
    cc1101_write_reg(CC1101_MDMCFG3,RF_MDMCFG3);
 66e:	2183      	movs	r1, #131	; 0x83
 670:	2011      	movs	r0, #17
 672:	47a0      	blx	r4
    cc1101_write_reg(CC1101_MDMCFG2,RF_MDMCFG2);
 674:	2113      	movs	r1, #19
 676:	2012      	movs	r0, #18
 678:	47a0      	blx	r4
    cc1101_write_reg(CC1101_MDMCFG1,RF_MDMCFG1);
 67a:	2122      	movs	r1, #34	; 0x22
 67c:	2013      	movs	r0, #19
 67e:	47a0      	blx	r4
    cc1101_write_reg(CC1101_MDMCFG0,RF_MDMCFG0);
 680:	21f8      	movs	r1, #248	; 0xf8
 682:	2014      	movs	r0, #20
 684:	47a0      	blx	r4
    cc1101_write_reg(CC1101_DEVIATN,RF_DEVIATN);
 686:	2124      	movs	r1, #36	; 0x24
 688:	2015      	movs	r0, #21
 68a:	47a0      	blx	r4
    cc1101_write_reg(CC1101_MCSM2,RF_MCSM2);
 68c:	2107      	movs	r1, #7
 68e:	2016      	movs	r0, #22
 690:	47a0      	blx	r4
    cc1101_write_reg(CC1101_MCSM1,RF_MCSM1);
 692:	2120      	movs	r1, #32
 694:	2017      	movs	r0, #23
 696:	47a0      	blx	r4
    cc1101_write_reg(CC1101_MCSM0,RF_MCSM0);
 698:	2118      	movs	r1, #24
 69a:	2018      	movs	r0, #24
 69c:	47a0      	blx	r4
    cc1101_write_reg(CC1101_FOCCFG,RF_FOCCFG);
 69e:	2116      	movs	r1, #22
 6a0:	2019      	movs	r0, #25
 6a2:	47a0      	blx	r4
    cc1101_write_reg(CC1101_BSCFG,RF_BSCFG);
 6a4:	216c      	movs	r1, #108	; 0x6c
 6a6:	201a      	movs	r0, #26
 6a8:	47a0      	blx	r4
    cc1101_write_reg(CC1101_AGCCTRL2,RF_AGCCTRL2);
 6aa:	2143      	movs	r1, #67	; 0x43
 6ac:	201b      	movs	r0, #27
 6ae:	47a0      	blx	r4
    cc1101_write_reg(CC1101_AGCCTRL1,RF_AGCCTRL1);
 6b0:	2140      	movs	r1, #64	; 0x40
 6b2:	201c      	movs	r0, #28
 6b4:	47a0      	blx	r4
    cc1101_write_reg(CC1101_AGCCTRL0,RF_AGCCTRL0);
 6b6:	2191      	movs	r1, #145	; 0x91
 6b8:	201d      	movs	r0, #29
 6ba:	47a0      	blx	r4
    cc1101_write_reg(CC1101_WOREVT1,RF_WOREVT1);
 6bc:	2187      	movs	r1, #135	; 0x87
 6be:	201e      	movs	r0, #30
 6c0:	47a0      	blx	r4
    cc1101_write_reg(CC1101_WOREVT0,RF_WOREVT0);
 6c2:	216b      	movs	r1, #107	; 0x6b
 6c4:	201f      	movs	r0, #31
 6c6:	47a0      	blx	r4
    cc1101_write_reg(CC1101_WORCTRL,RF_WORCTRL);
 6c8:	21fb      	movs	r1, #251	; 0xfb
 6ca:	2020      	movs	r0, #32
 6cc:	47a0      	blx	r4
    cc1101_write_reg(CC1101_FREND1,RF_FREND1);
 6ce:	2156      	movs	r1, #86	; 0x56
 6d0:	2021      	movs	r0, #33	; 0x21
 6d2:	47a0      	blx	r4
    cc1101_write_reg(CC1101_FREND0,RF_FREND0);
 6d4:	2110      	movs	r1, #16
 6d6:	2022      	movs	r0, #34	; 0x22
 6d8:	47a0      	blx	r4
    cc1101_write_reg(CC1101_FSCAL3,RF_FSCAL3);
 6da:	21e9      	movs	r1, #233	; 0xe9
 6dc:	2023      	movs	r0, #35	; 0x23
 6de:	47a0      	blx	r4
    cc1101_write_reg(CC1101_FSCAL2,RF_FSCAL2);
 6e0:	212a      	movs	r1, #42	; 0x2a
 6e2:	2024      	movs	r0, #36	; 0x24
 6e4:	47a0      	blx	r4
    cc1101_write_reg(CC1101_FSCAL1,RF_FSCAL1);
 6e6:	2100      	movs	r1, #0
 6e8:	2025      	movs	r0, #37	; 0x25
 6ea:	47a0      	blx	r4
    cc1101_write_reg(CC1101_FSCAL0,RF_FSCAL0);
 6ec:	211f      	movs	r1, #31
 6ee:	2026      	movs	r0, #38	; 0x26
 6f0:	47a0      	blx	r4
    cc1101_write_reg(CC1101_RCCTRL1,RF_RCCTRL1);
 6f2:	2141      	movs	r1, #65	; 0x41
 6f4:	2027      	movs	r0, #39	; 0x27
 6f6:	47a0      	blx	r4
    cc1101_write_reg(CC1101_RCCTRL0,RF_RCCTRL0);
 6f8:	2100      	movs	r1, #0
 6fa:	2028      	movs	r0, #40	; 0x28
 6fc:	47a0      	blx	r4
    cc1101_write_reg(CC1101_FSTEST,RF_FSTEST);
 6fe:	2159      	movs	r1, #89	; 0x59
 700:	2029      	movs	r0, #41	; 0x29
 702:	47a0      	blx	r4
    cc1101_write_reg(CC1101_PTEST,RF_PTEST);
 704:	217f      	movs	r1, #127	; 0x7f
 706:	202a      	movs	r0, #42	; 0x2a
 708:	47a0      	blx	r4
    cc1101_write_reg(CC1101_AGCTEST,RF_AGCTEST);
 70a:	213f      	movs	r1, #63	; 0x3f
 70c:	202b      	movs	r0, #43	; 0x2b
 70e:	47a0      	blx	r4
    cc1101_write_reg(CC1101_TEST2,RF_TEST2);
 710:	2181      	movs	r1, #129	; 0x81
 712:	202c      	movs	r0, #44	; 0x2c
 714:	47a0      	blx	r4
    cc1101_write_reg(CC1101_TEST1,RF_TEST1);
 716:	2135      	movs	r1, #53	; 0x35
 718:	202d      	movs	r0, #45	; 0x2d
 71a:	47a0      	blx	r4
    cc1101_write_reg(CC1101_TEST0,RF_TEST0);
 71c:	2109      	movs	r1, #9
 71e:	202e      	movs	r0, #46	; 0x2e
 720:	47a0      	blx	r4
    cc1101_write_reg(CC1101_PARTNUM,RF_PARTNUM);
 722:	2100      	movs	r1, #0
 724:	2030      	movs	r0, #48	; 0x30
 726:	47a0      	blx	r4
    cc1101_write_reg(CC1101_VERSION,RF_VERSION);
 728:	2104      	movs	r1, #4
 72a:	2031      	movs	r0, #49	; 0x31
 72c:	47a0      	blx	r4
    cc1101_write_reg(CC1101_FREQEST,RF_FREQEST);
 72e:	2100      	movs	r1, #0
 730:	2032      	movs	r0, #50	; 0x32
 732:	47a0      	blx	r4
    cc1101_write_reg(CC1101_LQI,RF_LQI);
 734:	2100      	movs	r1, #0
 736:	2033      	movs	r0, #51	; 0x33
 738:	47a0      	blx	r4
    cc1101_write_reg(CC1101_RSSI,RF_RSSI);
 73a:	2100      	movs	r1, #0
 73c:	2034      	movs	r0, #52	; 0x34
 73e:	47a0      	blx	r4
    cc1101_write_reg(CC1101_MARCSTATE,RF_MARCSTATE);
 740:	2100      	movs	r1, #0
 742:	2035      	movs	r0, #53	; 0x35
 744:	47a0      	blx	r4
    cc1101_write_reg(CC1101_WORTIME1,RF_WORTIME1);
 746:	2100      	movs	r1, #0
 748:	2036      	movs	r0, #54	; 0x36
 74a:	47a0      	blx	r4
    cc1101_write_reg(CC1101_WORTIME0,RF_WORTIME0);
 74c:	2100      	movs	r1, #0
 74e:	2037      	movs	r0, #55	; 0x37
 750:	47a0      	blx	r4
    cc1101_write_reg(CC1101_PKTSTATUS,RF_PKTSTATUS);
 752:	2100      	movs	r1, #0
 754:	2038      	movs	r0, #56	; 0x38
 756:	47a0      	blx	r4
    cc1101_write_reg(CC1101_VCO_VC_DAC,RF_VCO_VC_DAC);
 758:	2100      	movs	r1, #0
 75a:	2039      	movs	r0, #57	; 0x39
 75c:	47a0      	blx	r4
    cc1101_write_reg(CC1101_TXBYTES,RF_TXBYTES);
 75e:	2100      	movs	r1, #0
 760:	203a      	movs	r0, #58	; 0x3a
 762:	47a0      	blx	r4
    cc1101_write_reg(CC1101_RXBYTES,RF_RXBYTES);
 764:	2100      	movs	r1, #0
 766:	203b      	movs	r0, #59	; 0x3b
 768:	47a0      	blx	r4
    cc1101_write_reg(CC1101_RCCTRL1_STATUS,RF_RCCTRL1_STATUS);
 76a:	2100      	movs	r1, #0
 76c:	203c      	movs	r0, #60	; 0x3c
 76e:	47a0      	blx	r4
    cc1101_write_reg(CC1101_RCCTRL0_STATUS,RF_RCCTRL0_STATUS);
 770:	2100      	movs	r1, #0
 772:	203d      	movs	r0, #61	; 0x3d
 774:	47a0      	blx	r4
}


inline static void pinLow(Pin p) {
    PORT->Group[p.group].OUTCLR.reg = (1<<p.pin);
 776:	2280      	movs	r2, #128	; 0x80
 778:	0252      	lsls	r2, r2, #9
 77a:	4b07      	ldr	r3, [pc, #28]	; (798 <write_cc1101_status_regersters+0x194>)
 77c:	615a      	str	r2, [r3, #20]
    PORT->Group[p.group].PINCFG[p.pin].bit.PMUXEN = 1;
}


inline static bool pinRead(Pin p) {
    return (PORT->Group[p.group].IN.reg & (1<<p.pin)) != 0;
 77e:	0019      	movs	r1, r3

    cc1101_select();
    while(pinRead(spiMISO) == true);
 780:	2280      	movs	r2, #128	; 0x80
 782:	0392      	lsls	r2, r2, #14
 784:	6a0b      	ldr	r3, [r1, #32]
 786:	4213      	tst	r3, r2
 788:	d1fc      	bne.n	784 <write_cc1101_status_regersters+0x180>
    pinGpio(p);
    PORT->Group[p.group].DIRSET.reg = (1<<p.pin);
}

inline static void pinHigh(Pin p) {
    PORT->Group[p.group].OUTSET.reg = (1<<p.pin);
 78a:	2280      	movs	r2, #128	; 0x80
 78c:	0252      	lsls	r2, r2, #9
 78e:	4b02      	ldr	r3, [pc, #8]	; (798 <write_cc1101_status_regersters+0x194>)
 790:	619a      	str	r2, [r3, #24]
    cc1101_deselect();
}
 792:	bd10      	pop	{r4, pc}
 794:	000005b5 	.word	0x000005b5
 798:	41004400 	.word	0x41004400

0000079c <CC1101_reset_chip>:

void CC1101_reset_chip() {
 79c:	b570      	push	{r4, r5, r6, lr}
 79e:	4c12      	ldr	r4, [pc, #72]	; (7e8 <CC1101_reset_chip+0x4c>)
 7a0:	2580      	movs	r5, #128	; 0x80
 7a2:	026d      	lsls	r5, r5, #9
 7a4:	61a5      	str	r5, [r4, #24]

    cc1101_deselect();
    delay_us(5);
 7a6:	2005      	movs	r0, #5
 7a8:	4e10      	ldr	r6, [pc, #64]	; (7ec <CC1101_reset_chip+0x50>)
 7aa:	47b0      	blx	r6
}


inline static void pinLow(Pin p) {
    PORT->Group[p.group].OUTCLR.reg = (1<<p.pin);
 7ac:	6165      	str	r5, [r4, #20]
    cc1101_select();
    delay_us(10);
 7ae:	200a      	movs	r0, #10
 7b0:	47b0      	blx	r6
    pinGpio(p);
    PORT->Group[p.group].DIRSET.reg = (1<<p.pin);
}

inline static void pinHigh(Pin p) {
    PORT->Group[p.group].OUTSET.reg = (1<<p.pin);
 7b2:	61a5      	str	r5, [r4, #24]
    cc1101_deselect();
    delay_us(45);
 7b4:	202d      	movs	r0, #45	; 0x2d
 7b6:	47b0      	blx	r6
}


inline static void pinLow(Pin p) {
    PORT->Group[p.group].OUTCLR.reg = (1<<p.pin);
 7b8:	6165      	str	r5, [r4, #20]
    PORT->Group[p.group].PINCFG[p.pin].bit.PMUXEN = 1;
}


inline static bool pinRead(Pin p) {
    return (PORT->Group[p.group].IN.reg & (1<<p.pin)) != 0;
 7ba:	0021      	movs	r1, r4

    //send Reset
    cc1101_select();
    while(pinRead(spiMISO) == true);
 7bc:	2280      	movs	r2, #128	; 0x80
 7be:	0392      	lsls	r2, r2, #14
 7c0:	6a0b      	ldr	r3, [r1, #32]
 7c2:	4213      	tst	r3, r2
 7c4:	d1fc      	bne.n	7c0 <CC1101_reset_chip+0x24>
    CC1101_cmd_strobe(CC1101_SRES);
 7c6:	2030      	movs	r0, #48	; 0x30
 7c8:	4b09      	ldr	r3, [pc, #36]	; (7f0 <CC1101_reset_chip+0x54>)
 7ca:	4798      	blx	r3
 7cc:	4906      	ldr	r1, [pc, #24]	; (7e8 <CC1101_reset_chip+0x4c>)
    while(pinRead(spiMISO) == true);
 7ce:	2280      	movs	r2, #128	; 0x80
 7d0:	0392      	lsls	r2, r2, #14
 7d2:	6a0b      	ldr	r3, [r1, #32]
 7d4:	4213      	tst	r3, r2
 7d6:	d1fc      	bne.n	7d2 <CC1101_reset_chip+0x36>
    pinGpio(p);
    PORT->Group[p.group].DIRSET.reg = (1<<p.pin);
}

inline static void pinHigh(Pin p) {
    PORT->Group[p.group].OUTSET.reg = (1<<p.pin);
 7d8:	2280      	movs	r2, #128	; 0x80
 7da:	0252      	lsls	r2, r2, #9
 7dc:	4b02      	ldr	r3, [pc, #8]	; (7e8 <CC1101_reset_chip+0x4c>)
 7de:	619a      	str	r2, [r3, #24]
    cc1101_deselect();

    //configure reg
    write_cc1101_status_regersters();
 7e0:	4b04      	ldr	r3, [pc, #16]	; (7f4 <CC1101_reset_chip+0x58>)
 7e2:	4798      	blx	r3

}
 7e4:	bd70      	pop	{r4, r5, r6, pc}
 7e6:	46c0      	nop			; (mov r8, r8)
 7e8:	41004400 	.word	0x41004400
 7ec:	00000a19 	.word	0x00000a19
 7f0:	000004a9 	.word	0x000004a9
 7f4:	00000605 	.word	0x00000605

000007f8 <dfll_nvm_val>:
#define NVM_DFLL_COARSE_SIZE   6
#define NVM_DFLL_FINE_POS      64
#define NVM_DFLL_FINE_SIZE     10

uint32_t dfll_nvm_val() {
    uint32_t coarse = ( *((uint32_t *)(NVMCTRL_OTP4)
 7f8:	4b08      	ldr	r3, [pc, #32]	; (81c <dfll_nvm_val+0x24>)
 7fa:	6818      	ldr	r0, [r3, #0]
 7fc:	0e80      	lsrs	r0, r0, #26
                          + (NVM_DFLL_COARSE_POS / 32))
                        >> (NVM_DFLL_COARSE_POS % 32))
                      & ((1 << NVM_DFLL_COARSE_SIZE) - 1);
    if (coarse == 0x3f) {
 7fe:	283f      	cmp	r0, #63	; 0x3f
 800:	d100      	bne.n	804 <dfll_nvm_val+0xc>
        coarse = 0x1f;
 802:	3820      	subs	r0, #32
    }
    uint32_t fine = ( *((uint32_t *)(NVMCTRL_OTP4)
                        + (NVM_DFLL_FINE_POS / 32))
                      >> (NVM_DFLL_FINE_POS % 32))
 804:	4b06      	ldr	r3, [pc, #24]	; (820 <dfll_nvm_val+0x28>)
                        >> (NVM_DFLL_COARSE_POS % 32))
                      & ((1 << NVM_DFLL_COARSE_SIZE) - 1);
    if (coarse == 0x3f) {
        coarse = 0x1f;
    }
    uint32_t fine = ( *((uint32_t *)(NVMCTRL_OTP4)
 806:	681b      	ldr	r3, [r3, #0]
 808:	059b      	lsls	r3, r3, #22
 80a:	0d9b      	lsrs	r3, r3, #22
                        + (NVM_DFLL_FINE_POS / 32))
                      >> (NVM_DFLL_FINE_POS % 32))
                    & ((1 << NVM_DFLL_FINE_SIZE) - 1);
    if (fine == 0x3ff) {
 80c:	4a05      	ldr	r2, [pc, #20]	; (824 <dfll_nvm_val+0x2c>)
 80e:	4293      	cmp	r3, r2
 810:	d100      	bne.n	814 <dfll_nvm_val+0x1c>
        fine = 0x1ff;
 812:	4b05      	ldr	r3, [pc, #20]	; (828 <dfll_nvm_val+0x30>)
    }

    return SYSCTRL_DFLLVAL_COARSE(coarse) | SYSCTRL_DFLLVAL_FINE(fine);
 814:	0280      	lsls	r0, r0, #10
 816:	4318      	orrs	r0, r3
}
 818:	4770      	bx	lr
 81a:	46c0      	nop			; (mov r8, r8)
 81c:	00806024 	.word	0x00806024
 820:	00806028 	.word	0x00806028
 824:	000003ff 	.word	0x000003ff
 828:	000001ff 	.word	0x000001ff

0000082c <dfll_wait_for_sync>:

void dfll_wait_for_sync() {
    while (!SYSCTRL->PCLKSR.bit.DFLLRDY);
 82c:	4a02      	ldr	r2, [pc, #8]	; (838 <dfll_wait_for_sync+0xc>)
 82e:	68d3      	ldr	r3, [r2, #12]
 830:	06db      	lsls	r3, r3, #27
 832:	d5fc      	bpl.n	82e <dfll_wait_for_sync+0x2>
}
 834:	4770      	bx	lr
 836:	46c0      	nop			; (mov r8, r8)
 838:	40000800 	.word	0x40000800

0000083c <gclk_enable>:

void gclk_enable(uint32_t id, uint32_t src, uint32_t div) {
 83c:	b510      	push	{r4, lr}
    GCLK->GENDIV.reg = GCLK_GENDIV_ID(id) | GCLK_GENDIV_DIV(div);
 83e:	230f      	movs	r3, #15
 840:	4018      	ands	r0, r3
 842:	0212      	lsls	r2, r2, #8
 844:	4b07      	ldr	r3, [pc, #28]	; (864 <gclk_enable+0x28>)
 846:	401a      	ands	r2, r3
 848:	4302      	orrs	r2, r0
 84a:	4c07      	ldr	r4, [pc, #28]	; (868 <gclk_enable+0x2c>)
 84c:	60a2      	str	r2, [r4, #8]
    GCLK->GENCTRL.reg = GCLK_GENCTRL_ID(id) | GCLK_GENCTRL_GENEN | GCLK_GENCTRL_SRC(src);
 84e:	0209      	lsls	r1, r1, #8
 850:	23f8      	movs	r3, #248	; 0xf8
 852:	015b      	lsls	r3, r3, #5
 854:	4019      	ands	r1, r3
 856:	2380      	movs	r3, #128	; 0x80
 858:	025b      	lsls	r3, r3, #9
 85a:	4319      	orrs	r1, r3
 85c:	4308      	orrs	r0, r1
 85e:	6060      	str	r0, [r4, #4]
}
 860:	bd10      	pop	{r4, pc}
 862:	46c0      	nop			; (mov r8, r8)
 864:	00ffff00 	.word	0x00ffff00
 868:	40000c00 	.word	0x40000c00

0000086c <GclkInit>:

void GclkInit(u8_t clk_system) {
 86c:	b570      	push	{r4, r5, r6, lr}
 86e:	0004      	movs	r4, r0


    SYSCTRL->INTFLAG.reg = SYSCTRL_INTFLAG_BOD33RDY | SYSCTRL_INTFLAG_BOD33DET |
 870:	22c2      	movs	r2, #194	; 0xc2
 872:	00d2      	lsls	r2, r2, #3
 874:	4b12      	ldr	r3, [pc, #72]	; (8c0 <GclkInit+0x54>)
 876:	609a      	str	r2, [r3, #8]
                           SYSCTRL_INTFLAG_DFLLRDY;
    NVMCTRL->CTRLB.bit.RWS = 2;
 878:	4912      	ldr	r1, [pc, #72]	; (8c4 <GclkInit+0x58>)
 87a:	684b      	ldr	r3, [r1, #4]
 87c:	221e      	movs	r2, #30
 87e:	4393      	bics	r3, r2
 880:	3a1a      	subs	r2, #26
 882:	4313      	orrs	r3, r2
 884:	604b      	str	r3, [r1, #4]

    // Initialize GCLK
    PM->APBAMASK.reg |= PM_APBAMASK_GCLK;
 886:	4a10      	ldr	r2, [pc, #64]	; (8c8 <GclkInit+0x5c>)
 888:	6991      	ldr	r1, [r2, #24]
 88a:	2308      	movs	r3, #8
 88c:	430b      	orrs	r3, r1
 88e:	6193      	str	r3, [r2, #24]
    GCLK->CTRL.reg = GCLK_CTRL_SWRST;
 890:	2201      	movs	r2, #1
 892:	4b0e      	ldr	r3, [pc, #56]	; (8cc <GclkInit+0x60>)
 894:	701a      	strb	r2, [r3, #0]
    while (GCLK->CTRL.reg & GCLK_CTRL_SWRST);
 896:	0019      	movs	r1, r3
 898:	780b      	ldrb	r3, [r1, #0]
 89a:	4213      	tst	r3, r2
 89c:	d1fc      	bne.n	898 <GclkInit+0x2c>

    // Disable ONDEMAND mode while writing configurations (errata 9905)
    SYSCTRL->DFLLCTRL.reg = dfll_ctrl & ~SYSCTRL_DFLLCTRL_ONDEMAND;
 89e:	4d08      	ldr	r5, [pc, #32]	; (8c0 <GclkInit+0x54>)
 8a0:	4b0b      	ldr	r3, [pc, #44]	; (8d0 <GclkInit+0x64>)
 8a2:	84ab      	strh	r3, [r5, #36]	; 0x24
    dfll_wait_for_sync();
 8a4:	4e0b      	ldr	r6, [pc, #44]	; (8d4 <GclkInit+0x68>)
 8a6:	47b0      	blx	r6
    SYSCTRL->DFLLVAL.reg = dfll_nvm_val();
 8a8:	4b0b      	ldr	r3, [pc, #44]	; (8d8 <GclkInit+0x6c>)
 8aa:	4798      	blx	r3
 8ac:	62a8      	str	r0, [r5, #40]	; 0x28
    dfll_wait_for_sync();
 8ae:	47b0      	blx	r6
    SYSCTRL->DFLLCTRL.reg = dfll_ctrl;
 8b0:	4b0a      	ldr	r3, [pc, #40]	; (8dc <GclkInit+0x70>)
 8b2:	84ab      	strh	r3, [r5, #36]	; 0x24


    //For generic clock generator 0, select the DFLL48 Clock as input
    gclk_enable(clk_system, GCLK_SOURCE_DFLL48M, 1);
 8b4:	2201      	movs	r2, #1
 8b6:	2107      	movs	r1, #7
 8b8:	0020      	movs	r0, r4
 8ba:	4b09      	ldr	r3, [pc, #36]	; (8e0 <GclkInit+0x74>)
 8bc:	4798      	blx	r3
}
 8be:	bd70      	pop	{r4, r5, r6, pc}
 8c0:	40000800 	.word	0x40000800
 8c4:	41004000 	.word	0x41004000
 8c8:	40000400 	.word	0x40000400
 8cc:	40000c00 	.word	0x40000c00
 8d0:	00000502 	.word	0x00000502
 8d4:	0000082d 	.word	0x0000082d
 8d8:	000007f9 	.word	0x000007f9
 8dc:	00000582 	.word	0x00000582
 8e0:	0000083d 	.word	0x0000083d

000008e4 <RtcInit>:
        //wait for crystal to warm up
        while((SYSCTRL->PCLKSR.reg & (SYSCTRL_PCLKSR_OSC32KRDY)) == 0);

    */

    SYSCTRL->OSC32K.reg = SYSCTRL_OSC32K_ENABLE |
 8e4:	4a29      	ldr	r2, [pc, #164]	; (98c <RtcInit+0xa8>)
 8e6:	4b2a      	ldr	r3, [pc, #168]	; (990 <RtcInit+0xac>)
 8e8:	6193      	str	r3, [r2, #24]
                          SYSCTRL_OSC32K_EN32K |
                          ( 6 << SYSCTRL_OSC32K_STARTUP_Pos);


    SYSCTRL->OSC32K.bit.CALIB =
        ((*(uint32_t *)FUSES_OSC32K_CAL_ADDR >>
 8ea:	4b2a      	ldr	r3, [pc, #168]	; (994 <RtcInit+0xb0>)
    SYSCTRL->OSC32K.reg = SYSCTRL_OSC32K_ENABLE |
                          SYSCTRL_OSC32K_EN32K |
                          ( 6 << SYSCTRL_OSC32K_STARTUP_Pos);


    SYSCTRL->OSC32K.bit.CALIB =
 8ec:	681b      	ldr	r3, [r3, #0]
 8ee:	04db      	lsls	r3, r3, #19
 8f0:	6991      	ldr	r1, [r2, #24]
 8f2:	0e5b      	lsrs	r3, r3, #25
 8f4:	041b      	lsls	r3, r3, #16
 8f6:	4828      	ldr	r0, [pc, #160]	; (998 <RtcInit+0xb4>)
 8f8:	4001      	ands	r1, r0
 8fa:	4319      	orrs	r1, r3
 8fc:	6191      	str	r1, [r2, #24]
        ((*(uint32_t *)FUSES_OSC32K_CAL_ADDR >>
          FUSES_OSC32K_CAL_Pos) & 0x7Ful);

    SYSCTRL->OSC32K.reg = SYSCTRL_OSC32K_STARTUP( 0x6u ) | // cf table 15.10 of product datasheet in chapter 15.8.6
 8fe:	4927      	ldr	r1, [pc, #156]	; (99c <RtcInit+0xb8>)
 900:	6191      	str	r1, [r2, #24]
                          SYSCTRL_OSC32K_EN32K;
    SYSCTRL->OSC32K.bit.CALIB =
 902:	6991      	ldr	r1, [r2, #24]
 904:	4008      	ands	r0, r1
 906:	4303      	orrs	r3, r0
 908:	6193      	str	r3, [r2, #24]
        ((*(uint32_t *)FUSES_OSC32K_CAL_ADDR >>
          FUSES_OSC32K_CAL_Pos) & 0x7Ful);



    SYSCTRL->OSC32K.bit.ENABLE = 1; // separate call, as described in chapter 15.6.3
 90a:	6991      	ldr	r1, [r2, #24]
 90c:	2302      	movs	r3, #2
 90e:	430b      	orrs	r3, r1
 910:	6193      	str	r3, [r2, #24]

    while (  (SYSCTRL->PCLKSR.reg & SYSCTRL_PCLKSR_OSC32KRDY) == 0 ) {
 912:	0011      	movs	r1, r2
 914:	2204      	movs	r2, #4
 916:	68cb      	ldr	r3, [r1, #12]
 918:	421a      	tst	r2, r3
 91a:	d0fc      	beq.n	916 <RtcInit+0x32>





    GCLK->GENDIV.reg = GCLK_GENDIV_ID(2) | GCLK_GENDIV_DIV(1);
 91c:	4b20      	ldr	r3, [pc, #128]	; (9a0 <RtcInit+0xbc>)
 91e:	2281      	movs	r2, #129	; 0x81
 920:	0052      	lsls	r2, r2, #1
 922:	609a      	str	r2, [r3, #8]

    GCLK->GENCTRL.reg = GCLK_GENCTRL_ID(2) |
 924:	4a1f      	ldr	r2, [pc, #124]	; (9a4 <RtcInit+0xc0>)
 926:	605a      	str	r2, [r3, #4]
                        GCLK_GENCTRL_SRC(GCLK_GENCTRL_SRC_OSC32K) |
                        GCLK_GENCTRL_IDC |
                        GCLK_GENCTRL_RUNSTDBY |
                        GCLK_GENCTRL_GENEN;
    while (GCLK->STATUS.reg & GCLK_STATUS_SYNCBUSY);
 928:	001a      	movs	r2, r3
 92a:	7853      	ldrb	r3, [r2, #1]
 92c:	b25b      	sxtb	r3, r3
 92e:	2b00      	cmp	r3, #0
 930:	dbfb      	blt.n	92a <RtcInit+0x46>

// Configure RTC
    GCLK->CLKCTRL.reg = GCLK_CLKCTRL_ID(RTC_GCLK_ID) |
 932:	4a1d      	ldr	r2, [pc, #116]	; (9a8 <RtcInit+0xc4>)
 934:	4b1a      	ldr	r3, [pc, #104]	; (9a0 <RtcInit+0xbc>)
 936:	805a      	strh	r2, [r3, #2]
                        GCLK_CLKCTRL_CLKEN |
                        GCLK_CLKCTRL_GEN(2);

    RTC->MODE1.CTRL.reg = RTC_MODE1_CTRL_MODE_COUNT16;
 938:	2204      	movs	r2, #4
 93a:	4b1c      	ldr	r3, [pc, #112]	; (9ac <RtcInit+0xc8>)
 93c:	801a      	strh	r2, [r3, #0]
    while (RTC->MODE1.STATUS.bit.SYNCBUSY);
 93e:	001a      	movs	r2, r3
 940:	7a93      	ldrb	r3, [r2, #10]
 942:	09db      	lsrs	r3, r3, #7
 944:	d1fc      	bne.n	940 <RtcInit+0x5c>

// Prescaler needs to be enabled separately from the mode for some reason
    RTC->MODE1.CTRL.reg |= RTC_MODE1_CTRL_PRESCALER_DIV32;
 946:	4a19      	ldr	r2, [pc, #100]	; (9ac <RtcInit+0xc8>)
 948:	8811      	ldrh	r1, [r2, #0]
 94a:	23a0      	movs	r3, #160	; 0xa0
 94c:	00db      	lsls	r3, r3, #3
 94e:	430b      	orrs	r3, r1
 950:	8013      	strh	r3, [r2, #0]
    while (RTC->MODE1.STATUS.bit.SYNCBUSY);
 952:	7a93      	ldrb	r3, [r2, #10]
 954:	09db      	lsrs	r3, r3, #7
 956:	d1fc      	bne.n	952 <RtcInit+0x6e>

    RTC->MODE1.PER.reg = 998;
 958:	4a15      	ldr	r2, [pc, #84]	; (9b0 <RtcInit+0xcc>)
 95a:	4b14      	ldr	r3, [pc, #80]	; (9ac <RtcInit+0xc8>)
 95c:	829a      	strh	r2, [r3, #20]
    while (RTC->MODE1.STATUS.bit.SYNCBUSY);
 95e:	001a      	movs	r2, r3
 960:	7a93      	ldrb	r3, [r2, #10]
 962:	09db      	lsrs	r3, r3, #7
 964:	d1fc      	bne.n	960 <RtcInit+0x7c>

    RTC->MODE1.READREQ.reg |= RTC_READREQ_RCONT | RTC_READREQ_ADDR(0x10);
 966:	4b11      	ldr	r3, [pc, #68]	; (9ac <RtcInit+0xc8>)
 968:	8859      	ldrh	r1, [r3, #2]
 96a:	4a12      	ldr	r2, [pc, #72]	; (9b4 <RtcInit+0xd0>)
 96c:	430a      	orrs	r2, r1
 96e:	805a      	strh	r2, [r3, #2]

    RTC->MODE1.INTENSET.reg = RTC_MODE1_INTENSET_OVF;
 970:	2280      	movs	r2, #128	; 0x80
 972:	71da      	strb	r2, [r3, #7]

    RTC->MODE1.CTRL.bit.ENABLE = 1;
 974:	8819      	ldrh	r1, [r3, #0]
 976:	2202      	movs	r2, #2
 978:	430a      	orrs	r2, r1
 97a:	801a      	strh	r2, [r3, #0]
    while (RTC->MODE1.STATUS.bit.SYNCBUSY);
 97c:	001a      	movs	r2, r3
 97e:	7a93      	ldrb	r3, [r2, #10]
 980:	09db      	lsrs	r3, r3, #7
 982:	d1fc      	bne.n	97e <RtcInit+0x9a>

    \param [in]      IRQn  External interrupt number. Value cannot be negative.
 */
__STATIC_INLINE void NVIC_EnableIRQ(IRQn_Type IRQn)
{
  NVIC->ISER[0] = (1 << ((uint32_t)(IRQn) & 0x1F));
 984:	2208      	movs	r2, #8
 986:	4b0c      	ldr	r3, [pc, #48]	; (9b8 <RtcInit+0xd4>)
 988:	601a      	str	r2, [r3, #0]

    NVIC_EnableIRQ(RTC_IRQn);
}
 98a:	4770      	bx	lr
 98c:	40000800 	.word	0x40000800
 990:	00000606 	.word	0x00000606
 994:	00806024 	.word	0x00806024
 998:	ff80ffff 	.word	0xff80ffff
 99c:	00000604 	.word	0x00000604
 9a0:	40000c00 	.word	0x40000c00
 9a4:	00230002 	.word	0x00230002
 9a8:	00004204 	.word	0x00004204
 9ac:	40001400 	.word	0x40001400
 9b0:	000003e6 	.word	0x000003e6
 9b4:	00004010 	.word	0x00004010
 9b8:	e000e100 	.word	0xe000e100

000009bc <gclkEnable>:


void gclkEnable(u32_t id, u32_t src, u32_t div) {
 9bc:	b510      	push	{r4, lr}
    GCLK->GENDIV.reg = GCLK_GENDIV_ID(id) | GCLK_GENDIV_DIV(div);
 9be:	230f      	movs	r3, #15
 9c0:	4018      	ands	r0, r3
 9c2:	0212      	lsls	r2, r2, #8
 9c4:	4b07      	ldr	r3, [pc, #28]	; (9e4 <gclkEnable+0x28>)
 9c6:	401a      	ands	r2, r3
 9c8:	4302      	orrs	r2, r0
 9ca:	4c07      	ldr	r4, [pc, #28]	; (9e8 <gclkEnable+0x2c>)
 9cc:	60a2      	str	r2, [r4, #8]
    GCLK->GENCTRL.reg = GCLK_GENCTRL_ID(id) | GCLK_GENCTRL_GENEN | GCLK_GENCTRL_SRC(src);
 9ce:	0209      	lsls	r1, r1, #8
 9d0:	23f8      	movs	r3, #248	; 0xf8
 9d2:	015b      	lsls	r3, r3, #5
 9d4:	4019      	ands	r1, r3
 9d6:	2380      	movs	r3, #128	; 0x80
 9d8:	025b      	lsls	r3, r3, #9
 9da:	4319      	orrs	r1, r3
 9dc:	4308      	orrs	r0, r1
 9de:	6060      	str	r0, [r4, #4]
}
 9e0:	bd10      	pop	{r4, pc}
 9e2:	46c0      	nop			; (mov r8, r8)
 9e4:	00ffff00 	.word	0x00ffff00
 9e8:	40000c00 	.word	0x40000c00

000009ec <delayInit>:


void delayInit(void) {
    cycles_per_ms = 48000000UL;
    cycles_per_ms /= 1000;
 9ec:	4b06      	ldr	r3, [pc, #24]	; (a08 <delayInit+0x1c>)
 9ee:	4a07      	ldr	r2, [pc, #28]	; (a0c <delayInit+0x20>)
 9f0:	601a      	str	r2, [r3, #0]
    cycles_per_us = cycles_per_ms / 1000;
 9f2:	2230      	movs	r2, #48	; 0x30
 9f4:	605a      	str	r2, [r3, #4]
    \param [in]  priority  Priority to set.
 */
__STATIC_INLINE void NVIC_SetPriority(IRQn_Type IRQn, uint32_t priority)
{
  if(IRQn < 0) {
    SCB->SHP[_SHP_IDX(IRQn)] = (SCB->SHP[_SHP_IDX(IRQn)] & ~(0xFF << _BIT_SHIFT(IRQn))) |
 9f6:	4a06      	ldr	r2, [pc, #24]	; (a10 <delayInit+0x24>)
 9f8:	6a13      	ldr	r3, [r2, #32]
 9fa:	021b      	lsls	r3, r3, #8
 9fc:	0a1b      	lsrs	r3, r3, #8
 9fe:	6213      	str	r3, [r2, #32]

    NVIC_SetPriority(SysTick_IRQn, 0x0);

    SysTick->CTRL = SysTick_CTRL_CLKSOURCE_Msk | SysTick_CTRL_ENABLE_Msk;
 a00:	2205      	movs	r2, #5
 a02:	4b04      	ldr	r3, [pc, #16]	; (a14 <delayInit+0x28>)
 a04:	601a      	str	r2, [r3, #0]
}
 a06:	4770      	bx	lr
 a08:	20000024 	.word	0x20000024
 a0c:	0000bb80 	.word	0x0000bb80
 a10:	e000ed00 	.word	0xe000ed00
 a14:	e000e010 	.word	0xe000e010

00000a18 <delay_us>:
/**
 * \brief Delay loop to delay at least n number of microseconds
 *
 * \param n  Number of microseconds to wait
 */
void delay_us(uint32_t n) {
 a18:	b530      	push	{r4, r5, lr}
    while (n--) {
        /* Devide up to blocks of 10u */
        delay_cycles(cycles_per_us);
 a1a:	4b08      	ldr	r3, [pc, #32]	; (a3c <delay_us+0x24>)
 a1c:	685c      	ldr	r4, [r3, #4]


static inline void delay_cycles(
    const uint32_t n) {
    if (n > 0) {
        SysTick->LOAD = n;
 a1e:	4a08      	ldr	r2, [pc, #32]	; (a40 <delay_us+0x28>)
        SysTick->VAL = 0;
 a20:	2500      	movs	r5, #0

        while (!(SysTick->CTRL & SysTick_CTRL_COUNTFLAG_Msk)) {
 a22:	2180      	movs	r1, #128	; 0x80
 a24:	0249      	lsls	r1, r1, #9
 * \brief Delay loop to delay at least n number of microseconds
 *
 * \param n  Number of microseconds to wait
 */
void delay_us(uint32_t n) {
    while (n--) {
 a26:	e006      	b.n	a36 <delay_us+0x1e>



static inline void delay_cycles(
    const uint32_t n) {
    if (n > 0) {
 a28:	2c00      	cmp	r4, #0
 a2a:	d004      	beq.n	a36 <delay_us+0x1e>
        SysTick->LOAD = n;
 a2c:	6054      	str	r4, [r2, #4]
        SysTick->VAL = 0;
 a2e:	6095      	str	r5, [r2, #8]

        while (!(SysTick->CTRL & SysTick_CTRL_COUNTFLAG_Msk)) {
 a30:	6813      	ldr	r3, [r2, #0]
 a32:	420b      	tst	r3, r1
 a34:	d0fc      	beq.n	a30 <delay_us+0x18>
 a36:	3801      	subs	r0, #1
 a38:	d2f6      	bcs.n	a28 <delay_us+0x10>
        /* Devide up to blocks of 10u */
        delay_cycles(cycles_per_us);
    }
}
 a3a:	bd30      	pop	{r4, r5, pc}
 a3c:	20000024 	.word	0x20000024
 a40:	e000e010 	.word	0xe000e010

00000a44 <SysTick_Handler>:


void SysTick_Handler(void) {
    //g_msTicks++;
}
 a44:	4770      	bx	lr
 a46:	46c0      	nop			; (mov r8, r8)

00000a48 <delay_ms>:
/**
 * \brief Delay loop to delay at least n number of milliseconds
 *
 * \param n  Number of milliseconds to wait
 */
void delay_ms(uint32_t n) {
 a48:	b530      	push	{r4, r5, lr}
    while (n--) {
        /* Devide up to blocks of 1ms */
        delay_cycles(cycles_per_ms);
 a4a:	4b08      	ldr	r3, [pc, #32]	; (a6c <delay_ms+0x24>)
 a4c:	681c      	ldr	r4, [r3, #0]


static inline void delay_cycles(
    const uint32_t n) {
    if (n > 0) {
        SysTick->LOAD = n;
 a4e:	4a08      	ldr	r2, [pc, #32]	; (a70 <delay_ms+0x28>)
        SysTick->VAL = 0;
 a50:	2500      	movs	r5, #0

        while (!(SysTick->CTRL & SysTick_CTRL_COUNTFLAG_Msk)) {
 a52:	2180      	movs	r1, #128	; 0x80
 a54:	0249      	lsls	r1, r1, #9
 * \brief Delay loop to delay at least n number of milliseconds
 *
 * \param n  Number of milliseconds to wait
 */
void delay_ms(uint32_t n) {
    while (n--) {
 a56:	e006      	b.n	a66 <delay_ms+0x1e>



static inline void delay_cycles(
    const uint32_t n) {
    if (n > 0) {
 a58:	2c00      	cmp	r4, #0
 a5a:	d004      	beq.n	a66 <delay_ms+0x1e>
        SysTick->LOAD = n;
 a5c:	6054      	str	r4, [r2, #4]
        SysTick->VAL = 0;
 a5e:	6095      	str	r5, [r2, #8]

        while (!(SysTick->CTRL & SysTick_CTRL_COUNTFLAG_Msk)) {
 a60:	6813      	ldr	r3, [r2, #0]
 a62:	420b      	tst	r3, r1
 a64:	d0fc      	beq.n	a60 <delay_ms+0x18>
 a66:	3801      	subs	r0, #1
 a68:	d2f6      	bcs.n	a58 <delay_ms+0x10>
        /* Devide up to blocks of 1ms */
        delay_cycles(cycles_per_ms);
    }
}
 a6a:	bd30      	pop	{r4, r5, pc}
 a6c:	20000024 	.word	0x20000024
 a70:	e000e010 	.word	0xe000e010

00000a74 <RTC_Handler>:


volatile uint32_t time_ms = 0;

void RTC_Handler(void) {
    time_ms += 1000;
 a74:	4a05      	ldr	r2, [pc, #20]	; (a8c <RTC_Handler+0x18>)
 a76:	6813      	ldr	r3, [r2, #0]
 a78:	21fa      	movs	r1, #250	; 0xfa
 a7a:	0089      	lsls	r1, r1, #2
 a7c:	468c      	mov	ip, r1
 a7e:	4463      	add	r3, ip
 a80:	6013      	str	r3, [r2, #0]
    RTC->MODE1.INTFLAG.reg = 0xFF;
 a82:	22ff      	movs	r2, #255	; 0xff
 a84:	4b02      	ldr	r3, [pc, #8]	; (a90 <RTC_Handler+0x1c>)
 a86:	721a      	strb	r2, [r3, #8]
}
 a88:	4770      	bx	lr
 a8a:	46c0      	nop			; (mov r8, r8)
 a8c:	20000048 	.word	0x20000048
 a90:	40001400 	.word	0x40001400

00000a94 <TC4_Handler>:

    NVIC_EnableIRQ(TC4_IRQn);
}

void TC4_Handler( void ) {
    TC4->COUNT8.INTFLAG.reg = 0xFF;
 a94:	22ff      	movs	r2, #255	; 0xff
 a96:	4b01      	ldr	r3, [pc, #4]	; (a9c <TC4_Handler+0x8>)
 a98:	739a      	strb	r2, [r3, #14]
    //pinToggle(TxPo);
}
 a9a:	4770      	bx	lr
 a9c:	42003000 	.word	0x42003000

00000aa0 <TC5_Handler>:

    NVIC_EnableIRQ(TC5_IRQn);
}

void TC5_Handler( void ) {
    TC5->COUNT8.INTFLAG.reg = 0xFF;
 aa0:	22ff      	movs	r2, #255	; 0xff
 aa2:	4b01      	ldr	r3, [pc, #4]	; (aa8 <TC5_Handler+0x8>)
 aa4:	739a      	strb	r2, [r3, #14]
}
 aa6:	4770      	bx	lr
 aa8:	42003400 	.word	0x42003400

00000aac <sercomClockEnable>:
#include <util.h>

void sercomClockEnable(SercomId id, uint32_t clock_channel, u8_t divider) {
 aac:	b570      	push	{r4, r5, r6, lr}
 aae:	0004      	movs	r4, r0
 ab0:	000d      	movs	r5, r1
    // prevent this clock write from changing any other clocks
    PM->APBCMASK.reg |= 1 << (PM_APBCMASK_SERCOM0_Pos + id);
 ab2:	480e      	ldr	r0, [pc, #56]	; (aec <sercomClockEnable+0x40>)
 ab4:	6a01      	ldr	r1, [r0, #32]
 ab6:	1ca6      	adds	r6, r4, #2
 ab8:	2301      	movs	r3, #1
 aba:	40b3      	lsls	r3, r6
 abc:	430b      	orrs	r3, r1
 abe:	6203      	str	r3, [r0, #32]


    if (clock_channel != 0) {
 ac0:	2d00      	cmp	r5, #0
 ac2:	d003      	beq.n	acc <sercomClockEnable+0x20>
        // clock generators 3-8 have 8 division factor bits - DIV[7:0]
        gclkEnable(clock_channel, GCLK_SOURCE_DFLL48M, divider);
 ac4:	2107      	movs	r1, #7
 ac6:	0028      	movs	r0, r5
 ac8:	4b09      	ldr	r3, [pc, #36]	; (af0 <sercomClockEnable+0x44>)
 aca:	4798      	blx	r3
    }


    // attach clock
    GCLK->CLKCTRL.reg = GCLK_CLKCTRL_CLKEN |
 acc:	0229      	lsls	r1, r5, #8
 ace:	23f0      	movs	r3, #240	; 0xf0
 ad0:	011b      	lsls	r3, r3, #4
 ad2:	4019      	ands	r1, r3
 ad4:	2380      	movs	r3, #128	; 0x80
 ad6:	01db      	lsls	r3, r3, #7
 ad8:	4319      	orrs	r1, r3
 ada:	0023      	movs	r3, r4
 adc:	3314      	adds	r3, #20
 ade:	243f      	movs	r4, #63	; 0x3f
 ae0:	401c      	ands	r4, r3
 ae2:	430c      	orrs	r4, r1
 ae4:	4b03      	ldr	r3, [pc, #12]	; (af4 <sercomClockEnable+0x48>)
 ae6:	805c      	strh	r4, [r3, #2]
                        GCLK_CLKCTRL_GEN(clock_channel) |
                        GCLK_CLKCTRL_ID(SERCOM0_GCLK_ID_CORE + id);
}
 ae8:	bd70      	pop	{r4, r5, r6, pc}
 aea:	46c0      	nop			; (mov r8, r8)
 aec:	40000400 	.word	0x40000400
 af0:	000009bd 	.word	0x000009bd
 af4:	40000c00 	.word	0x40000c00

00000af8 <sercomReset>:




inline static Sercom* sercom(SercomId id) {
    return (Sercom*) (0x42000800U + id * 1024);
 af8:	0280      	lsls	r0, r0, #10
 afa:	4b05      	ldr	r3, [pc, #20]	; (b10 <sercomReset+0x18>)
 afc:	469c      	mov	ip, r3
 afe:	4460      	add	r0, ip


void sercomReset(SercomId id) {
    sercom(id)->SPI.CTRLA.reg = SERCOM_SPI_CTRLA_SWRST;
 b00:	2301      	movs	r3, #1
 b02:	6003      	str	r3, [r0, #0]
    while(sercom(id)->SPI.CTRLA.reg & SERCOM_SPI_CTRLA_SWRST);
 b04:	2201      	movs	r2, #1
 b06:	6803      	ldr	r3, [r0, #0]
 b08:	421a      	tst	r2, r3
 b0a:	d1fc      	bne.n	b06 <sercomReset+0xe>
}
 b0c:	4770      	bx	lr
 b0e:	46c0      	nop			; (mov r8, r8)
 b10:	42000800 	.word	0x42000800

00000b14 <sercomUartInit>:
}




void sercomUartInit(SercomId id, u32_t rxpo, u32_t txpo, int32_t BAUD) {
 b14:	b5f8      	push	{r3, r4, r5, r6, r7, lr}
 b16:	0004      	movs	r4, r0
 b18:	000f      	movs	r7, r1
 b1a:	0015      	movs	r5, r2
 b1c:	001e      	movs	r6, r3

    //float BAUD = 65536*(1-(16*(115200/(48000000/8))));


    sercomReset(id);
 b1e:	4b0c      	ldr	r3, [pc, #48]	; (b50 <sercomUartInit+0x3c>)
 b20:	4798      	blx	r3
 b22:	02a0      	lsls	r0, r4, #10
 b24:	4b0b      	ldr	r3, [pc, #44]	; (b54 <sercomUartInit+0x40>)
 b26:	469c      	mov	ip, r3
 b28:	4460      	add	r0, ip
    sercom(id)->USART.CTRLA.reg = SERCOM_USART_CTRLA_MODE_USART_INT_CLK;
 b2a:	2304      	movs	r3, #4
 b2c:	6003      	str	r3, [r0, #0]
    sercom(id)->USART.BAUD.reg = BAUD;
 b2e:	b2b6      	uxth	r6, r6
 b30:	8186      	strh	r6, [r0, #12]
    sercom(id)->USART.CTRLB.reg
        = SERCOM_USART_CTRLB_RXEN
 b32:	23c0      	movs	r3, #192	; 0xc0
 b34:	029b      	lsls	r3, r3, #10
 b36:	6043      	str	r3, [r0, #4]
    sercom(id)->USART.CTRLA.reg
        = SERCOM_USART_CTRLA_ENABLE
          | SERCOM_USART_CTRLA_MODE_USART_INT_CLK
          | SERCOM_SPI_CTRLA_DORD
          | SERCOM_USART_CTRLA_TXPO(txpo)
          | SERCOM_USART_CTRLA_RXPO(rxpo);
 b38:	0539      	lsls	r1, r7, #20
 b3a:	22c0      	movs	r2, #192	; 0xc0
 b3c:	0392      	lsls	r2, r2, #14
 b3e:	4011      	ands	r1, r2
 b40:	4a05      	ldr	r2, [pc, #20]	; (b58 <sercomUartInit+0x44>)
 b42:	4311      	orrs	r1, r2
 b44:	042d      	lsls	r5, r5, #16
 b46:	402b      	ands	r3, r5
 b48:	430b      	orrs	r3, r1
    sercom(id)->USART.BAUD.reg = BAUD;
    sercom(id)->USART.CTRLB.reg
        = SERCOM_USART_CTRLB_RXEN
          | SERCOM_USART_CTRLB_TXEN;
    sercom(id)->USART.CTRLA.reg
        = SERCOM_USART_CTRLA_ENABLE
 b4a:	6003      	str	r3, [r0, #0]
          | SERCOM_USART_CTRLA_MODE_USART_INT_CLK
          | SERCOM_SPI_CTRLA_DORD
          | SERCOM_USART_CTRLA_TXPO(txpo)
          | SERCOM_USART_CTRLA_RXPO(rxpo);
}
 b4c:	bdf8      	pop	{r3, r4, r5, r6, r7, pc}
 b4e:	46c0      	nop			; (mov r8, r8)
 b50:	00000af9 	.word	0x00000af9
 b54:	42000800 	.word	0x42000800
 b58:	40000006 	.word	0x40000006

00000b5c <__libc_init_array>:
 b5c:	4b0e      	ldr	r3, [pc, #56]	; (b98 <__libc_init_array+0x3c>)
 b5e:	b570      	push	{r4, r5, r6, lr}
 b60:	2500      	movs	r5, #0
 b62:	001e      	movs	r6, r3
 b64:	4c0d      	ldr	r4, [pc, #52]	; (b9c <__libc_init_array+0x40>)
 b66:	1ae4      	subs	r4, r4, r3
 b68:	10a4      	asrs	r4, r4, #2
 b6a:	42a5      	cmp	r5, r4
 b6c:	d004      	beq.n	b78 <__libc_init_array+0x1c>
 b6e:	00ab      	lsls	r3, r5, #2
 b70:	58f3      	ldr	r3, [r6, r3]
 b72:	4798      	blx	r3
 b74:	3501      	adds	r5, #1
 b76:	e7f8      	b.n	b6a <__libc_init_array+0xe>
 b78:	f000 f822 	bl	bc0 <_init>
 b7c:	4b08      	ldr	r3, [pc, #32]	; (ba0 <__libc_init_array+0x44>)
 b7e:	2500      	movs	r5, #0
 b80:	001e      	movs	r6, r3
 b82:	4c08      	ldr	r4, [pc, #32]	; (ba4 <__libc_init_array+0x48>)
 b84:	1ae4      	subs	r4, r4, r3
 b86:	10a4      	asrs	r4, r4, #2
 b88:	42a5      	cmp	r5, r4
 b8a:	d004      	beq.n	b96 <__libc_init_array+0x3a>
 b8c:	00ab      	lsls	r3, r5, #2
 b8e:	58f3      	ldr	r3, [r6, r3]
 b90:	4798      	blx	r3
 b92:	3501      	adds	r5, #1
 b94:	e7f8      	b.n	b88 <__libc_init_array+0x2c>
 b96:	bd70      	pop	{r4, r5, r6, pc}
 b98:	00000bcc 	.word	0x00000bcc
 b9c:	00000bcc 	.word	0x00000bcc
 ba0:	00000bcc 	.word	0x00000bcc
 ba4:	00000bd0 	.word	0x00000bd0

00000ba8 <spiMOSI>:
 ba8:	17000000 00000000                       ........

00000bb0 <spiSCK>:
 bb0:	16000000 00000000                       ........

00000bb8 <spiMISO>:
 bb8:	15000000 00000000                       ........

00000bc0 <_init>:
 bc0:	b5f8      	push	{r3, r4, r5, r6, r7, lr}
 bc2:	46c0      	nop			; (mov r8, r8)
 bc4:	bcf8      	pop	{r3, r4, r5, r6, r7}
 bc6:	bc08      	pop	{r3}
 bc8:	469e      	mov	lr, r3
 bca:	4770      	bx	lr

00000bcc <__init_array_start>:
 bcc:	000000dd 	.word	0x000000dd

00000bd0 <_fini>:
 bd0:	b5f8      	push	{r3, r4, r5, r6, r7, lr}
 bd2:	46c0      	nop			; (mov r8, r8)
 bd4:	bcf8      	pop	{r3, r4, r5, r6, r7}
 bd6:	bc08      	pop	{r3}
 bd8:	469e      	mov	lr, r3
 bda:	4770      	bx	lr

00000bdc <__fini_array_start>:
 bdc:	000000b5 	.word	0x000000b5
