
DasAltimeter.elf:     file format elf32-littlearm

Sections:
Idx Name          Size      VMA       LMA       File off  Algn
  0 .text         0000733c  00000000  00000000  00010000  2**3
                  CONTENTS, ALLOC, LOAD, READONLY, CODE
  1 .relocate     00000120  20000000  0000733c  00020000  2**3
                  CONTENTS, ALLOC, LOAD, DATA
  2 .bss          00000530  20000120  00007460  00020120  2**3
                  ALLOC
  3 .stack        00002000  20000650  00007990  00020120  2**0
                  ALLOC
  4 .ARM.attributes 00000028  00000000  00000000  00020120  2**0
                  CONTENTS, READONLY
  5 .comment      00000059  00000000  00000000  00020148  2**0
                  CONTENTS, READONLY
  6 .debug_info   000278ad  00000000  00000000  000201a1  2**0
                  CONTENTS, READONLY, DEBUGGING
  7 .debug_abbrev 00002d96  00000000  00000000  00047a4e  2**0
                  CONTENTS, READONLY, DEBUGGING
  8 .debug_loc    000032bd  00000000  00000000  0004a7e4  2**0
                  CONTENTS, READONLY, DEBUGGING
  9 .debug_aranges 00000520  00000000  00000000  0004daa1  2**0
                  CONTENTS, READONLY, DEBUGGING
 10 .debug_ranges 00000d70  00000000  00000000  0004dfc1  2**0
                  CONTENTS, READONLY, DEBUGGING
 11 .debug_macro  00016929  00000000  00000000  0004ed31  2**0
                  CONTENTS, READONLY, DEBUGGING
 12 .debug_line   0000aa5c  00000000  00000000  0006565a  2**0
                  CONTENTS, READONLY, DEBUGGING
 13 .debug_str    00072cab  00000000  00000000  000700b6  2**0
                  CONTENTS, READONLY, DEBUGGING
 14 .debug_frame  00001210  00000000  00000000  000e2d64  2**2
                  CONTENTS, READONLY, DEBUGGING

Disassembly of section .text:

00000000 <_sfixed>:
 *         retrieved from cpu registers.
 */
void SystemCoreClockUpdate(void)
{
	// Not implemented
	SystemCoreClock = __SYSTEM_CLOCK;
       0:	20002650 	.word	0x20002650
       4:	00000119 	.word	0x00000119
	return;
}
       8:	00000115 	.word	0x00000115
       c:	00000a81 	.word	0x00000a81
	...
      2c:	00000115 	.word	0x00000115
	...
      38:	00000115 	.word	0x00000115
      3c:	00001149 	.word	0x00001149
      40:	00000115 	.word	0x00000115
      44:	00000115 	.word	0x00000115
      48:	00000115 	.word	0x00000115
      4c:	0000117d 	.word	0x0000117d
      50:	00000115 	.word	0x00000115
      54:	00000115 	.word	0x00000115
      58:	00000115 	.word	0x00000115
      5c:	00000115 	.word	0x00000115
      60:	00000115 	.word	0x00000115
      64:	00000115 	.word	0x00000115
      68:	00000115 	.word	0x00000115
      6c:	00000115 	.word	0x00000115
      70:	00000115 	.word	0x00000115
      74:	00000115 	.word	0x00000115
      78:	00000115 	.word	0x00000115
      7c:	00000115 	.word	0x00000115
      80:	00000115 	.word	0x00000115
      84:	00000115 	.word	0x00000115
      88:	00000115 	.word	0x00000115
      8c:	0000121d 	.word	0x0000121d
      90:	00001285 	.word	0x00001285
	...
      9c:	00000115 	.word	0x00000115
      a0:	00000115 	.word	0x00000115
      a4:	00000115 	.word	0x00000115
      a8:	00000115 	.word	0x00000115
      ac:	00000115 	.word	0x00000115
      b0:	00000000 	.word	0x00000000

000000b4 <__do_global_dtors_aux>:
      b4:	b510      	push	{r4, lr}
      b6:	4c06      	ldr	r4, [pc, #24]	; (d0 <__do_global_dtors_aux+0x1c>)
      b8:	7823      	ldrb	r3, [r4, #0]
      ba:	2b00      	cmp	r3, #0
      bc:	d107      	bne.n	ce <__do_global_dtors_aux+0x1a>
      be:	4b05      	ldr	r3, [pc, #20]	; (d4 <__do_global_dtors_aux+0x20>)
      c0:	2b00      	cmp	r3, #0
      c2:	d002      	beq.n	ca <__do_global_dtors_aux+0x16>
      c4:	4804      	ldr	r0, [pc, #16]	; (d8 <__do_global_dtors_aux+0x24>)
      c6:	e000      	b.n	ca <__do_global_dtors_aux+0x16>
      c8:	bf00      	nop
      ca:	2301      	movs	r3, #1
      cc:	7023      	strb	r3, [r4, #0]
      ce:	bd10      	pop	{r4, pc}
      d0:	20000120 	.word	0x20000120
      d4:	00000000 	.word	0x00000000
      d8:	0000733c 	.word	0x0000733c

000000dc <frame_dummy>:
      dc:	4b08      	ldr	r3, [pc, #32]	; (100 <frame_dummy+0x24>)
      de:	b510      	push	{r4, lr}
      e0:	2b00      	cmp	r3, #0
      e2:	d003      	beq.n	ec <frame_dummy+0x10>
      e4:	4907      	ldr	r1, [pc, #28]	; (104 <frame_dummy+0x28>)
      e6:	4808      	ldr	r0, [pc, #32]	; (108 <frame_dummy+0x2c>)
      e8:	e000      	b.n	ec <frame_dummy+0x10>
      ea:	bf00      	nop
      ec:	4807      	ldr	r0, [pc, #28]	; (10c <frame_dummy+0x30>)
      ee:	6803      	ldr	r3, [r0, #0]
      f0:	2b00      	cmp	r3, #0
      f2:	d100      	bne.n	f6 <frame_dummy+0x1a>
      f4:	bd10      	pop	{r4, pc}
      f6:	4b06      	ldr	r3, [pc, #24]	; (110 <frame_dummy+0x34>)
      f8:	2b00      	cmp	r3, #0
      fa:	d0fb      	beq.n	f4 <frame_dummy+0x18>
      fc:	4798      	blx	r3
      fe:	e7f9      	b.n	f4 <frame_dummy+0x18>
     100:	00000000 	.word	0x00000000
     104:	20000124 	.word	0x20000124
     108:	0000733c 	.word	0x0000733c
     10c:	0000733c 	.word	0x0000733c
     110:	00000000 	.word	0x00000000

00000114 <Dummy_Handler>:

/**
 * \brief Default interrupt handler for unused IRQs.
 */
void Dummy_Handler(void)
{
     114:	e7fe      	b.n	114 <Dummy_Handler>
	...

00000118 <Reset_Handler>:
/**
 * \brief This is the code that gets called on processor reset.
 * To initialize the device, and call the main() routine.
 */
void Reset_Handler(void)
{
     118:	4821      	ldr	r0, [pc, #132]	; (1a0 <Reset_Handler+0x88>)
     11a:	4922      	ldr	r1, [pc, #136]	; (1a4 <Reset_Handler+0x8c>)
     11c:	b570      	push	{r4, r5, r6, lr}

        /* Initialize the relocate segment */
        pSrc = &_etext;
        pDest = &_srelocate;

        if (pSrc != pDest) {
     11e:	4288      	cmp	r0, r1
     120:	d002      	beq.n	128 <Reset_Handler+0x10>
     122:	2300      	movs	r3, #0
                for (; pDest < &_erelocate;) {
     124:	4c20      	ldr	r4, [pc, #128]	; (1a8 <Reset_Handler+0x90>)
     126:	e003      	b.n	130 <Reset_Handler+0x18>
     128:	4b20      	ldr	r3, [pc, #128]	; (1ac <Reset_Handler+0x94>)
                        *pDest++ = *pSrc++;
                }
        }

        /* Clear the zero segment */
        for (pDest = &_szero; pDest < &_ezero;) {
     12a:	4a21      	ldr	r2, [pc, #132]	; (1b0 <Reset_Handler+0x98>)
                *pDest++ = 0;
     12c:	2100      	movs	r1, #0
     12e:	e006      	b.n	13e <Reset_Handler+0x26>
        /* Initialize the relocate segment */
        pSrc = &_etext;
        pDest = &_srelocate;

        if (pSrc != pDest) {
                for (; pDest < &_erelocate;) {
     130:	18ca      	adds	r2, r1, r3
     132:	42a2      	cmp	r2, r4
     134:	d2f8      	bcs.n	128 <Reset_Handler+0x10>
                        *pDest++ = *pSrc++;
     136:	58c5      	ldr	r5, [r0, r3]
     138:	3304      	adds	r3, #4
     13a:	6015      	str	r5, [r2, #0]
     13c:	e7f8      	b.n	130 <Reset_Handler+0x18>
                }
        }

        /* Clear the zero segment */
        for (pDest = &_szero; pDest < &_ezero;) {
     13e:	4293      	cmp	r3, r2
     140:	d201      	bcs.n	146 <Reset_Handler+0x2e>
                *pDest++ = 0;
     142:	c302      	stmia	r3!, {r1}
     144:	e7fb      	b.n	13e <Reset_Handler+0x26>
        }

        /* Set the vector table base address */
        pSrc = (uint32_t *) & _sfixed;
        SCB->VTOR = ((uint32_t) pSrc & SCB_VTOR_TBLOFF_Msk);
     146:	21ff      	movs	r1, #255	; 0xff

        /* Change default QOS values to have the best performance and correct USB behaviour */
        SBMATRIX->SFR[SBMATRIX_SLAVE_HMCRAMC0].reg = 2;
     148:	2402      	movs	r4, #2
#if defined(ID_USB)
        USB->DEVICE.QOSCTRL.bit.CQOS = 2;
     14a:	2503      	movs	r5, #3
                *pDest++ = 0;
        }

        /* Set the vector table base address */
        pSrc = (uint32_t *) & _sfixed;
        SCB->VTOR = ((uint32_t) pSrc & SCB_VTOR_TBLOFF_Msk);
     14c:	4b19      	ldr	r3, [pc, #100]	; (1b4 <Reset_Handler+0x9c>)
     14e:	4a1a      	ldr	r2, [pc, #104]	; (1b8 <Reset_Handler+0xa0>)
     150:	438b      	bics	r3, r1

        /* Change default QOS values to have the best performance and correct USB behaviour */
        SBMATRIX->SFR[SBMATRIX_SLAVE_HMCRAMC0].reg = 2;
#if defined(ID_USB)
        USB->DEVICE.QOSCTRL.bit.CQOS = 2;
        USB->DEVICE.QOSCTRL.bit.DQOS = 2;
     152:	260c      	movs	r6, #12
                *pDest++ = 0;
        }

        /* Set the vector table base address */
        pSrc = (uint32_t *) & _sfixed;
        SCB->VTOR = ((uint32_t) pSrc & SCB_VTOR_TBLOFF_Msk);
     154:	6093      	str	r3, [r2, #8]

        /* Change default QOS values to have the best performance and correct USB behaviour */
        SBMATRIX->SFR[SBMATRIX_SLAVE_HMCRAMC0].reg = 2;
#if defined(ID_USB)
        USB->DEVICE.QOSCTRL.bit.CQOS = 2;
        USB->DEVICE.QOSCTRL.bit.DQOS = 2;
     156:	2208      	movs	r2, #8
        /* Set the vector table base address */
        pSrc = (uint32_t *) & _sfixed;
        SCB->VTOR = ((uint32_t) pSrc & SCB_VTOR_TBLOFF_Msk);

        /* Change default QOS values to have the best performance and correct USB behaviour */
        SBMATRIX->SFR[SBMATRIX_SLAVE_HMCRAMC0].reg = 2;
     158:	4b18      	ldr	r3, [pc, #96]	; (1bc <Reset_Handler+0xa4>)
#if defined(ID_USB)
        USB->DEVICE.QOSCTRL.bit.CQOS = 2;
     15a:	4919      	ldr	r1, [pc, #100]	; (1c0 <Reset_Handler+0xa8>)
        /* Set the vector table base address */
        pSrc = (uint32_t *) & _sfixed;
        SCB->VTOR = ((uint32_t) pSrc & SCB_VTOR_TBLOFF_Msk);

        /* Change default QOS values to have the best performance and correct USB behaviour */
        SBMATRIX->SFR[SBMATRIX_SLAVE_HMCRAMC0].reg = 2;
     15c:	625c      	str	r4, [r3, #36]	; 0x24
#if defined(ID_USB)
        USB->DEVICE.QOSCTRL.bit.CQOS = 2;
     15e:	78cb      	ldrb	r3, [r1, #3]
     160:	43ab      	bics	r3, r5
     162:	4323      	orrs	r3, r4
     164:	70cb      	strb	r3, [r1, #3]
        USB->DEVICE.QOSCTRL.bit.DQOS = 2;
     166:	78cb      	ldrb	r3, [r1, #3]
     168:	43b3      	bics	r3, r6
     16a:	4313      	orrs	r3, r2
     16c:	70cb      	strb	r3, [r1, #3]
#endif
        DMAC->QOSCTRL.bit.DQOS = 2;
     16e:	2130      	movs	r1, #48	; 0x30
     170:	4b14      	ldr	r3, [pc, #80]	; (1c4 <Reset_Handler+0xac>)
     172:	7b98      	ldrb	r0, [r3, #14]
     174:	4388      	bics	r0, r1
     176:	3910      	subs	r1, #16
     178:	4308      	orrs	r0, r1
     17a:	7398      	strb	r0, [r3, #14]
        DMAC->QOSCTRL.bit.FQOS = 2;
     17c:	7b99      	ldrb	r1, [r3, #14]
     17e:	43b1      	bics	r1, r6
     180:	4311      	orrs	r1, r2
     182:	7399      	strb	r1, [r3, #14]
        DMAC->QOSCTRL.bit.WRBQOS = 2;

        /* Overwriting the default value of the NVMCTRL.CTRLB.MANW bit (errata reference 13134) */
        NVMCTRL->CTRLB.bit.MANW = 1;
     184:	2180      	movs	r1, #128	; 0x80
        USB->DEVICE.QOSCTRL.bit.CQOS = 2;
        USB->DEVICE.QOSCTRL.bit.DQOS = 2;
#endif
        DMAC->QOSCTRL.bit.DQOS = 2;
        DMAC->QOSCTRL.bit.FQOS = 2;
        DMAC->QOSCTRL.bit.WRBQOS = 2;
     186:	7b9a      	ldrb	r2, [r3, #14]
     188:	43aa      	bics	r2, r5
     18a:	4322      	orrs	r2, r4
     18c:	739a      	strb	r2, [r3, #14]

        /* Overwriting the default value of the NVMCTRL.CTRLB.MANW bit (errata reference 13134) */
        NVMCTRL->CTRLB.bit.MANW = 1;
     18e:	4a0e      	ldr	r2, [pc, #56]	; (1c8 <Reset_Handler+0xb0>)
     190:	6853      	ldr	r3, [r2, #4]
     192:	430b      	orrs	r3, r1
     194:	6053      	str	r3, [r2, #4]

        /* Initialize the C library */
        __libc_init_array();
     196:	4b0d      	ldr	r3, [pc, #52]	; (1cc <Reset_Handler+0xb4>)
     198:	4798      	blx	r3

        /* Branch to main function */
        main();
     19a:	4b0d      	ldr	r3, [pc, #52]	; (1d0 <Reset_Handler+0xb8>)
     19c:	4798      	blx	r3
     19e:	e7fe      	b.n	19e <Reset_Handler+0x86>
     1a0:	0000733c 	.word	0x0000733c
     1a4:	20000000 	.word	0x20000000
     1a8:	20000120 	.word	0x20000120
     1ac:	20000120 	.word	0x20000120
     1b0:	20000650 	.word	0x20000650
     1b4:	00000000 	.word	0x00000000
     1b8:	e000ed00 	.word	0xe000ed00
     1bc:	410070fc 	.word	0x410070fc
     1c0:	41005000 	.word	0x41005000
     1c4:	41004800 	.word	0x41004800
     1c8:	41004000 	.word	0x41004000
     1cc:	000071d5 	.word	0x000071d5
     1d0:	000009d5 	.word	0x000009d5

000001d4 <SystemInit>:
     1d4:	4a01      	ldr	r2, [pc, #4]	; (1dc <SystemInit+0x8>)
     1d6:	4b02      	ldr	r3, [pc, #8]	; (1e0 <SystemInit+0xc>)
     1d8:	601a      	str	r2, [r3, #0]
     1da:	4770      	bx	lr
     1dc:	000f4240 	.word	0x000f4240
     1e0:	20000000 	.word	0x20000000

000001e4 <AT25SFHoldTillReady>:
    PORT->Group[p.group].OUTSET.reg = (1<<p.pin);
}


inline static void pinLow(Pin p) {
    PORT->Group[p.group].OUTCLR.reg = (1<<p.pin);
     1e4:	2380      	movs	r3, #128	; 0x80
    pinLow(cs_mem);
    spiDataOut(MEM_SPI,OPCODE_WRITEENABLE);
    pinHigh(cs_mem);
}

void AT25SFHoldTillReady() {
     1e6:	b570      	push	{r4, r5, r6, lr}
     1e8:	4c08      	ldr	r4, [pc, #32]	; (20c <AT25SFHoldTillReady+0x28>)
     1ea:	02db      	lsls	r3, r3, #11
     1ec:	6163      	str	r3, [r4, #20]
    pinLow(cs_mem);
    spiDataOut(MEM_SPI,OPCODE_READSTATUS);
     1ee:	2105      	movs	r1, #5
     1f0:	2001      	movs	r0, #1
     1f2:	4b07      	ldr	r3, [pc, #28]	; (210 <AT25SFHoldTillReady+0x2c>)
     1f4:	4798      	blx	r3
    while (spiDataIn(MEM_SPI) & 0x01);
     1f6:	2501      	movs	r5, #1
     1f8:	2001      	movs	r0, #1
     1fa:	4b06      	ldr	r3, [pc, #24]	; (214 <AT25SFHoldTillReady+0x30>)
     1fc:	4798      	blx	r3
     1fe:	4228      	tst	r0, r5
     200:	d1fa      	bne.n	1f8 <AT25SFHoldTillReady+0x14>
	pinGpio(p);
    PORT->Group[p.group].PINCFG[p.pin].bit.DRVSTR = 1;
}

inline static void pinHigh(Pin p) {
    PORT->Group[p.group].OUTSET.reg = (1<<p.pin);
     202:	2380      	movs	r3, #128	; 0x80
     204:	02db      	lsls	r3, r3, #11
     206:	61a3      	str	r3, [r4, #24]
    pinHigh(cs_mem);
}
     208:	bd70      	pop	{r4, r5, r6, pc}
     20a:	46c0      	nop			; (mov r8, r8)
     20c:	41004400 	.word	0x41004400
     210:	00003829 	.word	0x00003829
     214:	00003841 	.word	0x00003841

00000218 <AT25SFChipErase>:
void AT25SFChipErase() {
     218:	b570      	push	{r4, r5, r6, lr}
}


inline static void pinLow(Pin p) {
    PORT->Group[p.group].OUTCLR.reg = (1<<p.pin);
     21a:	2580      	movs	r5, #128	; 0x80
     21c:	4c06      	ldr	r4, [pc, #24]	; (238 <AT25SFChipErase+0x20>)
     21e:	02ed      	lsls	r5, r5, #11

    pinLow(cs_mem);
    spiDataOut(MEM_SPI,OPCODE_WRITEENABLE);
     220:	4e06      	ldr	r6, [pc, #24]	; (23c <AT25SFChipErase+0x24>)
     222:	6165      	str	r5, [r4, #20]
     224:	2106      	movs	r1, #6
     226:	2001      	movs	r0, #1
     228:	47b0      	blx	r6
	pinGpio(p);
    PORT->Group[p.group].PINCFG[p.pin].bit.DRVSTR = 1;
}

inline static void pinHigh(Pin p) {
    PORT->Group[p.group].OUTSET.reg = (1<<p.pin);
     22a:	61a5      	str	r5, [r4, #24]
    pinHigh(cs_mem);

    pinLow(cs_mem);
    spiDataOut(MEM_SPI,OPCODE_CHIP_ERASE);
     22c:	2160      	movs	r1, #96	; 0x60
}


inline static void pinLow(Pin p) {
    PORT->Group[p.group].OUTCLR.reg = (1<<p.pin);
     22e:	6165      	str	r5, [r4, #20]
     230:	2001      	movs	r0, #1
     232:	47b0      	blx	r6
	pinGpio(p);
    PORT->Group[p.group].PINCFG[p.pin].bit.DRVSTR = 1;
}

inline static void pinHigh(Pin p) {
    PORT->Group[p.group].OUTSET.reg = (1<<p.pin);
     234:	61a5      	str	r5, [r4, #24]
    pinHigh(cs_mem);
}
     236:	bd70      	pop	{r4, r5, r6, pc}
     238:	41004400 	.word	0x41004400
     23c:	00003829 	.word	0x00003829

00000240 <AT25SFWriteBytes>:
    pinHigh(cs_mem);

    return _byte;
}

void AT25SFWriteBytes(uint32_t address, u8_t len, uint8_t *bytes) {
     240:	b5f7      	push	{r0, r1, r2, r4, r5, r6, r7, lr}
}


inline static void pinLow(Pin p) {
    PORT->Group[p.group].OUTCLR.reg = (1<<p.pin);
     242:	2780      	movs	r7, #128	; 0x80
     244:	0006      	movs	r6, r0
     246:	4d14      	ldr	r5, [pc, #80]	; (298 <AT25SFWriteBytes+0x58>)

    AT25SFHoldTillReady();
     248:	4b14      	ldr	r3, [pc, #80]	; (29c <AT25SFWriteBytes+0x5c>)
     24a:	02ff      	lsls	r7, r7, #11
    pinHigh(cs_mem);

    return _byte;
}

void AT25SFWriteBytes(uint32_t address, u8_t len, uint8_t *bytes) {
     24c:	9201      	str	r2, [sp, #4]
     24e:	9100      	str	r1, [sp, #0]

    AT25SFHoldTillReady();
     250:	4798      	blx	r3

    pinLow(cs_mem);
    spiDataOut(MEM_SPI,OPCODE_WRITEENABLE);
     252:	4c13      	ldr	r4, [pc, #76]	; (2a0 <AT25SFWriteBytes+0x60>)
     254:	616f      	str	r7, [r5, #20]
     256:	2106      	movs	r1, #6
     258:	2001      	movs	r0, #1
     25a:	47a0      	blx	r4
	pinGpio(p);
    PORT->Group[p.group].PINCFG[p.pin].bit.DRVSTR = 1;
}

inline static void pinHigh(Pin p) {
    PORT->Group[p.group].OUTSET.reg = (1<<p.pin);
     25c:	61af      	str	r7, [r5, #24]
    pinHigh(cs_mem);

    pinLow(cs_mem);
    spiDataOut(MEM_SPI,OPCODE_PROGRAM);
     25e:	2102      	movs	r1, #2
}


inline static void pinLow(Pin p) {
    PORT->Group[p.group].OUTCLR.reg = (1<<p.pin);
     260:	616f      	str	r7, [r5, #20]
     262:	2001      	movs	r0, #1
     264:	47a0      	blx	r4
    spiDataOut(MEM_SPI,((address & 0xFF0000) >> 16));
     266:	0c31      	lsrs	r1, r6, #16
     268:	b2c9      	uxtb	r1, r1
     26a:	2001      	movs	r0, #1
     26c:	47a0      	blx	r4
    spiDataOut(MEM_SPI,((address & 0x00FF00) >>  8));
     26e:	0a31      	lsrs	r1, r6, #8
     270:	b2c9      	uxtb	r1, r1
     272:	2001      	movs	r0, #1
     274:	47a0      	blx	r4
    spiDataOut(MEM_SPI,((address & 0x0000FF) >>  0));
     276:	b2f1      	uxtb	r1, r6
     278:	2001      	movs	r0, #1
     27a:	47a0      	blx	r4
     27c:	9e01      	ldr	r6, [sp, #4]
     27e:	9b00      	ldr	r3, [sp, #0]
     280:	18f7      	adds	r7, r6, r3

    for (u8_t pos = 0; pos < len; ++pos) {
     282:	42be      	cmp	r6, r7
     284:	d004      	beq.n	290 <AT25SFWriteBytes+0x50>
        spiDataOut(MEM_SPI, bytes[pos]);
     286:	7831      	ldrb	r1, [r6, #0]
     288:	2001      	movs	r0, #1
     28a:	47a0      	blx	r4
     28c:	3601      	adds	r6, #1
     28e:	e7f8      	b.n	282 <AT25SFWriteBytes+0x42>
	pinGpio(p);
    PORT->Group[p.group].PINCFG[p.pin].bit.DRVSTR = 1;
}

inline static void pinHigh(Pin p) {
    PORT->Group[p.group].OUTSET.reg = (1<<p.pin);
     290:	2380      	movs	r3, #128	; 0x80
     292:	02db      	lsls	r3, r3, #11
     294:	61ab      	str	r3, [r5, #24]
    }

    pinHigh(cs_mem);

}
     296:	bdf7      	pop	{r0, r1, r2, r4, r5, r6, r7, pc}
     298:	41004400 	.word	0x41004400
     29c:	000001e5 	.word	0x000001e5
     2a0:	00003829 	.word	0x00003829

000002a4 <AT25SEWritePage>:
    delay_ms(70);

}


u8_t AT25SEWritePage(u32_t startingAddress, u8_t *data) {
     2a4:	b5f7      	push	{r0, r1, r2, r4, r5, r6, r7, lr}
}


inline static void pinLow(Pin p) {
    PORT->Group[p.group].OUTCLR.reg = (1<<p.pin);
     2a6:	2780      	movs	r7, #128	; 0x80
     2a8:	0006      	movs	r6, r0
     2aa:	4d13      	ldr	r5, [pc, #76]	; (2f8 <AT25SEWritePage+0x54>)
     2ac:	02ff      	lsls	r7, r7, #11

    u8_t bytesSent = 0;

    pinLow(cs_mem);
    spiDataOut(MEM_SPI,OPCODE_WRITEENABLE);
     2ae:	4c13      	ldr	r4, [pc, #76]	; (2fc <AT25SEWritePage+0x58>)
    delay_ms(70);

}


u8_t AT25SEWritePage(u32_t startingAddress, u8_t *data) {
     2b0:	9101      	str	r1, [sp, #4]

    u8_t bytesSent = 0;

    pinLow(cs_mem);
    spiDataOut(MEM_SPI,OPCODE_WRITEENABLE);
     2b2:	2001      	movs	r0, #1
     2b4:	616f      	str	r7, [r5, #20]
     2b6:	2106      	movs	r1, #6
     2b8:	47a0      	blx	r4
	pinGpio(p);
    PORT->Group[p.group].PINCFG[p.pin].bit.DRVSTR = 1;
}

inline static void pinHigh(Pin p) {
    PORT->Group[p.group].OUTSET.reg = (1<<p.pin);
     2ba:	61af      	str	r7, [r5, #24]
    pinHigh(cs_mem);

    pinLow(cs_mem);
    spiDataOut(MEM_SPI,OPCODE_PROGRAM);
     2bc:	2102      	movs	r1, #2
}


inline static void pinLow(Pin p) {
    PORT->Group[p.group].OUTCLR.reg = (1<<p.pin);
     2be:	616f      	str	r7, [r5, #20]
     2c0:	2001      	movs	r0, #1
     2c2:	47a0      	blx	r4
    spiDataOut(MEM_SPI,((startingAddress & 0xFF0000) >> 16));
     2c4:	0c31      	lsrs	r1, r6, #16
     2c6:	b2c9      	uxtb	r1, r1
     2c8:	2001      	movs	r0, #1
     2ca:	47a0      	blx	r4
    spiDataOut(MEM_SPI,((startingAddress & 0x00FF00) >>  8));
     2cc:	0a31      	lsrs	r1, r6, #8
     2ce:	b2c9      	uxtb	r1, r1
     2d0:	2001      	movs	r0, #1
     2d2:	47a0      	blx	r4
    spiDataOut(MEM_SPI,((startingAddress & 0x0000FF) >>  0));
     2d4:	b2f1      	uxtb	r1, r6
     2d6:	2001      	movs	r0, #1
     2d8:	47a0      	blx	r4
     2da:	9e01      	ldr	r6, [sp, #4]
     2dc:	1c77      	adds	r7, r6, #1
     2de:	37ff      	adds	r7, #255	; 0xff


    for (u16_t pos = 0; pos < 256; ++pos) {
        ++bytesSent;
        spiDataOut(SPI1,data[pos]);
     2e0:	7831      	ldrb	r1, [r6, #0]
     2e2:	2001      	movs	r0, #1
     2e4:	3601      	adds	r6, #1
     2e6:	47a0      	blx	r4
    spiDataOut(MEM_SPI,((startingAddress & 0xFF0000) >> 16));
    spiDataOut(MEM_SPI,((startingAddress & 0x00FF00) >>  8));
    spiDataOut(MEM_SPI,((startingAddress & 0x0000FF) >>  0));


    for (u16_t pos = 0; pos < 256; ++pos) {
     2e8:	42be      	cmp	r6, r7
     2ea:	d1f9      	bne.n	2e0 <AT25SEWritePage+0x3c>
	pinGpio(p);
    PORT->Group[p.group].PINCFG[p.pin].bit.DRVSTR = 1;
}

inline static void pinHigh(Pin p) {
    PORT->Group[p.group].OUTSET.reg = (1<<p.pin);
     2ec:	2380      	movs	r3, #128	; 0x80
     2ee:	02db      	lsls	r3, r3, #11
     2f0:	61ab      	str	r3, [r5, #24]
    }
    pinHigh(cs_mem);


    return bytesSent;
}
     2f2:	2000      	movs	r0, #0
     2f4:	bdfe      	pop	{r1, r2, r3, r4, r5, r6, r7, pc}
     2f6:	46c0      	nop			; (mov r8, r8)
     2f8:	41004400 	.word	0x41004400
     2fc:	00003829 	.word	0x00003829

00000300 <AT25SEreadSample>:
}


inline static void pinLow(Pin p) {
    PORT->Group[p.group].OUTCLR.reg = (1<<p.pin);
     300:	2380      	movs	r3, #128	; 0x80

void AT25SEreadSample(u32_t startingAddress, u8_t len, u8_t *data) {
     302:	b5f7      	push	{r0, r1, r2, r4, r5, r6, r7, lr}
     304:	0005      	movs	r5, r0
     306:	000f      	movs	r7, r1
     308:	4e11      	ldr	r6, [pc, #68]	; (350 <AT25SEreadSample+0x50>)
     30a:	02db      	lsls	r3, r3, #11
     30c:	9201      	str	r2, [sp, #4]

    pinLow(cs_mem);
    spiDataOut(MEM_SPI,OPCODE_FASTREAD_ARRAY);
     30e:	4c11      	ldr	r4, [pc, #68]	; (354 <AT25SEreadSample+0x54>)
     310:	6173      	str	r3, [r6, #20]
     312:	210b      	movs	r1, #11
     314:	2001      	movs	r0, #1
     316:	47a0      	blx	r4
    spiDataOut(MEM_SPI,((startingAddress & 0xFF0000) >> 16));
     318:	0c29      	lsrs	r1, r5, #16
     31a:	b2c9      	uxtb	r1, r1
     31c:	2001      	movs	r0, #1
     31e:	47a0      	blx	r4
    spiDataOut(MEM_SPI,((startingAddress & 0x00FF00) >>  8));
     320:	0a29      	lsrs	r1, r5, #8
     322:	b2c9      	uxtb	r1, r1
     324:	2001      	movs	r0, #1
     326:	47a0      	blx	r4
    spiDataOut(MEM_SPI,((startingAddress & 0x0000FF) >>  0));
     328:	b2e9      	uxtb	r1, r5
     32a:	2001      	movs	r0, #1
     32c:	47a0      	blx	r4
    spiDataOut(MEM_SPI, 0xFF);
     32e:	21ff      	movs	r1, #255	; 0xff
     330:	2001      	movs	r0, #1
     332:	47a0      	blx	r4
     334:	9c01      	ldr	r4, [sp, #4]
     336:	19e7      	adds	r7, r4, r7


    for (u8_t pos = 0; pos < len; ++pos) {
     338:	42bc      	cmp	r4, r7
     33a:	d005      	beq.n	348 <AT25SEreadSample+0x48>
        data[pos] = spiDataIn(MEM_SPI);
     33c:	2001      	movs	r0, #1
     33e:	4b06      	ldr	r3, [pc, #24]	; (358 <AT25SEreadSample+0x58>)
     340:	4798      	blx	r3
     342:	7020      	strb	r0, [r4, #0]
     344:	3401      	adds	r4, #1
     346:	e7f7      	b.n	338 <AT25SEreadSample+0x38>
	pinGpio(p);
    PORT->Group[p.group].PINCFG[p.pin].bit.DRVSTR = 1;
}

inline static void pinHigh(Pin p) {
    PORT->Group[p.group].OUTSET.reg = (1<<p.pin);
     348:	2380      	movs	r3, #128	; 0x80
     34a:	02db      	lsls	r3, r3, #11
     34c:	61b3      	str	r3, [r6, #24]
    }
    pinHigh(cs_mem);

}
     34e:	bdf7      	pop	{r0, r1, r2, r4, r5, r6, r7, pc}
     350:	41004400 	.word	0x41004400
     354:	00003829 	.word	0x00003829
     358:	00003841 	.word	0x00003841

0000035c <AT25SEreadPage>:

void AT25SEreadPage(u32_t startingAddress, u8_t *data) {
     35c:	b5f8      	push	{r3, r4, r5, r6, r7, lr}
}


inline static void pinLow(Pin p) {
    PORT->Group[p.group].OUTCLR.reg = (1<<p.pin);
     35e:	2380      	movs	r3, #128	; 0x80
     360:	0007      	movs	r7, r0
     362:	000c      	movs	r4, r1
     364:	4e10      	ldr	r6, [pc, #64]	; (3a8 <AT25SEreadPage+0x4c>)
     366:	02db      	lsls	r3, r3, #11

    pinLow(cs_mem);
    spiDataOut(MEM_SPI,OPCODE_FASTREAD_ARRAY);
     368:	4d10      	ldr	r5, [pc, #64]	; (3ac <AT25SEreadPage+0x50>)
     36a:	6173      	str	r3, [r6, #20]
     36c:	210b      	movs	r1, #11
     36e:	2001      	movs	r0, #1
     370:	47a8      	blx	r5
    spiDataOut(MEM_SPI,((startingAddress & 0xFF0000) >> 16));
     372:	0c39      	lsrs	r1, r7, #16
     374:	b2c9      	uxtb	r1, r1
     376:	2001      	movs	r0, #1
     378:	47a8      	blx	r5
    spiDataOut(MEM_SPI,((startingAddress & 0x00FF00) >>  8));
     37a:	0a39      	lsrs	r1, r7, #8
     37c:	b2c9      	uxtb	r1, r1
     37e:	2001      	movs	r0, #1
     380:	47a8      	blx	r5
    spiDataOut(MEM_SPI,((startingAddress & 0x0000FF) >>  0));
     382:	b2f9      	uxtb	r1, r7
     384:	2001      	movs	r0, #1
     386:	47a8      	blx	r5
    spiDataOut(MEM_SPI, 0xFF);
     388:	21ff      	movs	r1, #255	; 0xff
     38a:	2001      	movs	r0, #1
     38c:	47a8      	blx	r5
     38e:	1c65      	adds	r5, r4, #1
     390:	35ff      	adds	r5, #255	; 0xff

    for (u16_t pos = 0; pos < 256; ++pos) {
        data[pos] = spiDataIn(MEM_SPI);
     392:	2001      	movs	r0, #1
     394:	4b06      	ldr	r3, [pc, #24]	; (3b0 <AT25SEreadPage+0x54>)
     396:	4798      	blx	r3
     398:	7020      	strb	r0, [r4, #0]
     39a:	3401      	adds	r4, #1
    spiDataOut(MEM_SPI,((startingAddress & 0xFF0000) >> 16));
    spiDataOut(MEM_SPI,((startingAddress & 0x00FF00) >>  8));
    spiDataOut(MEM_SPI,((startingAddress & 0x0000FF) >>  0));
    spiDataOut(MEM_SPI, 0xFF);

    for (u16_t pos = 0; pos < 256; ++pos) {
     39c:	42ac      	cmp	r4, r5
     39e:	d1f8      	bne.n	392 <AT25SEreadPage+0x36>
	pinGpio(p);
    PORT->Group[p.group].PINCFG[p.pin].bit.DRVSTR = 1;
}

inline static void pinHigh(Pin p) {
    PORT->Group[p.group].OUTSET.reg = (1<<p.pin);
     3a0:	2380      	movs	r3, #128	; 0x80
     3a2:	02db      	lsls	r3, r3, #11
     3a4:	61b3      	str	r3, [r6, #24]
        data[pos] = spiDataIn(MEM_SPI);
    }
    pinHigh(cs_mem);

}
     3a6:	bdf8      	pop	{r3, r4, r5, r6, r7, pc}
     3a8:	41004400 	.word	0x41004400
     3ac:	00003829 	.word	0x00003829
     3b0:	00003841 	.word	0x00003841

000003b4 <readMS5803AdcResults>:
#include <MS5803.h>
#include <boardDefines.h>
#include <math.h>

u32_t readMS5803AdcResults() {
     3b4:	b5f7      	push	{r0, r1, r2, r4, r5, r6, r7, lr}
}


inline static void pinLow(Pin p) {
    PORT->Group[p.group].OUTCLR.reg = (1<<p.pin);
     3b6:	2780      	movs	r7, #128	; 0x80
     3b8:	4e0b      	ldr	r6, [pc, #44]	; (3e8 <readMS5803AdcResults+0x34>)
     3ba:	01ff      	lsls	r7, r7, #7

    pinLow(cs_baro);
    spiDataOut(BARO_SPI, cmdAdcRead_);
     3bc:	2100      	movs	r1, #0
     3be:	4b0b      	ldr	r3, [pc, #44]	; (3ec <readMS5803AdcResults+0x38>)
     3c0:	6177      	str	r7, [r6, #20]
     3c2:	2002      	movs	r0, #2
     3c4:	4798      	blx	r3
    u8_t _byte1 = spiDataIn(SPI2);
     3c6:	4d0a      	ldr	r5, [pc, #40]	; (3f0 <readMS5803AdcResults+0x3c>)
     3c8:	2002      	movs	r0, #2
     3ca:	47a8      	blx	r5
     3cc:	0004      	movs	r4, r0
    u8_t _byte2 = spiDataIn(SPI2);
     3ce:	2002      	movs	r0, #2
     3d0:	47a8      	blx	r5
     3d2:	9001      	str	r0, [sp, #4]
    u8_t _byte3 = spiDataIn(SPI2);
     3d4:	2002      	movs	r0, #2
     3d6:	47a8      	blx	r5
	pinGpio(p);
    PORT->Group[p.group].PINCFG[p.pin].bit.DRVSTR = 1;
}

inline static void pinHigh(Pin p) {
    PORT->Group[p.group].OUTSET.reg = (1<<p.pin);
     3d8:	61b7      	str	r7, [r6, #24]
    pinHigh(cs_baro);

    u32_t _receive = (_byte1 << 16) | (_byte2 << 8) | (_byte3);
    return _receive;
     3da:	9b01      	ldr	r3, [sp, #4]
     3dc:	0424      	lsls	r4, r4, #16
     3de:	021b      	lsls	r3, r3, #8
     3e0:	431c      	orrs	r4, r3
     3e2:	4320      	orrs	r0, r4
}
     3e4:	bdfe      	pop	{r1, r2, r3, r4, r5, r6, r7, pc}
     3e6:	46c0      	nop			; (mov r8, r8)
     3e8:	41004400 	.word	0x41004400
     3ec:	00003829 	.word	0x00003829
     3f0:	00003841 	.word	0x00003841

000003f4 <ConvertPressureTemperature>:

void ConvertPressureTemperature(u32_t pressureRaw, u32_t tempRaw, u32_t* temperatureCelcus, int32_t* pressureMbar ) {
     3f4:	b5f0      	push	{r4, r5, r6, r7, lr}
     3f6:	b087      	sub	sp, #28
     3f8:	9304      	str	r3, [sp, #16]
    const u16_t C1 = coefficients_[1];
     3fa:	4b24      	ldr	r3, [pc, #144]	; (48c <ConvertPressureTemperature+0x98>)

    u32_t _receive = (_byte1 << 16) | (_byte2 << 8) | (_byte3);
    return _receive;
}

void ConvertPressureTemperature(u32_t pressureRaw, u32_t tempRaw, u32_t* temperatureCelcus, int32_t* pressureMbar ) {
     3fc:	9003      	str	r0, [sp, #12]
     3fe:	0014      	movs	r4, r2
    const u16_t C1 = coefficients_[1];
     400:	885a      	ldrh	r2, [r3, #2]
    const u16_t C5 = coefficients_[5];
    const u16_t C6 = coefficients_[6];

    // calculate 1st order pressure and temperature (MS5607 1st order algorithm)
    const  int32_t dT = (tempRaw) - ((int32_t)C5 << 8);
    *temperatureCelcus  = 2000 + (((int64_t)dT * C6) >> 23) ;
     402:	4f23      	ldr	r7, [pc, #140]	; (490 <ConvertPressureTemperature+0x9c>)
    u32_t _receive = (_byte1 << 16) | (_byte2 << 8) | (_byte3);
    return _receive;
}

void ConvertPressureTemperature(u32_t pressureRaw, u32_t tempRaw, u32_t* temperatureCelcus, int32_t* pressureMbar ) {
    const u16_t C1 = coefficients_[1];
     404:	9201      	str	r2, [sp, #4]
    const u16_t C2 = coefficients_[2];
     406:	889a      	ldrh	r2, [r3, #4]
     408:	9200      	str	r2, [sp, #0]
    const u16_t C3 = coefficients_[3];
    const u16_t C4 = coefficients_[4];
     40a:	891a      	ldrh	r2, [r3, #8]
}

void ConvertPressureTemperature(u32_t pressureRaw, u32_t tempRaw, u32_t* temperatureCelcus, int32_t* pressureMbar ) {
    const u16_t C1 = coefficients_[1];
    const u16_t C2 = coefficients_[2];
    const u16_t C3 = coefficients_[3];
     40c:	88dd      	ldrh	r5, [r3, #6]
    const u16_t C4 = coefficients_[4];
     40e:	9202      	str	r2, [sp, #8]
    const u16_t C5 = coefficients_[5];
    const u16_t C6 = coefficients_[6];

    // calculate 1st order pressure and temperature (MS5607 1st order algorithm)
    const  int32_t dT = (tempRaw) - ((int32_t)C5 << 8);
    *temperatureCelcus  = 2000 + (((int64_t)dT * C6) >> 23) ;
     410:	895e      	ldrh	r6, [r3, #10]
     412:	0236      	lsls	r6, r6, #8
     414:	1b8e      	subs	r6, r1, r6
     416:	17f2      	asrs	r2, r6, #31
     418:	9205      	str	r2, [sp, #20]
     41a:	8998      	ldrh	r0, [r3, #12]
     41c:	0032      	movs	r2, r6
     41e:	17f3      	asrs	r3, r6, #31
     420:	2100      	movs	r1, #0
     422:	47b8      	blx	r7
     424:	23fa      	movs	r3, #250	; 0xfa
     426:	0249      	lsls	r1, r1, #9
     428:	0dc0      	lsrs	r0, r0, #23
     42a:	4308      	orrs	r0, r1
     42c:	00db      	lsls	r3, r3, #3
     42e:	18c0      	adds	r0, r0, r3
     430:	6020      	str	r0, [r4, #0]

    const  int64_t OFF   = ((int64_t)C2 << 17) + ((C4 * (int64_t)dT) >> 6);
    const  int64_t SENS  =  ((int64_t)C1 << 16) + ((C3 * (int64_t)dT) >> 7);
    *pressureMbar = ((((pressureRaw * SENS) >> 21) - OFF) >> 15);
     432:	0032      	movs	r2, r6
     434:	17f3      	asrs	r3, r6, #31
     436:	0028      	movs	r0, r5
     438:	2100      	movs	r1, #0
     43a:	47b8      	blx	r7
     43c:	064c      	lsls	r4, r1, #25
     43e:	11cb      	asrs	r3, r1, #7
     440:	2100      	movs	r1, #0
     442:	09c2      	lsrs	r2, r0, #7
     444:	4322      	orrs	r2, r4
     446:	9c01      	ldr	r4, [sp, #4]
     448:	0420      	lsls	r0, r4, #16
     44a:	1880      	adds	r0, r0, r2
     44c:	4159      	adcs	r1, r3
     44e:	9a03      	ldr	r2, [sp, #12]
     450:	2300      	movs	r3, #0
     452:	47b8      	blx	r7
     454:	02cb      	lsls	r3, r1, #11
     456:	0d44      	lsrs	r4, r0, #21
     458:	0032      	movs	r2, r6
     45a:	431c      	orrs	r4, r3
     45c:	154d      	asrs	r5, r1, #21
     45e:	9b05      	ldr	r3, [sp, #20]
     460:	9802      	ldr	r0, [sp, #8]
     462:	2100      	movs	r1, #0
     464:	47b8      	blx	r7
     466:	068b      	lsls	r3, r1, #26
     468:	118f      	asrs	r7, r1, #6
     46a:	9900      	ldr	r1, [sp, #0]
     46c:	0986      	lsrs	r6, r0, #6
     46e:	431e      	orrs	r6, r3
     470:	044a      	lsls	r2, r1, #17
     472:	0bcb      	lsrs	r3, r1, #15
     474:	1992      	adds	r2, r2, r6
     476:	417b      	adcs	r3, r7
     478:	1aa4      	subs	r4, r4, r2
     47a:	419d      	sbcs	r5, r3
     47c:	046b      	lsls	r3, r5, #17
     47e:	0be4      	lsrs	r4, r4, #15
     480:	431c      	orrs	r4, r3
     482:	9b04      	ldr	r3, [sp, #16]
     484:	601c      	str	r4, [r3, #0]

}
     486:	b007      	add	sp, #28
     488:	bdf0      	pop	{r4, r5, r6, r7, pc}
     48a:	46c0      	nop			; (mov r8, r8)
     48c:	200002ae 	.word	0x200002ae
     490:	000050f1 	.word	0x000050f1

00000494 <paToFeetNOAA>:

double paToFeetNOAA(int32_t pressureMbar) {
     494:	b510      	push	{r4, lr}

    double lower =(((double)(pressureMbar)/100)/1013.25);
    double exponent = 0.190284;

    double altFeet = (1-pow(lower,exponent))*145366.45;
     496:	4b0c      	ldr	r3, [pc, #48]	; (4c8 <paToFeetNOAA+0x34>)
     498:	4798      	blx	r3
     49a:	4c0c      	ldr	r4, [pc, #48]	; (4cc <paToFeetNOAA+0x38>)
     49c:	2200      	movs	r2, #0
     49e:	4b0c      	ldr	r3, [pc, #48]	; (4d0 <paToFeetNOAA+0x3c>)
     4a0:	47a0      	blx	r4
     4a2:	2200      	movs	r2, #0
     4a4:	4b0b      	ldr	r3, [pc, #44]	; (4d4 <paToFeetNOAA+0x40>)
     4a6:	47a0      	blx	r4
     4a8:	4a0b      	ldr	r2, [pc, #44]	; (4d8 <paToFeetNOAA+0x44>)
     4aa:	4b0c      	ldr	r3, [pc, #48]	; (4dc <paToFeetNOAA+0x48>)
     4ac:	4c0c      	ldr	r4, [pc, #48]	; (4e0 <paToFeetNOAA+0x4c>)
     4ae:	47a0      	blx	r4
    return altFeet;
     4b0:	4c0c      	ldr	r4, [pc, #48]	; (4e4 <paToFeetNOAA+0x50>)
double paToFeetNOAA(int32_t pressureMbar) {

    double lower =(((double)(pressureMbar)/100)/1013.25);
    double exponent = 0.190284;

    double altFeet = (1-pow(lower,exponent))*145366.45;
     4b2:	0002      	movs	r2, r0
     4b4:	000b      	movs	r3, r1
    return altFeet;
     4b6:	2000      	movs	r0, #0
     4b8:	490b      	ldr	r1, [pc, #44]	; (4e8 <paToFeetNOAA+0x54>)
     4ba:	47a0      	blx	r4
     4bc:	4a0b      	ldr	r2, [pc, #44]	; (4ec <paToFeetNOAA+0x58>)
     4be:	4b0c      	ldr	r3, [pc, #48]	; (4f0 <paToFeetNOAA+0x5c>)
     4c0:	4c0c      	ldr	r4, [pc, #48]	; (4f4 <paToFeetNOAA+0x60>)
     4c2:	47a0      	blx	r4

}
     4c4:	bd10      	pop	{r4, pc}
     4c6:	46c0      	nop			; (mov r8, r8)
     4c8:	00006ed9 	.word	0x00006ed9
     4cc:	00005a49 	.word	0x00005a49
     4d0:	40590000 	.word	0x40590000
     4d4:	408faa00 	.word	0x408faa00
     4d8:	e279dd3c 	.word	0xe279dd3c
     4dc:	3fc85b39 	.word	0x3fc85b39
     4e0:	00003b55 	.word	0x00003b55
     4e4:	00006785 	.word	0x00006785
     4e8:	3ff00000 	.word	0x3ff00000
     4ec:	9999999a 	.word	0x9999999a
     4f0:	4101beb3 	.word	0x4101beb3
     4f4:	00006291 	.word	0x00006291

000004f8 <readMS5803Coefficients>:



void readMS5803Coefficients() {
     4f8:	b5f7      	push	{r0, r1, r2, r4, r5, r6, r7, lr}
     4fa:	24a2      	movs	r4, #162	; 0xa2
     4fc:	4d11      	ldr	r5, [pc, #68]	; (544 <readMS5803Coefficients+0x4c>)

    for (u8_t coeff_num = 1; coeff_num < 7 ; ++coeff_num ) {
        delay_us(600);
     4fe:	2096      	movs	r0, #150	; 0x96
     500:	4e11      	ldr	r6, [pc, #68]	; (548 <readMS5803Coefficients+0x50>)
     502:	0080      	lsls	r0, r0, #2
     504:	47b0      	blx	r6
        u8_t _cmd = MS5803_CMD_PROM_READ + ((coeff_num)*2);
        delay_us(600);
     506:	2096      	movs	r0, #150	; 0x96
     508:	0080      	lsls	r0, r0, #2
     50a:	47b0      	blx	r6
}


inline static void pinLow(Pin p) {
    PORT->Group[p.group].OUTCLR.reg = (1<<p.pin);
     50c:	2380      	movs	r3, #128	; 0x80
     50e:	4e0f      	ldr	r6, [pc, #60]	; (54c <readMS5803Coefficients+0x54>)
     510:	01db      	lsls	r3, r3, #7
        pinLow(cs_baro);
        spiDataOut(SPI2, _cmd);
     512:	0021      	movs	r1, r4
     514:	6173      	str	r3, [r6, #20]
     516:	2002      	movs	r0, #2
     518:	4b0d      	ldr	r3, [pc, #52]	; (550 <readMS5803Coefficients+0x58>)
     51a:	4798      	blx	r3
        u8_t _byte1 = spiDataIn(SPI2);
     51c:	4f0d      	ldr	r7, [pc, #52]	; (554 <readMS5803Coefficients+0x5c>)
     51e:	2002      	movs	r0, #2
     520:	47b8      	blx	r7
     522:	9001      	str	r0, [sp, #4]
        u8_t _byte2 = spiDataIn(SPI2);
     524:	2002      	movs	r0, #2
     526:	47b8      	blx	r7
	pinGpio(p);
    PORT->Group[p.group].PINCFG[p.pin].bit.DRVSTR = 1;
}

inline static void pinHigh(Pin p) {
    PORT->Group[p.group].OUTSET.reg = (1<<p.pin);
     528:	2380      	movs	r3, #128	; 0x80
     52a:	01db      	lsls	r3, r3, #7
     52c:	61b3      	str	r3, [r6, #24]
        pinHigh(cs_baro);
        coefficients_[coeff_num] = (_byte1 << 8) | _byte2;
     52e:	9b01      	ldr	r3, [sp, #4]
     530:	3402      	adds	r4, #2
     532:	021b      	lsls	r3, r3, #8
     534:	4318      	orrs	r0, r3
     536:	b2e4      	uxtb	r4, r4
     538:	8028      	strh	r0, [r5, #0]
     53a:	3502      	adds	r5, #2



void readMS5803Coefficients() {

    for (u8_t coeff_num = 1; coeff_num < 7 ; ++coeff_num ) {
     53c:	2cae      	cmp	r4, #174	; 0xae
     53e:	d1de      	bne.n	4fe <readMS5803Coefficients+0x6>
        u8_t _byte2 = spiDataIn(SPI2);
        pinHigh(cs_baro);
        coefficients_[coeff_num] = (_byte1 << 8) | _byte2;
    }

}
     540:	bdf7      	pop	{r0, r1, r2, r4, r5, r6, r7, pc}
     542:	46c0      	nop			; (mov r8, r8)
     544:	200002b0 	.word	0x200002b0
     548:	00001119 	.word	0x00001119
     54c:	41004400 	.word	0x41004400
     550:	00003829 	.word	0x00003829
     554:	00003841 	.word	0x00003841

00000558 <initMS5803Barometer>:

void initMS5803Barometer() {
     558:	b570      	push	{r4, r5, r6, lr}
}


inline static void pinLow(Pin p) {
    PORT->Group[p.group].OUTCLR.reg = (1<<p.pin);
     55a:	2580      	movs	r5, #128	; 0x80
     55c:	4c06      	ldr	r4, [pc, #24]	; (578 <initMS5803Barometer+0x20>)
     55e:	01ed      	lsls	r5, r5, #7


    pinLow(cs_baro);
    spiDataOut(BARO_SPI, MS5803_CMD_RES);
     560:	211e      	movs	r1, #30
     562:	6165      	str	r5, [r4, #20]
     564:	2002      	movs	r0, #2
     566:	4b05      	ldr	r3, [pc, #20]	; (57c <initMS5803Barometer+0x24>)
     568:	4798      	blx	r3
	pinGpio(p);
    PORT->Group[p.group].PINCFG[p.pin].bit.DRVSTR = 1;
}

inline static void pinHigh(Pin p) {
    PORT->Group[p.group].OUTSET.reg = (1<<p.pin);
     56a:	61a5      	str	r5, [r4, #24]

    pinHigh(cs_baro);
    delay_ms(200);
     56c:	20c8      	movs	r0, #200	; 0xc8
     56e:	4b04      	ldr	r3, [pc, #16]	; (580 <initMS5803Barometer+0x28>)
     570:	4798      	blx	r3
    readMS5803Coefficients();
     572:	4b04      	ldr	r3, [pc, #16]	; (584 <initMS5803Barometer+0x2c>)
     574:	4798      	blx	r3

}
     576:	bd70      	pop	{r4, r5, r6, pc}
     578:	41004400 	.word	0x41004400
     57c:	00003829 	.word	0x00003829
     580:	0000114d 	.word	0x0000114d
     584:	000004f9 	.word	0x000004f9

00000588 <MS5803_CRC4>:
                n_rem = (n_rem << 1);
            }
        }
    }
    n_rem = (0x000F & (n_rem >> 12));
    coefficients_[7] = crc_read;
     588:	4b02      	ldr	r3, [pc, #8]	; (594 <MS5803_CRC4+0xc>)
    return (n_rem & 0x00);
}
     58a:	2000      	movs	r0, #0
                n_rem = (n_rem << 1);
            }
        }
    }
    n_rem = (0x000F & (n_rem >> 12));
    coefficients_[7] = crc_read;
     58c:	7b9a      	ldrb	r2, [r3, #14]
     58e:	81da      	strh	r2, [r3, #14]
    return (n_rem & 0x00);
}
     590:	4770      	bx	lr
     592:	46c0      	nop			; (mov r8, r8)
     594:	200002ae 	.word	0x200002ae

00000598 <init>:
#include "math.h"

void init() {

    /* Set 1 Flash Wait State for 48MHz, cf tables 20.9 and 35.27 in SAMD21 Datasheet */
    NVMCTRL->CTRLB.bit.RWS = NVMCTRL_CTRLB_RWS_HALF_Val;
     598:	211e      	movs	r1, #30
#include "sam.h"
#include <util.h>
#include <boardDefines.h>
#include "math.h"

void init() {
     59a:	b5f0      	push	{r4, r5, r6, r7, lr}

    /* Set 1 Flash Wait State for 48MHz, cf tables 20.9 and 35.27 in SAMD21 Datasheet */
    NVMCTRL->CTRLB.bit.RWS = NVMCTRL_CTRLB_RWS_HALF_Val;
     59c:	4afc      	ldr	r2, [pc, #1008]	; (990 <init+0x3f8>)
#include "sam.h"
#include <util.h>
#include <boardDefines.h>
#include "math.h"

void init() {
     59e:	b085      	sub	sp, #20

    /* Set 1 Flash Wait State for 48MHz, cf tables 20.9 and 35.27 in SAMD21 Datasheet */
    NVMCTRL->CTRLB.bit.RWS = NVMCTRL_CTRLB_RWS_HALF_Val;
     5a0:	6853      	ldr	r3, [r2, #4]
    PORT->Group[p.group].PINCFG[p.pin].bit.PMUXEN = 1;
}


inline static void pinGpio(Pin p) {
    PORT->Group[p.group].PINCFG[p.pin].bit.PMUXEN = 0;
     5a2:	2401      	movs	r4, #1
     5a4:	438b      	bics	r3, r1
     5a6:	391c      	subs	r1, #28
     5a8:	430b      	orrs	r3, r1
     5aa:	6053      	str	r3, [r2, #4]

    /* Turn on the digital interface clock */
    PM->APBAMASK.reg |= PM_APBAMASK_GCLK;
     5ac:	4af9      	ldr	r2, [pc, #996]	; (994 <init+0x3fc>)
     5ae:	3106      	adds	r1, #6
     5b0:	6993      	ldr	r3, [r2, #24]

inline static void pinAnalog(Pin p) {
    if (p.pin & 1) {
        PORT->Group[p.group].PMUX[p.pin/2].bit.PMUXO = 0x1;
    } else {
        PORT->Group[p.group].PMUX[p.pin/2].bit.PMUXE = 0x1;
     5b2:	260f      	movs	r6, #15
     5b4:	430b      	orrs	r3, r1
     5b6:	6193      	str	r3, [r2, #24]

    SystemInit();
     5b8:	4bf7      	ldr	r3, [pc, #988]	; (998 <init+0x400>)
     5ba:	4798      	blx	r3
    GclkInit(0);
     5bc:	2000      	movs	r0, #0
     5be:	4bf7      	ldr	r3, [pc, #988]	; (99c <init+0x404>)
     5c0:	4798      	blx	r3
    RtcInit();
     5c2:	4bf7      	ldr	r3, [pc, #988]	; (9a0 <init+0x408>)
     5c4:	4798      	blx	r3
    delayInit();
     5c6:	4bf7      	ldr	r3, [pc, #988]	; (9a4 <init+0x40c>)
     5c8:	4798      	blx	r3
    adcInit();
     5ca:	4bf7      	ldr	r3, [pc, #988]	; (9a8 <init+0x410>)
     5cc:	4798      	blx	r3
    PORT->Group[p.group].PINCFG[p.pin].bit.PMUXEN = 1;
}


inline static void pinGpio(Pin p) {
    PORT->Group[p.group].PINCFG[p.pin].bit.PMUXEN = 0;
     5ce:	4bf7      	ldr	r3, [pc, #988]	; (9ac <init+0x414>)
}


inline static void pinIn(Pin p) {
    pinGpio(p);
    PORT->Group[p.group].PINCFG[p.pin].bit.INEN = 1;
     5d0:	2002      	movs	r0, #2
    PORT->Group[p.group].PINCFG[p.pin].bit.PMUXEN = 1;
}


inline static void pinGpio(Pin p) {
    PORT->Group[p.group].PINCFG[p.pin].bit.PMUXEN = 0;
     5d2:	0019      	movs	r1, r3
     5d4:	3154      	adds	r1, #84	; 0x54
     5d6:	780a      	ldrb	r2, [r1, #0]

inline static void pinAnalog(Pin p) {
    if (p.pin & 1) {
        PORT->Group[p.group].PMUX[p.pin/2].bit.PMUXO = 0x1;
    } else {
        PORT->Group[p.group].PMUX[p.pin/2].bit.PMUXE = 0x1;
     5d8:	001d      	movs	r5, r3
    PORT->Group[p.group].PINCFG[p.pin].bit.PMUXEN = 1;
}


inline static void pinGpio(Pin p) {
    PORT->Group[p.group].PINCFG[p.pin].bit.PMUXEN = 0;
     5da:	43a2      	bics	r2, r4
     5dc:	700a      	strb	r2, [r1, #0]
}


inline static void pinOut(Pin p) {
    pinGpio(p);
    PORT->Group[p.group].DIRSET.reg = (1<<p.pin);
     5de:	2280      	movs	r2, #128	; 0x80
     5e0:	0352      	lsls	r2, r2, #13
     5e2:	609a      	str	r2, [r3, #8]

inline static void pinAnalog(Pin p) {
    if (p.pin & 1) {
        PORT->Group[p.group].PMUX[p.pin/2].bit.PMUXO = 0x1;
    } else {
        PORT->Group[p.group].PMUX[p.pin/2].bit.PMUXE = 0x1;
     5e4:	3533      	adds	r5, #51	; 0x33
     5e6:	782a      	ldrb	r2, [r5, #0]
    }

    PORT->Group[p.group].PINCFG[p.pin].bit.PMUXEN = 1;
     5e8:	390e      	subs	r1, #14

inline static void pinAnalog(Pin p) {
    if (p.pin & 1) {
        PORT->Group[p.group].PMUX[p.pin/2].bit.PMUXO = 0x1;
    } else {
        PORT->Group[p.group].PMUX[p.pin/2].bit.PMUXE = 0x1;
     5ea:	43b2      	bics	r2, r6
     5ec:	4322      	orrs	r2, r4
     5ee:	702a      	strb	r2, [r5, #0]
    }

    PORT->Group[p.group].PINCFG[p.pin].bit.PMUXEN = 1;
     5f0:	780a      	ldrb	r2, [r1, #0]
    PORT->Group[p.group].OUTSET.reg = (1<<p.pin);
}


inline static void pinLow(Pin p) {
    PORT->Group[p.group].OUTCLR.reg = (1<<p.pin);
     5f2:	001f      	movs	r7, r3
        PORT->Group[p.group].PMUX[p.pin/2].bit.PMUXO = 0x1;
    } else {
        PORT->Group[p.group].PMUX[p.pin/2].bit.PMUXE = 0x1;
    }

    PORT->Group[p.group].PINCFG[p.pin].bit.PMUXEN = 1;
     5f4:	4322      	orrs	r2, r4
     5f6:	700a      	strb	r2, [r1, #0]
    PORT->Group[p.group].PINCFG[p.pin].bit.PMUXEN = 1;
}


inline static void pinGpio(Pin p) {
    PORT->Group[p.group].PINCFG[p.pin].bit.PMUXEN = 0;
     5f8:	001a      	movs	r2, r3
     5fa:	3247      	adds	r2, #71	; 0x47
     5fc:	7811      	ldrb	r1, [r2, #0]
    PORT->Group[p.group].OUTSET.reg = (1<<p.pin);
}


inline static void pinLow(Pin p) {
    PORT->Group[p.group].OUTCLR.reg = (1<<p.pin);
     5fe:	3794      	adds	r7, #148	; 0x94
    PORT->Group[p.group].PINCFG[p.pin].bit.PMUXEN = 1;
}


inline static void pinGpio(Pin p) {
    PORT->Group[p.group].PINCFG[p.pin].bit.PMUXEN = 0;
     600:	43a1      	bics	r1, r4
     602:	7011      	strb	r1, [r2, #0]
}


inline static void pinIn(Pin p) {
    pinGpio(p);
    PORT->Group[p.group].PINCFG[p.pin].bit.INEN = 1;
     604:	7811      	ldrb	r1, [r2, #0]
     606:	4301      	orrs	r1, r0
     608:	7011      	strb	r1, [r2, #0]
    PORT->Group[p.group].DIRCLR.reg = (1<<p.pin);
     60a:	2180      	movs	r1, #128	; 0x80
     60c:	6059      	str	r1, [r3, #4]
    return (PORT->Group[p.group].IN.reg & (1<<p.pin)) != 0;
}

inline static void pinMux(Pin p) {
    if (p.pin & 1) {
        PORT->Group[p.group].PMUX[p.pin/2].bit.PMUXO = p.mux;
     60e:	7829      	ldrb	r1, [r5, #0]
     610:	300e      	adds	r0, #14
     612:	4031      	ands	r1, r6
     614:	4301      	orrs	r1, r0
     616:	7029      	strb	r1, [r5, #0]
}


inline static void pinIn(Pin p) {
    pinGpio(p);
    PORT->Group[p.group].PINCFG[p.pin].bit.INEN = 1;
     618:	2502      	movs	r5, #2
    if (p.pin & 1) {
        PORT->Group[p.group].PMUX[p.pin/2].bit.PMUXO = p.mux;
    } else {
        PORT->Group[p.group].PMUX[p.pin/2].bit.PMUXE = p.mux;
    }
    PORT->Group[p.group].PINCFG[p.pin].bit.PMUXEN = 1;
     61a:	7811      	ldrb	r1, [r2, #0]
     61c:	4321      	orrs	r1, r4
     61e:	7011      	strb	r1, [r2, #0]
}


inline static void pinGpio(Pin p) {
    PORT->Group[p.group].PINCFG[p.pin].bit.PMUXEN = 0;
     620:	327c      	adds	r2, #124	; 0x7c
     622:	7811      	ldrb	r1, [r2, #0]
     624:	43a1      	bics	r1, r4
     626:	7011      	strb	r1, [r2, #0]
}


inline static void pinIn(Pin p) {
    pinGpio(p);
    PORT->Group[p.group].PINCFG[p.pin].bit.INEN = 1;
     628:	7811      	ldrb	r1, [r2, #0]
     62a:	4329      	orrs	r1, r5
     62c:	7011      	strb	r1, [r2, #0]
    PORT->Group[p.group].DIRCLR.reg = (1<<p.pin);
     62e:	2108      	movs	r1, #8
     630:	468c      	mov	ip, r1
     632:	449c      	add	ip, r3
     634:	4661      	mov	r1, ip
     636:	3506      	adds	r5, #6
     638:	67cd      	str	r5, [r1, #124]	; 0x7c
    return (PORT->Group[p.group].IN.reg & (1<<p.pin)) != 0;
}

inline static void pinMux(Pin p) {
    if (p.pin & 1) {
        PORT->Group[p.group].PMUX[p.pin/2].bit.PMUXO = p.mux;
     63a:	31a9      	adds	r1, #169	; 0xa9
     63c:	780d      	ldrb	r5, [r1, #0]
     63e:	4035      	ands	r5, r6
     640:	4305      	orrs	r5, r0
     642:	700d      	strb	r5, [r1, #0]
    } else {
        PORT->Group[p.group].PMUX[p.pin/2].bit.PMUXE = p.mux;
    }
    PORT->Group[p.group].PINCFG[p.pin].bit.PMUXEN = 1;
     644:	7815      	ldrb	r5, [r2, #0]
     646:	4325      	orrs	r5, r4
     648:	7015      	strb	r5, [r2, #0]
}


inline static void pinGpio(Pin p) {
    PORT->Group[p.group].PINCFG[p.pin].bit.PMUXEN = 0;
     64a:	001d      	movs	r5, r3
     64c:	35d7      	adds	r5, #215	; 0xd7
     64e:	782a      	ldrb	r2, [r5, #0]
     650:	43a2      	bics	r2, r4
     652:	702a      	strb	r2, [r5, #0]
}


inline static void pinOut(Pin p) {
    pinGpio(p);
    PORT->Group[p.group].DIRSET.reg = (1<<p.pin);
     654:	2580      	movs	r5, #128	; 0x80
     656:	4ad6      	ldr	r2, [pc, #856]	; (9b0 <init+0x418>)
     658:	042d      	lsls	r5, r5, #16
     65a:	6015      	str	r5, [r2, #0]
    PORT->Group[p.group].OUTSET.reg = (1<<p.pin);
}


inline static void pinLow(Pin p) {
    PORT->Group[p.group].OUTCLR.reg = (1<<p.pin);
     65c:	002a      	movs	r2, r5
     65e:	9703      	str	r7, [sp, #12]
     660:	603a      	str	r2, [r7, #0]
    PORT->Group[p.group].PINCFG[p.pin].bit.PMUXEN = 1;
}


inline static void pinGpio(Pin p) {
    PORT->Group[p.group].PINCFG[p.pin].bit.PMUXEN = 0;
     662:	001a      	movs	r2, r3
}


inline static void pinIn(Pin p) {
    pinGpio(p);
    PORT->Group[p.group].PINCFG[p.pin].bit.INEN = 1;
     664:	2702      	movs	r7, #2
    PORT->Group[p.group].PINCFG[p.pin].bit.PMUXEN = 1;
}


inline static void pinGpio(Pin p) {
    PORT->Group[p.group].PINCFG[p.pin].bit.PMUXEN = 0;
     666:	32c2      	adds	r2, #194	; 0xc2
     668:	7815      	ldrb	r5, [r2, #0]
     66a:	43a5      	bics	r5, r4
     66c:	7015      	strb	r5, [r2, #0]
}


inline static void pinIn(Pin p) {
    pinGpio(p);
    PORT->Group[p.group].PINCFG[p.pin].bit.INEN = 1;
     66e:	7815      	ldrb	r5, [r2, #0]
     670:	433d      	orrs	r5, r7
     672:	7015      	strb	r5, [r2, #0]
    PORT->Group[p.group].DIRCLR.reg = (1<<p.pin);
     674:	4665      	mov	r5, ip
     676:	19ff      	adds	r7, r7, r7
     678:	67ef      	str	r7, [r5, #124]	; 0x7c

inline static void pinMux(Pin p) {
    if (p.pin & 1) {
        PORT->Group[p.group].PMUX[p.pin/2].bit.PMUXO = p.mux;
    } else {
        PORT->Group[p.group].PMUX[p.pin/2].bit.PMUXE = p.mux;
     67a:	780d      	ldrb	r5, [r1, #0]
     67c:	43b5      	bics	r5, r6
     67e:	4325      	orrs	r5, r4
     680:	700d      	strb	r5, [r1, #0]
    }
    PORT->Group[p.group].PINCFG[p.pin].bit.PMUXEN = 1;
     682:	7811      	ldrb	r1, [r2, #0]
}


inline static void pinIn(Pin p) {
    pinGpio(p);
    PORT->Group[p.group].PINCFG[p.pin].bit.INEN = 1;
     684:	2502      	movs	r5, #2
    if (p.pin & 1) {
        PORT->Group[p.group].PMUX[p.pin/2].bit.PMUXO = p.mux;
    } else {
        PORT->Group[p.group].PMUX[p.pin/2].bit.PMUXE = p.mux;
    }
    PORT->Group[p.group].PINCFG[p.pin].bit.PMUXEN = 1;
     686:	4321      	orrs	r1, r4
     688:	7011      	strb	r1, [r2, #0]
}


inline static void pinGpio(Pin p) {
    PORT->Group[p.group].PINCFG[p.pin].bit.PMUXEN = 0;
     68a:	0019      	movs	r1, r3
     68c:	31d6      	adds	r1, #214	; 0xd6
     68e:	780a      	ldrb	r2, [r1, #0]
     690:	43a2      	bics	r2, r4
     692:	700a      	strb	r2, [r1, #0]
}


inline static void pinOut(Pin p) {
    pinGpio(p);
    PORT->Group[p.group].DIRSET.reg = (1<<p.pin);
     694:	2180      	movs	r1, #128	; 0x80
     696:	4ac6      	ldr	r2, [pc, #792]	; (9b0 <init+0x418>)
     698:	03c9      	lsls	r1, r1, #15
     69a:	6011      	str	r1, [r2, #0]
    PORT->Group[p.group].OUTSET.reg = (1<<p.pin);
}


inline static void pinLow(Pin p) {
    PORT->Group[p.group].OUTCLR.reg = (1<<p.pin);
     69c:	000a      	movs	r2, r1
     69e:	9903      	ldr	r1, [sp, #12]
     6a0:	600a      	str	r2, [r1, #0]
    PORT->Group[p.group].PINCFG[p.pin].bit.PMUXEN = 1;
}


inline static void pinGpio(Pin p) {
    PORT->Group[p.group].PINCFG[p.pin].bit.PMUXEN = 0;
     6a2:	001a      	movs	r2, r3
     6a4:	3243      	adds	r2, #67	; 0x43
     6a6:	7811      	ldrb	r1, [r2, #0]
     6a8:	43a1      	bics	r1, r4
     6aa:	7011      	strb	r1, [r2, #0]
}


inline static void pinIn(Pin p) {
    pinGpio(p);
    PORT->Group[p.group].PINCFG[p.pin].bit.INEN = 1;
     6ac:	7811      	ldrb	r1, [r2, #0]
     6ae:	4329      	orrs	r1, r5
     6b0:	7011      	strb	r1, [r2, #0]
    return (PORT->Group[p.group].IN.reg & (1<<p.pin)) != 0;
}

inline static void pinMux(Pin p) {
    if (p.pin & 1) {
        PORT->Group[p.group].PMUX[p.pin/2].bit.PMUXO = p.mux;
     6b2:	001d      	movs	r5, r3


inline static void pinIn(Pin p) {
    pinGpio(p);
    PORT->Group[p.group].PINCFG[p.pin].bit.INEN = 1;
    PORT->Group[p.group].DIRCLR.reg = (1<<p.pin);
     6b4:	2108      	movs	r1, #8
    return (PORT->Group[p.group].IN.reg & (1<<p.pin)) != 0;
}

inline static void pinMux(Pin p) {
    if (p.pin & 1) {
        PORT->Group[p.group].PMUX[p.pin/2].bit.PMUXO = p.mux;
     6b6:	3531      	adds	r5, #49	; 0x31


inline static void pinIn(Pin p) {
    pinGpio(p);
    PORT->Group[p.group].PINCFG[p.pin].bit.INEN = 1;
    PORT->Group[p.group].DIRCLR.reg = (1<<p.pin);
     6b8:	6059      	str	r1, [r3, #4]
    return (PORT->Group[p.group].IN.reg & (1<<p.pin)) != 0;
}

inline static void pinMux(Pin p) {
    if (p.pin & 1) {
        PORT->Group[p.group].PMUX[p.pin/2].bit.PMUXO = p.mux;
     6ba:	7829      	ldrb	r1, [r5, #0]
     6bc:	4031      	ands	r1, r6
     6be:	4308      	orrs	r0, r1
     6c0:	7028      	strb	r0, [r5, #0]
    } else {
        PORT->Group[p.group].PMUX[p.pin/2].bit.PMUXE = p.mux;
    }
    PORT->Group[p.group].PINCFG[p.pin].bit.PMUXEN = 1;
     6c2:	7811      	ldrb	r1, [r2, #0]
}


inline static void pinIn(Pin p) {
    pinGpio(p);
    PORT->Group[p.group].PINCFG[p.pin].bit.INEN = 1;
     6c4:	2002      	movs	r0, #2
    if (p.pin & 1) {
        PORT->Group[p.group].PMUX[p.pin/2].bit.PMUXO = p.mux;
    } else {
        PORT->Group[p.group].PMUX[p.pin/2].bit.PMUXE = p.mux;
    }
    PORT->Group[p.group].PINCFG[p.pin].bit.PMUXEN = 1;
     6c6:	4321      	orrs	r1, r4
     6c8:	7011      	strb	r1, [r2, #0]
}


inline static void pinGpio(Pin p) {
    PORT->Group[p.group].PINCFG[p.pin].bit.PMUXEN = 0;
     6ca:	0019      	movs	r1, r3
     6cc:	3159      	adds	r1, #89	; 0x59
     6ce:	780a      	ldrb	r2, [r1, #0]
     6d0:	43a2      	bics	r2, r4
     6d2:	700a      	strb	r2, [r1, #0]
}


inline static void pinOut(Pin p) {
    pinGpio(p);
    PORT->Group[p.group].DIRSET.reg = (1<<p.pin);
     6d4:	2280      	movs	r2, #128	; 0x80
     6d6:	0492      	lsls	r2, r2, #18
     6d8:	609a      	str	r2, [r3, #8]
    PORT->Group[p.group].OUTSET.reg = (1<<p.pin);
}


inline static void pinLow(Pin p) {
    PORT->Group[p.group].OUTCLR.reg = (1<<p.pin);
     6da:	615a      	str	r2, [r3, #20]
    PORT->Group[p.group].PINCFG[p.pin].bit.PMUXEN = 1;
}


inline static void pinGpio(Pin p) {
    PORT->Group[p.group].PINCFG[p.pin].bit.PMUXEN = 0;
     6dc:	001a      	movs	r2, r3
     6de:	3242      	adds	r2, #66	; 0x42
     6e0:	7811      	ldrb	r1, [r2, #0]
     6e2:	43a1      	bics	r1, r4
     6e4:	7011      	strb	r1, [r2, #0]
}


inline static void pinIn(Pin p) {
    pinGpio(p);
    PORT->Group[p.group].PINCFG[p.pin].bit.INEN = 1;
     6e6:	7811      	ldrb	r1, [r2, #0]
     6e8:	4301      	orrs	r1, r0
     6ea:	7011      	strb	r1, [r2, #0]
    PORT->Group[p.group].DIRCLR.reg = (1<<p.pin);
     6ec:	605f      	str	r7, [r3, #4]

inline static void pinMux(Pin p) {
    if (p.pin & 1) {
        PORT->Group[p.group].PMUX[p.pin/2].bit.PMUXO = p.mux;
    } else {
        PORT->Group[p.group].PMUX[p.pin/2].bit.PMUXE = p.mux;
     6ee:	7829      	ldrb	r1, [r5, #0]
    PORT->Group[p.group].PINCFG[p.pin].bit.PMUXEN = 1;
}


inline static void pinGpio(Pin p) {
    PORT->Group[p.group].PINCFG[p.pin].bit.PMUXEN = 0;
     6f0:	0018      	movs	r0, r3

inline static void pinMux(Pin p) {
    if (p.pin & 1) {
        PORT->Group[p.group].PMUX[p.pin/2].bit.PMUXO = p.mux;
    } else {
        PORT->Group[p.group].PMUX[p.pin/2].bit.PMUXE = p.mux;
     6f2:	43b1      	bics	r1, r6
     6f4:	4321      	orrs	r1, r4
     6f6:	7029      	strb	r1, [r5, #0]
    }
    PORT->Group[p.group].PINCFG[p.pin].bit.PMUXEN = 1;
     6f8:	7811      	ldrb	r1, [r2, #0]
}


inline static void pinGpio(Pin p) {
    PORT->Group[p.group].PINCFG[p.pin].bit.PMUXEN = 0;
     6fa:	3048      	adds	r0, #72	; 0x48
    if (p.pin & 1) {
        PORT->Group[p.group].PMUX[p.pin/2].bit.PMUXO = p.mux;
    } else {
        PORT->Group[p.group].PMUX[p.pin/2].bit.PMUXE = p.mux;
    }
    PORT->Group[p.group].PINCFG[p.pin].bit.PMUXEN = 1;
     6fc:	4321      	orrs	r1, r4
     6fe:	7011      	strb	r1, [r2, #0]
}


inline static void pinGpio(Pin p) {
    PORT->Group[p.group].PINCFG[p.pin].bit.PMUXEN = 0;
     700:	0019      	movs	r1, r3
     702:	3158      	adds	r1, #88	; 0x58
     704:	780a      	ldrb	r2, [r1, #0]
     706:	001f      	movs	r7, r3
     708:	43a2      	bics	r2, r4
     70a:	700a      	strb	r2, [r1, #0]
}


inline static void pinOut(Pin p) {
    pinGpio(p);
    PORT->Group[p.group].DIRSET.reg = (1<<p.pin);
     70c:	2280      	movs	r2, #128	; 0x80
    pinIn(senseDPin);
    pinMux(senseDPin);
    pinOut(fireDPin);
    pinLow(fireDPin);

    charges.igniterAHot = false;
     70e:	2100      	movs	r1, #0
     710:	0452      	lsls	r2, r2, #17
     712:	609a      	str	r2, [r3, #8]
    PORT->Group[p.group].OUTSET.reg = (1<<p.pin);
}


inline static void pinLow(Pin p) {
    PORT->Group[p.group].OUTCLR.reg = (1<<p.pin);
     714:	615a      	str	r2, [r3, #20]
     716:	4aa7      	ldr	r2, [pc, #668]	; (9b4 <init+0x41c>)
    PORT->Group[p.group].PINCFG[p.pin].bit.PMUXEN = 1;
}


inline static void pinGpio(Pin p) {
    PORT->Group[p.group].PINCFG[p.pin].bit.PMUXEN = 0;
     718:	3749      	adds	r7, #73	; 0x49
     71a:	7011      	strb	r1, [r2, #0]
    charges.igniterBHot = false;
     71c:	2100      	movs	r1, #0
     71e:	7211      	strb	r1, [r2, #8]
    charges.igniterCHot = false;
     720:	2100      	movs	r1, #0
     722:	7411      	strb	r1, [r2, #16]
    charges.igniterDHot = false;
     724:	2100      	movs	r1, #0
     726:	7611      	strb	r1, [r2, #24]
     728:	7802      	ldrb	r2, [r0, #0]
}


inline static void pinIn(Pin p) {
    pinGpio(p);
    PORT->Group[p.group].PINCFG[p.pin].bit.INEN = 1;
     72a:	2502      	movs	r5, #2
    PORT->Group[p.group].PINCFG[p.pin].bit.PMUXEN = 1;
}


inline static void pinGpio(Pin p) {
    PORT->Group[p.group].PINCFG[p.pin].bit.PMUXEN = 0;
     72c:	43a2      	bics	r2, r4
     72e:	7002      	strb	r2, [r0, #0]
}


inline static void pinOut(Pin p) {
    pinGpio(p);
    PORT->Group[p.group].DIRSET.reg = (1<<p.pin);
     730:	2280      	movs	r2, #128	; 0x80
     732:	0052      	lsls	r2, r2, #1
     734:	609a      	str	r2, [r3, #8]
    PORT->Group[p.group].PINCFG[p.pin].bit.PMUXEN = 1;
}


inline static void pinGpio(Pin p) {
    PORT->Group[p.group].PINCFG[p.pin].bit.PMUXEN = 0;
     736:	783a      	ldrb	r2, [r7, #0]
     738:	43a2      	bics	r2, r4
     73a:	703a      	strb	r2, [r7, #0]
}


inline static void pinOut(Pin p) {
    pinGpio(p);
    PORT->Group[p.group].DIRSET.reg = (1<<p.pin);
     73c:	2280      	movs	r2, #128	; 0x80
     73e:	0092      	lsls	r2, r2, #2
     740:	609a      	str	r2, [r3, #8]
    PORT->Group[p.group].PINCFG[p.pin].bit.PMUXEN = 1;
}


inline static void pinGpio(Pin p) {
    PORT->Group[p.group].PINCFG[p.pin].bit.PMUXEN = 0;
     742:	001a      	movs	r2, r3
     744:	324b      	adds	r2, #75	; 0x4b
     746:	7811      	ldrb	r1, [r2, #0]
     748:	43a1      	bics	r1, r4
     74a:	7011      	strb	r1, [r2, #0]
}


inline static void pinIn(Pin p) {
    pinGpio(p);
    PORT->Group[p.group].PINCFG[p.pin].bit.INEN = 1;
     74c:	7811      	ldrb	r1, [r2, #0]
     74e:	4329      	orrs	r1, r5
     750:	7011      	strb	r1, [r2, #0]
    PORT->Group[p.group].DIRCLR.reg = (1<<p.pin);
     752:	2180      	movs	r1, #128	; 0x80
     754:	0109      	lsls	r1, r1, #4
     756:	6059      	str	r1, [r3, #4]
    return (PORT->Group[p.group].IN.reg & (1<<p.pin)) != 0;
}

inline static void pinMux(Pin p) {
    if (p.pin & 1) {
        PORT->Group[p.group].PMUX[p.pin/2].bit.PMUXO = p.mux;
     758:	2135      	movs	r1, #53	; 0x35
     75a:	468c      	mov	ip, r1
     75c:	449c      	add	ip, r3
     75e:	4661      	mov	r1, ip
     760:	7809      	ldrb	r1, [r1, #0]
     762:	351e      	adds	r5, #30
     764:	4031      	ands	r1, r6
     766:	4329      	orrs	r1, r5
     768:	4665      	mov	r5, ip
     76a:	7029      	strb	r1, [r5, #0]
    } else {
        PORT->Group[p.group].PMUX[p.pin/2].bit.PMUXE = p.mux;
    }
    PORT->Group[p.group].PINCFG[p.pin].bit.PMUXEN = 1;
     76c:	7811      	ldrb	r1, [r2, #0]
    return (PORT->Group[p.group].IN.reg & (1<<p.pin)) != 0;
}

inline static void pinMux(Pin p) {
    if (p.pin & 1) {
        PORT->Group[p.group].PMUX[p.pin/2].bit.PMUXO = p.mux;
     76e:	2520      	movs	r5, #32
    } else {
        PORT->Group[p.group].PMUX[p.pin/2].bit.PMUXE = p.mux;
    }
    PORT->Group[p.group].PINCFG[p.pin].bit.PMUXEN = 1;
     770:	4321      	orrs	r1, r4
     772:	7011      	strb	r1, [r2, #0]
    return (PORT->Group[p.group].IN.reg & (1<<p.pin)) != 0;
}

inline static void pinMux(Pin p) {
    if (p.pin & 1) {
        PORT->Group[p.group].PMUX[p.pin/2].bit.PMUXO = p.mux;
     774:	0019      	movs	r1, r3
     776:	3134      	adds	r1, #52	; 0x34
     778:	780a      	ldrb	r2, [r1, #0]
     77a:	4032      	ands	r2, r6
     77c:	432a      	orrs	r2, r5
     77e:	700a      	strb	r2, [r1, #0]
    } else {
        PORT->Group[p.group].PMUX[p.pin/2].bit.PMUXE = p.mux;
    }
    PORT->Group[p.group].PINCFG[p.pin].bit.PMUXEN = 1;
     780:	783a      	ldrb	r2, [r7, #0]

inline static void pinMux(Pin p) {
    if (p.pin & 1) {
        PORT->Group[p.group].PMUX[p.pin/2].bit.PMUXO = p.mux;
    } else {
        PORT->Group[p.group].PMUX[p.pin/2].bit.PMUXE = p.mux;
     782:	3d1e      	subs	r5, #30
    }
    PORT->Group[p.group].PINCFG[p.pin].bit.PMUXEN = 1;
     784:	4322      	orrs	r2, r4
     786:	703a      	strb	r2, [r7, #0]

inline static void pinMux(Pin p) {
    if (p.pin & 1) {
        PORT->Group[p.group].PMUX[p.pin/2].bit.PMUXO = p.mux;
    } else {
        PORT->Group[p.group].PMUX[p.pin/2].bit.PMUXE = p.mux;
     788:	780a      	ldrb	r2, [r1, #0]
    PORT->Group[p.group].PINCFG[p.pin].bit.PMUXEN = 1;
}


inline static void pinGpio(Pin p) {
    PORT->Group[p.group].PINCFG[p.pin].bit.PMUXEN = 0;
     78a:	3706      	adds	r7, #6

inline static void pinMux(Pin p) {
    if (p.pin & 1) {
        PORT->Group[p.group].PMUX[p.pin/2].bit.PMUXO = p.mux;
    } else {
        PORT->Group[p.group].PMUX[p.pin/2].bit.PMUXE = p.mux;
     78c:	43b2      	bics	r2, r6
     78e:	432a      	orrs	r2, r5
     790:	700a      	strb	r2, [r1, #0]
    }
    PORT->Group[p.group].PINCFG[p.pin].bit.PMUXEN = 1;
     792:	7802      	ldrb	r2, [r0, #0]
}


inline static void pinGpio(Pin p) {
    PORT->Group[p.group].PINCFG[p.pin].bit.PMUXEN = 0;
     794:	3196      	adds	r1, #150	; 0x96
    if (p.pin & 1) {
        PORT->Group[p.group].PMUX[p.pin/2].bit.PMUXO = p.mux;
    } else {
        PORT->Group[p.group].PMUX[p.pin/2].bit.PMUXE = p.mux;
    }
    PORT->Group[p.group].PINCFG[p.pin].bit.PMUXEN = 1;
     796:	4322      	orrs	r2, r4
     798:	7002      	strb	r2, [r0, #0]
}


inline static void pinGpio(Pin p) {
    PORT->Group[p.group].PINCFG[p.pin].bit.PMUXEN = 0;
     79a:	780a      	ldrb	r2, [r1, #0]
     79c:	43a2      	bics	r2, r4
     79e:	700a      	strb	r2, [r1, #0]
}


inline static void pinOut(Pin p) {
    pinGpio(p);
    PORT->Group[p.group].DIRSET.reg = (1<<p.pin);
     7a0:	2280      	movs	r2, #128	; 0x80
     7a2:	4983      	ldr	r1, [pc, #524]	; (9b0 <init+0x418>)
     7a4:	00d2      	lsls	r2, r2, #3
     7a6:	600a      	str	r2, [r1, #0]
	pinGpio(p);
    PORT->Group[p.group].PINCFG[p.pin].bit.DRVSTR = 1;
}

inline static void pinHigh(Pin p) {
    PORT->Group[p.group].OUTSET.reg = (1<<p.pin);
     7a8:	0019      	movs	r1, r3
     7aa:	3198      	adds	r1, #152	; 0x98
     7ac:	600a      	str	r2, [r1, #0]
    PORT->Group[p.group].PINCFG[p.pin].bit.PMUXEN = 1;
}


inline static void pinGpio(Pin p) {
    PORT->Group[p.group].PINCFG[p.pin].bit.PMUXEN = 0;
     7ae:	7881      	ldrb	r1, [r0, #2]
     7b0:	43a1      	bics	r1, r4
     7b2:	7081      	strb	r1, [r0, #2]
}


inline static void pinOut(Pin p) {
    pinGpio(p);
    PORT->Group[p.group].DIRSET.reg = (1<<p.pin);
     7b4:	609a      	str	r2, [r3, #8]
	pinGpio(p);
    PORT->Group[p.group].PINCFG[p.pin].bit.DRVSTR = 1;
}

inline static void pinHigh(Pin p) {
    PORT->Group[p.group].OUTSET.reg = (1<<p.pin);
     7b6:	619a      	str	r2, [r3, #24]
    PORT->Group[p.group].PINCFG[p.pin].bit.PMUXEN = 1;
}


inline static void pinGpio(Pin p) {
    PORT->Group[p.group].PINCFG[p.pin].bit.PMUXEN = 0;
     7b8:	7a02      	ldrb	r2, [r0, #8]
     7ba:	43a2      	bics	r2, r4
     7bc:	7202      	strb	r2, [r0, #8]
}


inline static void pinOut(Pin p) {
    pinGpio(p);
    PORT->Group[p.group].DIRSET.reg = (1<<p.pin);
     7be:	2280      	movs	r2, #128	; 0x80
     7c0:	0252      	lsls	r2, r2, #9
     7c2:	609a      	str	r2, [r3, #8]
    PORT->Group[p.group].PINCFG[p.pin].bit.PMUXEN = 1;
}


inline static void pinGpio(Pin p) {
    PORT->Group[p.group].PINCFG[p.pin].bit.PMUXEN = 0;
     7c4:	78ba      	ldrb	r2, [r7, #2]
     7c6:	43a2      	bics	r2, r4
     7c8:	70ba      	strb	r2, [r7, #2]
}


inline static void pinOut(Pin p) {
    pinGpio(p);
    PORT->Group[p.group].DIRSET.reg = (1<<p.pin);
     7ca:	2280      	movs	r2, #128	; 0x80
     7cc:	0292      	lsls	r2, r2, #10
     7ce:	609a      	str	r2, [r3, #8]
    PORT->Group[p.group].PINCFG[p.pin].bit.PMUXEN = 1;
}


inline static void pinGpio(Pin p) {
    PORT->Group[p.group].PINCFG[p.pin].bit.PMUXEN = 0;
     7d0:	001a      	movs	r2, r3
     7d2:	3253      	adds	r2, #83	; 0x53
     7d4:	7811      	ldrb	r1, [r2, #0]
     7d6:	43a1      	bics	r1, r4
     7d8:	7011      	strb	r1, [r2, #0]
}


inline static void pinIn(Pin p) {
    pinGpio(p);
    PORT->Group[p.group].PINCFG[p.pin].bit.INEN = 1;
     7da:	7811      	ldrb	r1, [r2, #0]
     7dc:	4329      	orrs	r1, r5
     7de:	7011      	strb	r1, [r2, #0]
    PORT->Group[p.group].DIRCLR.reg = (1<<p.pin);
     7e0:	2180      	movs	r1, #128	; 0x80
     7e2:	0309      	lsls	r1, r1, #12
     7e4:	6059      	str	r1, [r3, #4]
    return (PORT->Group[p.group].IN.reg & (1<<p.pin)) != 0;
}

inline static void pinMux(Pin p) {
    if (p.pin & 1) {
        PORT->Group[p.group].PMUX[p.pin/2].bit.PMUXO = p.mux;
     7e6:	2139      	movs	r1, #57	; 0x39
     7e8:	468c      	mov	ip, r1
     7ea:	449c      	add	ip, r3
     7ec:	4661      	mov	r1, ip
     7ee:	7809      	ldrb	r1, [r1, #0]
     7f0:	351e      	adds	r5, #30
     7f2:	4031      	ands	r1, r6
     7f4:	4329      	orrs	r1, r5
     7f6:	4665      	mov	r5, ip
     7f8:	7029      	strb	r1, [r5, #0]
    } else {
        PORT->Group[p.group].PMUX[p.pin/2].bit.PMUXE = p.mux;
    }
    PORT->Group[p.group].PINCFG[p.pin].bit.PMUXEN = 1;
     7fa:	7811      	ldrb	r1, [r2, #0]
    return (PORT->Group[p.group].IN.reg & (1<<p.pin)) != 0;
}

inline static void pinMux(Pin p) {
    if (p.pin & 1) {
        PORT->Group[p.group].PMUX[p.pin/2].bit.PMUXO = p.mux;
     7fc:	2520      	movs	r5, #32
    } else {
        PORT->Group[p.group].PMUX[p.pin/2].bit.PMUXE = p.mux;
    }
    PORT->Group[p.group].PINCFG[p.pin].bit.PMUXEN = 1;
     7fe:	4321      	orrs	r1, r4
     800:	7011      	strb	r1, [r2, #0]
    return (PORT->Group[p.group].IN.reg & (1<<p.pin)) != 0;
}

inline static void pinMux(Pin p) {
    if (p.pin & 1) {
        PORT->Group[p.group].PMUX[p.pin/2].bit.PMUXO = p.mux;
     802:	0019      	movs	r1, r3
     804:	3138      	adds	r1, #56	; 0x38
     806:	780a      	ldrb	r2, [r1, #0]
     808:	4032      	ands	r2, r6
     80a:	432a      	orrs	r2, r5
     80c:	700a      	strb	r2, [r1, #0]
    } else {
        PORT->Group[p.group].PMUX[p.pin/2].bit.PMUXE = p.mux;
    }
    PORT->Group[p.group].PINCFG[p.pin].bit.PMUXEN = 1;
     80e:	78ba      	ldrb	r2, [r7, #2]

inline static void pinMux(Pin p) {
    if (p.pin & 1) {
        PORT->Group[p.group].PMUX[p.pin/2].bit.PMUXO = p.mux;
    } else {
        PORT->Group[p.group].PMUX[p.pin/2].bit.PMUXE = p.mux;
     810:	3d1e      	subs	r5, #30
    }
    PORT->Group[p.group].PINCFG[p.pin].bit.PMUXEN = 1;
     812:	4322      	orrs	r2, r4
     814:	70ba      	strb	r2, [r7, #2]

inline static void pinMux(Pin p) {
    if (p.pin & 1) {
        PORT->Group[p.group].PMUX[p.pin/2].bit.PMUXO = p.mux;
    } else {
        PORT->Group[p.group].PMUX[p.pin/2].bit.PMUXE = p.mux;
     816:	780a      	ldrb	r2, [r1, #0]
     818:	43b2      	bics	r2, r6
     81a:	432a      	orrs	r2, r5
     81c:	700a      	strb	r2, [r1, #0]
    }
    PORT->Group[p.group].PINCFG[p.pin].bit.PMUXEN = 1;
     81e:	7a02      	ldrb	r2, [r0, #8]
}


inline static void pinGpio(Pin p) {
    PORT->Group[p.group].PINCFG[p.pin].bit.PMUXEN = 0;
     820:	3114      	adds	r1, #20
    if (p.pin & 1) {
        PORT->Group[p.group].PMUX[p.pin/2].bit.PMUXO = p.mux;
    } else {
        PORT->Group[p.group].PMUX[p.pin/2].bit.PMUXE = p.mux;
    }
    PORT->Group[p.group].PINCFG[p.pin].bit.PMUXEN = 1;
     822:	4322      	orrs	r2, r4
     824:	7202      	strb	r2, [r0, #8]
}


inline static void pinGpio(Pin p) {
    PORT->Group[p.group].PINCFG[p.pin].bit.PMUXEN = 0;
     826:	798a      	ldrb	r2, [r1, #6]
     828:	43a2      	bics	r2, r4
     82a:	718a      	strb	r2, [r1, #6]
}


inline static void pinOut(Pin p) {
    pinGpio(p);
    PORT->Group[p.group].DIRSET.reg = (1<<p.pin);
     82c:	2280      	movs	r2, #128	; 0x80
     82e:	02d2      	lsls	r2, r2, #11
     830:	609a      	str	r2, [r3, #8]
	pinGpio(p);
    PORT->Group[p.group].PINCFG[p.pin].bit.DRVSTR = 1;
}

inline static void pinHigh(Pin p) {
    PORT->Group[p.group].OUTSET.reg = (1<<p.pin);
     832:	619a      	str	r2, [r3, #24]
    PORT->Group[p.group].PINCFG[p.pin].bit.PMUXEN = 1;
}


inline static void pinGpio(Pin p) {
    PORT->Group[p.group].PINCFG[p.pin].bit.PMUXEN = 0;
     834:	9103      	str	r1, [sp, #12]
     836:	780a      	ldrb	r2, [r1, #0]
     838:	43a2      	bics	r2, r4
     83a:	700a      	strb	r2, [r1, #0]
}


inline static void pinOut(Pin p) {
    pinGpio(p);
    PORT->Group[p.group].DIRSET.reg = (1<<p.pin);
     83c:	2280      	movs	r2, #128	; 0x80
     83e:	0152      	lsls	r2, r2, #5
     840:	609a      	str	r2, [r3, #8]
    PORT->Group[p.group].PINCFG[p.pin].bit.PMUXEN = 1;
}


inline static void pinGpio(Pin p) {
    PORT->Group[p.group].PINCFG[p.pin].bit.PMUXEN = 0;
     842:	783a      	ldrb	r2, [r7, #0]
    return (PORT->Group[p.group].IN.reg & (1<<p.pin)) != 0;
}

inline static void pinMux(Pin p) {
    if (p.pin & 1) {
        PORT->Group[p.group].PMUX[p.pin/2].bit.PMUXO = p.mux;
     844:	2120      	movs	r1, #32
    PORT->Group[p.group].PINCFG[p.pin].bit.PMUXEN = 1;
}


inline static void pinGpio(Pin p) {
    PORT->Group[p.group].PINCFG[p.pin].bit.PMUXEN = 0;
     846:	43a2      	bics	r2, r4
     848:	703a      	strb	r2, [r7, #0]
}


inline static void pinOut(Pin p) {
    pinGpio(p);
    PORT->Group[p.group].DIRSET.reg = (1<<p.pin);
     84a:	2280      	movs	r2, #128	; 0x80
     84c:	0212      	lsls	r2, r2, #8
     84e:	609a      	str	r2, [r3, #8]
    PORT->Group[p.group].PINCFG[p.pin].bit.PMUXEN = 1;
}


inline static void pinGpio(Pin p) {
    PORT->Group[p.group].PINCFG[p.pin].bit.PMUXEN = 0;
     850:	001a      	movs	r2, r3
     852:	324d      	adds	r2, #77	; 0x4d
     854:	7810      	ldrb	r0, [r2, #0]
     856:	43a0      	bics	r0, r4
     858:	7010      	strb	r0, [r2, #0]
}


inline static void pinIn(Pin p) {
    pinGpio(p);
    PORT->Group[p.group].PINCFG[p.pin].bit.INEN = 1;
     85a:	7810      	ldrb	r0, [r2, #0]
     85c:	4328      	orrs	r0, r5
     85e:	7010      	strb	r0, [r2, #0]
    PORT->Group[p.group].DIRCLR.reg = (1<<p.pin);
     860:	2080      	movs	r0, #128	; 0x80
     862:	0180      	lsls	r0, r0, #6
     864:	6058      	str	r0, [r3, #4]
    return (PORT->Group[p.group].IN.reg & (1<<p.pin)) != 0;
}

inline static void pinMux(Pin p) {
    if (p.pin & 1) {
        PORT->Group[p.group].PMUX[p.pin/2].bit.PMUXO = p.mux;
     866:	0018      	movs	r0, r3
     868:	3036      	adds	r0, #54	; 0x36
     86a:	7805      	ldrb	r5, [r0, #0]
     86c:	4035      	ands	r5, r6
     86e:	430d      	orrs	r5, r1
     870:	7005      	strb	r5, [r0, #0]
    } else {
        PORT->Group[p.group].PMUX[p.pin/2].bit.PMUXE = p.mux;
    }
    PORT->Group[p.group].PINCFG[p.pin].bit.PMUXEN = 1;
     872:	7811      	ldrb	r1, [r2, #0]
     874:	000d      	movs	r5, r1
     876:	4325      	orrs	r5, r4
     878:	7015      	strb	r5, [r2, #0]
    return (PORT->Group[p.group].IN.reg & (1<<p.pin)) != 0;
}

inline static void pinMux(Pin p) {
    if (p.pin & 1) {
        PORT->Group[p.group].PMUX[p.pin/2].bit.PMUXO = p.mux;
     87a:	2237      	movs	r2, #55	; 0x37
     87c:	4694      	mov	ip, r2
     87e:	449c      	add	ip, r3
     880:	4662      	mov	r2, ip
     882:	2120      	movs	r1, #32
     884:	7812      	ldrb	r2, [r2, #0]
    } else {
        PORT->Group[p.group].PMUX[p.pin/2].bit.PMUXE = p.mux;
     886:	2502      	movs	r5, #2
    return (PORT->Group[p.group].IN.reg & (1<<p.pin)) != 0;
}

inline static void pinMux(Pin p) {
    if (p.pin & 1) {
        PORT->Group[p.group].PMUX[p.pin/2].bit.PMUXO = p.mux;
     888:	4032      	ands	r2, r6
     88a:	430a      	orrs	r2, r1
     88c:	4661      	mov	r1, ip
     88e:	700a      	strb	r2, [r1, #0]
    } else {
        PORT->Group[p.group].PMUX[p.pin/2].bit.PMUXE = p.mux;
     890:	2102      	movs	r1, #2
    }
    PORT->Group[p.group].PINCFG[p.pin].bit.PMUXEN = 1;
     892:	783a      	ldrb	r2, [r7, #0]
     894:	4322      	orrs	r2, r4
     896:	703a      	strb	r2, [r7, #0]

inline static void pinMux(Pin p) {
    if (p.pin & 1) {
        PORT->Group[p.group].PMUX[p.pin/2].bit.PMUXO = p.mux;
    } else {
        PORT->Group[p.group].PMUX[p.pin/2].bit.PMUXE = p.mux;
     898:	7802      	ldrb	r2, [r0, #0]
     89a:	43b2      	bics	r2, r6
     89c:	430a      	orrs	r2, r1
     89e:	7002      	strb	r2, [r0, #0]
    }
    PORT->Group[p.group].PINCFG[p.pin].bit.PMUXEN = 1;
     8a0:	9a03      	ldr	r2, [sp, #12]
     8a2:	9903      	ldr	r1, [sp, #12]
     8a4:	7812      	ldrb	r2, [r2, #0]
}


inline static void pinOutStrong(Pin p) {
	pinGpio(p);
    PORT->Group[p.group].PINCFG[p.pin].bit.DRVSTR = 1;
     8a6:	2040      	movs	r0, #64	; 0x40
    if (p.pin & 1) {
        PORT->Group[p.group].PMUX[p.pin/2].bit.PMUXO = p.mux;
    } else {
        PORT->Group[p.group].PMUX[p.pin/2].bit.PMUXE = p.mux;
    }
    PORT->Group[p.group].PINCFG[p.pin].bit.PMUXEN = 1;
     8a8:	4322      	orrs	r2, r4
     8aa:	700a      	strb	r2, [r1, #0]
}


inline static void pinGpio(Pin p) {
    PORT->Group[p.group].PINCFG[p.pin].bit.PMUXEN = 0;
     8ac:	0019      	movs	r1, r3
     8ae:	314e      	adds	r1, #78	; 0x4e
     8b0:	780a      	ldrb	r2, [r1, #0]
     8b2:	43a2      	bics	r2, r4
     8b4:	700a      	strb	r2, [r1, #0]
}


inline static void pinOut(Pin p) {
    pinGpio(p);
    PORT->Group[p.group].DIRSET.reg = (1<<p.pin);
     8b6:	2280      	movs	r2, #128	; 0x80
     8b8:	01d2      	lsls	r2, r2, #7
     8ba:	609a      	str	r2, [r3, #8]
	pinGpio(p);
    PORT->Group[p.group].PINCFG[p.pin].bit.DRVSTR = 1;
}

inline static void pinHigh(Pin p) {
    PORT->Group[p.group].OUTSET.reg = (1<<p.pin);
     8bc:	619a      	str	r2, [r3, #24]
    PORT->Group[p.group].PINCFG[p.pin].bit.PMUXEN = 1;
}


inline static void pinGpio(Pin p) {
    PORT->Group[p.group].PINCFG[p.pin].bit.PMUXEN = 0;
     8be:	001a      	movs	r2, r3
     8c0:	3255      	adds	r2, #85	; 0x55
     8c2:	7811      	ldrb	r1, [r2, #0]
     8c4:	43a1      	bics	r1, r4
     8c6:	7011      	strb	r1, [r2, #0]
}


inline static void pinOut(Pin p) {
    pinGpio(p);
    PORT->Group[p.group].DIRSET.reg = (1<<p.pin);
     8c8:	2180      	movs	r1, #128	; 0x80
     8ca:	0389      	lsls	r1, r1, #14
     8cc:	6099      	str	r1, [r3, #8]
    PORT->Group[p.group].PINCFG[p.pin].bit.PMUXEN = 1;
}


inline static void pinGpio(Pin p) {
    PORT->Group[p.group].PINCFG[p.pin].bit.PMUXEN = 0;
     8ce:	7811      	ldrb	r1, [r2, #0]
     8d0:	43a1      	bics	r1, r4
     8d2:	7011      	strb	r1, [r2, #0]
}


inline static void pinOutStrong(Pin p) {
	pinGpio(p);
    PORT->Group[p.group].PINCFG[p.pin].bit.DRVSTR = 1;
     8d4:	7811      	ldrb	r1, [r2, #0]
     8d6:	4301      	orrs	r1, r0
    PORT->Group[p.group].PINCFG[p.pin].bit.PMUXEN = 1;
}


inline static void pinGpio(Pin p) {
    PORT->Group[p.group].PINCFG[p.pin].bit.PMUXEN = 0;
     8d8:	0018      	movs	r0, r3
}


inline static void pinOutStrong(Pin p) {
	pinGpio(p);
    PORT->Group[p.group].PINCFG[p.pin].bit.DRVSTR = 1;
     8da:	7011      	strb	r1, [r2, #0]
    PORT->Group[p.group].PINCFG[p.pin].bit.PMUXEN = 1;
}


inline static void pinGpio(Pin p) {
    PORT->Group[p.group].PINCFG[p.pin].bit.PMUXEN = 0;
     8dc:	3056      	adds	r0, #86	; 0x56
     8de:	7802      	ldrb	r2, [r0, #0]

inline static void pinMux(Pin p) {
    if (p.pin & 1) {
        PORT->Group[p.group].PMUX[p.pin/2].bit.PMUXO = p.mux;
    } else {
        PORT->Group[p.group].PMUX[p.pin/2].bit.PMUXE = p.mux;
     8e0:	0019      	movs	r1, r3
    PORT->Group[p.group].PINCFG[p.pin].bit.PMUXEN = 1;
}


inline static void pinGpio(Pin p) {
    PORT->Group[p.group].PINCFG[p.pin].bit.PMUXEN = 0;
     8e2:	43a2      	bics	r2, r4
     8e4:	7002      	strb	r2, [r0, #0]
}


inline static void pinOut(Pin p) {
    pinGpio(p);
    PORT->Group[p.group].DIRSET.reg = (1<<p.pin);
     8e6:	2280      	movs	r2, #128	; 0x80
     8e8:	03d2      	lsls	r2, r2, #15
     8ea:	609a      	str	r2, [r3, #8]

inline static void pinMux(Pin p) {
    if (p.pin & 1) {
        PORT->Group[p.group].PMUX[p.pin/2].bit.PMUXO = p.mux;
    } else {
        PORT->Group[p.group].PMUX[p.pin/2].bit.PMUXE = p.mux;
     8ec:	313b      	adds	r1, #59	; 0x3b
     8ee:	780a      	ldrb	r2, [r1, #0]
     8f0:	43b2      	bics	r2, r6
     8f2:	432a      	orrs	r2, r5
     8f4:	700a      	strb	r2, [r1, #0]
    }
    PORT->Group[p.group].PINCFG[p.pin].bit.PMUXEN = 1;
     8f6:	7802      	ldrb	r2, [r0, #0]
     8f8:	4322      	orrs	r2, r4
     8fa:	7002      	strb	r2, [r0, #0]
}


inline static void pinGpio(Pin p) {
    PORT->Group[p.group].PINCFG[p.pin].bit.PMUXEN = 0;
     8fc:	001a      	movs	r2, r3
     8fe:	3257      	adds	r2, #87	; 0x57
     900:	7810      	ldrb	r0, [r2, #0]
     902:	43a0      	bics	r0, r4
     904:	7010      	strb	r0, [r2, #0]
}


inline static void pinIn(Pin p) {
    pinGpio(p);
    PORT->Group[p.group].PINCFG[p.pin].bit.INEN = 1;
     906:	7810      	ldrb	r0, [r2, #0]
     908:	4328      	orrs	r0, r5
     90a:	7010      	strb	r0, [r2, #0]
    PORT->Group[p.group].DIRCLR.reg = (1<<p.pin);
     90c:	2080      	movs	r0, #128	; 0x80
     90e:	0400      	lsls	r0, r0, #16
     910:	6058      	str	r0, [r3, #4]
    return (PORT->Group[p.group].IN.reg & (1<<p.pin)) != 0;
}

inline static void pinMux(Pin p) {
    if (p.pin & 1) {
        PORT->Group[p.group].PMUX[p.pin/2].bit.PMUXO = p.mux;
     912:	2020      	movs	r0, #32
     914:	780b      	ldrb	r3, [r1, #0]
     916:	4033      	ands	r3, r6
     918:	4303      	orrs	r3, r0
     91a:	700b      	strb	r3, [r1, #0]
    } else {
        PORT->Group[p.group].PMUX[p.pin/2].bit.PMUXE = p.mux;
    }
    PORT->Group[p.group].PINCFG[p.pin].bit.PMUXEN = 1;
     91c:	7813      	ldrb	r3, [r2, #0]
    pinOut(TxPo);
    pinMux(TxPo);
    pinIn(RxPo);
    pinMux(RxPo);

    delay_ms(200);
     91e:	30a8      	adds	r0, #168	; 0xa8
     920:	4323      	orrs	r3, r4
     922:	7013      	strb	r3, [r2, #0]
     924:	4b24      	ldr	r3, [pc, #144]	; (9b8 <init+0x420>)
     926:	4798      	blx	r3

    sercomClockEnable(SPI2, 3, 4);
     928:	4f24      	ldr	r7, [pc, #144]	; (9bc <init+0x424>)
     92a:	0028      	movs	r0, r5
     92c:	2204      	movs	r2, #4
     92e:	2103      	movs	r1, #3
     930:	47b8      	blx	r7
    sercomSpiMasterInit(SPI2, 1, 3, 0, 0, 0x00);
     932:	2300      	movs	r3, #0
     934:	4e22      	ldr	r6, [pc, #136]	; (9c0 <init+0x428>)
     936:	9301      	str	r3, [sp, #4]
     938:	9300      	str	r3, [sp, #0]
     93a:	0021      	movs	r1, r4
     93c:	0028      	movs	r0, r5
     93e:	2203      	movs	r2, #3
     940:	47b0      	blx	r6

    sercomClockEnable(SPI0, 3, 4);
     942:	2204      	movs	r2, #4
     944:	2103      	movs	r1, #3
     946:	2000      	movs	r0, #0
     948:	47b8      	blx	r7
    sercomSpiMasterInit(SPI0, 3, 0, 0, 0, 0x00);
     94a:	2300      	movs	r3, #0
     94c:	2103      	movs	r1, #3
     94e:	9301      	str	r3, [sp, #4]
     950:	9300      	str	r3, [sp, #0]
     952:	001a      	movs	r2, r3
     954:	0018      	movs	r0, r3
     956:	47b0      	blx	r6

    sercomClockEnable(SPI1, 3, 4);
     958:	0020      	movs	r0, r4
     95a:	2204      	movs	r2, #4
     95c:	2103      	movs	r1, #3
     95e:	47b8      	blx	r7
    sercomSpiMasterInit(SPI1, 3, 0, 0, 0, 0x00);
     960:	2300      	movs	r3, #0
     962:	0020      	movs	r0, r4
     964:	9301      	str	r3, [sp, #4]
     966:	9300      	str	r3, [sp, #0]
     968:	001a      	movs	r2, r3
     96a:	2103      	movs	r1, #3
     96c:	47b0      	blx	r6

    sercomClockEnable(USART3, 4, 8);
     96e:	2208      	movs	r2, #8
     970:	2104      	movs	r1, #4
     972:	2003      	movs	r0, #3
     974:	47b8      	blx	r7
    sercomUartInit(USART3,1,0,19200);
     976:	2396      	movs	r3, #150	; 0x96
     978:	0021      	movs	r1, r4
     97a:	2200      	movs	r2, #0
     97c:	2003      	movs	r0, #3
     97e:	01db      	lsls	r3, r3, #7
     980:	4c10      	ldr	r4, [pc, #64]	; (9c4 <init+0x42c>)
     982:	47a0      	blx	r4

    TC4Init();
     984:	4b10      	ldr	r3, [pc, #64]	; (9c8 <init+0x430>)
     986:	4798      	blx	r3
    TC5Init();
     988:	4b10      	ldr	r3, [pc, #64]	; (9cc <init+0x434>)
     98a:	4798      	blx	r3
}
     98c:	b005      	add	sp, #20
     98e:	e01f      	b.n	9d0 <init+0x438>
     990:	41004000 	.word	0x41004000
     994:	40000400 	.word	0x40000400
     998:	000001d5 	.word	0x000001d5
     99c:	00001079 	.word	0x00001079
     9a0:	00000f79 	.word	0x00000f79
     9a4:	000010ed 	.word	0x000010ed
     9a8:	00000d65 	.word	0x00000d65
     9ac:	41004400 	.word	0x41004400
     9b0:	41004488 	.word	0x41004488
     9b4:	200002c4 	.word	0x200002c4
     9b8:	0000114d 	.word	0x0000114d
     9bc:	00003701 	.word	0x00003701
     9c0:	00003765 	.word	0x00003765
     9c4:	000037c9 	.word	0x000037c9
     9c8:	000011cd 	.word	0x000011cd
     9cc:	00001235 	.word	0x00001235
     9d0:	bdf0      	pop	{r4, r5, r6, r7, pc}
     9d2:	46c0      	nop			; (mov r8, r8)

000009d4 <main>:


int main(void) {
     9d4:	b570      	push	{r4, r5, r6, lr}

    init();
     9d6:	4b17      	ldr	r3, [pc, #92]	; (a34 <main+0x60>)
     9d8:	4798      	blx	r3

    initMS5803Barometer();
     9da:	4b17      	ldr	r3, [pc, #92]	; (a38 <main+0x64>)
     9dc:	4798      	blx	r3
    IMUinit();
     9de:	4b17      	ldr	r3, [pc, #92]	; (a3c <main+0x68>)
     9e0:	4798      	blx	r3

    computeKalmanGains();
     9e2:	4b17      	ldr	r3, [pc, #92]	; (a40 <main+0x6c>)
     9e4:	4798      	blx	r3

    computeKalmanBaroOnlyGains();
     9e6:	4b17      	ldr	r3, [pc, #92]	; (a44 <main+0x70>)
     9e8:	4798      	blx	r3

    sampleTick();
     9ea:	4c17      	ldr	r4, [pc, #92]	; (a48 <main+0x74>)
     9ec:	47a0      	blx	r4

    POST();
     9ee:	4b17      	ldr	r3, [pc, #92]	; (a4c <main+0x78>)
     9f0:	4798      	blx	r3

    isItPointingUp();
     9f2:	4b17      	ldr	r3, [pc, #92]	; (a50 <main+0x7c>)
     9f4:	4798      	blx	r3

    getSettings();
     9f6:	4b17      	ldr	r3, [pc, #92]	; (a54 <main+0x80>)
     9f8:	4798      	blx	r3

    beep(400);
     9fa:	20c8      	movs	r0, #200	; 0xc8
     9fc:	4b16      	ldr	r3, [pc, #88]	; (a58 <main+0x84>)
     9fe:	0040      	lsls	r0, r0, #1
     a00:	4798      	blx	r3
    delay_ms(1500);
     a02:	4816      	ldr	r0, [pc, #88]	; (a5c <main+0x88>)
     a04:	4d16      	ldr	r5, [pc, #88]	; (a60 <main+0x8c>)
     a06:	47a8      	blx	r5

    continuityBeep();
     a08:	4b16      	ldr	r3, [pc, #88]	; (a64 <main+0x90>)
     a0a:	4798      	blx	r3
    delay_ms(1000);
     a0c:	20fa      	movs	r0, #250	; 0xfa
     a0e:	0080      	lsls	r0, r0, #2
     a10:	47a8      	blx	r5

    startupTick = millis();
     a12:	4b15      	ldr	r3, [pc, #84]	; (a68 <main+0x94>)
     a14:	4798      	blx	r3
     a16:	4b15      	ldr	r3, [pc, #84]	; (a6c <main+0x98>)
     a18:	6018      	str	r0, [r3, #0]

    while (1) {
        if (takeSample()) {
     a1a:	4b15      	ldr	r3, [pc, #84]	; (a70 <main+0x9c>)
     a1c:	4798      	blx	r3
     a1e:	2800      	cmp	r0, #0
     a20:	d0fb      	beq.n	a1a <main+0x46>
            sampleTick();
     a22:	47a0      	blx	r4
            flight();
     a24:	4b13      	ldr	r3, [pc, #76]	; (a74 <main+0xa0>)
     a26:	4798      	blx	r3
            igniterTick();
     a28:	4b13      	ldr	r3, [pc, #76]	; (a78 <main+0xa4>)
     a2a:	4798      	blx	r3
            computeKalmanStates();
     a2c:	4b13      	ldr	r3, [pc, #76]	; (a7c <main+0xa8>)
     a2e:	4798      	blx	r3
     a30:	e7f3      	b.n	a1a <main+0x46>
     a32:	46c0      	nop			; (mov r8, r8)
     a34:	00000599 	.word	0x00000599
     a38:	00000559 	.word	0x00000559
     a3c:	00000a99 	.word	0x00000a99
     a40:	00001969 	.word	0x00001969
     a44:	00002209 	.word	0x00002209
     a48:	000033f1 	.word	0x000033f1
     a4c:	00000c6d 	.word	0x00000c6d
     a50:	00001611 	.word	0x00001611
     a54:	00003971 	.word	0x00003971
     a58:	00000e49 	.word	0x00000e49
     a5c:	000005dc 	.word	0x000005dc
     a60:	0000114d 	.word	0x0000114d
     a64:	0000173d 	.word	0x0000173d
     a68:	00001199 	.word	0x00001199
     a6c:	2000019c 	.word	0x2000019c
     a70:	000033d9 	.word	0x000033d9
     a74:	0000129d 	.word	0x0000129d
     a78:	00001781 	.word	0x00001781
     a7c:	00002c69 	.word	0x00002c69

00000a80 <HardFault_Handler>:
    This function acts as a special kind of Data Memory Barrier.
    It completes when all explicit memory accesses before this instruction complete.
 */
__attribute__( ( always_inline ) ) __STATIC_INLINE void __DSB(void)
{
  __ASM volatile ("dsb");
     a80:	f3bf 8f4f 	dsb	sy
 */
__STATIC_INLINE void NVIC_SystemReset(void)
{
  __DSB();                                                     /* Ensure all outstanding memory accesses included
                                                                  buffered write are completed before reset */
  SCB->AIRCR  = ((0x5FA << SCB_AIRCR_VECTKEY_Pos)      |
     a84:	4a02      	ldr	r2, [pc, #8]	; (a90 <HardFault_Handler+0x10>)
     a86:	4b03      	ldr	r3, [pc, #12]	; (a94 <HardFault_Handler+0x14>)
     a88:	60da      	str	r2, [r3, #12]
     a8a:	f3bf 8f4f 	dsb	sy
     a8e:	e7fe      	b.n	a8e <HardFault_Handler+0xe>
     a90:	05fa0004 	.word	0x05fa0004
     a94:	e000ed00 	.word	0xe000ed00

00000a98 <IMUinit>:
extern uint32_t _ezero;
extern uint32_t _sstack;
extern uint32_t _estack;


void IMUinit() {
     a98:	b570      	push	{r4, r5, r6, lr}
    PORT->Group[p.group].OUTSET.reg = (1<<p.pin);
}


inline static void pinLow(Pin p) {
    PORT->Group[p.group].OUTCLR.reg = (1<<p.pin);
     a9a:	4c08      	ldr	r4, [pc, #32]	; (abc <IMUinit+0x24>)
     a9c:	2580      	movs	r5, #128	; 0x80
     a9e:	0023      	movs	r3, r4
     aa0:	00ed      	lsls	r5, r5, #3
     aa2:	3394      	adds	r3, #148	; 0x94
     aa4:	601d      	str	r5, [r3, #0]

    pinLow(cs_accel);
    spiDataOut(SPI0, BMI_ACCEL_PMU_RANGE);
     aa6:	4e06      	ldr	r6, [pc, #24]	; (ac0 <IMUinit+0x28>)
     aa8:	210f      	movs	r1, #15
     aaa:	2000      	movs	r0, #0
     aac:	47b0      	blx	r6
	pinGpio(p);
    PORT->Group[p.group].PINCFG[p.pin].bit.DRVSTR = 1;
}

inline static void pinHigh(Pin p) {
    PORT->Group[p.group].OUTSET.reg = (1<<p.pin);
     aae:	3498      	adds	r4, #152	; 0x98
    spiDataOut(SPI0, BMI_ACCEL_16G_RANGE);
     ab0:	210c      	movs	r1, #12
     ab2:	2000      	movs	r0, #0
     ab4:	47b0      	blx	r6
     ab6:	6025      	str	r5, [r4, #0]
    pinHigh(cs_accel);

}
     ab8:	bd70      	pop	{r4, r5, r6, pc}
     aba:	46c0      	nop			; (mov r8, r8)
     abc:	41004400 	.word	0x41004400
     ac0:	00003829 	.word	0x00003829

00000ac4 <USARTconnectionAvaliable>:

bool USARTconnectionAvaliable() {
     ac4:	b510      	push	{r4, lr}

    if (sercom(USART3)->SPI.INTFLAG.bit.RXC == 1) {
     ac6:	4b09      	ldr	r3, [pc, #36]	; (aec <USARTconnectionAvaliable+0x28>)
     ac8:	7e1c      	ldrb	r4, [r3, #24]
     aca:	0764      	lsls	r4, r4, #29
     acc:	0fe4      	lsrs	r4, r4, #31
     ace:	2c01      	cmp	r4, #1
     ad0:	d001      	beq.n	ad6 <USARTconnectionAvaliable+0x12>
            return true;
        } else {
            return false;
        }
    }
    return false;
     ad2:	2000      	movs	r0, #0
     ad4:	e009      	b.n	aea <USARTconnectionAvaliable+0x26>
}

bool USARTconnectionAvaliable() {

    if (sercom(USART3)->SPI.INTFLAG.bit.RXC == 1) {
        u8_t connectAttempt = usartDataIn(USART3);
     ad6:	2003      	movs	r0, #3
     ad8:	4b05      	ldr	r3, [pc, #20]	; (af0 <USARTconnectionAvaliable+0x2c>)
     ada:	4798      	blx	r3
     adc:	1e01      	subs	r1, r0, #0
        if (connectAttempt == 0x48) {
     ade:	2948      	cmp	r1, #72	; 0x48
     ae0:	d1f7      	bne.n	ad2 <USARTconnectionAvaliable+0xe>
            usartDataOut(USART3, 'H');
     ae2:	2003      	movs	r0, #3
     ae4:	4b03      	ldr	r3, [pc, #12]	; (af4 <USARTconnectionAvaliable+0x30>)
     ae6:	4798      	blx	r3
            return true;
     ae8:	0020      	movs	r0, r4
        } else {
            return false;
        }
    }
    return false;
}
     aea:	bd10      	pop	{r4, pc}
     aec:	42001400 	.word	0x42001400
     af0:	00003875 	.word	0x00003875
     af4:	0000385d 	.word	0x0000385d

00000af8 <sendTheasePagesToComputer>:

void sendTheasePagesToComputer(u32_t firstPage, u32_t lastPage) {
     af8:	b5f0      	push	{r4, r5, r6, r7, lr}
    for (u16_t page = 0; page <= pagesToSend; ++page) {

        u8_t data[256];
        AT25SEreadPage(pageToReadAddress , data);

        for (u16_t dataByte = 0; dataByte < 256; ++dataByte) {
     afa:	2780      	movs	r7, #128	; 0x80
        }
    }
    return false;
}

void sendTheasePagesToComputer(u32_t firstPage, u32_t lastPage) {
     afc:	0005      	movs	r5, r0

    u16_t pagesToSend = (lastPage - firstPage) >> 8;

    u32_t pageToReadAddress = firstPage;

    for (u16_t page = 0; page <= pagesToSend; ++page) {
     afe:	2400      	movs	r4, #0
    return false;
}

void sendTheasePagesToComputer(u32_t firstPage, u32_t lastPage) {

    u16_t pagesToSend = (lastPage - firstPage) >> 8;
     b00:	1a09      	subs	r1, r1, r0
     b02:	0a09      	lsrs	r1, r1, #8
        }
    }
    return false;
}

void sendTheasePagesToComputer(u32_t firstPage, u32_t lastPage) {
     b04:	b0c3      	sub	sp, #268	; 0x10c

    u16_t pagesToSend = (lastPage - firstPage) >> 8;
     b06:	b28b      	uxth	r3, r1
     b08:	9301      	str	r3, [sp, #4]
    for (u16_t page = 0; page <= pagesToSend; ++page) {

        u8_t data[256];
        AT25SEreadPage(pageToReadAddress , data);

        for (u16_t dataByte = 0; dataByte < 256; ++dataByte) {
     b0a:	007f      	lsls	r7, r7, #1
    u32_t pageToReadAddress = firstPage;

    for (u16_t page = 0; page <= pagesToSend; ++page) {

        u8_t data[256];
        AT25SEreadPage(pageToReadAddress , data);
     b0c:	a902      	add	r1, sp, #8
     b0e:	0028      	movs	r0, r5
     b10:	4b09      	ldr	r3, [pc, #36]	; (b38 <sendTheasePagesToComputer+0x40>)
     b12:	4798      	blx	r3
     b14:	2600      	movs	r6, #0

        for (u16_t dataByte = 0; dataByte < 256; ++dataByte) {
            usartDataOut(USART3, data[dataByte]);
     b16:	ab02      	add	r3, sp, #8
     b18:	5d99      	ldrb	r1, [r3, r6]
     b1a:	2003      	movs	r0, #3
     b1c:	4b07      	ldr	r3, [pc, #28]	; (b3c <sendTheasePagesToComputer+0x44>)
     b1e:	3601      	adds	r6, #1
     b20:	4798      	blx	r3
    for (u16_t page = 0; page <= pagesToSend; ++page) {

        u8_t data[256];
        AT25SEreadPage(pageToReadAddress , data);

        for (u16_t dataByte = 0; dataByte < 256; ++dataByte) {
     b22:	42be      	cmp	r6, r7
     b24:	d1f7      	bne.n	b16 <sendTheasePagesToComputer+0x1e>

    u16_t pagesToSend = (lastPage - firstPage) >> 8;

    u32_t pageToReadAddress = firstPage;

    for (u16_t page = 0; page <= pagesToSend; ++page) {
     b26:	3401      	adds	r4, #1
     b28:	9b01      	ldr	r3, [sp, #4]

        for (u16_t dataByte = 0; dataByte < 256; ++dataByte) {
            usartDataOut(USART3, data[dataByte]);
        }

        pageToReadAddress = pageToReadAddress + 0x100;
     b2a:	3501      	adds	r5, #1

    u16_t pagesToSend = (lastPage - firstPage) >> 8;

    u32_t pageToReadAddress = firstPage;

    for (u16_t page = 0; page <= pagesToSend; ++page) {
     b2c:	b2a4      	uxth	r4, r4

        for (u16_t dataByte = 0; dataByte < 256; ++dataByte) {
            usartDataOut(USART3, data[dataByte]);
        }

        pageToReadAddress = pageToReadAddress + 0x100;
     b2e:	35ff      	adds	r5, #255	; 0xff

    u16_t pagesToSend = (lastPage - firstPage) >> 8;

    u32_t pageToReadAddress = firstPage;

    for (u16_t page = 0; page <= pagesToSend; ++page) {
     b30:	42a3      	cmp	r3, r4
     b32:	d2eb      	bcs.n	b0c <sendTheasePagesToComputer+0x14>
            usartDataOut(USART3, data[dataByte]);
        }

        pageToReadAddress = pageToReadAddress + 0x100;
    }
}
     b34:	b043      	add	sp, #268	; 0x10c
     b36:	bdf0      	pop	{r4, r5, r6, r7, pc}
     b38:	0000035d 	.word	0x0000035d
     b3c:	0000385d 	.word	0x0000385d

00000b40 <altitudeAGL>:

int32_t altitudeAGL() {
    return altitude - offsets.groundOffset;
     b40:	4b07      	ldr	r3, [pc, #28]	; (b60 <altitudeAGL+0x20>)

        pageToReadAddress = pageToReadAddress + 0x100;
    }
}

int32_t altitudeAGL() {
     b42:	b510      	push	{r4, lr}
    return altitude - offsets.groundOffset;
     b44:	6998      	ldr	r0, [r3, #24]
     b46:	4b07      	ldr	r3, [pc, #28]	; (b64 <altitudeAGL+0x24>)
     b48:	4798      	blx	r3
     b4a:	000b      	movs	r3, r1
     b4c:	4906      	ldr	r1, [pc, #24]	; (b68 <altitudeAGL+0x28>)
     b4e:	0002      	movs	r2, r0
     b50:	6808      	ldr	r0, [r1, #0]
     b52:	6849      	ldr	r1, [r1, #4]
     b54:	4c05      	ldr	r4, [pc, #20]	; (b6c <altitudeAGL+0x2c>)
     b56:	47a0      	blx	r4
     b58:	4b05      	ldr	r3, [pc, #20]	; (b70 <altitudeAGL+0x30>)
     b5a:	4798      	blx	r3
}
     b5c:	bd10      	pop	{r4, pc}
     b5e:	46c0      	nop			; (mov r8, r8)
     b60:	20000150 	.word	0x20000150
     b64:	00006f5d 	.word	0x00006f5d
     b68:	20000328 	.word	0x20000328
     b6c:	00006785 	.word	0x00006785
     b70:	00006e6d 	.word	0x00006e6d

00000b74 <unplugged>:


bool unplugged() {
    if (sample.voltage.batFloat < 3.4) {
     b74:	4b07      	ldr	r3, [pc, #28]	; (b94 <unplugged+0x20>)
int32_t altitudeAGL() {
    return altitude - offsets.groundOffset;
}


bool unplugged() {
     b76:	b570      	push	{r4, r5, r6, lr}
     b78:	68d8      	ldr	r0, [r3, #12]
     b7a:	4b07      	ldr	r3, [pc, #28]	; (b98 <unplugged+0x24>)
     b7c:	4798      	blx	r3
     b7e:	4a07      	ldr	r2, [pc, #28]	; (b9c <unplugged+0x28>)
     b80:	4b07      	ldr	r3, [pc, #28]	; (ba0 <unplugged+0x2c>)
     b82:	4d08      	ldr	r5, [pc, #32]	; (ba4 <unplugged+0x30>)
     b84:	2401      	movs	r4, #1
     b86:	47a8      	blx	r5
     b88:	2800      	cmp	r0, #0
     b8a:	d100      	bne.n	b8e <unplugged+0x1a>
     b8c:	1c04      	adds	r4, r0, #0
     b8e:	b2e0      	uxtb	r0, r4
    if (sample.voltage.batFloat < 3.4) {
        return true;
    } else {
        return false;
    }
}
     b90:	bd70      	pop	{r4, r5, r6, pc}
     b92:	46c0      	nop			; (mov r8, r8)
     b94:	200005f0 	.word	0x200005f0
     b98:	00006fcd 	.word	0x00006fcd
     b9c:	33333333 	.word	0x33333333
     ba0:	400b3333 	.word	0x400b3333
     ba4:	000050a1 	.word	0x000050a1

00000ba8 <shutDown>:

void shutDown() {
     ba8:	b510      	push	{r4, lr}


    delay_ms(100);
     baa:	2064      	movs	r0, #100	; 0x64
     bac:	4b14      	ldr	r3, [pc, #80]	; (c00 <shutDown+0x58>)
     bae:	4798      	blx	r3
    TC4->COUNT8.CTRLA.reg = 0;
     bb0:	2300      	movs	r3, #0

    \param [in]      IRQn  External interrupt number. Value cannot be negative.
 */
__STATIC_INLINE void NVIC_DisableIRQ(IRQn_Type IRQn)
{
  NVIC->ICER[0] = (1 << ((uint32_t)(IRQn) & 0x1F));
     bb2:	2180      	movs	r1, #128	; 0x80
     bb4:	4a13      	ldr	r2, [pc, #76]	; (c04 <shutDown+0x5c>)
     bb6:	0309      	lsls	r1, r1, #12
     bb8:	8013      	strh	r3, [r2, #0]
    TC5->COUNT8.CTRLA.reg = 0;
     bba:	4a13      	ldr	r2, [pc, #76]	; (c08 <shutDown+0x60>)
     bbc:	2480      	movs	r4, #128	; 0x80
     bbe:	8013      	strh	r3, [r2, #0]
     bc0:	4a12      	ldr	r2, [pc, #72]	; (c0c <shutDown+0x64>)
    NVIC_DisableIRQ(TC4_IRQn);
    NVIC_DisableIRQ(TC5_IRQn);
    NVIC_DisableIRQ(RTC_IRQn);
    RTC->MODE1.CTRL.bit.ENABLE = 0;
     bc2:	2002      	movs	r0, #2
     bc4:	67d1      	str	r1, [r2, #124]	; 0x7c
     bc6:	2108      	movs	r1, #8
     bc8:	0364      	lsls	r4, r4, #13
     bca:	67d4      	str	r4, [r2, #124]	; 0x7c
     bcc:	67d1      	str	r1, [r2, #124]	; 0x7c
     bce:	4a10      	ldr	r2, [pc, #64]	; (c10 <shutDown+0x68>)
     bd0:	8811      	ldrh	r1, [r2, #0]
     bd2:	4381      	bics	r1, r0
     bd4:	8011      	strh	r1, [r2, #0]
    SysTick->CTRL = 0;
     bd6:	4a0f      	ldr	r2, [pc, #60]	; (c14 <shutDown+0x6c>)
     bd8:	6013      	str	r3, [r2, #0]
    PM->APBAMASK.reg = 0;
     bda:	4a0f      	ldr	r2, [pc, #60]	; (c18 <shutDown+0x70>)
     bdc:	6193      	str	r3, [r2, #24]

    //turn off sercom clocks
    //GCLK->CLKCTRL.reg

    GCLK->GENDIV.reg  = (GCLK_GENDIV_DIV(1)  | GCLK_GENDIV_ID(0));
     bde:	2280      	movs	r2, #128	; 0x80
     be0:	4b0e      	ldr	r3, [pc, #56]	; (c1c <shutDown+0x74>)
     be2:	0052      	lsls	r2, r2, #1
     be4:	609a      	str	r2, [r3, #8]
    GCLK->GENCTRL.reg = (GCLK_GENCTRL_ID(0)  | (GCLK_GENCTRL_SRC_OSC8M) | (GCLK_GENCTRL_GENEN));
     be6:	2283      	movs	r2, #131	; 0x83
     be8:	0252      	lsls	r2, r2, #9
     bea:	605a      	str	r2, [r3, #4]
     bec:	4b0c      	ldr	r3, [pc, #48]	; (c20 <shutDown+0x78>)

    pinHigh(LedPin);

    SYSCTRL->BOD33.reg = SYSCTRL_BOD33_PSEL_DIV8 | SYSCTRL_BOD33_ACTION_RESET | SYSCTRL_BOD33_LEVEL(60);
     bee:	4a0d      	ldr	r2, [pc, #52]	; (c24 <shutDown+0x7c>)
     bf0:	619c      	str	r4, [r3, #24]
     bf2:	4b0d      	ldr	r3, [pc, #52]	; (c28 <shutDown+0x80>)
     bf4:	635a      	str	r2, [r3, #52]	; 0x34

    SYSCTRL->BOD33.reg |= SYSCTRL_BOD33_ENABLE;
     bf6:	6b5a      	ldr	r2, [r3, #52]	; 0x34
     bf8:	4302      	orrs	r2, r0
     bfa:	635a      	str	r2, [r3, #52]	; 0x34
     bfc:	e7fe      	b.n	bfc <shutDown+0x54>
     bfe:	46c0      	nop			; (mov r8, r8)
     c00:	0000114d 	.word	0x0000114d
     c04:	42003000 	.word	0x42003000
     c08:	42003400 	.word	0x42003400
     c0c:	e000e104 	.word	0xe000e104
     c10:	40001400 	.word	0x40001400
     c14:	e000e010 	.word	0xe000e010
     c18:	40000400 	.word	0x40000400
     c1c:	40000c00 	.word	0x40000c00
     c20:	41004400 	.word	0x41004400
     c24:	003c2008 	.word	0x003c2008
     c28:	40000800 	.word	0x40000800

00000c2c <finishFlight>:
    }
}

void finishFlight() {

    flightState = flightIdle;
     c2c:	2201      	movs	r2, #1
     c2e:	4b05      	ldr	r3, [pc, #20]	; (c44 <finishFlight+0x18>)
    while(1) {

    }
}

void finishFlight() {
     c30:	b510      	push	{r4, lr}

    flightState = flightIdle;
     c32:	701a      	strb	r2, [r3, #0]
    AT25SFHoldTillReady();
     c34:	4b04      	ldr	r3, [pc, #16]	; (c48 <finishFlight+0x1c>)
     c36:	4798      	blx	r3
    writeFlightEndAddress( );
     c38:	4b04      	ldr	r3, [pc, #16]	; (c4c <finishFlight+0x20>)
     c3a:	4798      	blx	r3
    unpluggedJingle();
     c3c:	4b04      	ldr	r3, [pc, #16]	; (c50 <finishFlight+0x24>)
     c3e:	4798      	blx	r3
    shutDown();
     c40:	4b04      	ldr	r3, [pc, #16]	; (c54 <finishFlight+0x28>)
     c42:	4798      	blx	r3
     c44:	200001ac 	.word	0x200001ac
     c48:	000001e5 	.word	0x000001e5
     c4c:	00003279 	.word	0x00003279
     c50:	00000ef5 	.word	0x00000ef5
     c54:	00000ba9 	.word	0x00000ba9

00000c58 <finishFromPad>:

}

void finishFromPad() {
    unpluggedJingle();
     c58:	4b02      	ldr	r3, [pc, #8]	; (c64 <finishFromPad+0xc>)
    unpluggedJingle();
    shutDown();

}

void finishFromPad() {
     c5a:	b510      	push	{r4, lr}
    unpluggedJingle();
     c5c:	4798      	blx	r3
    shutDown();
     c5e:	4b02      	ldr	r3, [pc, #8]	; (c68 <finishFromPad+0x10>)
     c60:	4798      	blx	r3
     c62:	46c0      	nop			; (mov r8, r8)
     c64:	00000ef5 	.word	0x00000ef5
     c68:	00000ba9 	.word	0x00000ba9

00000c6c <POST>:
}


void POST() {
     c6c:	b5f0      	push	{r4, r5, r6, r7, lr}

    bool postFailed = false;
    u8_t failType = 0;

    //Baro post first
    u8_t crc = MS5803_CRC4();
     c6e:	4b32      	ldr	r3, [pc, #200]	; (d38 <POST+0xcc>)
    unpluggedJingle();
    shutDown();
}


void POST() {
     c70:	b085      	sub	sp, #20

    bool postFailed = false;
    u8_t failType = 0;

    //Baro post first
    u8_t crc = MS5803_CRC4();
     c72:	4798      	blx	r3
    if (crc != coefficients_[7]) {
     c74:	4b31      	ldr	r3, [pc, #196]	; (d3c <POST+0xd0>)
     c76:	b280      	uxth	r0, r0
     c78:	89db      	ldrh	r3, [r3, #14]
        postFailed = true;
        failType = 1;
     c7a:	2401      	movs	r4, #1
    bool postFailed = false;
    u8_t failType = 0;

    //Baro post first
    u8_t crc = MS5803_CRC4();
    if (crc != coefficients_[7]) {
     c7c:	4283      	cmp	r3, r0
     c7e:	d100      	bne.n	c82 <POST+0x16>

void POST() {
    uint8_t dummy_Tx = 0xFF;

    bool postFailed = false;
    u8_t failType = 0;
     c80:	2400      	movs	r4, #0
}


inline static void pinLow(Pin p) {
    PORT->Group[p.group].OUTCLR.reg = (1<<p.pin);
     c82:	2780      	movs	r7, #128	; 0x80
     c84:	4d2e      	ldr	r5, [pc, #184]	; (d40 <POST+0xd4>)
     c86:	02ff      	lsls	r7, r7, #11
        failType = 1;
    }

    //Memory Post
    pinLow(cs_mem);
    spiDataOut(SPI1,0x9f); // read id and mfg code
     c88:	219f      	movs	r1, #159	; 0x9f
     c8a:	4b2e      	ldr	r3, [pc, #184]	; (d44 <POST+0xd8>)


void POST() {
    uint8_t dummy_Tx = 0xFF;

    bool postFailed = false;
     c8c:	9401      	str	r4, [sp, #4]
        failType = 1;
    }

    //Memory Post
    pinLow(cs_mem);
    spiDataOut(SPI1,0x9f); // read id and mfg code
     c8e:	2001      	movs	r0, #1
     c90:	616f      	str	r7, [r5, #20]
     c92:	4798      	blx	r3
    u8_t mfgID = spiDataIn(SPI1);
     c94:	4e2c      	ldr	r6, [pc, #176]	; (d48 <POST+0xdc>)
     c96:	2001      	movs	r0, #1
     c98:	47b0      	blx	r6
     c9a:	9002      	str	r0, [sp, #8]
    u8_t deviceID1 = spiDataIn(SPI1);
     c9c:	2001      	movs	r0, #1
     c9e:	47b0      	blx	r6
     ca0:	9003      	str	r0, [sp, #12]
    u8_t deviceID2 = spiDataIn(SPI1);
     ca2:	2001      	movs	r0, #1
     ca4:	47b0      	blx	r6
	pinGpio(p);
    PORT->Group[p.group].PINCFG[p.pin].bit.DRVSTR = 1;
}

inline static void pinHigh(Pin p) {
    PORT->Group[p.group].OUTSET.reg = (1<<p.pin);
     ca6:	61af      	str	r7, [r5, #24]
    pinHigh(cs_mem);

    if ( (mfgID != 0x1f) & (deviceID1 != 0x86) & (deviceID2 != 0x01)) {
     ca8:	9b02      	ldr	r3, [sp, #8]
     caa:	3b1f      	subs	r3, #31
     cac:	1e5a      	subs	r2, r3, #1
     cae:	4193      	sbcs	r3, r2
     cb0:	0019      	movs	r1, r3
     cb2:	9b03      	ldr	r3, [sp, #12]
     cb4:	3b86      	subs	r3, #134	; 0x86
     cb6:	1e5a      	subs	r2, r3, #1
     cb8:	4193      	sbcs	r3, r2
     cba:	4a22      	ldr	r2, [pc, #136]	; (d44 <POST+0xd8>)
     cbc:	9202      	str	r2, [sp, #8]
     cbe:	420b      	tst	r3, r1
     cc0:	d004      	beq.n	ccc <POST+0x60>
     cc2:	2801      	cmp	r0, #1
     cc4:	d002      	beq.n	ccc <POST+0x60>
        postFailed = true;
     cc6:	2301      	movs	r3, #1
        failType = 2;
     cc8:	2402      	movs	r4, #2
    u8_t deviceID1 = spiDataIn(SPI1);
    u8_t deviceID2 = spiDataIn(SPI1);
    pinHigh(cs_mem);

    if ( (mfgID != 0x1f) & (deviceID1 != 0x86) & (deviceID2 != 0x01)) {
        postFailed = true;
     cca:	9301      	str	r3, [sp, #4]
}


inline static void pinLow(Pin p) {
    PORT->Group[p.group].OUTCLR.reg = (1<<p.pin);
     ccc:	2780      	movs	r7, #128	; 0x80
     cce:	4b1f      	ldr	r3, [pc, #124]	; (d4c <POST+0xe0>)
     cd0:	00ff      	lsls	r7, r7, #3
     cd2:	601f      	str	r7, [r3, #0]
        failType = 2;
    }

    //Accelerometer Post
    pinLow(cs_accel);
    spiDataOut(SPI0, BMI055_BGW_CHIPID | BMI055_READ_REG);
     cd4:	9b02      	ldr	r3, [sp, #8]
     cd6:	2180      	movs	r1, #128	; 0x80
     cd8:	2000      	movs	r0, #0
     cda:	4798      	blx	r3
    u8_t accelID = spiDataTransfer(SPI0,dummy_Tx);
     cdc:	21ff      	movs	r1, #255	; 0xff
     cde:	2000      	movs	r0, #0
     ce0:	4e1b      	ldr	r6, [pc, #108]	; (d50 <POST+0xe4>)
     ce2:	47b0      	blx	r6
	pinGpio(p);
    PORT->Group[p.group].PINCFG[p.pin].bit.DRVSTR = 1;
}

inline static void pinHigh(Pin p) {
    PORT->Group[p.group].OUTSET.reg = (1<<p.pin);
     ce4:	4b1b      	ldr	r3, [pc, #108]	; (d54 <POST+0xe8>)
     ce6:	601f      	str	r7, [r3, #0]
    pinHigh(cs_accel);

    if (accelID != 0xFA) {
     ce8:	28fa      	cmp	r0, #250	; 0xfa
     cea:	d002      	beq.n	cf2 <POST+0x86>
        postFailed = true;
     cec:	2301      	movs	r3, #1
        failType = 3;
     cee:	2403      	movs	r4, #3
    spiDataOut(SPI0, BMI055_BGW_CHIPID | BMI055_READ_REG);
    u8_t accelID = spiDataTransfer(SPI0,dummy_Tx);
    pinHigh(cs_accel);

    if (accelID != 0xFA) {
        postFailed = true;
     cf0:	9301      	str	r3, [sp, #4]
}


inline static void pinLow(Pin p) {
    PORT->Group[p.group].OUTCLR.reg = (1<<p.pin);
     cf2:	616f      	str	r7, [r5, #20]
        failType = 3;
    }

    //Gyro Post
    pinLow(cs_gyro);
    spiDataOut(SPI0, BMI055_BGW_CHIPID | BMI055_READ_REG);
     cf4:	2180      	movs	r1, #128	; 0x80
     cf6:	2000      	movs	r0, #0
     cf8:	9b02      	ldr	r3, [sp, #8]
     cfa:	4798      	blx	r3
    u8_t gyroID = spiDataTransfer(SPI0,dummy_Tx);
     cfc:	21ff      	movs	r1, #255	; 0xff
     cfe:	2000      	movs	r0, #0
     d00:	47b0      	blx	r6
	pinGpio(p);
    PORT->Group[p.group].PINCFG[p.pin].bit.DRVSTR = 1;
}

inline static void pinHigh(Pin p) {
    PORT->Group[p.group].OUTSET.reg = (1<<p.pin);
     d02:	61af      	str	r7, [r5, #24]
    pinHigh(cs_gyro);

    if (gyroID != 0x0F) {
     d04:	280f      	cmp	r0, #15
     d06:	d103      	bne.n	d10 <POST+0xa4>
    }

    //Analog Accelerometer Post


    if (postFailed) {
     d08:	9b01      	ldr	r3, [sp, #4]
     d0a:	2b00      	cmp	r3, #0
     d0c:	d101      	bne.n	d12 <POST+0xa6>
     d0e:	e011      	b.n	d34 <POST+0xc8>
    u8_t gyroID = spiDataTransfer(SPI0,dummy_Tx);
    pinHigh(cs_gyro);

    if (gyroID != 0x0F) {
        postFailed = true;
        failType = 4;
     d10:	2404      	movs	r4, #4

    if (postFailed) {
        while (1) {
            u8_t beepCount;

            for (beepCount = failType; beepCount > 0; beepCount--) {
     d12:	0025      	movs	r5, r4
     d14:	4e10      	ldr	r6, [pc, #64]	; (d58 <POST+0xec>)
     d16:	2d00      	cmp	r5, #0
     d18:	d009      	beq.n	d2e <POST+0xc2>
                beep(300);
     d1a:	2096      	movs	r0, #150	; 0x96
     d1c:	4b0f      	ldr	r3, [pc, #60]	; (d5c <POST+0xf0>)
     d1e:	0040      	lsls	r0, r0, #1
     d20:	4798      	blx	r3
                delay_ms(300);
     d22:	2096      	movs	r0, #150	; 0x96

    if (postFailed) {
        while (1) {
            u8_t beepCount;

            for (beepCount = failType; beepCount > 0; beepCount--) {
     d24:	3d01      	subs	r5, #1
                beep(300);
                delay_ms(300);
     d26:	0040      	lsls	r0, r0, #1
     d28:	47b0      	blx	r6

    if (postFailed) {
        while (1) {
            u8_t beepCount;

            for (beepCount = failType; beepCount > 0; beepCount--) {
     d2a:	b2ed      	uxtb	r5, r5
     d2c:	e7f2      	b.n	d14 <POST+0xa8>
                beep(300);
                delay_ms(300);
            }
            delay_ms(1500);
     d2e:	480c      	ldr	r0, [pc, #48]	; (d60 <POST+0xf4>)
     d30:	47b0      	blx	r6
        }
     d32:	e7ee      	b.n	d12 <POST+0xa6>
    }
}
     d34:	b005      	add	sp, #20
     d36:	bdf0      	pop	{r4, r5, r6, r7, pc}
     d38:	00000589 	.word	0x00000589
     d3c:	200002ae 	.word	0x200002ae
     d40:	41004400 	.word	0x41004400
     d44:	00003829 	.word	0x00003829
     d48:	00003841 	.word	0x00003841
     d4c:	41004494 	.word	0x41004494
     d50:	00003811 	.word	0x00003811
     d54:	41004498 	.word	0x41004498
     d58:	0000114d 	.word	0x0000114d
     d5c:	00000e49 	.word	0x00000e49
     d60:	000005dc 	.word	0x000005dc

00000d64 <adcInit>:
#include <util.h>

void adcInit() {

    // set up clock
    PM->APBCMASK.reg |= PM_APBCMASK_ADC;
     d64:	2180      	movs	r1, #128	; 0x80


#include <util.h>

void adcInit() {
     d66:	b510      	push	{r4, lr}

    // set up clock
    PM->APBCMASK.reg |= PM_APBCMASK_ADC;
     d68:	4a10      	ldr	r2, [pc, #64]	; (dac <adcInit+0x48>)
     d6a:	0249      	lsls	r1, r1, #9
     d6c:	6a13      	ldr	r3, [r2, #32]
    // divide prescaler by 512 (93.75KHz), max adc freq is 2.1MHz
    ADC->CTRLB.reg = ADC_CTRLB_PRESCALER_DIV512 |
                     ADC_CTRLB_RESSEL_12BIT;

    // enable clock adc channel
    GCLK->CLKCTRL.reg = GCLK_CLKCTRL_CLKEN |
     d6e:	4810      	ldr	r0, [pc, #64]	; (db0 <adcInit+0x4c>)
#include <util.h>

void adcInit() {

    // set up clock
    PM->APBCMASK.reg |= PM_APBCMASK_ADC;
     d70:	430b      	orrs	r3, r1
     d72:	6213      	str	r3, [r2, #32]

    // divide prescaler by 512 (93.75KHz), max adc freq is 2.1MHz
    ADC->CTRLB.reg = ADC_CTRLB_PRESCALER_DIV512 |
     d74:	23e0      	movs	r3, #224	; 0xe0
     d76:	490f      	ldr	r1, [pc, #60]	; (db4 <adcInit+0x50>)
                     ADC_CTRLB_RESSEL_12BIT;

    // enable clock adc channel
    GCLK->CLKCTRL.reg = GCLK_CLKCTRL_CLKEN |
     d78:	4a0f      	ldr	r2, [pc, #60]	; (db8 <adcInit+0x54>)

    // set up clock
    PM->APBCMASK.reg |= PM_APBCMASK_ADC;

    // divide prescaler by 512 (93.75KHz), max adc freq is 2.1MHz
    ADC->CTRLB.reg = ADC_CTRLB_PRESCALER_DIV512 |
     d7a:	00db      	lsls	r3, r3, #3
     d7c:	808b      	strh	r3, [r1, #4]
                     ADC_CTRLB_RESSEL_12BIT;

    // enable clock adc channel
    GCLK->CLKCTRL.reg = GCLK_CLKCTRL_CLKEN |
     d7e:	8050      	strh	r0, [r2, #2]
                        GCLK_CLKCTRL_GEN(0) |
                        GCLK_CLKCTRL_ID(ADC_GCLK_ID);

    ADC->CALIB.reg =
        ADC_CALIB_BIAS_CAL(
     d80:	4a0e      	ldr	r2, [pc, #56]	; (dbc <adcInit+0x58>)
    // enable clock adc channel
    GCLK->CLKCTRL.reg = GCLK_CLKCTRL_CLKEN |
                        GCLK_CLKCTRL_GEN(0) |
                        GCLK_CLKCTRL_ID(ADC_GCLK_ID);

    ADC->CALIB.reg =
     d82:	6812      	ldr	r2, [r2, #0]
     d84:	0150      	lsls	r0, r2, #5
     d86:	4018      	ands	r0, r3
     d88:	4b0d      	ldr	r3, [pc, #52]	; (dc0 <adcInit+0x5c>)
     d8a:	0154      	lsls	r4, r2, #5
     d8c:	681a      	ldr	r2, [r3, #0]
     d8e:	0ed3      	lsrs	r3, r2, #27
     d90:	4323      	orrs	r3, r4
     d92:	b2da      	uxtb	r2, r3
     d94:	0003      	movs	r3, r0
     d96:	4313      	orrs	r3, r2
     d98:	850b      	strh	r3, [r1, #40]	; 0x28
        ) |
        ADC_CALIB_LINEARITY_CAL(
            (*(uint64_t *)ADC_FUSES_LINEARITY_0_ADDR >> ADC_FUSES_LINEARITY_0_Pos)
        );

    ADC->REFCTRL.reg = ADC_REFCTRL_REFSEL_INTVCC0;
     d9a:	2301      	movs	r3, #1
     d9c:	704b      	strb	r3, [r1, #1]

    ADC->CTRLA.reg = ADC_CTRLA_ENABLE; // enable
     d9e:	18db      	adds	r3, r3, r3
     da0:	700b      	strb	r3, [r1, #0]
    while(ADC->STATUS.reg & ADC_STATUS_SYNCBUSY);
     da2:	7e4b      	ldrb	r3, [r1, #25]
     da4:	b25b      	sxtb	r3, r3
     da6:	2b00      	cmp	r3, #0
     da8:	dbfb      	blt.n	da2 <adcInit+0x3e>
}
     daa:	bd10      	pop	{r4, pc}
     dac:	40000400 	.word	0x40000400
     db0:	0000401e 	.word	0x0000401e
     db4:	42004000 	.word	0x42004000
     db8:	40000c00 	.word	0x40000c00
     dbc:	00806024 	.word	0x00806024
     dc0:	00806020 	.word	0x00806020

00000dc4 <adcSample>:



u16_t adcSample() {
    ADC->SWTRIG.reg = ADC_SWTRIG_START;
     dc4:	2202      	movs	r2, #2
     dc6:	4b05      	ldr	r3, [pc, #20]	; (ddc <adcSample+0x18>)
     dc8:	731a      	strb	r2, [r3, #12]
    while(!(ADC->INTFLAG.reg & ADC_INTFLAG_RESRDY)); // wait until result is ready
     dca:	3a01      	subs	r2, #1
     dcc:	7e19      	ldrb	r1, [r3, #24]
     dce:	4211      	tst	r1, r2
     dd0:	d0fc      	beq.n	dcc <adcSample+0x8>
    return ADC->RESULT.reg;
     dd2:	4b02      	ldr	r3, [pc, #8]	; (ddc <adcSample+0x18>)
     dd4:	8b58      	ldrh	r0, [r3, #26]
     dd6:	b280      	uxth	r0, r0
}
     dd8:	4770      	bx	lr
     dda:	46c0      	nop			; (mov r8, r8)
     ddc:	42004000 	.word	0x42004000

00000de0 <adc_read>:


u16_t adc_read(Pin p) {
     de0:	b537      	push	{r0, r1, r2, r4, r5, lr}
    u16_t buad;

} _sercomPort;

inline static void pinAnalog(Pin p) {
    if (p.pin & 1) {
     de2:	2501      	movs	r5, #1
     de4:	0c02      	lsrs	r2, r0, #16
     de6:	b2d4      	uxtb	r4, r2
     de8:	9000      	str	r0, [sp, #0]
     dea:	0e00      	lsrs	r0, r0, #24
     dec:	9101      	str	r1, [sp, #4]
     dee:	0842      	lsrs	r2, r0, #1
     df0:	01e3      	lsls	r3, r4, #7
        PORT->Group[p.group].PMUX[p.pin/2].bit.PMUXO = 0x1;
     df2:	4911      	ldr	r1, [pc, #68]	; (e38 <adc_read+0x58>)
     df4:	18d2      	adds	r2, r2, r3
     df6:	1852      	adds	r2, r2, r1
    u16_t buad;

} _sercomPort;

inline static void pinAnalog(Pin p) {
    if (p.pin & 1) {
     df8:	4228      	tst	r0, r5
     dfa:	d005      	beq.n	e08 <adc_read+0x28>
        PORT->Group[p.group].PMUX[p.pin/2].bit.PMUXO = 0x1;
     dfc:	210f      	movs	r1, #15
     dfe:	7814      	ldrb	r4, [r2, #0]
     e00:	4021      	ands	r1, r4
     e02:	2410      	movs	r4, #16
     e04:	4321      	orrs	r1, r4
     e06:	e003      	b.n	e10 <adc_read+0x30>
    } else {
        PORT->Group[p.group].PMUX[p.pin/2].bit.PMUXE = 0x1;
     e08:	240f      	movs	r4, #15
     e0a:	7811      	ldrb	r1, [r2, #0]
     e0c:	43a1      	bics	r1, r4
     e0e:	4329      	orrs	r1, r5
     e10:	7011      	strb	r1, [r2, #0]
    }

    PORT->Group[p.group].PINCFG[p.pin].bit.PMUXEN = 1;
     e12:	2101      	movs	r1, #1
     e14:	4a09      	ldr	r2, [pc, #36]	; (e3c <adc_read+0x5c>)
     e16:	18c3      	adds	r3, r0, r3
     e18:	189b      	adds	r3, r3, r2
     e1a:	781a      	ldrb	r2, [r3, #0]
     e1c:	430a      	orrs	r2, r1
     e1e:	701a      	strb	r2, [r3, #0]
    // switch pin mux to analog in
    pinAnalog(p);

    ADC->INPUTCTRL.reg = (ADC_INPUTCTRL_MUXPOS(p.chan) // select from proper pin
                          | ADC_INPUTCTRL_MUXNEG_GND // 0 = gnd
                          | ADC_INPUTCTRL_GAIN_1X);
     e20:	466b      	mov	r3, sp
     e22:	791a      	ldrb	r2, [r3, #4]
     e24:	231f      	movs	r3, #31
     e26:	4013      	ands	r3, r2
     e28:	22c0      	movs	r2, #192	; 0xc0
     e2a:	0152      	lsls	r2, r2, #5
     e2c:	4313      	orrs	r3, r2

u16_t adc_read(Pin p) {
    // switch pin mux to analog in
    pinAnalog(p);

    ADC->INPUTCTRL.reg = (ADC_INPUTCTRL_MUXPOS(p.chan) // select from proper pin
     e2e:	4a04      	ldr	r2, [pc, #16]	; (e40 <adc_read+0x60>)
     e30:	6113      	str	r3, [r2, #16]
                          | ADC_INPUTCTRL_MUXNEG_GND // 0 = gnd
                          | ADC_INPUTCTRL_GAIN_1X);

    return adcSample();
     e32:	4b04      	ldr	r3, [pc, #16]	; (e44 <adc_read+0x64>)
     e34:	4798      	blx	r3
     e36:	bd3e      	pop	{r1, r2, r3, r4, r5, pc}
     e38:	41004430 	.word	0x41004430
     e3c:	41004440 	.word	0x41004440
     e40:	42004000 	.word	0x42004000
     e44:	00000dc5 	.word	0x00000dc5

00000e48 <beep>:
#include <util.h>
#include <boardDefines.h>
#include <math.h>


void beep(u16_t duration) {
     e48:	b5f8      	push	{r3, r4, r5, r6, r7, lr}


    long count = 0;

    long beepStop = duration*1000 / 122;
     e4a:	23fa      	movs	r3, #250	; 0xfa
     e4c:	009b      	lsls	r3, r3, #2
     e4e:	4358      	muls	r0, r3
     e50:	217a      	movs	r1, #122	; 0x7a
     e52:	4b0c      	ldr	r3, [pc, #48]	; (e84 <beep+0x3c>)
     e54:	4798      	blx	r3
    PORT->Group[p.group].OUTCLR.reg = (1<<p.pin);
}


inline static void pinToggle(Pin p) {
    PORT->Group[p.group].OUTTGL.reg = (1<<p.pin);
     e56:	2380      	movs	r3, #128	; 0x80
     e58:	2780      	movs	r7, #128	; 0x80
     e5a:	0006      	movs	r6, r0


void beep(u16_t duration) {


    long count = 0;
     e5c:	2500      	movs	r5, #0
     e5e:	4c0a      	ldr	r4, [pc, #40]	; (e88 <beep+0x40>)
     e60:	035b      	lsls	r3, r3, #13
     e62:	61e3      	str	r3, [r4, #28]
     e64:	03bf      	lsls	r7, r7, #14

    long beepStop = duration*1000 / 122;

    pinToggle(LedPin);

    while(count < beepStop) {
     e66:	42b5      	cmp	r5, r6
     e68:	d005      	beq.n	e76 <beep+0x2e>
     e6a:	61e7      	str	r7, [r4, #28]
        pinToggle(buzzerPin);
        delay_us(120);
     e6c:	2078      	movs	r0, #120	; 0x78
     e6e:	4b07      	ldr	r3, [pc, #28]	; (e8c <beep+0x44>)
     e70:	4798      	blx	r3
        count++;
     e72:	3501      	adds	r5, #1
     e74:	e7f7      	b.n	e66 <beep+0x1e>
    PORT->Group[p.group].OUTSET.reg = (1<<p.pin);
}


inline static void pinLow(Pin p) {
    PORT->Group[p.group].OUTCLR.reg = (1<<p.pin);
     e76:	2380      	movs	r3, #128	; 0x80
     e78:	039b      	lsls	r3, r3, #14
     e7a:	6163      	str	r3, [r4, #20]
}


inline static void pinToggle(Pin p) {
    PORT->Group[p.group].OUTTGL.reg = (1<<p.pin);
     e7c:	2380      	movs	r3, #128	; 0x80
     e7e:	035b      	lsls	r3, r3, #13
     e80:	61e3      	str	r3, [r4, #28]
    }
    pinLow(buzzerPin);
    pinToggle(LedPin);
}
     e82:	bdf8      	pop	{r3, r4, r5, r6, r7, pc}
     e84:	00004e9d 	.word	0x00004e9d
     e88:	41004400 	.word	0x41004400
     e8c:	00001119 	.word	0x00001119

00000e90 <beepDigit>:

void beepDigit(u8_t digit) {
     e90:	b570      	push	{r4, r5, r6, lr}
     e92:	1e04      	subs	r4, r0, #0
     e94:	4d08      	ldr	r5, [pc, #32]	; (eb8 <beepDigit+0x28>)
    if (digit == 0) {
     e96:	d103      	bne.n	ea0 <beepDigit+0x10>
        beep(600);
     e98:	2096      	movs	r0, #150	; 0x96
     e9a:	0080      	lsls	r0, r0, #2
     e9c:	47a8      	blx	r5
     e9e:	e009      	b.n	eb4 <beepDigit+0x24>
    } else {
        while (digit > 0) {
            beep(200);
     ea0:	20c8      	movs	r0, #200	; 0xc8
     ea2:	47a8      	blx	r5
            delay_ms(300);
     ea4:	2096      	movs	r0, #150	; 0x96
            --digit;
     ea6:	3c01      	subs	r4, #1
    if (digit == 0) {
        beep(600);
    } else {
        while (digit > 0) {
            beep(200);
            delay_ms(300);
     ea8:	0040      	lsls	r0, r0, #1
     eaa:	4b04      	ldr	r3, [pc, #16]	; (ebc <beepDigit+0x2c>)
            --digit;
     eac:	b2e4      	uxtb	r4, r4
    if (digit == 0) {
        beep(600);
    } else {
        while (digit > 0) {
            beep(200);
            delay_ms(300);
     eae:	4798      	blx	r3

void beepDigit(u8_t digit) {
    if (digit == 0) {
        beep(600);
    } else {
        while (digit > 0) {
     eb0:	2c00      	cmp	r4, #0
     eb2:	d1f5      	bne.n	ea0 <beepDigit+0x10>
            beep(200);
            delay_ms(300);
            --digit;
        }
    }
}
     eb4:	bd70      	pop	{r4, r5, r6, pc}
     eb6:	46c0      	nop			; (mov r8, r8)
     eb8:	00000e49 	.word	0x00000e49
     ebc:	0000114d 	.word	0x0000114d

00000ec0 <startupJingle>:
    }
    beepDigit(number);

}

void startupJingle() {
     ec0:	b570      	push	{r4, r5, r6, lr}
    beep(150);
     ec2:	2096      	movs	r0, #150	; 0x96
     ec4:	4d09      	ldr	r5, [pc, #36]	; (eec <startupJingle+0x2c>)
     ec6:	47a8      	blx	r5
    delay_ms(60);
     ec8:	4c09      	ldr	r4, [pc, #36]	; (ef0 <startupJingle+0x30>)
     eca:	203c      	movs	r0, #60	; 0x3c
     ecc:	47a0      	blx	r4
    beep(150);
     ece:	2096      	movs	r0, #150	; 0x96
     ed0:	47a8      	blx	r5
    delay_ms(250);
     ed2:	20fa      	movs	r0, #250	; 0xfa
     ed4:	47a0      	blx	r4
    beep(150);
     ed6:	2096      	movs	r0, #150	; 0x96
     ed8:	47a8      	blx	r5
    delay_ms(60);
     eda:	203c      	movs	r0, #60	; 0x3c
     edc:	47a0      	blx	r4
    beep(150);
     ede:	2096      	movs	r0, #150	; 0x96
     ee0:	47a8      	blx	r5
    delay_ms(500);
     ee2:	20fa      	movs	r0, #250	; 0xfa
     ee4:	0040      	lsls	r0, r0, #1
     ee6:	47a0      	blx	r4
}
     ee8:	bd70      	pop	{r4, r5, r6, pc}
     eea:	46c0      	nop			; (mov r8, r8)
     eec:	00000e49 	.word	0x00000e49
     ef0:	0000114d 	.word	0x0000114d

00000ef4 <unpluggedJingle>:

void unpluggedJingle() {
     ef4:	b570      	push	{r4, r5, r6, lr}
    delay_ms(60);
     ef6:	203c      	movs	r0, #60	; 0x3c
     ef8:	4c0b      	ldr	r4, [pc, #44]	; (f28 <unpluggedJingle+0x34>)
     efa:	47a0      	blx	r4
    beep(150);
     efc:	4d0b      	ldr	r5, [pc, #44]	; (f2c <unpluggedJingle+0x38>)
     efe:	2096      	movs	r0, #150	; 0x96
     f00:	47a8      	blx	r5
    delay_ms(60);
     f02:	203c      	movs	r0, #60	; 0x3c
     f04:	47a0      	blx	r4
    beep(150);
     f06:	2096      	movs	r0, #150	; 0x96
     f08:	47a8      	blx	r5
    delay_ms(60);
     f0a:	203c      	movs	r0, #60	; 0x3c
     f0c:	47a0      	blx	r4
    beep(150);
     f0e:	2096      	movs	r0, #150	; 0x96
     f10:	47a8      	blx	r5
    delay_ms(60);
     f12:	203c      	movs	r0, #60	; 0x3c
     f14:	47a0      	blx	r4
    PORT->Group[p.group].OUTSET.reg = (1<<p.pin);
}


inline static void pinLow(Pin p) {
    PORT->Group[p.group].OUTCLR.reg = (1<<p.pin);
     f16:	2280      	movs	r2, #128	; 0x80
     f18:	4b05      	ldr	r3, [pc, #20]	; (f30 <unpluggedJingle+0x3c>)
     f1a:	0392      	lsls	r2, r2, #14
     f1c:	615a      	str	r2, [r3, #20]
     f1e:	2280      	movs	r2, #128	; 0x80
     f20:	0352      	lsls	r2, r2, #13
     f22:	615a      	str	r2, [r3, #20]
    pinLow(buzzerPin);
    pinLow(LedPin);

}
     f24:	bd70      	pop	{r4, r5, r6, pc}
     f26:	46c0      	nop			; (mov r8, r8)
     f28:	0000114d 	.word	0x0000114d
     f2c:	00000e49 	.word	0x00000e49
     f30:	41004400 	.word	0x41004400

00000f34 <dfll_nvm_val>:
#define NVM_DFLL_COARSE_SIZE   6
#define NVM_DFLL_FINE_POS      64
#define NVM_DFLL_FINE_SIZE     10

uint32_t dfll_nvm_val() {
    uint32_t coarse = ( *((uint32_t *)(NVMCTRL_OTP4)
     f34:	4b08      	ldr	r3, [pc, #32]	; (f58 <dfll_nvm_val+0x24>)
     f36:	6818      	ldr	r0, [r3, #0]
     f38:	0e80      	lsrs	r0, r0, #26
                          + (NVM_DFLL_COARSE_POS / 32))
                        >> (NVM_DFLL_COARSE_POS % 32))
                      & ((1 << NVM_DFLL_COARSE_SIZE) - 1);
    if (coarse == 0x3f) {
     f3a:	283f      	cmp	r0, #63	; 0x3f
     f3c:	d100      	bne.n	f40 <dfll_nvm_val+0xc>
        coarse = 0x1f;
     f3e:	3820      	subs	r0, #32
    }
    uint32_t fine = ( *((uint32_t *)(NVMCTRL_OTP4)
                        + (NVM_DFLL_FINE_POS / 32))
                      >> (NVM_DFLL_FINE_POS % 32))
     f40:	4b06      	ldr	r3, [pc, #24]	; (f5c <dfll_nvm_val+0x28>)
                    & ((1 << NVM_DFLL_FINE_SIZE) - 1);
    if (fine == 0x3ff) {
     f42:	4a07      	ldr	r2, [pc, #28]	; (f60 <dfll_nvm_val+0x2c>)
                        >> (NVM_DFLL_COARSE_POS % 32))
                      & ((1 << NVM_DFLL_COARSE_SIZE) - 1);
    if (coarse == 0x3f) {
        coarse = 0x1f;
    }
    uint32_t fine = ( *((uint32_t *)(NVMCTRL_OTP4)
     f44:	681b      	ldr	r3, [r3, #0]
     f46:	059b      	lsls	r3, r3, #22
     f48:	0d9b      	lsrs	r3, r3, #22
                        + (NVM_DFLL_FINE_POS / 32))
                      >> (NVM_DFLL_FINE_POS % 32))
                    & ((1 << NVM_DFLL_FINE_SIZE) - 1);
    if (fine == 0x3ff) {
     f4a:	4293      	cmp	r3, r2
     f4c:	d100      	bne.n	f50 <dfll_nvm_val+0x1c>
        fine = 0x1ff;
     f4e:	4b05      	ldr	r3, [pc, #20]	; (f64 <dfll_nvm_val+0x30>)
    }

    return SYSCTRL_DFLLVAL_COARSE(coarse) | SYSCTRL_DFLLVAL_FINE(fine);
     f50:	0280      	lsls	r0, r0, #10
     f52:	4318      	orrs	r0, r3
}
     f54:	4770      	bx	lr
     f56:	46c0      	nop			; (mov r8, r8)
     f58:	00806024 	.word	0x00806024
     f5c:	00806028 	.word	0x00806028
     f60:	000003ff 	.word	0x000003ff
     f64:	000001ff 	.word	0x000001ff

00000f68 <dfll_wait_for_sync>:

void dfll_wait_for_sync() {
    while (!SYSCTRL->PCLKSR.bit.DFLLRDY);
     f68:	4a02      	ldr	r2, [pc, #8]	; (f74 <dfll_wait_for_sync+0xc>)
     f6a:	68d3      	ldr	r3, [r2, #12]
     f6c:	06db      	lsls	r3, r3, #27
     f6e:	d5fc      	bpl.n	f6a <dfll_wait_for_sync+0x2>
}
     f70:	4770      	bx	lr
     f72:	46c0      	nop			; (mov r8, r8)
     f74:	40000800 	.word	0x40000800

00000f78 <RtcInit>:
        //wait for crystal to warm up
        while((SYSCTRL->PCLKSR.reg & (SYSCTRL_PCLKSR_OSC32KRDY)) == 0);

    */

    SYSCTRL->OSC32K.reg = SYSCTRL_OSC32K_ENABLE |
     f78:	4b27      	ldr	r3, [pc, #156]	; (1018 <RtcInit+0xa0>)
     f7a:	4a28      	ldr	r2, [pc, #160]	; (101c <RtcInit+0xa4>)
                          SYSCTRL_OSC32K_EN32K |
                          ( 6 << SYSCTRL_OSC32K_STARTUP_Pos);


    SYSCTRL->OSC32K.bit.CALIB =
     f7c:	4828      	ldr	r0, [pc, #160]	; (1020 <RtcInit+0xa8>)
        //wait for crystal to warm up
        while((SYSCTRL->PCLKSR.reg & (SYSCTRL_PCLKSR_OSC32KRDY)) == 0);

    */

    SYSCTRL->OSC32K.reg = SYSCTRL_OSC32K_ENABLE |
     f7e:	619a      	str	r2, [r3, #24]
                          SYSCTRL_OSC32K_EN32K |
                          ( 6 << SYSCTRL_OSC32K_STARTUP_Pos);


    SYSCTRL->OSC32K.bit.CALIB =
        ((*(uint32_t *)FUSES_OSC32K_CAL_ADDR >>
     f80:	4a28      	ldr	r2, [pc, #160]	; (1024 <RtcInit+0xac>)
    SYSCTRL->OSC32K.reg = SYSCTRL_OSC32K_ENABLE |
                          SYSCTRL_OSC32K_EN32K |
                          ( 6 << SYSCTRL_OSC32K_STARTUP_Pos);


    SYSCTRL->OSC32K.bit.CALIB =
     f82:	6999      	ldr	r1, [r3, #24]
     f84:	6812      	ldr	r2, [r2, #0]
     f86:	4001      	ands	r1, r0
     f88:	04d2      	lsls	r2, r2, #19
     f8a:	0e52      	lsrs	r2, r2, #25
     f8c:	0412      	lsls	r2, r2, #16
     f8e:	4311      	orrs	r1, r2
     f90:	6199      	str	r1, [r3, #24]
        ((*(uint32_t *)FUSES_OSC32K_CAL_ADDR >>
          FUSES_OSC32K_CAL_Pos) & 0x7Ful);

    SYSCTRL->OSC32K.reg = SYSCTRL_OSC32K_STARTUP( 0x6u ) | // cf table 15.10 of product datasheet in chapter 15.8.6
     f92:	4925      	ldr	r1, [pc, #148]	; (1028 <RtcInit+0xb0>)
     f94:	6199      	str	r1, [r3, #24]
                          SYSCTRL_OSC32K_EN32K;
    SYSCTRL->OSC32K.bit.CALIB =
     f96:	6999      	ldr	r1, [r3, #24]
     f98:	4008      	ands	r0, r1
        ((*(uint32_t *)FUSES_OSC32K_CAL_ADDR >>
          FUSES_OSC32K_CAL_Pos) & 0x7Ful);



    SYSCTRL->OSC32K.bit.ENABLE = 1; // separate call, as described in chapter 15.6.3
     f9a:	2102      	movs	r1, #2
        ((*(uint32_t *)FUSES_OSC32K_CAL_ADDR >>
          FUSES_OSC32K_CAL_Pos) & 0x7Ful);

    SYSCTRL->OSC32K.reg = SYSCTRL_OSC32K_STARTUP( 0x6u ) | // cf table 15.10 of product datasheet in chapter 15.8.6
                          SYSCTRL_OSC32K_EN32K;
    SYSCTRL->OSC32K.bit.CALIB =
     f9c:	4302      	orrs	r2, r0
     f9e:	619a      	str	r2, [r3, #24]
        ((*(uint32_t *)FUSES_OSC32K_CAL_ADDR >>
          FUSES_OSC32K_CAL_Pos) & 0x7Ful);



    SYSCTRL->OSC32K.bit.ENABLE = 1; // separate call, as described in chapter 15.6.3
     fa0:	699a      	ldr	r2, [r3, #24]
     fa2:	430a      	orrs	r2, r1
     fa4:	619a      	str	r2, [r3, #24]

    while (  (SYSCTRL->PCLKSR.reg & SYSCTRL_PCLKSR_OSC32KRDY) == 0 ) {
     fa6:	2204      	movs	r2, #4
     fa8:	68d9      	ldr	r1, [r3, #12]
     faa:	4211      	tst	r1, r2
     fac:	d0fc      	beq.n	fa8 <RtcInit+0x30>





    GCLK->GENDIV.reg = GCLK_GENDIV_ID(2) | GCLK_GENDIV_DIV(1);
     fae:	2281      	movs	r2, #129	; 0x81
     fb0:	4b1e      	ldr	r3, [pc, #120]	; (102c <RtcInit+0xb4>)
     fb2:	0052      	lsls	r2, r2, #1
     fb4:	609a      	str	r2, [r3, #8]

    GCLK->GENCTRL.reg = GCLK_GENCTRL_ID(2) |
     fb6:	4a1e      	ldr	r2, [pc, #120]	; (1030 <RtcInit+0xb8>)
     fb8:	605a      	str	r2, [r3, #4]
                        GCLK_GENCTRL_SRC(GCLK_GENCTRL_SRC_OSC32K) |
                        GCLK_GENCTRL_IDC |
                        GCLK_GENCTRL_RUNSTDBY |
                        GCLK_GENCTRL_GENEN;
    while (GCLK->STATUS.reg & GCLK_STATUS_SYNCBUSY);
     fba:	785a      	ldrb	r2, [r3, #1]
     fbc:	b252      	sxtb	r2, r2
     fbe:	2a00      	cmp	r2, #0
     fc0:	dbfb      	blt.n	fba <RtcInit+0x42>

// Configure RTC
    GCLK->CLKCTRL.reg = GCLK_CLKCTRL_ID(RTC_GCLK_ID) |
     fc2:	4a1c      	ldr	r2, [pc, #112]	; (1034 <RtcInit+0xbc>)
     fc4:	4b19      	ldr	r3, [pc, #100]	; (102c <RtcInit+0xb4>)
     fc6:	805a      	strh	r2, [r3, #2]
                        GCLK_CLKCTRL_CLKEN |
                        GCLK_CLKCTRL_GEN(2);

    RTC->MODE1.CTRL.reg = RTC_MODE1_CTRL_MODE_COUNT16;
     fc8:	2204      	movs	r2, #4
     fca:	4b1b      	ldr	r3, [pc, #108]	; (1038 <RtcInit+0xc0>)
     fcc:	801a      	strh	r2, [r3, #0]
    while (RTC->MODE1.STATUS.bit.SYNCBUSY);
     fce:	7a9a      	ldrb	r2, [r3, #10]
     fd0:	4919      	ldr	r1, [pc, #100]	; (1038 <RtcInit+0xc0>)
     fd2:	09d2      	lsrs	r2, r2, #7
     fd4:	d1fb      	bne.n	fce <RtcInit+0x56>

// Prescaler needs to be enabled separately from the mode for some reason
    RTC->MODE1.CTRL.reg |= RTC_MODE1_CTRL_PRESCALER_DIV32;
     fd6:	20a0      	movs	r0, #160	; 0xa0
     fd8:	880a      	ldrh	r2, [r1, #0]
     fda:	00c0      	lsls	r0, r0, #3
     fdc:	4302      	orrs	r2, r0
     fde:	800a      	strh	r2, [r1, #0]
    while (RTC->MODE1.STATUS.bit.SYNCBUSY);
     fe0:	7a9a      	ldrb	r2, [r3, #10]
     fe2:	09d2      	lsrs	r2, r2, #7
     fe4:	d1fc      	bne.n	fe0 <RtcInit+0x68>

    RTC->MODE1.PER.reg = 998;
     fe6:	4915      	ldr	r1, [pc, #84]	; (103c <RtcInit+0xc4>)
     fe8:	4a13      	ldr	r2, [pc, #76]	; (1038 <RtcInit+0xc0>)
     fea:	8291      	strh	r1, [r2, #20]
    while (RTC->MODE1.STATUS.bit.SYNCBUSY);
     fec:	7a99      	ldrb	r1, [r3, #10]
     fee:	4a12      	ldr	r2, [pc, #72]	; (1038 <RtcInit+0xc0>)
     ff0:	09c9      	lsrs	r1, r1, #7
     ff2:	d1fb      	bne.n	fec <RtcInit+0x74>

    RTC->MODE1.READREQ.reg |= RTC_READREQ_RCONT | RTC_READREQ_ADDR(0x10);
     ff4:	8851      	ldrh	r1, [r2, #2]
     ff6:	4812      	ldr	r0, [pc, #72]	; (1040 <RtcInit+0xc8>)
     ff8:	4301      	orrs	r1, r0
     ffa:	8051      	strh	r1, [r2, #2]

    RTC->MODE1.INTENSET.reg = RTC_MODE1_INTENSET_OVF;
     ffc:	2180      	movs	r1, #128	; 0x80

    RTC->MODE1.CTRL.bit.ENABLE = 1;
     ffe:	2002      	movs	r0, #2
    RTC->MODE1.PER.reg = 998;
    while (RTC->MODE1.STATUS.bit.SYNCBUSY);

    RTC->MODE1.READREQ.reg |= RTC_READREQ_RCONT | RTC_READREQ_ADDR(0x10);

    RTC->MODE1.INTENSET.reg = RTC_MODE1_INTENSET_OVF;
    1000:	71d1      	strb	r1, [r2, #7]

    RTC->MODE1.CTRL.bit.ENABLE = 1;
    1002:	8811      	ldrh	r1, [r2, #0]
    1004:	4301      	orrs	r1, r0
    1006:	8011      	strh	r1, [r2, #0]
    while (RTC->MODE1.STATUS.bit.SYNCBUSY);
    1008:	7a9a      	ldrb	r2, [r3, #10]
    100a:	09d2      	lsrs	r2, r2, #7
    100c:	d1fc      	bne.n	1008 <RtcInit+0x90>

    \param [in]      IRQn  External interrupt number. Value cannot be negative.
 */
__STATIC_INLINE void NVIC_EnableIRQ(IRQn_Type IRQn)
{
  NVIC->ISER[0] = (1 << ((uint32_t)(IRQn) & 0x1F));
    100e:	4b0d      	ldr	r3, [pc, #52]	; (1044 <RtcInit+0xcc>)
    1010:	3208      	adds	r2, #8
    1012:	601a      	str	r2, [r3, #0]

    NVIC_EnableIRQ(RTC_IRQn);
}
    1014:	4770      	bx	lr
    1016:	46c0      	nop			; (mov r8, r8)
    1018:	40000800 	.word	0x40000800
    101c:	00000606 	.word	0x00000606
    1020:	ff80ffff 	.word	0xff80ffff
    1024:	00806024 	.word	0x00806024
    1028:	00000604 	.word	0x00000604
    102c:	40000c00 	.word	0x40000c00
    1030:	00230002 	.word	0x00230002
    1034:	00004204 	.word	0x00004204
    1038:	40001400 	.word	0x40001400
    103c:	000003e6 	.word	0x000003e6
    1040:	00004010 	.word	0x00004010
    1044:	e000e100 	.word	0xe000e100

00001048 <gclkEnable>:


void gclkEnable(u32_t id, u32_t src, u32_t div) {
    GCLK->GENDIV.reg = GCLK_GENDIV_ID(id) | GCLK_GENDIV_DIV(div);
    1048:	230f      	movs	r3, #15
    104a:	4018      	ands	r0, r3
    104c:	4b08      	ldr	r3, [pc, #32]	; (1070 <gclkEnable+0x28>)
    104e:	0212      	lsls	r2, r2, #8
    1050:	401a      	ands	r2, r3
    GCLK->GENCTRL.reg = GCLK_GENCTRL_ID(id) | GCLK_GENCTRL_GENEN | GCLK_GENCTRL_SRC(src);
    1052:	23f8      	movs	r3, #248	; 0xf8
    1054:	0209      	lsls	r1, r1, #8
    1056:	015b      	lsls	r3, r3, #5
    1058:	4019      	ands	r1, r3
    105a:	2380      	movs	r3, #128	; 0x80

    NVIC_EnableIRQ(RTC_IRQn);
}


void gclkEnable(u32_t id, u32_t src, u32_t div) {
    105c:	b510      	push	{r4, lr}
    GCLK->GENDIV.reg = GCLK_GENDIV_ID(id) | GCLK_GENDIV_DIV(div);
    GCLK->GENCTRL.reg = GCLK_GENCTRL_ID(id) | GCLK_GENCTRL_GENEN | GCLK_GENCTRL_SRC(src);
    105e:	025b      	lsls	r3, r3, #9
    NVIC_EnableIRQ(RTC_IRQn);
}


void gclkEnable(u32_t id, u32_t src, u32_t div) {
    GCLK->GENDIV.reg = GCLK_GENDIV_ID(id) | GCLK_GENDIV_DIV(div);
    1060:	4c04      	ldr	r4, [pc, #16]	; (1074 <gclkEnable+0x2c>)
    GCLK->GENCTRL.reg = GCLK_GENCTRL_ID(id) | GCLK_GENCTRL_GENEN | GCLK_GENCTRL_SRC(src);
    1062:	4319      	orrs	r1, r3
    NVIC_EnableIRQ(RTC_IRQn);
}


void gclkEnable(u32_t id, u32_t src, u32_t div) {
    GCLK->GENDIV.reg = GCLK_GENDIV_ID(id) | GCLK_GENDIV_DIV(div);
    1064:	4302      	orrs	r2, r0
    GCLK->GENCTRL.reg = GCLK_GENCTRL_ID(id) | GCLK_GENCTRL_GENEN | GCLK_GENCTRL_SRC(src);
    1066:	4308      	orrs	r0, r1
    NVIC_EnableIRQ(RTC_IRQn);
}


void gclkEnable(u32_t id, u32_t src, u32_t div) {
    GCLK->GENDIV.reg = GCLK_GENDIV_ID(id) | GCLK_GENDIV_DIV(div);
    1068:	60a2      	str	r2, [r4, #8]
    GCLK->GENCTRL.reg = GCLK_GENCTRL_ID(id) | GCLK_GENCTRL_GENEN | GCLK_GENCTRL_SRC(src);
    106a:	6060      	str	r0, [r4, #4]
}
    106c:	bd10      	pop	{r4, pc}
    106e:	46c0      	nop			; (mov r8, r8)
    1070:	00ffff00 	.word	0x00ffff00
    1074:	40000c00 	.word	0x40000c00

00001078 <GclkInit>:
}

void GclkInit(u8_t clk_system) {


    SYSCTRL->INTFLAG.reg = SYSCTRL_INTFLAG_BOD33RDY | SYSCTRL_INTFLAG_BOD33DET |
    1078:	23c2      	movs	r3, #194	; 0xc2
                           SYSCTRL_INTFLAG_DFLLRDY;
    NVMCTRL->CTRLB.bit.RWS = 2;
    107a:	211e      	movs	r1, #30
void gclk_enable(uint32_t id, uint32_t src, uint32_t div) {
    GCLK->GENDIV.reg = GCLK_GENDIV_ID(id) | GCLK_GENDIV_DIV(div);
    GCLK->GENCTRL.reg = GCLK_GENCTRL_ID(id) | GCLK_GENCTRL_GENEN | GCLK_GENCTRL_SRC(src);
}

void GclkInit(u8_t clk_system) {
    107c:	b570      	push	{r4, r5, r6, lr}


    SYSCTRL->INTFLAG.reg = SYSCTRL_INTFLAG_BOD33RDY | SYSCTRL_INTFLAG_BOD33DET |
    107e:	4c12      	ldr	r4, [pc, #72]	; (10c8 <GclkInit+0x50>)
                           SYSCTRL_INTFLAG_DFLLRDY;
    NVMCTRL->CTRLB.bit.RWS = 2;
    1080:	4a12      	ldr	r2, [pc, #72]	; (10cc <GclkInit+0x54>)
}

void GclkInit(u8_t clk_system) {


    SYSCTRL->INTFLAG.reg = SYSCTRL_INTFLAG_BOD33RDY | SYSCTRL_INTFLAG_BOD33DET |
    1082:	00db      	lsls	r3, r3, #3
    1084:	60a3      	str	r3, [r4, #8]
                           SYSCTRL_INTFLAG_DFLLRDY;
    NVMCTRL->CTRLB.bit.RWS = 2;
    1086:	6853      	ldr	r3, [r2, #4]
void gclk_enable(uint32_t id, uint32_t src, uint32_t div) {
    GCLK->GENDIV.reg = GCLK_GENDIV_ID(id) | GCLK_GENDIV_DIV(div);
    GCLK->GENCTRL.reg = GCLK_GENCTRL_ID(id) | GCLK_GENCTRL_GENEN | GCLK_GENCTRL_SRC(src);
}

void GclkInit(u8_t clk_system) {
    1088:	0005      	movs	r5, r0


    SYSCTRL->INTFLAG.reg = SYSCTRL_INTFLAG_BOD33RDY | SYSCTRL_INTFLAG_BOD33DET |
                           SYSCTRL_INTFLAG_DFLLRDY;
    NVMCTRL->CTRLB.bit.RWS = 2;
    108a:	438b      	bics	r3, r1
    108c:	391a      	subs	r1, #26
    108e:	430b      	orrs	r3, r1
    1090:	6053      	str	r3, [r2, #4]

    // Initialize GCLK
    PM->APBAMASK.reg |= PM_APBAMASK_GCLK;
    1092:	4a0f      	ldr	r2, [pc, #60]	; (10d0 <GclkInit+0x58>)
    1094:	3104      	adds	r1, #4
    1096:	6993      	ldr	r3, [r2, #24]
    1098:	430b      	orrs	r3, r1
    109a:	6193      	str	r3, [r2, #24]
    GCLK->CTRL.reg = GCLK_CTRL_SWRST;
    109c:	2301      	movs	r3, #1
    109e:	4a0d      	ldr	r2, [pc, #52]	; (10d4 <GclkInit+0x5c>)
    10a0:	7013      	strb	r3, [r2, #0]
    while (GCLK->CTRL.reg & GCLK_CTRL_SWRST);
    10a2:	7811      	ldrb	r1, [r2, #0]
    10a4:	4219      	tst	r1, r3
    10a6:	d1fc      	bne.n	10a2 <GclkInit+0x2a>

    // Disable ONDEMAND mode while writing configurations (errata 9905)
    SYSCTRL->DFLLCTRL.reg = dfll_ctrl & ~SYSCTRL_DFLLCTRL_ONDEMAND;
    10a8:	4b0b      	ldr	r3, [pc, #44]	; (10d8 <GclkInit+0x60>)
    dfll_wait_for_sync();
    10aa:	4e0c      	ldr	r6, [pc, #48]	; (10dc <GclkInit+0x64>)
    PM->APBAMASK.reg |= PM_APBAMASK_GCLK;
    GCLK->CTRL.reg = GCLK_CTRL_SWRST;
    while (GCLK->CTRL.reg & GCLK_CTRL_SWRST);

    // Disable ONDEMAND mode while writing configurations (errata 9905)
    SYSCTRL->DFLLCTRL.reg = dfll_ctrl & ~SYSCTRL_DFLLCTRL_ONDEMAND;
    10ac:	84a3      	strh	r3, [r4, #36]	; 0x24
    dfll_wait_for_sync();
    10ae:	47b0      	blx	r6
    SYSCTRL->DFLLVAL.reg = dfll_nvm_val();
    10b0:	4b0b      	ldr	r3, [pc, #44]	; (10e0 <GclkInit+0x68>)
    10b2:	4798      	blx	r3
    10b4:	62a0      	str	r0, [r4, #40]	; 0x28
    dfll_wait_for_sync();
    10b6:	47b0      	blx	r6
    SYSCTRL->DFLLCTRL.reg = dfll_ctrl;
    10b8:	4b0a      	ldr	r3, [pc, #40]	; (10e4 <GclkInit+0x6c>)


    //For generic clock generator 0, select the DFLL48 Clock as input
    gclk_enable(clk_system, GCLK_SOURCE_DFLL48M, 1);
    10ba:	0028      	movs	r0, r5
    // Disable ONDEMAND mode while writing configurations (errata 9905)
    SYSCTRL->DFLLCTRL.reg = dfll_ctrl & ~SYSCTRL_DFLLCTRL_ONDEMAND;
    dfll_wait_for_sync();
    SYSCTRL->DFLLVAL.reg = dfll_nvm_val();
    dfll_wait_for_sync();
    SYSCTRL->DFLLCTRL.reg = dfll_ctrl;
    10bc:	84a3      	strh	r3, [r4, #36]	; 0x24


    //For generic clock generator 0, select the DFLL48 Clock as input
    gclk_enable(clk_system, GCLK_SOURCE_DFLL48M, 1);
    10be:	2201      	movs	r2, #1
    10c0:	2107      	movs	r1, #7
    10c2:	4b09      	ldr	r3, [pc, #36]	; (10e8 <GclkInit+0x70>)
    10c4:	4798      	blx	r3
}
    10c6:	bd70      	pop	{r4, r5, r6, pc}
    10c8:	40000800 	.word	0x40000800
    10cc:	41004000 	.word	0x41004000
    10d0:	40000400 	.word	0x40000400
    10d4:	40000c00 	.word	0x40000c00
    10d8:	00000502 	.word	0x00000502
    10dc:	00000f69 	.word	0x00000f69
    10e0:	00000f35 	.word	0x00000f35
    10e4:	00000582 	.word	0x00000582
    10e8:	00001049 	.word	0x00001049

000010ec <delayInit>:


void delayInit(void) {
    cycles_per_ms = 48000000UL;
    cycles_per_ms /= 1000;
    cycles_per_us = cycles_per_ms / 1000;
    10ec:	2230      	movs	r2, #48	; 0x30
}


void delayInit(void) {
    cycles_per_ms = 48000000UL;
    cycles_per_ms /= 1000;
    10ee:	4b06      	ldr	r3, [pc, #24]	; (1108 <delayInit+0x1c>)
    cycles_per_us = cycles_per_ms / 1000;
    10f0:	4906      	ldr	r1, [pc, #24]	; (110c <delayInit+0x20>)
    10f2:	c306      	stmia	r3!, {r1, r2}
    \param [in]  priority  Priority to set.
 */
__STATIC_INLINE void NVIC_SetPriority(IRQn_Type IRQn, uint32_t priority)
{
  if(IRQn < 0) {
    SCB->SHP[_SHP_IDX(IRQn)] = (SCB->SHP[_SHP_IDX(IRQn)] & ~(0xFF << _BIT_SHIFT(IRQn))) |
    10f4:	4a06      	ldr	r2, [pc, #24]	; (1110 <delayInit+0x24>)
    10f6:	6a13      	ldr	r3, [r2, #32]
    10f8:	021b      	lsls	r3, r3, #8
    10fa:	0a1b      	lsrs	r3, r3, #8
    10fc:	6213      	str	r3, [r2, #32]

    NVIC_SetPriority(SysTick_IRQn, 0x0);

    SysTick->CTRL = SysTick_CTRL_CLKSOURCE_Msk | SysTick_CTRL_ENABLE_Msk;
    10fe:	2205      	movs	r2, #5
    1100:	4b04      	ldr	r3, [pc, #16]	; (1114 <delayInit+0x28>)
    1102:	601a      	str	r2, [r3, #0]
}
    1104:	4770      	bx	lr
    1106:	46c0      	nop			; (mov r8, r8)
    1108:	20000004 	.word	0x20000004
    110c:	0000bb80 	.word	0x0000bb80
    1110:	e000ed00 	.word	0xe000ed00
    1114:	e000e010 	.word	0xe000e010

00001118 <delay_us>:
/**
 * \brief Delay loop to delay at least n number of microseconds
 *
 * \param n  Number of microseconds to wait
 */
void delay_us(uint32_t n) {
    1118:	b570      	push	{r4, r5, r6, lr}
    const uint32_t n) {
    if (n > 0) {
        SysTick->LOAD = n;
        SysTick->VAL = 0;

        while (!(SysTick->CTRL & SysTick_CTRL_COUNTFLAG_Msk)) {
    111a:	2480      	movs	r4, #128	; 0x80

static inline void delay_cycles(
    const uint32_t n) {
    if (n > 0) {
        SysTick->LOAD = n;
        SysTick->VAL = 0;
    111c:	2100      	movs	r1, #0
    while (n--) {
        /* Devide up to blocks of 10u */
        delay_cycles(cycles_per_us);
    111e:	4b08      	ldr	r3, [pc, #32]	; (1140 <delay_us+0x28>)


static inline void delay_cycles(
    const uint32_t n) {
    if (n > 0) {
        SysTick->LOAD = n;
    1120:	4a08      	ldr	r2, [pc, #32]	; (1144 <delay_us+0x2c>)
    1122:	685b      	ldr	r3, [r3, #4]
        SysTick->VAL = 0;

        while (!(SysTick->CTRL & SysTick_CTRL_COUNTFLAG_Msk)) {
    1124:	0264      	lsls	r4, r4, #9
 * \brief Delay loop to delay at least n number of microseconds
 *
 * \param n  Number of microseconds to wait
 */
void delay_us(uint32_t n) {
    while (n--) {
    1126:	3801      	subs	r0, #1
    1128:	d308      	bcc.n	113c <delay_us+0x24>



static inline void delay_cycles(
    const uint32_t n) {
    if (n > 0) {
    112a:	2b00      	cmp	r3, #0
    112c:	d0fb      	beq.n	1126 <delay_us+0xe>
    112e:	4e05      	ldr	r6, [pc, #20]	; (1144 <delay_us+0x2c>)
        SysTick->LOAD = n;
    1130:	6053      	str	r3, [r2, #4]
        SysTick->VAL = 0;
    1132:	6091      	str	r1, [r2, #8]

        while (!(SysTick->CTRL & SysTick_CTRL_COUNTFLAG_Msk)) {
    1134:	6835      	ldr	r5, [r6, #0]
    1136:	4225      	tst	r5, r4
    1138:	d0fc      	beq.n	1134 <delay_us+0x1c>
    113a:	e7f4      	b.n	1126 <delay_us+0xe>
        /* Devide up to blocks of 10u */
        delay_cycles(cycles_per_us);
    }
}
    113c:	bd70      	pop	{r4, r5, r6, pc}
    113e:	46c0      	nop			; (mov r8, r8)
    1140:	20000004 	.word	0x20000004
    1144:	e000e010 	.word	0xe000e010

00001148 <SysTick_Handler>:


void SysTick_Handler(void) {
    //g_msTicks++;
}
    1148:	4770      	bx	lr
	...

0000114c <delay_ms>:
/**
 * \brief Delay loop to delay at least n number of milliseconds
 *
 * \param n  Number of milliseconds to wait
 */
void delay_ms(uint32_t n) {
    114c:	b570      	push	{r4, r5, r6, lr}
    114e:	2480      	movs	r4, #128	; 0x80

static inline void delay_cycles(
    const uint32_t n) {
    if (n > 0) {
        SysTick->LOAD = n;
        SysTick->VAL = 0;
    1150:	2100      	movs	r1, #0
    while (n--) {
        /* Devide up to blocks of 1ms */
        delay_cycles(cycles_per_ms);
    1152:	4b08      	ldr	r3, [pc, #32]	; (1174 <delay_ms+0x28>)


static inline void delay_cycles(
    const uint32_t n) {
    if (n > 0) {
        SysTick->LOAD = n;
    1154:	4a08      	ldr	r2, [pc, #32]	; (1178 <delay_ms+0x2c>)
    1156:	681b      	ldr	r3, [r3, #0]
        SysTick->VAL = 0;

        while (!(SysTick->CTRL & SysTick_CTRL_COUNTFLAG_Msk)) {
    1158:	0264      	lsls	r4, r4, #9
 * \brief Delay loop to delay at least n number of milliseconds
 *
 * \param n  Number of milliseconds to wait
 */
void delay_ms(uint32_t n) {
    while (n--) {
    115a:	3801      	subs	r0, #1
    115c:	d308      	bcc.n	1170 <delay_ms+0x24>



static inline void delay_cycles(
    const uint32_t n) {
    if (n > 0) {
    115e:	2b00      	cmp	r3, #0
    1160:	d0fb      	beq.n	115a <delay_ms+0xe>
    1162:	4e05      	ldr	r6, [pc, #20]	; (1178 <delay_ms+0x2c>)
        SysTick->LOAD = n;
    1164:	6053      	str	r3, [r2, #4]
        SysTick->VAL = 0;
    1166:	6091      	str	r1, [r2, #8]

        while (!(SysTick->CTRL & SysTick_CTRL_COUNTFLAG_Msk)) {
    1168:	6835      	ldr	r5, [r6, #0]
    116a:	4225      	tst	r5, r4
    116c:	d0fc      	beq.n	1168 <delay_ms+0x1c>
    116e:	e7f4      	b.n	115a <delay_ms+0xe>
        /* Devide up to blocks of 1ms */
        delay_cycles(cycles_per_ms);
    }
}
    1170:	bd70      	pop	{r4, r5, r6, pc}
    1172:	46c0      	nop			; (mov r8, r8)
    1174:	20000004 	.word	0x20000004
    1178:	e000e010 	.word	0xe000e010

0000117c <RTC_Handler>:


volatile uint32_t time_ms = 0;

void RTC_Handler(void) {
    time_ms += 1000;
    117c:	21fa      	movs	r1, #250	; 0xfa
    117e:	4a04      	ldr	r2, [pc, #16]	; (1190 <RTC_Handler+0x14>)
    1180:	0089      	lsls	r1, r1, #2
    1182:	6813      	ldr	r3, [r2, #0]
    1184:	185b      	adds	r3, r3, r1
    1186:	6013      	str	r3, [r2, #0]
    RTC->MODE1.INTFLAG.reg = 0xFF;
    1188:	22ff      	movs	r2, #255	; 0xff
    118a:	4b02      	ldr	r3, [pc, #8]	; (1194 <RTC_Handler+0x18>)
    118c:	721a      	strb	r2, [r3, #8]
}
    118e:	4770      	bx	lr
    1190:	2000013c 	.word	0x2000013c
    1194:	40001400 	.word	0x40001400

00001198 <millis>:

uint32_t millis(void) {
    1198:	b530      	push	{r4, r5, lr}
    uint32_t ms;
    ATOMIC_SECTION_ENTER
    119a:	f3ef 8110 	mrs	r1, PRIMASK
    119e:	b672      	cpsid	i
    ms = time_ms + RTC->MODE1.COUNT.reg;
    11a0:	4a08      	ldr	r2, [pc, #32]	; (11c4 <millis+0x2c>)
    11a2:	4d09      	ldr	r5, [pc, #36]	; (11c8 <millis+0x30>)
    11a4:	8a10      	ldrh	r0, [r2, #16]
    11a6:	682b      	ldr	r3, [r5, #0]
    if (RTC->MODE1.INTFLAG.bit.OVF)
    11a8:	7a14      	ldrb	r4, [r2, #8]
}

uint32_t millis(void) {
    uint32_t ms;
    ATOMIC_SECTION_ENTER
    ms = time_ms + RTC->MODE1.COUNT.reg;
    11aa:	b280      	uxth	r0, r0
    if (RTC->MODE1.INTFLAG.bit.OVF)
    11ac:	09e4      	lsrs	r4, r4, #7
    11ae:	d004      	beq.n	11ba <millis+0x22>
        ms = time_ms + RTC->MODE1.COUNT.reg + 1000;
    11b0:	8a13      	ldrh	r3, [r2, #16]
    11b2:	22fa      	movs	r2, #250	; 0xfa
    11b4:	6828      	ldr	r0, [r5, #0]
    11b6:	0092      	lsls	r2, r2, #2
    11b8:	1880      	adds	r0, r0, r2
    11ba:	18c0      	adds	r0, r0, r3
    ATOMIC_SECTION_LEAVE
    11bc:	f381 8810 	msr	PRIMASK, r1
    return ms;
}
    11c0:	bd30      	pop	{r4, r5, pc}
    11c2:	46c0      	nop			; (mov r8, r8)
    11c4:	40001400 	.word	0x40001400
    11c8:	2000013c 	.word	0x2000013c

000011cc <TC4Init>:

    GCLK->CLKCTRL.reg = GCLK_CLKCTRL_ID(TC4_GCLK_ID) |
                        GCLK_CLKCTRL_CLKEN |
                        GCLK_CLKCTRL_GEN(2);

    PM->APBCMASK.reg |= PM_APBCMASK_TC4;
    11cc:	2180      	movs	r1, #128	; 0x80
    return ms;
}

void TC4Init() {

    GCLK->CLKCTRL.reg = GCLK_CLKCTRL_ID(TC4_GCLK_ID) |
    11ce:	4a0d      	ldr	r2, [pc, #52]	; (1204 <TC4Init+0x38>)
    11d0:	4b0d      	ldr	r3, [pc, #52]	; (1208 <TC4Init+0x3c>)
                        GCLK_CLKCTRL_CLKEN |
                        GCLK_CLKCTRL_GEN(2);

    PM->APBCMASK.reg |= PM_APBCMASK_TC4;
    11d2:	0149      	lsls	r1, r1, #5
    return ms;
}

void TC4Init() {

    GCLK->CLKCTRL.reg = GCLK_CLKCTRL_ID(TC4_GCLK_ID) |
    11d4:	805a      	strh	r2, [r3, #2]
                        GCLK_CLKCTRL_CLKEN |
                        GCLK_CLKCTRL_GEN(2);

    PM->APBCMASK.reg |= PM_APBCMASK_TC4;
    11d6:	4a0d      	ldr	r2, [pc, #52]	; (120c <TC4Init+0x40>)
    11d8:	6a13      	ldr	r3, [r2, #32]
    11da:	430b      	orrs	r3, r1
    11dc:	6213      	str	r3, [r2, #32]

    TC4->COUNT8.CTRLA.reg = TC_CTRLA_MODE_COUNT8 |
    11de:	4b0c      	ldr	r3, [pc, #48]	; (1210 <TC4Init+0x44>)
    11e0:	4a0c      	ldr	r2, [pc, #48]	; (1214 <TC4Init+0x48>)

    TC4->COUNT8.INTENSET.reg = TC_INTENSET_OVF;

    TC4->COUNT8.EVCTRL.reg = TC_EVCTRL_OVFEO;

    TC4->COUNT8.CTRLA.reg |= TC_CTRLA_ENABLE;
    11e2:	2102      	movs	r1, #2
                        GCLK_CLKCTRL_CLKEN |
                        GCLK_CLKCTRL_GEN(2);

    PM->APBCMASK.reg |= PM_APBCMASK_TC4;

    TC4->COUNT8.CTRLA.reg = TC_CTRLA_MODE_COUNT8 |
    11e4:	801a      	strh	r2, [r3, #0]
                            TC_CTRLA_RUNSTDBY |
                            TC_CTRLA_PRESCALER_DIV2;
    TC4->COUNT8.PER.reg = 0x50;
    11e6:	2250      	movs	r2, #80	; 0x50
    11e8:	751a      	strb	r2, [r3, #20]

    TC4->COUNT8.INTENSET.reg = TC_INTENSET_OVF;
    11ea:	3a4f      	subs	r2, #79	; 0x4f
    11ec:	735a      	strb	r2, [r3, #13]

    TC4->COUNT8.EVCTRL.reg = TC_EVCTRL_OVFEO;
    11ee:	32ff      	adds	r2, #255	; 0xff
    11f0:	815a      	strh	r2, [r3, #10]

    TC4->COUNT8.CTRLA.reg |= TC_CTRLA_ENABLE;
    11f2:	881a      	ldrh	r2, [r3, #0]
    11f4:	430a      	orrs	r2, r1
    11f6:	801a      	strh	r2, [r3, #0]

    \param [in]      IRQn  External interrupt number. Value cannot be negative.
 */
__STATIC_INLINE void NVIC_EnableIRQ(IRQn_Type IRQn)
{
  NVIC->ISER[0] = (1 << ((uint32_t)(IRQn) & 0x1F));
    11f8:	2280      	movs	r2, #128	; 0x80
    11fa:	4b07      	ldr	r3, [pc, #28]	; (1218 <TC4Init+0x4c>)
    11fc:	0312      	lsls	r2, r2, #12
    11fe:	601a      	str	r2, [r3, #0]

    NVIC_EnableIRQ(TC4_IRQn);
}
    1200:	4770      	bx	lr
    1202:	46c0      	nop			; (mov r8, r8)
    1204:	0000421c 	.word	0x0000421c
    1208:	40000c00 	.word	0x40000c00
    120c:	40000400 	.word	0x40000400
    1210:	42003000 	.word	0x42003000
    1214:	00000904 	.word	0x00000904
    1218:	e000e100 	.word	0xe000e100

0000121c <TC4_Handler>:

void TC4_Handler( void ) {
    TC4->COUNT8.INTFLAG.reg = 0xFF;
    121c:	22ff      	movs	r2, #255	; 0xff
    TC4->COUNT8.CTRLA.reg |= TC_CTRLA_ENABLE;

    NVIC_EnableIRQ(TC4_IRQn);
}

void TC4_Handler( void ) {
    121e:	b510      	push	{r4, lr}
    TC4->COUNT8.INTFLAG.reg = 0xFF;
    1220:	4b02      	ldr	r3, [pc, #8]	; (122c <TC4_Handler+0x10>)
    1222:	739a      	strb	r2, [r3, #14]
    //pinToggle(TxPo);
    pullSample();
    1224:	4b02      	ldr	r3, [pc, #8]	; (1230 <TC4_Handler+0x14>)
    1226:	4798      	blx	r3
}
    1228:	bd10      	pop	{r4, pc}
    122a:	46c0      	nop			; (mov r8, r8)
    122c:	42003000 	.word	0x42003000
    1230:	000033e5 	.word	0x000033e5

00001234 <TC5Init>:

    GCLK->CLKCTRL.reg = GCLK_CLKCTRL_ID(TC5_GCLK_ID) |
                        GCLK_CLKCTRL_CLKEN |
                        GCLK_CLKCTRL_GEN(2);

    PM->APBCMASK.reg |= PM_APBCMASK_TC5;
    1234:	2180      	movs	r1, #128	; 0x80
    pullSample();
}

void TC5Init() {

    GCLK->CLKCTRL.reg = GCLK_CLKCTRL_ID(TC5_GCLK_ID) |
    1236:	4a0d      	ldr	r2, [pc, #52]	; (126c <TC5Init+0x38>)
    1238:	4b0d      	ldr	r3, [pc, #52]	; (1270 <TC5Init+0x3c>)
                        GCLK_CLKCTRL_CLKEN |
                        GCLK_CLKCTRL_GEN(2);

    PM->APBCMASK.reg |= PM_APBCMASK_TC5;
    123a:	0189      	lsls	r1, r1, #6
    pullSample();
}

void TC5Init() {

    GCLK->CLKCTRL.reg = GCLK_CLKCTRL_ID(TC5_GCLK_ID) |
    123c:	805a      	strh	r2, [r3, #2]
                        GCLK_CLKCTRL_CLKEN |
                        GCLK_CLKCTRL_GEN(2);

    PM->APBCMASK.reg |= PM_APBCMASK_TC5;
    123e:	4a0d      	ldr	r2, [pc, #52]	; (1274 <TC5Init+0x40>)
    1240:	6a13      	ldr	r3, [r2, #32]
    1242:	430b      	orrs	r3, r1
    1244:	6213      	str	r3, [r2, #32]

    TC5->COUNT8.CTRLA.reg = TC_CTRLA_MODE_COUNT8 |
    1246:	4b0c      	ldr	r3, [pc, #48]	; (1278 <TC5Init+0x44>)
    1248:	4a0c      	ldr	r2, [pc, #48]	; (127c <TC5Init+0x48>)

    TC5->COUNT8.INTENSET.reg = TC_INTENSET_OVF;

    TC5->COUNT8.EVCTRL.reg = TC_EVCTRL_OVFEO;

    TC5->COUNT8.CTRLA.reg |= TC_CTRLA_ENABLE;
    124a:	2102      	movs	r1, #2
                        GCLK_CLKCTRL_CLKEN |
                        GCLK_CLKCTRL_GEN(2);

    PM->APBCMASK.reg |= PM_APBCMASK_TC5;

    TC5->COUNT8.CTRLA.reg = TC_CTRLA_MODE_COUNT8 |
    124c:	801a      	strh	r2, [r3, #0]
                            TC_CTRLA_PRESCALER_DIV16;

    u16_t logSpeed = 20; //Hz
    u8_t PER_Reg = (long)((32768/16) / logSpeed);

    TC5->COUNT8.PER.reg = PER_Reg;
    124e:	2266      	movs	r2, #102	; 0x66
    1250:	751a      	strb	r2, [r3, #20]

    TC5->COUNT8.INTENSET.reg = TC_INTENSET_OVF;
    1252:	3a65      	subs	r2, #101	; 0x65
    1254:	735a      	strb	r2, [r3, #13]

    TC5->COUNT8.EVCTRL.reg = TC_EVCTRL_OVFEO;
    1256:	32ff      	adds	r2, #255	; 0xff
    1258:	815a      	strh	r2, [r3, #10]

    TC5->COUNT8.CTRLA.reg |= TC_CTRLA_ENABLE;
    125a:	881a      	ldrh	r2, [r3, #0]
    125c:	430a      	orrs	r2, r1
    125e:	801a      	strh	r2, [r3, #0]
    1260:	2280      	movs	r2, #128	; 0x80
    1262:	4b07      	ldr	r3, [pc, #28]	; (1280 <TC5Init+0x4c>)
    1264:	0352      	lsls	r2, r2, #13
    1266:	601a      	str	r2, [r3, #0]

    NVIC_EnableIRQ(TC5_IRQn);
}
    1268:	4770      	bx	lr
    126a:	46c0      	nop			; (mov r8, r8)
    126c:	0000421c 	.word	0x0000421c
    1270:	40000c00 	.word	0x40000c00
    1274:	40000400 	.word	0x40000400
    1278:	42003400 	.word	0x42003400
    127c:	00000c04 	.word	0x00000c04
    1280:	e000e100 	.word	0xe000e100

00001284 <TC5_Handler>:

void TC5_Handler( void ) {
    TC5->COUNT8.INTFLAG.reg = 0xFF;
    1284:	22ff      	movs	r2, #255	; 0xff
    1286:	4b03      	ldr	r3, [pc, #12]	; (1294 <TC5_Handler+0x10>)
    1288:	739a      	strb	r2, [r3, #14]
    writeLog = true;
    128a:	4b03      	ldr	r3, [pc, #12]	; (1298 <TC5_Handler+0x14>)
    128c:	3afe      	subs	r2, #254	; 0xfe
    128e:	701a      	strb	r2, [r3, #0]
}
    1290:	4770      	bx	lr
    1292:	46c0      	nop			; (mov r8, r8)
    1294:	42003400 	.word	0x42003400
    1298:	2000019a 	.word	0x2000019a

0000129c <flight>:
#include <boardDefines.h>

#define TESTFLIGHT 0


void flight() {
    129c:	b5f8      	push	{r3, r4, r5, r6, r7, lr}

    switch(flightState) {
    129e:	4c80      	ldr	r4, [pc, #512]	; (14a0 <flight+0x204>)
    12a0:	7820      	ldrb	r0, [r4, #0]
    12a2:	280a      	cmp	r0, #10
    12a4:	d900      	bls.n	12a8 <flight+0xc>
    12a6:	e0de      	b.n	1466 <flight+0x1ca>
    12a8:	f003 fd64 	bl	4d74 <__gnu_thumb1_case_uqi>
    12ac:	6e411906 	.word	0x6e411906
    12b0:	aa9681dd 	.word	0xaa9681dd
    12b4:	ddc7      	.short	0xddc7
    12b6:	d7          	.byte	0xd7
    12b7:	00          	.byte	0x00
    case flightStatrup:

        updateGround( );
    12b8:	4b7a      	ldr	r3, [pc, #488]	; (14a4 <flight+0x208>)
    12ba:	4798      	blx	r3

        if ((millis() - startupTick) > 10000) {
    12bc:	4b7a      	ldr	r3, [pc, #488]	; (14a8 <flight+0x20c>)
    12be:	4798      	blx	r3
    12c0:	4b7a      	ldr	r3, [pc, #488]	; (14ac <flight+0x210>)
    12c2:	681b      	ldr	r3, [r3, #0]
    12c4:	1ac0      	subs	r0, r0, r3
    12c6:	4b7a      	ldr	r3, [pc, #488]	; (14b0 <flight+0x214>)
    12c8:	4298      	cmp	r0, r3
    12ca:	d906      	bls.n	12da <flight+0x3e>
            findNewFlightStart();
    12cc:	4b79      	ldr	r3, [pc, #484]	; (14b4 <flight+0x218>)
    12ce:	4798      	blx	r3
            startupJingle();
    12d0:	4b79      	ldr	r3, [pc, #484]	; (14b8 <flight+0x21c>)
    12d2:	4798      	blx	r3
            flightState = flightTest;
            writeFlightStartAddress();
            logFlight( );
            logEvent('L');
#else
            flightState = flightPad;
    12d4:	2302      	movs	r3, #2
    12d6:	7023      	strb	r3, [r4, #0]
#endif

            break;
    12d8:	e0c5      	b.n	1466 <flight+0x1ca>
        }

        attemptConnection();
    12da:	4b78      	ldr	r3, [pc, #480]	; (14bc <flight+0x220>)
    12dc:	e0c2      	b.n	1464 <flight+0x1c8>
        break;

    case flightIdle:

        if (millis() - offsets.groundBeep > 2000) {
    12de:	4f72      	ldr	r7, [pc, #456]	; (14a8 <flight+0x20c>)
    12e0:	47b8      	blx	r7
    12e2:	4e77      	ldr	r6, [pc, #476]	; (14c0 <flight+0x224>)
    12e4:	6af3      	ldr	r3, [r6, #44]	; 0x2c
    12e6:	1ac0      	subs	r0, r0, r3
    12e8:	23fa      	movs	r3, #250	; 0xfa
    12ea:	00db      	lsls	r3, r3, #3
    12ec:	4298      	cmp	r0, r3
    12ee:	d905      	bls.n	12fc <flight+0x60>
            offsets.groundBeep = millis();
    12f0:	47b8      	blx	r7
    12f2:	62f0      	str	r0, [r6, #44]	; 0x2c
            beep(400);
    12f4:	20c8      	movs	r0, #200	; 0xc8
    12f6:	4b73      	ldr	r3, [pc, #460]	; (14c4 <flight+0x228>)
    12f8:	0040      	lsls	r0, r0, #1
    12fa:	4798      	blx	r3
        }

        if (unplugged()) {
    12fc:	4b72      	ldr	r3, [pc, #456]	; (14c8 <flight+0x22c>)
    12fe:	4798      	blx	r3
    1300:	2800      	cmp	r0, #0
    1302:	d001      	beq.n	1308 <flight+0x6c>
            finishFromPad();
    1304:	4b71      	ldr	r3, [pc, #452]	; (14cc <flight+0x230>)
    1306:	4798      	blx	r3
        }

        if (sercom(USART3)->SPI.INTFLAG.bit.RXC == 1) {
    1308:	4b71      	ldr	r3, [pc, #452]	; (14d0 <flight+0x234>)
    130a:	7e1b      	ldrb	r3, [r3, #24]
    130c:	075b      	lsls	r3, r3, #29
    130e:	d400      	bmi.n	1312 <flight+0x76>
    1310:	e0a9      	b.n	1466 <flight+0x1ca>
            u8_t possibleReset = usartDataIn(USART3);
    1312:	2003      	movs	r0, #3
    1314:	4b6f      	ldr	r3, [pc, #444]	; (14d4 <flight+0x238>)
    1316:	4798      	blx	r3
            if (possibleReset == 0x52) {
    1318:	2852      	cmp	r0, #82	; 0x52
    131a:	d000      	beq.n	131e <flight+0x82>
    131c:	e0a3      	b.n	1466 <flight+0x1ca>
    131e:	f3bf 8f4f 	dsb	sy
 */
__STATIC_INLINE void NVIC_SystemReset(void)
{
  __DSB();                                                     /* Ensure all outstanding memory accesses included
                                                                  buffered write are completed before reset */
  SCB->AIRCR  = ((0x5FA << SCB_AIRCR_VECTKEY_Pos)      |
    1322:	4a6d      	ldr	r2, [pc, #436]	; (14d8 <flight+0x23c>)
    1324:	4b6d      	ldr	r3, [pc, #436]	; (14dc <flight+0x240>)
    1326:	60da      	str	r2, [r3, #12]
    1328:	f3bf 8f4f 	dsb	sy
    132c:	e7fe      	b.n	132c <flight+0x90>
        *  Accel > 2g & vel > 15ft/s
        *		 or
        *  baro alt > 100ft
        */

        updateGround();
    132e:	4b5d      	ldr	r3, [pc, #372]	; (14a4 <flight+0x208>)
    1330:	4798      	blx	r3

        if (writeLog) {
    1332:	4b6b      	ldr	r3, [pc, #428]	; (14e0 <flight+0x244>)
    1334:	781b      	ldrb	r3, [r3, #0]
    1336:	2b00      	cmp	r3, #0
    1338:	d005      	beq.n	1346 <flight+0xaa>
            logSensorsOnPad( );
    133a:	4b6a      	ldr	r3, [pc, #424]	; (14e4 <flight+0x248>)
    133c:	4798      	blx	r3
}


inline static void pinToggle(Pin p) {
    PORT->Group[p.group].OUTTGL.reg = (1<<p.pin);
    133e:	2280      	movs	r2, #128	; 0x80
    1340:	4b69      	ldr	r3, [pc, #420]	; (14e8 <flight+0x24c>)
    1342:	0352      	lsls	r2, r2, #13
    1344:	61da      	str	r2, [r3, #28]
            pinToggle(LedPin);
        }


        if ((( velocity > 15) && (accel > 2)) | (altitudeAGL() > 100)) {
    1346:	4969      	ldr	r1, [pc, #420]	; (14ec <flight+0x250>)
    1348:	4e69      	ldr	r6, [pc, #420]	; (14f0 <flight+0x254>)
    134a:	2200      	movs	r2, #0
    134c:	6808      	ldr	r0, [r1, #0]
    134e:	6849      	ldr	r1, [r1, #4]
    1350:	4b68      	ldr	r3, [pc, #416]	; (14f4 <flight+0x258>)
    1352:	47b0      	blx	r6
    1354:	2800      	cmp	r0, #0
    1356:	d00c      	beq.n	1372 <flight+0xd6>
    1358:	2380      	movs	r3, #128	; 0x80
    135a:	4967      	ldr	r1, [pc, #412]	; (14f8 <flight+0x25c>)
    135c:	2200      	movs	r2, #0
    135e:	6808      	ldr	r0, [r1, #0]
    1360:	6849      	ldr	r1, [r1, #4]
    1362:	05db      	lsls	r3, r3, #23
    1364:	47b0      	blx	r6
    1366:	1e46      	subs	r6, r0, #1
    1368:	41b0      	sbcs	r0, r6
    136a:	2601      	movs	r6, #1
    136c:	4240      	negs	r0, r0
    136e:	4006      	ands	r6, r0
    1370:	e000      	b.n	1374 <flight+0xd8>
    1372:	0006      	movs	r6, r0
    1374:	4b61      	ldr	r3, [pc, #388]	; (14fc <flight+0x260>)
    1376:	4798      	blx	r3
    1378:	2864      	cmp	r0, #100	; 0x64
    137a:	dc01      	bgt.n	1380 <flight+0xe4>
    137c:	07f3      	lsls	r3, r6, #31
    137e:	d572      	bpl.n	1466 <flight+0x1ca>

            flightState = flightBoost;
    1380:	2303      	movs	r3, #3
    1382:	7023      	strb	r3, [r4, #0]
            beginFlightLog();
    1384:	4b5e      	ldr	r3, [pc, #376]	; (1500 <flight+0x264>)
    1386:	e06d      	b.n	1464 <flight+0x1c8>
        /*
        *	boost to fast
        *		while
        *	Accel > 1/4G
        */
        if (writeLog) {
    1388:	4b55      	ldr	r3, [pc, #340]	; (14e0 <flight+0x244>)
    138a:	781b      	ldrb	r3, [r3, #0]
    138c:	2b00      	cmp	r3, #0
    138e:	d001      	beq.n	1394 <flight+0xf8>
            logSensors( );
    1390:	4b5c      	ldr	r3, [pc, #368]	; (1504 <flight+0x268>)
    1392:	4798      	blx	r3
        }

        if (accel < 0.25) {
    1394:	4958      	ldr	r1, [pc, #352]	; (14f8 <flight+0x25c>)
    1396:	2200      	movs	r2, #0
    1398:	6808      	ldr	r0, [r1, #0]
    139a:	6849      	ldr	r1, [r1, #4]
    139c:	4b5a      	ldr	r3, [pc, #360]	; (1508 <flight+0x26c>)
    139e:	4e5b      	ldr	r6, [pc, #364]	; (150c <flight+0x270>)
    13a0:	47b0      	blx	r6
    13a2:	2800      	cmp	r0, #0
    13a4:	d05f      	beq.n	1466 <flight+0x1ca>
            flightState = flightCoast;
    13a6:	2305      	movs	r3, #5
            logEvent('B');
    13a8:	2042      	movs	r0, #66	; 0x42
        if (writeLog) {
            logSensors( );
        }

        if (accel < 0.25) {
            flightState = flightCoast;
    13aa:	7023      	strb	r3, [r4, #0]
    13ac:	e025      	b.n	13fa <flight+0x15e>
        *	   speed > 0
        *	   	 &
        *	altitude > baro_max_alt
        */

        if (writeLog) {
    13ae:	4b4c      	ldr	r3, [pc, #304]	; (14e0 <flight+0x244>)
    13b0:	781b      	ldrb	r3, [r3, #0]
    13b2:	2b00      	cmp	r3, #0
    13b4:	d001      	beq.n	13ba <flight+0x11e>
            logSensors( );
    13b6:	4b53      	ldr	r3, [pc, #332]	; (1504 <flight+0x268>)
    13b8:	4798      	blx	r3
        }


        if (velocity < 0) {
    13ba:	494c      	ldr	r1, [pc, #304]	; (14ec <flight+0x250>)
    13bc:	2200      	movs	r2, #0
    13be:	6808      	ldr	r0, [r1, #0]
    13c0:	6849      	ldr	r1, [r1, #4]
    13c2:	2300      	movs	r3, #0
    13c4:	4e51      	ldr	r6, [pc, #324]	; (150c <flight+0x270>)
    13c6:	47b0      	blx	r6
    13c8:	2800      	cmp	r0, #0
    13ca:	d04c      	beq.n	1466 <flight+0x1ca>
            flightState = flightDrogue;
    13cc:	2306      	movs	r3, #6
    13ce:	7023      	strb	r3, [r4, #0]
            igniteDrogue();
    13d0:	4b4f      	ldr	r3, [pc, #316]	; (1510 <flight+0x274>)
    13d2:	4798      	blx	r3
            logEvent('A');
    13d4:	2041      	movs	r0, #65	; 0x41
    13d6:	e010      	b.n	13fa <flight+0x15e>
        }

        break;
    case flightDrogue:

        if (writeLog) {
    13d8:	4b41      	ldr	r3, [pc, #260]	; (14e0 <flight+0x244>)
    13da:	781b      	ldrb	r3, [r3, #0]
    13dc:	2b00      	cmp	r3, #0
    13de:	d001      	beq.n	13e4 <flight+0x148>
            logSensors( );
    13e0:	4b48      	ldr	r3, [pc, #288]	; (1504 <flight+0x268>)
    13e2:	4798      	blx	r3
        }


        if (altitudeAGL() < deploymentSettings.MAIN_DEPLOY) {
    13e4:	4b45      	ldr	r3, [pc, #276]	; (14fc <flight+0x260>)
    13e6:	4798      	blx	r3
    13e8:	4b4a      	ldr	r3, [pc, #296]	; (1514 <flight+0x278>)
    13ea:	8b1b      	ldrh	r3, [r3, #24]
    13ec:	4298      	cmp	r0, r3
    13ee:	da3a      	bge.n	1466 <flight+0x1ca>
            flightState = flightMain;
    13f0:	2307      	movs	r3, #7
    13f2:	7023      	strb	r3, [r4, #0]
            igniteMain();
    13f4:	4b48      	ldr	r3, [pc, #288]	; (1518 <flight+0x27c>)
    13f6:	4798      	blx	r3
            logEvent('M');
    13f8:	204d      	movs	r0, #77	; 0x4d
    13fa:	4b48      	ldr	r3, [pc, #288]	; (151c <flight+0x280>)
    13fc:	4798      	blx	r3
    13fe:	e032      	b.n	1466 <flight+0x1ca>
        }

        break;
    case flightMain:

        if (writeLog) {
    1400:	4b37      	ldr	r3, [pc, #220]	; (14e0 <flight+0x244>)
    1402:	781b      	ldrb	r3, [r3, #0]
    1404:	2b00      	cmp	r3, #0
    1406:	d001      	beq.n	140c <flight+0x170>
            logSensors( );
    1408:	4b3e      	ldr	r3, [pc, #248]	; (1504 <flight+0x268>)
    140a:	4798      	blx	r3
        }

        if ((velocity > -1) && (velocity < 1) ) {
    140c:	4b37      	ldr	r3, [pc, #220]	; (14ec <flight+0x250>)
    140e:	2200      	movs	r2, #0
    1410:	681e      	ldr	r6, [r3, #0]
    1412:	685f      	ldr	r7, [r3, #4]
    1414:	4d36      	ldr	r5, [pc, #216]	; (14f0 <flight+0x254>)
    1416:	4b42      	ldr	r3, [pc, #264]	; (1520 <flight+0x284>)
    1418:	0030      	movs	r0, r6
    141a:	0039      	movs	r1, r7
    141c:	47a8      	blx	r5
    141e:	2800      	cmp	r0, #0
    1420:	d021      	beq.n	1466 <flight+0x1ca>
    1422:	0030      	movs	r0, r6
    1424:	2200      	movs	r2, #0
    1426:	4b3f      	ldr	r3, [pc, #252]	; (1524 <flight+0x288>)
    1428:	0039      	movs	r1, r7
    142a:	4e38      	ldr	r6, [pc, #224]	; (150c <flight+0x270>)
    142c:	47b0      	blx	r6
    142e:	2800      	cmp	r0, #0
    1430:	d019      	beq.n	1466 <flight+0x1ca>
            flightState = flightLanded;
    1432:	2308      	movs	r3, #8
    1434:	7023      	strb	r3, [r4, #0]
            finishFlight();
    1436:	4b3c      	ldr	r3, [pc, #240]	; (1528 <flight+0x28c>)
    1438:	e014      	b.n	1464 <flight+0x1c8>
        }

        break;
    case flightLanded:

        if (millis() - offsets.groundBeep > 2000) {
    143a:	4f1b      	ldr	r7, [pc, #108]	; (14a8 <flight+0x20c>)
    143c:	47b8      	blx	r7
    143e:	4e20      	ldr	r6, [pc, #128]	; (14c0 <flight+0x224>)
    1440:	6af3      	ldr	r3, [r6, #44]	; 0x2c
    1442:	1ac0      	subs	r0, r0, r3
    1444:	23fa      	movs	r3, #250	; 0xfa
    1446:	00db      	lsls	r3, r3, #3
    1448:	4298      	cmp	r0, r3
    144a:	d90c      	bls.n	1466 <flight+0x1ca>
            offsets.groundBeep = millis();
    144c:	47b8      	blx	r7
    144e:	62f0      	str	r0, [r6, #44]	; 0x2c
            beep(400);
    1450:	20c8      	movs	r0, #200	; 0xc8
    1452:	4b1c      	ldr	r3, [pc, #112]	; (14c4 <flight+0x228>)
    1454:	0040      	lsls	r0, r0, #1
    1456:	4798      	blx	r3
    1458:	e005      	b.n	1466 <flight+0x1ca>
        }

        break;
    case flightTest:

        if (writeLog) {
    145a:	4b21      	ldr	r3, [pc, #132]	; (14e0 <flight+0x244>)
    145c:	781b      	ldrb	r3, [r3, #0]
    145e:	2b00      	cmp	r3, #0
    1460:	d001      	beq.n	1466 <flight+0x1ca>
            logSensors( );
    1462:	4b28      	ldr	r3, [pc, #160]	; (1504 <flight+0x268>)
    1464:	4798      	blx	r3
        break;
    }



    if ((flightState > flightPad) & unplugged()) {
    1466:	2302      	movs	r3, #2
    1468:	7826      	ldrb	r6, [r4, #0]
    146a:	42b3      	cmp	r3, r6
    146c:	41b6      	sbcs	r6, r6
    146e:	4b16      	ldr	r3, [pc, #88]	; (14c8 <flight+0x22c>)
    1470:	4276      	negs	r6, r6
    1472:	4798      	blx	r3
    1474:	2e00      	cmp	r6, #0
    1476:	d003      	beq.n	1480 <flight+0x1e4>
    1478:	2800      	cmp	r0, #0
    147a:	d001      	beq.n	1480 <flight+0x1e4>
        finishFlight();
    147c:	4b2a      	ldr	r3, [pc, #168]	; (1528 <flight+0x28c>)
    147e:	4798      	blx	r3
    }

    if ((flightState <= flightPad) & unplugged()) {
    1480:	2300      	movs	r3, #0
    1482:	2102      	movs	r1, #2
    1484:	7822      	ldrb	r2, [r4, #0]
    1486:	4291      	cmp	r1, r2
    1488:	415b      	adcs	r3, r3
    148a:	b2dc      	uxtb	r4, r3
    148c:	4b0e      	ldr	r3, [pc, #56]	; (14c8 <flight+0x22c>)
    148e:	4798      	blx	r3
    1490:	2c00      	cmp	r4, #0
    1492:	d003      	beq.n	149c <flight+0x200>
    1494:	2800      	cmp	r0, #0
    1496:	d001      	beq.n	149c <flight+0x200>
        finishFromPad();
    1498:	4b0c      	ldr	r3, [pc, #48]	; (14cc <flight+0x230>)
    149a:	4798      	blx	r3
    }

    149c:	bdf8      	pop	{r3, r4, r5, r6, r7, pc}
    149e:	46c0      	nop			; (mov r8, r8)
    14a0:	200001ac 	.word	0x200001ac
    14a4:	0000152d 	.word	0x0000152d
    14a8:	00001199 	.word	0x00001199
    14ac:	2000019c 	.word	0x2000019c
    14b0:	00002710 	.word	0x00002710
    14b4:	00003339 	.word	0x00003339
    14b8:	00000ec1 	.word	0x00000ec1
    14bc:	00003ad9 	.word	0x00003ad9
    14c0:	20000150 	.word	0x20000150
    14c4:	00000e49 	.word	0x00000e49
    14c8:	00000b75 	.word	0x00000b75
    14cc:	00000c59 	.word	0x00000c59
    14d0:	42001400 	.word	0x42001400
    14d4:	00003875 	.word	0x00003875
    14d8:	05fa0004 	.word	0x05fa0004
    14dc:	e000ed00 	.word	0xe000ed00
    14e0:	2000019a 	.word	0x2000019a
    14e4:	00003071 	.word	0x00003071
    14e8:	41004400 	.word	0x41004400
    14ec:	20000308 	.word	0x20000308
    14f0:	000050c9 	.word	0x000050c9
    14f4:	402e0000 	.word	0x402e0000
    14f8:	200002e8 	.word	0x200002e8
    14fc:	00000b41 	.word	0x00000b41
    1500:	00003311 	.word	0x00003311
    1504:	00002eb9 	.word	0x00002eb9
    1508:	3fd00000 	.word	0x3fd00000
    150c:	000050a1 	.word	0x000050a1
    1510:	0000190d 	.word	0x0000190d
    1514:	20000180 	.word	0x20000180
    1518:	000018b1 	.word	0x000018b1
    151c:	00002e5d 	.word	0x00002e5d
    1520:	bff00000 	.word	0xbff00000
    1524:	3ff00000 	.word	0x3ff00000
    1528:	00000c2d 	.word	0x00000c2d

0000152c <updateGround>:
#include <util.h>
#include <altimeter.h>

void updateGround(Altimeter *my_altimeter) {
    152c:	b5f7      	push	{r0, r1, r2, r4, r5, r6, r7, lr}


    offsets.gravityOffsetBuffer = offsets.gravityOffsetBuffer * 0.8 + sample.accelX * 0.2;
    152e:	4c2b      	ldr	r4, [pc, #172]	; (15dc <updateGround+0xb0>)
    1530:	4d2b      	ldr	r5, [pc, #172]	; (15e0 <updateGround+0xb4>)
    1532:	4a2c      	ldr	r2, [pc, #176]	; (15e4 <updateGround+0xb8>)
    1534:	6920      	ldr	r0, [r4, #16]
    1536:	6961      	ldr	r1, [r4, #20]
    1538:	4b2b      	ldr	r3, [pc, #172]	; (15e8 <updateGround+0xbc>)
    153a:	47a8      	blx	r5
    153c:	4b2b      	ldr	r3, [pc, #172]	; (15ec <updateGround+0xc0>)
    153e:	0006      	movs	r6, r0
    1540:	6a58      	ldr	r0, [r3, #36]	; 0x24
    1542:	4b2b      	ldr	r3, [pc, #172]	; (15f0 <updateGround+0xc4>)
    1544:	000f      	movs	r7, r1
    1546:	4798      	blx	r3
    1548:	4a26      	ldr	r2, [pc, #152]	; (15e4 <updateGround+0xb8>)
    154a:	4b2a      	ldr	r3, [pc, #168]	; (15f4 <updateGround+0xc8>)
    154c:	47a8      	blx	r5
    154e:	0002      	movs	r2, r0
    1550:	000b      	movs	r3, r1
    1552:	0030      	movs	r0, r6
    1554:	0039      	movs	r1, r7
    1556:	4e28      	ldr	r6, [pc, #160]	; (15f8 <updateGround+0xcc>)
    1558:	47b0      	blx	r6
    offsets.groundOffsetBuffer = offsets.groundOffsetBuffer * 0.5 + altitude * 0.5;
    155a:	4e28      	ldr	r6, [pc, #160]	; (15fc <updateGround+0xd0>)
#include <altimeter.h>

void updateGround(Altimeter *my_altimeter) {


    offsets.gravityOffsetBuffer = offsets.gravityOffsetBuffer * 0.8 + sample.accelX * 0.2;
    155c:	6120      	str	r0, [r4, #16]
    155e:	6161      	str	r1, [r4, #20]
    offsets.groundOffsetBuffer = offsets.groundOffsetBuffer * 0.5 + altitude * 0.5;
    1560:	69e0      	ldr	r0, [r4, #28]
    1562:	47b0      	blx	r6
    1564:	2200      	movs	r2, #0
    1566:	4b26      	ldr	r3, [pc, #152]	; (1600 <updateGround+0xd4>)
    1568:	47a8      	blx	r5
    156a:	9000      	str	r0, [sp, #0]
    156c:	9101      	str	r1, [sp, #4]
    156e:	4925      	ldr	r1, [pc, #148]	; (1604 <updateGround+0xd8>)
    1570:	2200      	movs	r2, #0
    1572:	6808      	ldr	r0, [r1, #0]
    1574:	6849      	ldr	r1, [r1, #4]
    1576:	4b22      	ldr	r3, [pc, #136]	; (1600 <updateGround+0xd4>)
    1578:	47a8      	blx	r5
    157a:	4f1f      	ldr	r7, [pc, #124]	; (15f8 <updateGround+0xcc>)
    157c:	0002      	movs	r2, r0
    157e:	000b      	movs	r3, r1
    1580:	9800      	ldr	r0, [sp, #0]
    1582:	9901      	ldr	r1, [sp, #4]
    1584:	47b8      	blx	r7
    1586:	4f20      	ldr	r7, [pc, #128]	; (1608 <updateGround+0xdc>)
    1588:	47b8      	blx	r7
    158a:	61e0      	str	r0, [r4, #28]
    offsets.groundTemperatureBuffer = offsets.groundTemperatureBuffer * 0.8 + sample.temperatureCelcus * 0.2;
    158c:	6a60      	ldr	r0, [r4, #36]	; 0x24
    158e:	47b0      	blx	r6
    1590:	4a14      	ldr	r2, [pc, #80]	; (15e4 <updateGround+0xb8>)
    1592:	4b15      	ldr	r3, [pc, #84]	; (15e8 <updateGround+0xbc>)
    1594:	47a8      	blx	r5
    1596:	4b15      	ldr	r3, [pc, #84]	; (15ec <updateGround+0xc0>)
    1598:	9000      	str	r0, [sp, #0]
    159a:	9101      	str	r1, [sp, #4]
    159c:	6d58      	ldr	r0, [r3, #84]	; 0x54
    159e:	47b0      	blx	r6
    15a0:	4a10      	ldr	r2, [pc, #64]	; (15e4 <updateGround+0xb8>)
    15a2:	4b14      	ldr	r3, [pc, #80]	; (15f4 <updateGround+0xc8>)
    15a4:	47a8      	blx	r5
    15a6:	4d14      	ldr	r5, [pc, #80]	; (15f8 <updateGround+0xcc>)
    15a8:	000b      	movs	r3, r1
    15aa:	0002      	movs	r2, r0
    15ac:	9800      	ldr	r0, [sp, #0]
    15ae:	9901      	ldr	r1, [sp, #4]
    15b0:	47a8      	blx	r5
    15b2:	47b8      	blx	r7

    if ((millis() - offsets.offsetBufferTime) > 2000) {
    15b4:	4d15      	ldr	r5, [pc, #84]	; (160c <updateGround+0xe0>)
void updateGround(Altimeter *my_altimeter) {


    offsets.gravityOffsetBuffer = offsets.gravityOffsetBuffer * 0.8 + sample.accelX * 0.2;
    offsets.groundOffsetBuffer = offsets.groundOffsetBuffer * 0.5 + altitude * 0.5;
    offsets.groundTemperatureBuffer = offsets.groundTemperatureBuffer * 0.8 + sample.temperatureCelcus * 0.2;
    15b6:	6260      	str	r0, [r4, #36]	; 0x24

    if ((millis() - offsets.offsetBufferTime) > 2000) {
    15b8:	47a8      	blx	r5
    15ba:	6823      	ldr	r3, [r4, #0]
    15bc:	1ac0      	subs	r0, r0, r3
    15be:	23fa      	movs	r3, #250	; 0xfa
    15c0:	00db      	lsls	r3, r3, #3
    15c2:	4298      	cmp	r0, r3
    15c4:	d909      	bls.n	15da <updateGround+0xae>
        //recursive filter
        offsets.groundOffset = offsets.groundOffsetBuffer;
    15c6:	69e3      	ldr	r3, [r4, #28]
    15c8:	61a3      	str	r3, [r4, #24]
        offsets.groundTemperature = offsets.groundTemperatureBuffer;
    15ca:	6a63      	ldr	r3, [r4, #36]	; 0x24
    15cc:	6223      	str	r3, [r4, #32]
        offsets.gravityOffset = offsets.gravityOffsetBuffer;
    15ce:	6922      	ldr	r2, [r4, #16]
    15d0:	6963      	ldr	r3, [r4, #20]
    15d2:	60a2      	str	r2, [r4, #8]
    15d4:	60e3      	str	r3, [r4, #12]
        offsets.offsetBufferTime = millis();
    15d6:	47a8      	blx	r5
    15d8:	6020      	str	r0, [r4, #0]
    }
}
    15da:	bdf7      	pop	{r0, r1, r2, r4, r5, r6, r7, pc}
    15dc:	20000150 	.word	0x20000150
    15e0:	00006291 	.word	0x00006291
    15e4:	9999999a 	.word	0x9999999a
    15e8:	3fe99999 	.word	0x3fe99999
    15ec:	200005f0 	.word	0x200005f0
    15f0:	00006fcd 	.word	0x00006fcd
    15f4:	3fc99999 	.word	0x3fc99999
    15f8:	000053f1 	.word	0x000053f1
    15fc:	00006f5d 	.word	0x00006f5d
    1600:	3fe00000 	.word	0x3fe00000
    1604:	20000328 	.word	0x20000328
    1608:	00005149 	.word	0x00005149
    160c:	00001199 	.word	0x00001199

00001610 <isItPointingUp>:

void isItPointingUp() {
    1610:	b5f8      	push	{r3, r4, r5, r6, r7, lr}
    1612:	261e      	movs	r6, #30
    u8_t i;

    double pointingUpBuffer;

    pointingUpBuffer = 0;
    1614:	2400      	movs	r4, #0
    1616:	2500      	movs	r5, #0

    for ( i = 0; i < 30 ; ++i ) {
        delay_ms(10);
    1618:	200a      	movs	r0, #10
    161a:	4b21      	ldr	r3, [pc, #132]	; (16a0 <isItPointingUp+0x90>)
    161c:	4798      	blx	r3
        sampleTick();
    161e:	4b21      	ldr	r3, [pc, #132]	; (16a4 <isItPointingUp+0x94>)
    1620:	4798      	blx	r3
        pointingUpBuffer = pointingUpBuffer * 0.8 + (-sample.accelX) * 0.2;
    1622:	4a21      	ldr	r2, [pc, #132]	; (16a8 <isItPointingUp+0x98>)
    1624:	4f21      	ldr	r7, [pc, #132]	; (16ac <isItPointingUp+0x9c>)
    1626:	4b22      	ldr	r3, [pc, #136]	; (16b0 <isItPointingUp+0xa0>)
    1628:	0020      	movs	r0, r4
    162a:	0029      	movs	r1, r5
    162c:	47b8      	blx	r7
    162e:	4b21      	ldr	r3, [pc, #132]	; (16b4 <isItPointingUp+0xa4>)
    1630:	0004      	movs	r4, r0
    1632:	6a58      	ldr	r0, [r3, #36]	; 0x24
    1634:	2380      	movs	r3, #128	; 0x80
    1636:	000d      	movs	r5, r1
    1638:	061b      	lsls	r3, r3, #24
    163a:	18c0      	adds	r0, r0, r3
    163c:	4b1e      	ldr	r3, [pc, #120]	; (16b8 <isItPointingUp+0xa8>)
    163e:	4798      	blx	r3
    1640:	4a19      	ldr	r2, [pc, #100]	; (16a8 <isItPointingUp+0x98>)
    1642:	4b1e      	ldr	r3, [pc, #120]	; (16bc <isItPointingUp+0xac>)
    1644:	47b8      	blx	r7
    1646:	0022      	movs	r2, r4
    1648:	002b      	movs	r3, r5
    164a:	4c1d      	ldr	r4, [pc, #116]	; (16c0 <isItPointingUp+0xb0>)
    164c:	47a0      	blx	r4
    164e:	3e01      	subs	r6, #1
    1650:	b2f6      	uxtb	r6, r6
    1652:	0004      	movs	r4, r0
    1654:	000d      	movs	r5, r1

    double pointingUpBuffer;

    pointingUpBuffer = 0;

    for ( i = 0; i < 30 ; ++i ) {
    1656:	2e00      	cmp	r6, #0
    1658:	d1de      	bne.n	1618 <isItPointingUp+0x8>
        delay_ms(10);
        sampleTick();
        pointingUpBuffer = pointingUpBuffer * 0.8 + (-sample.accelX) * 0.2;
    }
    if ((pointingUpBuffer > 0.9) & (pointingUpBuffer <1.1)) {
    165a:	4e1a      	ldr	r6, [pc, #104]	; (16c4 <isItPointingUp+0xb4>)
    165c:	4a1a      	ldr	r2, [pc, #104]	; (16c8 <isItPointingUp+0xb8>)
    165e:	4b1b      	ldr	r3, [pc, #108]	; (16cc <isItPointingUp+0xbc>)
    1660:	47b0      	blx	r6
    1662:	0037      	movs	r7, r6
    1664:	4e1a      	ldr	r6, [pc, #104]	; (16d0 <isItPointingUp+0xc0>)
    1666:	2800      	cmp	r0, #0
    1668:	d007      	beq.n	167a <isItPointingUp+0x6a>
    166a:	4a0f      	ldr	r2, [pc, #60]	; (16a8 <isItPointingUp+0x98>)
    166c:	4b19      	ldr	r3, [pc, #100]	; (16d4 <isItPointingUp+0xc4>)
    166e:	0020      	movs	r0, r4
    1670:	0029      	movs	r1, r5
    1672:	47b0      	blx	r6
        altimeter.pointingUp = true;
    1674:	2201      	movs	r2, #1
    for ( i = 0; i < 30 ; ++i ) {
        delay_ms(10);
        sampleTick();
        pointingUpBuffer = pointingUpBuffer * 0.8 + (-sample.accelX) * 0.2;
    }
    if ((pointingUpBuffer > 0.9) & (pointingUpBuffer <1.1)) {
    1676:	2800      	cmp	r0, #0
    1678:	d10e      	bne.n	1698 <isItPointingUp+0x88>
        altimeter.pointingUp = true;
    } else if ((pointingUpBuffer < -0.9) & (pointingUpBuffer > -1.1)) {
    167a:	4a13      	ldr	r2, [pc, #76]	; (16c8 <isItPointingUp+0xb8>)
    167c:	4b16      	ldr	r3, [pc, #88]	; (16d8 <isItPointingUp+0xc8>)
    167e:	0020      	movs	r0, r4
    1680:	0029      	movs	r1, r5
    1682:	47b0      	blx	r6
    1684:	2800      	cmp	r0, #0
    1686:	d00a      	beq.n	169e <isItPointingUp+0x8e>
    1688:	4a07      	ldr	r2, [pc, #28]	; (16a8 <isItPointingUp+0x98>)
    168a:	4b14      	ldr	r3, [pc, #80]	; (16dc <isItPointingUp+0xcc>)
    168c:	0020      	movs	r0, r4
    168e:	0029      	movs	r1, r5
    1690:	47b8      	blx	r7
    1692:	2800      	cmp	r0, #0
    1694:	d003      	beq.n	169e <isItPointingUp+0x8e>
        altimeter.pointingUp = false;
    1696:	2200      	movs	r2, #0
    1698:	4b11      	ldr	r3, [pc, #68]	; (16e0 <isItPointingUp+0xd0>)
    169a:	715a      	strb	r2, [r3, #5]

        }

    }

    169c:	bdf8      	pop	{r3, r4, r5, r6, r7, pc}
    169e:	e7fe      	b.n	169e <isItPointingUp+0x8e>
    16a0:	0000114d 	.word	0x0000114d
    16a4:	000033f1 	.word	0x000033f1
    16a8:	9999999a 	.word	0x9999999a
    16ac:	00006291 	.word	0x00006291
    16b0:	3fe99999 	.word	0x3fe99999
    16b4:	200005f0 	.word	0x200005f0
    16b8:	00006fcd 	.word	0x00006fcd
    16bc:	3fc99999 	.word	0x3fc99999
    16c0:	000053f1 	.word	0x000053f1
    16c4:	000050c9 	.word	0x000050c9
    16c8:	cccccccd 	.word	0xcccccccd
    16cc:	3feccccc 	.word	0x3feccccc
    16d0:	000050a1 	.word	0x000050a1
    16d4:	3ff19999 	.word	0x3ff19999
    16d8:	bfeccccc 	.word	0xbfeccccc
    16dc:	bff19999 	.word	0xbff19999
    16e0:	200001a0 	.word	0x200001a0

000016e4 <checkContinuity>:
    }
}

void checkContinuity() {

    charges.mainFound = false;
    16e4:	2300      	movs	r3, #0
    16e6:	4a12      	ldr	r2, [pc, #72]	; (1730 <checkContinuity+0x4c>)
    } else {
        return false;
    }
}

void checkContinuity() {
    16e8:	b510      	push	{r4, lr}

    charges.mainFound = false;
    16ea:	1c51      	adds	r1, r2, #1
    16ec:	77cb      	strb	r3, [r1, #31]
    charges.drogueFound = false;
    16ee:	1c91      	adds	r1, r2, #2
    16f0:	77cb      	strb	r3, [r1, #31]
    16f2:	4b10      	ldr	r3, [pc, #64]	; (1734 <checkContinuity+0x50>)

}

bool checkIfDrogue(deploymentChannel_t chan) {

    if (chan.ENABLED & (chan.TYPE == DROGUE_t)) {
    16f4:	7858      	ldrb	r0, [r3, #1]
    16f6:	2801      	cmp	r0, #1
    16f8:	d10a      	bne.n	1710 <checkContinuity+0x2c>
    16fa:	7818      	ldrb	r0, [r3, #0]
    16fc:	2800      	cmp	r0, #0
    16fe:	d007      	beq.n	1710 <checkContinuity+0x2c>

    charges.mainFound = false;
    charges.drogueFound = false;

    if (checkIfDrogue(deploymentSettings.channelASettings)) {
        if (sample.voltage.senseA > 500) {
    1700:	480d      	ldr	r0, [pc, #52]	; (1738 <checkContinuity+0x54>)
    1702:	8a04      	ldrh	r4, [r0, #16]
    1704:	20fa      	movs	r0, #250	; 0xfa
    1706:	0040      	lsls	r0, r0, #1
    1708:	4284      	cmp	r4, r0
    170a:	d901      	bls.n	1710 <checkContinuity+0x2c>
            charges.drogueFound = true;
    170c:	2001      	movs	r0, #1
    170e:	77c8      	strb	r0, [r1, #31]
#include <boardDefines.h>


bool checkIfMain(deploymentChannel_t chan) {

    if (chan.ENABLED & (chan.TYPE == MAIN_t)) {
    1710:	79d9      	ldrb	r1, [r3, #7]
    1712:	2900      	cmp	r1, #0
    1714:	d10b      	bne.n	172e <checkContinuity+0x4a>
    1716:	799b      	ldrb	r3, [r3, #6]
    1718:	2b00      	cmp	r3, #0
    171a:	d008      	beq.n	172e <checkContinuity+0x4a>
        if (sample.voltage.senseA > 500) {
            charges.drogueFound = true;
        }
    }
    if (checkIfMain(deploymentSettings.channelBSettings)) {
        if (sample.voltage.senseB > 500) {
    171c:	4b06      	ldr	r3, [pc, #24]	; (1738 <checkContinuity+0x54>)
    171e:	8a59      	ldrh	r1, [r3, #18]
    1720:	23fa      	movs	r3, #250	; 0xfa
    1722:	005b      	lsls	r3, r3, #1
    1724:	4299      	cmp	r1, r3
    1726:	d902      	bls.n	172e <checkContinuity+0x4a>
            charges.mainFound = true;
    1728:	2301      	movs	r3, #1
    172a:	3201      	adds	r2, #1
    172c:	77d3      	strb	r3, [r2, #31]
        }
    }


}
    172e:	bd10      	pop	{r4, pc}
    1730:	200002c4 	.word	0x200002c4
    1734:	20000180 	.word	0x20000180
    1738:	200005f0 	.word	0x200005f0

0000173c <continuityBeep>:

void continuityBeep() {

    checkContinuity();
    173c:	4b0d      	ldr	r3, [pc, #52]	; (1774 <continuityBeep+0x38>)
    }


}

void continuityBeep() {
    173e:	b510      	push	{r4, lr}

    checkContinuity();
    1740:	4798      	blx	r3

    if (charges.mainFound == false & charges.drogueFound == false) {
    1742:	2001      	movs	r0, #1
    1744:	0001      	movs	r1, r0
    1746:	4b0c      	ldr	r3, [pc, #48]	; (1778 <continuityBeep+0x3c>)
    1748:	1c5a      	adds	r2, r3, #1
    174a:	3302      	adds	r3, #2
    174c:	7fdb      	ldrb	r3, [r3, #31]
    174e:	7fd2      	ldrb	r2, [r2, #31]
    1750:	4059      	eors	r1, r3
    1752:	428a      	cmp	r2, r1
    1754:	d201      	bcs.n	175a <continuityBeep+0x1e>
        beepDigit(0);
    1756:	2000      	movs	r0, #0
    1758:	e009      	b.n	176e <continuityBeep+0x32>
    } else if (charges.mainFound == false & charges.drogueFound == true) {
    175a:	429a      	cmp	r2, r3
    175c:	d307      	bcc.n	176e <continuityBeep+0x32>
        beepDigit(1);
    } else if (charges.mainFound == true & charges.drogueFound == false) {
        beepDigit(2);
    175e:	2002      	movs	r0, #2

    if (charges.mainFound == false & charges.drogueFound == false) {
        beepDigit(0);
    } else if (charges.mainFound == false & charges.drogueFound == true) {
        beepDigit(1);
    } else if (charges.mainFound == true & charges.drogueFound == false) {
    1760:	429a      	cmp	r2, r3
    1762:	d804      	bhi.n	176e <continuityBeep+0x32>
        beepDigit(2);
    } else if (charges.mainFound == true & charges.drogueFound == true) {
    1764:	2a00      	cmp	r2, #0
    1766:	d004      	beq.n	1772 <continuityBeep+0x36>
    1768:	2b00      	cmp	r3, #0
    176a:	d002      	beq.n	1772 <continuityBeep+0x36>
        beepDigit(3);
    176c:	2003      	movs	r0, #3
    176e:	4b03      	ldr	r3, [pc, #12]	; (177c <continuityBeep+0x40>)
    1770:	4798      	blx	r3
    }


}
    1772:	bd10      	pop	{r4, pc}
    1774:	000016e5 	.word	0x000016e5
    1778:	200002c4 	.word	0x200002c4
    177c:	00000e91 	.word	0x00000e91

00001780 <igniterTick>:

void igniterTick() {
    1780:	b510      	push	{r4, lr}

    if (charges.igniterAHot) {
    1782:	4c23      	ldr	r4, [pc, #140]	; (1810 <igniterTick+0x90>)
    1784:	7823      	ldrb	r3, [r4, #0]
    1786:	2b00      	cmp	r3, #0
    1788:	d00d      	beq.n	17a6 <igniterTick+0x26>
        if ((millis() - charges.igniterATick) > 2000) {
    178a:	4b22      	ldr	r3, [pc, #136]	; (1814 <igniterTick+0x94>)
    178c:	4798      	blx	r3
    178e:	6863      	ldr	r3, [r4, #4]
    1790:	1ac0      	subs	r0, r0, r3
    1792:	23fa      	movs	r3, #250	; 0xfa
    1794:	00db      	lsls	r3, r3, #3
    1796:	4298      	cmp	r0, r3
    1798:	d905      	bls.n	17a6 <igniterTick+0x26>
    PORT->Group[p.group].OUTSET.reg = (1<<p.pin);
}


inline static void pinLow(Pin p) {
    PORT->Group[p.group].OUTCLR.reg = (1<<p.pin);
    179a:	2280      	movs	r2, #128	; 0x80
    179c:	4b1e      	ldr	r3, [pc, #120]	; (1818 <igniterTick+0x98>)
    179e:	0412      	lsls	r2, r2, #16
    17a0:	601a      	str	r2, [r3, #0]
            pinLow(fireAPin);
            charges.igniterAHot = false;
    17a2:	2300      	movs	r3, #0
    17a4:	7023      	strb	r3, [r4, #0]
        }
    }

    if (charges.igniterBHot) {
    17a6:	7a23      	ldrb	r3, [r4, #8]
    17a8:	2b00      	cmp	r3, #0
    17aa:	d00d      	beq.n	17c8 <igniterTick+0x48>
        if ((millis() - charges.igniterBTick) > 2000) {
    17ac:	4b19      	ldr	r3, [pc, #100]	; (1814 <igniterTick+0x94>)
    17ae:	4798      	blx	r3
    17b0:	68e3      	ldr	r3, [r4, #12]
    17b2:	1ac0      	subs	r0, r0, r3
    17b4:	23fa      	movs	r3, #250	; 0xfa
    17b6:	00db      	lsls	r3, r3, #3
    17b8:	4298      	cmp	r0, r3
    17ba:	d905      	bls.n	17c8 <igniterTick+0x48>
    17bc:	2280      	movs	r2, #128	; 0x80
    17be:	4b16      	ldr	r3, [pc, #88]	; (1818 <igniterTick+0x98>)
    17c0:	03d2      	lsls	r2, r2, #15
    17c2:	601a      	str	r2, [r3, #0]
            pinLow(fireBPin);
            charges.igniterBHot = false;
    17c4:	2300      	movs	r3, #0
    17c6:	7223      	strb	r3, [r4, #8]
        }
    }

    if (charges.igniterCHot) {
    17c8:	7c23      	ldrb	r3, [r4, #16]
    17ca:	2b00      	cmp	r3, #0
    17cc:	d00d      	beq.n	17ea <igniterTick+0x6a>
        if ((millis() - charges.igniterCTick) > 2000) {
    17ce:	4b11      	ldr	r3, [pc, #68]	; (1814 <igniterTick+0x94>)
    17d0:	4798      	blx	r3
    17d2:	6963      	ldr	r3, [r4, #20]
    17d4:	1ac0      	subs	r0, r0, r3
    17d6:	23fa      	movs	r3, #250	; 0xfa
    17d8:	00db      	lsls	r3, r3, #3
    17da:	4298      	cmp	r0, r3
    17dc:	d905      	bls.n	17ea <igniterTick+0x6a>
    17de:	2280      	movs	r2, #128	; 0x80
    17e0:	4b0e      	ldr	r3, [pc, #56]	; (181c <igniterTick+0x9c>)
    17e2:	0492      	lsls	r2, r2, #18
    17e4:	615a      	str	r2, [r3, #20]
            pinLow(fireCPin);
            charges.igniterCHot = false;
    17e6:	2300      	movs	r3, #0
    17e8:	7423      	strb	r3, [r4, #16]
        }
    }

    if (charges.igniterDHot) {
    17ea:	7e23      	ldrb	r3, [r4, #24]
    17ec:	2b00      	cmp	r3, #0
    17ee:	d00d      	beq.n	180c <igniterTick+0x8c>
        if ((millis() - charges.igniterDTick) > 2000) {
    17f0:	4b08      	ldr	r3, [pc, #32]	; (1814 <igniterTick+0x94>)
    17f2:	4798      	blx	r3
    17f4:	69e3      	ldr	r3, [r4, #28]
    17f6:	1ac0      	subs	r0, r0, r3
    17f8:	23fa      	movs	r3, #250	; 0xfa
    17fa:	00db      	lsls	r3, r3, #3
    17fc:	4298      	cmp	r0, r3
    17fe:	d905      	bls.n	180c <igniterTick+0x8c>
    1800:	2280      	movs	r2, #128	; 0x80
    1802:	4b06      	ldr	r3, [pc, #24]	; (181c <igniterTick+0x9c>)
    1804:	0452      	lsls	r2, r2, #17
    1806:	615a      	str	r2, [r3, #20]
            pinLow(fireDPin);
            charges.igniterDHot = false;
    1808:	2300      	movs	r3, #0
    180a:	7623      	strb	r3, [r4, #24]
        }
    }
}
    180c:	bd10      	pop	{r4, pc}
    180e:	46c0      	nop			; (mov r8, r8)
    1810:	200002c4 	.word	0x200002c4
    1814:	00001199 	.word	0x00001199
    1818:	41004494 	.word	0x41004494
    181c:	41004400 	.word	0x41004400

00001820 <lightIgniterA>:
	pinGpio(p);
    PORT->Group[p.group].PINCFG[p.pin].bit.DRVSTR = 1;
}

inline static void pinHigh(Pin p) {
    PORT->Group[p.group].OUTSET.reg = (1<<p.pin);
    1820:	2280      	movs	r2, #128	; 0x80
    1822:	4b05      	ldr	r3, [pc, #20]	; (1838 <lightIgniterA+0x18>)
    1824:	0412      	lsls	r2, r2, #16
    if (deploymentSettings.channelDSettings.ENABLED & (deploymentSettings.channelDSettings.TYPE == DROGUE_t)) {
        lightIgniterD();
    }
}

void lightIgniterA() {
    1826:	b510      	push	{r4, lr}
    1828:	601a      	str	r2, [r3, #0]
    pinHigh(fireAPin);
    charges.igniterAHot = true;
    182a:	2301      	movs	r3, #1
    182c:	4c03      	ldr	r4, [pc, #12]	; (183c <lightIgniterA+0x1c>)
    182e:	7023      	strb	r3, [r4, #0]
    charges.igniterATick = millis();
    1830:	4b03      	ldr	r3, [pc, #12]	; (1840 <lightIgniterA+0x20>)
    1832:	4798      	blx	r3
    1834:	6060      	str	r0, [r4, #4]
}
    1836:	bd10      	pop	{r4, pc}
    1838:	41004498 	.word	0x41004498
    183c:	200002c4 	.word	0x200002c4
    1840:	00001199 	.word	0x00001199

00001844 <lightIgniterB>:
    1844:	2280      	movs	r2, #128	; 0x80
    1846:	4b05      	ldr	r3, [pc, #20]	; (185c <lightIgniterB+0x18>)
    1848:	03d2      	lsls	r2, r2, #15

void lightIgniterB() {
    184a:	b510      	push	{r4, lr}
    184c:	601a      	str	r2, [r3, #0]
    pinHigh(fireBPin);
    charges.igniterBHot = true;
    184e:	2301      	movs	r3, #1
    1850:	4c03      	ldr	r4, [pc, #12]	; (1860 <lightIgniterB+0x1c>)
    1852:	7223      	strb	r3, [r4, #8]
    charges.igniterBTick = millis();
    1854:	4b03      	ldr	r3, [pc, #12]	; (1864 <lightIgniterB+0x20>)
    1856:	4798      	blx	r3
    1858:	60e0      	str	r0, [r4, #12]
}
    185a:	bd10      	pop	{r4, pc}
    185c:	41004498 	.word	0x41004498
    1860:	200002c4 	.word	0x200002c4
    1864:	00001199 	.word	0x00001199

00001868 <lightIgniterC>:
    1868:	2280      	movs	r2, #128	; 0x80
    186a:	4b05      	ldr	r3, [pc, #20]	; (1880 <lightIgniterC+0x18>)
    186c:	0492      	lsls	r2, r2, #18

void lightIgniterC() {
    186e:	b510      	push	{r4, lr}
    1870:	619a      	str	r2, [r3, #24]
    pinHigh(fireCPin);
    charges.igniterCHot = true;
    1872:	2301      	movs	r3, #1
    1874:	4c03      	ldr	r4, [pc, #12]	; (1884 <lightIgniterC+0x1c>)
    1876:	7423      	strb	r3, [r4, #16]
    charges.igniterCTick = millis();
    1878:	4b03      	ldr	r3, [pc, #12]	; (1888 <lightIgniterC+0x20>)
    187a:	4798      	blx	r3
    187c:	6160      	str	r0, [r4, #20]
}
    187e:	bd10      	pop	{r4, pc}
    1880:	41004400 	.word	0x41004400
    1884:	200002c4 	.word	0x200002c4
    1888:	00001199 	.word	0x00001199

0000188c <lightIgniterD>:
    188c:	2280      	movs	r2, #128	; 0x80
    188e:	4b05      	ldr	r3, [pc, #20]	; (18a4 <lightIgniterD+0x18>)
    1890:	0452      	lsls	r2, r2, #17

void lightIgniterD() {
    1892:	b510      	push	{r4, lr}
    1894:	619a      	str	r2, [r3, #24]
    pinHigh(fireDPin);
    charges.igniterDHot = true;
    1896:	2301      	movs	r3, #1
    1898:	4c03      	ldr	r4, [pc, #12]	; (18a8 <lightIgniterD+0x1c>)
    189a:	7623      	strb	r3, [r4, #24]
    charges.igniterDTick = millis();
    189c:	4b03      	ldr	r3, [pc, #12]	; (18ac <lightIgniterD+0x20>)
    189e:	4798      	blx	r3
    18a0:	61e0      	str	r0, [r4, #28]
    18a2:	bd10      	pop	{r4, pc}
    18a4:	41004400 	.word	0x41004400
    18a8:	200002c4 	.word	0x200002c4
    18ac:	00001199 	.word	0x00001199

000018b0 <igniteMain>:
            charges.igniterDHot = false;
        }
    }
}

void igniteMain() {
    18b0:	b510      	push	{r4, lr}

    if (deploymentSettings.channelASettings.ENABLED & (deploymentSettings.channelASettings.TYPE == MAIN_t)) {
    18b2:	4c11      	ldr	r4, [pc, #68]	; (18f8 <igniteMain+0x48>)
    18b4:	7863      	ldrb	r3, [r4, #1]
    18b6:	2b00      	cmp	r3, #0
    18b8:	d104      	bne.n	18c4 <igniteMain+0x14>
    18ba:	7823      	ldrb	r3, [r4, #0]
    18bc:	2b00      	cmp	r3, #0
    18be:	d001      	beq.n	18c4 <igniteMain+0x14>
        lightIgniterA();
    18c0:	4b0e      	ldr	r3, [pc, #56]	; (18fc <igniteMain+0x4c>)
    18c2:	4798      	blx	r3
    }
    if(deploymentSettings.channelBSettings.ENABLED & (deploymentSettings.channelBSettings.TYPE == MAIN_t)) {
    18c4:	79e3      	ldrb	r3, [r4, #7]
    18c6:	2b00      	cmp	r3, #0
    18c8:	d104      	bne.n	18d4 <igniteMain+0x24>
    18ca:	79a3      	ldrb	r3, [r4, #6]
    18cc:	2b00      	cmp	r3, #0
    18ce:	d001      	beq.n	18d4 <igniteMain+0x24>
        lightIgniterB();
    18d0:	4b0b      	ldr	r3, [pc, #44]	; (1900 <igniteMain+0x50>)
    18d2:	4798      	blx	r3
    }
    if (deploymentSettings.channelCSettings.ENABLED & (deploymentSettings.channelCSettings.TYPE == MAIN_t)) {
    18d4:	7b63      	ldrb	r3, [r4, #13]
    18d6:	2b00      	cmp	r3, #0
    18d8:	d104      	bne.n	18e4 <igniteMain+0x34>
    18da:	7b23      	ldrb	r3, [r4, #12]
    18dc:	2b00      	cmp	r3, #0
    18de:	d001      	beq.n	18e4 <igniteMain+0x34>
        lightIgniterC();
    18e0:	4b08      	ldr	r3, [pc, #32]	; (1904 <igniteMain+0x54>)
    18e2:	4798      	blx	r3
    }
    if (deploymentSettings.channelDSettings.ENABLED & (deploymentSettings.channelDSettings.TYPE == MAIN_t)) {
    18e4:	7ce3      	ldrb	r3, [r4, #19]
    18e6:	2b00      	cmp	r3, #0
    18e8:	d104      	bne.n	18f4 <igniteMain+0x44>
    18ea:	7ca3      	ldrb	r3, [r4, #18]
    18ec:	2b00      	cmp	r3, #0
    18ee:	d001      	beq.n	18f4 <igniteMain+0x44>
        lightIgniterD();
    18f0:	4b05      	ldr	r3, [pc, #20]	; (1908 <igniteMain+0x58>)
    18f2:	4798      	blx	r3
    }
}
    18f4:	bd10      	pop	{r4, pc}
    18f6:	46c0      	nop			; (mov r8, r8)
    18f8:	20000180 	.word	0x20000180
    18fc:	00001821 	.word	0x00001821
    1900:	00001845 	.word	0x00001845
    1904:	00001869 	.word	0x00001869
    1908:	0000188d 	.word	0x0000188d

0000190c <igniteDrogue>:

void igniteDrogue() {
    190c:	b510      	push	{r4, lr}

    if (deploymentSettings.channelASettings.ENABLED & (deploymentSettings.channelASettings.TYPE == DROGUE_t)) {
    190e:	4c11      	ldr	r4, [pc, #68]	; (1954 <igniteDrogue+0x48>)
    1910:	7863      	ldrb	r3, [r4, #1]
    1912:	2b01      	cmp	r3, #1
    1914:	d104      	bne.n	1920 <igniteDrogue+0x14>
    1916:	7823      	ldrb	r3, [r4, #0]
    1918:	2b00      	cmp	r3, #0
    191a:	d001      	beq.n	1920 <igniteDrogue+0x14>
        lightIgniterA();
    191c:	4b0e      	ldr	r3, [pc, #56]	; (1958 <igniteDrogue+0x4c>)
    191e:	4798      	blx	r3
    }
    if (deploymentSettings.channelBSettings.ENABLED & (deploymentSettings.channelBSettings.TYPE == DROGUE_t)) {
    1920:	79e3      	ldrb	r3, [r4, #7]
    1922:	2b01      	cmp	r3, #1
    1924:	d104      	bne.n	1930 <igniteDrogue+0x24>
    1926:	79a3      	ldrb	r3, [r4, #6]
    1928:	2b00      	cmp	r3, #0
    192a:	d001      	beq.n	1930 <igniteDrogue+0x24>
        lightIgniterB();
    192c:	4b0b      	ldr	r3, [pc, #44]	; (195c <igniteDrogue+0x50>)
    192e:	4798      	blx	r3
    }
    if (deploymentSettings.channelCSettings.ENABLED & (deploymentSettings.channelCSettings.TYPE == DROGUE_t)) {
    1930:	7b63      	ldrb	r3, [r4, #13]
    1932:	2b01      	cmp	r3, #1
    1934:	d104      	bne.n	1940 <igniteDrogue+0x34>
    1936:	7b23      	ldrb	r3, [r4, #12]
    1938:	2b00      	cmp	r3, #0
    193a:	d001      	beq.n	1940 <igniteDrogue+0x34>
        lightIgniterC();
    193c:	4b08      	ldr	r3, [pc, #32]	; (1960 <igniteDrogue+0x54>)
    193e:	4798      	blx	r3
    }
    if (deploymentSettings.channelDSettings.ENABLED & (deploymentSettings.channelDSettings.TYPE == DROGUE_t)) {
    1940:	7ce3      	ldrb	r3, [r4, #19]
    1942:	2b01      	cmp	r3, #1
    1944:	d104      	bne.n	1950 <igniteDrogue+0x44>
    1946:	7ca3      	ldrb	r3, [r4, #18]
    1948:	2b00      	cmp	r3, #0
    194a:	d001      	beq.n	1950 <igniteDrogue+0x44>
        lightIgniterD();
    194c:	4b05      	ldr	r3, [pc, #20]	; (1964 <igniteDrogue+0x58>)
    194e:	4798      	blx	r3
    }
}
    1950:	bd10      	pop	{r4, pc}
    1952:	46c0      	nop			; (mov r8, r8)
    1954:	20000180 	.word	0x20000180
    1958:	00001821 	.word	0x00001821
    195c:	00001845 	.word	0x00001845
    1960:	00001869 	.word	0x00001869
    1964:	0000188d 	.word	0x0000188d

00001968 <computeKalmanGains>:
    dt = 0.005;

    /*
     Fill in state transition matrix and its transpose
    */
    phi[0][1]    = dt;
    1968:	4bdc      	ldr	r3, [pc, #880]	; (1cdc <computeKalmanGains+0x374>)
    196a:	48dd      	ldr	r0, [pc, #884]	; (1ce0 <computeKalmanGains+0x378>)
    196c:	49dd      	ldr	r1, [pc, #884]	; (1ce4 <computeKalmanGains+0x37c>)

double altitude_variance = ALTITUDESIGMA*ALTITUDESIGMA;
double acceleration_variance = ACCELERATIONSIGMA*ACCELERATIONSIGMA;
double model_variance  = MODELSIGMA*MODELSIGMA;

void computeKalmanGains() {
    196e:	b5f0      	push	{r4, r5, r6, r7, lr}
    dt = 0.005;

    /*
     Fill in state transition matrix and its transpose
    */
    phi[0][1]    = dt;
    1970:	6098      	str	r0, [r3, #8]
    1972:	60d9      	str	r1, [r3, #12]
    phi[1][2]    = dt;
    1974:	6298      	str	r0, [r3, #40]	; 0x28
    1976:	62d9      	str	r1, [r3, #44]	; 0x2c
    phi[0][2]    = dt*dt/2.0;
    1978:	48db      	ldr	r0, [pc, #876]	; (1ce8 <computeKalmanGains+0x380>)
    197a:	49dc      	ldr	r1, [pc, #880]	; (1cec <computeKalmanGains+0x384>)
    197c:	2200      	movs	r2, #0
    197e:	6118      	str	r0, [r3, #16]
    1980:	6159      	str	r1, [r3, #20]
    phit[2][0]    = dt*dt/2.0;

    for( i = 0; i <= 2; i++)
        for( j = 0; j <=1; j++) {
            lastkgain[i][j] = .001;
            kgain[i][j] = 1.0;
    1982:	2000      	movs	r0, #0
    1984:	49da      	ldr	r1, [pc, #872]	; (1cf0 <computeKalmanGains+0x388>)
    phit[2][1]    = dt;
    phit[2][0]    = dt*dt/2.0;

    for( i = 0; i <= 2; i++)
        for( j = 0; j <=1; j++) {
            lastkgain[i][j] = .001;
    1986:	4cdb      	ldr	r4, [pc, #876]	; (1cf4 <computeKalmanGains+0x38c>)
    1988:	468c      	mov	ip, r1
    198a:	4ddb      	ldr	r5, [pc, #876]	; (1cf8 <computeKalmanGains+0x390>)
            kgain[i][j] = 1.0;
    198c:	49db      	ldr	r1, [pc, #876]	; (1cfc <computeKalmanGains+0x394>)

double altitude_variance = ALTITUDESIGMA*ALTITUDESIGMA;
double acceleration_variance = ACCELERATIONSIGMA*ACCELERATIONSIGMA;
double model_variance  = MODELSIGMA*MODELSIGMA;

void computeKalmanGains() {
    198e:	b0cd      	sub	sp, #308	; 0x134
    1990:	ae40      	add	r6, sp, #256	; 0x100
    1992:	1997      	adds	r7, r2, r6
    1994:	4666      	mov	r6, ip
    1996:	1996      	adds	r6, r2, r6
    1998:	3210      	adds	r2, #16
    phit[2][1]    = dt;
    phit[2][0]    = dt*dt/2.0;

    for( i = 0; i <= 2; i++)
        for( j = 0; j <=1; j++) {
            lastkgain[i][j] = .001;
    199a:	603c      	str	r4, [r7, #0]
    199c:	607d      	str	r5, [r7, #4]
            kgain[i][j] = 1.0;
    199e:	6030      	str	r0, [r6, #0]
    19a0:	6071      	str	r1, [r6, #4]
    phit[2][1]    = dt;
    phit[2][0]    = dt*dt/2.0;

    for( i = 0; i <= 2; i++)
        for( j = 0; j <=1; j++) {
            lastkgain[i][j] = .001;
    19a2:	60bc      	str	r4, [r7, #8]
    19a4:	60fd      	str	r5, [r7, #12]
            kgain[i][j] = 1.0;
    19a6:	60b0      	str	r0, [r6, #8]
    19a8:	60f1      	str	r1, [r6, #12]
    phi[0][2]    = dt*dt/2.0;
    phit[1][0]    = dt;
    phit[2][1]    = dt;
    phit[2][0]    = dt*dt/2.0;

    for( i = 0; i <= 2; i++)
    19aa:	2a30      	cmp	r2, #48	; 0x30
    19ac:	d1f0      	bne.n	1990 <computeKalmanGains+0x28>

    /* Compute the Kalman gain matrix. */
    while(1) {
        /* Propagate state covariance */

        term[0][0] = phi[0][0] * pest[0][0] + phi[0][1] * pest[1][0] + phi[0][2] * pest[2][0];
    19ae:	6819      	ldr	r1, [r3, #0]
    19b0:	685a      	ldr	r2, [r3, #4]
    19b2:	911a      	str	r1, [sp, #104]	; 0x68
    19b4:	921b      	str	r2, [sp, #108]	; 0x6c
        term[0][1] = phi[0][0] * pest[0][1] + phi[0][1] * pest[1][1] + phi[0][2] * pest[2][1];
        term[0][2] = phi[0][0] * pest[0][2] + phi[0][1] * pest[1][2] + phi[0][2] * pest[2][2];
        term[1][0] = phi[1][0] * pest[0][0] + phi[1][1] * pest[1][0] + phi[1][2] * pest[2][0];
    19b6:	6999      	ldr	r1, [r3, #24]
    19b8:	69da      	ldr	r2, [r3, #28]
    19ba:	911c      	str	r1, [sp, #112]	; 0x70
    19bc:	921d      	str	r2, [sp, #116]	; 0x74
    19be:	6a19      	ldr	r1, [r3, #32]
    19c0:	6a5a      	ldr	r2, [r3, #36]	; 0x24
    19c2:	911e      	str	r1, [sp, #120]	; 0x78
    19c4:	921f      	str	r2, [sp, #124]	; 0x7c
        term[1][1] = phi[1][0] * pest[0][1] + phi[1][1] * pest[1][1] + phi[1][2] * pest[2][1];
        term[1][2] = phi[1][0] * pest[0][2] + phi[1][1] * pest[1][2] + phi[1][2] * pest[2][2];
        term[2][0] = phi[2][0] * pest[0][0] + phi[2][1] * pest[1][0] + phi[2][2] * pest[2][0];
    19c6:	6b19      	ldr	r1, [r3, #48]	; 0x30
    19c8:	6b5a      	ldr	r2, [r3, #52]	; 0x34
    19ca:	9120      	str	r1, [sp, #128]	; 0x80
    19cc:	9221      	str	r2, [sp, #132]	; 0x84
    19ce:	6b99      	ldr	r1, [r3, #56]	; 0x38
    19d0:	6bda      	ldr	r2, [r3, #60]	; 0x3c
    19d2:	9122      	str	r1, [sp, #136]	; 0x88
    19d4:	9223      	str	r2, [sp, #140]	; 0x8c
    19d6:	6c19      	ldr	r1, [r3, #64]	; 0x40
    19d8:	6c5a      	ldr	r2, [r3, #68]	; 0x44
    19da:	9124      	str	r1, [sp, #144]	; 0x90
    19dc:	9225      	str	r2, [sp, #148]	; 0x94
        pestp[1][2] = term[1][0] * phit[0][2] + term[1][1] * phit[1][2] + term[1][2] * phit[2][2];
        pestp[2][0] = term[2][0] * phit[0][0] + term[2][1] * phit[1][0] + term[2][2] * phit[2][0];
        pestp[2][1] = term[2][0] * phit[0][1] + term[2][1] * phit[1][1] + term[2][2] * phit[2][1];
        pestp[2][2] = term[2][0] * phit[0][2] + term[2][1] * phit[1][2] + term[2][2] * phit[2][2];

        pestp[2][2] = pestp[2][2] + model_variance;
    19de:	6c99      	ldr	r1, [r3, #72]	; 0x48
    19e0:	6cda      	ldr	r2, [r3, #76]	; 0x4c
    19e2:	913a      	str	r1, [sp, #232]	; 0xe8
    19e4:	923b      	str	r2, [sp, #236]	; 0xec
        /*
          Calculate Kalman Gain
        */
        det = (pestp[0][0]+altitude_variance)*(pestp[2][2] + acceleration_variance) - pestp[2][0] * pestp[0][2];
    19e6:	6d19      	ldr	r1, [r3, #80]	; 0x50
    19e8:	6d5a      	ldr	r2, [r3, #84]	; 0x54
    19ea:	6ddc      	ldr	r4, [r3, #92]	; 0x5c
    19ec:	6d9b      	ldr	r3, [r3, #88]	; 0x58
    19ee:	933e      	str	r3, [sp, #248]	; 0xf8
    19f0:	943f      	str	r4, [sp, #252]	; 0xfc
    19f2:	2300      	movs	r3, #0
    19f4:	4cc2      	ldr	r4, [pc, #776]	; (1d00 <computeKalmanGains+0x398>)
    19f6:	913c      	str	r1, [sp, #240]	; 0xf0
    19f8:	923d      	str	r2, [sp, #244]	; 0xf4
    19fa:	9302      	str	r3, [sp, #8]
    19fc:	9403      	str	r4, [sp, #12]
    19fe:	2300      	movs	r3, #0
    1a00:	2400      	movs	r4, #0
    1a02:	9310      	str	r3, [sp, #64]	; 0x40
    1a04:	9411      	str	r4, [sp, #68]	; 0x44
    1a06:	9300      	str	r3, [sp, #0]
    1a08:	9401      	str	r4, [sp, #4]
    1a0a:	9304      	str	r3, [sp, #16]
    1a0c:	9405      	str	r4, [sp, #20]
    1a0e:	2300      	movs	r3, #0
    1a10:	4cbb      	ldr	r4, [pc, #748]	; (1d00 <computeKalmanGains+0x398>)
    1a12:	930e      	str	r3, [sp, #56]	; 0x38
    1a14:	940f      	str	r4, [sp, #60]	; 0x3c
    1a16:	2300      	movs	r3, #0
    1a18:	2400      	movs	r4, #0
    1a1a:	9308      	str	r3, [sp, #32]
    1a1c:	9409      	str	r4, [sp, #36]	; 0x24
    1a1e:	930c      	str	r3, [sp, #48]	; 0x30
    1a20:	940d      	str	r4, [sp, #52]	; 0x34
    1a22:	930a      	str	r3, [sp, #40]	; 0x28
    1a24:	940b      	str	r4, [sp, #44]	; 0x2c
    1a26:	2480      	movs	r4, #128	; 0x80
    1a28:	2300      	movs	r3, #0
    1a2a:	05e4      	lsls	r4, r4, #23
    1a2c:	9306      	str	r3, [sp, #24]
    1a2e:	9407      	str	r4, [sp, #28]
    1a30:	2300      	movs	r3, #0
    1a32:	9338      	str	r3, [sp, #224]	; 0xe0

    /* Compute the Kalman gain matrix. */
    while(1) {
        /* Propagate state covariance */

        term[0][0] = phi[0][0] * pest[0][0] + phi[0][1] * pest[1][0] + phi[0][2] * pest[2][0];
    1a34:	4db3      	ldr	r5, [pc, #716]	; (1d04 <computeKalmanGains+0x39c>)
    1a36:	9a06      	ldr	r2, [sp, #24]
    1a38:	9b07      	ldr	r3, [sp, #28]
    1a3a:	981a      	ldr	r0, [sp, #104]	; 0x68
    1a3c:	991b      	ldr	r1, [sp, #108]	; 0x6c
    1a3e:	47a8      	blx	r5
    1a40:	4aa7      	ldr	r2, [pc, #668]	; (1ce0 <computeKalmanGains+0x378>)
    1a42:	0006      	movs	r6, r0
    1a44:	000f      	movs	r7, r1
    1a46:	9808      	ldr	r0, [sp, #32]
    1a48:	9909      	ldr	r1, [sp, #36]	; 0x24
    1a4a:	4ba6      	ldr	r3, [pc, #664]	; (1ce4 <computeKalmanGains+0x37c>)
    1a4c:	47a8      	blx	r5
    1a4e:	4cae      	ldr	r4, [pc, #696]	; (1d08 <computeKalmanGains+0x3a0>)
    1a50:	0002      	movs	r2, r0
    1a52:	000b      	movs	r3, r1
    1a54:	0030      	movs	r0, r6
    1a56:	0039      	movs	r1, r7
    1a58:	47a0      	blx	r4
    1a5a:	4aa3      	ldr	r2, [pc, #652]	; (1ce8 <computeKalmanGains+0x380>)
    1a5c:	0006      	movs	r6, r0
    1a5e:	000f      	movs	r7, r1
    1a60:	9800      	ldr	r0, [sp, #0]
    1a62:	9901      	ldr	r1, [sp, #4]
    1a64:	4ba1      	ldr	r3, [pc, #644]	; (1cec <computeKalmanGains+0x384>)
    1a66:	47a8      	blx	r5
    1a68:	0002      	movs	r2, r0
    1a6a:	000b      	movs	r3, r1
    1a6c:	0030      	movs	r0, r6
    1a6e:	0039      	movs	r1, r7
    1a70:	47a0      	blx	r4
        term[0][1] = phi[0][0] * pest[0][1] + phi[0][1] * pest[1][1] + phi[0][2] * pest[2][1];
    1a72:	9a0a      	ldr	r2, [sp, #40]	; 0x28
    1a74:	9b0b      	ldr	r3, [sp, #44]	; 0x2c

    /* Compute the Kalman gain matrix. */
    while(1) {
        /* Propagate state covariance */

        term[0][0] = phi[0][0] * pest[0][0] + phi[0][1] * pest[1][0] + phi[0][2] * pest[2][0];
    1a76:	9016      	str	r0, [sp, #88]	; 0x58
    1a78:	9117      	str	r1, [sp, #92]	; 0x5c
        term[0][1] = phi[0][0] * pest[0][1] + phi[0][1] * pest[1][1] + phi[0][2] * pest[2][1];
    1a7a:	981a      	ldr	r0, [sp, #104]	; 0x68
    1a7c:	991b      	ldr	r1, [sp, #108]	; 0x6c
    1a7e:	47a8      	blx	r5
    1a80:	4a97      	ldr	r2, [pc, #604]	; (1ce0 <computeKalmanGains+0x378>)
    1a82:	0006      	movs	r6, r0
    1a84:	000f      	movs	r7, r1
    1a86:	980e      	ldr	r0, [sp, #56]	; 0x38
    1a88:	990f      	ldr	r1, [sp, #60]	; 0x3c
    1a8a:	4b96      	ldr	r3, [pc, #600]	; (1ce4 <computeKalmanGains+0x37c>)
    1a8c:	47a8      	blx	r5
    1a8e:	0002      	movs	r2, r0
    1a90:	000b      	movs	r3, r1
    1a92:	0030      	movs	r0, r6
    1a94:	0039      	movs	r1, r7
    1a96:	47a0      	blx	r4
    1a98:	4a93      	ldr	r2, [pc, #588]	; (1ce8 <computeKalmanGains+0x380>)
    1a9a:	0006      	movs	r6, r0
    1a9c:	000f      	movs	r7, r1
    1a9e:	9810      	ldr	r0, [sp, #64]	; 0x40
    1aa0:	9911      	ldr	r1, [sp, #68]	; 0x44
    1aa2:	4b92      	ldr	r3, [pc, #584]	; (1cec <computeKalmanGains+0x384>)
    1aa4:	47a8      	blx	r5
    1aa6:	0002      	movs	r2, r0
    1aa8:	000b      	movs	r3, r1
    1aaa:	0030      	movs	r0, r6
    1aac:	0039      	movs	r1, r7
    1aae:	47a0      	blx	r4
        term[0][2] = phi[0][0] * pest[0][2] + phi[0][1] * pest[1][2] + phi[0][2] * pest[2][2];
    1ab0:	9a0c      	ldr	r2, [sp, #48]	; 0x30
    1ab2:	9b0d      	ldr	r3, [sp, #52]	; 0x34
    /* Compute the Kalman gain matrix. */
    while(1) {
        /* Propagate state covariance */

        term[0][0] = phi[0][0] * pest[0][0] + phi[0][1] * pest[1][0] + phi[0][2] * pest[2][0];
        term[0][1] = phi[0][0] * pest[0][1] + phi[0][1] * pest[1][1] + phi[0][2] * pest[2][1];
    1ab4:	9012      	str	r0, [sp, #72]	; 0x48
    1ab6:	9113      	str	r1, [sp, #76]	; 0x4c
        term[0][2] = phi[0][0] * pest[0][2] + phi[0][1] * pest[1][2] + phi[0][2] * pest[2][2];
    1ab8:	981a      	ldr	r0, [sp, #104]	; 0x68
    1aba:	991b      	ldr	r1, [sp, #108]	; 0x6c
    1abc:	47a8      	blx	r5
    1abe:	4a88      	ldr	r2, [pc, #544]	; (1ce0 <computeKalmanGains+0x378>)
    1ac0:	0006      	movs	r6, r0
    1ac2:	000f      	movs	r7, r1
    1ac4:	9804      	ldr	r0, [sp, #16]
    1ac6:	9905      	ldr	r1, [sp, #20]
    1ac8:	4b86      	ldr	r3, [pc, #536]	; (1ce4 <computeKalmanGains+0x37c>)
    1aca:	47a8      	blx	r5
    1acc:	0002      	movs	r2, r0
    1ace:	000b      	movs	r3, r1
    1ad0:	0030      	movs	r0, r6
    1ad2:	0039      	movs	r1, r7
    1ad4:	47a0      	blx	r4
    1ad6:	4a84      	ldr	r2, [pc, #528]	; (1ce8 <computeKalmanGains+0x380>)
    1ad8:	0006      	movs	r6, r0
    1ada:	000f      	movs	r7, r1
    1adc:	9802      	ldr	r0, [sp, #8]
    1ade:	9903      	ldr	r1, [sp, #12]
    1ae0:	4b82      	ldr	r3, [pc, #520]	; (1cec <computeKalmanGains+0x384>)
    1ae2:	47a8      	blx	r5
    1ae4:	0002      	movs	r2, r0
    1ae6:	000b      	movs	r3, r1
    1ae8:	0030      	movs	r0, r6
    1aea:	0039      	movs	r1, r7
    1aec:	47a0      	blx	r4
        term[1][0] = phi[1][0] * pest[0][0] + phi[1][1] * pest[1][0] + phi[1][2] * pest[2][0];
    1aee:	9a06      	ldr	r2, [sp, #24]
    1af0:	9b07      	ldr	r3, [sp, #28]
    while(1) {
        /* Propagate state covariance */

        term[0][0] = phi[0][0] * pest[0][0] + phi[0][1] * pest[1][0] + phi[0][2] * pest[2][0];
        term[0][1] = phi[0][0] * pest[0][1] + phi[0][1] * pest[1][1] + phi[0][2] * pest[2][1];
        term[0][2] = phi[0][0] * pest[0][2] + phi[0][1] * pest[1][2] + phi[0][2] * pest[2][2];
    1af2:	9014      	str	r0, [sp, #80]	; 0x50
    1af4:	9115      	str	r1, [sp, #84]	; 0x54
        term[1][0] = phi[1][0] * pest[0][0] + phi[1][1] * pest[1][0] + phi[1][2] * pest[2][0];
    1af6:	981c      	ldr	r0, [sp, #112]	; 0x70
    1af8:	991d      	ldr	r1, [sp, #116]	; 0x74
    1afa:	47a8      	blx	r5
    1afc:	9a08      	ldr	r2, [sp, #32]
    1afe:	9b09      	ldr	r3, [sp, #36]	; 0x24
    1b00:	0006      	movs	r6, r0
    1b02:	000f      	movs	r7, r1
    1b04:	981e      	ldr	r0, [sp, #120]	; 0x78
    1b06:	991f      	ldr	r1, [sp, #124]	; 0x7c
    1b08:	47a8      	blx	r5
    1b0a:	0002      	movs	r2, r0
    1b0c:	000b      	movs	r3, r1
    1b0e:	0030      	movs	r0, r6
    1b10:	0039      	movs	r1, r7
    1b12:	47a0      	blx	r4
    1b14:	4a72      	ldr	r2, [pc, #456]	; (1ce0 <computeKalmanGains+0x378>)
    1b16:	0006      	movs	r6, r0
    1b18:	000f      	movs	r7, r1
    1b1a:	9800      	ldr	r0, [sp, #0]
    1b1c:	9901      	ldr	r1, [sp, #4]
    1b1e:	4b71      	ldr	r3, [pc, #452]	; (1ce4 <computeKalmanGains+0x37c>)
    1b20:	47a8      	blx	r5
    1b22:	0002      	movs	r2, r0
    1b24:	000b      	movs	r3, r1
    1b26:	0030      	movs	r0, r6
    1b28:	0039      	movs	r1, r7
    1b2a:	47a0      	blx	r4
        term[1][1] = phi[1][0] * pest[0][1] + phi[1][1] * pest[1][1] + phi[1][2] * pest[2][1];
    1b2c:	9a0a      	ldr	r2, [sp, #40]	; 0x28
    1b2e:	9b0b      	ldr	r3, [sp, #44]	; 0x2c
        /* Propagate state covariance */

        term[0][0] = phi[0][0] * pest[0][0] + phi[0][1] * pest[1][0] + phi[0][2] * pest[2][0];
        term[0][1] = phi[0][0] * pest[0][1] + phi[0][1] * pest[1][1] + phi[0][2] * pest[2][1];
        term[0][2] = phi[0][0] * pest[0][2] + phi[0][1] * pest[1][2] + phi[0][2] * pest[2][2];
        term[1][0] = phi[1][0] * pest[0][0] + phi[1][1] * pest[1][0] + phi[1][2] * pest[2][0];
    1b30:	9018      	str	r0, [sp, #96]	; 0x60
    1b32:	9119      	str	r1, [sp, #100]	; 0x64
        term[1][1] = phi[1][0] * pest[0][1] + phi[1][1] * pest[1][1] + phi[1][2] * pest[2][1];
    1b34:	981c      	ldr	r0, [sp, #112]	; 0x70
    1b36:	991d      	ldr	r1, [sp, #116]	; 0x74
    1b38:	47a8      	blx	r5
    1b3a:	9a0e      	ldr	r2, [sp, #56]	; 0x38
    1b3c:	9b0f      	ldr	r3, [sp, #60]	; 0x3c
    1b3e:	0006      	movs	r6, r0
    1b40:	000f      	movs	r7, r1
    1b42:	981e      	ldr	r0, [sp, #120]	; 0x78
    1b44:	991f      	ldr	r1, [sp, #124]	; 0x7c
    1b46:	47a8      	blx	r5
    1b48:	0002      	movs	r2, r0
    1b4a:	000b      	movs	r3, r1
    1b4c:	0030      	movs	r0, r6
    1b4e:	0039      	movs	r1, r7
    1b50:	47a0      	blx	r4
    1b52:	4a63      	ldr	r2, [pc, #396]	; (1ce0 <computeKalmanGains+0x378>)
    1b54:	0006      	movs	r6, r0
    1b56:	000f      	movs	r7, r1
    1b58:	9810      	ldr	r0, [sp, #64]	; 0x40
    1b5a:	9911      	ldr	r1, [sp, #68]	; 0x44
    1b5c:	4b61      	ldr	r3, [pc, #388]	; (1ce4 <computeKalmanGains+0x37c>)
    1b5e:	47a8      	blx	r5
    1b60:	0002      	movs	r2, r0
    1b62:	000b      	movs	r3, r1
    1b64:	0030      	movs	r0, r6
    1b66:	0039      	movs	r1, r7
    1b68:	47a0      	blx	r4
        term[1][2] = phi[1][0] * pest[0][2] + phi[1][1] * pest[1][2] + phi[1][2] * pest[2][2];
    1b6a:	9a0c      	ldr	r2, [sp, #48]	; 0x30
    1b6c:	9b0d      	ldr	r3, [sp, #52]	; 0x34

        term[0][0] = phi[0][0] * pest[0][0] + phi[0][1] * pest[1][0] + phi[0][2] * pest[2][0];
        term[0][1] = phi[0][0] * pest[0][1] + phi[0][1] * pest[1][1] + phi[0][2] * pest[2][1];
        term[0][2] = phi[0][0] * pest[0][2] + phi[0][1] * pest[1][2] + phi[0][2] * pest[2][2];
        term[1][0] = phi[1][0] * pest[0][0] + phi[1][1] * pest[1][0] + phi[1][2] * pest[2][0];
        term[1][1] = phi[1][0] * pest[0][1] + phi[1][1] * pest[1][1] + phi[1][2] * pest[2][1];
    1b6e:	9026      	str	r0, [sp, #152]	; 0x98
    1b70:	9127      	str	r1, [sp, #156]	; 0x9c
        term[1][2] = phi[1][0] * pest[0][2] + phi[1][1] * pest[1][2] + phi[1][2] * pest[2][2];
    1b72:	981c      	ldr	r0, [sp, #112]	; 0x70
    1b74:	991d      	ldr	r1, [sp, #116]	; 0x74
    1b76:	47a8      	blx	r5
    1b78:	9a04      	ldr	r2, [sp, #16]
    1b7a:	9b05      	ldr	r3, [sp, #20]
    1b7c:	0006      	movs	r6, r0
    1b7e:	000f      	movs	r7, r1
    1b80:	981e      	ldr	r0, [sp, #120]	; 0x78
    1b82:	991f      	ldr	r1, [sp, #124]	; 0x7c
    1b84:	47a8      	blx	r5
    1b86:	0002      	movs	r2, r0
    1b88:	000b      	movs	r3, r1
    1b8a:	0030      	movs	r0, r6
    1b8c:	0039      	movs	r1, r7
    1b8e:	47a0      	blx	r4
    1b90:	4a53      	ldr	r2, [pc, #332]	; (1ce0 <computeKalmanGains+0x378>)
    1b92:	0006      	movs	r6, r0
    1b94:	000f      	movs	r7, r1
    1b96:	9802      	ldr	r0, [sp, #8]
    1b98:	9903      	ldr	r1, [sp, #12]
    1b9a:	4b52      	ldr	r3, [pc, #328]	; (1ce4 <computeKalmanGains+0x37c>)
    1b9c:	47a8      	blx	r5
    1b9e:	0002      	movs	r2, r0
    1ba0:	000b      	movs	r3, r1
    1ba2:	0030      	movs	r0, r6
    1ba4:	0039      	movs	r1, r7
    1ba6:	47a0      	blx	r4
        term[2][0] = phi[2][0] * pest[0][0] + phi[2][1] * pest[1][0] + phi[2][2] * pest[2][0];
    1ba8:	9a06      	ldr	r2, [sp, #24]
    1baa:	9b07      	ldr	r3, [sp, #28]
        term[0][0] = phi[0][0] * pest[0][0] + phi[0][1] * pest[1][0] + phi[0][2] * pest[2][0];
        term[0][1] = phi[0][0] * pest[0][1] + phi[0][1] * pest[1][1] + phi[0][2] * pest[2][1];
        term[0][2] = phi[0][0] * pest[0][2] + phi[0][1] * pest[1][2] + phi[0][2] * pest[2][2];
        term[1][0] = phi[1][0] * pest[0][0] + phi[1][1] * pest[1][0] + phi[1][2] * pest[2][0];
        term[1][1] = phi[1][0] * pest[0][1] + phi[1][1] * pest[1][1] + phi[1][2] * pest[2][1];
        term[1][2] = phi[1][0] * pest[0][2] + phi[1][1] * pest[1][2] + phi[1][2] * pest[2][2];
    1bac:	9028      	str	r0, [sp, #160]	; 0xa0
    1bae:	9129      	str	r1, [sp, #164]	; 0xa4
        term[2][0] = phi[2][0] * pest[0][0] + phi[2][1] * pest[1][0] + phi[2][2] * pest[2][0];
    1bb0:	9820      	ldr	r0, [sp, #128]	; 0x80
    1bb2:	9921      	ldr	r1, [sp, #132]	; 0x84
    1bb4:	47a8      	blx	r5
    1bb6:	9a08      	ldr	r2, [sp, #32]
    1bb8:	9b09      	ldr	r3, [sp, #36]	; 0x24
    1bba:	0006      	movs	r6, r0
    1bbc:	000f      	movs	r7, r1
    1bbe:	9822      	ldr	r0, [sp, #136]	; 0x88
    1bc0:	9923      	ldr	r1, [sp, #140]	; 0x8c
    1bc2:	47a8      	blx	r5
    1bc4:	0002      	movs	r2, r0
    1bc6:	000b      	movs	r3, r1
    1bc8:	0030      	movs	r0, r6
    1bca:	0039      	movs	r1, r7
    1bcc:	47a0      	blx	r4
    1bce:	9a00      	ldr	r2, [sp, #0]
    1bd0:	9b01      	ldr	r3, [sp, #4]
    1bd2:	0006      	movs	r6, r0
    1bd4:	000f      	movs	r7, r1
    1bd6:	9824      	ldr	r0, [sp, #144]	; 0x90
    1bd8:	9925      	ldr	r1, [sp, #148]	; 0x94
    1bda:	47a8      	blx	r5
    1bdc:	0002      	movs	r2, r0
    1bde:	000b      	movs	r3, r1
    1be0:	0030      	movs	r0, r6
    1be2:	0039      	movs	r1, r7
    1be4:	47a0      	blx	r4
        term[2][1] = phi[2][0] * pest[0][1] + phi[2][1] * pest[1][1] + phi[2][2] * pest[2][1];
    1be6:	9a0a      	ldr	r2, [sp, #40]	; 0x28
    1be8:	9b0b      	ldr	r3, [sp, #44]	; 0x2c
        term[0][1] = phi[0][0] * pest[0][1] + phi[0][1] * pest[1][1] + phi[0][2] * pest[2][1];
        term[0][2] = phi[0][0] * pest[0][2] + phi[0][1] * pest[1][2] + phi[0][2] * pest[2][2];
        term[1][0] = phi[1][0] * pest[0][0] + phi[1][1] * pest[1][0] + phi[1][2] * pest[2][0];
        term[1][1] = phi[1][0] * pest[0][1] + phi[1][1] * pest[1][1] + phi[1][2] * pest[2][1];
        term[1][2] = phi[1][0] * pest[0][2] + phi[1][1] * pest[1][2] + phi[1][2] * pest[2][2];
        term[2][0] = phi[2][0] * pest[0][0] + phi[2][1] * pest[1][0] + phi[2][2] * pest[2][0];
    1bea:	902e      	str	r0, [sp, #184]	; 0xb8
    1bec:	912f      	str	r1, [sp, #188]	; 0xbc
        term[2][1] = phi[2][0] * pest[0][1] + phi[2][1] * pest[1][1] + phi[2][2] * pest[2][1];
    1bee:	9820      	ldr	r0, [sp, #128]	; 0x80
    1bf0:	9921      	ldr	r1, [sp, #132]	; 0x84
    1bf2:	47a8      	blx	r5
    1bf4:	9a0e      	ldr	r2, [sp, #56]	; 0x38
    1bf6:	9b0f      	ldr	r3, [sp, #60]	; 0x3c
    1bf8:	0006      	movs	r6, r0
    1bfa:	000f      	movs	r7, r1
    1bfc:	9822      	ldr	r0, [sp, #136]	; 0x88
    1bfe:	9923      	ldr	r1, [sp, #140]	; 0x8c
    1c00:	47a8      	blx	r5
    1c02:	0002      	movs	r2, r0
    1c04:	000b      	movs	r3, r1
    1c06:	0030      	movs	r0, r6
    1c08:	0039      	movs	r1, r7
    1c0a:	47a0      	blx	r4
    1c0c:	9a10      	ldr	r2, [sp, #64]	; 0x40
    1c0e:	9b11      	ldr	r3, [sp, #68]	; 0x44
    1c10:	0006      	movs	r6, r0
    1c12:	000f      	movs	r7, r1
    1c14:	9824      	ldr	r0, [sp, #144]	; 0x90
    1c16:	9925      	ldr	r1, [sp, #148]	; 0x94
    1c18:	47a8      	blx	r5
    1c1a:	0002      	movs	r2, r0
    1c1c:	000b      	movs	r3, r1
    1c1e:	0030      	movs	r0, r6
    1c20:	0039      	movs	r1, r7
    1c22:	47a0      	blx	r4
        term[2][2] = phi[2][0] * pest[0][2] + phi[2][1] * pest[1][2] + phi[2][2] * pest[2][2];
    1c24:	9a0c      	ldr	r2, [sp, #48]	; 0x30
    1c26:	9b0d      	ldr	r3, [sp, #52]	; 0x34
        term[0][2] = phi[0][0] * pest[0][2] + phi[0][1] * pest[1][2] + phi[0][2] * pest[2][2];
        term[1][0] = phi[1][0] * pest[0][0] + phi[1][1] * pest[1][0] + phi[1][2] * pest[2][0];
        term[1][1] = phi[1][0] * pest[0][1] + phi[1][1] * pest[1][1] + phi[1][2] * pest[2][1];
        term[1][2] = phi[1][0] * pest[0][2] + phi[1][1] * pest[1][2] + phi[1][2] * pest[2][2];
        term[2][0] = phi[2][0] * pest[0][0] + phi[2][1] * pest[1][0] + phi[2][2] * pest[2][0];
        term[2][1] = phi[2][0] * pest[0][1] + phi[2][1] * pest[1][1] + phi[2][2] * pest[2][1];
    1c28:	9006      	str	r0, [sp, #24]
    1c2a:	9107      	str	r1, [sp, #28]
        term[2][2] = phi[2][0] * pest[0][2] + phi[2][1] * pest[1][2] + phi[2][2] * pest[2][2];
    1c2c:	9820      	ldr	r0, [sp, #128]	; 0x80
    1c2e:	9921      	ldr	r1, [sp, #132]	; 0x84
    1c30:	47a8      	blx	r5
    1c32:	9a04      	ldr	r2, [sp, #16]
    1c34:	9b05      	ldr	r3, [sp, #20]
    1c36:	0006      	movs	r6, r0
    1c38:	000f      	movs	r7, r1
    1c3a:	9822      	ldr	r0, [sp, #136]	; 0x88
    1c3c:	9923      	ldr	r1, [sp, #140]	; 0x8c
    1c3e:	47a8      	blx	r5
    1c40:	0002      	movs	r2, r0
    1c42:	000b      	movs	r3, r1
    1c44:	0030      	movs	r0, r6
    1c46:	0039      	movs	r1, r7
    1c48:	47a0      	blx	r4
    1c4a:	9a02      	ldr	r2, [sp, #8]
    1c4c:	9b03      	ldr	r3, [sp, #12]
    1c4e:	0006      	movs	r6, r0
    1c50:	000f      	movs	r7, r1
    1c52:	9824      	ldr	r0, [sp, #144]	; 0x90
    1c54:	9925      	ldr	r1, [sp, #148]	; 0x94
    1c56:	47a8      	blx	r5
    1c58:	0002      	movs	r2, r0
    1c5a:	000b      	movs	r3, r1
    1c5c:	0030      	movs	r0, r6
    1c5e:	0039      	movs	r1, r7
    1c60:	47a0      	blx	r4

        pestp[0][0] = term[0][0] * phit[0][0] + term[0][1] * phit[1][0] + term[0][2] * phit[2][0];
    1c62:	4a1f      	ldr	r2, [pc, #124]	; (1ce0 <computeKalmanGains+0x378>)
        term[1][0] = phi[1][0] * pest[0][0] + phi[1][1] * pest[1][0] + phi[1][2] * pest[2][0];
        term[1][1] = phi[1][0] * pest[0][1] + phi[1][1] * pest[1][1] + phi[1][2] * pest[2][1];
        term[1][2] = phi[1][0] * pest[0][2] + phi[1][1] * pest[1][2] + phi[1][2] * pest[2][2];
        term[2][0] = phi[2][0] * pest[0][0] + phi[2][1] * pest[1][0] + phi[2][2] * pest[2][0];
        term[2][1] = phi[2][0] * pest[0][1] + phi[2][1] * pest[1][1] + phi[2][2] * pest[2][1];
        term[2][2] = phi[2][0] * pest[0][2] + phi[2][1] * pest[1][2] + phi[2][2] * pest[2][2];
    1c64:	9002      	str	r0, [sp, #8]
    1c66:	9103      	str	r1, [sp, #12]

        pestp[0][0] = term[0][0] * phit[0][0] + term[0][1] * phit[1][0] + term[0][2] * phit[2][0];
    1c68:	9812      	ldr	r0, [sp, #72]	; 0x48
    1c6a:	9913      	ldr	r1, [sp, #76]	; 0x4c
    1c6c:	4b1d      	ldr	r3, [pc, #116]	; (1ce4 <computeKalmanGains+0x37c>)
    1c6e:	47a8      	blx	r5
    1c70:	9a16      	ldr	r2, [sp, #88]	; 0x58
    1c72:	9b17      	ldr	r3, [sp, #92]	; 0x5c
    1c74:	47a0      	blx	r4
    1c76:	4a1c      	ldr	r2, [pc, #112]	; (1ce8 <computeKalmanGains+0x380>)
    1c78:	0006      	movs	r6, r0
    1c7a:	000f      	movs	r7, r1
    1c7c:	9814      	ldr	r0, [sp, #80]	; 0x50
    1c7e:	9915      	ldr	r1, [sp, #84]	; 0x54
    1c80:	4b1a      	ldr	r3, [pc, #104]	; (1cec <computeKalmanGains+0x384>)
    1c82:	47a8      	blx	r5
    1c84:	0002      	movs	r2, r0
    1c86:	000b      	movs	r3, r1
    1c88:	0030      	movs	r0, r6
    1c8a:	0039      	movs	r1, r7
    1c8c:	47a0      	blx	r4
        pestp[0][1] = term[0][0] * phit[0][1] + term[0][1] * phit[1][1] + term[0][2] * phit[2][1];
    1c8e:	2200      	movs	r2, #0
        term[1][2] = phi[1][0] * pest[0][2] + phi[1][1] * pest[1][2] + phi[1][2] * pest[2][2];
        term[2][0] = phi[2][0] * pest[0][0] + phi[2][1] * pest[1][0] + phi[2][2] * pest[2][0];
        term[2][1] = phi[2][0] * pest[0][1] + phi[2][1] * pest[1][1] + phi[2][2] * pest[2][1];
        term[2][2] = phi[2][0] * pest[0][2] + phi[2][1] * pest[1][2] + phi[2][2] * pest[2][2];

        pestp[0][0] = term[0][0] * phit[0][0] + term[0][1] * phit[1][0] + term[0][2] * phit[2][0];
    1c90:	9008      	str	r0, [sp, #32]
    1c92:	9109      	str	r1, [sp, #36]	; 0x24
        pestp[0][1] = term[0][0] * phit[0][1] + term[0][1] * phit[1][1] + term[0][2] * phit[2][1];
    1c94:	9816      	ldr	r0, [sp, #88]	; 0x58
    1c96:	9917      	ldr	r1, [sp, #92]	; 0x5c
    1c98:	2300      	movs	r3, #0
    1c9a:	47a8      	blx	r5
    1c9c:	0006      	movs	r6, r0
    1c9e:	000f      	movs	r7, r1
    1ca0:	0002      	movs	r2, r0
    1ca2:	000b      	movs	r3, r1
    1ca4:	9812      	ldr	r0, [sp, #72]	; 0x48
    1ca6:	9913      	ldr	r1, [sp, #76]	; 0x4c
    1ca8:	47a0      	blx	r4
    1caa:	4a0d      	ldr	r2, [pc, #52]	; (1ce0 <computeKalmanGains+0x378>)
    1cac:	9000      	str	r0, [sp, #0]
    1cae:	9101      	str	r1, [sp, #4]
    1cb0:	9814      	ldr	r0, [sp, #80]	; 0x50
    1cb2:	9915      	ldr	r1, [sp, #84]	; 0x54
    1cb4:	4b0b      	ldr	r3, [pc, #44]	; (1ce4 <computeKalmanGains+0x37c>)
    1cb6:	47a8      	blx	r5
    1cb8:	0002      	movs	r2, r0
    1cba:	000b      	movs	r3, r1
    1cbc:	9800      	ldr	r0, [sp, #0]
    1cbe:	9901      	ldr	r1, [sp, #4]
    1cc0:	47a0      	blx	r4
        pestp[0][2] = term[0][0] * phit[0][2] + term[0][1] * phit[1][2] + term[0][2] * phit[2][2];
    1cc2:	2200      	movs	r2, #0
        term[2][0] = phi[2][0] * pest[0][0] + phi[2][1] * pest[1][0] + phi[2][2] * pest[2][0];
        term[2][1] = phi[2][0] * pest[0][1] + phi[2][1] * pest[1][1] + phi[2][2] * pest[2][1];
        term[2][2] = phi[2][0] * pest[0][2] + phi[2][1] * pest[1][2] + phi[2][2] * pest[2][2];

        pestp[0][0] = term[0][0] * phit[0][0] + term[0][1] * phit[1][0] + term[0][2] * phit[2][0];
        pestp[0][1] = term[0][0] * phit[0][1] + term[0][1] * phit[1][1] + term[0][2] * phit[2][1];
    1cc4:	9030      	str	r0, [sp, #192]	; 0xc0
    1cc6:	9131      	str	r1, [sp, #196]	; 0xc4
        pestp[0][2] = term[0][0] * phit[0][2] + term[0][1] * phit[1][2] + term[0][2] * phit[2][2];
    1cc8:	9812      	ldr	r0, [sp, #72]	; 0x48
    1cca:	9913      	ldr	r1, [sp, #76]	; 0x4c
    1ccc:	2300      	movs	r3, #0
    1cce:	47a8      	blx	r5
    1cd0:	0032      	movs	r2, r6
    1cd2:	003b      	movs	r3, r7
    1cd4:	47a0      	blx	r4
    1cd6:	9a14      	ldr	r2, [sp, #80]	; 0x50
    1cd8:	9b15      	ldr	r3, [sp, #84]	; 0x54
    1cda:	e017      	b.n	1d0c <computeKalmanGains+0x3a4>
    1cdc:	20000010 	.word	0x20000010
    1ce0:	47ae147b 	.word	0x47ae147b
    1ce4:	3f747ae1 	.word	0x3f747ae1
    1ce8:	eb1c432d 	.word	0xeb1c432d
    1cec:	3eea36e2 	.word	0x3eea36e2
    1cf0:	20000348 	.word	0x20000348
    1cf4:	d2f1a9fc 	.word	0xd2f1a9fc
    1cf8:	3f50624d 	.word	0x3f50624d
    1cfc:	3ff00000 	.word	0x3ff00000
    1d00:	40220000 	.word	0x40220000
    1d04:	00006291 	.word	0x00006291
    1d08:	000053f1 	.word	0x000053f1
    1d0c:	47a0      	blx	r4
        pestp[1][0] = term[1][0] * phit[0][0] + term[1][1] * phit[1][0] + term[1][2] * phit[2][0];
    1d0e:	4ad9      	ldr	r2, [pc, #868]	; (2074 <STACK_SIZE+0x74>)
        term[2][1] = phi[2][0] * pest[0][1] + phi[2][1] * pest[1][1] + phi[2][2] * pest[2][1];
        term[2][2] = phi[2][0] * pest[0][2] + phi[2][1] * pest[1][2] + phi[2][2] * pest[2][2];

        pestp[0][0] = term[0][0] * phit[0][0] + term[0][1] * phit[1][0] + term[0][2] * phit[2][0];
        pestp[0][1] = term[0][0] * phit[0][1] + term[0][1] * phit[1][1] + term[0][2] * phit[2][1];
        pestp[0][2] = term[0][0] * phit[0][2] + term[0][1] * phit[1][2] + term[0][2] * phit[2][2];
    1d10:	9112      	str	r1, [sp, #72]	; 0x48
    1d12:	9004      	str	r0, [sp, #16]
    1d14:	9116      	str	r1, [sp, #88]	; 0x58
        pestp[1][0] = term[1][0] * phit[0][0] + term[1][1] * phit[1][0] + term[1][2] * phit[2][0];
    1d16:	4bd8      	ldr	r3, [pc, #864]	; (2078 <STACK_SIZE+0x78>)
    1d18:	9826      	ldr	r0, [sp, #152]	; 0x98
    1d1a:	9927      	ldr	r1, [sp, #156]	; 0x9c
    1d1c:	47a8      	blx	r5
    1d1e:	9a18      	ldr	r2, [sp, #96]	; 0x60
    1d20:	9b19      	ldr	r3, [sp, #100]	; 0x64
    1d22:	47a0      	blx	r4
    1d24:	4ad5      	ldr	r2, [pc, #852]	; (207c <STACK_SIZE+0x7c>)
    1d26:	0006      	movs	r6, r0
    1d28:	000f      	movs	r7, r1
    1d2a:	9828      	ldr	r0, [sp, #160]	; 0xa0
    1d2c:	9929      	ldr	r1, [sp, #164]	; 0xa4
    1d2e:	4bd4      	ldr	r3, [pc, #848]	; (2080 <STACK_SIZE+0x80>)
    1d30:	47a8      	blx	r5
    1d32:	0002      	movs	r2, r0
    1d34:	000b      	movs	r3, r1
    1d36:	0030      	movs	r0, r6
    1d38:	0039      	movs	r1, r7
    1d3a:	47a0      	blx	r4
        pestp[1][1] = term[1][0] * phit[0][1] + term[1][1] * phit[1][1] + term[1][2] * phit[2][1];
    1d3c:	2200      	movs	r2, #0
        term[2][2] = phi[2][0] * pest[0][2] + phi[2][1] * pest[1][2] + phi[2][2] * pest[2][2];

        pestp[0][0] = term[0][0] * phit[0][0] + term[0][1] * phit[1][0] + term[0][2] * phit[2][0];
        pestp[0][1] = term[0][0] * phit[0][1] + term[0][1] * phit[1][1] + term[0][2] * phit[2][1];
        pestp[0][2] = term[0][0] * phit[0][2] + term[0][1] * phit[1][2] + term[0][2] * phit[2][2];
        pestp[1][0] = term[1][0] * phit[0][0] + term[1][1] * phit[1][0] + term[1][2] * phit[2][0];
    1d3e:	902a      	str	r0, [sp, #168]	; 0xa8
    1d40:	912b      	str	r1, [sp, #172]	; 0xac
        pestp[1][1] = term[1][0] * phit[0][1] + term[1][1] * phit[1][1] + term[1][2] * phit[2][1];
    1d42:	9818      	ldr	r0, [sp, #96]	; 0x60
    1d44:	9919      	ldr	r1, [sp, #100]	; 0x64
    1d46:	2300      	movs	r3, #0
    1d48:	47a8      	blx	r5
        pestp[1][2] = term[1][0] * phit[0][2] + term[1][1] * phit[1][2] + term[1][2] * phit[2][2];
    1d4a:	2200      	movs	r2, #0

        pestp[0][0] = term[0][0] * phit[0][0] + term[0][1] * phit[1][0] + term[0][2] * phit[2][0];
        pestp[0][1] = term[0][0] * phit[0][1] + term[0][1] * phit[1][1] + term[0][2] * phit[2][1];
        pestp[0][2] = term[0][0] * phit[0][2] + term[0][1] * phit[1][2] + term[0][2] * phit[2][2];
        pestp[1][0] = term[1][0] * phit[0][0] + term[1][1] * phit[1][0] + term[1][2] * phit[2][0];
        pestp[1][1] = term[1][0] * phit[0][1] + term[1][1] * phit[1][1] + term[1][2] * phit[2][1];
    1d4c:	9032      	str	r0, [sp, #200]	; 0xc8
    1d4e:	9133      	str	r1, [sp, #204]	; 0xcc
        pestp[1][2] = term[1][0] * phit[0][2] + term[1][1] * phit[1][2] + term[1][2] * phit[2][2];
    1d50:	9826      	ldr	r0, [sp, #152]	; 0x98
    1d52:	9927      	ldr	r1, [sp, #156]	; 0x9c
    1d54:	2300      	movs	r3, #0
    1d56:	47a8      	blx	r5
    1d58:	9a32      	ldr	r2, [sp, #200]	; 0xc8
    1d5a:	9b33      	ldr	r3, [sp, #204]	; 0xcc
    1d5c:	47a0      	blx	r4
    1d5e:	9a28      	ldr	r2, [sp, #160]	; 0xa0
    1d60:	9b29      	ldr	r3, [sp, #164]	; 0xa4
    1d62:	47a0      	blx	r4
        pestp[2][0] = term[2][0] * phit[0][0] + term[2][1] * phit[1][0] + term[2][2] * phit[2][0];
    1d64:	4ac3      	ldr	r2, [pc, #780]	; (2074 <STACK_SIZE+0x74>)
        pestp[0][0] = term[0][0] * phit[0][0] + term[0][1] * phit[1][0] + term[0][2] * phit[2][0];
        pestp[0][1] = term[0][0] * phit[0][1] + term[0][1] * phit[1][1] + term[0][2] * phit[2][1];
        pestp[0][2] = term[0][0] * phit[0][2] + term[0][1] * phit[1][2] + term[0][2] * phit[2][2];
        pestp[1][0] = term[1][0] * phit[0][0] + term[1][1] * phit[1][0] + term[1][2] * phit[2][0];
        pestp[1][1] = term[1][0] * phit[0][1] + term[1][1] * phit[1][1] + term[1][2] * phit[2][1];
        pestp[1][2] = term[1][0] * phit[0][2] + term[1][1] * phit[1][2] + term[1][2] * phit[2][2];
    1d66:	902c      	str	r0, [sp, #176]	; 0xb0
    1d68:	912d      	str	r1, [sp, #180]	; 0xb4
        pestp[2][0] = term[2][0] * phit[0][0] + term[2][1] * phit[1][0] + term[2][2] * phit[2][0];
    1d6a:	9806      	ldr	r0, [sp, #24]
    1d6c:	9907      	ldr	r1, [sp, #28]
    1d6e:	4bc2      	ldr	r3, [pc, #776]	; (2078 <STACK_SIZE+0x78>)
    1d70:	47a8      	blx	r5
    1d72:	9a2e      	ldr	r2, [sp, #184]	; 0xb8
    1d74:	9b2f      	ldr	r3, [sp, #188]	; 0xbc
    1d76:	47a0      	blx	r4
    1d78:	4ac0      	ldr	r2, [pc, #768]	; (207c <STACK_SIZE+0x7c>)
    1d7a:	0006      	movs	r6, r0
    1d7c:	000f      	movs	r7, r1
    1d7e:	9802      	ldr	r0, [sp, #8]
    1d80:	9903      	ldr	r1, [sp, #12]
    1d82:	4bbf      	ldr	r3, [pc, #764]	; (2080 <STACK_SIZE+0x80>)
    1d84:	47a8      	blx	r5
    1d86:	0002      	movs	r2, r0
    1d88:	000b      	movs	r3, r1
    1d8a:	0030      	movs	r0, r6
    1d8c:	0039      	movs	r1, r7
    1d8e:	47a0      	blx	r4
        pestp[2][1] = term[2][0] * phit[0][1] + term[2][1] * phit[1][1] + term[2][2] * phit[2][1];
    1d90:	2200      	movs	r2, #0
        pestp[0][1] = term[0][0] * phit[0][1] + term[0][1] * phit[1][1] + term[0][2] * phit[2][1];
        pestp[0][2] = term[0][0] * phit[0][2] + term[0][1] * phit[1][2] + term[0][2] * phit[2][2];
        pestp[1][0] = term[1][0] * phit[0][0] + term[1][1] * phit[1][0] + term[1][2] * phit[2][0];
        pestp[1][1] = term[1][0] * phit[0][1] + term[1][1] * phit[1][1] + term[1][2] * phit[2][1];
        pestp[1][2] = term[1][0] * phit[0][2] + term[1][1] * phit[1][2] + term[1][2] * phit[2][2];
        pestp[2][0] = term[2][0] * phit[0][0] + term[2][1] * phit[1][0] + term[2][2] * phit[2][0];
    1d92:	9000      	str	r0, [sp, #0]
    1d94:	9101      	str	r1, [sp, #4]
        pestp[2][1] = term[2][0] * phit[0][1] + term[2][1] * phit[1][1] + term[2][2] * phit[2][1];
    1d96:	982e      	ldr	r0, [sp, #184]	; 0xb8
    1d98:	992f      	ldr	r1, [sp, #188]	; 0xbc
    1d9a:	2300      	movs	r3, #0
    1d9c:	47a8      	blx	r5
    1d9e:	0006      	movs	r6, r0
    1da0:	000f      	movs	r7, r1
    1da2:	0002      	movs	r2, r0
    1da4:	000b      	movs	r3, r1
    1da6:	9806      	ldr	r0, [sp, #24]
    1da8:	9907      	ldr	r1, [sp, #28]
    1daa:	47a0      	blx	r4
    1dac:	4ab1      	ldr	r2, [pc, #708]	; (2074 <STACK_SIZE+0x74>)
    1dae:	900a      	str	r0, [sp, #40]	; 0x28
    1db0:	910b      	str	r1, [sp, #44]	; 0x2c
    1db2:	9802      	ldr	r0, [sp, #8]
    1db4:	9903      	ldr	r1, [sp, #12]
    1db6:	4bb0      	ldr	r3, [pc, #704]	; (2078 <STACK_SIZE+0x78>)
    1db8:	47a8      	blx	r5
    1dba:	0002      	movs	r2, r0
    1dbc:	000b      	movs	r3, r1
    1dbe:	980a      	ldr	r0, [sp, #40]	; 0x28
    1dc0:	990b      	ldr	r1, [sp, #44]	; 0x2c
    1dc2:	47a0      	blx	r4
        pestp[2][2] = term[2][0] * phit[0][2] + term[2][1] * phit[1][2] + term[2][2] * phit[2][2];

        pestp[2][2] = pestp[2][2] + model_variance;
    1dc4:	2200      	movs	r2, #0
        pestp[0][2] = term[0][0] * phit[0][2] + term[0][1] * phit[1][2] + term[0][2] * phit[2][2];
        pestp[1][0] = term[1][0] * phit[0][0] + term[1][1] * phit[1][0] + term[1][2] * phit[2][0];
        pestp[1][1] = term[1][0] * phit[0][1] + term[1][1] * phit[1][1] + term[1][2] * phit[2][1];
        pestp[1][2] = term[1][0] * phit[0][2] + term[1][1] * phit[1][2] + term[1][2] * phit[2][2];
        pestp[2][0] = term[2][0] * phit[0][0] + term[2][1] * phit[1][0] + term[2][2] * phit[2][0];
        pestp[2][1] = term[2][0] * phit[0][1] + term[2][1] * phit[1][1] + term[2][2] * phit[2][1];
    1dc6:	9010      	str	r0, [sp, #64]	; 0x40
    1dc8:	9111      	str	r1, [sp, #68]	; 0x44
        pestp[2][2] = term[2][0] * phit[0][2] + term[2][1] * phit[1][2] + term[2][2] * phit[2][2];

        pestp[2][2] = pestp[2][2] + model_variance;
    1dca:	9806      	ldr	r0, [sp, #24]
    1dcc:	9907      	ldr	r1, [sp, #28]
    1dce:	2300      	movs	r3, #0
    1dd0:	47a8      	blx	r5
    1dd2:	0032      	movs	r2, r6
    1dd4:	003b      	movs	r3, r7
    1dd6:	47a0      	blx	r4
    1dd8:	9a02      	ldr	r2, [sp, #8]
    1dda:	9b03      	ldr	r3, [sp, #12]
    1ddc:	47a0      	blx	r4
    1dde:	9a3a      	ldr	r2, [sp, #232]	; 0xe8
    1de0:	9b3b      	ldr	r3, [sp, #236]	; 0xec
    1de2:	47a0      	blx	r4
        /*
          Calculate Kalman Gain
        */
        det = (pestp[0][0]+altitude_variance)*(pestp[2][2] + acceleration_variance) - pestp[2][0] * pestp[0][2];
    1de4:	9a3c      	ldr	r2, [sp, #240]	; 0xf0
    1de6:	9b3d      	ldr	r3, [sp, #244]	; 0xf4
        pestp[1][2] = term[1][0] * phit[0][2] + term[1][1] * phit[1][2] + term[1][2] * phit[2][2];
        pestp[2][0] = term[2][0] * phit[0][0] + term[2][1] * phit[1][0] + term[2][2] * phit[2][0];
        pestp[2][1] = term[2][0] * phit[0][1] + term[2][1] * phit[1][1] + term[2][2] * phit[2][1];
        pestp[2][2] = term[2][0] * phit[0][2] + term[2][1] * phit[1][2] + term[2][2] * phit[2][2];

        pestp[2][2] = pestp[2][2] + model_variance;
    1de8:	9002      	str	r0, [sp, #8]
    1dea:	9103      	str	r1, [sp, #12]
        /*
          Calculate Kalman Gain
        */
        det = (pestp[0][0]+altitude_variance)*(pestp[2][2] + acceleration_variance) - pestp[2][0] * pestp[0][2];
    1dec:	9808      	ldr	r0, [sp, #32]
    1dee:	9909      	ldr	r1, [sp, #36]	; 0x24
    1df0:	47a0      	blx	r4
    1df2:	9a3e      	ldr	r2, [sp, #248]	; 0xf8
    1df4:	9b3f      	ldr	r3, [sp, #252]	; 0xfc
    1df6:	900a      	str	r0, [sp, #40]	; 0x28
    1df8:	910b      	str	r1, [sp, #44]	; 0x2c
    1dfa:	9802      	ldr	r0, [sp, #8]
    1dfc:	9903      	ldr	r1, [sp, #12]
    1dfe:	47a0      	blx	r4
    1e00:	9a00      	ldr	r2, [sp, #0]
    1e02:	9b01      	ldr	r3, [sp, #4]
    1e04:	900c      	str	r0, [sp, #48]	; 0x30
    1e06:	910d      	str	r1, [sp, #52]	; 0x34
    1e08:	9804      	ldr	r0, [sp, #16]
    1e0a:	9916      	ldr	r1, [sp, #88]	; 0x58
    1e0c:	47a8      	blx	r5
    1e0e:	9a0c      	ldr	r2, [sp, #48]	; 0x30
    1e10:	9b0d      	ldr	r3, [sp, #52]	; 0x34
    1e12:	900e      	str	r0, [sp, #56]	; 0x38
    1e14:	910f      	str	r1, [sp, #60]	; 0x3c
    1e16:	980a      	ldr	r0, [sp, #40]	; 0x28
    1e18:	990b      	ldr	r1, [sp, #44]	; 0x2c
    1e1a:	47a8      	blx	r5
    1e1c:	9a0e      	ldr	r2, [sp, #56]	; 0x38
    1e1e:	9b0f      	ldr	r3, [sp, #60]	; 0x3c
    1e20:	4e98      	ldr	r6, [pc, #608]	; (2084 <STACK_SIZE+0x84>)
    1e22:	47b0      	blx	r6

        kgain[0][0] = (pestp[0][0] * (pestp[2][2] + acceleration_variance) - pestp[0][2] * pestp[2][0])/det;
    1e24:	9a0c      	ldr	r2, [sp, #48]	; 0x30
    1e26:	9b0d      	ldr	r3, [sp, #52]	; 0x34

        pestp[2][2] = pestp[2][2] + model_variance;
        /*
          Calculate Kalman Gain
        */
        det = (pestp[0][0]+altitude_variance)*(pestp[2][2] + acceleration_variance) - pestp[2][0] * pestp[0][2];
    1e28:	9006      	str	r0, [sp, #24]
    1e2a:	9107      	str	r1, [sp, #28]

        kgain[0][0] = (pestp[0][0] * (pestp[2][2] + acceleration_variance) - pestp[0][2] * pestp[2][0])/det;
    1e2c:	9808      	ldr	r0, [sp, #32]
    1e2e:	9909      	ldr	r1, [sp, #36]	; 0x24
    1e30:	47a8      	blx	r5
    1e32:	9a0e      	ldr	r2, [sp, #56]	; 0x38
    1e34:	9b0f      	ldr	r3, [sp, #60]	; 0x3c
    1e36:	47b0      	blx	r6
    1e38:	9a06      	ldr	r2, [sp, #24]
    1e3a:	9b07      	ldr	r3, [sp, #28]
    1e3c:	4e92      	ldr	r6, [pc, #584]	; (2088 <STACK_SIZE+0x88>)
    1e3e:	47b0      	blx	r6
    1e40:	9034      	str	r0, [sp, #208]	; 0xd0
    1e42:	9135      	str	r1, [sp, #212]	; 0xd4
    1e44:	9a34      	ldr	r2, [sp, #208]	; 0xd0
    1e46:	9b35      	ldr	r3, [sp, #212]	; 0xd4
    1e48:	4990      	ldr	r1, [pc, #576]	; (208c <STACK_SIZE+0x8c>)
    1e4a:	600a      	str	r2, [r1, #0]
    1e4c:	604b      	str	r3, [r1, #4]
        kgain[0][1] = (pestp[0][0] * (-pestp[0][2]) + pestp[0][2] * (pestp[0][0] + altitude_variance))/det;
    1e4e:	9808      	ldr	r0, [sp, #32]
    1e50:	9909      	ldr	r1, [sp, #36]	; 0x24
    1e52:	2280      	movs	r2, #128	; 0x80
    1e54:	0612      	lsls	r2, r2, #24
    1e56:	4694      	mov	ip, r2
    1e58:	9b12      	ldr	r3, [sp, #72]	; 0x48
    1e5a:	9a04      	ldr	r2, [sp, #16]
    1e5c:	4463      	add	r3, ip
    1e5e:	932e      	str	r3, [sp, #184]	; 0xb8
    1e60:	9b2e      	ldr	r3, [sp, #184]	; 0xb8
    1e62:	47a8      	blx	r5
    1e64:	9a0a      	ldr	r2, [sp, #40]	; 0x28
    1e66:	9b0b      	ldr	r3, [sp, #44]	; 0x2c
    1e68:	0006      	movs	r6, r0
    1e6a:	000f      	movs	r7, r1
    1e6c:	9804      	ldr	r0, [sp, #16]
    1e6e:	9916      	ldr	r1, [sp, #88]	; 0x58
    1e70:	47a8      	blx	r5
    1e72:	0002      	movs	r2, r0
    1e74:	000b      	movs	r3, r1
    1e76:	0030      	movs	r0, r6
    1e78:	0039      	movs	r1, r7
    1e7a:	47a0      	blx	r4
    1e7c:	9a06      	ldr	r2, [sp, #24]
    1e7e:	9b07      	ldr	r3, [sp, #28]
    1e80:	4e81      	ldr	r6, [pc, #516]	; (2088 <STACK_SIZE+0x88>)
    1e82:	47b0      	blx	r6
    1e84:	900e      	str	r0, [sp, #56]	; 0x38
    1e86:	910f      	str	r1, [sp, #60]	; 0x3c
    1e88:	4980      	ldr	r1, [pc, #512]	; (208c <STACK_SIZE+0x8c>)
    1e8a:	9a0e      	ldr	r2, [sp, #56]	; 0x38
    1e8c:	9b0f      	ldr	r3, [sp, #60]	; 0x3c
    1e8e:	608a      	str	r2, [r1, #8]
    1e90:	60cb      	str	r3, [r1, #12]
        kgain[1][0] = (pestp[1][0] * (pestp[2][2] + acceleration_variance) - pestp[1][2] * pestp[2][0])/det;
    1e92:	9a0c      	ldr	r2, [sp, #48]	; 0x30
    1e94:	9b0d      	ldr	r3, [sp, #52]	; 0x34
    1e96:	982a      	ldr	r0, [sp, #168]	; 0xa8
    1e98:	992b      	ldr	r1, [sp, #172]	; 0xac
    1e9a:	47a8      	blx	r5
    1e9c:	9a00      	ldr	r2, [sp, #0]
    1e9e:	9b01      	ldr	r3, [sp, #4]
    1ea0:	0006      	movs	r6, r0
    1ea2:	000f      	movs	r7, r1
    1ea4:	982c      	ldr	r0, [sp, #176]	; 0xb0
    1ea6:	992d      	ldr	r1, [sp, #180]	; 0xb4
    1ea8:	47a8      	blx	r5
    1eaa:	0002      	movs	r2, r0
    1eac:	000b      	movs	r3, r1
    1eae:	0030      	movs	r0, r6
    1eb0:	0039      	movs	r1, r7
    1eb2:	4e74      	ldr	r6, [pc, #464]	; (2084 <STACK_SIZE+0x84>)
    1eb4:	47b0      	blx	r6
    1eb6:	9a06      	ldr	r2, [sp, #24]
    1eb8:	9b07      	ldr	r3, [sp, #28]
    1eba:	4e73      	ldr	r6, [pc, #460]	; (2088 <STACK_SIZE+0x88>)
    1ebc:	47b0      	blx	r6
    1ebe:	0002      	movs	r2, r0
    1ec0:	000b      	movs	r3, r1
    1ec2:	9139      	str	r1, [sp, #228]	; 0xe4
    1ec4:	4971      	ldr	r1, [pc, #452]	; (208c <STACK_SIZE+0x8c>)
    1ec6:	9018      	str	r0, [sp, #96]	; 0x60
    1ec8:	610a      	str	r2, [r1, #16]
    1eca:	614b      	str	r3, [r1, #20]
        kgain[1][1] = (pestp[1][0] * (-pestp[0][2]) + pestp[1][2] * (pestp[0][0] + altitude_variance))/det;
    1ecc:	982a      	ldr	r0, [sp, #168]	; 0xa8
    1ece:	992b      	ldr	r1, [sp, #172]	; 0xac
    1ed0:	9a04      	ldr	r2, [sp, #16]
    1ed2:	9b2e      	ldr	r3, [sp, #184]	; 0xb8
    1ed4:	47a8      	blx	r5
    1ed6:	9a0a      	ldr	r2, [sp, #40]	; 0x28
    1ed8:	9b0b      	ldr	r3, [sp, #44]	; 0x2c
    1eda:	0006      	movs	r6, r0
    1edc:	000f      	movs	r7, r1
    1ede:	982c      	ldr	r0, [sp, #176]	; 0xb0
    1ee0:	992d      	ldr	r1, [sp, #180]	; 0xb4
    1ee2:	47a8      	blx	r5
    1ee4:	0002      	movs	r2, r0
    1ee6:	000b      	movs	r3, r1
    1ee8:	0030      	movs	r0, r6
    1eea:	0039      	movs	r1, r7
    1eec:	47a0      	blx	r4
    1eee:	9a06      	ldr	r2, [sp, #24]
    1ef0:	9b07      	ldr	r3, [sp, #28]
    1ef2:	4e65      	ldr	r6, [pc, #404]	; (2088 <STACK_SIZE+0x88>)
    1ef4:	47b0      	blx	r6
    1ef6:	9012      	str	r0, [sp, #72]	; 0x48
    1ef8:	9113      	str	r1, [sp, #76]	; 0x4c
    1efa:	9a12      	ldr	r2, [sp, #72]	; 0x48
    1efc:	9b13      	ldr	r3, [sp, #76]	; 0x4c
    1efe:	4963      	ldr	r1, [pc, #396]	; (208c <STACK_SIZE+0x8c>)
    1f00:	618a      	str	r2, [r1, #24]
    1f02:	61cb      	str	r3, [r1, #28]
        kgain[2][0] = (pestp[2][0] * (pestp[2][2] + acceleration_variance) - pestp[2][2] * pestp[2][0])/det;
    1f04:	9a0c      	ldr	r2, [sp, #48]	; 0x30
    1f06:	9b0d      	ldr	r3, [sp, #52]	; 0x34
    1f08:	9800      	ldr	r0, [sp, #0]
    1f0a:	9901      	ldr	r1, [sp, #4]
    1f0c:	47a8      	blx	r5
    1f0e:	9a02      	ldr	r2, [sp, #8]
    1f10:	9b03      	ldr	r3, [sp, #12]
    1f12:	0006      	movs	r6, r0
    1f14:	000f      	movs	r7, r1
    1f16:	9800      	ldr	r0, [sp, #0]
    1f18:	9901      	ldr	r1, [sp, #4]
    1f1a:	47a8      	blx	r5
    1f1c:	0002      	movs	r2, r0
    1f1e:	000b      	movs	r3, r1
    1f20:	0030      	movs	r0, r6
    1f22:	0039      	movs	r1, r7
    1f24:	4e57      	ldr	r6, [pc, #348]	; (2084 <STACK_SIZE+0x84>)
    1f26:	47b0      	blx	r6
    1f28:	9a06      	ldr	r2, [sp, #24]
    1f2a:	9b07      	ldr	r3, [sp, #28]
    1f2c:	4e56      	ldr	r6, [pc, #344]	; (2088 <STACK_SIZE+0x88>)
    1f2e:	47b0      	blx	r6
    1f30:	9014      	str	r0, [sp, #80]	; 0x50
    1f32:	9115      	str	r1, [sp, #84]	; 0x54
    1f34:	9a14      	ldr	r2, [sp, #80]	; 0x50
    1f36:	9b15      	ldr	r3, [sp, #84]	; 0x54
    1f38:	4954      	ldr	r1, [pc, #336]	; (208c <STACK_SIZE+0x8c>)
    1f3a:	620a      	str	r2, [r1, #32]
    1f3c:	624b      	str	r3, [r1, #36]	; 0x24
        kgain[2][1] = (pestp[2][0] * (-pestp[0][2]) + pestp[2][2] * (pestp[0][0] + altitude_variance))/det;
    1f3e:	9800      	ldr	r0, [sp, #0]
    1f40:	9901      	ldr	r1, [sp, #4]
    1f42:	9a04      	ldr	r2, [sp, #16]
    1f44:	9b2e      	ldr	r3, [sp, #184]	; 0xb8
    1f46:	47a8      	blx	r5
    1f48:	9a0a      	ldr	r2, [sp, #40]	; 0x28
    1f4a:	9b0b      	ldr	r3, [sp, #44]	; 0x2c
    1f4c:	0006      	movs	r6, r0
    1f4e:	000f      	movs	r7, r1
    1f50:	9802      	ldr	r0, [sp, #8]
    1f52:	9903      	ldr	r1, [sp, #12]
    1f54:	47a8      	blx	r5
    1f56:	0002      	movs	r2, r0
    1f58:	000b      	movs	r3, r1
    1f5a:	0030      	movs	r0, r6
    1f5c:	0039      	movs	r1, r7
    1f5e:	47a0      	blx	r4
    1f60:	9a06      	ldr	r2, [sp, #24]
    1f62:	9b07      	ldr	r3, [sp, #28]
    1f64:	4e48      	ldr	r6, [pc, #288]	; (2088 <STACK_SIZE+0x88>)
    1f66:	47b0      	blx	r6
    1f68:	9036      	str	r0, [sp, #216]	; 0xd8
    1f6a:	9137      	str	r1, [sp, #220]	; 0xdc
    1f6c:	9a36      	ldr	r2, [sp, #216]	; 0xd8
    1f6e:	9b37      	ldr	r3, [sp, #220]	; 0xdc
    1f70:	4946      	ldr	r1, [pc, #280]	; (208c <STACK_SIZE+0x8c>)

        pest[0][0] = pestp[0][0] * (1.0 - kgain[0][0]) - kgain[0][1]*pestp[2][0];
    1f72:	4e44      	ldr	r6, [pc, #272]	; (2084 <STACK_SIZE+0x84>)
        kgain[0][0] = (pestp[0][0] * (pestp[2][2] + acceleration_variance) - pestp[0][2] * pestp[2][0])/det;
        kgain[0][1] = (pestp[0][0] * (-pestp[0][2]) + pestp[0][2] * (pestp[0][0] + altitude_variance))/det;
        kgain[1][0] = (pestp[1][0] * (pestp[2][2] + acceleration_variance) - pestp[1][2] * pestp[2][0])/det;
        kgain[1][1] = (pestp[1][0] * (-pestp[0][2]) + pestp[1][2] * (pestp[0][0] + altitude_variance))/det;
        kgain[2][0] = (pestp[2][0] * (pestp[2][2] + acceleration_variance) - pestp[2][2] * pestp[2][0])/det;
        kgain[2][1] = (pestp[2][0] * (-pestp[0][2]) + pestp[2][2] * (pestp[0][0] + altitude_variance))/det;
    1f74:	628a      	str	r2, [r1, #40]	; 0x28
    1f76:	62cb      	str	r3, [r1, #44]	; 0x2c

        pest[0][0] = pestp[0][0] * (1.0 - kgain[0][0]) - kgain[0][1]*pestp[2][0];
    1f78:	9a34      	ldr	r2, [sp, #208]	; 0xd0
    1f7a:	9b35      	ldr	r3, [sp, #212]	; 0xd4
    1f7c:	2000      	movs	r0, #0
    1f7e:	4944      	ldr	r1, [pc, #272]	; (2090 <STACK_SIZE+0x90>)
    1f80:	47b0      	blx	r6
    1f82:	0002      	movs	r2, r0
    1f84:	000b      	movs	r3, r1
    1f86:	900c      	str	r0, [sp, #48]	; 0x30
    1f88:	910d      	str	r1, [sp, #52]	; 0x34
    1f8a:	9808      	ldr	r0, [sp, #32]
    1f8c:	9909      	ldr	r1, [sp, #36]	; 0x24
    1f8e:	47a8      	blx	r5
    1f90:	9a0e      	ldr	r2, [sp, #56]	; 0x38
    1f92:	9b0f      	ldr	r3, [sp, #60]	; 0x3c
    1f94:	0006      	movs	r6, r0
    1f96:	000f      	movs	r7, r1
    1f98:	9800      	ldr	r0, [sp, #0]
    1f9a:	9901      	ldr	r1, [sp, #4]
    1f9c:	47a8      	blx	r5
    1f9e:	0002      	movs	r2, r0
    1fa0:	000b      	movs	r3, r1
    1fa2:	0030      	movs	r0, r6
    1fa4:	0039      	movs	r1, r7
    1fa6:	4e37      	ldr	r6, [pc, #220]	; (2084 <STACK_SIZE+0x84>)
    1fa8:	47b0      	blx	r6
        pest[0][1] = pestp[0][1] * (1.0 - kgain[0][0]) - kgain[0][1]*pestp[2][1];
    1faa:	9a0c      	ldr	r2, [sp, #48]	; 0x30
    1fac:	9b0d      	ldr	r3, [sp, #52]	; 0x34
        kgain[1][0] = (pestp[1][0] * (pestp[2][2] + acceleration_variance) - pestp[1][2] * pestp[2][0])/det;
        kgain[1][1] = (pestp[1][0] * (-pestp[0][2]) + pestp[1][2] * (pestp[0][0] + altitude_variance))/det;
        kgain[2][0] = (pestp[2][0] * (pestp[2][2] + acceleration_variance) - pestp[2][2] * pestp[2][0])/det;
        kgain[2][1] = (pestp[2][0] * (-pestp[0][2]) + pestp[2][2] * (pestp[0][0] + altitude_variance))/det;

        pest[0][0] = pestp[0][0] * (1.0 - kgain[0][0]) - kgain[0][1]*pestp[2][0];
    1fae:	9006      	str	r0, [sp, #24]
    1fb0:	9107      	str	r1, [sp, #28]
        pest[0][1] = pestp[0][1] * (1.0 - kgain[0][0]) - kgain[0][1]*pestp[2][1];
    1fb2:	9830      	ldr	r0, [sp, #192]	; 0xc0
    1fb4:	9931      	ldr	r1, [sp, #196]	; 0xc4
    1fb6:	47a8      	blx	r5
    1fb8:	9a0e      	ldr	r2, [sp, #56]	; 0x38
    1fba:	9b0f      	ldr	r3, [sp, #60]	; 0x3c
    1fbc:	0006      	movs	r6, r0
    1fbe:	000f      	movs	r7, r1
    1fc0:	9810      	ldr	r0, [sp, #64]	; 0x40
    1fc2:	9911      	ldr	r1, [sp, #68]	; 0x44
    1fc4:	47a8      	blx	r5
    1fc6:	0002      	movs	r2, r0
    1fc8:	000b      	movs	r3, r1
    1fca:	0030      	movs	r0, r6
    1fcc:	0039      	movs	r1, r7
    1fce:	4e2d      	ldr	r6, [pc, #180]	; (2084 <STACK_SIZE+0x84>)
    1fd0:	47b0      	blx	r6
        pest[0][2] = pestp[0][2] * (1.0 - kgain[0][0]) - kgain[0][1]*pestp[2][2];
    1fd2:	9a0c      	ldr	r2, [sp, #48]	; 0x30
    1fd4:	9b0d      	ldr	r3, [sp, #52]	; 0x34
        kgain[1][1] = (pestp[1][0] * (-pestp[0][2]) + pestp[1][2] * (pestp[0][0] + altitude_variance))/det;
        kgain[2][0] = (pestp[2][0] * (pestp[2][2] + acceleration_variance) - pestp[2][2] * pestp[2][0])/det;
        kgain[2][1] = (pestp[2][0] * (-pestp[0][2]) + pestp[2][2] * (pestp[0][0] + altitude_variance))/det;

        pest[0][0] = pestp[0][0] * (1.0 - kgain[0][0]) - kgain[0][1]*pestp[2][0];
        pest[0][1] = pestp[0][1] * (1.0 - kgain[0][0]) - kgain[0][1]*pestp[2][1];
    1fd6:	900a      	str	r0, [sp, #40]	; 0x28
    1fd8:	910b      	str	r1, [sp, #44]	; 0x2c
        pest[0][2] = pestp[0][2] * (1.0 - kgain[0][0]) - kgain[0][1]*pestp[2][2];
    1fda:	9804      	ldr	r0, [sp, #16]
    1fdc:	9916      	ldr	r1, [sp, #88]	; 0x58
    1fde:	47a8      	blx	r5
    1fe0:	9a0e      	ldr	r2, [sp, #56]	; 0x38
    1fe2:	9b0f      	ldr	r3, [sp, #60]	; 0x3c
    1fe4:	0006      	movs	r6, r0
    1fe6:	000f      	movs	r7, r1
    1fe8:	9802      	ldr	r0, [sp, #8]
    1fea:	9903      	ldr	r1, [sp, #12]
    1fec:	47a8      	blx	r5
    1fee:	0002      	movs	r2, r0
    1ff0:	000b      	movs	r3, r1
    1ff2:	0030      	movs	r0, r6
    1ff4:	0039      	movs	r1, r7
    1ff6:	4e23      	ldr	r6, [pc, #140]	; (2084 <STACK_SIZE+0x84>)
    1ff8:	47b0      	blx	r6
        pest[1][0] = pestp[0][0] * (-kgain[1][0]) + pestp[1][0] - kgain[1][1]*pestp[2][0];
    1ffa:	2280      	movs	r2, #128	; 0x80
    1ffc:	0612      	lsls	r2, r2, #24
    1ffe:	4694      	mov	ip, r2
    2000:	9b39      	ldr	r3, [sp, #228]	; 0xe4
    2002:	9a18      	ldr	r2, [sp, #96]	; 0x60
    2004:	4463      	add	r3, ip
    2006:	932e      	str	r3, [sp, #184]	; 0xb8
    2008:	9b2e      	ldr	r3, [sp, #184]	; 0xb8
        kgain[2][0] = (pestp[2][0] * (pestp[2][2] + acceleration_variance) - pestp[2][2] * pestp[2][0])/det;
        kgain[2][1] = (pestp[2][0] * (-pestp[0][2]) + pestp[2][2] * (pestp[0][0] + altitude_variance))/det;

        pest[0][0] = pestp[0][0] * (1.0 - kgain[0][0]) - kgain[0][1]*pestp[2][0];
        pest[0][1] = pestp[0][1] * (1.0 - kgain[0][0]) - kgain[0][1]*pestp[2][1];
        pest[0][2] = pestp[0][2] * (1.0 - kgain[0][0]) - kgain[0][1]*pestp[2][2];
    200a:	900c      	str	r0, [sp, #48]	; 0x30
    200c:	910d      	str	r1, [sp, #52]	; 0x34
        pest[1][0] = pestp[0][0] * (-kgain[1][0]) + pestp[1][0] - kgain[1][1]*pestp[2][0];
    200e:	9808      	ldr	r0, [sp, #32]
    2010:	9909      	ldr	r1, [sp, #36]	; 0x24
    2012:	47a8      	blx	r5
    2014:	9a2a      	ldr	r2, [sp, #168]	; 0xa8
    2016:	9b2b      	ldr	r3, [sp, #172]	; 0xac
    2018:	47a0      	blx	r4
    201a:	9a12      	ldr	r2, [sp, #72]	; 0x48
    201c:	9b13      	ldr	r3, [sp, #76]	; 0x4c
    201e:	0006      	movs	r6, r0
    2020:	000f      	movs	r7, r1
    2022:	9800      	ldr	r0, [sp, #0]
    2024:	9901      	ldr	r1, [sp, #4]
    2026:	47a8      	blx	r5
    2028:	0002      	movs	r2, r0
    202a:	000b      	movs	r3, r1
    202c:	0030      	movs	r0, r6
    202e:	0039      	movs	r1, r7
    2030:	4e14      	ldr	r6, [pc, #80]	; (2084 <STACK_SIZE+0x84>)
    2032:	47b0      	blx	r6
        pest[1][1] = pestp[0][1] * (-kgain[1][0]) + pestp[1][1] - kgain[1][1]*pestp[2][1];
    2034:	9a32      	ldr	r2, [sp, #200]	; 0xc8
    2036:	9b33      	ldr	r3, [sp, #204]	; 0xcc
        kgain[2][1] = (pestp[2][0] * (-pestp[0][2]) + pestp[2][2] * (pestp[0][0] + altitude_variance))/det;

        pest[0][0] = pestp[0][0] * (1.0 - kgain[0][0]) - kgain[0][1]*pestp[2][0];
        pest[0][1] = pestp[0][1] * (1.0 - kgain[0][0]) - kgain[0][1]*pestp[2][1];
        pest[0][2] = pestp[0][2] * (1.0 - kgain[0][0]) - kgain[0][1]*pestp[2][2];
        pest[1][0] = pestp[0][0] * (-kgain[1][0]) + pestp[1][0] - kgain[1][1]*pestp[2][0];
    2038:	9008      	str	r0, [sp, #32]
    203a:	9109      	str	r1, [sp, #36]	; 0x24
        pest[1][1] = pestp[0][1] * (-kgain[1][0]) + pestp[1][1] - kgain[1][1]*pestp[2][1];
    203c:	9826      	ldr	r0, [sp, #152]	; 0x98
    203e:	9927      	ldr	r1, [sp, #156]	; 0x9c
    2040:	47a0      	blx	r4
    2042:	4a0c      	ldr	r2, [pc, #48]	; (2074 <STACK_SIZE+0x74>)
    2044:	0006      	movs	r6, r0
    2046:	000f      	movs	r7, r1
    2048:	9828      	ldr	r0, [sp, #160]	; 0xa0
    204a:	9929      	ldr	r1, [sp, #164]	; 0xa4
    204c:	4b0a      	ldr	r3, [pc, #40]	; (2078 <STACK_SIZE+0x78>)
    204e:	47a8      	blx	r5
    2050:	0002      	movs	r2, r0
    2052:	000b      	movs	r3, r1
    2054:	0030      	movs	r0, r6
    2056:	0039      	movs	r1, r7
    2058:	47a0      	blx	r4
    205a:	9a18      	ldr	r2, [sp, #96]	; 0x60
    205c:	0006      	movs	r6, r0
    205e:	000f      	movs	r7, r1
    2060:	9830      	ldr	r0, [sp, #192]	; 0xc0
    2062:	9931      	ldr	r1, [sp, #196]	; 0xc4
    2064:	9b2e      	ldr	r3, [sp, #184]	; 0xb8
    2066:	47a8      	blx	r5
    2068:	0002      	movs	r2, r0
    206a:	000b      	movs	r3, r1
    206c:	0030      	movs	r0, r6
    206e:	0039      	movs	r1, r7
    2070:	47a0      	blx	r4
    2072:	e00f      	b.n	2094 <STACK_SIZE+0x94>
    2074:	47ae147b 	.word	0x47ae147b
    2078:	3f747ae1 	.word	0x3f747ae1
    207c:	eb1c432d 	.word	0xeb1c432d
    2080:	3eea36e2 	.word	0x3eea36e2
    2084:	00006785 	.word	0x00006785
    2088:	00005a49 	.word	0x00005a49
    208c:	20000348 	.word	0x20000348
    2090:	3ff00000 	.word	0x3ff00000
    2094:	9a12      	ldr	r2, [sp, #72]	; 0x48
    2096:	9b13      	ldr	r3, [sp, #76]	; 0x4c
    2098:	0006      	movs	r6, r0
    209a:	000f      	movs	r7, r1
    209c:	9810      	ldr	r0, [sp, #64]	; 0x40
    209e:	9911      	ldr	r1, [sp, #68]	; 0x44
    20a0:	47a8      	blx	r5
    20a2:	0002      	movs	r2, r0
    20a4:	000b      	movs	r3, r1
    20a6:	0030      	movs	r0, r6
    20a8:	0039      	movs	r1, r7
    20aa:	4e50      	ldr	r6, [pc, #320]	; (21ec <STACK_SIZE+0x1ec>)
    20ac:	47b0      	blx	r6
        pest[1][2] = pestp[0][2] * (-kgain[1][0]) + pestp[1][2] - kgain[1][1]*pestp[2][2];
    20ae:	9a18      	ldr	r2, [sp, #96]	; 0x60

        pest[0][0] = pestp[0][0] * (1.0 - kgain[0][0]) - kgain[0][1]*pestp[2][0];
        pest[0][1] = pestp[0][1] * (1.0 - kgain[0][0]) - kgain[0][1]*pestp[2][1];
        pest[0][2] = pestp[0][2] * (1.0 - kgain[0][0]) - kgain[0][1]*pestp[2][2];
        pest[1][0] = pestp[0][0] * (-kgain[1][0]) + pestp[1][0] - kgain[1][1]*pestp[2][0];
        pest[1][1] = pestp[0][1] * (-kgain[1][0]) + pestp[1][1] - kgain[1][1]*pestp[2][1];
    20b0:	900e      	str	r0, [sp, #56]	; 0x38
    20b2:	910f      	str	r1, [sp, #60]	; 0x3c
        pest[1][2] = pestp[0][2] * (-kgain[1][0]) + pestp[1][2] - kgain[1][1]*pestp[2][2];
    20b4:	9b2e      	ldr	r3, [sp, #184]	; 0xb8
    20b6:	9804      	ldr	r0, [sp, #16]
    20b8:	9916      	ldr	r1, [sp, #88]	; 0x58
    20ba:	47a8      	blx	r5
    20bc:	9a2c      	ldr	r2, [sp, #176]	; 0xb0
    20be:	9b2d      	ldr	r3, [sp, #180]	; 0xb4
    20c0:	47a0      	blx	r4
    20c2:	9a12      	ldr	r2, [sp, #72]	; 0x48
    20c4:	9b13      	ldr	r3, [sp, #76]	; 0x4c
    20c6:	0006      	movs	r6, r0
    20c8:	000f      	movs	r7, r1
    20ca:	9802      	ldr	r0, [sp, #8]
    20cc:	9903      	ldr	r1, [sp, #12]
    20ce:	47a8      	blx	r5
    20d0:	4c46      	ldr	r4, [pc, #280]	; (21ec <STACK_SIZE+0x1ec>)
    20d2:	0002      	movs	r2, r0
    20d4:	000b      	movs	r3, r1
    20d6:	0030      	movs	r0, r6
    20d8:	0039      	movs	r1, r7
    20da:	47a0      	blx	r4
        pest[2][0] = (1.0 - kgain[2][1]) * pestp[2][0] - kgain[2][0] * pestp[2][0];
    20dc:	9a36      	ldr	r2, [sp, #216]	; 0xd8
    20de:	9b37      	ldr	r3, [sp, #220]	; 0xdc
        pest[0][0] = pestp[0][0] * (1.0 - kgain[0][0]) - kgain[0][1]*pestp[2][0];
        pest[0][1] = pestp[0][1] * (1.0 - kgain[0][0]) - kgain[0][1]*pestp[2][1];
        pest[0][2] = pestp[0][2] * (1.0 - kgain[0][0]) - kgain[0][1]*pestp[2][2];
        pest[1][0] = pestp[0][0] * (-kgain[1][0]) + pestp[1][0] - kgain[1][1]*pestp[2][0];
        pest[1][1] = pestp[0][1] * (-kgain[1][0]) + pestp[1][1] - kgain[1][1]*pestp[2][1];
        pest[1][2] = pestp[0][2] * (-kgain[1][0]) + pestp[1][2] - kgain[1][1]*pestp[2][2];
    20e0:	9004      	str	r0, [sp, #16]
    20e2:	9105      	str	r1, [sp, #20]
        pest[2][0] = (1.0 - kgain[2][1]) * pestp[2][0] - kgain[2][0] * pestp[2][0];
    20e4:	2000      	movs	r0, #0
    20e6:	4942      	ldr	r1, [pc, #264]	; (21f0 <STACK_SIZE+0x1f0>)
    20e8:	47a0      	blx	r4
    20ea:	0002      	movs	r2, r0
    20ec:	000b      	movs	r3, r1
    20ee:	9012      	str	r0, [sp, #72]	; 0x48
    20f0:	9113      	str	r1, [sp, #76]	; 0x4c
    20f2:	9800      	ldr	r0, [sp, #0]
    20f4:	9901      	ldr	r1, [sp, #4]
    20f6:	47a8      	blx	r5
    20f8:	9a14      	ldr	r2, [sp, #80]	; 0x50
    20fa:	9b15      	ldr	r3, [sp, #84]	; 0x54
    20fc:	0006      	movs	r6, r0
    20fe:	000f      	movs	r7, r1
    2100:	9800      	ldr	r0, [sp, #0]
    2102:	9901      	ldr	r1, [sp, #4]
    2104:	47a8      	blx	r5
    2106:	0002      	movs	r2, r0
    2108:	000b      	movs	r3, r1
    210a:	0030      	movs	r0, r6
    210c:	0039      	movs	r1, r7
    210e:	47a0      	blx	r4
    2110:	9000      	str	r0, [sp, #0]
    2112:	9101      	str	r1, [sp, #4]
        pest[2][1] = (1.0 - kgain[2][1]) * pestp[2][1] - kgain[2][0] * pestp[2][1];
    2114:	9a12      	ldr	r2, [sp, #72]	; 0x48
    2116:	9b13      	ldr	r3, [sp, #76]	; 0x4c
    2118:	9810      	ldr	r0, [sp, #64]	; 0x40
    211a:	9911      	ldr	r1, [sp, #68]	; 0x44
    211c:	47a8      	blx	r5
    211e:	9a14      	ldr	r2, [sp, #80]	; 0x50
    2120:	9b15      	ldr	r3, [sp, #84]	; 0x54
    2122:	0006      	movs	r6, r0
    2124:	000f      	movs	r7, r1
    2126:	9810      	ldr	r0, [sp, #64]	; 0x40
    2128:	9911      	ldr	r1, [sp, #68]	; 0x44
    212a:	47a8      	blx	r5
    212c:	0002      	movs	r2, r0
    212e:	000b      	movs	r3, r1
    2130:	0030      	movs	r0, r6
    2132:	0039      	movs	r1, r7
    2134:	47a0      	blx	r4
        pest[2][2] = (1.0 - kgain[2][1]) * pestp[2][2] - kgain[2][0] * pestp[2][2];
    2136:	9a12      	ldr	r2, [sp, #72]	; 0x48
    2138:	9b13      	ldr	r3, [sp, #76]	; 0x4c
        pest[0][2] = pestp[0][2] * (1.0 - kgain[0][0]) - kgain[0][1]*pestp[2][2];
        pest[1][0] = pestp[0][0] * (-kgain[1][0]) + pestp[1][0] - kgain[1][1]*pestp[2][0];
        pest[1][1] = pestp[0][1] * (-kgain[1][0]) + pestp[1][1] - kgain[1][1]*pestp[2][1];
        pest[1][2] = pestp[0][2] * (-kgain[1][0]) + pestp[1][2] - kgain[1][1]*pestp[2][2];
        pest[2][0] = (1.0 - kgain[2][1]) * pestp[2][0] - kgain[2][0] * pestp[2][0];
        pest[2][1] = (1.0 - kgain[2][1]) * pestp[2][1] - kgain[2][0] * pestp[2][1];
    213a:	9010      	str	r0, [sp, #64]	; 0x40
    213c:	9111      	str	r1, [sp, #68]	; 0x44
        pest[2][2] = (1.0 - kgain[2][1]) * pestp[2][2] - kgain[2][0] * pestp[2][2];
    213e:	9802      	ldr	r0, [sp, #8]
    2140:	9903      	ldr	r1, [sp, #12]
    2142:	47a8      	blx	r5
    2144:	9a14      	ldr	r2, [sp, #80]	; 0x50
    2146:	9b15      	ldr	r3, [sp, #84]	; 0x54
    2148:	0006      	movs	r6, r0
    214a:	000f      	movs	r7, r1
    214c:	9802      	ldr	r0, [sp, #8]
    214e:	9903      	ldr	r1, [sp, #12]
    2150:	47a8      	blx	r5
    2152:	000b      	movs	r3, r1
    2154:	0002      	movs	r2, r0
    2156:	0039      	movs	r1, r7
    2158:	0030      	movs	r0, r6
    215a:	47a0      	blx	r4
         * time through the mill. Because I have noticed very early convergance
         * in a few cases (< 20 iterations) I am delaying this for at least
         * 100 iterations.
         */
        notdone = 0;
        k++;
    215c:	2400      	movs	r4, #0
    215e:	9b38      	ldr	r3, [sp, #224]	; 0xe0
        pest[1][0] = pestp[0][0] * (-kgain[1][0]) + pestp[1][0] - kgain[1][1]*pestp[2][0];
        pest[1][1] = pestp[0][1] * (-kgain[1][0]) + pestp[1][1] - kgain[1][1]*pestp[2][1];
        pest[1][2] = pestp[0][2] * (-kgain[1][0]) + pestp[1][2] - kgain[1][1]*pestp[2][2];
        pest[2][0] = (1.0 - kgain[2][1]) * pestp[2][0] - kgain[2][0] * pestp[2][0];
        pest[2][1] = (1.0 - kgain[2][1]) * pestp[2][1] - kgain[2][0] * pestp[2][1];
        pest[2][2] = (1.0 - kgain[2][1]) * pestp[2][2] - kgain[2][0] * pestp[2][2];
    2160:	9002      	str	r0, [sp, #8]
    2162:	9103      	str	r1, [sp, #12]
         * time through the mill. Because I have noticed very early convergance
         * in a few cases (< 20 iterations) I am delaying this for at least
         * 100 iterations.
         */
        notdone = 0;
        k++;
    2164:	3301      	adds	r3, #1
    2166:	9338      	str	r3, [sp, #224]	; 0xe0
        for( i = 0; i <= 2; i++)
            for( j = 0; j <= 1; j++) {
                if( (kgain[i][j] - lastkgain[i][j])/lastkgain[i][j] > 0.00001)
    2168:	4b22      	ldr	r3, [pc, #136]	; (21f4 <STACK_SIZE+0x1f4>)
        /* Check for convergance. Criteria is less than .001% change from last
         * time through the mill. Because I have noticed very early convergance
         * in a few cases (< 20 iterations) I am delaying this for at least
         * 100 iterations.
         */
        notdone = 0;
    216a:	9414      	str	r4, [sp, #80]	; 0x50
        k++;
        for( i = 0; i <= 2; i++)
            for( j = 0; j <= 1; j++) {
                if( (kgain[i][j] - lastkgain[i][j])/lastkgain[i][j] > 0.00001)
    216c:	9326      	str	r3, [sp, #152]	; 0x98
    216e:	4b1f      	ldr	r3, [pc, #124]	; (21ec <STACK_SIZE+0x1ec>)
    2170:	9328      	str	r3, [sp, #160]	; 0xa0
    2172:	ab40      	add	r3, sp, #256	; 0x100
    2174:	18e5      	adds	r5, r4, r3

        pestp[2][2] = pestp[2][2] + model_variance;
        /*
          Calculate Kalman Gain
        */
        det = (pestp[0][0]+altitude_variance)*(pestp[2][2] + acceleration_variance) - pestp[2][0] * pestp[0][2];
    2176:	2300      	movs	r3, #0
    2178:	9516      	str	r5, [sp, #88]	; 0x58
    217a:	9312      	str	r3, [sp, #72]	; 0x48
         */
        notdone = 0;
        k++;
        for( i = 0; i <= 2; i++)
            for( j = 0; j <= 1; j++) {
                if( (kgain[i][j] - lastkgain[i][j])/lastkgain[i][j] > 0.00001)
    217c:	9b12      	ldr	r3, [sp, #72]	; 0x48
    217e:	9a26      	ldr	r2, [sp, #152]	; 0x98
    2180:	18e3      	adds	r3, r4, r3
    2182:	189b      	adds	r3, r3, r2
    2184:	681a      	ldr	r2, [r3, #0]
    2186:	685b      	ldr	r3, [r3, #4]
    2188:	9218      	str	r2, [sp, #96]	; 0x60
    218a:	9319      	str	r3, [sp, #100]	; 0x64
    218c:	9818      	ldr	r0, [sp, #96]	; 0x60
    218e:	9919      	ldr	r1, [sp, #100]	; 0x64
    2190:	9b16      	ldr	r3, [sp, #88]	; 0x58
    2192:	9d28      	ldr	r5, [sp, #160]	; 0xa0
    2194:	681e      	ldr	r6, [r3, #0]
    2196:	685f      	ldr	r7, [r3, #4]
    2198:	0032      	movs	r2, r6
    219a:	003b      	movs	r3, r7
    219c:	47a8      	blx	r5
    219e:	0032      	movs	r2, r6
    21a0:	003b      	movs	r3, r7
    21a2:	4d15      	ldr	r5, [pc, #84]	; (21f8 <STACK_SIZE+0x1f8>)
    21a4:	47a8      	blx	r5
    21a6:	4b15      	ldr	r3, [pc, #84]	; (21fc <STACK_SIZE+0x1fc>)
    21a8:	4a15      	ldr	r2, [pc, #84]	; (2200 <STACK_SIZE+0x200>)
    21aa:	4e16      	ldr	r6, [pc, #88]	; (2204 <STACK_SIZE+0x204>)
    21ac:	47b0      	blx	r6
                    notdone++;
    21ae:	1e43      	subs	r3, r0, #1
    21b0:	4198      	sbcs	r0, r3
    21b2:	9b14      	ldr	r3, [sp, #80]	; 0x50
                lastkgain[i][j] = kgain[i][j];
    21b4:	9916      	ldr	r1, [sp, #88]	; 0x58
        notdone = 0;
        k++;
        for( i = 0; i <= 2; i++)
            for( j = 0; j <= 1; j++) {
                if( (kgain[i][j] - lastkgain[i][j])/lastkgain[i][j] > 0.00001)
                    notdone++;
    21b6:	181b      	adds	r3, r3, r0
    21b8:	9314      	str	r3, [sp, #80]	; 0x50
                lastkgain[i][j] = kgain[i][j];
    21ba:	9a18      	ldr	r2, [sp, #96]	; 0x60
    21bc:	9b19      	ldr	r3, [sp, #100]	; 0x64
    21be:	c10c      	stmia	r1!, {r2, r3}
    21c0:	9b12      	ldr	r3, [sp, #72]	; 0x48
    21c2:	9116      	str	r1, [sp, #88]	; 0x58
    21c4:	3308      	adds	r3, #8
    21c6:	9312      	str	r3, [sp, #72]	; 0x48
         * 100 iterations.
         */
        notdone = 0;
        k++;
        for( i = 0; i <= 2; i++)
            for( j = 0; j <= 1; j++) {
    21c8:	2b10      	cmp	r3, #16
    21ca:	d1d7      	bne.n	217c <STACK_SIZE+0x17c>
    21cc:	3410      	adds	r4, #16
         * in a few cases (< 20 iterations) I am delaying this for at least
         * 100 iterations.
         */
        notdone = 0;
        k++;
        for( i = 0; i <= 2; i++)
    21ce:	2c30      	cmp	r4, #48	; 0x30
    21d0:	d1cf      	bne.n	2172 <STACK_SIZE+0x172>
            for( j = 0; j <= 1; j++) {
                if( (kgain[i][j] - lastkgain[i][j])/lastkgain[i][j] > 0.00001)
                    notdone++;
                lastkgain[i][j] = kgain[i][j];
            }
        if( notdone || k < 100)
    21d2:	9b14      	ldr	r3, [sp, #80]	; 0x50
    21d4:	2b00      	cmp	r3, #0
    21d6:	d001      	beq.n	21dc <STACK_SIZE+0x1dc>
    21d8:	f7ff fc2c 	bl	1a34 <computeKalmanGains+0xcc>
    21dc:	9b38      	ldr	r3, [sp, #224]	; 0xe0
    21de:	2b63      	cmp	r3, #99	; 0x63
    21e0:	dc01      	bgt.n	21e6 <STACK_SIZE+0x1e6>
    21e2:	f7ff fc27 	bl	1a34 <computeKalmanGains+0xcc>
            continue;
        else
            break;
    }
}
    21e6:	b04d      	add	sp, #308	; 0x134
    21e8:	bdf0      	pop	{r4, r5, r6, r7, pc}
    21ea:	46c0      	nop			; (mov r8, r8)
    21ec:	00006785 	.word	0x00006785
    21f0:	3ff00000 	.word	0x3ff00000
    21f4:	20000348 	.word	0x20000348
    21f8:	00005a49 	.word	0x00005a49
    21fc:	3ee4f8b5 	.word	0x3ee4f8b5
    2200:	88e368f1 	.word	0x88e368f1
    2204:	000050c9 	.word	0x000050c9

00002208 <computeKalmanBaroOnlyGains>:
    dt = 0.005;

    /*
     Fill in state transition matrix and its transpose
    */
    baro_phi[0][1]    = dt;
    2208:	4bd7      	ldr	r3, [pc, #860]	; (2568 <computeKalmanBaroOnlyGains+0x360>)
    220a:	48d8      	ldr	r0, [pc, #864]	; (256c <computeKalmanBaroOnlyGains+0x364>)
    baro_phi[1][2]    = dt;
    220c:	001a      	movs	r2, r3
    dt = 0.005;

    /*
     Fill in state transition matrix and its transpose
    */
    baro_phi[0][1]    = dt;
    220e:	49d8      	ldr	r1, [pc, #864]	; (2570 <computeKalmanBaroOnlyGains+0x368>)
    baro_phi[1][2]    = dt;
    2210:	3288      	adds	r2, #136	; 0x88
        else
            break;
    }
}

void computeKalmanBaroOnlyGains() {
    2212:	b5f0      	push	{r4, r5, r6, r7, lr}

    /*
     Fill in state transition matrix and its transpose
    */
    baro_phi[0][1]    = dt;
    baro_phi[1][2]    = dt;
    2214:	6010      	str	r0, [r2, #0]
    2216:	6051      	str	r1, [r2, #4]
    baro_phi[0][2]    = dt*dt/2.0;
    2218:	2200      	movs	r2, #0
    dt = 0.005;

    /*
     Fill in state transition matrix and its transpose
    */
    baro_phi[0][1]    = dt;
    221a:	6698      	str	r0, [r3, #104]	; 0x68
    221c:	66d9      	str	r1, [r3, #108]	; 0x6c
    baro_phi[1][2]    = dt;
    baro_phi[0][2]    = dt*dt/2.0;
    221e:	48d5      	ldr	r0, [pc, #852]	; (2574 <computeKalmanBaroOnlyGains+0x36c>)
    2220:	49d5      	ldr	r1, [pc, #852]	; (2578 <computeKalmanBaroOnlyGains+0x370>)
    phit[1][0]    = dt;
    phit[2][1]    = dt;
    phit[2][0]    = dt*dt/2.0;

    for( i = 0; i <= 2; i++) {
        lastkgain[i] = .001;
    2222:	4cd6      	ldr	r4, [pc, #856]	; (257c <computeKalmanBaroOnlyGains+0x374>)
    /*
     Fill in state transition matrix and its transpose
    */
    baro_phi[0][1]    = dt;
    baro_phi[1][2]    = dt;
    baro_phi[0][2]    = dt*dt/2.0;
    2224:	6718      	str	r0, [r3, #112]	; 0x70
    2226:	6759      	str	r1, [r3, #116]	; 0x74
    phit[1][0]    = dt;
    phit[2][1]    = dt;
    phit[2][0]    = dt*dt/2.0;

    for( i = 0; i <= 2; i++) {
        lastkgain[i] = .001;
    2228:	4dd5      	ldr	r5, [pc, #852]	; (2580 <computeKalmanBaroOnlyGains+0x378>)
        baro_kgain[i] = 1.0;
    222a:	4fd6      	ldr	r7, [pc, #856]	; (2584 <computeKalmanBaroOnlyGains+0x37c>)
        else
            break;
    }
}

void computeKalmanBaroOnlyGains() {
    222c:	b0c5      	sub	sp, #276	; 0x114
    phit[2][1]    = dt;
    phit[2][0]    = dt*dt/2.0;

    for( i = 0; i <= 2; i++) {
        lastkgain[i] = .001;
        baro_kgain[i] = 1.0;
    222e:	2000      	movs	r0, #0
    phit[1][0]    = dt;
    phit[2][1]    = dt;
    phit[2][0]    = dt*dt/2.0;

    for( i = 0; i <= 2; i++) {
        lastkgain[i] = .001;
    2230:	a93e      	add	r1, sp, #248	; 0xf8
    2232:	1856      	adds	r6, r2, r1
        baro_kgain[i] = 1.0;
    2234:	49d4      	ldr	r1, [pc, #848]	; (2588 <computeKalmanBaroOnlyGains+0x380>)
    phit[1][0]    = dt;
    phit[2][1]    = dt;
    phit[2][0]    = dt*dt/2.0;

    for( i = 0; i <= 2; i++) {
        lastkgain[i] = .001;
    2236:	6034      	str	r4, [r6, #0]
    2238:	6075      	str	r5, [r6, #4]
        baro_kgain[i] = 1.0;
    223a:	19d6      	adds	r6, r2, r7
    223c:	3208      	adds	r2, #8
    223e:	6030      	str	r0, [r6, #0]
    2240:	6071      	str	r1, [r6, #4]
    baro_phi[0][2]    = dt*dt/2.0;
    phit[1][0]    = dt;
    phit[2][1]    = dt;
    phit[2][0]    = dt*dt/2.0;

    for( i = 0; i <= 2; i++) {
    2242:	2a18      	cmp	r2, #24
    2244:	d1f3      	bne.n	222e <computeKalmanBaroOnlyGains+0x26>

    /* Compute the Kalman gain matrix. */
    while(1) {
        /* Propagate state covariance */

        term[0][0] = phi[0][0] * pest[0][0] + phi[0][1] * pest[1][0] + phi[0][2] * pest[2][0];
    2246:	6819      	ldr	r1, [r3, #0]
    2248:	685a      	ldr	r2, [r3, #4]
    224a:	9108      	str	r1, [sp, #32]
    224c:	9209      	str	r2, [sp, #36]	; 0x24
    224e:	6899      	ldr	r1, [r3, #8]
    2250:	68da      	ldr	r2, [r3, #12]
    2252:	910a      	str	r1, [sp, #40]	; 0x28
    2254:	920b      	str	r2, [sp, #44]	; 0x2c
    2256:	6919      	ldr	r1, [r3, #16]
    2258:	695a      	ldr	r2, [r3, #20]
    225a:	910c      	str	r1, [sp, #48]	; 0x30
    225c:	920d      	str	r2, [sp, #52]	; 0x34
        term[0][1] = phi[0][0] * pest[0][1] + phi[0][1] * pest[1][1] + phi[0][2] * pest[2][1];
        term[0][2] = phi[0][0] * pest[0][2] + phi[0][1] * pest[1][2] + phi[0][2] * pest[2][2];
        term[1][0] = phi[1][0] * pest[0][0] + phi[1][1] * pest[1][0] + phi[1][2] * pest[2][0];
    225e:	6999      	ldr	r1, [r3, #24]
    2260:	69da      	ldr	r2, [r3, #28]
    2262:	910e      	str	r1, [sp, #56]	; 0x38
    2264:	920f      	str	r2, [sp, #60]	; 0x3c
    2266:	6a19      	ldr	r1, [r3, #32]
    2268:	6a5a      	ldr	r2, [r3, #36]	; 0x24
    226a:	9110      	str	r1, [sp, #64]	; 0x40
    226c:	9211      	str	r2, [sp, #68]	; 0x44
    226e:	6a99      	ldr	r1, [r3, #40]	; 0x28
    2270:	6ada      	ldr	r2, [r3, #44]	; 0x2c
    2272:	9112      	str	r1, [sp, #72]	; 0x48
    2274:	9213      	str	r2, [sp, #76]	; 0x4c
        term[1][1] = phi[1][0] * pest[0][1] + phi[1][1] * pest[1][1] + phi[1][2] * pest[2][1];
        term[1][2] = phi[1][0] * pest[0][2] + phi[1][1] * pest[1][2] + phi[1][2] * pest[2][2];
        term[2][0] = phi[2][0] * pest[0][0] + phi[2][1] * pest[1][0] + phi[2][2] * pest[2][0];
    2276:	6b19      	ldr	r1, [r3, #48]	; 0x30
    2278:	6b5a      	ldr	r2, [r3, #52]	; 0x34
    227a:	9114      	str	r1, [sp, #80]	; 0x50
    227c:	9215      	str	r2, [sp, #84]	; 0x54
    227e:	6b99      	ldr	r1, [r3, #56]	; 0x38
    2280:	6bda      	ldr	r2, [r3, #60]	; 0x3c
    2282:	9116      	str	r1, [sp, #88]	; 0x58
    2284:	9217      	str	r2, [sp, #92]	; 0x5c
    2286:	6c19      	ldr	r1, [r3, #64]	; 0x40
    2288:	6c5a      	ldr	r2, [r3, #68]	; 0x44
    228a:	9118      	str	r1, [sp, #96]	; 0x60
    228c:	9219      	str	r2, [sp, #100]	; 0x64
        pestp[1][2] = term[1][0] * phit[0][2] + term[1][1] * phit[1][2] + term[1][2] * phit[2][2];
        pestp[2][0] = term[2][0] * phit[0][0] + term[2][1] * phit[1][0] + term[2][2] * phit[2][0];
        pestp[2][1] = term[2][0] * phit[0][1] + term[2][1] * phit[1][1] + term[2][2] * phit[2][1];
        pestp[2][2] = term[2][0] * phit[0][2] + term[2][1] * phit[1][2] + term[2][2] * phit[2][2];

        pestp[0][0] = pestp[0][0] + model_variance;
    228e:	6c99      	ldr	r1, [r3, #72]	; 0x48
    2290:	6cda      	ldr	r2, [r3, #76]	; 0x4c
        /*
          Calculate Kalman Gain
        */
        det = (pestp[0][0]+altitude_variance);
    2292:	6d5c      	ldr	r4, [r3, #84]	; 0x54
    2294:	6d1b      	ldr	r3, [r3, #80]	; 0x50
    2296:	933c      	str	r3, [sp, #240]	; 0xf0
    2298:	943d      	str	r4, [sp, #244]	; 0xf4
    229a:	2300      	movs	r3, #0
    229c:	4cbb      	ldr	r4, [pc, #748]	; (258c <computeKalmanBaroOnlyGains+0x384>)
        pestp[1][2] = term[1][0] * phit[0][2] + term[1][1] * phit[1][2] + term[1][2] * phit[2][2];
        pestp[2][0] = term[2][0] * phit[0][0] + term[2][1] * phit[1][0] + term[2][2] * phit[2][0];
        pestp[2][1] = term[2][0] * phit[0][1] + term[2][1] * phit[1][1] + term[2][2] * phit[2][1];
        pestp[2][2] = term[2][0] * phit[0][2] + term[2][1] * phit[1][2] + term[2][2] * phit[2][2];

        pestp[0][0] = pestp[0][0] + model_variance;
    229e:	913a      	str	r1, [sp, #232]	; 0xe8
    22a0:	923b      	str	r2, [sp, #236]	; 0xec
        /*
          Calculate Kalman Gain
        */
        det = (pestp[0][0]+altitude_variance);
    22a2:	9304      	str	r3, [sp, #16]
    22a4:	9405      	str	r4, [sp, #20]
    22a6:	2300      	movs	r3, #0
    22a8:	2400      	movs	r4, #0
    22aa:	9302      	str	r3, [sp, #8]
    22ac:	9403      	str	r4, [sp, #12]
    22ae:	9300      	str	r3, [sp, #0]
    22b0:	9401      	str	r4, [sp, #4]
    22b2:	9306      	str	r3, [sp, #24]
    22b4:	9407      	str	r4, [sp, #28]
    22b6:	2300      	movs	r3, #0
    22b8:	4cb4      	ldr	r4, [pc, #720]	; (258c <computeKalmanBaroOnlyGains+0x384>)
    22ba:	9322      	str	r3, [sp, #136]	; 0x88
    22bc:	9423      	str	r4, [sp, #140]	; 0x8c
    22be:	2300      	movs	r3, #0
    22c0:	2400      	movs	r4, #0
    22c2:	9320      	str	r3, [sp, #128]	; 0x80
    22c4:	9421      	str	r4, [sp, #132]	; 0x84
    22c6:	931e      	str	r3, [sp, #120]	; 0x78
    22c8:	941f      	str	r4, [sp, #124]	; 0x7c
    22ca:	931c      	str	r3, [sp, #112]	; 0x70
    22cc:	941d      	str	r4, [sp, #116]	; 0x74
    22ce:	2480      	movs	r4, #128	; 0x80
    22d0:	2300      	movs	r3, #0
    22d2:	05e4      	lsls	r4, r4, #23
    22d4:	931a      	str	r3, [sp, #104]	; 0x68
    22d6:	941b      	str	r4, [sp, #108]	; 0x6c
    22d8:	2300      	movs	r3, #0
    22da:	9327      	str	r3, [sp, #156]	; 0x9c

    /* Compute the Kalman gain matrix. */
    while(1) {
        /* Propagate state covariance */

        term[0][0] = phi[0][0] * pest[0][0] + phi[0][1] * pest[1][0] + phi[0][2] * pest[2][0];
    22dc:	4cac      	ldr	r4, [pc, #688]	; (2590 <computeKalmanBaroOnlyGains+0x388>)
    22de:	9a1a      	ldr	r2, [sp, #104]	; 0x68
    22e0:	9b1b      	ldr	r3, [sp, #108]	; 0x6c
    22e2:	9808      	ldr	r0, [sp, #32]
    22e4:	9909      	ldr	r1, [sp, #36]	; 0x24
    22e6:	47a0      	blx	r4
    22e8:	9a20      	ldr	r2, [sp, #128]	; 0x80
    22ea:	9b21      	ldr	r3, [sp, #132]	; 0x84
    22ec:	0006      	movs	r6, r0
    22ee:	000f      	movs	r7, r1
    22f0:	980a      	ldr	r0, [sp, #40]	; 0x28
    22f2:	990b      	ldr	r1, [sp, #44]	; 0x2c
    22f4:	47a0      	blx	r4
    22f6:	4da7      	ldr	r5, [pc, #668]	; (2594 <computeKalmanBaroOnlyGains+0x38c>)
    22f8:	0002      	movs	r2, r0
    22fa:	000b      	movs	r3, r1
    22fc:	0030      	movs	r0, r6
    22fe:	0039      	movs	r1, r7
    2300:	47a8      	blx	r5
    2302:	9a00      	ldr	r2, [sp, #0]
    2304:	9b01      	ldr	r3, [sp, #4]
    2306:	0006      	movs	r6, r0
    2308:	000f      	movs	r7, r1
    230a:	980c      	ldr	r0, [sp, #48]	; 0x30
    230c:	990d      	ldr	r1, [sp, #52]	; 0x34
    230e:	47a0      	blx	r4
    2310:	0002      	movs	r2, r0
    2312:	000b      	movs	r3, r1
    2314:	0030      	movs	r0, r6
    2316:	0039      	movs	r1, r7
    2318:	47a8      	blx	r5
        term[0][1] = phi[0][0] * pest[0][1] + phi[0][1] * pest[1][1] + phi[0][2] * pest[2][1];
    231a:	9a1c      	ldr	r2, [sp, #112]	; 0x70
    231c:	9b1d      	ldr	r3, [sp, #116]	; 0x74

    /* Compute the Kalman gain matrix. */
    while(1) {
        /* Propagate state covariance */

        term[0][0] = phi[0][0] * pest[0][0] + phi[0][1] * pest[1][0] + phi[0][2] * pest[2][0];
    231e:	9024      	str	r0, [sp, #144]	; 0x90
    2320:	9125      	str	r1, [sp, #148]	; 0x94
        term[0][1] = phi[0][0] * pest[0][1] + phi[0][1] * pest[1][1] + phi[0][2] * pest[2][1];
    2322:	9808      	ldr	r0, [sp, #32]
    2324:	9909      	ldr	r1, [sp, #36]	; 0x24
    2326:	47a0      	blx	r4
    2328:	9a22      	ldr	r2, [sp, #136]	; 0x88
    232a:	9b23      	ldr	r3, [sp, #140]	; 0x8c
    232c:	0006      	movs	r6, r0
    232e:	000f      	movs	r7, r1
    2330:	980a      	ldr	r0, [sp, #40]	; 0x28
    2332:	990b      	ldr	r1, [sp, #44]	; 0x2c
    2334:	47a0      	blx	r4
    2336:	0002      	movs	r2, r0
    2338:	000b      	movs	r3, r1
    233a:	0030      	movs	r0, r6
    233c:	0039      	movs	r1, r7
    233e:	47a8      	blx	r5
    2340:	9a02      	ldr	r2, [sp, #8]
    2342:	9b03      	ldr	r3, [sp, #12]
    2344:	0006      	movs	r6, r0
    2346:	000f      	movs	r7, r1
    2348:	980c      	ldr	r0, [sp, #48]	; 0x30
    234a:	990d      	ldr	r1, [sp, #52]	; 0x34
    234c:	47a0      	blx	r4
    234e:	0002      	movs	r2, r0
    2350:	000b      	movs	r3, r1
    2352:	0030      	movs	r0, r6
    2354:	0039      	movs	r1, r7
    2356:	47a8      	blx	r5
        term[0][2] = phi[0][0] * pest[0][2] + phi[0][1] * pest[1][2] + phi[0][2] * pest[2][2];
    2358:	9a1e      	ldr	r2, [sp, #120]	; 0x78
    235a:	9b1f      	ldr	r3, [sp, #124]	; 0x7c
    /* Compute the Kalman gain matrix. */
    while(1) {
        /* Propagate state covariance */

        term[0][0] = phi[0][0] * pest[0][0] + phi[0][1] * pest[1][0] + phi[0][2] * pest[2][0];
        term[0][1] = phi[0][0] * pest[0][1] + phi[0][1] * pest[1][1] + phi[0][2] * pest[2][1];
    235c:	9028      	str	r0, [sp, #160]	; 0xa0
    235e:	9129      	str	r1, [sp, #164]	; 0xa4
        term[0][2] = phi[0][0] * pest[0][2] + phi[0][1] * pest[1][2] + phi[0][2] * pest[2][2];
    2360:	9808      	ldr	r0, [sp, #32]
    2362:	9909      	ldr	r1, [sp, #36]	; 0x24
    2364:	47a0      	blx	r4
    2366:	9a06      	ldr	r2, [sp, #24]
    2368:	9b07      	ldr	r3, [sp, #28]
    236a:	0006      	movs	r6, r0
    236c:	000f      	movs	r7, r1
    236e:	980a      	ldr	r0, [sp, #40]	; 0x28
    2370:	990b      	ldr	r1, [sp, #44]	; 0x2c
    2372:	47a0      	blx	r4
    2374:	0002      	movs	r2, r0
    2376:	000b      	movs	r3, r1
    2378:	0030      	movs	r0, r6
    237a:	0039      	movs	r1, r7
    237c:	47a8      	blx	r5
    237e:	9a04      	ldr	r2, [sp, #16]
    2380:	9b05      	ldr	r3, [sp, #20]
    2382:	0006      	movs	r6, r0
    2384:	000f      	movs	r7, r1
    2386:	980c      	ldr	r0, [sp, #48]	; 0x30
    2388:	990d      	ldr	r1, [sp, #52]	; 0x34
    238a:	47a0      	blx	r4
    238c:	0002      	movs	r2, r0
    238e:	000b      	movs	r3, r1
    2390:	0030      	movs	r0, r6
    2392:	0039      	movs	r1, r7
    2394:	47a8      	blx	r5
        term[1][0] = phi[1][0] * pest[0][0] + phi[1][1] * pest[1][0] + phi[1][2] * pest[2][0];
    2396:	9a1a      	ldr	r2, [sp, #104]	; 0x68
    2398:	9b1b      	ldr	r3, [sp, #108]	; 0x6c
    while(1) {
        /* Propagate state covariance */

        term[0][0] = phi[0][0] * pest[0][0] + phi[0][1] * pest[1][0] + phi[0][2] * pest[2][0];
        term[0][1] = phi[0][0] * pest[0][1] + phi[0][1] * pest[1][1] + phi[0][2] * pest[2][1];
        term[0][2] = phi[0][0] * pest[0][2] + phi[0][1] * pest[1][2] + phi[0][2] * pest[2][2];
    239a:	902a      	str	r0, [sp, #168]	; 0xa8
    239c:	912b      	str	r1, [sp, #172]	; 0xac
        term[1][0] = phi[1][0] * pest[0][0] + phi[1][1] * pest[1][0] + phi[1][2] * pest[2][0];
    239e:	980e      	ldr	r0, [sp, #56]	; 0x38
    23a0:	990f      	ldr	r1, [sp, #60]	; 0x3c
    23a2:	47a0      	blx	r4
    23a4:	9a20      	ldr	r2, [sp, #128]	; 0x80
    23a6:	9b21      	ldr	r3, [sp, #132]	; 0x84
    23a8:	0006      	movs	r6, r0
    23aa:	000f      	movs	r7, r1
    23ac:	9810      	ldr	r0, [sp, #64]	; 0x40
    23ae:	9911      	ldr	r1, [sp, #68]	; 0x44
    23b0:	47a0      	blx	r4
    23b2:	0002      	movs	r2, r0
    23b4:	000b      	movs	r3, r1
    23b6:	0030      	movs	r0, r6
    23b8:	0039      	movs	r1, r7
    23ba:	47a8      	blx	r5
    23bc:	9a00      	ldr	r2, [sp, #0]
    23be:	9b01      	ldr	r3, [sp, #4]
    23c0:	0006      	movs	r6, r0
    23c2:	000f      	movs	r7, r1
    23c4:	9812      	ldr	r0, [sp, #72]	; 0x48
    23c6:	9913      	ldr	r1, [sp, #76]	; 0x4c
    23c8:	47a0      	blx	r4
    23ca:	0002      	movs	r2, r0
    23cc:	000b      	movs	r3, r1
    23ce:	0030      	movs	r0, r6
    23d0:	0039      	movs	r1, r7
    23d2:	47a8      	blx	r5
        term[1][1] = phi[1][0] * pest[0][1] + phi[1][1] * pest[1][1] + phi[1][2] * pest[2][1];
    23d4:	9a1c      	ldr	r2, [sp, #112]	; 0x70
    23d6:	9b1d      	ldr	r3, [sp, #116]	; 0x74
        /* Propagate state covariance */

        term[0][0] = phi[0][0] * pest[0][0] + phi[0][1] * pest[1][0] + phi[0][2] * pest[2][0];
        term[0][1] = phi[0][0] * pest[0][1] + phi[0][1] * pest[1][1] + phi[0][2] * pest[2][1];
        term[0][2] = phi[0][0] * pest[0][2] + phi[0][1] * pest[1][2] + phi[0][2] * pest[2][2];
        term[1][0] = phi[1][0] * pest[0][0] + phi[1][1] * pest[1][0] + phi[1][2] * pest[2][0];
    23d8:	9034      	str	r0, [sp, #208]	; 0xd0
    23da:	9135      	str	r1, [sp, #212]	; 0xd4
        term[1][1] = phi[1][0] * pest[0][1] + phi[1][1] * pest[1][1] + phi[1][2] * pest[2][1];
    23dc:	980e      	ldr	r0, [sp, #56]	; 0x38
    23de:	990f      	ldr	r1, [sp, #60]	; 0x3c
    23e0:	47a0      	blx	r4
    23e2:	9a22      	ldr	r2, [sp, #136]	; 0x88
    23e4:	9b23      	ldr	r3, [sp, #140]	; 0x8c
    23e6:	0006      	movs	r6, r0
    23e8:	000f      	movs	r7, r1
    23ea:	9810      	ldr	r0, [sp, #64]	; 0x40
    23ec:	9911      	ldr	r1, [sp, #68]	; 0x44
    23ee:	47a0      	blx	r4
    23f0:	0002      	movs	r2, r0
    23f2:	000b      	movs	r3, r1
    23f4:	0030      	movs	r0, r6
    23f6:	0039      	movs	r1, r7
    23f8:	47a8      	blx	r5
    23fa:	9a02      	ldr	r2, [sp, #8]
    23fc:	9b03      	ldr	r3, [sp, #12]
    23fe:	0006      	movs	r6, r0
    2400:	000f      	movs	r7, r1
    2402:	9812      	ldr	r0, [sp, #72]	; 0x48
    2404:	9913      	ldr	r1, [sp, #76]	; 0x4c
    2406:	47a0      	blx	r4
    2408:	0002      	movs	r2, r0
    240a:	000b      	movs	r3, r1
    240c:	0030      	movs	r0, r6
    240e:	0039      	movs	r1, r7
    2410:	47a8      	blx	r5
        term[1][2] = phi[1][0] * pest[0][2] + phi[1][1] * pest[1][2] + phi[1][2] * pest[2][2];
    2412:	9a1e      	ldr	r2, [sp, #120]	; 0x78
    2414:	9b1f      	ldr	r3, [sp, #124]	; 0x7c

        term[0][0] = phi[0][0] * pest[0][0] + phi[0][1] * pest[1][0] + phi[0][2] * pest[2][0];
        term[0][1] = phi[0][0] * pest[0][1] + phi[0][1] * pest[1][1] + phi[0][2] * pest[2][1];
        term[0][2] = phi[0][0] * pest[0][2] + phi[0][1] * pest[1][2] + phi[0][2] * pest[2][2];
        term[1][0] = phi[1][0] * pest[0][0] + phi[1][1] * pest[1][0] + phi[1][2] * pest[2][0];
        term[1][1] = phi[1][0] * pest[0][1] + phi[1][1] * pest[1][1] + phi[1][2] * pest[2][1];
    2416:	902c      	str	r0, [sp, #176]	; 0xb0
    2418:	912d      	str	r1, [sp, #180]	; 0xb4
        term[1][2] = phi[1][0] * pest[0][2] + phi[1][1] * pest[1][2] + phi[1][2] * pest[2][2];
    241a:	980e      	ldr	r0, [sp, #56]	; 0x38
    241c:	990f      	ldr	r1, [sp, #60]	; 0x3c
    241e:	47a0      	blx	r4
    2420:	9a06      	ldr	r2, [sp, #24]
    2422:	9b07      	ldr	r3, [sp, #28]
    2424:	0006      	movs	r6, r0
    2426:	000f      	movs	r7, r1
    2428:	9810      	ldr	r0, [sp, #64]	; 0x40
    242a:	9911      	ldr	r1, [sp, #68]	; 0x44
    242c:	47a0      	blx	r4
    242e:	0002      	movs	r2, r0
    2430:	000b      	movs	r3, r1
    2432:	0030      	movs	r0, r6
    2434:	0039      	movs	r1, r7
    2436:	47a8      	blx	r5
    2438:	9a04      	ldr	r2, [sp, #16]
    243a:	9b05      	ldr	r3, [sp, #20]
    243c:	0006      	movs	r6, r0
    243e:	000f      	movs	r7, r1
    2440:	9812      	ldr	r0, [sp, #72]	; 0x48
    2442:	9913      	ldr	r1, [sp, #76]	; 0x4c
    2444:	47a0      	blx	r4
    2446:	0002      	movs	r2, r0
    2448:	000b      	movs	r3, r1
    244a:	0030      	movs	r0, r6
    244c:	0039      	movs	r1, r7
    244e:	47a8      	blx	r5
        term[2][0] = phi[2][0] * pest[0][0] + phi[2][1] * pest[1][0] + phi[2][2] * pest[2][0];
    2450:	9a1a      	ldr	r2, [sp, #104]	; 0x68
    2452:	9b1b      	ldr	r3, [sp, #108]	; 0x6c
        term[0][0] = phi[0][0] * pest[0][0] + phi[0][1] * pest[1][0] + phi[0][2] * pest[2][0];
        term[0][1] = phi[0][0] * pest[0][1] + phi[0][1] * pest[1][1] + phi[0][2] * pest[2][1];
        term[0][2] = phi[0][0] * pest[0][2] + phi[0][1] * pest[1][2] + phi[0][2] * pest[2][2];
        term[1][0] = phi[1][0] * pest[0][0] + phi[1][1] * pest[1][0] + phi[1][2] * pest[2][0];
        term[1][1] = phi[1][0] * pest[0][1] + phi[1][1] * pest[1][1] + phi[1][2] * pest[2][1];
        term[1][2] = phi[1][0] * pest[0][2] + phi[1][1] * pest[1][2] + phi[1][2] * pest[2][2];
    2454:	902e      	str	r0, [sp, #184]	; 0xb8
    2456:	912f      	str	r1, [sp, #188]	; 0xbc
        term[2][0] = phi[2][0] * pest[0][0] + phi[2][1] * pest[1][0] + phi[2][2] * pest[2][0];
    2458:	9814      	ldr	r0, [sp, #80]	; 0x50
    245a:	9915      	ldr	r1, [sp, #84]	; 0x54
    245c:	47a0      	blx	r4
    245e:	9a20      	ldr	r2, [sp, #128]	; 0x80
    2460:	9b21      	ldr	r3, [sp, #132]	; 0x84
    2462:	0006      	movs	r6, r0
    2464:	000f      	movs	r7, r1
    2466:	9816      	ldr	r0, [sp, #88]	; 0x58
    2468:	9917      	ldr	r1, [sp, #92]	; 0x5c
    246a:	47a0      	blx	r4
    246c:	0002      	movs	r2, r0
    246e:	000b      	movs	r3, r1
    2470:	0030      	movs	r0, r6
    2472:	0039      	movs	r1, r7
    2474:	47a8      	blx	r5
    2476:	9a00      	ldr	r2, [sp, #0]
    2478:	9b01      	ldr	r3, [sp, #4]
    247a:	0006      	movs	r6, r0
    247c:	000f      	movs	r7, r1
    247e:	9818      	ldr	r0, [sp, #96]	; 0x60
    2480:	9919      	ldr	r1, [sp, #100]	; 0x64
    2482:	47a0      	blx	r4
    2484:	0002      	movs	r2, r0
    2486:	000b      	movs	r3, r1
    2488:	0030      	movs	r0, r6
    248a:	0039      	movs	r1, r7
    248c:	47a8      	blx	r5
        term[2][1] = phi[2][0] * pest[0][1] + phi[2][1] * pest[1][1] + phi[2][2] * pest[2][1];
    248e:	9a1c      	ldr	r2, [sp, #112]	; 0x70
    2490:	9b1d      	ldr	r3, [sp, #116]	; 0x74
        term[0][1] = phi[0][0] * pest[0][1] + phi[0][1] * pest[1][1] + phi[0][2] * pest[2][1];
        term[0][2] = phi[0][0] * pest[0][2] + phi[0][1] * pest[1][2] + phi[0][2] * pest[2][2];
        term[1][0] = phi[1][0] * pest[0][0] + phi[1][1] * pest[1][0] + phi[1][2] * pest[2][0];
        term[1][1] = phi[1][0] * pest[0][1] + phi[1][1] * pest[1][1] + phi[1][2] * pest[2][1];
        term[1][2] = phi[1][0] * pest[0][2] + phi[1][1] * pest[1][2] + phi[1][2] * pest[2][2];
        term[2][0] = phi[2][0] * pest[0][0] + phi[2][1] * pest[1][0] + phi[2][2] * pest[2][0];
    2492:	9000      	str	r0, [sp, #0]
    2494:	9101      	str	r1, [sp, #4]
        term[2][1] = phi[2][0] * pest[0][1] + phi[2][1] * pest[1][1] + phi[2][2] * pest[2][1];
    2496:	9814      	ldr	r0, [sp, #80]	; 0x50
    2498:	9915      	ldr	r1, [sp, #84]	; 0x54
    249a:	47a0      	blx	r4
    249c:	9a22      	ldr	r2, [sp, #136]	; 0x88
    249e:	9b23      	ldr	r3, [sp, #140]	; 0x8c
    24a0:	0006      	movs	r6, r0
    24a2:	000f      	movs	r7, r1
    24a4:	9816      	ldr	r0, [sp, #88]	; 0x58
    24a6:	9917      	ldr	r1, [sp, #92]	; 0x5c
    24a8:	47a0      	blx	r4
    24aa:	0002      	movs	r2, r0
    24ac:	000b      	movs	r3, r1
    24ae:	0030      	movs	r0, r6
    24b0:	0039      	movs	r1, r7
    24b2:	47a8      	blx	r5
    24b4:	9a02      	ldr	r2, [sp, #8]
    24b6:	9b03      	ldr	r3, [sp, #12]
    24b8:	0006      	movs	r6, r0
    24ba:	000f      	movs	r7, r1
    24bc:	9818      	ldr	r0, [sp, #96]	; 0x60
    24be:	9919      	ldr	r1, [sp, #100]	; 0x64
    24c0:	47a0      	blx	r4
    24c2:	0002      	movs	r2, r0
    24c4:	000b      	movs	r3, r1
    24c6:	0030      	movs	r0, r6
    24c8:	0039      	movs	r1, r7
    24ca:	47a8      	blx	r5
        term[2][2] = phi[2][0] * pest[0][2] + phi[2][1] * pest[1][2] + phi[2][2] * pest[2][2];
    24cc:	9a1e      	ldr	r2, [sp, #120]	; 0x78
    24ce:	9b1f      	ldr	r3, [sp, #124]	; 0x7c
        term[0][2] = phi[0][0] * pest[0][2] + phi[0][1] * pest[1][2] + phi[0][2] * pest[2][2];
        term[1][0] = phi[1][0] * pest[0][0] + phi[1][1] * pest[1][0] + phi[1][2] * pest[2][0];
        term[1][1] = phi[1][0] * pest[0][1] + phi[1][1] * pest[1][1] + phi[1][2] * pest[2][1];
        term[1][2] = phi[1][0] * pest[0][2] + phi[1][1] * pest[1][2] + phi[1][2] * pest[2][2];
        term[2][0] = phi[2][0] * pest[0][0] + phi[2][1] * pest[1][0] + phi[2][2] * pest[2][0];
        term[2][1] = phi[2][0] * pest[0][1] + phi[2][1] * pest[1][1] + phi[2][2] * pest[2][1];
    24d0:	9030      	str	r0, [sp, #192]	; 0xc0
    24d2:	9131      	str	r1, [sp, #196]	; 0xc4
        term[2][2] = phi[2][0] * pest[0][2] + phi[2][1] * pest[1][2] + phi[2][2] * pest[2][2];
    24d4:	9814      	ldr	r0, [sp, #80]	; 0x50
    24d6:	9915      	ldr	r1, [sp, #84]	; 0x54
    24d8:	47a0      	blx	r4
    24da:	9a06      	ldr	r2, [sp, #24]
    24dc:	9b07      	ldr	r3, [sp, #28]
    24de:	0006      	movs	r6, r0
    24e0:	000f      	movs	r7, r1
    24e2:	9816      	ldr	r0, [sp, #88]	; 0x58
    24e4:	9917      	ldr	r1, [sp, #92]	; 0x5c
    24e6:	47a0      	blx	r4
    24e8:	0002      	movs	r2, r0
    24ea:	000b      	movs	r3, r1
    24ec:	0030      	movs	r0, r6
    24ee:	0039      	movs	r1, r7
    24f0:	47a8      	blx	r5
    24f2:	9a04      	ldr	r2, [sp, #16]
    24f4:	9b05      	ldr	r3, [sp, #20]
    24f6:	0006      	movs	r6, r0
    24f8:	000f      	movs	r7, r1
    24fa:	9818      	ldr	r0, [sp, #96]	; 0x60
    24fc:	9919      	ldr	r1, [sp, #100]	; 0x64
    24fe:	47a0      	blx	r4
    2500:	0002      	movs	r2, r0
    2502:	000b      	movs	r3, r1
    2504:	0030      	movs	r0, r6
    2506:	0039      	movs	r1, r7
    2508:	47a8      	blx	r5

        pestp[0][0] = term[0][0] * phit[0][0] + term[0][1] * phit[1][0] + term[0][2] * phit[2][0];
        pestp[0][1] = term[0][0] * phit[0][1] + term[0][1] * phit[1][1] + term[0][2] * phit[2][1];
    250a:	2200      	movs	r2, #0
        term[1][0] = phi[1][0] * pest[0][0] + phi[1][1] * pest[1][0] + phi[1][2] * pest[2][0];
        term[1][1] = phi[1][0] * pest[0][1] + phi[1][1] * pest[1][1] + phi[1][2] * pest[2][1];
        term[1][2] = phi[1][0] * pest[0][2] + phi[1][1] * pest[1][2] + phi[1][2] * pest[2][2];
        term[2][0] = phi[2][0] * pest[0][0] + phi[2][1] * pest[1][0] + phi[2][2] * pest[2][0];
        term[2][1] = phi[2][0] * pest[0][1] + phi[2][1] * pest[1][1] + phi[2][2] * pest[2][1];
        term[2][2] = phi[2][0] * pest[0][2] + phi[2][1] * pest[1][2] + phi[2][2] * pest[2][2];
    250c:	9032      	str	r0, [sp, #200]	; 0xc8
    250e:	9133      	str	r1, [sp, #204]	; 0xcc

        pestp[0][0] = term[0][0] * phit[0][0] + term[0][1] * phit[1][0] + term[0][2] * phit[2][0];
        pestp[0][1] = term[0][0] * phit[0][1] + term[0][1] * phit[1][1] + term[0][2] * phit[2][1];
    2510:	9824      	ldr	r0, [sp, #144]	; 0x90
    2512:	9925      	ldr	r1, [sp, #148]	; 0x94
    2514:	2300      	movs	r3, #0
    2516:	47a0      	blx	r4
        pestp[0][2] = term[0][0] * phit[0][2] + term[0][1] * phit[1][2] + term[0][2] * phit[2][2];
        pestp[1][0] = term[1][0] * phit[0][0] + term[1][1] * phit[1][0] + term[1][2] * phit[2][0];
    2518:	4a14      	ldr	r2, [pc, #80]	; (256c <computeKalmanBaroOnlyGains+0x364>)
        term[2][0] = phi[2][0] * pest[0][0] + phi[2][1] * pest[1][0] + phi[2][2] * pest[2][0];
        term[2][1] = phi[2][0] * pest[0][1] + phi[2][1] * pest[1][1] + phi[2][2] * pest[2][1];
        term[2][2] = phi[2][0] * pest[0][2] + phi[2][1] * pest[1][2] + phi[2][2] * pest[2][2];

        pestp[0][0] = term[0][0] * phit[0][0] + term[0][1] * phit[1][0] + term[0][2] * phit[2][0];
        pestp[0][1] = term[0][0] * phit[0][1] + term[0][1] * phit[1][1] + term[0][2] * phit[2][1];
    251a:	9036      	str	r0, [sp, #216]	; 0xd8
    251c:	9137      	str	r1, [sp, #220]	; 0xdc
        pestp[0][2] = term[0][0] * phit[0][2] + term[0][1] * phit[1][2] + term[0][2] * phit[2][2];
        pestp[1][0] = term[1][0] * phit[0][0] + term[1][1] * phit[1][0] + term[1][2] * phit[2][0];
    251e:	982c      	ldr	r0, [sp, #176]	; 0xb0
    2520:	992d      	ldr	r1, [sp, #180]	; 0xb4
    2522:	4b13      	ldr	r3, [pc, #76]	; (2570 <computeKalmanBaroOnlyGains+0x368>)
    2524:	47a0      	blx	r4
    2526:	9a34      	ldr	r2, [sp, #208]	; 0xd0
    2528:	9b35      	ldr	r3, [sp, #212]	; 0xd4
    252a:	47a8      	blx	r5
    252c:	4a11      	ldr	r2, [pc, #68]	; (2574 <computeKalmanBaroOnlyGains+0x36c>)
    252e:	0006      	movs	r6, r0
    2530:	000f      	movs	r7, r1
    2532:	982e      	ldr	r0, [sp, #184]	; 0xb8
    2534:	992f      	ldr	r1, [sp, #188]	; 0xbc
    2536:	4b10      	ldr	r3, [pc, #64]	; (2578 <computeKalmanBaroOnlyGains+0x370>)
    2538:	47a0      	blx	r4
    253a:	0002      	movs	r2, r0
    253c:	000b      	movs	r3, r1
    253e:	0030      	movs	r0, r6
    2540:	0039      	movs	r1, r7
    2542:	47a8      	blx	r5
        pestp[1][1] = term[1][0] * phit[0][1] + term[1][1] * phit[1][1] + term[1][2] * phit[2][1];
    2544:	2200      	movs	r2, #0
        term[2][2] = phi[2][0] * pest[0][2] + phi[2][1] * pest[1][2] + phi[2][2] * pest[2][2];

        pestp[0][0] = term[0][0] * phit[0][0] + term[0][1] * phit[1][0] + term[0][2] * phit[2][0];
        pestp[0][1] = term[0][0] * phit[0][1] + term[0][1] * phit[1][1] + term[0][2] * phit[2][1];
        pestp[0][2] = term[0][0] * phit[0][2] + term[0][1] * phit[1][2] + term[0][2] * phit[2][2];
        pestp[1][0] = term[1][0] * phit[0][0] + term[1][1] * phit[1][0] + term[1][2] * phit[2][0];
    2546:	9002      	str	r0, [sp, #8]
    2548:	9103      	str	r1, [sp, #12]
        pestp[1][1] = term[1][0] * phit[0][1] + term[1][1] * phit[1][1] + term[1][2] * phit[2][1];
    254a:	9834      	ldr	r0, [sp, #208]	; 0xd0
    254c:	9935      	ldr	r1, [sp, #212]	; 0xd4
    254e:	2300      	movs	r3, #0
    2550:	47a0      	blx	r4
        pestp[1][2] = term[1][0] * phit[0][2] + term[1][1] * phit[1][2] + term[1][2] * phit[2][2];
        pestp[2][0] = term[2][0] * phit[0][0] + term[2][1] * phit[1][0] + term[2][2] * phit[2][0];
    2552:	4a06      	ldr	r2, [pc, #24]	; (256c <computeKalmanBaroOnlyGains+0x364>)

        pestp[0][0] = term[0][0] * phit[0][0] + term[0][1] * phit[1][0] + term[0][2] * phit[2][0];
        pestp[0][1] = term[0][0] * phit[0][1] + term[0][1] * phit[1][1] + term[0][2] * phit[2][1];
        pestp[0][2] = term[0][0] * phit[0][2] + term[0][1] * phit[1][2] + term[0][2] * phit[2][2];
        pestp[1][0] = term[1][0] * phit[0][0] + term[1][1] * phit[1][0] + term[1][2] * phit[2][0];
        pestp[1][1] = term[1][0] * phit[0][1] + term[1][1] * phit[1][1] + term[1][2] * phit[2][1];
    2554:	9034      	str	r0, [sp, #208]	; 0xd0
    2556:	9135      	str	r1, [sp, #212]	; 0xd4
        pestp[1][2] = term[1][0] * phit[0][2] + term[1][1] * phit[1][2] + term[1][2] * phit[2][2];
        pestp[2][0] = term[2][0] * phit[0][0] + term[2][1] * phit[1][0] + term[2][2] * phit[2][0];
    2558:	9830      	ldr	r0, [sp, #192]	; 0xc0
    255a:	9931      	ldr	r1, [sp, #196]	; 0xc4
    255c:	4b04      	ldr	r3, [pc, #16]	; (2570 <computeKalmanBaroOnlyGains+0x368>)
    255e:	47a0      	blx	r4
    2560:	9a00      	ldr	r2, [sp, #0]
    2562:	9b01      	ldr	r3, [sp, #4]
    2564:	47a8      	blx	r5
    2566:	e017      	b.n	2598 <computeKalmanBaroOnlyGains+0x390>
    2568:	20000010 	.word	0x20000010
    256c:	47ae147b 	.word	0x47ae147b
    2570:	3f747ae1 	.word	0x3f747ae1
    2574:	eb1c432d 	.word	0xeb1c432d
    2578:	3eea36e2 	.word	0x3eea36e2
    257c:	d2f1a9fc 	.word	0xd2f1a9fc
    2580:	3f50624d 	.word	0x3f50624d
    2584:	20000310 	.word	0x20000310
    2588:	3ff00000 	.word	0x3ff00000
    258c:	40220000 	.word	0x40220000
    2590:	00006291 	.word	0x00006291
    2594:	000053f1 	.word	0x000053f1
    2598:	4ad6      	ldr	r2, [pc, #856]	; (28f4 <computeKalmanBaroOnlyGains+0x6ec>)
    259a:	0006      	movs	r6, r0
    259c:	000f      	movs	r7, r1
    259e:	9832      	ldr	r0, [sp, #200]	; 0xc8
    25a0:	9933      	ldr	r1, [sp, #204]	; 0xcc
    25a2:	4bd5      	ldr	r3, [pc, #852]	; (28f8 <computeKalmanBaroOnlyGains+0x6f0>)
    25a4:	47a0      	blx	r4
    25a6:	0002      	movs	r2, r0
    25a8:	000b      	movs	r3, r1
    25aa:	0030      	movs	r0, r6
    25ac:	0039      	movs	r1, r7
    25ae:	47a8      	blx	r5
        pestp[2][1] = term[2][0] * phit[0][1] + term[2][1] * phit[1][1] + term[2][2] * phit[2][1];
    25b0:	2200      	movs	r2, #0
        pestp[0][1] = term[0][0] * phit[0][1] + term[0][1] * phit[1][1] + term[0][2] * phit[2][1];
        pestp[0][2] = term[0][0] * phit[0][2] + term[0][1] * phit[1][2] + term[0][2] * phit[2][2];
        pestp[1][0] = term[1][0] * phit[0][0] + term[1][1] * phit[1][0] + term[1][2] * phit[2][0];
        pestp[1][1] = term[1][0] * phit[0][1] + term[1][1] * phit[1][1] + term[1][2] * phit[2][1];
        pestp[1][2] = term[1][0] * phit[0][2] + term[1][1] * phit[1][2] + term[1][2] * phit[2][2];
        pestp[2][0] = term[2][0] * phit[0][0] + term[2][1] * phit[1][0] + term[2][2] * phit[2][0];
    25b2:	9004      	str	r0, [sp, #16]
    25b4:	9105      	str	r1, [sp, #20]
        pestp[2][1] = term[2][0] * phit[0][1] + term[2][1] * phit[1][1] + term[2][2] * phit[2][1];
    25b6:	9800      	ldr	r0, [sp, #0]
    25b8:	9901      	ldr	r1, [sp, #4]
    25ba:	2300      	movs	r3, #0
    25bc:	47a0      	blx	r4
        pestp[2][2] = term[2][0] * phit[0][2] + term[2][1] * phit[1][2] + term[2][2] * phit[2][2];

        pestp[0][0] = pestp[0][0] + model_variance;
    25be:	4acf      	ldr	r2, [pc, #828]	; (28fc <computeKalmanBaroOnlyGains+0x6f4>)
        pestp[0][2] = term[0][0] * phit[0][2] + term[0][1] * phit[1][2] + term[0][2] * phit[2][2];
        pestp[1][0] = term[1][0] * phit[0][0] + term[1][1] * phit[1][0] + term[1][2] * phit[2][0];
        pestp[1][1] = term[1][0] * phit[0][1] + term[1][1] * phit[1][1] + term[1][2] * phit[2][1];
        pestp[1][2] = term[1][0] * phit[0][2] + term[1][1] * phit[1][2] + term[1][2] * phit[2][2];
        pestp[2][0] = term[2][0] * phit[0][0] + term[2][1] * phit[1][0] + term[2][2] * phit[2][0];
        pestp[2][1] = term[2][0] * phit[0][1] + term[2][1] * phit[1][1] + term[2][2] * phit[2][1];
    25c0:	9038      	str	r0, [sp, #224]	; 0xe0
    25c2:	9139      	str	r1, [sp, #228]	; 0xe4
        pestp[2][2] = term[2][0] * phit[0][2] + term[2][1] * phit[1][2] + term[2][2] * phit[2][2];

        pestp[0][0] = pestp[0][0] + model_variance;
    25c4:	9828      	ldr	r0, [sp, #160]	; 0xa0
    25c6:	9929      	ldr	r1, [sp, #164]	; 0xa4
    25c8:	4bcd      	ldr	r3, [pc, #820]	; (2900 <computeKalmanBaroOnlyGains+0x6f8>)
    25ca:	47a0      	blx	r4
    25cc:	9a24      	ldr	r2, [sp, #144]	; 0x90
    25ce:	9b25      	ldr	r3, [sp, #148]	; 0x94
    25d0:	47a8      	blx	r5
    25d2:	4ac8      	ldr	r2, [pc, #800]	; (28f4 <computeKalmanBaroOnlyGains+0x6ec>)
    25d4:	0006      	movs	r6, r0
    25d6:	000f      	movs	r7, r1
    25d8:	982a      	ldr	r0, [sp, #168]	; 0xa8
    25da:	992b      	ldr	r1, [sp, #172]	; 0xac
    25dc:	4bc6      	ldr	r3, [pc, #792]	; (28f8 <computeKalmanBaroOnlyGains+0x6f0>)
    25de:	47a0      	blx	r4
    25e0:	0002      	movs	r2, r0
    25e2:	000b      	movs	r3, r1
    25e4:	0030      	movs	r0, r6
    25e6:	0039      	movs	r1, r7
    25e8:	47a8      	blx	r5
    25ea:	9a3a      	ldr	r2, [sp, #232]	; 0xe8
    25ec:	9b3b      	ldr	r3, [sp, #236]	; 0xec
    25ee:	47a8      	blx	r5
        /*
          Calculate Kalman Gain
        */
        det = (pestp[0][0]+altitude_variance);
    25f0:	9a3c      	ldr	r2, [sp, #240]	; 0xf0
    25f2:	9b3d      	ldr	r3, [sp, #244]	; 0xf4
        pestp[1][2] = term[1][0] * phit[0][2] + term[1][1] * phit[1][2] + term[1][2] * phit[2][2];
        pestp[2][0] = term[2][0] * phit[0][0] + term[2][1] * phit[1][0] + term[2][2] * phit[2][0];
        pestp[2][1] = term[2][0] * phit[0][1] + term[2][1] * phit[1][1] + term[2][2] * phit[2][1];
        pestp[2][2] = term[2][0] * phit[0][2] + term[2][1] * phit[1][2] + term[2][2] * phit[2][2];

        pestp[0][0] = pestp[0][0] + model_variance;
    25f4:	9000      	str	r0, [sp, #0]
    25f6:	9101      	str	r1, [sp, #4]
        /*
          Calculate Kalman Gain
        */
        det = (pestp[0][0]+altitude_variance);
    25f8:	47a8      	blx	r5

        baro_kgain[0] = (phi[0][0] * pestp[0][0] +
                         phi[0][1] * pestp[1][0] +
                         phi[0][2] * pestp[2][0] )/ det;
    25fa:	9a00      	ldr	r2, [sp, #0]
    25fc:	9b01      	ldr	r3, [sp, #4]

        pestp[0][0] = pestp[0][0] + model_variance;
        /*
          Calculate Kalman Gain
        */
        det = (pestp[0][0]+altitude_variance);
    25fe:	901a      	str	r0, [sp, #104]	; 0x68
    2600:	911b      	str	r1, [sp, #108]	; 0x6c

        baro_kgain[0] = (phi[0][0] * pestp[0][0] +
                         phi[0][1] * pestp[1][0] +
                         phi[0][2] * pestp[2][0] )/ det;
    2602:	9808      	ldr	r0, [sp, #32]
    2604:	9909      	ldr	r1, [sp, #36]	; 0x24
    2606:	47a0      	blx	r4
    2608:	9a02      	ldr	r2, [sp, #8]
    260a:	9b03      	ldr	r3, [sp, #12]
    260c:	0006      	movs	r6, r0
    260e:	000f      	movs	r7, r1
    2610:	980a      	ldr	r0, [sp, #40]	; 0x28
    2612:	990b      	ldr	r1, [sp, #44]	; 0x2c
    2614:	47a0      	blx	r4
    2616:	0002      	movs	r2, r0
    2618:	000b      	movs	r3, r1
    261a:	0030      	movs	r0, r6
    261c:	0039      	movs	r1, r7
    261e:	47a8      	blx	r5
    2620:	9a04      	ldr	r2, [sp, #16]
    2622:	9b05      	ldr	r3, [sp, #20]
    2624:	0006      	movs	r6, r0
    2626:	000f      	movs	r7, r1
    2628:	980c      	ldr	r0, [sp, #48]	; 0x30
    262a:	990d      	ldr	r1, [sp, #52]	; 0x34
    262c:	47a0      	blx	r4
    262e:	0002      	movs	r2, r0
    2630:	000b      	movs	r3, r1
    2632:	0030      	movs	r0, r6
    2634:	0039      	movs	r1, r7
    2636:	47a8      	blx	r5
    2638:	9a1a      	ldr	r2, [sp, #104]	; 0x68
    263a:	9b1b      	ldr	r3, [sp, #108]	; 0x6c
    263c:	4eb1      	ldr	r6, [pc, #708]	; (2904 <computeKalmanBaroOnlyGains+0x6fc>)
    263e:	47b0      	blx	r6
    2640:	901c      	str	r0, [sp, #112]	; 0x70
    2642:	911d      	str	r1, [sp, #116]	; 0x74
        /*
          Calculate Kalman Gain
        */
        det = (pestp[0][0]+altitude_variance);

        baro_kgain[0] = (phi[0][0] * pestp[0][0] +
    2644:	9a1c      	ldr	r2, [sp, #112]	; 0x70
    2646:	9b1d      	ldr	r3, [sp, #116]	; 0x74
    2648:	49af      	ldr	r1, [pc, #700]	; (2908 <computeKalmanBaroOnlyGains+0x700>)
    264a:	600a      	str	r2, [r1, #0]
    264c:	604b      	str	r3, [r1, #4]
                         phi[0][1] * pestp[1][0] +
                         phi[0][2] * pestp[2][0] )/ det;
        baro_kgain[1] = (phi[1][0] * pestp[0][0] +
                         phi[1][1] * pestp[1][0] +
                         phi[1][2] * pestp[2][0] )/ det;
    264e:	9a00      	ldr	r2, [sp, #0]
    2650:	9b01      	ldr	r3, [sp, #4]
    2652:	980e      	ldr	r0, [sp, #56]	; 0x38
    2654:	990f      	ldr	r1, [sp, #60]	; 0x3c
    2656:	47a0      	blx	r4
    2658:	9a02      	ldr	r2, [sp, #8]
    265a:	9b03      	ldr	r3, [sp, #12]
    265c:	0006      	movs	r6, r0
    265e:	000f      	movs	r7, r1
    2660:	9810      	ldr	r0, [sp, #64]	; 0x40
    2662:	9911      	ldr	r1, [sp, #68]	; 0x44
    2664:	47a0      	blx	r4
    2666:	0002      	movs	r2, r0
    2668:	000b      	movs	r3, r1
    266a:	0030      	movs	r0, r6
    266c:	0039      	movs	r1, r7
    266e:	47a8      	blx	r5
    2670:	9a04      	ldr	r2, [sp, #16]
    2672:	9b05      	ldr	r3, [sp, #20]
    2674:	0006      	movs	r6, r0
    2676:	000f      	movs	r7, r1
    2678:	9812      	ldr	r0, [sp, #72]	; 0x48
    267a:	9913      	ldr	r1, [sp, #76]	; 0x4c
    267c:	47a0      	blx	r4
    267e:	0002      	movs	r2, r0
    2680:	000b      	movs	r3, r1
    2682:	0030      	movs	r0, r6
    2684:	0039      	movs	r1, r7
    2686:	47a8      	blx	r5
    2688:	9a1a      	ldr	r2, [sp, #104]	; 0x68
    268a:	9b1b      	ldr	r3, [sp, #108]	; 0x6c
    268c:	4e9d      	ldr	r6, [pc, #628]	; (2904 <computeKalmanBaroOnlyGains+0x6fc>)
    268e:	47b0      	blx	r6
    2690:	9006      	str	r0, [sp, #24]
    2692:	9107      	str	r1, [sp, #28]
        det = (pestp[0][0]+altitude_variance);

        baro_kgain[0] = (phi[0][0] * pestp[0][0] +
                         phi[0][1] * pestp[1][0] +
                         phi[0][2] * pestp[2][0] )/ det;
        baro_kgain[1] = (phi[1][0] * pestp[0][0] +
    2694:	9a06      	ldr	r2, [sp, #24]
    2696:	9b07      	ldr	r3, [sp, #28]
    2698:	499b      	ldr	r1, [pc, #620]	; (2908 <computeKalmanBaroOnlyGains+0x700>)
    269a:	608a      	str	r2, [r1, #8]
    269c:	60cb      	str	r3, [r1, #12]
                         phi[1][1] * pestp[1][0] +
                         phi[1][2] * pestp[2][0] )/ det;
        baro_kgain[2] = (phi[2][0] * pestp[0][0] +
                         phi[2][1] * pestp[1][0] +
                         phi[2][2] * pestp[2][0] )/det;
    269e:	9a00      	ldr	r2, [sp, #0]
    26a0:	9b01      	ldr	r3, [sp, #4]
    26a2:	9814      	ldr	r0, [sp, #80]	; 0x50
    26a4:	9915      	ldr	r1, [sp, #84]	; 0x54
    26a6:	47a0      	blx	r4
    26a8:	9a02      	ldr	r2, [sp, #8]
    26aa:	9b03      	ldr	r3, [sp, #12]
    26ac:	0006      	movs	r6, r0
    26ae:	000f      	movs	r7, r1
    26b0:	9816      	ldr	r0, [sp, #88]	; 0x58
    26b2:	9917      	ldr	r1, [sp, #92]	; 0x5c
    26b4:	47a0      	blx	r4
    26b6:	0002      	movs	r2, r0
    26b8:	000b      	movs	r3, r1
    26ba:	0030      	movs	r0, r6
    26bc:	0039      	movs	r1, r7
    26be:	47a8      	blx	r5
    26c0:	9a04      	ldr	r2, [sp, #16]
    26c2:	9b05      	ldr	r3, [sp, #20]
    26c4:	0006      	movs	r6, r0
    26c6:	000f      	movs	r7, r1
    26c8:	9818      	ldr	r0, [sp, #96]	; 0x60
    26ca:	9919      	ldr	r1, [sp, #100]	; 0x64
    26cc:	47a0      	blx	r4
    26ce:	0002      	movs	r2, r0
    26d0:	000b      	movs	r3, r1
    26d2:	0030      	movs	r0, r6
    26d4:	0039      	movs	r1, r7
    26d6:	47a8      	blx	r5
    26d8:	9a1a      	ldr	r2, [sp, #104]	; 0x68
    26da:	9b1b      	ldr	r3, [sp, #108]	; 0x6c
    26dc:	4e89      	ldr	r6, [pc, #548]	; (2904 <computeKalmanBaroOnlyGains+0x6fc>)
    26de:	47b0      	blx	r6
    26e0:	9024      	str	r0, [sp, #144]	; 0x90
    26e2:	9125      	str	r1, [sp, #148]	; 0x94
                         phi[0][1] * pestp[1][0] +
                         phi[0][2] * pestp[2][0] )/ det;
        baro_kgain[1] = (phi[1][0] * pestp[0][0] +
                         phi[1][1] * pestp[1][0] +
                         phi[1][2] * pestp[2][0] )/ det;
        baro_kgain[2] = (phi[2][0] * pestp[0][0] +
    26e4:	9a24      	ldr	r2, [sp, #144]	; 0x90
    26e6:	9b25      	ldr	r3, [sp, #148]	; 0x94
    26e8:	4987      	ldr	r1, [pc, #540]	; (2908 <computeKalmanBaroOnlyGains+0x700>)
                         phi[2][1] * pestp[1][0] +
                         phi[2][2] * pestp[2][0] )/det;

        pest[0][0] = pestp[0][0] * (1.0 - baro_kgain[0]);
    26ea:	4e88      	ldr	r6, [pc, #544]	; (290c <computeKalmanBaroOnlyGains+0x704>)
                         phi[0][1] * pestp[1][0] +
                         phi[0][2] * pestp[2][0] )/ det;
        baro_kgain[1] = (phi[1][0] * pestp[0][0] +
                         phi[1][1] * pestp[1][0] +
                         phi[1][2] * pestp[2][0] )/ det;
        baro_kgain[2] = (phi[2][0] * pestp[0][0] +
    26ec:	610a      	str	r2, [r1, #16]
    26ee:	614b      	str	r3, [r1, #20]
                         phi[2][1] * pestp[1][0] +
                         phi[2][2] * pestp[2][0] )/det;

        pest[0][0] = pestp[0][0] * (1.0 - baro_kgain[0]);
    26f0:	9a1c      	ldr	r2, [sp, #112]	; 0x70
    26f2:	9b1d      	ldr	r3, [sp, #116]	; 0x74
    26f4:	2000      	movs	r0, #0
    26f6:	4986      	ldr	r1, [pc, #536]	; (2910 <computeKalmanBaroOnlyGains+0x708>)
    26f8:	47b0      	blx	r6
    26fa:	0006      	movs	r6, r0
    26fc:	000f      	movs	r7, r1
    26fe:	0002      	movs	r2, r0
    2700:	000b      	movs	r3, r1
    2702:	9800      	ldr	r0, [sp, #0]
    2704:	9901      	ldr	r1, [sp, #4]
    2706:	47a0      	blx	r4
        pest[0][1] = pestp[1][0] * (1.0 - baro_kgain[0]);
    2708:	0032      	movs	r2, r6
    270a:	003b      	movs	r3, r7
                         phi[1][2] * pestp[2][0] )/ det;
        baro_kgain[2] = (phi[2][0] * pestp[0][0] +
                         phi[2][1] * pestp[1][0] +
                         phi[2][2] * pestp[2][0] )/det;

        pest[0][0] = pestp[0][0] * (1.0 - baro_kgain[0]);
    270c:	901a      	str	r0, [sp, #104]	; 0x68
    270e:	911b      	str	r1, [sp, #108]	; 0x6c
        pest[0][1] = pestp[1][0] * (1.0 - baro_kgain[0]);
    2710:	9802      	ldr	r0, [sp, #8]
    2712:	9903      	ldr	r1, [sp, #12]
    2714:	47a0      	blx	r4
        pest[0][2] = pestp[2][0] * (1.0 - baro_kgain[0]);
    2716:	0032      	movs	r2, r6
    2718:	003b      	movs	r3, r7
        baro_kgain[2] = (phi[2][0] * pestp[0][0] +
                         phi[2][1] * pestp[1][0] +
                         phi[2][2] * pestp[2][0] )/det;

        pest[0][0] = pestp[0][0] * (1.0 - baro_kgain[0]);
        pest[0][1] = pestp[1][0] * (1.0 - baro_kgain[0]);
    271a:	901c      	str	r0, [sp, #112]	; 0x70
    271c:	911d      	str	r1, [sp, #116]	; 0x74
        pest[0][2] = pestp[2][0] * (1.0 - baro_kgain[0]);
    271e:	9804      	ldr	r0, [sp, #16]
    2720:	9905      	ldr	r1, [sp, #20]
    2722:	47a0      	blx	r4
        pest[1][0] = pestp[0][1] - baro_kgain[1] * pestp[0][0];
    2724:	9a36      	ldr	r2, [sp, #216]	; 0xd8
    2726:	9b37      	ldr	r3, [sp, #220]	; 0xdc
                         phi[2][1] * pestp[1][0] +
                         phi[2][2] * pestp[2][0] )/det;

        pest[0][0] = pestp[0][0] * (1.0 - baro_kgain[0]);
        pest[0][1] = pestp[1][0] * (1.0 - baro_kgain[0]);
        pest[0][2] = pestp[2][0] * (1.0 - baro_kgain[0]);
    2728:	901e      	str	r0, [sp, #120]	; 0x78
    272a:	911f      	str	r1, [sp, #124]	; 0x7c
        pest[1][0] = pestp[0][1] - baro_kgain[1] * pestp[0][0];
    272c:	9828      	ldr	r0, [sp, #160]	; 0xa0
    272e:	9929      	ldr	r1, [sp, #164]	; 0xa4
    2730:	47a8      	blx	r5
    2732:	4a72      	ldr	r2, [pc, #456]	; (28fc <computeKalmanBaroOnlyGains+0x6f4>)
    2734:	0006      	movs	r6, r0
    2736:	000f      	movs	r7, r1
    2738:	982a      	ldr	r0, [sp, #168]	; 0xa8
    273a:	992b      	ldr	r1, [sp, #172]	; 0xac
    273c:	4b70      	ldr	r3, [pc, #448]	; (2900 <computeKalmanBaroOnlyGains+0x6f8>)
    273e:	47a0      	blx	r4
    2740:	0002      	movs	r2, r0
    2742:	000b      	movs	r3, r1
    2744:	0030      	movs	r0, r6
    2746:	0039      	movs	r1, r7
    2748:	47a8      	blx	r5
    274a:	9a06      	ldr	r2, [sp, #24]
    274c:	9b07      	ldr	r3, [sp, #28]
    274e:	0006      	movs	r6, r0
    2750:	000f      	movs	r7, r1
    2752:	9800      	ldr	r0, [sp, #0]
    2754:	9901      	ldr	r1, [sp, #4]
    2756:	47a0      	blx	r4
    2758:	0002      	movs	r2, r0
    275a:	000b      	movs	r3, r1
    275c:	0030      	movs	r0, r6
    275e:	0039      	movs	r1, r7
    2760:	4e6a      	ldr	r6, [pc, #424]	; (290c <computeKalmanBaroOnlyGains+0x704>)
    2762:	47b0      	blx	r6
        pest[1][1] = pestp[1][1] - baro_kgain[1] * pestp[1][0];
    2764:	9a34      	ldr	r2, [sp, #208]	; 0xd0
    2766:	9b35      	ldr	r3, [sp, #212]	; 0xd4
                         phi[2][2] * pestp[2][0] )/det;

        pest[0][0] = pestp[0][0] * (1.0 - baro_kgain[0]);
        pest[0][1] = pestp[1][0] * (1.0 - baro_kgain[0]);
        pest[0][2] = pestp[2][0] * (1.0 - baro_kgain[0]);
        pest[1][0] = pestp[0][1] - baro_kgain[1] * pestp[0][0];
    2768:	9020      	str	r0, [sp, #128]	; 0x80
    276a:	9121      	str	r1, [sp, #132]	; 0x84
        pest[1][1] = pestp[1][1] - baro_kgain[1] * pestp[1][0];
    276c:	982c      	ldr	r0, [sp, #176]	; 0xb0
    276e:	992d      	ldr	r1, [sp, #180]	; 0xb4
    2770:	47a8      	blx	r5
    2772:	4a62      	ldr	r2, [pc, #392]	; (28fc <computeKalmanBaroOnlyGains+0x6f4>)
    2774:	0006      	movs	r6, r0
    2776:	000f      	movs	r7, r1
    2778:	982e      	ldr	r0, [sp, #184]	; 0xb8
    277a:	992f      	ldr	r1, [sp, #188]	; 0xbc
    277c:	4b60      	ldr	r3, [pc, #384]	; (2900 <computeKalmanBaroOnlyGains+0x6f8>)
    277e:	47a0      	blx	r4
    2780:	0002      	movs	r2, r0
    2782:	000b      	movs	r3, r1
    2784:	0030      	movs	r0, r6
    2786:	0039      	movs	r1, r7
    2788:	47a8      	blx	r5
    278a:	9a06      	ldr	r2, [sp, #24]
    278c:	9b07      	ldr	r3, [sp, #28]
    278e:	0006      	movs	r6, r0
    2790:	000f      	movs	r7, r1
    2792:	9802      	ldr	r0, [sp, #8]
    2794:	9903      	ldr	r1, [sp, #12]
    2796:	47a0      	blx	r4
    2798:	0002      	movs	r2, r0
    279a:	000b      	movs	r3, r1
    279c:	0030      	movs	r0, r6
    279e:	0039      	movs	r1, r7
    27a0:	4e5a      	ldr	r6, [pc, #360]	; (290c <computeKalmanBaroOnlyGains+0x704>)
    27a2:	47b0      	blx	r6
        pest[1][2] = pestp[2][1] - baro_kgain[1] * pestp[2][0];
    27a4:	9a38      	ldr	r2, [sp, #224]	; 0xe0
    27a6:	9b39      	ldr	r3, [sp, #228]	; 0xe4

        pest[0][0] = pestp[0][0] * (1.0 - baro_kgain[0]);
        pest[0][1] = pestp[1][0] * (1.0 - baro_kgain[0]);
        pest[0][2] = pestp[2][0] * (1.0 - baro_kgain[0]);
        pest[1][0] = pestp[0][1] - baro_kgain[1] * pestp[0][0];
        pest[1][1] = pestp[1][1] - baro_kgain[1] * pestp[1][0];
    27a8:	9022      	str	r0, [sp, #136]	; 0x88
    27aa:	9123      	str	r1, [sp, #140]	; 0x8c
        pest[1][2] = pestp[2][1] - baro_kgain[1] * pestp[2][0];
    27ac:	9830      	ldr	r0, [sp, #192]	; 0xc0
    27ae:	9931      	ldr	r1, [sp, #196]	; 0xc4
    27b0:	47a8      	blx	r5
    27b2:	4a52      	ldr	r2, [pc, #328]	; (28fc <computeKalmanBaroOnlyGains+0x6f4>)
    27b4:	0006      	movs	r6, r0
    27b6:	000f      	movs	r7, r1
    27b8:	9832      	ldr	r0, [sp, #200]	; 0xc8
    27ba:	9933      	ldr	r1, [sp, #204]	; 0xcc
    27bc:	4b50      	ldr	r3, [pc, #320]	; (2900 <computeKalmanBaroOnlyGains+0x6f8>)
    27be:	47a0      	blx	r4
    27c0:	0002      	movs	r2, r0
    27c2:	000b      	movs	r3, r1
    27c4:	0030      	movs	r0, r6
    27c6:	0039      	movs	r1, r7
    27c8:	47a8      	blx	r5
    27ca:	9a06      	ldr	r2, [sp, #24]
    27cc:	9b07      	ldr	r3, [sp, #28]
    27ce:	0006      	movs	r6, r0
    27d0:	000f      	movs	r7, r1
    27d2:	9804      	ldr	r0, [sp, #16]
    27d4:	9905      	ldr	r1, [sp, #20]
    27d6:	47a0      	blx	r4
    27d8:	0002      	movs	r2, r0
    27da:	000b      	movs	r3, r1
    27dc:	0030      	movs	r0, r6
    27de:	0039      	movs	r1, r7
    27e0:	4e4a      	ldr	r6, [pc, #296]	; (290c <computeKalmanBaroOnlyGains+0x704>)
    27e2:	47b0      	blx	r6
        pest[2][0] = pestp[0][2] - baro_kgain[2] * pestp[0][0];
    27e4:	2200      	movs	r2, #0
    27e6:	2300      	movs	r3, #0
        pest[0][0] = pestp[0][0] * (1.0 - baro_kgain[0]);
        pest[0][1] = pestp[1][0] * (1.0 - baro_kgain[0]);
        pest[0][2] = pestp[2][0] * (1.0 - baro_kgain[0]);
        pest[1][0] = pestp[0][1] - baro_kgain[1] * pestp[0][0];
        pest[1][1] = pestp[1][1] - baro_kgain[1] * pestp[1][0];
        pest[1][2] = pestp[2][1] - baro_kgain[1] * pestp[2][0];
    27e8:	9006      	str	r0, [sp, #24]
    27ea:	9107      	str	r1, [sp, #28]
        pest[2][0] = pestp[0][2] - baro_kgain[2] * pestp[0][0];
    27ec:	9828      	ldr	r0, [sp, #160]	; 0xa0
    27ee:	9929      	ldr	r1, [sp, #164]	; 0xa4
    27f0:	47a0      	blx	r4
    27f2:	9a36      	ldr	r2, [sp, #216]	; 0xd8
    27f4:	9b37      	ldr	r3, [sp, #220]	; 0xdc
    27f6:	47a8      	blx	r5
    27f8:	9a2a      	ldr	r2, [sp, #168]	; 0xa8
    27fa:	9b2b      	ldr	r3, [sp, #172]	; 0xac
    27fc:	47a8      	blx	r5
    27fe:	9a24      	ldr	r2, [sp, #144]	; 0x90
    2800:	9b25      	ldr	r3, [sp, #148]	; 0x94
    2802:	0006      	movs	r6, r0
    2804:	000f      	movs	r7, r1
    2806:	9800      	ldr	r0, [sp, #0]
    2808:	9901      	ldr	r1, [sp, #4]
    280a:	47a0      	blx	r4
    280c:	0002      	movs	r2, r0
    280e:	000b      	movs	r3, r1
    2810:	0030      	movs	r0, r6
    2812:	0039      	movs	r1, r7
    2814:	4e3d      	ldr	r6, [pc, #244]	; (290c <computeKalmanBaroOnlyGains+0x704>)
    2816:	47b0      	blx	r6
        pest[2][1] = pestp[1][2] - baro_kgain[2] * pestp[1][0];
    2818:	2200      	movs	r2, #0
        pest[0][1] = pestp[1][0] * (1.0 - baro_kgain[0]);
        pest[0][2] = pestp[2][0] * (1.0 - baro_kgain[0]);
        pest[1][0] = pestp[0][1] - baro_kgain[1] * pestp[0][0];
        pest[1][1] = pestp[1][1] - baro_kgain[1] * pestp[1][0];
        pest[1][2] = pestp[2][1] - baro_kgain[1] * pestp[2][0];
        pest[2][0] = pestp[0][2] - baro_kgain[2] * pestp[0][0];
    281a:	9000      	str	r0, [sp, #0]
    281c:	9101      	str	r1, [sp, #4]
        pest[2][1] = pestp[1][2] - baro_kgain[2] * pestp[1][0];
    281e:	982c      	ldr	r0, [sp, #176]	; 0xb0
    2820:	992d      	ldr	r1, [sp, #180]	; 0xb4
    2822:	2300      	movs	r3, #0
    2824:	47a0      	blx	r4
    2826:	9a34      	ldr	r2, [sp, #208]	; 0xd0
    2828:	9b35      	ldr	r3, [sp, #212]	; 0xd4
    282a:	47a8      	blx	r5
    282c:	9a2e      	ldr	r2, [sp, #184]	; 0xb8
    282e:	9b2f      	ldr	r3, [sp, #188]	; 0xbc
    2830:	47a8      	blx	r5
    2832:	9a24      	ldr	r2, [sp, #144]	; 0x90
    2834:	9b25      	ldr	r3, [sp, #148]	; 0x94
    2836:	0006      	movs	r6, r0
    2838:	000f      	movs	r7, r1
    283a:	9802      	ldr	r0, [sp, #8]
    283c:	9903      	ldr	r1, [sp, #12]
    283e:	47a0      	blx	r4
    2840:	0002      	movs	r2, r0
    2842:	000b      	movs	r3, r1
    2844:	0030      	movs	r0, r6
    2846:	0039      	movs	r1, r7
    2848:	4e30      	ldr	r6, [pc, #192]	; (290c <computeKalmanBaroOnlyGains+0x704>)
    284a:	47b0      	blx	r6
        pest[2][2] = pestp[2][2] - baro_kgain[2] * pestp[2][0];
    284c:	2200      	movs	r2, #0
        pest[0][2] = pestp[2][0] * (1.0 - baro_kgain[0]);
        pest[1][0] = pestp[0][1] - baro_kgain[1] * pestp[0][0];
        pest[1][1] = pestp[1][1] - baro_kgain[1] * pestp[1][0];
        pest[1][2] = pestp[2][1] - baro_kgain[1] * pestp[2][0];
        pest[2][0] = pestp[0][2] - baro_kgain[2] * pestp[0][0];
        pest[2][1] = pestp[1][2] - baro_kgain[2] * pestp[1][0];
    284e:	9002      	str	r0, [sp, #8]
    2850:	9103      	str	r1, [sp, #12]
        pest[2][2] = pestp[2][2] - baro_kgain[2] * pestp[2][0];
    2852:	9830      	ldr	r0, [sp, #192]	; 0xc0
    2854:	9931      	ldr	r1, [sp, #196]	; 0xc4
    2856:	2300      	movs	r3, #0
    2858:	47a0      	blx	r4
    285a:	9a38      	ldr	r2, [sp, #224]	; 0xe0
    285c:	9b39      	ldr	r3, [sp, #228]	; 0xe4
    285e:	47a8      	blx	r5
    2860:	9a32      	ldr	r2, [sp, #200]	; 0xc8
    2862:	9b33      	ldr	r3, [sp, #204]	; 0xcc
    2864:	47a8      	blx	r5
    2866:	9a24      	ldr	r2, [sp, #144]	; 0x90
    2868:	9b25      	ldr	r3, [sp, #148]	; 0x94
    286a:	0006      	movs	r6, r0
    286c:	000f      	movs	r7, r1
    286e:	9804      	ldr	r0, [sp, #16]
    2870:	9905      	ldr	r1, [sp, #20]
    2872:	47a0      	blx	r4
    2874:	4c25      	ldr	r4, [pc, #148]	; (290c <computeKalmanBaroOnlyGains+0x704>)
    2876:	000b      	movs	r3, r1
    2878:	0002      	movs	r2, r0
    287a:	0039      	movs	r1, r7
    287c:	0030      	movs	r0, r6
    287e:	47a0      	blx	r4
         * time through the mill. Because I have noticed very early convergance
         * in a few cases (< 20 iterations) I am delaying this for at least
         * 100 iterations.
         */
        notdone = 0;
        k++;
    2880:	2400      	movs	r4, #0
    2882:	9b27      	ldr	r3, [sp, #156]	; 0x9c
        pest[1][0] = pestp[0][1] - baro_kgain[1] * pestp[0][0];
        pest[1][1] = pestp[1][1] - baro_kgain[1] * pestp[1][0];
        pest[1][2] = pestp[2][1] - baro_kgain[1] * pestp[2][0];
        pest[2][0] = pestp[0][2] - baro_kgain[2] * pestp[0][0];
        pest[2][1] = pestp[1][2] - baro_kgain[2] * pestp[1][0];
        pest[2][2] = pestp[2][2] - baro_kgain[2] * pestp[2][0];
    2884:	9004      	str	r0, [sp, #16]
    2886:	9105      	str	r1, [sp, #20]
         * time through the mill. Because I have noticed very early convergance
         * in a few cases (< 20 iterations) I am delaying this for at least
         * 100 iterations.
         */
        notdone = 0;
        k++;
    2888:	3301      	adds	r3, #1
    288a:	9327      	str	r3, [sp, #156]	; 0x9c
        for( i = 0; i <= 2; i++) {
            if( (baro_kgain[i] - lastkgain[i])/lastkgain[i] > 0.00001)
    288c:	4b1e      	ldr	r3, [pc, #120]	; (2908 <computeKalmanBaroOnlyGains+0x700>)
        /* Check for convergance. Criteria is less than .001% change from last
         * time through the mill. Because I have noticed very early convergance
         * in a few cases (< 20 iterations) I am delaying this for at least
         * 100 iterations.
         */
        notdone = 0;
    288e:	9424      	str	r4, [sp, #144]	; 0x90
        k++;
        for( i = 0; i <= 2; i++) {
            if( (baro_kgain[i] - lastkgain[i])/lastkgain[i] > 0.00001)
    2890:	932c      	str	r3, [sp, #176]	; 0xb0
    2892:	4b1e      	ldr	r3, [pc, #120]	; (290c <computeKalmanBaroOnlyGains+0x704>)
    2894:	932e      	str	r3, [sp, #184]	; 0xb8
    2896:	9b2c      	ldr	r3, [sp, #176]	; 0xb0
    2898:	18e3      	adds	r3, r4, r3
    289a:	681a      	ldr	r2, [r3, #0]
    289c:	685b      	ldr	r3, [r3, #4]
    289e:	9228      	str	r2, [sp, #160]	; 0xa0
    28a0:	9329      	str	r3, [sp, #164]	; 0xa4
    28a2:	9828      	ldr	r0, [sp, #160]	; 0xa0
    28a4:	9929      	ldr	r1, [sp, #164]	; 0xa4
    28a6:	ab3e      	add	r3, sp, #248	; 0xf8
    28a8:	18e5      	adds	r5, r4, r3
    28aa:	682e      	ldr	r6, [r5, #0]
    28ac:	686f      	ldr	r7, [r5, #4]
    28ae:	952a      	str	r5, [sp, #168]	; 0xa8
    28b0:	0032      	movs	r2, r6
    28b2:	003b      	movs	r3, r7
    28b4:	9d2e      	ldr	r5, [sp, #184]	; 0xb8
    28b6:	47a8      	blx	r5
    28b8:	0032      	movs	r2, r6
    28ba:	003b      	movs	r3, r7
    28bc:	4e11      	ldr	r6, [pc, #68]	; (2904 <computeKalmanBaroOnlyGains+0x6fc>)
    28be:	47b0      	blx	r6
    28c0:	4b14      	ldr	r3, [pc, #80]	; (2914 <computeKalmanBaroOnlyGains+0x70c>)
    28c2:	4a15      	ldr	r2, [pc, #84]	; (2918 <computeKalmanBaroOnlyGains+0x710>)
    28c4:	4e15      	ldr	r6, [pc, #84]	; (291c <computeKalmanBaroOnlyGains+0x714>)
    28c6:	47b0      	blx	r6
                notdone++;
    28c8:	1e43      	subs	r3, r0, #1
    28ca:	4198      	sbcs	r0, r3
    28cc:	9b24      	ldr	r3, [sp, #144]	; 0x90
            lastkgain[i] = baro_kgain[i];
    28ce:	992a      	ldr	r1, [sp, #168]	; 0xa8
         */
        notdone = 0;
        k++;
        for( i = 0; i <= 2; i++) {
            if( (baro_kgain[i] - lastkgain[i])/lastkgain[i] > 0.00001)
                notdone++;
    28d0:	181b      	adds	r3, r3, r0
    28d2:	3408      	adds	r4, #8
    28d4:	9324      	str	r3, [sp, #144]	; 0x90
            lastkgain[i] = baro_kgain[i];
    28d6:	9a28      	ldr	r2, [sp, #160]	; 0xa0
    28d8:	9b29      	ldr	r3, [sp, #164]	; 0xa4
    28da:	600a      	str	r2, [r1, #0]
    28dc:	604b      	str	r3, [r1, #4]
         * in a few cases (< 20 iterations) I am delaying this for at least
         * 100 iterations.
         */
        notdone = 0;
        k++;
        for( i = 0; i <= 2; i++) {
    28de:	2c18      	cmp	r4, #24
    28e0:	d1d9      	bne.n	2896 <computeKalmanBaroOnlyGains+0x68e>
            if( (baro_kgain[i] - lastkgain[i])/lastkgain[i] > 0.00001)
                notdone++;
            lastkgain[i] = baro_kgain[i];
        }
        if( notdone || k < 100)
    28e2:	9b24      	ldr	r3, [sp, #144]	; 0x90
    28e4:	2b00      	cmp	r3, #0
    28e6:	d000      	beq.n	28ea <computeKalmanBaroOnlyGains+0x6e2>
    28e8:	e4f8      	b.n	22dc <computeKalmanBaroOnlyGains+0xd4>
    28ea:	9b27      	ldr	r3, [sp, #156]	; 0x9c
    28ec:	2b63      	cmp	r3, #99	; 0x63
    28ee:	dc00      	bgt.n	28f2 <computeKalmanBaroOnlyGains+0x6ea>
    28f0:	e4f4      	b.n	22dc <computeKalmanBaroOnlyGains+0xd4>
    28f2:	e015      	b.n	2920 <computeKalmanBaroOnlyGains+0x718>
    28f4:	eb1c432d 	.word	0xeb1c432d
    28f8:	3eea36e2 	.word	0x3eea36e2
    28fc:	47ae147b 	.word	0x47ae147b
    2900:	3f747ae1 	.word	0x3f747ae1
    2904:	00005a49 	.word	0x00005a49
    2908:	20000310 	.word	0x20000310
    290c:	00006785 	.word	0x00006785
    2910:	3ff00000 	.word	0x3ff00000
    2914:	3ee4f8b5 	.word	0x3ee4f8b5
    2918:	88e368f1 	.word	0x88e368f1
    291c:	000050c9 	.word	0x000050c9
            continue;
        else
            break;
    }
}
    2920:	b045      	add	sp, #276	; 0x114
    2922:	bdf0      	pop	{r4, r5, r6, r7, pc}

00002924 <KalmanBaroUpdate>:

void KalmanBaroUpdate(double alt_inovation) {
    2924:	b5f0      	push	{r4, r5, r6, r7, lr}

    /* Propagate state */
    estp[0] = phi[0][0] * altitude + phi[0][1] * velocity + phi[0][2] * accel;
    2926:	4b55      	ldr	r3, [pc, #340]	; (2a7c <KalmanBaroUpdate+0x158>)
        else
            break;
    }
}

void KalmanBaroUpdate(double alt_inovation) {
    2928:	b08d      	sub	sp, #52	; 0x34

    /* Propagate state */
    estp[0] = phi[0][0] * altitude + phi[0][1] * velocity + phi[0][2] * accel;
    292a:	685c      	ldr	r4, [r3, #4]
    292c:	681b      	ldr	r3, [r3, #0]
    292e:	9300      	str	r3, [sp, #0]
    2930:	9401      	str	r4, [sp, #4]
    2932:	4b53      	ldr	r3, [pc, #332]	; (2a80 <KalmanBaroUpdate+0x15c>)
    2934:	4d53      	ldr	r5, [pc, #332]	; (2a84 <KalmanBaroUpdate+0x160>)
    2936:	685c      	ldr	r4, [r3, #4]
    2938:	681b      	ldr	r3, [r3, #0]
    293a:	9302      	str	r3, [sp, #8]
    293c:	9403      	str	r4, [sp, #12]
    293e:	4b52      	ldr	r3, [pc, #328]	; (2a88 <KalmanBaroUpdate+0x164>)
        else
            break;
    }
}

void KalmanBaroUpdate(double alt_inovation) {
    2940:	9006      	str	r0, [sp, #24]
    2942:	9107      	str	r1, [sp, #28]

    /* Propagate state */
    estp[0] = phi[0][0] * altitude + phi[0][1] * velocity + phi[0][2] * accel;
    2944:	685c      	ldr	r4, [r3, #4]
    2946:	681b      	ldr	r3, [r3, #0]
    2948:	9800      	ldr	r0, [sp, #0]
    294a:	9901      	ldr	r1, [sp, #4]
    294c:	9304      	str	r3, [sp, #16]
    294e:	9405      	str	r4, [sp, #20]
    2950:	4c4e      	ldr	r4, [pc, #312]	; (2a8c <KalmanBaroUpdate+0x168>)
    2952:	6822      	ldr	r2, [r4, #0]
    2954:	6863      	ldr	r3, [r4, #4]
    2956:	47a8      	blx	r5
    2958:	68a2      	ldr	r2, [r4, #8]
    295a:	68e3      	ldr	r3, [r4, #12]
    295c:	0006      	movs	r6, r0
    295e:	000f      	movs	r7, r1
    2960:	9802      	ldr	r0, [sp, #8]
    2962:	9903      	ldr	r1, [sp, #12]
    2964:	47a8      	blx	r5
    2966:	0002      	movs	r2, r0
    2968:	000b      	movs	r3, r1
    296a:	0030      	movs	r0, r6
    296c:	0039      	movs	r1, r7
    296e:	4e48      	ldr	r6, [pc, #288]	; (2a90 <KalmanBaroUpdate+0x16c>)
    2970:	47b0      	blx	r6
    2972:	6922      	ldr	r2, [r4, #16]
    2974:	6963      	ldr	r3, [r4, #20]
    2976:	0006      	movs	r6, r0
    2978:	000f      	movs	r7, r1
    297a:	9804      	ldr	r0, [sp, #16]
    297c:	9905      	ldr	r1, [sp, #20]
    297e:	47a8      	blx	r5
    2980:	0002      	movs	r2, r0
    2982:	000b      	movs	r3, r1
    2984:	0030      	movs	r0, r6
    2986:	0039      	movs	r1, r7
    2988:	4e41      	ldr	r6, [pc, #260]	; (2a90 <KalmanBaroUpdate+0x16c>)
    298a:	47b0      	blx	r6
    298c:	9008      	str	r0, [sp, #32]
    298e:	9109      	str	r1, [sp, #36]	; 0x24
    2990:	9a08      	ldr	r2, [sp, #32]
    2992:	9b09      	ldr	r3, [sp, #36]	; 0x24
    2994:	493f      	ldr	r1, [pc, #252]	; (2a94 <KalmanBaroUpdate+0x170>)
    2996:	600a      	str	r2, [r1, #0]
    2998:	604b      	str	r3, [r1, #4]
    estp[1] = phi[1][0] * altitude + phi[1][1] * velocity + phi[1][2] * accel;
    299a:	69a2      	ldr	r2, [r4, #24]
    299c:	69e3      	ldr	r3, [r4, #28]
    299e:	9800      	ldr	r0, [sp, #0]
    29a0:	9901      	ldr	r1, [sp, #4]
    29a2:	47a8      	blx	r5
    29a4:	6a22      	ldr	r2, [r4, #32]
    29a6:	6a63      	ldr	r3, [r4, #36]	; 0x24
    29a8:	0006      	movs	r6, r0
    29aa:	000f      	movs	r7, r1
    29ac:	9802      	ldr	r0, [sp, #8]
    29ae:	9903      	ldr	r1, [sp, #12]
    29b0:	47a8      	blx	r5
    29b2:	0002      	movs	r2, r0
    29b4:	000b      	movs	r3, r1
    29b6:	0030      	movs	r0, r6
    29b8:	0039      	movs	r1, r7
    29ba:	4e35      	ldr	r6, [pc, #212]	; (2a90 <KalmanBaroUpdate+0x16c>)
    29bc:	47b0      	blx	r6
    29be:	6aa2      	ldr	r2, [r4, #40]	; 0x28
    29c0:	6ae3      	ldr	r3, [r4, #44]	; 0x2c
    29c2:	0006      	movs	r6, r0
    29c4:	000f      	movs	r7, r1
    29c6:	9804      	ldr	r0, [sp, #16]
    29c8:	9905      	ldr	r1, [sp, #20]
    29ca:	47a8      	blx	r5
    29cc:	0002      	movs	r2, r0
    29ce:	000b      	movs	r3, r1
    29d0:	0030      	movs	r0, r6
    29d2:	0039      	movs	r1, r7
    29d4:	4e2e      	ldr	r6, [pc, #184]	; (2a90 <KalmanBaroUpdate+0x16c>)
    29d6:	47b0      	blx	r6
    29d8:	900a      	str	r0, [sp, #40]	; 0x28
    29da:	910b      	str	r1, [sp, #44]	; 0x2c
    29dc:	9a0a      	ldr	r2, [sp, #40]	; 0x28
    29de:	9b0b      	ldr	r3, [sp, #44]	; 0x2c
    29e0:	492c      	ldr	r1, [pc, #176]	; (2a94 <KalmanBaroUpdate+0x170>)
    29e2:	608a      	str	r2, [r1, #8]
    29e4:	60cb      	str	r3, [r1, #12]
    estp[2] = phi[2][0] * altitude + phi[2][1] * velocity + phi[2][2] * accel;
    29e6:	6b22      	ldr	r2, [r4, #48]	; 0x30
    29e8:	6b63      	ldr	r3, [r4, #52]	; 0x34
    29ea:	9800      	ldr	r0, [sp, #0]
    29ec:	9901      	ldr	r1, [sp, #4]
    29ee:	47a8      	blx	r5
    29f0:	6ba2      	ldr	r2, [r4, #56]	; 0x38
    29f2:	6be3      	ldr	r3, [r4, #60]	; 0x3c
    29f4:	0006      	movs	r6, r0
    29f6:	000f      	movs	r7, r1
    29f8:	9802      	ldr	r0, [sp, #8]
    29fa:	9903      	ldr	r1, [sp, #12]
    29fc:	47a8      	blx	r5
    29fe:	0002      	movs	r2, r0
    2a00:	000b      	movs	r3, r1
    2a02:	0030      	movs	r0, r6
    2a04:	0039      	movs	r1, r7
    2a06:	4e22      	ldr	r6, [pc, #136]	; (2a90 <KalmanBaroUpdate+0x16c>)
    2a08:	47b0      	blx	r6
    2a0a:	6c22      	ldr	r2, [r4, #64]	; 0x40
    2a0c:	6c63      	ldr	r3, [r4, #68]	; 0x44
    2a0e:	0006      	movs	r6, r0
    2a10:	000f      	movs	r7, r1
    2a12:	9804      	ldr	r0, [sp, #16]
    2a14:	9905      	ldr	r1, [sp, #20]
    2a16:	47a8      	blx	r5
    2a18:	4c1d      	ldr	r4, [pc, #116]	; (2a90 <KalmanBaroUpdate+0x16c>)
    2a1a:	0002      	movs	r2, r0
    2a1c:	000b      	movs	r3, r1
    2a1e:	0030      	movs	r0, r6
    2a20:	0039      	movs	r1, r7
    2a22:	47a0      	blx	r4
    2a24:	0006      	movs	r6, r0
    2a26:	000f      	movs	r7, r1

    /* Update state */
    altitude = estp[0] + baro_kgain[0] * alt_inovation;
    2a28:	9806      	ldr	r0, [sp, #24]
    2a2a:	9907      	ldr	r1, [sp, #28]
void KalmanBaroUpdate(double alt_inovation) {

    /* Propagate state */
    estp[0] = phi[0][0] * altitude + phi[0][1] * velocity + phi[0][2] * accel;
    estp[1] = phi[1][0] * altitude + phi[1][1] * velocity + phi[1][2] * accel;
    estp[2] = phi[2][0] * altitude + phi[2][1] * velocity + phi[2][2] * accel;
    2a2c:	4b19      	ldr	r3, [pc, #100]	; (2a94 <KalmanBaroUpdate+0x170>)
    2a2e:	611e      	str	r6, [r3, #16]
    2a30:	615f      	str	r7, [r3, #20]

    /* Update state */
    altitude = estp[0] + baro_kgain[0] * alt_inovation;
    2a32:	4b19      	ldr	r3, [pc, #100]	; (2a98 <KalmanBaroUpdate+0x174>)
    2a34:	681a      	ldr	r2, [r3, #0]
    2a36:	685b      	ldr	r3, [r3, #4]
    2a38:	47a8      	blx	r5
    2a3a:	9a08      	ldr	r2, [sp, #32]
    2a3c:	9b09      	ldr	r3, [sp, #36]	; 0x24
    2a3e:	47a0      	blx	r4
    2a40:	4b0e      	ldr	r3, [pc, #56]	; (2a7c <KalmanBaroUpdate+0x158>)
    2a42:	6018      	str	r0, [r3, #0]
    2a44:	6059      	str	r1, [r3, #4]
    velocity = estp[1] + baro_kgain[1] * alt_inovation;
    2a46:	9806      	ldr	r0, [sp, #24]
    2a48:	9907      	ldr	r1, [sp, #28]
    2a4a:	4b13      	ldr	r3, [pc, #76]	; (2a98 <KalmanBaroUpdate+0x174>)
    2a4c:	689a      	ldr	r2, [r3, #8]
    2a4e:	68db      	ldr	r3, [r3, #12]
    2a50:	47a8      	blx	r5
    2a52:	9a0a      	ldr	r2, [sp, #40]	; 0x28
    2a54:	9b0b      	ldr	r3, [sp, #44]	; 0x2c
    2a56:	47a0      	blx	r4
    2a58:	4b09      	ldr	r3, [pc, #36]	; (2a80 <KalmanBaroUpdate+0x15c>)
    2a5a:	6018      	str	r0, [r3, #0]
    2a5c:	6059      	str	r1, [r3, #4]
    accel =    estp[2] + baro_kgain[2] * alt_inovation;
    2a5e:	9806      	ldr	r0, [sp, #24]
    2a60:	9907      	ldr	r1, [sp, #28]
    2a62:	4b0d      	ldr	r3, [pc, #52]	; (2a98 <KalmanBaroUpdate+0x174>)
    2a64:	691a      	ldr	r2, [r3, #16]
    2a66:	695b      	ldr	r3, [r3, #20]
    2a68:	47a8      	blx	r5
    2a6a:	003b      	movs	r3, r7
    2a6c:	0032      	movs	r2, r6
    2a6e:	47a0      	blx	r4
    2a70:	4b05      	ldr	r3, [pc, #20]	; (2a88 <KalmanBaroUpdate+0x164>)
    2a72:	6018      	str	r0, [r3, #0]
    2a74:	6059      	str	r1, [r3, #4]

}
    2a76:	b00d      	add	sp, #52	; 0x34
    2a78:	bdf0      	pop	{r4, r5, r6, r7, pc}
    2a7a:	46c0      	nop			; (mov r8, r8)
    2a7c:	20000328 	.word	0x20000328
    2a80:	20000308 	.word	0x20000308
    2a84:	00006291 	.word	0x00006291
    2a88:	200002e8 	.word	0x200002e8
    2a8c:	20000010 	.word	0x20000010
    2a90:	000053f1 	.word	0x000053f1
    2a94:	20000330 	.word	0x20000330
    2a98:	20000310 	.word	0x20000310

00002a9c <KalmanBothUpdate>:

void KalmanBothUpdate( double alt_inovation, double accel_inovation) {
    2a9c:	b5f0      	push	{r4, r5, r6, r7, lr}
    2a9e:	b08f      	sub	sp, #60	; 0x3c
    2aa0:	9208      	str	r2, [sp, #32]
    2aa2:	9309      	str	r3, [sp, #36]	; 0x24

    /* Propagate state */
    estp[0] = phi[0][0] * altitude + phi[0][1] * velocity + phi[0][2] * accel;
    2aa4:	4b68      	ldr	r3, [pc, #416]	; (2c48 <KalmanBothUpdate+0x1ac>)
    2aa6:	4d69      	ldr	r5, [pc, #420]	; (2c4c <KalmanBothUpdate+0x1b0>)
    2aa8:	685c      	ldr	r4, [r3, #4]
    2aaa:	681b      	ldr	r3, [r3, #0]
    2aac:	9300      	str	r3, [sp, #0]
    2aae:	9401      	str	r4, [sp, #4]
    2ab0:	4b67      	ldr	r3, [pc, #412]	; (2c50 <KalmanBothUpdate+0x1b4>)
    velocity = estp[1] + baro_kgain[1] * alt_inovation;
    accel =    estp[2] + baro_kgain[2] * alt_inovation;

}

void KalmanBothUpdate( double alt_inovation, double accel_inovation) {
    2ab2:	9006      	str	r0, [sp, #24]
    2ab4:	9107      	str	r1, [sp, #28]

    /* Propagate state */
    estp[0] = phi[0][0] * altitude + phi[0][1] * velocity + phi[0][2] * accel;
    2ab6:	685c      	ldr	r4, [r3, #4]
    2ab8:	681b      	ldr	r3, [r3, #0]
    2aba:	9800      	ldr	r0, [sp, #0]
    2abc:	9901      	ldr	r1, [sp, #4]
    2abe:	9302      	str	r3, [sp, #8]
    2ac0:	9403      	str	r4, [sp, #12]
    2ac2:	4b64      	ldr	r3, [pc, #400]	; (2c54 <KalmanBothUpdate+0x1b8>)
    2ac4:	685c      	ldr	r4, [r3, #4]
    2ac6:	681b      	ldr	r3, [r3, #0]
    2ac8:	9304      	str	r3, [sp, #16]
    2aca:	9405      	str	r4, [sp, #20]
    2acc:	4c62      	ldr	r4, [pc, #392]	; (2c58 <KalmanBothUpdate+0x1bc>)
    2ace:	6822      	ldr	r2, [r4, #0]
    2ad0:	6863      	ldr	r3, [r4, #4]
    2ad2:	47a8      	blx	r5
    2ad4:	68a2      	ldr	r2, [r4, #8]
    2ad6:	68e3      	ldr	r3, [r4, #12]
    2ad8:	0006      	movs	r6, r0
    2ada:	000f      	movs	r7, r1
    2adc:	9802      	ldr	r0, [sp, #8]
    2ade:	9903      	ldr	r1, [sp, #12]
    2ae0:	47a8      	blx	r5
    2ae2:	0002      	movs	r2, r0
    2ae4:	000b      	movs	r3, r1
    2ae6:	0030      	movs	r0, r6
    2ae8:	0039      	movs	r1, r7
    2aea:	4e5c      	ldr	r6, [pc, #368]	; (2c5c <KalmanBothUpdate+0x1c0>)
    2aec:	47b0      	blx	r6
    2aee:	6922      	ldr	r2, [r4, #16]
    2af0:	6963      	ldr	r3, [r4, #20]
    2af2:	0006      	movs	r6, r0
    2af4:	000f      	movs	r7, r1
    2af6:	9804      	ldr	r0, [sp, #16]
    2af8:	9905      	ldr	r1, [sp, #20]
    2afa:	47a8      	blx	r5
    2afc:	0002      	movs	r2, r0
    2afe:	000b      	movs	r3, r1
    2b00:	0030      	movs	r0, r6
    2b02:	0039      	movs	r1, r7
    2b04:	4e55      	ldr	r6, [pc, #340]	; (2c5c <KalmanBothUpdate+0x1c0>)
    2b06:	47b0      	blx	r6
    2b08:	900a      	str	r0, [sp, #40]	; 0x28
    2b0a:	910b      	str	r1, [sp, #44]	; 0x2c
    2b0c:	9a0a      	ldr	r2, [sp, #40]	; 0x28
    2b0e:	9b0b      	ldr	r3, [sp, #44]	; 0x2c
    2b10:	4953      	ldr	r1, [pc, #332]	; (2c60 <KalmanBothUpdate+0x1c4>)
    2b12:	600a      	str	r2, [r1, #0]
    2b14:	604b      	str	r3, [r1, #4]
    estp[1] = phi[1][0] * altitude + phi[1][1] * velocity + phi[1][2] * accel;
    2b16:	69a2      	ldr	r2, [r4, #24]
    2b18:	69e3      	ldr	r3, [r4, #28]
    2b1a:	9800      	ldr	r0, [sp, #0]
    2b1c:	9901      	ldr	r1, [sp, #4]
    2b1e:	47a8      	blx	r5
    2b20:	6a22      	ldr	r2, [r4, #32]
    2b22:	6a63      	ldr	r3, [r4, #36]	; 0x24
    2b24:	0006      	movs	r6, r0
    2b26:	000f      	movs	r7, r1
    2b28:	9802      	ldr	r0, [sp, #8]
    2b2a:	9903      	ldr	r1, [sp, #12]
    2b2c:	47a8      	blx	r5
    2b2e:	0002      	movs	r2, r0
    2b30:	000b      	movs	r3, r1
    2b32:	0030      	movs	r0, r6
    2b34:	0039      	movs	r1, r7
    2b36:	4e49      	ldr	r6, [pc, #292]	; (2c5c <KalmanBothUpdate+0x1c0>)
    2b38:	47b0      	blx	r6
    2b3a:	6aa2      	ldr	r2, [r4, #40]	; 0x28
    2b3c:	6ae3      	ldr	r3, [r4, #44]	; 0x2c
    2b3e:	0006      	movs	r6, r0
    2b40:	000f      	movs	r7, r1
    2b42:	9804      	ldr	r0, [sp, #16]
    2b44:	9905      	ldr	r1, [sp, #20]
    2b46:	47a8      	blx	r5
    2b48:	0002      	movs	r2, r0
    2b4a:	000b      	movs	r3, r1
    2b4c:	0030      	movs	r0, r6
    2b4e:	0039      	movs	r1, r7
    2b50:	4e42      	ldr	r6, [pc, #264]	; (2c5c <KalmanBothUpdate+0x1c0>)
    2b52:	47b0      	blx	r6
    2b54:	900c      	str	r0, [sp, #48]	; 0x30
    2b56:	910d      	str	r1, [sp, #52]	; 0x34
    2b58:	9a0c      	ldr	r2, [sp, #48]	; 0x30
    2b5a:	9b0d      	ldr	r3, [sp, #52]	; 0x34
    2b5c:	4940      	ldr	r1, [pc, #256]	; (2c60 <KalmanBothUpdate+0x1c4>)
    2b5e:	608a      	str	r2, [r1, #8]
    2b60:	60cb      	str	r3, [r1, #12]
    estp[2] = phi[2][0] * altitude + phi[2][1] * velocity + phi[2][2] * accel;
    2b62:	6b22      	ldr	r2, [r4, #48]	; 0x30
    2b64:	6b63      	ldr	r3, [r4, #52]	; 0x34
    2b66:	9800      	ldr	r0, [sp, #0]
    2b68:	9901      	ldr	r1, [sp, #4]
    2b6a:	47a8      	blx	r5
    2b6c:	6ba2      	ldr	r2, [r4, #56]	; 0x38
    2b6e:	6be3      	ldr	r3, [r4, #60]	; 0x3c
    2b70:	0006      	movs	r6, r0
    2b72:	000f      	movs	r7, r1
    2b74:	9802      	ldr	r0, [sp, #8]
    2b76:	9903      	ldr	r1, [sp, #12]
    2b78:	47a8      	blx	r5
    2b7a:	0002      	movs	r2, r0
    2b7c:	000b      	movs	r3, r1
    2b7e:	0030      	movs	r0, r6
    2b80:	0039      	movs	r1, r7
    2b82:	4e36      	ldr	r6, [pc, #216]	; (2c5c <KalmanBothUpdate+0x1c0>)
    2b84:	47b0      	blx	r6
    2b86:	6c22      	ldr	r2, [r4, #64]	; 0x40
    2b88:	6c63      	ldr	r3, [r4, #68]	; 0x44
    2b8a:	0006      	movs	r6, r0
    2b8c:	000f      	movs	r7, r1
    2b8e:	9804      	ldr	r0, [sp, #16]
    2b90:	9905      	ldr	r1, [sp, #20]
    2b92:	47a8      	blx	r5
    2b94:	4c31      	ldr	r4, [pc, #196]	; (2c5c <KalmanBothUpdate+0x1c0>)
    2b96:	0002      	movs	r2, r0
    2b98:	000b      	movs	r3, r1
    2b9a:	0030      	movs	r0, r6
    2b9c:	0039      	movs	r1, r7
    2b9e:	47a0      	blx	r4
    2ba0:	0003      	movs	r3, r0
    2ba2:	000c      	movs	r4, r1
    2ba4:	4a2e      	ldr	r2, [pc, #184]	; (2c60 <KalmanBothUpdate+0x1c4>)
    2ba6:	9000      	str	r0, [sp, #0]
    2ba8:	9101      	str	r1, [sp, #4]

    /* Update state */
    altitude = estp[0] + kgain[0][0] * alt_inovation + kgain[0][1] * accel_inovation;
    2baa:	9806      	ldr	r0, [sp, #24]
    2bac:	9907      	ldr	r1, [sp, #28]
void KalmanBothUpdate( double alt_inovation, double accel_inovation) {

    /* Propagate state */
    estp[0] = phi[0][0] * altitude + phi[0][1] * velocity + phi[0][2] * accel;
    estp[1] = phi[1][0] * altitude + phi[1][1] * velocity + phi[1][2] * accel;
    estp[2] = phi[2][0] * altitude + phi[2][1] * velocity + phi[2][2] * accel;
    2bae:	6113      	str	r3, [r2, #16]
    2bb0:	6154      	str	r4, [r2, #20]

    /* Update state */
    altitude = estp[0] + kgain[0][0] * alt_inovation + kgain[0][1] * accel_inovation;
    2bb2:	4c2c      	ldr	r4, [pc, #176]	; (2c64 <KalmanBothUpdate+0x1c8>)
    2bb4:	6822      	ldr	r2, [r4, #0]
    2bb6:	6863      	ldr	r3, [r4, #4]
    2bb8:	47a8      	blx	r5
    2bba:	9a0a      	ldr	r2, [sp, #40]	; 0x28
    2bbc:	9b0b      	ldr	r3, [sp, #44]	; 0x2c
    2bbe:	4e27      	ldr	r6, [pc, #156]	; (2c5c <KalmanBothUpdate+0x1c0>)
    2bc0:	47b0      	blx	r6
    2bc2:	68a2      	ldr	r2, [r4, #8]
    2bc4:	68e3      	ldr	r3, [r4, #12]
    2bc6:	0006      	movs	r6, r0
    2bc8:	000f      	movs	r7, r1
    2bca:	9808      	ldr	r0, [sp, #32]
    2bcc:	9909      	ldr	r1, [sp, #36]	; 0x24
    2bce:	47a8      	blx	r5
    2bd0:	0002      	movs	r2, r0
    2bd2:	000b      	movs	r3, r1
    2bd4:	0030      	movs	r0, r6
    2bd6:	0039      	movs	r1, r7
    2bd8:	4e20      	ldr	r6, [pc, #128]	; (2c5c <KalmanBothUpdate+0x1c0>)
    2bda:	47b0      	blx	r6
    2bdc:	4b1a      	ldr	r3, [pc, #104]	; (2c48 <KalmanBothUpdate+0x1ac>)
    2bde:	6018      	str	r0, [r3, #0]
    2be0:	6059      	str	r1, [r3, #4]
    velocity = estp[1] + kgain[1][0] * alt_inovation + kgain[1][1] * accel_inovation;
    2be2:	6922      	ldr	r2, [r4, #16]
    2be4:	6963      	ldr	r3, [r4, #20]
    2be6:	9806      	ldr	r0, [sp, #24]
    2be8:	9907      	ldr	r1, [sp, #28]
    2bea:	47a8      	blx	r5
    2bec:	9a0c      	ldr	r2, [sp, #48]	; 0x30
    2bee:	9b0d      	ldr	r3, [sp, #52]	; 0x34
    2bf0:	47b0      	blx	r6
    2bf2:	69a2      	ldr	r2, [r4, #24]
    2bf4:	69e3      	ldr	r3, [r4, #28]
    2bf6:	0006      	movs	r6, r0
    2bf8:	000f      	movs	r7, r1
    2bfa:	9808      	ldr	r0, [sp, #32]
    2bfc:	9909      	ldr	r1, [sp, #36]	; 0x24
    2bfe:	47a8      	blx	r5
    2c00:	0002      	movs	r2, r0
    2c02:	000b      	movs	r3, r1
    2c04:	0030      	movs	r0, r6
    2c06:	0039      	movs	r1, r7
    2c08:	4e14      	ldr	r6, [pc, #80]	; (2c5c <KalmanBothUpdate+0x1c0>)
    2c0a:	47b0      	blx	r6
    2c0c:	4b10      	ldr	r3, [pc, #64]	; (2c50 <KalmanBothUpdate+0x1b4>)
    2c0e:	6018      	str	r0, [r3, #0]
    2c10:	6059      	str	r1, [r3, #4]
    accel =    estp[2] + kgain[2][0] * alt_inovation + kgain[2][1] * accel_inovation;
    2c12:	6a22      	ldr	r2, [r4, #32]
    2c14:	6a63      	ldr	r3, [r4, #36]	; 0x24
    2c16:	9806      	ldr	r0, [sp, #24]
    2c18:	9907      	ldr	r1, [sp, #28]
    2c1a:	47a8      	blx	r5
    2c1c:	9a00      	ldr	r2, [sp, #0]
    2c1e:	9b01      	ldr	r3, [sp, #4]
    2c20:	47b0      	blx	r6
    2c22:	6aa2      	ldr	r2, [r4, #40]	; 0x28
    2c24:	6ae3      	ldr	r3, [r4, #44]	; 0x2c
    2c26:	0006      	movs	r6, r0
    2c28:	000f      	movs	r7, r1
    2c2a:	9808      	ldr	r0, [sp, #32]
    2c2c:	9909      	ldr	r1, [sp, #36]	; 0x24
    2c2e:	47a8      	blx	r5
    2c30:	4c0a      	ldr	r4, [pc, #40]	; (2c5c <KalmanBothUpdate+0x1c0>)
    2c32:	0002      	movs	r2, r0
    2c34:	000b      	movs	r3, r1
    2c36:	0030      	movs	r0, r6
    2c38:	0039      	movs	r1, r7
    2c3a:	47a0      	blx	r4
    2c3c:	4b05      	ldr	r3, [pc, #20]	; (2c54 <KalmanBothUpdate+0x1b8>)
    2c3e:	6018      	str	r0, [r3, #0]
    2c40:	6059      	str	r1, [r3, #4]
}
    2c42:	b00f      	add	sp, #60	; 0x3c
    2c44:	bdf0      	pop	{r4, r5, r6, r7, pc}
    2c46:	46c0      	nop			; (mov r8, r8)
    2c48:	20000328 	.word	0x20000328
    2c4c:	00006291 	.word	0x00006291
    2c50:	20000308 	.word	0x20000308
    2c54:	200002e8 	.word	0x200002e8
    2c58:	20000010 	.word	0x20000010
    2c5c:	000053f1 	.word	0x000053f1
    2c60:	20000330 	.word	0x20000330
    2c64:	20000348 	.word	0x20000348

00002c68 <computeKalmanStates>:

void computeKalmanStates() {
    2c68:	b5f0      	push	{r4, r5, r6, r7, lr}

    double alt_inovation, accel_inovation, acceleration, pressure;

    acceleration = (sample.accelX - offsets.gravityOffset) * 32.17417;
    2c6a:	4b20      	ldr	r3, [pc, #128]	; (2cec <computeKalmanStates+0x84>)
    altitude = estp[0] + kgain[0][0] * alt_inovation + kgain[0][1] * accel_inovation;
    velocity = estp[1] + kgain[1][0] * alt_inovation + kgain[1][1] * accel_inovation;
    accel =    estp[2] + kgain[2][0] * alt_inovation + kgain[2][1] * accel_inovation;
}

void computeKalmanStates() {
    2c6c:	b085      	sub	sp, #20

    double alt_inovation, accel_inovation, acceleration, pressure;

    acceleration = (sample.accelX - offsets.gravityOffset) * 32.17417;
    2c6e:	6a5f      	ldr	r7, [r3, #36]	; 0x24
    2c70:	4a1f      	ldr	r2, [pc, #124]	; (2cf0 <computeKalmanStates+0x88>)

    pressure = sample.pressureAltitude;
    2c72:	6ddc      	ldr	r4, [r3, #92]	; 0x5c
    2c74:	6d9b      	ldr	r3, [r3, #88]	; 0x58
    2c76:	9300      	str	r3, [sp, #0]
    2c78:	9401      	str	r4, [sp, #4]

void computeKalmanStates() {

    double alt_inovation, accel_inovation, acceleration, pressure;

    acceleration = (sample.accelX - offsets.gravityOffset) * 32.17417;
    2c7a:	6891      	ldr	r1, [r2, #8]
    2c7c:	68d2      	ldr	r2, [r2, #12]

    pressure = sample.pressureAltitude;

    if (altitude == 0) {
    2c7e:	4c1d      	ldr	r4, [pc, #116]	; (2cf4 <computeKalmanStates+0x8c>)

void computeKalmanStates() {

    double alt_inovation, accel_inovation, acceleration, pressure;

    acceleration = (sample.accelX - offsets.gravityOffset) * 32.17417;
    2c80:	9102      	str	r1, [sp, #8]
    2c82:	9203      	str	r2, [sp, #12]

    pressure = sample.pressureAltitude;

    if (altitude == 0) {
    2c84:	6820      	ldr	r0, [r4, #0]
    2c86:	6861      	ldr	r1, [r4, #4]
    2c88:	2200      	movs	r2, #0
    2c8a:	2300      	movs	r3, #0
    2c8c:	4d1a      	ldr	r5, [pc, #104]	; (2cf8 <computeKalmanStates+0x90>)
    2c8e:	47a8      	blx	r5
    2c90:	2800      	cmp	r0, #0
    2c92:	d003      	beq.n	2c9c <computeKalmanStates+0x34>
        altitude = pressure;
    2c94:	9a00      	ldr	r2, [sp, #0]
    2c96:	9b01      	ldr	r3, [sp, #4]
    2c98:	6022      	str	r2, [r4, #0]
    2c9a:	6063      	str	r3, [r4, #4]
    }


    /* Compute the innovations */
    alt_inovation = pressure - estp[0];
    2c9c:	9800      	ldr	r0, [sp, #0]
    2c9e:	9901      	ldr	r1, [sp, #4]
    2ca0:	4e16      	ldr	r6, [pc, #88]	; (2cfc <computeKalmanStates+0x94>)
    2ca2:	4c17      	ldr	r4, [pc, #92]	; (2d00 <computeKalmanStates+0x98>)
    2ca4:	6832      	ldr	r2, [r6, #0]
    2ca6:	6873      	ldr	r3, [r6, #4]
    2ca8:	47a0      	blx	r4
    accel_inovation = acceleration - estp[2];

    if (flightState > flightCoast) {
    2caa:	4b16      	ldr	r3, [pc, #88]	; (2d04 <computeKalmanStates+0x9c>)
        altitude = pressure;
    }


    /* Compute the innovations */
    alt_inovation = pressure - estp[0];
    2cac:	0004      	movs	r4, r0
    accel_inovation = acceleration - estp[2];

    if (flightState > flightCoast) {
    2cae:	781b      	ldrb	r3, [r3, #0]
        altitude = pressure;
    }


    /* Compute the innovations */
    alt_inovation = pressure - estp[0];
    2cb0:	000d      	movs	r5, r1
    accel_inovation = acceleration - estp[2];

    if (flightState > flightCoast) {
    2cb2:	2b05      	cmp	r3, #5
    2cb4:	d902      	bls.n	2cbc <computeKalmanStates+0x54>
        KalmanBaroUpdate(alt_inovation);
    2cb6:	4b14      	ldr	r3, [pc, #80]	; (2d08 <computeKalmanStates+0xa0>)
    2cb8:	4798      	blx	r3
    2cba:	e014      	b.n	2ce6 <computeKalmanStates+0x7e>
    } else {
        KalmanBothUpdate(alt_inovation, accel_inovation);
    2cbc:	1c38      	adds	r0, r7, #0
    2cbe:	4b13      	ldr	r3, [pc, #76]	; (2d0c <computeKalmanStates+0xa4>)
    2cc0:	4798      	blx	r3
    2cc2:	9a02      	ldr	r2, [sp, #8]
    2cc4:	9b03      	ldr	r3, [sp, #12]
    2cc6:	4f0e      	ldr	r7, [pc, #56]	; (2d00 <computeKalmanStates+0x98>)
    2cc8:	47b8      	blx	r7
    2cca:	4a11      	ldr	r2, [pc, #68]	; (2d10 <computeKalmanStates+0xa8>)
    2ccc:	4b11      	ldr	r3, [pc, #68]	; (2d14 <computeKalmanStates+0xac>)
    2cce:	4f12      	ldr	r7, [pc, #72]	; (2d18 <computeKalmanStates+0xb0>)
    2cd0:	47b8      	blx	r7
    2cd2:	6932      	ldr	r2, [r6, #16]
    2cd4:	6973      	ldr	r3, [r6, #20]
    2cd6:	4e0a      	ldr	r6, [pc, #40]	; (2d00 <computeKalmanStates+0x98>)
    2cd8:	47b0      	blx	r6
    2cda:	0002      	movs	r2, r0
    2cdc:	000b      	movs	r3, r1
    2cde:	0020      	movs	r0, r4
    2ce0:	0029      	movs	r1, r5
    2ce2:	4c0e      	ldr	r4, [pc, #56]	; (2d1c <computeKalmanStates+0xb4>)
    2ce4:	47a0      	blx	r4
    }
}
    2ce6:	b005      	add	sp, #20
    2ce8:	bdf0      	pop	{r4, r5, r6, r7, pc}
    2cea:	46c0      	nop			; (mov r8, r8)
    2cec:	200005f0 	.word	0x200005f0
    2cf0:	20000150 	.word	0x20000150
    2cf4:	20000328 	.word	0x20000328
    2cf8:	00005095 	.word	0x00005095
    2cfc:	20000330 	.word	0x20000330
    2d00:	00006785 	.word	0x00006785
    2d04:	200001ac 	.word	0x200001ac
    2d08:	00002925 	.word	0x00002925
    2d0c:	00006fcd 	.word	0x00006fcd
    2d10:	33daf8df 	.word	0x33daf8df
    2d14:	4040164b 	.word	0x4040164b
    2d18:	00006291 	.word	0x00006291
    2d1c:	00002a9d 	.word	0x00002a9d

00002d20 <makePage>:
u16_t flightAddressLocationInIndex;

u8_t flightStartAddress[3];


void makePage(u8_t bytesToWrite, u8_t* data) {
    2d20:	b5f0      	push	{r4, r5, r6, r7, lr}


    u8_t location = pageLocation;
    2d22:	4a1f      	ldr	r2, [pc, #124]	; (2da0 <makePage+0x80>)
    2d24:	7815      	ldrb	r5, [r2, #0]
    u8_t bytesWritten = 0;

    if ((location + bytesToWrite) > 0xFF) {
    2d26:	1943      	adds	r3, r0, r5
    2d28:	2bff      	cmp	r3, #255	; 0xff
    2d2a:	dc03      	bgt.n	2d34 <makePage+0x14>
    2d2c:	2300      	movs	r3, #0
            pageLocation = dataByte + 1;
        }
        pageReady = true;

    } else {
        for (u16_t dataByte = 0; dataByte <= bytesToWrite; ++dataByte) {
    2d2e:	b280      	uxth	r0, r0
            pageBuffer[(dataByte + location)] = data[dataByte];
    2d30:	4c1c      	ldr	r4, [pc, #112]	; (2da4 <makePage+0x84>)
    2d32:	e029      	b.n	2d88 <makePage+0x68>
    2d34:	2300      	movs	r3, #0
    2d36:	4e1b      	ldr	r6, [pc, #108]	; (2da4 <makePage+0x84>)

    u8_t location = pageLocation;
    u8_t bytesWritten = 0;

    if ((location + bytesToWrite) > 0xFF) {
        for (u16_t dataByte = 0; (dataByte + location) <= 0xFF; ++dataByte) {
    2d38:	195f      	adds	r7, r3, r5
    2d3a:	b2dc      	uxtb	r4, r3
    2d3c:	46b4      	mov	ip, r6
    2d3e:	2fff      	cmp	r7, #255	; 0xff
    2d40:	dc04      	bgt.n	2d4c <makePage+0x2c>
            pageBuffer[(dataByte + location)] = data[dataByte];
    2d42:	5ccc      	ldrb	r4, [r1, r3]

    u8_t location = pageLocation;
    u8_t bytesWritten = 0;

    if ((location + bytesToWrite) > 0xFF) {
        for (u16_t dataByte = 0; (dataByte + location) <= 0xFF; ++dataByte) {
    2d44:	3301      	adds	r3, #1
            pageBuffer[(dataByte + location)] = data[dataByte];
    2d46:	55f4      	strb	r4, [r6, r7]

    u8_t location = pageLocation;
    u8_t bytesWritten = 0;

    if ((location + bytesToWrite) > 0xFF) {
        for (u16_t dataByte = 0; (dataByte + location) <= 0xFF; ++dataByte) {
    2d48:	b29b      	uxth	r3, r3
    2d4a:	e7f5      	b.n	2d38 <makePage+0x18>
            pageBuffer[(dataByte + location)] = data[dataByte];
            bytesWritten++;
        }
        pageLocation = 0x00;
    2d4c:	2300      	movs	r3, #0
        for(u16_t i = 0; i <= 0xFF; ++i) {
            pageToWrite[i] = pageBuffer[i];
    2d4e:	4f16      	ldr	r7, [pc, #88]	; (2da8 <makePage+0x88>)
    if ((location + bytesToWrite) > 0xFF) {
        for (u16_t dataByte = 0; (dataByte + location) <= 0xFF; ++dataByte) {
            pageBuffer[(dataByte + location)] = data[dataByte];
            bytesWritten++;
        }
        pageLocation = 0x00;
    2d50:	7013      	strb	r3, [r2, #0]
        for(u16_t i = 0; i <= 0xFF; ++i) {
            pageToWrite[i] = pageBuffer[i];
    2d52:	4665      	mov	r5, ip
    2d54:	18ed      	adds	r5, r5, r3
    2d56:	782e      	ldrb	r6, [r5, #0]
    2d58:	54fe      	strb	r6, [r7, r3]
            pageBuffer[i] = 0;
    2d5a:	2600      	movs	r6, #0
    2d5c:	702e      	strb	r6, [r5, #0]
        for (u16_t dataByte = 0; (dataByte + location) <= 0xFF; ++dataByte) {
            pageBuffer[(dataByte + location)] = data[dataByte];
            bytesWritten++;
        }
        pageLocation = 0x00;
        for(u16_t i = 0; i <= 0xFF; ++i) {
    2d5e:	2580      	movs	r5, #128	; 0x80
    2d60:	3301      	adds	r3, #1
    2d62:	006d      	lsls	r5, r5, #1
    2d64:	42ab      	cmp	r3, r5
    2d66:	d1f4      	bne.n	2d52 <makePage+0x32>
    2d68:	2300      	movs	r3, #0
    2d6a:	1c5d      	adds	r5, r3, #1
            pageToWrite[i] = pageBuffer[i];
            pageBuffer[i] = 0;
        }
        for (u16_t dataByte = 0; bytesWritten < bytesToWrite; ++dataByte) {
    2d6c:	4284      	cmp	r4, r0
    2d6e:	d207      	bcs.n	2d80 <makePage+0x60>
            pageBuffer[dataByte] = data[bytesWritten];
    2d70:	4667      	mov	r7, ip
    2d72:	5d0e      	ldrb	r6, [r1, r4]
            bytesWritten++;
    2d74:	3401      	adds	r4, #1
        for(u16_t i = 0; i <= 0xFF; ++i) {
            pageToWrite[i] = pageBuffer[i];
            pageBuffer[i] = 0;
        }
        for (u16_t dataByte = 0; bytesWritten < bytesToWrite; ++dataByte) {
            pageBuffer[dataByte] = data[bytesWritten];
    2d76:	54fe      	strb	r6, [r7, r3]
            bytesWritten++;
    2d78:	b2e4      	uxtb	r4, r4
            pageLocation = dataByte + 1;
    2d7a:	7015      	strb	r5, [r2, #0]
    2d7c:	002b      	movs	r3, r5
    2d7e:	e7f4      	b.n	2d6a <makePage+0x4a>
        }
        pageReady = true;
    2d80:	2201      	movs	r2, #1
    2d82:	4b0a      	ldr	r3, [pc, #40]	; (2dac <makePage+0x8c>)
    2d84:	701a      	strb	r2, [r3, #0]
    2d86:	e009      	b.n	2d9c <makePage+0x7c>

    } else {
        for (u16_t dataByte = 0; dataByte <= bytesToWrite; ++dataByte) {
    2d88:	4283      	cmp	r3, r0
    2d8a:	d807      	bhi.n	2d9c <makePage+0x7c>
            pageBuffer[(dataByte + location)] = data[dataByte];
    2d8c:	5ccf      	ldrb	r7, [r1, r3]
    2d8e:	18e6      	adds	r6, r4, r3
    2d90:	5577      	strb	r7, [r6, r5]
            bytesWritten++;
            pageLocation = location + dataByte;
    2d92:	18ee      	adds	r6, r5, r3
            pageLocation = dataByte + 1;
        }
        pageReady = true;

    } else {
        for (u16_t dataByte = 0; dataByte <= bytesToWrite; ++dataByte) {
    2d94:	3301      	adds	r3, #1
            pageBuffer[(dataByte + location)] = data[dataByte];
            bytesWritten++;
            pageLocation = location + dataByte;
    2d96:	7016      	strb	r6, [r2, #0]
            pageLocation = dataByte + 1;
        }
        pageReady = true;

    } else {
        for (u16_t dataByte = 0; dataByte <= bytesToWrite; ++dataByte) {
    2d98:	b29b      	uxth	r3, r3
    2d9a:	e7f5      	b.n	2d88 <makePage+0x68>
            pageBuffer[(dataByte + location)] = data[dataByte];
            bytesWritten++;
            pageLocation = location + dataByte;
        }
    }
}
    2d9c:	bdf0      	pop	{r4, r5, r6, r7, pc}
    2d9e:	46c0      	nop			; (mov r8, r8)
    2da0:	200005e8 	.word	0x200005e8
    2da4:	200001ae 	.word	0x200001ae
    2da8:	2000037a 	.word	0x2000037a
    2dac:	2000047a 	.word	0x2000047a

00002db0 <writePadBuffer>:

void writePadBuffer(u8_t bytesToWrite, u8_t* data) {
    2db0:	b570      	push	{r4, r5, r6, lr}
    2db2:	4a0e      	ldr	r2, [pc, #56]	; (2dec <writePadBuffer+0x3c>)
    2db4:	4c0e      	ldr	r4, [pc, #56]	; (2df0 <writePadBuffer+0x40>)
    2db6:	2300      	movs	r3, #0
    u8_t i, j;

    for (i = 1; i < 10; i++) {
        for (j = 0; j < bytesToWrite; j++) {
    2db8:	b2dd      	uxtb	r5, r3
    2dba:	42a8      	cmp	r0, r5
    2dbc:	d905      	bls.n	2dca <writePadBuffer+0x1a>
            padSensorBuffer[i-1][j] = padSensorBuffer[i][j];
    2dbe:	001d      	movs	r5, r3
    2dc0:	5cd6      	ldrb	r6, [r2, r3]
    2dc2:	3d23      	subs	r5, #35	; 0x23
    2dc4:	5556      	strb	r6, [r2, r5]
    2dc6:	3301      	adds	r3, #1
    2dc8:	e7f6      	b.n	2db8 <writePadBuffer+0x8>
    2dca:	3223      	adds	r2, #35	; 0x23
}

void writePadBuffer(u8_t bytesToWrite, u8_t* data) {
    u8_t i, j;

    for (i = 1; i < 10; i++) {
    2dcc:	42a2      	cmp	r2, r4
    2dce:	d1f2      	bne.n	2db6 <writePadBuffer+0x6>
    2dd0:	2300      	movs	r3, #0
            padSensorBuffer[i-1][j] = padSensorBuffer[i][j];
        }
    }

    for (i = 0; i < bytesToWrite ; i++) {
        padSensorBuffer[9][i] = data[i];
    2dd2:	4c08      	ldr	r4, [pc, #32]	; (2df4 <writePadBuffer+0x44>)
        for (j = 0; j < bytesToWrite; j++) {
            padSensorBuffer[i-1][j] = padSensorBuffer[i][j];
        }
    }

    for (i = 0; i < bytesToWrite ; i++) {
    2dd4:	b2da      	uxtb	r2, r3
    2dd6:	4290      	cmp	r0, r2
    2dd8:	d906      	bls.n	2de8 <writePadBuffer+0x38>
        padSensorBuffer[9][i] = data[i];
    2dda:	001a      	movs	r2, r3
    2ddc:	5ccd      	ldrb	r5, [r1, r3]
    2dde:	323c      	adds	r2, #60	; 0x3c
    2de0:	32ff      	adds	r2, #255	; 0xff
    2de2:	54a5      	strb	r5, [r4, r2]
    2de4:	3301      	adds	r3, #1
    2de6:	e7f5      	b.n	2dd4 <writePadBuffer+0x24>
    }
}
    2de8:	bd70      	pop	{r4, r5, r6, pc}
    2dea:	46c0      	nop			; (mov r8, r8)
    2dec:	200004a7 	.word	0x200004a7
    2df0:	200005e2 	.word	0x200005e2
    2df4:	20000484 	.word	0x20000484

00002df8 <logFlight>:


void logFlight() {
    2df8:	b51f      	push	{r0, r1, r2, r3, r4, lr}

    u8_t bytesToSend = 16;
    u8_t dataToSend[16];

    dataToSend[0] = FLIGHT_LOG;
    2dfa:	2346      	movs	r3, #70	; 0x46
    2dfc:	466a      	mov	r2, sp
    2dfe:	7013      	strb	r3, [r2, #0]
    dataToSend[1] = 0;
    2e00:	2300      	movs	r3, #0

    offsets.TminusZeroTime = sample.sampleTick;

    dataToSend[2] = offsets.TminusZeroTime >> 0;
    2e02:	4669      	mov	r1, sp
    dataToSend[3] = offsets.TminusZeroTime >> 8;
    2e04:	4668      	mov	r0, sp

    u8_t bytesToSend = 16;
    u8_t dataToSend[16];

    dataToSend[0] = FLIGHT_LOG;
    dataToSend[1] = 0;
    2e06:	7053      	strb	r3, [r2, #1]

    offsets.TminusZeroTime = sample.sampleTick;
    2e08:	4b11      	ldr	r3, [pc, #68]	; (2e50 <logFlight+0x58>)
    2e0a:	4a12      	ldr	r2, [pc, #72]	; (2e54 <logFlight+0x5c>)
    2e0c:	685b      	ldr	r3, [r3, #4]

    dataToSend[2] = offsets.TminusZeroTime >> 0;
    2e0e:	708b      	strb	r3, [r1, #2]
    dataToSend[3] = offsets.TminusZeroTime >> 8;
    2e10:	0a19      	lsrs	r1, r3, #8
    u8_t dataToSend[16];

    dataToSend[0] = FLIGHT_LOG;
    dataToSend[1] = 0;

    offsets.TminusZeroTime = sample.sampleTick;
    2e12:	6053      	str	r3, [r2, #4]

    dataToSend[2] = offsets.TminusZeroTime >> 0;
    dataToSend[3] = offsets.TminusZeroTime >> 8;
    2e14:	70c1      	strb	r1, [r0, #3]
    dataToSend[4] = offsets.TminusZeroTime >> 16;
    2e16:	0c19      	lsrs	r1, r3, #16
    dataToSend[5] = offsets.TminusZeroTime >> 24;
    2e18:	0e1b      	lsrs	r3, r3, #24
    2e1a:	7143      	strb	r3, [r0, #5]

    dataToSend[6] = offsets.groundOffset >> 0;
    2e1c:	6993      	ldr	r3, [r2, #24]

    offsets.TminusZeroTime = sample.sampleTick;

    dataToSend[2] = offsets.TminusZeroTime >> 0;
    dataToSend[3] = offsets.TminusZeroTime >> 8;
    dataToSend[4] = offsets.TminusZeroTime >> 16;
    2e1e:	7101      	strb	r1, [r0, #4]
    dataToSend[5] = offsets.TminusZeroTime >> 24;

    dataToSend[6] = offsets.groundOffset >> 0;
    dataToSend[7] = offsets.groundOffset >> 8;
    2e20:	0a19      	lsrs	r1, r3, #8
    dataToSend[2] = offsets.TminusZeroTime >> 0;
    dataToSend[3] = offsets.TminusZeroTime >> 8;
    dataToSend[4] = offsets.TminusZeroTime >> 16;
    dataToSend[5] = offsets.TminusZeroTime >> 24;

    dataToSend[6] = offsets.groundOffset >> 0;
    2e22:	7183      	strb	r3, [r0, #6]
    dataToSend[7] = offsets.groundOffset >> 8;
    2e24:	71c1      	strb	r1, [r0, #7]
    dataToSend[8] = offsets.groundOffset >> 16;
    2e26:	0c19      	lsrs	r1, r3, #16
    dataToSend[9] = offsets.groundOffset >> 24;
    2e28:	0e1b      	lsrs	r3, r3, #24
    2e2a:	7243      	strb	r3, [r0, #9]

    dataToSend[10] = offsets.groundTemperature >> 0;
    2e2c:	6a13      	ldr	r3, [r2, #32]
    dataToSend[4] = offsets.TminusZeroTime >> 16;
    dataToSend[5] = offsets.TminusZeroTime >> 24;

    dataToSend[6] = offsets.groundOffset >> 0;
    dataToSend[7] = offsets.groundOffset >> 8;
    dataToSend[8] = offsets.groundOffset >> 16;
    2e2e:	7201      	strb	r1, [r0, #8]
    dataToSend[9] = offsets.groundOffset >> 24;

    dataToSend[10] = offsets.groundTemperature >> 0;
    dataToSend[11] = offsets.groundTemperature >> 8;
    2e30:	0a1a      	lsrs	r2, r3, #8
    dataToSend[6] = offsets.groundOffset >> 0;
    dataToSend[7] = offsets.groundOffset >> 8;
    dataToSend[8] = offsets.groundOffset >> 16;
    dataToSend[9] = offsets.groundOffset >> 24;

    dataToSend[10] = offsets.groundTemperature >> 0;
    2e32:	7283      	strb	r3, [r0, #10]
    dataToSend[11] = offsets.groundTemperature >> 8;
    2e34:	72c2      	strb	r2, [r0, #11]
    dataToSend[12] = offsets.groundTemperature >> 16;
    2e36:	0c1a      	lsrs	r2, r3, #16
    dataToSend[13] = offsets.groundTemperature >> 24;
    2e38:	0e1b      	lsrs	r3, r3, #24
    2e3a:	7343      	strb	r3, [r0, #13]

    //dataToSend[14] = accel >> 0;
    dataToSend[15] = 0xfe;
    2e3c:	23fe      	movs	r3, #254	; 0xfe
    dataToSend[8] = offsets.groundOffset >> 16;
    dataToSend[9] = offsets.groundOffset >> 24;

    dataToSend[10] = offsets.groundTemperature >> 0;
    dataToSend[11] = offsets.groundTemperature >> 8;
    dataToSend[12] = offsets.groundTemperature >> 16;
    2e3e:	7302      	strb	r2, [r0, #12]
    dataToSend[13] = offsets.groundTemperature >> 24;

    //dataToSend[14] = accel >> 0;
    dataToSend[15] = 0xfe;
    2e40:	73c3      	strb	r3, [r0, #15]
    dataToSend[5] = offsets.TminusZeroTime >> 24;

    dataToSend[6] = offsets.groundOffset >> 0;
    dataToSend[7] = offsets.groundOffset >> 8;
    dataToSend[8] = offsets.groundOffset >> 16;
    dataToSend[9] = offsets.groundOffset >> 24;
    2e42:	4669      	mov	r1, sp
    dataToSend[13] = offsets.groundTemperature >> 24;

    //dataToSend[14] = accel >> 0;
    dataToSend[15] = 0xfe;

    makePage(bytesToSend, dataToSend);
    2e44:	2010      	movs	r0, #16
    2e46:	4b04      	ldr	r3, [pc, #16]	; (2e58 <logFlight+0x60>)
    2e48:	4798      	blx	r3
}
    2e4a:	b005      	add	sp, #20
    2e4c:	bd00      	pop	{pc}
    2e4e:	46c0      	nop			; (mov r8, r8)
    2e50:	200005f0 	.word	0x200005f0
    2e54:	20000150 	.word	0x20000150
    2e58:	00002d21 	.word	0x00002d21

00002e5c <logEvent>:

void logEvent(u8_t eventType) {
    2e5c:	b57f      	push	{r0, r1, r2, r3, r4, r5, r6, lr}

    u8_t bytesToSend = 12;
    u8_t dataToSend[12];

    u32_t eventTick = sample.sampleTick - offsets.TminusZeroTime;
    2e5e:	4d12      	ldr	r5, [pc, #72]	; (2ea8 <logEvent+0x4c>)
    2e60:	4b12      	ldr	r3, [pc, #72]	; (2eac <logEvent+0x50>)
    2e62:	686a      	ldr	r2, [r5, #4]
    2e64:	685b      	ldr	r3, [r3, #4]

    dataToSend[0] = EVENT_LOG;
    2e66:	ac01      	add	r4, sp, #4
void logEvent(u8_t eventType) {

    u8_t bytesToSend = 12;
    u8_t dataToSend[12];

    u32_t eventTick = sample.sampleTick - offsets.TminusZeroTime;
    2e68:	1ad3      	subs	r3, r2, r3

    dataToSend[0] = EVENT_LOG;
    2e6a:	2245      	movs	r2, #69	; 0x45
    2e6c:	7022      	strb	r2, [r4, #0]
    dataToSend[1] = eventType;
    dataToSend[2] = eventTick >> 0;
    dataToSend[3] = eventTick >> 8;
    2e6e:	0a1a      	lsrs	r2, r3, #8
    dataToSend[4] = eventTick >> 16;
    dataToSend[5] = eventTick >> 24;

    dataToSend[6] = altitudeAGL() >> 0;
    2e70:	4e0f      	ldr	r6, [pc, #60]	; (2eb0 <logEvent+0x54>)

    u32_t eventTick = sample.sampleTick - offsets.TminusZeroTime;

    dataToSend[0] = EVENT_LOG;
    dataToSend[1] = eventType;
    dataToSend[2] = eventTick >> 0;
    2e72:	70a3      	strb	r3, [r4, #2]
    dataToSend[3] = eventTick >> 8;
    2e74:	70e2      	strb	r2, [r4, #3]
    dataToSend[4] = eventTick >> 16;
    2e76:	0c1a      	lsrs	r2, r3, #16
    dataToSend[5] = eventTick >> 24;
    2e78:	0e1b      	lsrs	r3, r3, #24

    dataToSend[0] = EVENT_LOG;
    dataToSend[1] = eventType;
    dataToSend[2] = eventTick >> 0;
    dataToSend[3] = eventTick >> 8;
    dataToSend[4] = eventTick >> 16;
    2e7a:	7122      	strb	r2, [r4, #4]
    dataToSend[5] = eventTick >> 24;
    2e7c:	7163      	strb	r3, [r4, #5]
    u8_t dataToSend[12];

    u32_t eventTick = sample.sampleTick - offsets.TminusZeroTime;

    dataToSend[0] = EVENT_LOG;
    dataToSend[1] = eventType;
    2e7e:	7060      	strb	r0, [r4, #1]
    dataToSend[2] = eventTick >> 0;
    dataToSend[3] = eventTick >> 8;
    dataToSend[4] = eventTick >> 16;
    dataToSend[5] = eventTick >> 24;

    dataToSend[6] = altitudeAGL() >> 0;
    2e80:	47b0      	blx	r6
    2e82:	71a0      	strb	r0, [r4, #6]
    dataToSend[7] = altitudeAGL() >> 8;
    2e84:	47b0      	blx	r6
    2e86:	1200      	asrs	r0, r0, #8
    2e88:	71e0      	strb	r0, [r4, #7]
    dataToSend[8] = altitudeAGL() >> 16;
    2e8a:	47b0      	blx	r6
    2e8c:	1400      	asrs	r0, r0, #16
    2e8e:	7220      	strb	r0, [r4, #8]
    dataToSend[9] = altitudeAGL() >> 24;
    2e90:	47b0      	blx	r6
    2e92:	1600      	asrs	r0, r0, #24
    2e94:	7260      	strb	r0, [r4, #9]

    dataToSend[10] = sample.voltage.batV >> 0;
    2e96:	892b      	ldrh	r3, [r5, #8]
    dataToSend[11] = sample.voltage.batV >> 8;

    makePage(bytesToSend, dataToSend);
    2e98:	0021      	movs	r1, r4
    dataToSend[6] = altitudeAGL() >> 0;
    dataToSend[7] = altitudeAGL() >> 8;
    dataToSend[8] = altitudeAGL() >> 16;
    dataToSend[9] = altitudeAGL() >> 24;

    dataToSend[10] = sample.voltage.batV >> 0;
    2e9a:	72a3      	strb	r3, [r4, #10]
    dataToSend[11] = sample.voltage.batV >> 8;
    2e9c:	0a1b      	lsrs	r3, r3, #8
    2e9e:	72e3      	strb	r3, [r4, #11]

    makePage(bytesToSend, dataToSend);
    2ea0:	200c      	movs	r0, #12
    2ea2:	4b04      	ldr	r3, [pc, #16]	; (2eb4 <logEvent+0x58>)
    2ea4:	4798      	blx	r3

}
    2ea6:	bd7f      	pop	{r0, r1, r2, r3, r4, r5, r6, pc}
    2ea8:	200005f0 	.word	0x200005f0
    2eac:	20000150 	.word	0x20000150
    2eb0:	00000b41 	.word	0x00000b41
    2eb4:	00002d21 	.word	0x00002d21

00002eb8 <logSensors>:

void logSensors() {

    writeLog = false;
    2eb8:	2200      	movs	r2, #0

    makePage(bytesToSend, dataToSend);

}

void logSensors() {
    2eba:	b5f0      	push	{r4, r5, r6, r7, lr}

    writeLog = false;
    2ebc:	4b59      	ldr	r3, [pc, #356]	; (3024 <logSensors+0x16c>)

    makePage(bytesToSend, dataToSend);

}

void logSensors() {
    2ebe:	b08f      	sub	sp, #60	; 0x3c

    writeLog = false;
    2ec0:	701a      	strb	r2, [r3, #0]

    u8_t bytesToSend = SENSOR_LOG_LENGTH;
    u8_t dataToSend[SENSOR_LOG_LENGTH];

    float fractionalAccel = accel - (int16_t)(accel);
    2ec2:	4b59      	ldr	r3, [pc, #356]	; (3028 <logSensors+0x170>)
    2ec4:	681e      	ldr	r6, [r3, #0]
    2ec6:	685f      	ldr	r7, [r3, #4]
    int16_t fractAccelPart = fractionalAccel * 1000;
    2ec8:	4b58      	ldr	r3, [pc, #352]	; (302c <logSensors+0x174>)
    2eca:	0039      	movs	r1, r7
    2ecc:	0030      	movs	r0, r6
    2ece:	4798      	blx	r3
    2ed0:	4d57      	ldr	r5, [pc, #348]	; (3030 <logSensors+0x178>)
    2ed2:	b200      	sxth	r0, r0
    2ed4:	47a8      	blx	r5
    2ed6:	4c57      	ldr	r4, [pc, #348]	; (3034 <logSensors+0x17c>)
    2ed8:	0002      	movs	r2, r0
    2eda:	000b      	movs	r3, r1
    2edc:	0030      	movs	r0, r6
    2ede:	0039      	movs	r1, r7
    2ee0:	47a0      	blx	r4
    2ee2:	4f55      	ldr	r7, [pc, #340]	; (3038 <logSensors+0x180>)
    2ee4:	47b8      	blx	r7
    2ee6:	4b55      	ldr	r3, [pc, #340]	; (303c <logSensors+0x184>)
    2ee8:	4955      	ldr	r1, [pc, #340]	; (3040 <logSensors+0x188>)
    2eea:	4798      	blx	r3
    2eec:	4e55      	ldr	r6, [pc, #340]	; (3044 <logSensors+0x18c>)
    2eee:	47b0      	blx	r6
    2ef0:	b203      	sxth	r3, r0
    2ef2:	9301      	str	r3, [sp, #4]

    float fractionalVelocity = velocity - (int16_t)(velocity);
    2ef4:	4b54      	ldr	r3, [pc, #336]	; (3048 <logSensors+0x190>)
    2ef6:	681a      	ldr	r2, [r3, #0]
    2ef8:	685b      	ldr	r3, [r3, #4]
    2efa:	9202      	str	r2, [sp, #8]
    2efc:	9303      	str	r3, [sp, #12]
    int16_t fractVelocityPart = fractionalVelocity * 1000;
    2efe:	0010      	movs	r0, r2
    2f00:	0019      	movs	r1, r3
    2f02:	4b4a      	ldr	r3, [pc, #296]	; (302c <logSensors+0x174>)
    2f04:	4798      	blx	r3
    2f06:	b200      	sxth	r0, r0
    2f08:	47a8      	blx	r5
    2f0a:	0002      	movs	r2, r0
    2f0c:	000b      	movs	r3, r1
    2f0e:	9802      	ldr	r0, [sp, #8]
    2f10:	9903      	ldr	r1, [sp, #12]
    2f12:	47a0      	blx	r4
    2f14:	47b8      	blx	r7
    2f16:	494a      	ldr	r1, [pc, #296]	; (3040 <logSensors+0x188>)
    2f18:	4b48      	ldr	r3, [pc, #288]	; (303c <logSensors+0x184>)
    2f1a:	4798      	blx	r3
    2f1c:	47b0      	blx	r6

    dataToSend[0] = SENSOR_LOG;
    2f1e:	2353      	movs	r3, #83	; 0x53

    dataToSend[1] = sample.sampleTick >> 0;
    2f20:	4d4a      	ldr	r5, [pc, #296]	; (304c <logSensors+0x194>)
    int16_t fractAccelPart = fractionalAccel * 1000;

    float fractionalVelocity = velocity - (int16_t)(velocity);
    int16_t fractVelocityPart = fractionalVelocity * 1000;

    dataToSend[0] = SENSOR_LOG;
    2f22:	ac05      	add	r4, sp, #20
    2f24:	7023      	strb	r3, [r4, #0]

    dataToSend[1] = sample.sampleTick >> 0;
    2f26:	686b      	ldr	r3, [r5, #4]

    float fractionalAccel = accel - (int16_t)(accel);
    int16_t fractAccelPart = fractionalAccel * 1000;

    float fractionalVelocity = velocity - (int16_t)(velocity);
    int16_t fractVelocityPart = fractionalVelocity * 1000;
    2f28:	b206      	sxth	r6, r0

    dataToSend[0] = SENSOR_LOG;

    dataToSend[1] = sample.sampleTick >> 0;
    dataToSend[2] = sample.sampleTick >> 8;
    2f2a:	0a1a      	lsrs	r2, r3, #8
    float fractionalVelocity = velocity - (int16_t)(velocity);
    int16_t fractVelocityPart = fractionalVelocity * 1000;

    dataToSend[0] = SENSOR_LOG;

    dataToSend[1] = sample.sampleTick >> 0;
    2f2c:	7063      	strb	r3, [r4, #1]
    dataToSend[2] = sample.sampleTick >> 8;
    2f2e:	70a2      	strb	r2, [r4, #2]
    dataToSend[3] = sample.sampleTick >> 16;
    2f30:	0c1a      	lsrs	r2, r3, #16
    dataToSend[4] = sample.sampleTick >> 24;
    2f32:	0e1b      	lsrs	r3, r3, #24

    dataToSend[0] = SENSOR_LOG;

    dataToSend[1] = sample.sampleTick >> 0;
    dataToSend[2] = sample.sampleTick >> 8;
    dataToSend[3] = sample.sampleTick >> 16;
    2f34:	70e2      	strb	r2, [r4, #3]
    dataToSend[4] = sample.sampleTick >> 24;
    2f36:	7123      	strb	r3, [r4, #4]

    dataToSend[5] = altitudeAGL() >> 0;
    2f38:	4f45      	ldr	r7, [pc, #276]	; (3050 <logSensors+0x198>)
    2f3a:	47b8      	blx	r7
    2f3c:	7160      	strb	r0, [r4, #5]
    dataToSend[6] = altitudeAGL() >> 8;
    2f3e:	47b8      	blx	r7
    2f40:	1200      	asrs	r0, r0, #8
    2f42:	71a0      	strb	r0, [r4, #6]
    dataToSend[7] = altitudeAGL() >> 16;
    2f44:	47b8      	blx	r7
    2f46:	1400      	asrs	r0, r0, #16
    2f48:	71e0      	strb	r0, [r4, #7]
    dataToSend[8] = altitudeAGL() >> 24;
    2f4a:	47b8      	blx	r7

    dataToSend[9] = (int16_t)(accel) >> 0;
    2f4c:	4b36      	ldr	r3, [pc, #216]	; (3028 <logSensors+0x170>)
    dataToSend[4] = sample.sampleTick >> 24;

    dataToSend[5] = altitudeAGL() >> 0;
    dataToSend[6] = altitudeAGL() >> 8;
    dataToSend[7] = altitudeAGL() >> 16;
    dataToSend[8] = altitudeAGL() >> 24;
    2f4e:	1600      	asrs	r0, r0, #24
    2f50:	7220      	strb	r0, [r4, #8]

    dataToSend[9] = (int16_t)(accel) >> 0;
    2f52:	6818      	ldr	r0, [r3, #0]
    2f54:	6859      	ldr	r1, [r3, #4]
    2f56:	4b35      	ldr	r3, [pc, #212]	; (302c <logSensors+0x174>)
    2f58:	4798      	blx	r3
    dataToSend[10] = (int16_t)(accel) >> 8;
    dataToSend[11] = fractAccelPart >> 0;
    2f5a:	466b      	mov	r3, sp
    2f5c:	791b      	ldrb	r3, [r3, #4]
    dataToSend[5] = altitudeAGL() >> 0;
    dataToSend[6] = altitudeAGL() >> 8;
    dataToSend[7] = altitudeAGL() >> 16;
    dataToSend[8] = altitudeAGL() >> 24;

    dataToSend[9] = (int16_t)(accel) >> 0;
    2f5e:	b200      	sxth	r0, r0
    dataToSend[10] = (int16_t)(accel) >> 8;
    dataToSend[11] = fractAccelPart >> 0;
    2f60:	72e3      	strb	r3, [r4, #11]
    dataToSend[12] = fractAccelPart >> 8;
    2f62:	9b01      	ldr	r3, [sp, #4]
    dataToSend[5] = altitudeAGL() >> 0;
    dataToSend[6] = altitudeAGL() >> 8;
    dataToSend[7] = altitudeAGL() >> 16;
    dataToSend[8] = altitudeAGL() >> 24;

    dataToSend[9] = (int16_t)(accel) >> 0;
    2f64:	7260      	strb	r0, [r4, #9]
    dataToSend[10] = (int16_t)(accel) >> 8;
    2f66:	1200      	asrs	r0, r0, #8
    2f68:	72a0      	strb	r0, [r4, #10]
    dataToSend[11] = fractAccelPart >> 0;
    dataToSend[12] = fractAccelPart >> 8;
    2f6a:	1218      	asrs	r0, r3, #8

    dataToSend[13] = (int16_t)(velocity) >> 0;
    2f6c:	4b36      	ldr	r3, [pc, #216]	; (3048 <logSensors+0x190>)
    dataToSend[8] = altitudeAGL() >> 24;

    dataToSend[9] = (int16_t)(accel) >> 0;
    dataToSend[10] = (int16_t)(accel) >> 8;
    dataToSend[11] = fractAccelPart >> 0;
    dataToSend[12] = fractAccelPart >> 8;
    2f6e:	7320      	strb	r0, [r4, #12]

    dataToSend[13] = (int16_t)(velocity) >> 0;
    2f70:	6818      	ldr	r0, [r3, #0]
    2f72:	6859      	ldr	r1, [r3, #4]
    2f74:	4b2d      	ldr	r3, [pc, #180]	; (302c <logSensors+0x174>)
    2f76:	4798      	blx	r3
    2f78:	b200      	sxth	r0, r0
    2f7a:	7360      	strb	r0, [r4, #13]
    dataToSend[14] = (int16_t)(velocity) >> 8;
    dataToSend[15] = fractVelocityPart >> 0;
    2f7c:	73e6      	strb	r6, [r4, #15]
    dataToSend[10] = (int16_t)(accel) >> 8;
    dataToSend[11] = fractAccelPart >> 0;
    dataToSend[12] = fractAccelPart >> 8;

    dataToSend[13] = (int16_t)(velocity) >> 0;
    dataToSend[14] = (int16_t)(velocity) >> 8;
    2f7e:	1200      	asrs	r0, r0, #8
    dataToSend[15] = fractVelocityPart >> 0;
    dataToSend[16] = fractVelocityPart >> 8;
    2f80:	1236      	asrs	r6, r6, #8

    dataToSend[17] = (uint32_t)(sample.pressureAltitude) >> 0;
    2f82:	4b34      	ldr	r3, [pc, #208]	; (3054 <logSensors+0x19c>)
    dataToSend[10] = (int16_t)(accel) >> 8;
    dataToSend[11] = fractAccelPart >> 0;
    dataToSend[12] = fractAccelPart >> 8;

    dataToSend[13] = (int16_t)(velocity) >> 0;
    dataToSend[14] = (int16_t)(velocity) >> 8;
    2f84:	73a0      	strb	r0, [r4, #14]
    dataToSend[15] = fractVelocityPart >> 0;
    dataToSend[16] = fractVelocityPart >> 8;
    2f86:	7426      	strb	r6, [r4, #16]

    dataToSend[17] = (uint32_t)(sample.pressureAltitude) >> 0;
    2f88:	6da8      	ldr	r0, [r5, #88]	; 0x58
    2f8a:	6de9      	ldr	r1, [r5, #92]	; 0x5c
    2f8c:	4798      	blx	r3
    dataToSend[18] = (uint32_t)(sample.pressureAltitude) >> 8;
    2f8e:	0a03      	lsrs	r3, r0, #8
    dataToSend[13] = (int16_t)(velocity) >> 0;
    dataToSend[14] = (int16_t)(velocity) >> 8;
    dataToSend[15] = fractVelocityPart >> 0;
    dataToSend[16] = fractVelocityPart >> 8;

    dataToSend[17] = (uint32_t)(sample.pressureAltitude) >> 0;
    2f90:	7460      	strb	r0, [r4, #17]
    dataToSend[18] = (uint32_t)(sample.pressureAltitude) >> 8;
    2f92:	74a3      	strb	r3, [r4, #18]
    dataToSend[19] = (uint32_t)(sample.pressureAltitude) >> 16;
    2f94:	0c03      	lsrs	r3, r0, #16
    dataToSend[20] = (uint32_t)(sample.pressureAltitude) >> 24;
    2f96:	0e00      	lsrs	r0, r0, #24
    2f98:	7520      	strb	r0, [r4, #20]
    dataToSend[15] = fractVelocityPart >> 0;
    dataToSend[16] = fractVelocityPart >> 8;

    dataToSend[17] = (uint32_t)(sample.pressureAltitude) >> 0;
    dataToSend[18] = (uint32_t)(sample.pressureAltitude) >> 8;
    dataToSend[19] = (uint32_t)(sample.pressureAltitude) >> 16;
    2f9a:	74e3      	strb	r3, [r4, #19]
    dataToSend[20] = (uint32_t)(sample.pressureAltitude) >> 24;

    dataToSend[21] = sample.accelXint >> 0;
    2f9c:	2220      	movs	r2, #32
    2f9e:	5eab      	ldrsh	r3, [r5, r2]
    dataToSend[32] = sample.gyroZint >> 8;

    dataToSend[33] = sample.analogRaw >> 0;
    dataToSend[34] = sample.analogRaw >> 8;

    makePage(bytesToSend, dataToSend);
    2fa0:	0021      	movs	r1, r4
    dataToSend[17] = (uint32_t)(sample.pressureAltitude) >> 0;
    dataToSend[18] = (uint32_t)(sample.pressureAltitude) >> 8;
    dataToSend[19] = (uint32_t)(sample.pressureAltitude) >> 16;
    dataToSend[20] = (uint32_t)(sample.pressureAltitude) >> 24;

    dataToSend[21] = sample.accelXint >> 0;
    2fa2:	7563      	strb	r3, [r4, #21]
    dataToSend[22] = sample.accelXint >> 8;
    2fa4:	121b      	asrs	r3, r3, #8
    2fa6:	75a3      	strb	r3, [r4, #22]

    dataToSend[23] = sample.accelYint >> 0;
    2fa8:	2228      	movs	r2, #40	; 0x28
    2faa:	5eab      	ldrsh	r3, [r5, r2]
    dataToSend[32] = sample.gyroZint >> 8;

    dataToSend[33] = sample.analogRaw >> 0;
    dataToSend[34] = sample.analogRaw >> 8;

    makePage(bytesToSend, dataToSend);
    2fac:	2023      	movs	r0, #35	; 0x23
    dataToSend[20] = (uint32_t)(sample.pressureAltitude) >> 24;

    dataToSend[21] = sample.accelXint >> 0;
    dataToSend[22] = sample.accelXint >> 8;

    dataToSend[23] = sample.accelYint >> 0;
    2fae:	75e3      	strb	r3, [r4, #23]
    dataToSend[24] = sample.accelYint >> 8;
    2fb0:	121b      	asrs	r3, r3, #8
    2fb2:	7623      	strb	r3, [r4, #24]

    dataToSend[25] = sample.accelZint >> 0;
    2fb4:	2230      	movs	r2, #48	; 0x30
    2fb6:	5eab      	ldrsh	r3, [r5, r2]
    2fb8:	7663      	strb	r3, [r4, #25]
    dataToSend[26] = sample.accelZint >> 8;
    2fba:	121b      	asrs	r3, r3, #8
    2fbc:	76a3      	strb	r3, [r4, #26]

    dataToSend[27] = sample.gyroXint >> 0;
    2fbe:	2238      	movs	r2, #56	; 0x38
    2fc0:	5eab      	ldrsh	r3, [r5, r2]
    2fc2:	76e3      	strb	r3, [r4, #27]
    dataToSend[28] = sample.gyroXint >> 8;
    2fc4:	121b      	asrs	r3, r3, #8
    2fc6:	7723      	strb	r3, [r4, #28]

    dataToSend[29] = sample.gyroYint >> 0;
    2fc8:	1cab      	adds	r3, r5, #2
    2fca:	223e      	movs	r2, #62	; 0x3e
    2fcc:	5e9b      	ldrsh	r3, [r3, r2]
    2fce:	7763      	strb	r3, [r4, #29]
    dataToSend[30] = sample.gyroYint >> 8;
    2fd0:	121b      	asrs	r3, r3, #8
    2fd2:	77a3      	strb	r3, [r4, #30]

    dataToSend[31] = sample.gyroZint >> 0;
    2fd4:	002b      	movs	r3, r5
    2fd6:	3348      	adds	r3, #72	; 0x48
    2fd8:	2200      	movs	r2, #0
    2fda:	5e9b      	ldrsh	r3, [r3, r2]
    dataToSend[32] = sample.gyroZint >> 8;
    2fdc:	aa04      	add	r2, sp, #16
    dataToSend[28] = sample.gyroXint >> 8;

    dataToSend[29] = sample.gyroYint >> 0;
    dataToSend[30] = sample.gyroYint >> 8;

    dataToSend[31] = sample.gyroZint >> 0;
    2fde:	77e3      	strb	r3, [r4, #31]
    dataToSend[32] = sample.gyroZint >> 8;
    2fe0:	3205      	adds	r2, #5
    2fe2:	121b      	asrs	r3, r3, #8
    2fe4:	77d3      	strb	r3, [r2, #31]

    dataToSend[33] = sample.analogRaw >> 0;
    2fe6:	8b2b      	ldrh	r3, [r5, #24]
    2fe8:	aa04      	add	r2, sp, #16
    2fea:	3206      	adds	r2, #6
    2fec:	77d3      	strb	r3, [r2, #31]
    dataToSend[34] = sample.analogRaw >> 8;
    2fee:	aa04      	add	r2, sp, #16
    2ff0:	3207      	adds	r2, #7
    2ff2:	0a1b      	lsrs	r3, r3, #8
    2ff4:	77d3      	strb	r3, [r2, #31]

    makePage(bytesToSend, dataToSend);
    2ff6:	4b18      	ldr	r3, [pc, #96]	; (3058 <logSensors+0x1a0>)
    2ff8:	4798      	blx	r3

    if (pageReady) {
    2ffa:	4b18      	ldr	r3, [pc, #96]	; (305c <logSensors+0x1a4>)
    2ffc:	781a      	ldrb	r2, [r3, #0]
    2ffe:	2a00      	cmp	r2, #0
    3000:	d00e      	beq.n	3020 <logSensors+0x168>
        pageReady = false;
    3002:	2200      	movs	r2, #0
    3004:	701a      	strb	r2, [r3, #0]
    PORT->Group[p.group].OUTCLR.reg = (1<<p.pin);
}


inline static void pinToggle(Pin p) {
    PORT->Group[p.group].OUTTGL.reg = (1<<p.pin);
    3006:	2280      	movs	r2, #128	; 0x80
    3008:	4b15      	ldr	r3, [pc, #84]	; (3060 <logSensors+0x1a8>)
        pinToggle(LedPin);
        AT25SEWritePage(currentAddress,pageToWrite);
    300a:	4c16      	ldr	r4, [pc, #88]	; (3064 <logSensors+0x1ac>)
    300c:	0352      	lsls	r2, r2, #13
    300e:	61da      	str	r2, [r3, #28]
    3010:	4915      	ldr	r1, [pc, #84]	; (3068 <logSensors+0x1b0>)
    3012:	4b16      	ldr	r3, [pc, #88]	; (306c <logSensors+0x1b4>)
    3014:	6820      	ldr	r0, [r4, #0]
    3016:	4798      	blx	r3
        currentAddress = (currentAddress + 0x100);
    3018:	6823      	ldr	r3, [r4, #0]
    301a:	3301      	adds	r3, #1
    301c:	33ff      	adds	r3, #255	; 0xff
    301e:	6023      	str	r3, [r4, #0]
    }

}
    3020:	b00f      	add	sp, #60	; 0x3c
    3022:	bdf0      	pop	{r4, r5, r6, r7, pc}
    3024:	2000019a 	.word	0x2000019a
    3028:	200002e8 	.word	0x200002e8
    302c:	00006e6d 	.word	0x00006e6d
    3030:	00006ed9 	.word	0x00006ed9
    3034:	00006785 	.word	0x00006785
    3038:	00007075 	.word	0x00007075
    303c:	00005185 	.word	0x00005185
    3040:	447a0000 	.word	0x447a0000
    3044:	000053ad 	.word	0x000053ad
    3048:	20000308 	.word	0x20000308
    304c:	200005f0 	.word	0x200005f0
    3050:	00000b41 	.word	0x00000b41
    3054:	00005149 	.word	0x00005149
    3058:	00002d21 	.word	0x00002d21
    305c:	2000047a 	.word	0x2000047a
    3060:	41004400 	.word	0x41004400
    3064:	20000480 	.word	0x20000480
    3068:	2000037a 	.word	0x2000037a
    306c:	000002a5 	.word	0x000002a5

00003070 <logSensorsOnPad>:

void logSensorsOnPad() {

    writeLog = false;
    3070:	2200      	movs	r2, #0
        currentAddress = (currentAddress + 0x100);
    }

}

void logSensorsOnPad() {
    3072:	b5f0      	push	{r4, r5, r6, r7, lr}

    writeLog = false;
    3074:	4b50      	ldr	r3, [pc, #320]	; (31b8 <logSensorsOnPad+0x148>)
        currentAddress = (currentAddress + 0x100);
    }

}

void logSensorsOnPad() {
    3076:	b08f      	sub	sp, #60	; 0x3c

    writeLog = false;
    3078:	701a      	strb	r2, [r3, #0]

    u8_t bytesToSend = SENSOR_LOG_LENGTH;
    u8_t dataToSend[SENSOR_LOG_LENGTH];

    float fractionalAccel = accel - (int16_t)(accel);
    307a:	4b50      	ldr	r3, [pc, #320]	; (31bc <logSensorsOnPad+0x14c>)
    307c:	681c      	ldr	r4, [r3, #0]
    307e:	685d      	ldr	r5, [r3, #4]
    int16_t fractAccelPart = fractionalAccel * 1000;
    3080:	4b4f      	ldr	r3, [pc, #316]	; (31c0 <logSensorsOnPad+0x150>)
    3082:	0029      	movs	r1, r5
    3084:	0020      	movs	r0, r4
    3086:	4798      	blx	r3
    3088:	4e4e      	ldr	r6, [pc, #312]	; (31c4 <logSensorsOnPad+0x154>)
    308a:	b200      	sxth	r0, r0
    308c:	47b0      	blx	r6
    308e:	4f4e      	ldr	r7, [pc, #312]	; (31c8 <logSensorsOnPad+0x158>)
    3090:	0002      	movs	r2, r0
    3092:	000b      	movs	r3, r1
    3094:	0020      	movs	r0, r4
    3096:	0029      	movs	r1, r5
    3098:	47b8      	blx	r7
    309a:	4c4c      	ldr	r4, [pc, #304]	; (31cc <logSensorsOnPad+0x15c>)
    309c:	47a0      	blx	r4
    309e:	4d4c      	ldr	r5, [pc, #304]	; (31d0 <logSensorsOnPad+0x160>)
    30a0:	494c      	ldr	r1, [pc, #304]	; (31d4 <logSensorsOnPad+0x164>)
    30a2:	47a8      	blx	r5
    30a4:	4b4c      	ldr	r3, [pc, #304]	; (31d8 <logSensorsOnPad+0x168>)
    30a6:	4798      	blx	r3
    30a8:	b203      	sxth	r3, r0
    30aa:	9301      	str	r3, [sp, #4]

    float fractionalVelocity = velocity - (int16_t)(velocity);
    30ac:	4b4b      	ldr	r3, [pc, #300]	; (31dc <logSensorsOnPad+0x16c>)
    30ae:	681a      	ldr	r2, [r3, #0]
    30b0:	685b      	ldr	r3, [r3, #4]
    30b2:	9202      	str	r2, [sp, #8]
    30b4:	9303      	str	r3, [sp, #12]
    int16_t fractVelocityPart = fractionalVelocity * 1000;
    30b6:	0010      	movs	r0, r2
    30b8:	0019      	movs	r1, r3
    30ba:	4b41      	ldr	r3, [pc, #260]	; (31c0 <logSensorsOnPad+0x150>)
    30bc:	4798      	blx	r3
    30be:	b200      	sxth	r0, r0
    30c0:	47b0      	blx	r6
    30c2:	0002      	movs	r2, r0
    30c4:	000b      	movs	r3, r1
    30c6:	9802      	ldr	r0, [sp, #8]
    30c8:	9903      	ldr	r1, [sp, #12]
    30ca:	47b8      	blx	r7
    30cc:	47a0      	blx	r4
    30ce:	4941      	ldr	r1, [pc, #260]	; (31d4 <logSensorsOnPad+0x164>)
    30d0:	47a8      	blx	r5
    30d2:	4b41      	ldr	r3, [pc, #260]	; (31d8 <logSensorsOnPad+0x168>)
    30d4:	4798      	blx	r3

    dataToSend[0] = SENSOR_LOG;
    30d6:	2353      	movs	r3, #83	; 0x53

    dataToSend[1] = sample.sampleTick >> 0;
    30d8:	4d41      	ldr	r5, [pc, #260]	; (31e0 <logSensorsOnPad+0x170>)
    int16_t fractAccelPart = fractionalAccel * 1000;

    float fractionalVelocity = velocity - (int16_t)(velocity);
    int16_t fractVelocityPart = fractionalVelocity * 1000;

    dataToSend[0] = SENSOR_LOG;
    30da:	ac05      	add	r4, sp, #20
    30dc:	7023      	strb	r3, [r4, #0]

    dataToSend[1] = sample.sampleTick >> 0;
    30de:	686b      	ldr	r3, [r5, #4]

    float fractionalAccel = accel - (int16_t)(accel);
    int16_t fractAccelPart = fractionalAccel * 1000;

    float fractionalVelocity = velocity - (int16_t)(velocity);
    int16_t fractVelocityPart = fractionalVelocity * 1000;
    30e0:	b206      	sxth	r6, r0

    dataToSend[0] = SENSOR_LOG;

    dataToSend[1] = sample.sampleTick >> 0;
    dataToSend[2] = sample.sampleTick >> 8;
    30e2:	0a1a      	lsrs	r2, r3, #8
    float fractionalVelocity = velocity - (int16_t)(velocity);
    int16_t fractVelocityPart = fractionalVelocity * 1000;

    dataToSend[0] = SENSOR_LOG;

    dataToSend[1] = sample.sampleTick >> 0;
    30e4:	7063      	strb	r3, [r4, #1]
    dataToSend[2] = sample.sampleTick >> 8;
    30e6:	70a2      	strb	r2, [r4, #2]
    dataToSend[3] = sample.sampleTick >> 16;
    30e8:	0c1a      	lsrs	r2, r3, #16
    dataToSend[4] = sample.sampleTick >> 24;
    30ea:	0e1b      	lsrs	r3, r3, #24

    dataToSend[0] = SENSOR_LOG;

    dataToSend[1] = sample.sampleTick >> 0;
    dataToSend[2] = sample.sampleTick >> 8;
    dataToSend[3] = sample.sampleTick >> 16;
    30ec:	70e2      	strb	r2, [r4, #3]
    dataToSend[4] = sample.sampleTick >> 24;
    30ee:	7123      	strb	r3, [r4, #4]

    dataToSend[5] = altitudeAGL() >> 0;
    30f0:	4f3c      	ldr	r7, [pc, #240]	; (31e4 <logSensorsOnPad+0x174>)
    30f2:	47b8      	blx	r7
    30f4:	7160      	strb	r0, [r4, #5]
    dataToSend[6] = altitudeAGL() >> 8;
    30f6:	47b8      	blx	r7
    30f8:	1200      	asrs	r0, r0, #8
    30fa:	71a0      	strb	r0, [r4, #6]
    dataToSend[7] = altitudeAGL() >> 16;
    30fc:	47b8      	blx	r7
    30fe:	1400      	asrs	r0, r0, #16
    3100:	71e0      	strb	r0, [r4, #7]
    dataToSend[8] = altitudeAGL() >> 24;
    3102:	47b8      	blx	r7

    dataToSend[9] = (int16_t)(accel) >> 0;
    3104:	4b2d      	ldr	r3, [pc, #180]	; (31bc <logSensorsOnPad+0x14c>)
    dataToSend[4] = sample.sampleTick >> 24;

    dataToSend[5] = altitudeAGL() >> 0;
    dataToSend[6] = altitudeAGL() >> 8;
    dataToSend[7] = altitudeAGL() >> 16;
    dataToSend[8] = altitudeAGL() >> 24;
    3106:	1600      	asrs	r0, r0, #24
    3108:	7220      	strb	r0, [r4, #8]

    dataToSend[9] = (int16_t)(accel) >> 0;
    310a:	6818      	ldr	r0, [r3, #0]
    310c:	6859      	ldr	r1, [r3, #4]
    310e:	4b2c      	ldr	r3, [pc, #176]	; (31c0 <logSensorsOnPad+0x150>)
    3110:	4798      	blx	r3
    dataToSend[10] = (int16_t)(accel) >> 8;
    dataToSend[11] = fractAccelPart >> 0;
    3112:	466b      	mov	r3, sp
    3114:	791b      	ldrb	r3, [r3, #4]
    dataToSend[5] = altitudeAGL() >> 0;
    dataToSend[6] = altitudeAGL() >> 8;
    dataToSend[7] = altitudeAGL() >> 16;
    dataToSend[8] = altitudeAGL() >> 24;

    dataToSend[9] = (int16_t)(accel) >> 0;
    3116:	b200      	sxth	r0, r0
    dataToSend[10] = (int16_t)(accel) >> 8;
    dataToSend[11] = fractAccelPart >> 0;
    3118:	72e3      	strb	r3, [r4, #11]
    dataToSend[12] = fractAccelPart >> 8;
    311a:	9b01      	ldr	r3, [sp, #4]
    dataToSend[5] = altitudeAGL() >> 0;
    dataToSend[6] = altitudeAGL() >> 8;
    dataToSend[7] = altitudeAGL() >> 16;
    dataToSend[8] = altitudeAGL() >> 24;

    dataToSend[9] = (int16_t)(accel) >> 0;
    311c:	7260      	strb	r0, [r4, #9]
    dataToSend[10] = (int16_t)(accel) >> 8;
    311e:	1200      	asrs	r0, r0, #8
    3120:	72a0      	strb	r0, [r4, #10]
    dataToSend[11] = fractAccelPart >> 0;
    dataToSend[12] = fractAccelPart >> 8;
    3122:	1218      	asrs	r0, r3, #8

    dataToSend[13] = (int16_t)(velocity) >> 0;
    3124:	4b2d      	ldr	r3, [pc, #180]	; (31dc <logSensorsOnPad+0x16c>)
    dataToSend[8] = altitudeAGL() >> 24;

    dataToSend[9] = (int16_t)(accel) >> 0;
    dataToSend[10] = (int16_t)(accel) >> 8;
    dataToSend[11] = fractAccelPart >> 0;
    dataToSend[12] = fractAccelPart >> 8;
    3126:	7320      	strb	r0, [r4, #12]

    dataToSend[13] = (int16_t)(velocity) >> 0;
    3128:	6818      	ldr	r0, [r3, #0]
    312a:	6859      	ldr	r1, [r3, #4]
    312c:	4b24      	ldr	r3, [pc, #144]	; (31c0 <logSensorsOnPad+0x150>)
    312e:	4798      	blx	r3
    3130:	b200      	sxth	r0, r0
    3132:	7360      	strb	r0, [r4, #13]
    dataToSend[14] = (int16_t)(velocity) >> 8;
    dataToSend[15] = fractVelocityPart >> 0;
    3134:	73e6      	strb	r6, [r4, #15]
    dataToSend[10] = (int16_t)(accel) >> 8;
    dataToSend[11] = fractAccelPart >> 0;
    dataToSend[12] = fractAccelPart >> 8;

    dataToSend[13] = (int16_t)(velocity) >> 0;
    dataToSend[14] = (int16_t)(velocity) >> 8;
    3136:	1200      	asrs	r0, r0, #8
    dataToSend[15] = fractVelocityPart >> 0;
    dataToSend[16] = fractVelocityPart >> 8;
    3138:	1236      	asrs	r6, r6, #8
    dataToSend[10] = (int16_t)(accel) >> 8;
    dataToSend[11] = fractAccelPart >> 0;
    dataToSend[12] = fractAccelPart >> 8;

    dataToSend[13] = (int16_t)(velocity) >> 0;
    dataToSend[14] = (int16_t)(velocity) >> 8;
    313a:	73a0      	strb	r0, [r4, #14]
    dataToSend[15] = fractVelocityPart >> 0;
    dataToSend[16] = fractVelocityPart >> 8;

    dataToSend[17] = (uint32_t)(sample.pressureAltitude) >> 0;
    313c:	4b2a      	ldr	r3, [pc, #168]	; (31e8 <logSensorsOnPad+0x178>)
    313e:	6da8      	ldr	r0, [r5, #88]	; 0x58
    3140:	6de9      	ldr	r1, [r5, #92]	; 0x5c
    dataToSend[12] = fractAccelPart >> 8;

    dataToSend[13] = (int16_t)(velocity) >> 0;
    dataToSend[14] = (int16_t)(velocity) >> 8;
    dataToSend[15] = fractVelocityPart >> 0;
    dataToSend[16] = fractVelocityPart >> 8;
    3142:	7426      	strb	r6, [r4, #16]

    dataToSend[17] = (uint32_t)(sample.pressureAltitude) >> 0;
    3144:	4798      	blx	r3
    dataToSend[18] = (uint32_t)(sample.pressureAltitude) >> 8;
    3146:	0a03      	lsrs	r3, r0, #8
    dataToSend[13] = (int16_t)(velocity) >> 0;
    dataToSend[14] = (int16_t)(velocity) >> 8;
    dataToSend[15] = fractVelocityPart >> 0;
    dataToSend[16] = fractVelocityPart >> 8;

    dataToSend[17] = (uint32_t)(sample.pressureAltitude) >> 0;
    3148:	7460      	strb	r0, [r4, #17]
    dataToSend[18] = (uint32_t)(sample.pressureAltitude) >> 8;
    314a:	74a3      	strb	r3, [r4, #18]
    dataToSend[19] = (uint32_t)(sample.pressureAltitude) >> 16;
    314c:	0c03      	lsrs	r3, r0, #16
    dataToSend[20] = (uint32_t)(sample.pressureAltitude) >> 24;
    314e:	0e00      	lsrs	r0, r0, #24
    3150:	7520      	strb	r0, [r4, #20]
    dataToSend[15] = fractVelocityPart >> 0;
    dataToSend[16] = fractVelocityPart >> 8;

    dataToSend[17] = (uint32_t)(sample.pressureAltitude) >> 0;
    dataToSend[18] = (uint32_t)(sample.pressureAltitude) >> 8;
    dataToSend[19] = (uint32_t)(sample.pressureAltitude) >> 16;
    3152:	74e3      	strb	r3, [r4, #19]
    dataToSend[20] = (uint32_t)(sample.pressureAltitude) >> 24;

    dataToSend[21] = sample.accelXint >> 0;
    3154:	2220      	movs	r2, #32
    3156:	5eab      	ldrsh	r3, [r5, r2]
    dataToSend[32] = sample.gyroZint >> 8;

    dataToSend[33] = sample.analogRaw >> 0;
    dataToSend[34] = sample.analogRaw >> 8;

    writePadBuffer(bytesToSend, dataToSend);
    3158:	0021      	movs	r1, r4
    dataToSend[17] = (uint32_t)(sample.pressureAltitude) >> 0;
    dataToSend[18] = (uint32_t)(sample.pressureAltitude) >> 8;
    dataToSend[19] = (uint32_t)(sample.pressureAltitude) >> 16;
    dataToSend[20] = (uint32_t)(sample.pressureAltitude) >> 24;

    dataToSend[21] = sample.accelXint >> 0;
    315a:	7563      	strb	r3, [r4, #21]
    dataToSend[22] = sample.accelXint >> 8;
    315c:	121b      	asrs	r3, r3, #8
    315e:	75a3      	strb	r3, [r4, #22]

    dataToSend[23] = sample.accelYint >> 0;
    3160:	2228      	movs	r2, #40	; 0x28
    3162:	5eab      	ldrsh	r3, [r5, r2]
    dataToSend[32] = sample.gyroZint >> 8;

    dataToSend[33] = sample.analogRaw >> 0;
    dataToSend[34] = sample.analogRaw >> 8;

    writePadBuffer(bytesToSend, dataToSend);
    3164:	2023      	movs	r0, #35	; 0x23
    dataToSend[20] = (uint32_t)(sample.pressureAltitude) >> 24;

    dataToSend[21] = sample.accelXint >> 0;
    dataToSend[22] = sample.accelXint >> 8;

    dataToSend[23] = sample.accelYint >> 0;
    3166:	75e3      	strb	r3, [r4, #23]
    dataToSend[24] = sample.accelYint >> 8;
    3168:	121b      	asrs	r3, r3, #8
    316a:	7623      	strb	r3, [r4, #24]

    dataToSend[25] = sample.accelZint >> 0;
    316c:	2230      	movs	r2, #48	; 0x30
    316e:	5eab      	ldrsh	r3, [r5, r2]
    3170:	7663      	strb	r3, [r4, #25]
    dataToSend[26] = sample.accelZint >> 8;
    3172:	121b      	asrs	r3, r3, #8
    3174:	76a3      	strb	r3, [r4, #26]

    dataToSend[27] = sample.gyroXint >> 0;
    3176:	2238      	movs	r2, #56	; 0x38
    3178:	5eab      	ldrsh	r3, [r5, r2]
    317a:	76e3      	strb	r3, [r4, #27]
    dataToSend[28] = sample.gyroXint >> 8;
    317c:	121b      	asrs	r3, r3, #8
    317e:	7723      	strb	r3, [r4, #28]

    dataToSend[29] = sample.gyroYint >> 0;
    3180:	1cab      	adds	r3, r5, #2
    3182:	223e      	movs	r2, #62	; 0x3e
    3184:	5e9b      	ldrsh	r3, [r3, r2]
    3186:	7763      	strb	r3, [r4, #29]
    dataToSend[30] = sample.gyroYint >> 8;
    3188:	121b      	asrs	r3, r3, #8
    318a:	77a3      	strb	r3, [r4, #30]

    dataToSend[31] = sample.gyroZint >> 0;
    318c:	002b      	movs	r3, r5
    318e:	3348      	adds	r3, #72	; 0x48
    3190:	2200      	movs	r2, #0
    3192:	5e9b      	ldrsh	r3, [r3, r2]
    dataToSend[32] = sample.gyroZint >> 8;
    3194:	aa04      	add	r2, sp, #16
    dataToSend[28] = sample.gyroXint >> 8;

    dataToSend[29] = sample.gyroYint >> 0;
    dataToSend[30] = sample.gyroYint >> 8;

    dataToSend[31] = sample.gyroZint >> 0;
    3196:	77e3      	strb	r3, [r4, #31]
    dataToSend[32] = sample.gyroZint >> 8;
    3198:	3205      	adds	r2, #5
    319a:	121b      	asrs	r3, r3, #8
    319c:	77d3      	strb	r3, [r2, #31]

    dataToSend[33] = sample.analogRaw >> 0;
    319e:	8b2b      	ldrh	r3, [r5, #24]
    31a0:	aa04      	add	r2, sp, #16
    31a2:	3206      	adds	r2, #6
    31a4:	77d3      	strb	r3, [r2, #31]
    dataToSend[34] = sample.analogRaw >> 8;
    31a6:	aa04      	add	r2, sp, #16
    31a8:	3207      	adds	r2, #7
    31aa:	0a1b      	lsrs	r3, r3, #8
    31ac:	77d3      	strb	r3, [r2, #31]

    writePadBuffer(bytesToSend, dataToSend);
    31ae:	4b0f      	ldr	r3, [pc, #60]	; (31ec <logSensorsOnPad+0x17c>)
    31b0:	4798      	blx	r3

}
    31b2:	b00f      	add	sp, #60	; 0x3c
    31b4:	bdf0      	pop	{r4, r5, r6, r7, pc}
    31b6:	46c0      	nop			; (mov r8, r8)
    31b8:	2000019a 	.word	0x2000019a
    31bc:	200002e8 	.word	0x200002e8
    31c0:	00006e6d 	.word	0x00006e6d
    31c4:	00006ed9 	.word	0x00006ed9
    31c8:	00006785 	.word	0x00006785
    31cc:	00007075 	.word	0x00007075
    31d0:	00005185 	.word	0x00005185
    31d4:	447a0000 	.word	0x447a0000
    31d8:	000053ad 	.word	0x000053ad
    31dc:	20000308 	.word	0x20000308
    31e0:	200005f0 	.word	0x200005f0
    31e4:	00000b41 	.word	0x00000b41
    31e8:	00005149 	.word	0x00005149
    31ec:	00002db1 	.word	0x00002db1

000031f0 <getFlightStartAddress>:

    u8_t addressToCheck[3];

    u16_t flightAddressLoc = FLIGHTZEROSTART + (flightToFind * 0x06);

    AT25SEreadSample(flightAddressLoc, 0x03, addressToCheck);
    31f0:	2306      	movs	r3, #6

}



u32_t getFlightStartAddress(u8_t flightToFind) {
    31f2:	b513      	push	{r0, r1, r4, lr}

    u8_t addressToCheck[3];

    u16_t flightAddressLoc = FLIGHTZEROSTART + (flightToFind * 0x06);

    AT25SEreadSample(flightAddressLoc, 0x03, addressToCheck);
    31f4:	4358      	muls	r0, r3
    31f6:	ac01      	add	r4, sp, #4
    31f8:	3001      	adds	r0, #1
    31fa:	30ff      	adds	r0, #255	; 0xff
    31fc:	0022      	movs	r2, r4
    31fe:	2103      	movs	r1, #3
    3200:	4b04      	ldr	r3, [pc, #16]	; (3214 <getFlightStartAddress+0x24>)
    3202:	4798      	blx	r3

    u32_t flightStartAddress = addressToCheck[0] << 0 | addressToCheck[1] << 8 | addressToCheck[2] << 16;
    3204:	7860      	ldrb	r0, [r4, #1]
    3206:	78a3      	ldrb	r3, [r4, #2]
    3208:	0200      	lsls	r0, r0, #8
    320a:	041b      	lsls	r3, r3, #16
    320c:	4318      	orrs	r0, r3
    320e:	7823      	ldrb	r3, [r4, #0]
    3210:	4318      	orrs	r0, r3

    return flightStartAddress;
}
    3212:	bd16      	pop	{r1, r2, r4, pc}
    3214:	00000301 	.word	0x00000301

00003218 <FindFlightEndingAddress>:

    u8_t addressToCheck[3];

    u16_t flightAddressLoc = FLIGHTZEROEND + (findThisFlightsEnd * 0x06);

    AT25SEreadSample(flightAddressLoc, 0x03, addressToCheck);
    3218:	2306      	movs	r3, #6
    u32_t flightStartAddress = addressToCheck[0] << 0 | addressToCheck[1] << 8 | addressToCheck[2] << 16;

    return flightStartAddress;
}

u32_t FindFlightEndingAddress(u8_t findThisFlightsEnd) {
    321a:	b513      	push	{r0, r1, r4, lr}

    u8_t addressToCheck[3];

    u16_t flightAddressLoc = FLIGHTZEROEND + (findThisFlightsEnd * 0x06);

    AT25SEreadSample(flightAddressLoc, 0x03, addressToCheck);
    321c:	4358      	muls	r0, r3
    321e:	ac01      	add	r4, sp, #4
    3220:	3004      	adds	r0, #4
    3222:	30ff      	adds	r0, #255	; 0xff
    3224:	0022      	movs	r2, r4
    3226:	2103      	movs	r1, #3
    3228:	4b04      	ldr	r3, [pc, #16]	; (323c <FindFlightEndingAddress+0x24>)
    322a:	4798      	blx	r3

    u32_t flightEndAddress = addressToCheck[0] << 0 | addressToCheck[1] << 8 | addressToCheck[2] << 16;
    322c:	7860      	ldrb	r0, [r4, #1]
    322e:	78a3      	ldrb	r3, [r4, #2]
    3230:	0200      	lsls	r0, r0, #8
    3232:	041b      	lsls	r3, r3, #16
    3234:	4318      	orrs	r0, r3
    3236:	7823      	ldrb	r3, [r4, #0]
    3238:	4318      	orrs	r0, r3

    return flightEndAddress;
}
    323a:	bd16      	pop	{r1, r2, r4, pc}
    323c:	00000301 	.word	0x00000301

00003240 <isFlightLogged>:

bool isFlightLogged(u8_t flightNumbToCheck) {
    3240:	b510      	push	{r4, lr}

    u32_t possibleStart = getFlightStartAddress(flightNumbToCheck);
    3242:	4b04      	ldr	r3, [pc, #16]	; (3254 <isFlightLogged+0x14>)
    3244:	4798      	blx	r3
    3246:	4b04      	ldr	r3, [pc, #16]	; (3258 <isFlightLogged+0x18>)
    if (possibleStart == 0xFFFFFF) {
        return false;
    } else {
        return true;
    }
}
    3248:	18c0      	adds	r0, r0, r3
    324a:	1e43      	subs	r3, r0, #1
    324c:	4198      	sbcs	r0, r3
    324e:	b2c0      	uxtb	r0, r0
    3250:	bd10      	pop	{r4, pc}
    3252:	46c0      	nop			; (mov r8, r8)
    3254:	000031f1 	.word	0x000031f1
    3258:	ff000001 	.word	0xff000001

0000325c <writeFlightStartAddress>:

void writeFlightStartAddress() {
    325c:	b510      	push	{r4, lr}
    AT25SFWriteBytes(flightAddressLocationInIndex,3,flightStartAddress);
    325e:	4b03      	ldr	r3, [pc, #12]	; (326c <writeFlightStartAddress+0x10>)
    3260:	4a03      	ldr	r2, [pc, #12]	; (3270 <writeFlightStartAddress+0x14>)
    3262:	8818      	ldrh	r0, [r3, #0]
    3264:	2103      	movs	r1, #3
    3266:	4b03      	ldr	r3, [pc, #12]	; (3274 <writeFlightStartAddress+0x18>)
    3268:	4798      	blx	r3
}
    326a:	bd10      	pop	{r4, pc}
    326c:	20000378 	.word	0x20000378
    3270:	2000047b 	.word	0x2000047b
    3274:	00000241 	.word	0x00000241

00003278 <writeFlightEndAddress>:




void writeFlightEndAddress() {
    3278:	b507      	push	{r0, r1, r2, lr}
    u32_t endingAddress = currentAddress;

    u8_t address[3] = {endingAddress >> 0, endingAddress >> 8, endingAddress >> 16};

    u16_t flightAddressLoc = FLIGHTZEROEND + (flightNumb * 0x06);
    AT25SFWriteBytes(flightAddressLoc, 3, address);
    327a:	2006      	movs	r0, #6



void writeFlightEndAddress() {

    u32_t endingAddress = currentAddress;
    327c:	4b09      	ldr	r3, [pc, #36]	; (32a4 <writeFlightEndAddress+0x2c>)

    u8_t address[3] = {endingAddress >> 0, endingAddress >> 8, endingAddress >> 16};
    327e:	aa01      	add	r2, sp, #4



void writeFlightEndAddress() {

    u32_t endingAddress = currentAddress;
    3280:	681b      	ldr	r3, [r3, #0]

    u8_t address[3] = {endingAddress >> 0, endingAddress >> 8, endingAddress >> 16};
    3282:	7013      	strb	r3, [r2, #0]
    3284:	0a19      	lsrs	r1, r3, #8
    3286:	0c1b      	lsrs	r3, r3, #16
    3288:	7093      	strb	r3, [r2, #2]

    u16_t flightAddressLoc = FLIGHTZEROEND + (flightNumb * 0x06);
    328a:	4b07      	ldr	r3, [pc, #28]	; (32a8 <writeFlightEndAddress+0x30>)

void writeFlightEndAddress() {

    u32_t endingAddress = currentAddress;

    u8_t address[3] = {endingAddress >> 0, endingAddress >> 8, endingAddress >> 16};
    328c:	7051      	strb	r1, [r2, #1]

    u16_t flightAddressLoc = FLIGHTZEROEND + (flightNumb * 0x06);
    AT25SFWriteBytes(flightAddressLoc, 3, address);
    328e:	781b      	ldrb	r3, [r3, #0]
    3290:	2103      	movs	r1, #3
    3292:	4358      	muls	r0, r3
    3294:	3004      	adds	r0, #4
    3296:	30ff      	adds	r0, #255	; 0xff
    3298:	4b04      	ldr	r3, [pc, #16]	; (32ac <writeFlightEndAddress+0x34>)
    329a:	4798      	blx	r3
    delay_ms(10);
    329c:	200a      	movs	r0, #10
    329e:	4b04      	ldr	r3, [pc, #16]	; (32b0 <writeFlightEndAddress+0x38>)
    32a0:	4798      	blx	r3
}
    32a2:	bd07      	pop	{r0, r1, r2, pc}
    32a4:	20000480 	.word	0x20000480
    32a8:	2000019b 	.word	0x2000019b
    32ac:	00000241 	.word	0x00000241
    32b0:	0000114d 	.word	0x0000114d

000032b4 <writeGroundLog>:

void writeGroundLog() {
    32b4:	b5f8      	push	{r3, r4, r5, r6, r7, lr}
    32b6:	2780      	movs	r7, #128	; 0x80
    u8_t i;

    for (i = 0; i < 10; i++) {
    32b8:	26af      	movs	r6, #175	; 0xaf
    u16_t flightAddressLoc = FLIGHTZEROEND + (flightNumb * 0x06);
    AT25SFWriteBytes(flightAddressLoc, 3, address);
    delay_ms(10);
}

void writeGroundLog() {
    32ba:	2400      	movs	r4, #0
    32bc:	037f      	lsls	r7, r7, #13
    u8_t i;

    for (i = 0; i < 10; i++) {
    32be:	0076      	lsls	r6, r6, #1
        makePage(SENSOR_LOG_LENGTH, &padSensorBuffer[i][0]);
    32c0:	490c      	ldr	r1, [pc, #48]	; (32f4 <writeGroundLog+0x40>)
    32c2:	4b0d      	ldr	r3, [pc, #52]	; (32f8 <writeGroundLog+0x44>)
    32c4:	1861      	adds	r1, r4, r1
    32c6:	2023      	movs	r0, #35	; 0x23
    32c8:	4798      	blx	r3

        if (pageReady) {
    32ca:	4b0c      	ldr	r3, [pc, #48]	; (32fc <writeGroundLog+0x48>)
    32cc:	781a      	ldrb	r2, [r3, #0]
    32ce:	2a00      	cmp	r2, #0
    32d0:	d00c      	beq.n	32ec <writeGroundLog+0x38>
            pageReady = false;
    32d2:	2200      	movs	r2, #0
    32d4:	701a      	strb	r2, [r3, #0]
    32d6:	4b0a      	ldr	r3, [pc, #40]	; (3300 <writeGroundLog+0x4c>)
            pinToggle(LedPin);
            AT25SEWritePage(currentAddress,pageToWrite);
    32d8:	4d0a      	ldr	r5, [pc, #40]	; (3304 <writeGroundLog+0x50>)
    32da:	61df      	str	r7, [r3, #28]
    32dc:	490a      	ldr	r1, [pc, #40]	; (3308 <writeGroundLog+0x54>)
    32de:	4b0b      	ldr	r3, [pc, #44]	; (330c <writeGroundLog+0x58>)
    32e0:	6828      	ldr	r0, [r5, #0]
    32e2:	4798      	blx	r3
            currentAddress = (currentAddress + 0x100);
    32e4:	682b      	ldr	r3, [r5, #0]
    32e6:	3301      	adds	r3, #1
    32e8:	33ff      	adds	r3, #255	; 0xff
    32ea:	602b      	str	r3, [r5, #0]
    32ec:	3423      	adds	r4, #35	; 0x23
}

void writeGroundLog() {
    u8_t i;

    for (i = 0; i < 10; i++) {
    32ee:	42b4      	cmp	r4, r6
    32f0:	d1e6      	bne.n	32c0 <writeGroundLog+0xc>
            currentAddress = (currentAddress + 0x100);
        }

    }

}
    32f2:	bdf8      	pop	{r3, r4, r5, r6, r7, pc}
    32f4:	20000484 	.word	0x20000484
    32f8:	00002d21 	.word	0x00002d21
    32fc:	2000047a 	.word	0x2000047a
    3300:	41004400 	.word	0x41004400
    3304:	20000480 	.word	0x20000480
    3308:	2000037a 	.word	0x2000037a
    330c:	000002a5 	.word	0x000002a5

00003310 <beginFlightLog>:

void beginFlightLog() {
    3310:	b510      	push	{r4, lr}
    writeFlightStartAddress();
    3312:	4b05      	ldr	r3, [pc, #20]	; (3328 <beginFlightLog+0x18>)
    3314:	4798      	blx	r3
    logFlight( );
    3316:	4b05      	ldr	r3, [pc, #20]	; (332c <beginFlightLog+0x1c>)
    3318:	4798      	blx	r3
    writeGroundLog();
    331a:	4b05      	ldr	r3, [pc, #20]	; (3330 <beginFlightLog+0x20>)
    331c:	4798      	blx	r3
    logEvent('L');
    331e:	204c      	movs	r0, #76	; 0x4c
    3320:	4b04      	ldr	r3, [pc, #16]	; (3334 <beginFlightLog+0x24>)
    3322:	4798      	blx	r3

}
    3324:	bd10      	pop	{r4, pc}
    3326:	46c0      	nop			; (mov r8, r8)
    3328:	0000325d 	.word	0x0000325d
    332c:	00002df9 	.word	0x00002df9
    3330:	000032b5 	.word	0x000032b5
    3334:	00002e5d 	.word	0x00002e5d

00003338 <findNewFlightStart>:


void findNewFlightStart() {
    3338:	b5f8      	push	{r3, r4, r5, r6, r7, lr}

    for (u8_t flightNumbToCheck = 0; flightNumbToCheck < 20; ++flightNumbToCheck) {
    333a:	2400      	movs	r4, #0

        if (!isFlightLogged(flightNumbToCheck)) {
    333c:	0020      	movs	r0, r4
    333e:	4b1d      	ldr	r3, [pc, #116]	; (33b4 <findNewFlightStart+0x7c>)
    3340:	4798      	blx	r3
    3342:	2800      	cmp	r0, #0
    3344:	d130      	bne.n	33a8 <findNewFlightStart+0x70>
    3346:	4f1c      	ldr	r7, [pc, #112]	; (33b8 <findNewFlightStart+0x80>)
    3348:	4d1c      	ldr	r5, [pc, #112]	; (33bc <findNewFlightStart+0x84>)

            if (flightNumbToCheck > 0) {
    334a:	2c00      	cmp	r4, #0
    334c:	d014      	beq.n	3378 <findNewFlightStart+0x40>

                u32_t startAddress = FindFlightEndingAddress(flightNumbToCheck - 1);
    334e:	1e60      	subs	r0, r4, #1
    3350:	4b1b      	ldr	r3, [pc, #108]	; (33c0 <findNewFlightStart+0x88>)
    3352:	b2c0      	uxtb	r0, r0
    3354:	4798      	blx	r3
    3356:	0006      	movs	r6, r0
                delay_ms(5);
    3358:	4b1a      	ldr	r3, [pc, #104]	; (33c4 <findNewFlightStart+0x8c>)
    335a:	2005      	movs	r0, #5
    335c:	4798      	blx	r3

                currentAddress = startAddress;

                flightStartAddress[0] = startAddress >> 0;
                flightStartAddress[1] = startAddress >> 8;
    335e:	0a33      	lsrs	r3, r6, #8
    3360:	706b      	strb	r3, [r5, #1]
                flightStartAddress[2] = startAddress >> 16;

                flightAddressLocationInIndex = FLIGHTZEROSTART + (flightNumbToCheck * 0x06);
    3362:	2306      	movs	r3, #6
    3364:	4363      	muls	r3, r4
    3366:	4a18      	ldr	r2, [pc, #96]	; (33c8 <findNewFlightStart+0x90>)
    3368:	3301      	adds	r3, #1
            if (flightNumbToCheck > 0) {

                u32_t startAddress = FindFlightEndingAddress(flightNumbToCheck - 1);
                delay_ms(5);

                currentAddress = startAddress;
    336a:	603e      	str	r6, [r7, #0]

                flightStartAddress[0] = startAddress >> 0;
    336c:	702e      	strb	r6, [r5, #0]
                flightStartAddress[1] = startAddress >> 8;
                flightStartAddress[2] = startAddress >> 16;

                flightAddressLocationInIndex = FLIGHTZEROSTART + (flightNumbToCheck * 0x06);
    336e:	33ff      	adds	r3, #255	; 0xff

                currentAddress = startAddress;

                flightStartAddress[0] = startAddress >> 0;
                flightStartAddress[1] = startAddress >> 8;
                flightStartAddress[2] = startAddress >> 16;
    3370:	0c36      	lsrs	r6, r6, #16
    3372:	70ae      	strb	r6, [r5, #2]

                flightAddressLocationInIndex = FLIGHTZEROSTART + (flightNumbToCheck * 0x06);
    3374:	8013      	strh	r3, [r2, #0]
    3376:	e00d      	b.n	3394 <findNewFlightStart+0x5c>

                // for flight 0, starting address is always 0x00100 (beginning of second 4k block)
            } else {
                flightStartAddress[0] = 0x00;
                flightStartAddress[1] = 0x10;
    3378:	2310      	movs	r3, #16
                flightStartAddress[2] = 0x00;

                flightAddressLocationInIndex = FLIGHTZEROSTART;
    337a:	4a13      	ldr	r2, [pc, #76]	; (33c8 <findNewFlightStart+0x90>)
                flightAddressLocationInIndex = FLIGHTZEROSTART + (flightNumbToCheck * 0x06);

                // for flight 0, starting address is always 0x00100 (beginning of second 4k block)
            } else {
                flightStartAddress[0] = 0x00;
                flightStartAddress[1] = 0x10;
    337c:	706b      	strb	r3, [r5, #1]
                flightStartAddress[2] = 0x00;

                flightAddressLocationInIndex = FLIGHTZEROSTART;
    337e:	33f0      	adds	r3, #240	; 0xf0
    3380:	8013      	strh	r3, [r2, #0]

                currentAddress = 0x001000;
    3382:	2380      	movs	r3, #128	; 0x80
                beep(1000);
    3384:	20fa      	movs	r0, #250	; 0xfa
                flightStartAddress[1] = 0x10;
                flightStartAddress[2] = 0x00;

                flightAddressLocationInIndex = FLIGHTZEROSTART;

                currentAddress = 0x001000;
    3386:	015b      	lsls	r3, r3, #5
    3388:	603b      	str	r3, [r7, #0]
                beep(1000);
    338a:	0080      	lsls	r0, r0, #2
    338c:	4b0f      	ldr	r3, [pc, #60]	; (33cc <findNewFlightStart+0x94>)

                flightAddressLocationInIndex = FLIGHTZEROSTART + (flightNumbToCheck * 0x06);

                // for flight 0, starting address is always 0x00100 (beginning of second 4k block)
            } else {
                flightStartAddress[0] = 0x00;
    338e:	702c      	strb	r4, [r5, #0]
                flightStartAddress[1] = 0x10;
                flightStartAddress[2] = 0x00;
    3390:	70ac      	strb	r4, [r5, #2]

                flightAddressLocationInIndex = FLIGHTZEROSTART;

                currentAddress = 0x001000;
                beep(1000);
    3392:	4798      	blx	r3
            }
            flightNumb = flightNumbToCheck;
    3394:	4b0e      	ldr	r3, [pc, #56]	; (33d0 <findNewFlightStart+0x98>)

            beepDigit(flightNumb);
    3396:	0020      	movs	r0, r4
                flightAddressLocationInIndex = FLIGHTZEROSTART;

                currentAddress = 0x001000;
                beep(1000);
            }
            flightNumb = flightNumbToCheck;
    3398:	701c      	strb	r4, [r3, #0]

            beepDigit(flightNumb);
    339a:	4b0e      	ldr	r3, [pc, #56]	; (33d4 <findNewFlightStart+0x9c>)
    339c:	4798      	blx	r3
            delay_ms(1000);
    339e:	20fa      	movs	r0, #250	; 0xfa
    33a0:	4b08      	ldr	r3, [pc, #32]	; (33c4 <findNewFlightStart+0x8c>)
    33a2:	0080      	lsls	r0, r0, #2
    33a4:	4798      	blx	r3
            break;
    33a6:	e003      	b.n	33b0 <findNewFlightStart+0x78>
}


void findNewFlightStart() {

    for (u8_t flightNumbToCheck = 0; flightNumbToCheck < 20; ++flightNumbToCheck) {
    33a8:	3401      	adds	r4, #1
    33aa:	b2e4      	uxtb	r4, r4
    33ac:	2c14      	cmp	r4, #20
    33ae:	d1c5      	bne.n	333c <findNewFlightStart+0x4>
            beepDigit(flightNumb);
            delay_ms(1000);
            break;
        }
    }
}
    33b0:	bdf8      	pop	{r3, r4, r5, r6, r7, pc}
    33b2:	46c0      	nop			; (mov r8, r8)
    33b4:	00003241 	.word	0x00003241
    33b8:	20000480 	.word	0x20000480
    33bc:	2000047b 	.word	0x2000047b
    33c0:	00003219 	.word	0x00003219
    33c4:	0000114d 	.word	0x0000114d
    33c8:	20000378 	.word	0x20000378
    33cc:	00000e49 	.word	0x00000e49
    33d0:	2000019b 	.word	0x2000019b
    33d4:	00000e91 	.word	0x00000e91

000033d8 <takeSample>:
#include <util.h>
#include <boardDefines.h>
#include <MS5803.h>

bool takeSample() {
    return SampleBool;
    33d8:	4b01      	ldr	r3, [pc, #4]	; (33e0 <takeSample+0x8>)
    33da:	7818      	ldrb	r0, [r3, #0]
}
    33dc:	4770      	bx	lr
    33de:	46c0      	nop			; (mov r8, r8)
    33e0:	200001ad 	.word	0x200001ad

000033e4 <pullSample>:

void pullSample() {
    SampleBool = true;
    33e4:	2201      	movs	r2, #1
    33e6:	4b01      	ldr	r3, [pc, #4]	; (33ec <pullSample+0x8>)
    33e8:	701a      	strb	r2, [r3, #0]
}
    33ea:	4770      	bx	lr
    33ec:	200001ad 	.word	0x200001ad

000033f0 <sampleTick>:
    SampleBool = false;
}

sample_t sample;

void sampleTick() {
    33f0:	b5f7      	push	{r0, r1, r2, r4, r5, r6, r7, lr}
    SampleBool = false;
    33f2:	2200      	movs	r2, #0
    33f4:	4ba7      	ldr	r3, [pc, #668]	; (3694 <sampleTick+0x2a4>)

    // take last samples time to discover Dt before setting new time
    u32_t lastTick = sample.sampleTick;
    33f6:	4fa8      	ldr	r7, [pc, #672]	; (3698 <sampleTick+0x2a8>)
}

sample_t sample;

void sampleTick() {
    SampleBool = false;
    33f8:	701a      	strb	r2, [r3, #0]

    // take last samples time to discover Dt before setting new time
    u32_t lastTick = sample.sampleTick;
    sample.sampleTick = millis();
    33fa:	4ba8      	ldr	r3, [pc, #672]	; (369c <sampleTick+0x2ac>)

void sampleTick() {
    SampleBool = false;

    // take last samples time to discover Dt before setting new time
    u32_t lastTick = sample.sampleTick;
    33fc:	687c      	ldr	r4, [r7, #4]
    sample.sampleTick = millis();
    33fe:	4798      	blx	r3
    3400:	6078      	str	r0, [r7, #4]
    sample.tickDelta = sample.sampleTick - lastTick;
    3402:	1b00      	subs	r0, r0, r4

    sample.voltage.batV = adc_read(senseBatPin);
    3404:	4ca6      	ldr	r4, [pc, #664]	; (36a0 <sampleTick+0x2b0>)
    SampleBool = false;

    // take last samples time to discover Dt before setting new time
    u32_t lastTick = sample.sampleTick;
    sample.sampleTick = millis();
    sample.tickDelta = sample.sampleTick - lastTick;
    3406:	8038      	strh	r0, [r7, #0]

    sample.voltage.batV = adc_read(senseBatPin);
    3408:	7863      	ldrb	r3, [r4, #1]
    340a:	7821      	ldrb	r1, [r4, #0]
    340c:	78a0      	ldrb	r0, [r4, #2]
    340e:	021b      	lsls	r3, r3, #8
    3410:	430b      	orrs	r3, r1
    3412:	0400      	lsls	r0, r0, #16
    3414:	001a      	movs	r2, r3
    3416:	0003      	movs	r3, r0
    3418:	78e0      	ldrb	r0, [r4, #3]
    341a:	4313      	orrs	r3, r2
    341c:	0600      	lsls	r0, r0, #24
    341e:	4ea1      	ldr	r6, [pc, #644]	; (36a4 <sampleTick+0x2b4>)
    3420:	7921      	ldrb	r1, [r4, #4]
    3422:	4318      	orrs	r0, r3
    3424:	47b0      	blx	r6

    sample.voltage.batFloat = sample.voltage.batV * 0.00259;
    3426:	4ba0      	ldr	r3, [pc, #640]	; (36a8 <sampleTick+0x2b8>)
    // take last samples time to discover Dt before setting new time
    u32_t lastTick = sample.sampleTick;
    sample.sampleTick = millis();
    sample.tickDelta = sample.sampleTick - lastTick;

    sample.voltage.batV = adc_read(senseBatPin);
    3428:	8138      	strh	r0, [r7, #8]

    sample.voltage.batFloat = sample.voltage.batV * 0.00259;
    342a:	4798      	blx	r3
    342c:	4a9f      	ldr	r2, [pc, #636]	; (36ac <sampleTick+0x2bc>)
    342e:	4da0      	ldr	r5, [pc, #640]	; (36b0 <sampleTick+0x2c0>)
    3430:	4ba0      	ldr	r3, [pc, #640]	; (36b4 <sampleTick+0x2c4>)
    3432:	47a8      	blx	r5
    3434:	4ba0      	ldr	r3, [pc, #640]	; (36b8 <sampleTick+0x2c8>)
    3436:	4798      	blx	r3

    sample.voltage.senseA = adc_read(senseAPin);
    3438:	79a3      	ldrb	r3, [r4, #6]
    343a:	7961      	ldrb	r1, [r4, #5]
    sample.sampleTick = millis();
    sample.tickDelta = sample.sampleTick - lastTick;

    sample.voltage.batV = adc_read(senseBatPin);

    sample.voltage.batFloat = sample.voltage.batV * 0.00259;
    343c:	60f8      	str	r0, [r7, #12]

    sample.voltage.senseA = adc_read(senseAPin);
    343e:	79e0      	ldrb	r0, [r4, #7]
    3440:	021b      	lsls	r3, r3, #8
    3442:	430b      	orrs	r3, r1
    3444:	0400      	lsls	r0, r0, #16
    3446:	001a      	movs	r2, r3
    3448:	0003      	movs	r3, r0
    344a:	7a20      	ldrb	r0, [r4, #8]
    344c:	4313      	orrs	r3, r2
    344e:	0600      	lsls	r0, r0, #24
    3450:	7a61      	ldrb	r1, [r4, #9]
    3452:	4318      	orrs	r0, r3
    3454:	47b0      	blx	r6
    sample.voltage.senseB = adc_read(senseBPin);
    3456:	7ae3      	ldrb	r3, [r4, #11]
    3458:	7aa1      	ldrb	r1, [r4, #10]

    sample.voltage.batV = adc_read(senseBatPin);

    sample.voltage.batFloat = sample.voltage.batV * 0.00259;

    sample.voltage.senseA = adc_read(senseAPin);
    345a:	8238      	strh	r0, [r7, #16]
    sample.voltage.senseB = adc_read(senseBPin);
    345c:	7b20      	ldrb	r0, [r4, #12]
    345e:	021b      	lsls	r3, r3, #8
    3460:	430b      	orrs	r3, r1
    3462:	0400      	lsls	r0, r0, #16
    3464:	001a      	movs	r2, r3
    3466:	0003      	movs	r3, r0
    3468:	7b60      	ldrb	r0, [r4, #13]
    346a:	4313      	orrs	r3, r2
    346c:	0600      	lsls	r0, r0, #24
    346e:	7ba1      	ldrb	r1, [r4, #14]
    3470:	4318      	orrs	r0, r3
    3472:	47b0      	blx	r6
    sample.voltage.senseC = adc_read(senseCPin);
    3474:	7c23      	ldrb	r3, [r4, #16]
    3476:	7be1      	ldrb	r1, [r4, #15]
    sample.voltage.batV = adc_read(senseBatPin);

    sample.voltage.batFloat = sample.voltage.batV * 0.00259;

    sample.voltage.senseA = adc_read(senseAPin);
    sample.voltage.senseB = adc_read(senseBPin);
    3478:	8278      	strh	r0, [r7, #18]
    sample.voltage.senseC = adc_read(senseCPin);
    347a:	7c60      	ldrb	r0, [r4, #17]
    347c:	021b      	lsls	r3, r3, #8
    347e:	430b      	orrs	r3, r1
    3480:	0400      	lsls	r0, r0, #16
    3482:	001a      	movs	r2, r3
    3484:	0003      	movs	r3, r0
    3486:	7ca0      	ldrb	r0, [r4, #18]
    3488:	4313      	orrs	r3, r2
    348a:	0600      	lsls	r0, r0, #24
    348c:	7ce1      	ldrb	r1, [r4, #19]
    348e:	4318      	orrs	r0, r3
    3490:	47b0      	blx	r6
    sample.voltage.senseD = adc_read(senseDPin);
    3492:	7d63      	ldrb	r3, [r4, #21]
    3494:	7d21      	ldrb	r1, [r4, #20]

    sample.voltage.batFloat = sample.voltage.batV * 0.00259;

    sample.voltage.senseA = adc_read(senseAPin);
    sample.voltage.senseB = adc_read(senseBPin);
    sample.voltage.senseC = adc_read(senseCPin);
    3496:	82b8      	strh	r0, [r7, #20]
    sample.voltage.senseD = adc_read(senseDPin);
    3498:	7da0      	ldrb	r0, [r4, #22]
    349a:	021b      	lsls	r3, r3, #8
    349c:	430b      	orrs	r3, r1
    349e:	0400      	lsls	r0, r0, #16
    34a0:	001a      	movs	r2, r3
    34a2:	0003      	movs	r3, r0
    34a4:	7de0      	ldrb	r0, [r4, #23]
    34a6:	4313      	orrs	r3, r2
    34a8:	0600      	lsls	r0, r0, #24
    34aa:	7e21      	ldrb	r1, [r4, #24]
    34ac:	4318      	orrs	r0, r3
    34ae:	47b0      	blx	r6


    ADC->CTRLB.reg |= ADC_CTRLB_RESSEL_16BIT;
    34b0:	2210      	movs	r2, #16
    34b2:	4d82      	ldr	r5, [pc, #520]	; (36bc <sampleTick+0x2cc>)
    sample.voltage.batFloat = sample.voltage.batV * 0.00259;

    sample.voltage.senseA = adc_read(senseAPin);
    sample.voltage.senseB = adc_read(senseBPin);
    sample.voltage.senseC = adc_read(senseCPin);
    sample.voltage.senseD = adc_read(senseDPin);
    34b4:	82f8      	strh	r0, [r7, #22]


    ADC->CTRLB.reg |= ADC_CTRLB_RESSEL_16BIT;
    34b6:	88ab      	ldrh	r3, [r5, #4]
    ADC->AVGCTRL.reg = ADC_AVGCTRL_SAMPLENUM_16;

    sample.analogRaw = adc_read(analogAccelPin);
    34b8:	7e61      	ldrb	r1, [r4, #25]
    sample.voltage.senseB = adc_read(senseBPin);
    sample.voltage.senseC = adc_read(senseCPin);
    sample.voltage.senseD = adc_read(senseDPin);


    ADC->CTRLB.reg |= ADC_CTRLB_RESSEL_16BIT;
    34ba:	4313      	orrs	r3, r2
    34bc:	80ab      	strh	r3, [r5, #4]
    ADC->AVGCTRL.reg = ADC_AVGCTRL_SAMPLENUM_16;
    34be:	2304      	movs	r3, #4
    34c0:	70ab      	strb	r3, [r5, #2]

    sample.analogRaw = adc_read(analogAccelPin);
    34c2:	7ea3      	ldrb	r3, [r4, #26]
    34c4:	7ee0      	ldrb	r0, [r4, #27]
    34c6:	021b      	lsls	r3, r3, #8
    34c8:	430b      	orrs	r3, r1
    34ca:	0400      	lsls	r0, r0, #16
    34cc:	4303      	orrs	r3, r0
    34ce:	7f20      	ldrb	r0, [r4, #28]
    34d0:	7f61      	ldrb	r1, [r4, #29]
    34d2:	0600      	lsls	r0, r0, #24
    34d4:	4318      	orrs	r0, r3
    34d6:	47b0      	blx	r6
    sample.analogAccel = (sample.analogRaw - 48695) * 0.00487;
    34d8:	4b79      	ldr	r3, [pc, #484]	; (36c0 <sampleTick+0x2d0>)


    ADC->CTRLB.reg |= ADC_CTRLB_RESSEL_16BIT;
    ADC->AVGCTRL.reg = ADC_AVGCTRL_SAMPLENUM_16;

    sample.analogRaw = adc_read(analogAccelPin);
    34da:	8338      	strh	r0, [r7, #24]
    sample.analogAccel = (sample.analogRaw - 48695) * 0.00487;
    34dc:	18c0      	adds	r0, r0, r3
    34de:	4b72      	ldr	r3, [pc, #456]	; (36a8 <sampleTick+0x2b8>)
    34e0:	4798      	blx	r3
    34e2:	4a78      	ldr	r2, [pc, #480]	; (36c4 <sampleTick+0x2d4>)
    34e4:	4c72      	ldr	r4, [pc, #456]	; (36b0 <sampleTick+0x2c0>)
    34e6:	4b78      	ldr	r3, [pc, #480]	; (36c8 <sampleTick+0x2d8>)
    34e8:	47a0      	blx	r4
    34ea:	4b73      	ldr	r3, [pc, #460]	; (36b8 <sampleTick+0x2c8>)
    34ec:	4798      	blx	r3



    ADC->AVGCTRL.reg = ADC_AVGCTRL_SAMPLENUM_1;
    34ee:	2300      	movs	r3, #0

    ADC->CTRLB.reg |= ADC_CTRLB_RESSEL_16BIT;
    ADC->AVGCTRL.reg = ADC_AVGCTRL_SAMPLENUM_16;

    sample.analogRaw = adc_read(analogAccelPin);
    sample.analogAccel = (sample.analogRaw - 48695) * 0.00487;
    34f0:	61f8      	str	r0, [r7, #28]



    ADC->AVGCTRL.reg = ADC_AVGCTRL_SAMPLENUM_1;
    34f2:	70ab      	strb	r3, [r5, #2]
    ADC->CTRLB.reg |= ADC_CTRLB_RESSEL_12BIT;
    34f4:	88ab      	ldrh	r3, [r5, #4]
    PORT->Group[p.group].OUTSET.reg = (1<<p.pin);
}


inline static void pinLow(Pin p) {
    PORT->Group[p.group].OUTCLR.reg = (1<<p.pin);
    34f6:	4e75      	ldr	r6, [pc, #468]	; (36cc <sampleTick+0x2dc>)
    34f8:	b29b      	uxth	r3, r3
    34fa:	80ab      	strh	r3, [r5, #4]
    34fc:	2580      	movs	r5, #128	; 0x80
    34fe:	01ed      	lsls	r5, r5, #7

    pinLow(cs_baro);
    spiDataOut(BARO_SPI, 0x50);
    3500:	2150      	movs	r1, #80	; 0x50
    3502:	4c73      	ldr	r4, [pc, #460]	; (36d0 <sampleTick+0x2e0>)
    3504:	6175      	str	r5, [r6, #20]
    3506:	2002      	movs	r0, #2
    3508:	47a0      	blx	r4
    pinHigh(cs_baro);
    delay_us(600);
    350a:	2096      	movs	r0, #150	; 0x96
	pinGpio(p);
    PORT->Group[p.group].PINCFG[p.pin].bit.DRVSTR = 1;
}

inline static void pinHigh(Pin p) {
    PORT->Group[p.group].OUTSET.reg = (1<<p.pin);
    350c:	61b5      	str	r5, [r6, #24]
    350e:	0080      	lsls	r0, r0, #2
    3510:	4b70      	ldr	r3, [pc, #448]	; (36d4 <sampleTick+0x2e4>)
    3512:	4798      	blx	r3
    uint32_t tempRaw = readMS5803AdcResults();
    3514:	4b70      	ldr	r3, [pc, #448]	; (36d8 <sampleTick+0x2e8>)
    3516:	4798      	blx	r3

    pinLow(cs_baro);
    spiDataOut(BARO_SPI, 0x40);
    3518:	2140      	movs	r1, #64	; 0x40

    pinLow(cs_baro);
    spiDataOut(BARO_SPI, 0x50);
    pinHigh(cs_baro);
    delay_us(600);
    uint32_t tempRaw = readMS5803AdcResults();
    351a:	9001      	str	r0, [sp, #4]
}


inline static void pinLow(Pin p) {
    PORT->Group[p.group].OUTCLR.reg = (1<<p.pin);
    351c:	6175      	str	r5, [r6, #20]

    pinLow(cs_baro);
    spiDataOut(BARO_SPI, 0x40);
    351e:	2002      	movs	r0, #2
    3520:	47a0      	blx	r4
    3522:	2280      	movs	r2, #128	; 0x80
    3524:	4b6d      	ldr	r3, [pc, #436]	; (36dc <sampleTick+0x2ec>)
    3526:	00d2      	lsls	r2, r2, #3

    u8_t byteOne;
    u8_t byteTwo;
// Accel data
    pinLow(cs_accel);
    spiDataOut(ACCEL_SPI, BMI055_X_ACC_LSB | BMI055_READ_REG);
    3528:	2182      	movs	r1, #130	; 0x82
	pinGpio(p);
    PORT->Group[p.group].PINCFG[p.pin].bit.DRVSTR = 1;
}

inline static void pinHigh(Pin p) {
    PORT->Group[p.group].OUTSET.reg = (1<<p.pin);
    352a:	61b5      	str	r5, [r6, #24]
    352c:	2000      	movs	r0, #0
}


inline static void pinLow(Pin p) {
    PORT->Group[p.group].OUTCLR.reg = (1<<p.pin);
    352e:	601a      	str	r2, [r3, #0]
    3530:	47a0      	blx	r4
    byteOne = spiDataIn(ACCEL_SPI);
    3532:	4d6b      	ldr	r5, [pc, #428]	; (36e0 <sampleTick+0x2f0>)
    3534:	2000      	movs	r0, #0
    3536:	47a8      	blx	r5
    3538:	0004      	movs	r4, r0
    byteTwo = spiDataIn(ACCEL_SPI);
    353a:	2000      	movs	r0, #0
    353c:	47a8      	blx	r5
    sample.accelXint = twosComp(byteOne,byteTwo);
    353e:	0200      	lsls	r0, r0, #8
    3540:	4304      	orrs	r4, r0
    byteOne = spiDataIn(ACCEL_SPI);
    3542:	2000      	movs	r0, #0
// Accel data
    pinLow(cs_accel);
    spiDataOut(ACCEL_SPI, BMI055_X_ACC_LSB | BMI055_READ_REG);
    byteOne = spiDataIn(ACCEL_SPI);
    byteTwo = spiDataIn(ACCEL_SPI);
    sample.accelXint = twosComp(byteOne,byteTwo);
    3544:	843c      	strh	r4, [r7, #32]
    byteOne = spiDataIn(ACCEL_SPI);
    3546:	47a8      	blx	r5
    3548:	0004      	movs	r4, r0
    byteTwo = spiDataIn(ACCEL_SPI);
    354a:	2000      	movs	r0, #0
    354c:	47a8      	blx	r5
    sample.accelYint = twosComp(byteOne,byteTwo);
    354e:	0200      	lsls	r0, r0, #8
    3550:	4304      	orrs	r4, r0
    byteOne = spiDataIn(ACCEL_SPI);
    3552:	2000      	movs	r0, #0
    byteOne = spiDataIn(ACCEL_SPI);
    byteTwo = spiDataIn(ACCEL_SPI);
    sample.accelXint = twosComp(byteOne,byteTwo);
    byteOne = spiDataIn(ACCEL_SPI);
    byteTwo = spiDataIn(ACCEL_SPI);
    sample.accelYint = twosComp(byteOne,byteTwo);
    3554:	853c      	strh	r4, [r7, #40]	; 0x28
    byteOne = spiDataIn(ACCEL_SPI);
    3556:	47a8      	blx	r5
    3558:	0004      	movs	r4, r0
    byteTwo = spiDataIn(ACCEL_SPI);
    355a:	2000      	movs	r0, #0
    355c:	47a8      	blx	r5
	pinGpio(p);
    PORT->Group[p.group].PINCFG[p.pin].bit.DRVSTR = 1;
}

inline static void pinHigh(Pin p) {
    PORT->Group[p.group].OUTSET.reg = (1<<p.pin);
    355e:	2280      	movs	r2, #128	; 0x80
    3560:	4b60      	ldr	r3, [pc, #384]	; (36e4 <sampleTick+0x2f4>)
    3562:	00d2      	lsls	r2, r2, #3
    3564:	601a      	str	r2, [r3, #0]
    sample.accelZint = twosComp(byteOne,byteTwo);
    pinHigh(cs_accel);

    if (altimeter.pointingUp) {
    3566:	4b60      	ldr	r3, [pc, #384]	; (36e8 <sampleTick+0x2f8>)
    sample.pressureAltitude = paToFeetNOAA(sample.pressureMbar);
}

int16_t twosComp(u8_t byteOne, u8_t byteTwo) {

    u16_t comp = byteOne | (byteTwo << 8);
    3568:	0200      	lsls	r0, r0, #8
    byteOne = spiDataIn(ACCEL_SPI);
    byteTwo = spiDataIn(ACCEL_SPI);
    sample.accelZint = twosComp(byteOne,byteTwo);
    pinHigh(cs_accel);

    if (altimeter.pointingUp) {
    356a:	795a      	ldrb	r2, [r3, #5]
    sample.pressureAltitude = paToFeetNOAA(sample.pressureMbar);
}

int16_t twosComp(u8_t byteOne, u8_t byteTwo) {

    u16_t comp = byteOne | (byteTwo << 8);
    356c:	4304      	orrs	r4, r0
    356e:	9600      	str	r6, [sp, #0]
    3570:	b224      	sxth	r4, r4
    3572:	003d      	movs	r5, r7
    3574:	2120      	movs	r1, #32
    3576:	5e7b      	ldrsh	r3, [r7, r1]
    byteOne = spiDataIn(ACCEL_SPI);
    byteTwo = spiDataIn(ACCEL_SPI);
    sample.accelZint = twosComp(byteOne,byteTwo);
    pinHigh(cs_accel);

    if (altimeter.pointingUp) {
    3578:	2a00      	cmp	r2, #0
    357a:	d000      	beq.n	357e <sampleTick+0x18e>
        sample.accelXint =  -sample.accelXint >> 4;
    357c:	425b      	negs	r3, r3
    } else {
        sample.accelXint =  sample.accelXint >> 4;
    357e:	111b      	asrs	r3, r3, #4
    3580:	842b      	strh	r3, [r5, #32]
    }
    sample.accelYint =  sample.accelYint >> 4;
    3582:	2328      	movs	r3, #40	; 0x28
    3584:	5eee      	ldrsh	r6, [r5, r3]
    sample.accelZint =  sample.accelZint >> 4;
    3586:	1124      	asrs	r4, r4, #4
    if (altimeter.pointingUp) {
        sample.accelXint =  -sample.accelXint >> 4;
    } else {
        sample.accelXint =  sample.accelXint >> 4;
    }
    sample.accelYint =  sample.accelYint >> 4;
    3588:	1136      	asrs	r6, r6, #4
    sample.accelZint =  sample.accelZint >> 4;

    sample.accelX = sample.accelXint * BMI055_ACCEL_16G_DIV;
    358a:	2320      	movs	r3, #32
    358c:	5ee8      	ldrsh	r0, [r5, r3]
    if (altimeter.pointingUp) {
        sample.accelXint =  -sample.accelXint >> 4;
    } else {
        sample.accelXint =  sample.accelXint >> 4;
    }
    sample.accelYint =  sample.accelYint >> 4;
    358e:	852e      	strh	r6, [r5, #40]	; 0x28
    sample.accelZint =  sample.accelZint >> 4;
    3590:	862c      	strh	r4, [r5, #48]	; 0x30

    sample.accelX = sample.accelXint * BMI055_ACCEL_16G_DIV;
    3592:	4b45      	ldr	r3, [pc, #276]	; (36a8 <sampleTick+0x2b8>)
    3594:	4798      	blx	r3
    3596:	23fe      	movs	r3, #254	; 0xfe
    3598:	2200      	movs	r2, #0
    359a:	059b      	lsls	r3, r3, #22
    359c:	4f44      	ldr	r7, [pc, #272]	; (36b0 <sampleTick+0x2c0>)
    359e:	47b8      	blx	r7
    35a0:	4f45      	ldr	r7, [pc, #276]	; (36b8 <sampleTick+0x2c8>)
    35a2:	47b8      	blx	r7
    sample.accelY = sample.accelYint * BMI055_ACCEL_16G_DIV;
    35a4:	4b40      	ldr	r3, [pc, #256]	; (36a8 <sampleTick+0x2b8>)
        sample.accelXint =  sample.accelXint >> 4;
    }
    sample.accelYint =  sample.accelYint >> 4;
    sample.accelZint =  sample.accelZint >> 4;

    sample.accelX = sample.accelXint * BMI055_ACCEL_16G_DIV;
    35a6:	6268      	str	r0, [r5, #36]	; 0x24
    sample.accelY = sample.accelYint * BMI055_ACCEL_16G_DIV;
    35a8:	0030      	movs	r0, r6
    35aa:	4798      	blx	r3
    35ac:	23fe      	movs	r3, #254	; 0xfe
    35ae:	2200      	movs	r2, #0
    35b0:	4e3f      	ldr	r6, [pc, #252]	; (36b0 <sampleTick+0x2c0>)
    35b2:	059b      	lsls	r3, r3, #22
    35b4:	47b0      	blx	r6
    35b6:	47b8      	blx	r7
    sample.accelZ = sample.accelZint * BMI055_ACCEL_16G_DIV;
    35b8:	4b3b      	ldr	r3, [pc, #236]	; (36a8 <sampleTick+0x2b8>)
    }
    sample.accelYint =  sample.accelYint >> 4;
    sample.accelZint =  sample.accelZint >> 4;

    sample.accelX = sample.accelXint * BMI055_ACCEL_16G_DIV;
    sample.accelY = sample.accelYint * BMI055_ACCEL_16G_DIV;
    35ba:	62e8      	str	r0, [r5, #44]	; 0x2c
    sample.accelZ = sample.accelZint * BMI055_ACCEL_16G_DIV;
    35bc:	0020      	movs	r0, r4
    35be:	4798      	blx	r3
    35c0:	23fe      	movs	r3, #254	; 0xfe
    35c2:	2200      	movs	r2, #0
    35c4:	059b      	lsls	r3, r3, #22
    35c6:	47b0      	blx	r6
    35c8:	47b8      	blx	r7
}


inline static void pinLow(Pin p) {
    PORT->Group[p.group].OUTCLR.reg = (1<<p.pin);
    35ca:	2280      	movs	r2, #128	; 0x80
    35cc:	9b00      	ldr	r3, [sp, #0]
    35ce:	00d2      	lsls	r2, r2, #3

    // Gyro data
    pinLow(cs_gyro);
    spiDataOut(GYRO_SPI, BMI055_X_GYRO_LSB | BMI055_READ_REG);
    35d0:	2182      	movs	r1, #130	; 0x82
    sample.accelYint =  sample.accelYint >> 4;
    sample.accelZint =  sample.accelZint >> 4;

    sample.accelX = sample.accelXint * BMI055_ACCEL_16G_DIV;
    sample.accelY = sample.accelYint * BMI055_ACCEL_16G_DIV;
    sample.accelZ = sample.accelZint * BMI055_ACCEL_16G_DIV;
    35d2:	6368      	str	r0, [r5, #52]	; 0x34
    35d4:	615a      	str	r2, [r3, #20]

    // Gyro data
    pinLow(cs_gyro);
    spiDataOut(GYRO_SPI, BMI055_X_GYRO_LSB | BMI055_READ_REG);
    35d6:	2000      	movs	r0, #0
    35d8:	4b3d      	ldr	r3, [pc, #244]	; (36d0 <sampleTick+0x2e0>)
    35da:	4798      	blx	r3
    byteOne = spiDataIn(GYRO_SPI);
    35dc:	4e40      	ldr	r6, [pc, #256]	; (36e0 <sampleTick+0x2f0>)
    35de:	2000      	movs	r0, #0
    35e0:	47b0      	blx	r6
    35e2:	0004      	movs	r4, r0
    byteTwo = spiDataIn(GYRO_SPI);
    35e4:	2000      	movs	r0, #0
    35e6:	47b0      	blx	r6
    sample.gyroXint = twosComp(byteOne,byteTwo);
    35e8:	0200      	lsls	r0, r0, #8
    35ea:	4304      	orrs	r4, r0
    byteOne = spiDataIn(GYRO_SPI);
    35ec:	2000      	movs	r0, #0
    // Gyro data
    pinLow(cs_gyro);
    spiDataOut(GYRO_SPI, BMI055_X_GYRO_LSB | BMI055_READ_REG);
    byteOne = spiDataIn(GYRO_SPI);
    byteTwo = spiDataIn(GYRO_SPI);
    sample.gyroXint = twosComp(byteOne,byteTwo);
    35ee:	872c      	strh	r4, [r5, #56]	; 0x38
    byteOne = spiDataIn(GYRO_SPI);
    35f0:	47b0      	blx	r6
    35f2:	0004      	movs	r4, r0
    byteTwo = spiDataIn(GYRO_SPI);
    35f4:	2000      	movs	r0, #0
    35f6:	47b0      	blx	r6
    sample.gyroYint = twosComp(byteOne,byteTwo);
    35f8:	4b3c      	ldr	r3, [pc, #240]	; (36ec <sampleTick+0x2fc>)
    35fa:	0200      	lsls	r0, r0, #8
    35fc:	4304      	orrs	r4, r0
    byteOne = spiDataIn(GYRO_SPI);
    35fe:	2000      	movs	r0, #0
    byteOne = spiDataIn(GYRO_SPI);
    byteTwo = spiDataIn(GYRO_SPI);
    sample.gyroXint = twosComp(byteOne,byteTwo);
    byteOne = spiDataIn(GYRO_SPI);
    byteTwo = spiDataIn(GYRO_SPI);
    sample.gyroYint = twosComp(byteOne,byteTwo);
    3600:	87dc      	strh	r4, [r3, #62]	; 0x3e
    byteOne = spiDataIn(GYRO_SPI);
    3602:	47b0      	blx	r6
    3604:	0004      	movs	r4, r0
    byteTwo = spiDataIn(GYRO_SPI);
    3606:	2000      	movs	r0, #0
    3608:	47b0      	blx	r6
	pinGpio(p);
    PORT->Group[p.group].PINCFG[p.pin].bit.DRVSTR = 1;
}

inline static void pinHigh(Pin p) {
    PORT->Group[p.group].OUTSET.reg = (1<<p.pin);
    360a:	2180      	movs	r1, #128	; 0x80
    360c:	0003      	movs	r3, r0
    360e:	9a00      	ldr	r2, [sp, #0]
    3610:	00c9      	lsls	r1, r1, #3
    3612:	6191      	str	r1, [r2, #24]
    sample.gyroZint = twosComp(byteOne,byteTwo);
    pinHigh(cs_gyro);

    sample.gyroXint = sample.gyroXint >> 4;
    3614:	2238      	movs	r2, #56	; 0x38
    3616:	5ea8      	ldrsh	r0, [r5, r2]
    sample.gyroYint = sample.gyroYint >> 4;
    3618:	4a34      	ldr	r2, [pc, #208]	; (36ec <sampleTick+0x2fc>)
    byteOne = spiDataIn(GYRO_SPI);
    byteTwo = spiDataIn(GYRO_SPI);
    sample.gyroZint = twosComp(byteOne,byteTwo);
    pinHigh(cs_gyro);

    sample.gyroXint = sample.gyroXint >> 4;
    361a:	1100      	asrs	r0, r0, #4
    361c:	8728      	strh	r0, [r5, #56]	; 0x38
    sample.gyroYint = sample.gyroYint >> 4;
    361e:	263e      	movs	r6, #62	; 0x3e
    3620:	5f96      	ldrsh	r6, [r2, r6]
    sample.gyroZint = sample.gyroZint >> 4;
    3622:	021b      	lsls	r3, r3, #8
    byteTwo = spiDataIn(GYRO_SPI);
    sample.gyroZint = twosComp(byteOne,byteTwo);
    pinHigh(cs_gyro);

    sample.gyroXint = sample.gyroXint >> 4;
    sample.gyroYint = sample.gyroYint >> 4;
    3624:	4a31      	ldr	r2, [pc, #196]	; (36ec <sampleTick+0x2fc>)
    sample.gyroZint = sample.gyroZint >> 4;
    3626:	431c      	orrs	r4, r3
    byteTwo = spiDataIn(GYRO_SPI);
    sample.gyroZint = twosComp(byteOne,byteTwo);
    pinHigh(cs_gyro);

    sample.gyroXint = sample.gyroXint >> 4;
    sample.gyroYint = sample.gyroYint >> 4;
    3628:	1136      	asrs	r6, r6, #4
    sample.gyroZint = sample.gyroZint >> 4;
    362a:	b224      	sxth	r4, r4
    byteTwo = spiDataIn(GYRO_SPI);
    sample.gyroZint = twosComp(byteOne,byteTwo);
    pinHigh(cs_gyro);

    sample.gyroXint = sample.gyroXint >> 4;
    sample.gyroYint = sample.gyroYint >> 4;
    362c:	87d6      	strh	r6, [r2, #62]	; 0x3e
    sample.gyroZint = sample.gyroZint >> 4;
    362e:	1123      	asrs	r3, r4, #4
    3630:	466a      	mov	r2, sp
    3632:	9300      	str	r3, [sp, #0]
    3634:	002b      	movs	r3, r5
    3636:	8812      	ldrh	r2, [r2, #0]
    3638:	3348      	adds	r3, #72	; 0x48
    363a:	801a      	strh	r2, [r3, #0]

    sample.gyroX =  sample.gyroXint * BMI055_GYRO_2000DS_DIV;
    363c:	4b1a      	ldr	r3, [pc, #104]	; (36a8 <sampleTick+0x2b8>)
    363e:	4798      	blx	r3
    3640:	23fe      	movs	r3, #254	; 0xfe
    3642:	4c1b      	ldr	r4, [pc, #108]	; (36b0 <sampleTick+0x2c0>)
    3644:	2200      	movs	r2, #0
    3646:	059b      	lsls	r3, r3, #22
    3648:	47a0      	blx	r4
    364a:	47b8      	blx	r7
    sample.gyroY =  sample.gyroYint * BMI055_GYRO_2000DS_DIV;
    364c:	4b16      	ldr	r3, [pc, #88]	; (36a8 <sampleTick+0x2b8>)

    sample.gyroXint = sample.gyroXint >> 4;
    sample.gyroYint = sample.gyroYint >> 4;
    sample.gyroZint = sample.gyroZint >> 4;

    sample.gyroX =  sample.gyroXint * BMI055_GYRO_2000DS_DIV;
    364e:	63e8      	str	r0, [r5, #60]	; 0x3c
    sample.gyroY =  sample.gyroYint * BMI055_GYRO_2000DS_DIV;
    3650:	0030      	movs	r0, r6
    3652:	4798      	blx	r3
    3654:	23fe      	movs	r3, #254	; 0xfe
    3656:	2200      	movs	r2, #0
    3658:	059b      	lsls	r3, r3, #22
    365a:	47a0      	blx	r4
    365c:	47b8      	blx	r7
    sample.gyroZ =  sample.gyroZint * BMI055_GYRO_2000DS_DIV;
    365e:	4b12      	ldr	r3, [pc, #72]	; (36a8 <sampleTick+0x2b8>)
    sample.gyroXint = sample.gyroXint >> 4;
    sample.gyroYint = sample.gyroYint >> 4;
    sample.gyroZint = sample.gyroZint >> 4;

    sample.gyroX =  sample.gyroXint * BMI055_GYRO_2000DS_DIV;
    sample.gyroY =  sample.gyroYint * BMI055_GYRO_2000DS_DIV;
    3660:	6468      	str	r0, [r5, #68]	; 0x44
    sample.gyroZ =  sample.gyroZint * BMI055_GYRO_2000DS_DIV;
    3662:	9800      	ldr	r0, [sp, #0]
    3664:	4798      	blx	r3
    3666:	23fe      	movs	r3, #254	; 0xfe
    3668:	2200      	movs	r2, #0
    366a:	059b      	lsls	r3, r3, #22
    366c:	47a0      	blx	r4
    366e:	47b8      	blx	r7
    3670:	64e8      	str	r0, [r5, #76]	; 0x4c


    delay_us(400);
    3672:	20c8      	movs	r0, #200	; 0xc8
    3674:	4b17      	ldr	r3, [pc, #92]	; (36d4 <sampleTick+0x2e4>)
    3676:	0040      	lsls	r0, r0, #1
    3678:	4798      	blx	r3
    u32_t PressureRaw = readMS5803AdcResults();
    367a:	4b17      	ldr	r3, [pc, #92]	; (36d8 <sampleTick+0x2e8>)
    367c:	4798      	blx	r3
    ConvertPressureTemperature(PressureRaw, tempRaw, &sample.temperatureCelcus, &sample.pressureMbar);
    367e:	4a1c      	ldr	r2, [pc, #112]	; (36f0 <sampleTick+0x300>)
    3680:	9901      	ldr	r1, [sp, #4]
    3682:	4b1c      	ldr	r3, [pc, #112]	; (36f4 <sampleTick+0x304>)
    3684:	4c1c      	ldr	r4, [pc, #112]	; (36f8 <sampleTick+0x308>)
    3686:	47a0      	blx	r4
    sample.pressureAltitude = paToFeetNOAA(sample.pressureMbar);
    3688:	6d28      	ldr	r0, [r5, #80]	; 0x50
    368a:	4b1c      	ldr	r3, [pc, #112]	; (36fc <sampleTick+0x30c>)
    368c:	4798      	blx	r3
    368e:	65a8      	str	r0, [r5, #88]	; 0x58
    3690:	65e9      	str	r1, [r5, #92]	; 0x5c
}
    3692:	bdf7      	pop	{r0, r1, r2, r4, r5, r6, r7, pc}
    3694:	200001ad 	.word	0x200001ad
    3698:	200005f0 	.word	0x200005f0
    369c:	00001199 	.word	0x00001199
    36a0:	00007220 	.word	0x00007220
    36a4:	00000de1 	.word	0x00000de1
    36a8:	00006ed9 	.word	0x00006ed9
    36ac:	a97e132b 	.word	0xa97e132b
    36b0:	00006291 	.word	0x00006291
    36b4:	3f65379f 	.word	0x3f65379f
    36b8:	00007075 	.word	0x00007075
    36bc:	42004000 	.word	0x42004000
    36c0:	ffff41c9 	.word	0xffff41c9
    36c4:	abb44e51 	.word	0xabb44e51
    36c8:	3f73f290 	.word	0x3f73f290
    36cc:	41004400 	.word	0x41004400
    36d0:	00003829 	.word	0x00003829
    36d4:	00001119 	.word	0x00001119
    36d8:	000003b5 	.word	0x000003b5
    36dc:	41004494 	.word	0x41004494
    36e0:	00003841 	.word	0x00003841
    36e4:	41004498 	.word	0x41004498
    36e8:	200001a0 	.word	0x200001a0
    36ec:	200005f2 	.word	0x200005f2
    36f0:	20000644 	.word	0x20000644
    36f4:	20000640 	.word	0x20000640
    36f8:	000003f5 	.word	0x000003f5
    36fc:	00000495 	.word	0x00000495

00003700 <sercomClockEnable>:
#include <util.h>

void sercomClockEnable(SercomId id, uint32_t clock_channel, u8_t divider) {
    3700:	b570      	push	{r4, r5, r6, lr}
    3702:	0004      	movs	r4, r0
    // prevent this clock write from changing any other clocks
    PM->APBCMASK.reg |= 1 << (PM_APBCMASK_SERCOM0_Pos + id);
    3704:	2301      	movs	r3, #1
    3706:	1ca6      	adds	r6, r4, #2
    3708:	40b3      	lsls	r3, r6
    370a:	480d      	ldr	r0, [pc, #52]	; (3740 <sercomClockEnable+0x40>)
#include <util.h>

void sercomClockEnable(SercomId id, uint32_t clock_channel, u8_t divider) {
    370c:	000d      	movs	r5, r1
    // prevent this clock write from changing any other clocks
    PM->APBCMASK.reg |= 1 << (PM_APBCMASK_SERCOM0_Pos + id);
    370e:	6a01      	ldr	r1, [r0, #32]
    3710:	430b      	orrs	r3, r1
    3712:	6203      	str	r3, [r0, #32]


    if (clock_channel != 0) {
    3714:	2d00      	cmp	r5, #0
    3716:	d003      	beq.n	3720 <sercomClockEnable+0x20>
        // clock generators 3-8 have 8 division factor bits - DIV[7:0]
        gclkEnable(clock_channel, GCLK_SOURCE_DFLL48M, divider);
    3718:	2107      	movs	r1, #7
    371a:	0028      	movs	r0, r5
    371c:	4b09      	ldr	r3, [pc, #36]	; (3744 <sercomClockEnable+0x44>)
    371e:	4798      	blx	r3
    }


    // attach clock
    GCLK->CLKCTRL.reg = GCLK_CLKCTRL_CLKEN |
    3720:	22f0      	movs	r2, #240	; 0xf0
    3722:	2080      	movs	r0, #128	; 0x80
    3724:	0229      	lsls	r1, r5, #8
    3726:	0112      	lsls	r2, r2, #4
    3728:	4011      	ands	r1, r2
    372a:	01c0      	lsls	r0, r0, #7
    372c:	4301      	orrs	r1, r0
    372e:	0020      	movs	r0, r4
    3730:	3014      	adds	r0, #20
    3732:	223f      	movs	r2, #63	; 0x3f
    3734:	0003      	movs	r3, r0
    3736:	4013      	ands	r3, r2
    3738:	4319      	orrs	r1, r3
    373a:	4b03      	ldr	r3, [pc, #12]	; (3748 <sercomClockEnable+0x48>)
    373c:	8059      	strh	r1, [r3, #2]
                        GCLK_CLKCTRL_GEN(clock_channel) |
                        GCLK_CLKCTRL_ID(SERCOM0_GCLK_ID_CORE + id);
}
    373e:	bd70      	pop	{r4, r5, r6, pc}
    3740:	40000400 	.word	0x40000400
    3744:	00001049 	.word	0x00001049
    3748:	40000c00 	.word	0x40000c00

0000374c <sercomReset>:
void computeKalmanStates();



inline static Sercom* sercom(SercomId id) {
    return (Sercom*) (0x42000800U + id * 1024);
    374c:	4b04      	ldr	r3, [pc, #16]	; (3760 <sercomReset+0x14>)
    374e:	0280      	lsls	r0, r0, #10
    3750:	18c0      	adds	r0, r0, r3
//                         GCLK_CLKCTRL_ID(SERCOM0_GCLK_ID_CORE + id);
}


void sercomReset(SercomId id) {
    sercom(id)->SPI.CTRLA.reg = SERCOM_SPI_CTRLA_SWRST;
    3752:	2301      	movs	r3, #1
    3754:	6003      	str	r3, [r0, #0]
    while(sercom(id)->SPI.CTRLA.reg & SERCOM_SPI_CTRLA_SWRST);
    3756:	6802      	ldr	r2, [r0, #0]
    3758:	421a      	tst	r2, r3
    375a:	d1fc      	bne.n	3756 <sercomReset+0xa>
}
    375c:	4770      	bx	lr
    375e:	46c0      	nop			; (mov r8, r8)
    3760:	42000800 	.word	0x42000800

00003764 <sercomSpiMasterInit>:
          | (cpol ? SERCOM_SPI_CTRLA_CPOL : 0)
          | (cpha ? SERCOM_SPI_CTRLA_CPHA : 0);
}


void sercomSpiMasterInit(SercomId id, u32_t dipo, u32_t dopo, bool cpol, bool cpha, u8_t baud) {
    3764:	b5f7      	push	{r0, r1, r2, r4, r5, r6, r7, lr}
    3766:	0004      	movs	r4, r0
    3768:	9300      	str	r3, [sp, #0]
    376a:	ab08      	add	r3, sp, #32
    376c:	781b      	ldrb	r3, [r3, #0]
    376e:	000e      	movs	r6, r1
    3770:	9301      	str	r3, [sp, #4]
    3772:	ab09      	add	r3, sp, #36	; 0x24
    3774:	781f      	ldrb	r7, [r3, #0]

    sercomReset(id);
    3776:	4b12      	ldr	r3, [pc, #72]	; (37c0 <sercomSpiMasterInit+0x5c>)
          | (cpol ? SERCOM_SPI_CTRLA_CPOL : 0)
          | (cpha ? SERCOM_SPI_CTRLA_CPHA : 0);
}


void sercomSpiMasterInit(SercomId id, u32_t dipo, u32_t dopo, bool cpol, bool cpha, u8_t baud) {
    3778:	0015      	movs	r5, r2

    sercomReset(id);
    377a:	4798      	blx	r3
    377c:	4b11      	ldr	r3, [pc, #68]	; (37c4 <sercomSpiMasterInit+0x60>)
    377e:	02a4      	lsls	r4, r4, #10
    3780:	18e4      	adds	r4, r4, r3

    sercom(id)->SPI.CTRLB.reg
        = SERCOM_SPI_CTRLB_RXEN;
    3782:	2380      	movs	r3, #128	; 0x80
    3784:	029b      	lsls	r3, r3, #10
    3786:	6063      	str	r3, [r4, #4]
    3788:	23c0      	movs	r3, #192	; 0xc0
    sercom(id)->SPI.BAUD.reg = baud;

    sercom(id)->SPI.CTRLA.reg
        = SERCOM_SPI_CTRLA_ENABLE
          | SERCOM_SPI_CTRLA_MODE_SPI_MASTER
          | SERCOM_SPI_CTRLA_DIPO(dipo)
    378a:	21c0      	movs	r1, #192	; 0xc0
    378c:	042d      	lsls	r5, r5, #16
    378e:	029b      	lsls	r3, r3, #10
    3790:	402b      	ands	r3, r5
    3792:	250e      	movs	r5, #14
    3794:	0536      	lsls	r6, r6, #20
    3796:	0389      	lsls	r1, r1, #14
    3798:	4031      	ands	r1, r6
          | SERCOM_SPI_CTRLA_DOPO(dopo)
          | (cpol ? SERCOM_SPI_CTRLA_CPOL : 0)
    379a:	9e00      	ldr	r6, [sp, #0]
    379c:	431d      	orrs	r5, r3
    379e:	1e73      	subs	r3, r6, #1
    37a0:	419e      	sbcs	r6, r3
          | (cpha ? SERCOM_SPI_CTRLA_CPHA : 0);
    37a2:	9b01      	ldr	r3, [sp, #4]
    sercom(id)->SPI.CTRLA.reg
        = SERCOM_SPI_CTRLA_ENABLE
          | SERCOM_SPI_CTRLA_MODE_SPI_MASTER
          | SERCOM_SPI_CTRLA_DIPO(dipo)
          | SERCOM_SPI_CTRLA_DOPO(dopo)
          | (cpol ? SERCOM_SPI_CTRLA_CPOL : 0)
    37a4:	0772      	lsls	r2, r6, #29
    37a6:	430d      	orrs	r5, r1
          | (cpha ? SERCOM_SPI_CTRLA_CPHA : 0);
    37a8:	432a      	orrs	r2, r5
    37aa:	1e59      	subs	r1, r3, #1
    37ac:	418b      	sbcs	r3, r1
    37ae:	0016      	movs	r6, r2
    37b0:	071b      	lsls	r3, r3, #28
    37b2:	431e      	orrs	r6, r3
    sercomReset(id);

    sercom(id)->SPI.CTRLB.reg
        = SERCOM_SPI_CTRLB_RXEN;

    sercom(id)->SPI.BAUD.reg = baud;
    37b4:	7327      	strb	r7, [r4, #12]

    sercom(id)->SPI.CTRLA.reg
        = SERCOM_SPI_CTRLA_ENABLE
    37b6:	6026      	str	r6, [r4, #0]
        };
    }
}

static inline void SPI_sync(SercomId id) {
    while  (sercom(id)->SPI.SYNCBUSY.bit.CTRLB);
    37b8:	69e3      	ldr	r3, [r4, #28]
    37ba:	075b      	lsls	r3, r3, #29
    37bc:	d4fc      	bmi.n	37b8 <sercomSpiMasterInit+0x54>
          | SERCOM_SPI_CTRLA_DOPO(dopo)
          | (cpol ? SERCOM_SPI_CTRLA_CPOL : 0)
          | (cpha ? SERCOM_SPI_CTRLA_CPHA : 0);

    SPI_sync(id);
}
    37be:	bdf7      	pop	{r0, r1, r2, r4, r5, r6, r7, pc}
    37c0:	0000374d 	.word	0x0000374d
    37c4:	42000800 	.word	0x42000800

000037c8 <sercomUartInit>:




void sercomUartInit(SercomId id, u32_t rxpo, u32_t txpo, int32_t fBAUD) {
    37c8:	b570      	push	{r4, r5, r6, lr}
    37ca:	0006      	movs	r6, r0

    //float BAUD = 65536*(1-(16*(115200/(48000000/8))));


    sercomReset(id);
    37cc:	4b0c      	ldr	r3, [pc, #48]	; (3800 <sercomUartInit+0x38>)
}




void sercomUartInit(SercomId id, u32_t rxpo, u32_t txpo, int32_t fBAUD) {
    37ce:	000d      	movs	r5, r1
    37d0:	0014      	movs	r4, r2

    //float BAUD = 65536*(1-(16*(115200/(48000000/8))));


    sercomReset(id);
    37d2:	4798      	blx	r3
void computeKalmanStates();



inline static Sercom* sercom(SercomId id) {
    return (Sercom*) (0x42000800U + id * 1024);
    37d4:	4b0b      	ldr	r3, [pc, #44]	; (3804 <sercomUartInit+0x3c>)
    37d6:	02b0      	lsls	r0, r6, #10
    37d8:	18c0      	adds	r0, r0, r3
    sercom(id)->USART.CTRLA.reg = SERCOM_USART_CTRLA_MODE_USART_INT_CLK;
    37da:	2304      	movs	r3, #4
    sercom(id)->USART.CTRLA.reg
        = SERCOM_USART_CTRLA_ENABLE
          | SERCOM_USART_CTRLA_MODE_USART_INT_CLK
          | SERCOM_SPI_CTRLA_DORD
          | SERCOM_USART_CTRLA_TXPO(txpo)
          | SERCOM_USART_CTRLA_RXPO(rxpo);
    37dc:	22c0      	movs	r2, #192	; 0xc0

    //float BAUD = 65536*(1-(16*(115200/(48000000/8))));


    sercomReset(id);
    sercom(id)->USART.CTRLA.reg = SERCOM_USART_CTRLA_MODE_USART_INT_CLK;
    37de:	6003      	str	r3, [r0, #0]
    sercom(id)->USART.BAUD.reg = 45403;
    37e0:	4b09      	ldr	r3, [pc, #36]	; (3808 <sercomUartInit+0x40>)
    sercom(id)->USART.CTRLA.reg
        = SERCOM_USART_CTRLA_ENABLE
          | SERCOM_USART_CTRLA_MODE_USART_INT_CLK
          | SERCOM_SPI_CTRLA_DORD
          | SERCOM_USART_CTRLA_TXPO(txpo)
          | SERCOM_USART_CTRLA_RXPO(rxpo);
    37e2:	0529      	lsls	r1, r5, #20
    //float BAUD = 65536*(1-(16*(115200/(48000000/8))));


    sercomReset(id);
    sercom(id)->USART.CTRLA.reg = SERCOM_USART_CTRLA_MODE_USART_INT_CLK;
    sercom(id)->USART.BAUD.reg = 45403;
    37e4:	8183      	strh	r3, [r0, #12]
    sercom(id)->USART.CTRLB.reg
        = SERCOM_USART_CTRLB_RXEN
    37e6:	23c0      	movs	r3, #192	; 0xc0
    sercom(id)->USART.CTRLA.reg
        = SERCOM_USART_CTRLA_ENABLE
          | SERCOM_USART_CTRLA_MODE_USART_INT_CLK
          | SERCOM_SPI_CTRLA_DORD
          | SERCOM_USART_CTRLA_TXPO(txpo)
          | SERCOM_USART_CTRLA_RXPO(rxpo);
    37e8:	0392      	lsls	r2, r2, #14
    37ea:	4011      	ands	r1, r2
    37ec:	4a07      	ldr	r2, [pc, #28]	; (380c <sercomUartInit+0x44>)

    sercomReset(id);
    sercom(id)->USART.CTRLA.reg = SERCOM_USART_CTRLA_MODE_USART_INT_CLK;
    sercom(id)->USART.BAUD.reg = 45403;
    sercom(id)->USART.CTRLB.reg
        = SERCOM_USART_CTRLB_RXEN
    37ee:	029b      	lsls	r3, r3, #10
    sercom(id)->USART.CTRLA.reg
        = SERCOM_USART_CTRLA_ENABLE
          | SERCOM_USART_CTRLA_MODE_USART_INT_CLK
          | SERCOM_SPI_CTRLA_DORD
          | SERCOM_USART_CTRLA_TXPO(txpo)
          | SERCOM_USART_CTRLA_RXPO(rxpo);
    37f0:	0424      	lsls	r4, r4, #16

    sercomReset(id);
    sercom(id)->USART.CTRLA.reg = SERCOM_USART_CTRLA_MODE_USART_INT_CLK;
    sercom(id)->USART.BAUD.reg = 45403;
    sercom(id)->USART.CTRLB.reg
        = SERCOM_USART_CTRLB_RXEN
    37f2:	6043      	str	r3, [r0, #4]
    sercom(id)->USART.CTRLA.reg
        = SERCOM_USART_CTRLA_ENABLE
          | SERCOM_USART_CTRLA_MODE_USART_INT_CLK
          | SERCOM_SPI_CTRLA_DORD
          | SERCOM_USART_CTRLA_TXPO(txpo)
          | SERCOM_USART_CTRLA_RXPO(rxpo);
    37f4:	4311      	orrs	r1, r2
    37f6:	4023      	ands	r3, r4
    37f8:	430b      	orrs	r3, r1
    sercom(id)->USART.BAUD.reg = 45403;
    sercom(id)->USART.CTRLB.reg
        = SERCOM_USART_CTRLB_RXEN
          | SERCOM_USART_CTRLB_TXEN;
    sercom(id)->USART.CTRLA.reg
        = SERCOM_USART_CTRLA_ENABLE
    37fa:	6003      	str	r3, [r0, #0]
          | SERCOM_USART_CTRLA_MODE_USART_INT_CLK
          | SERCOM_SPI_CTRLA_DORD
          | SERCOM_USART_CTRLA_TXPO(txpo)
          | SERCOM_USART_CTRLA_RXPO(rxpo);
}
    37fc:	bd70      	pop	{r4, r5, r6, pc}
    37fe:	46c0      	nop			; (mov r8, r8)
    3800:	0000374d 	.word	0x0000374d
    3804:	42000800 	.word	0x42000800
    3808:	ffffb15b 	.word	0xffffb15b
    380c:	40000006 	.word	0x40000006

00003810 <spiDataTransfer>:
    3810:	4b04      	ldr	r3, [pc, #16]	; (3824 <spiDataTransfer+0x14>)
    3812:	0280      	lsls	r0, r0, #10
    3814:	18c0      	adds	r0, r0, r3

u8_t spiDataTransfer(SercomId id, u8_t data) {
    sercom(id)->SPI.DATA.reg = data;
    3816:	6281      	str	r1, [r0, #40]	; 0x28
    while(sercom(id)->SPI.INTFLAG.bit.RXC == 0);
    3818:	7e03      	ldrb	r3, [r0, #24]
    381a:	075b      	lsls	r3, r3, #29
    381c:	d5fc      	bpl.n	3818 <spiDataTransfer+0x8>
    return sercom(id)->SPI.DATA.reg;
    381e:	6a80      	ldr	r0, [r0, #40]	; 0x28
    3820:	b2c0      	uxtb	r0, r0
}
    3822:	4770      	bx	lr
    3824:	42000800 	.word	0x42000800

00003828 <spiDataOut>:
    3828:	4b04      	ldr	r3, [pc, #16]	; (383c <spiDataOut+0x14>)
    382a:	0280      	lsls	r0, r0, #10
    382c:	18c0      	adds	r0, r0, r3

void spiDataOut(SercomId id, u8_t data) {
    sercom(id)->SPI.DATA.reg = data;
    382e:	6281      	str	r1, [r0, #40]	; 0x28
    while(sercom(id)->SPI.INTFLAG.bit.RXC == 0);
    3830:	7e03      	ldrb	r3, [r0, #24]
    3832:	075b      	lsls	r3, r3, #29
    3834:	d5fc      	bpl.n	3830 <spiDataOut+0x8>
    u8_t dummy = sercom(id)->SPI.DATA.reg;
    3836:	6a83      	ldr	r3, [r0, #40]	; 0x28
}
    3838:	4770      	bx	lr
    383a:	46c0      	nop			; (mov r8, r8)
    383c:	42000800 	.word	0x42000800

00003840 <spiDataIn>:
    3840:	4b05      	ldr	r3, [pc, #20]	; (3858 <spiDataIn+0x18>)
    3842:	0280      	lsls	r0, r0, #10
    3844:	18c0      	adds	r0, r0, r3

u8_t spiDataIn(SercomId id) {
    sercom(id)->SPI.DATA.reg = 0xFF;
    3846:	23ff      	movs	r3, #255	; 0xff
    3848:	6283      	str	r3, [r0, #40]	; 0x28
    while(sercom(id)->SPI.INTFLAG.bit.RXC == 0);
    384a:	7e03      	ldrb	r3, [r0, #24]
    384c:	075b      	lsls	r3, r3, #29
    384e:	d5fc      	bpl.n	384a <spiDataIn+0xa>
    return sercom(id)->SPI.DATA.reg;
    3850:	6a80      	ldr	r0, [r0, #40]	; 0x28
    3852:	b2c0      	uxtb	r0, r0
}
    3854:	4770      	bx	lr
    3856:	46c0      	nop			; (mov r8, r8)
    3858:	42000800 	.word	0x42000800

0000385c <usartDataOut>:
    385c:	4b04      	ldr	r3, [pc, #16]	; (3870 <usartDataOut+0x14>)
    385e:	0280      	lsls	r0, r0, #10
    3860:	18c0      	adds	r0, r0, r3

void usartDataOut(SercomId id, u8_t data) {
    sercom(id)->USART.DATA.reg = data;
    3862:	b289      	uxth	r1, r1
    3864:	8501      	strh	r1, [r0, #40]	; 0x28
    while(sercom(id)->USART.INTFLAG.bit.DRE == 0);
    3866:	7e03      	ldrb	r3, [r0, #24]
    3868:	07db      	lsls	r3, r3, #31
    386a:	d5fc      	bpl.n	3866 <usartDataOut+0xa>
}
    386c:	4770      	bx	lr
    386e:	46c0      	nop			; (mov r8, r8)
    3870:	42000800 	.word	0x42000800

00003874 <usartDataIn>:
    3874:	4b02      	ldr	r3, [pc, #8]	; (3880 <usartDataIn+0xc>)
    3876:	0280      	lsls	r0, r0, #10
    3878:	18c0      	adds	r0, r0, r3

u8_t usartDataIn(SercomId id) {
    return sercom(id)->USART.DATA.reg;
    387a:	8d00      	ldrh	r0, [r0, #40]	; 0x28
    387c:	b2c0      	uxtb	r0, r0
}
    387e:	4770      	bx	lr
    3880:	42000800 	.word	0x42000800

00003884 <findMainAltitude>:
#include <boardDefines.h>


void findMainAltitude() {

    if (deploymentSettings.channelASettings.ENABLED & (deploymentSettings.channelASettings.TYPE == MAIN_t)) {
    3884:	4a11      	ldr	r2, [pc, #68]	; (38cc <findMainAltitude+0x48>)
    3886:	7851      	ldrb	r1, [r2, #1]
    3888:	0013      	movs	r3, r2
    388a:	2900      	cmp	r1, #0
    388c:	d105      	bne.n	389a <findMainAltitude+0x16>
    388e:	7811      	ldrb	r1, [r2, #0]
    3890:	2900      	cmp	r1, #0
    3892:	d002      	beq.n	389a <findMainAltitude+0x16>
        deploymentSettings.MAIN_DEPLOY = deploymentSettings.channelASettings.MAIN_DEPLOY;
    3894:	8853      	ldrh	r3, [r2, #2]
    3896:	8313      	strh	r3, [r2, #24]
        return;
    3898:	e017      	b.n	38ca <findMainAltitude+0x46>
    }
    if (deploymentSettings.channelBSettings.ENABLED & (deploymentSettings.channelBSettings.TYPE == MAIN_t)) {
    389a:	79da      	ldrb	r2, [r3, #7]
    389c:	2a00      	cmp	r2, #0
    389e:	d104      	bne.n	38aa <findMainAltitude+0x26>
    38a0:	799a      	ldrb	r2, [r3, #6]
    38a2:	2a00      	cmp	r2, #0
    38a4:	d001      	beq.n	38aa <findMainAltitude+0x26>
        deploymentSettings.MAIN_DEPLOY = deploymentSettings.channelBSettings.MAIN_DEPLOY;
    38a6:	891a      	ldrh	r2, [r3, #8]
    38a8:	e00e      	b.n	38c8 <findMainAltitude+0x44>
        return;
    }
    if (deploymentSettings.channelCSettings.ENABLED & (deploymentSettings.channelCSettings.TYPE == MAIN_t)) {
    38aa:	7b5a      	ldrb	r2, [r3, #13]
    38ac:	2a00      	cmp	r2, #0
    38ae:	d104      	bne.n	38ba <findMainAltitude+0x36>
    38b0:	7b1a      	ldrb	r2, [r3, #12]
    38b2:	2a00      	cmp	r2, #0
    38b4:	d001      	beq.n	38ba <findMainAltitude+0x36>
        deploymentSettings.MAIN_DEPLOY = deploymentSettings.channelCSettings.MAIN_DEPLOY;
    38b6:	89da      	ldrh	r2, [r3, #14]
    38b8:	e006      	b.n	38c8 <findMainAltitude+0x44>
        return;
    }
    if (deploymentSettings.channelDSettings.ENABLED & (deploymentSettings.channelDSettings.TYPE == MAIN_t)) {
    38ba:	7cda      	ldrb	r2, [r3, #19]
    38bc:	2a00      	cmp	r2, #0
    38be:	d104      	bne.n	38ca <findMainAltitude+0x46>
    38c0:	7c9a      	ldrb	r2, [r3, #18]
    38c2:	2a00      	cmp	r2, #0
    38c4:	d001      	beq.n	38ca <findMainAltitude+0x46>
        deploymentSettings.MAIN_DEPLOY = deploymentSettings.channelDSettings.MAIN_DEPLOY;
    38c6:	8a9a      	ldrh	r2, [r3, #20]
    38c8:	831a      	strh	r2, [r3, #24]
        return;
    }
}
    38ca:	4770      	bx	lr
    38cc:	20000180 	.word	0x20000180

000038d0 <applyDefaultSettings>:
    deploymentSettings.channelASettings.MAIN_DEPLOY = 0;
    deploymentSettings.channelASettings.APPOGE_DELAY = 0;

    deploymentSettings.channelBSettings.ENABLED = true;
    deploymentSettings.channelBSettings.TYPE = MAIN_t;
    deploymentSettings.channelBSettings.MAIN_DEPLOY = 300;
    38d0:	2096      	movs	r0, #150	; 0x96

void applyDefaultSettings() {

    deploymentSettings.channelASettings.ENABLED = true;
    deploymentSettings.channelASettings.TYPE = DROGUE_t;
    deploymentSettings.channelASettings.MAIN_DEPLOY = 0;
    38d2:	2200      	movs	r2, #0
    }
}

void applyDefaultSettings() {

    deploymentSettings.channelASettings.ENABLED = true;
    38d4:	2101      	movs	r1, #1
    38d6:	4b09      	ldr	r3, [pc, #36]	; (38fc <applyDefaultSettings+0x2c>)
    deploymentSettings.channelASettings.MAIN_DEPLOY = 0;
    deploymentSettings.channelASettings.APPOGE_DELAY = 0;

    deploymentSettings.channelBSettings.ENABLED = true;
    deploymentSettings.channelBSettings.TYPE = MAIN_t;
    deploymentSettings.channelBSettings.MAIN_DEPLOY = 300;
    38d8:	0040      	lsls	r0, r0, #1
    }
}

void applyDefaultSettings() {

    deploymentSettings.channelASettings.ENABLED = true;
    38da:	7019      	strb	r1, [r3, #0]
    deploymentSettings.channelASettings.TYPE = DROGUE_t;
    38dc:	7059      	strb	r1, [r3, #1]
    deploymentSettings.channelASettings.MAIN_DEPLOY = 0;
    38de:	805a      	strh	r2, [r3, #2]
    deploymentSettings.channelASettings.APPOGE_DELAY = 0;
    38e0:	711a      	strb	r2, [r3, #4]

    deploymentSettings.channelBSettings.ENABLED = true;
    38e2:	7199      	strb	r1, [r3, #6]
    deploymentSettings.channelBSettings.TYPE = MAIN_t;
    38e4:	71da      	strb	r2, [r3, #7]
    deploymentSettings.channelBSettings.MAIN_DEPLOY = 300;
    38e6:	8118      	strh	r0, [r3, #8]
    deploymentSettings.channelBSettings.APPOGE_DELAY = 0;
    38e8:	729a      	strb	r2, [r3, #10]

    deploymentSettings.channelCSettings.ENABLED = false;
    38ea:	731a      	strb	r2, [r3, #12]
    deploymentSettings.channelCSettings.TYPE = DROGUE_t;
    38ec:	7359      	strb	r1, [r3, #13]
    deploymentSettings.channelCSettings.MAIN_DEPLOY = 0;
    38ee:	81da      	strh	r2, [r3, #14]
    deploymentSettings.channelCSettings.APPOGE_DELAY = 0;
    38f0:	741a      	strb	r2, [r3, #16]

    deploymentSettings.channelDSettings.ENABLED = false;
    38f2:	749a      	strb	r2, [r3, #18]
    deploymentSettings.channelDSettings.TYPE = MAIN_t;
    38f4:	74da      	strb	r2, [r3, #19]
    deploymentSettings.channelDSettings.MAIN_DEPLOY = 300;
    38f6:	8298      	strh	r0, [r3, #20]
    deploymentSettings.channelDSettings.APPOGE_DELAY = 0;
    38f8:	759a      	strb	r2, [r3, #22]
}
    38fa:	4770      	bx	lr
    38fc:	20000180 	.word	0x20000180

00003900 <putSettings>:

void putSettings() {
    3900:	b500      	push	{lr}
    3902:	b0c1      	sub	sp, #260	; 0x104

    u8_t settings[256];

    settings[0] = deploymentSettings.channelASettings.ENABLED;
    3904:	4669      	mov	r1, sp
    settings[1] = deploymentSettings.channelASettings.TYPE;
    settings[2] = deploymentSettings.channelASettings.MAIN_DEPLOY >> 8;
    3906:	4668      	mov	r0, sp

void putSettings() {

    u8_t settings[256];

    settings[0] = deploymentSettings.channelASettings.ENABLED;
    3908:	4b17      	ldr	r3, [pc, #92]	; (3968 <putSettings+0x68>)
    390a:	781a      	ldrb	r2, [r3, #0]
    390c:	700a      	strb	r2, [r1, #0]
    settings[1] = deploymentSettings.channelASettings.TYPE;
    390e:	785a      	ldrb	r2, [r3, #1]
    3910:	704a      	strb	r2, [r1, #1]
    settings[2] = deploymentSettings.channelASettings.MAIN_DEPLOY >> 8;
    3912:	885a      	ldrh	r2, [r3, #2]
    3914:	0a11      	lsrs	r1, r2, #8
    3916:	7081      	strb	r1, [r0, #2]
    settings[3] = deploymentSettings.channelASettings.MAIN_DEPLOY >> 0;
    3918:	70c2      	strb	r2, [r0, #3]
    settings[4] = deploymentSettings.channelASettings.APPOGE_DELAY;
    391a:	791a      	ldrb	r2, [r3, #4]
    391c:	7102      	strb	r2, [r0, #4]

    settings[5] = deploymentSettings.channelBSettings.ENABLED;
    391e:	799a      	ldrb	r2, [r3, #6]
    3920:	7142      	strb	r2, [r0, #5]
    settings[6] = deploymentSettings.channelBSettings.TYPE;
    3922:	79da      	ldrb	r2, [r3, #7]
    3924:	7182      	strb	r2, [r0, #6]
    settings[7] = deploymentSettings.channelBSettings.MAIN_DEPLOY >> 8;
    3926:	891a      	ldrh	r2, [r3, #8]
    3928:	0a11      	lsrs	r1, r2, #8
    392a:	71c1      	strb	r1, [r0, #7]
    settings[8] = deploymentSettings.channelBSettings.MAIN_DEPLOY >> 0;
    392c:	7202      	strb	r2, [r0, #8]
    settings[9] = deploymentSettings.channelBSettings.APPOGE_DELAY;
    392e:	7a9a      	ldrb	r2, [r3, #10]
    3930:	7242      	strb	r2, [r0, #9]

    settings[10] = deploymentSettings.channelCSettings.ENABLED;
    3932:	7b1a      	ldrb	r2, [r3, #12]
    3934:	7282      	strb	r2, [r0, #10]
    settings[11] = deploymentSettings.channelCSettings.TYPE;
    3936:	7b5a      	ldrb	r2, [r3, #13]
    3938:	72c2      	strb	r2, [r0, #11]
    settings[12] = deploymentSettings.channelCSettings.MAIN_DEPLOY >> 8;
    393a:	89da      	ldrh	r2, [r3, #14]
    393c:	0a11      	lsrs	r1, r2, #8
    393e:	7301      	strb	r1, [r0, #12]
    settings[13] = deploymentSettings.channelCSettings.MAIN_DEPLOY >> 0;
    3940:	7342      	strb	r2, [r0, #13]
    settings[14] = deploymentSettings.channelCSettings.APPOGE_DELAY;
    3942:	7c1a      	ldrb	r2, [r3, #16]
    3944:	7382      	strb	r2, [r0, #14]

    settings[15] = deploymentSettings.channelDSettings.ENABLED;
    3946:	7c9a      	ldrb	r2, [r3, #18]
    3948:	73c2      	strb	r2, [r0, #15]
    settings[16] = deploymentSettings.channelDSettings.TYPE;
    394a:	7cda      	ldrb	r2, [r3, #19]
    394c:	7402      	strb	r2, [r0, #16]
    settings[17] = deploymentSettings.channelDSettings.MAIN_DEPLOY >> 8;
    394e:	8a9a      	ldrh	r2, [r3, #20]
    3950:	0a11      	lsrs	r1, r2, #8
    3952:	7441      	strb	r1, [r0, #17]
    settings[18] = deploymentSettings.channelDSettings.MAIN_DEPLOY >> 0;
    3954:	7482      	strb	r2, [r0, #18]
    settings[19] = deploymentSettings.channelDSettings.APPOGE_DELAY;
    3956:	7d9b      	ldrb	r3, [r3, #22]
    settings[14] = deploymentSettings.channelCSettings.APPOGE_DELAY;

    settings[15] = deploymentSettings.channelDSettings.ENABLED;
    settings[16] = deploymentSettings.channelDSettings.TYPE;
    settings[17] = deploymentSettings.channelDSettings.MAIN_DEPLOY >> 8;
    settings[18] = deploymentSettings.channelDSettings.MAIN_DEPLOY >> 0;
    3958:	4669      	mov	r1, sp
    settings[19] = deploymentSettings.channelDSettings.APPOGE_DELAY;
    395a:	74c3      	strb	r3, [r0, #19]

    settings[20] = 0x00;
    395c:	2000      	movs	r0, #0

    AT25SEWritePage(0x00,settings);
    395e:	4b03      	ldr	r3, [pc, #12]	; (396c <putSettings+0x6c>)
    settings[16] = deploymentSettings.channelDSettings.TYPE;
    settings[17] = deploymentSettings.channelDSettings.MAIN_DEPLOY >> 8;
    settings[18] = deploymentSettings.channelDSettings.MAIN_DEPLOY >> 0;
    settings[19] = deploymentSettings.channelDSettings.APPOGE_DELAY;

    settings[20] = 0x00;
    3960:	7508      	strb	r0, [r1, #20]

    AT25SEWritePage(0x00,settings);
    3962:	4798      	blx	r3
}
    3964:	b041      	add	sp, #260	; 0x104
    3966:	bd00      	pop	{pc}
    3968:	20000180 	.word	0x20000180
    396c:	000002a5 	.word	0x000002a5

00003970 <getSettings>:


void getSettings() {
    3970:	b500      	push	{lr}
    3972:	b0c1      	sub	sp, #260	; 0x104

    u8_t settings[256];

    AT25SEreadPage(0x00 , settings);
    3974:	4669      	mov	r1, sp
    3976:	4b2c      	ldr	r3, [pc, #176]	; (3a28 <getSettings+0xb8>)
    3978:	2000      	movs	r0, #0
    397a:	4798      	blx	r3

    deploymentSettings.channelASettings.ENABLED = settings[0];
    397c:	466a      	mov	r2, sp
    397e:	7812      	ldrb	r2, [r2, #0]
    3980:	4b2a      	ldr	r3, [pc, #168]	; (3a2c <getSettings+0xbc>)
    3982:	1e51      	subs	r1, r2, #1
    3984:	418a      	sbcs	r2, r1
    3986:	701a      	strb	r2, [r3, #0]
    deploymentSettings.channelASettings.TYPE = settings[1];
    3988:	466a      	mov	r2, sp
    398a:	7852      	ldrb	r2, [r2, #1]
    deploymentSettings.channelASettings.MAIN_DEPLOY = settings[2] << 8 | (settings[3]);
    398c:	4669      	mov	r1, sp
    u8_t settings[256];

    AT25SEreadPage(0x00 , settings);

    deploymentSettings.channelASettings.ENABLED = settings[0];
    deploymentSettings.channelASettings.TYPE = settings[1];
    398e:	705a      	strb	r2, [r3, #1]
    deploymentSettings.channelASettings.MAIN_DEPLOY = settings[2] << 8 | (settings[3]);
    3990:	466a      	mov	r2, sp
    3992:	7892      	ldrb	r2, [r2, #2]
    3994:	78c9      	ldrb	r1, [r1, #3]
    3996:	0212      	lsls	r2, r2, #8
    3998:	430a      	orrs	r2, r1
    399a:	805a      	strh	r2, [r3, #2]
    deploymentSettings.channelASettings.APPOGE_DELAY = settings[4];
    399c:	466a      	mov	r2, sp
    399e:	7912      	ldrb	r2, [r2, #4]
    39a0:	711a      	strb	r2, [r3, #4]

    deploymentSettings.channelBSettings.ENABLED = settings[5];
    39a2:	466a      	mov	r2, sp
    39a4:	7952      	ldrb	r2, [r2, #5]
    39a6:	1e51      	subs	r1, r2, #1
    39a8:	418a      	sbcs	r2, r1
    39aa:	719a      	strb	r2, [r3, #6]
    deploymentSettings.channelBSettings.TYPE = settings[6];
    39ac:	466a      	mov	r2, sp
    39ae:	7992      	ldrb	r2, [r2, #6]
    deploymentSettings.channelBSettings.MAIN_DEPLOY = settings[7] << 8 | (settings[8]);
    39b0:	4669      	mov	r1, sp
    deploymentSettings.channelASettings.TYPE = settings[1];
    deploymentSettings.channelASettings.MAIN_DEPLOY = settings[2] << 8 | (settings[3]);
    deploymentSettings.channelASettings.APPOGE_DELAY = settings[4];

    deploymentSettings.channelBSettings.ENABLED = settings[5];
    deploymentSettings.channelBSettings.TYPE = settings[6];
    39b2:	71da      	strb	r2, [r3, #7]
    deploymentSettings.channelBSettings.MAIN_DEPLOY = settings[7] << 8 | (settings[8]);
    39b4:	466a      	mov	r2, sp
    39b6:	79d2      	ldrb	r2, [r2, #7]
    39b8:	7a09      	ldrb	r1, [r1, #8]
    39ba:	0212      	lsls	r2, r2, #8
    39bc:	430a      	orrs	r2, r1
    39be:	811a      	strh	r2, [r3, #8]
    deploymentSettings.channelBSettings.APPOGE_DELAY = settings[9];
    39c0:	466a      	mov	r2, sp
    39c2:	7a52      	ldrb	r2, [r2, #9]
    39c4:	729a      	strb	r2, [r3, #10]

    deploymentSettings.channelCSettings.ENABLED = settings[10];
    39c6:	466a      	mov	r2, sp
    39c8:	7a92      	ldrb	r2, [r2, #10]
    39ca:	1e51      	subs	r1, r2, #1
    39cc:	418a      	sbcs	r2, r1
    39ce:	731a      	strb	r2, [r3, #12]
    deploymentSettings.channelCSettings.TYPE = settings[11];
    39d0:	466a      	mov	r2, sp
    39d2:	7ad2      	ldrb	r2, [r2, #11]
    deploymentSettings.channelCSettings.MAIN_DEPLOY = settings[12] << 8 | (settings[13]);
    39d4:	4669      	mov	r1, sp
    deploymentSettings.channelBSettings.TYPE = settings[6];
    deploymentSettings.channelBSettings.MAIN_DEPLOY = settings[7] << 8 | (settings[8]);
    deploymentSettings.channelBSettings.APPOGE_DELAY = settings[9];

    deploymentSettings.channelCSettings.ENABLED = settings[10];
    deploymentSettings.channelCSettings.TYPE = settings[11];
    39d6:	735a      	strb	r2, [r3, #13]
    deploymentSettings.channelCSettings.MAIN_DEPLOY = settings[12] << 8 | (settings[13]);
    39d8:	466a      	mov	r2, sp
    39da:	7b12      	ldrb	r2, [r2, #12]
    39dc:	7b49      	ldrb	r1, [r1, #13]
    39de:	0212      	lsls	r2, r2, #8
    39e0:	430a      	orrs	r2, r1
    39e2:	81da      	strh	r2, [r3, #14]
    deploymentSettings.channelCSettings.APPOGE_DELAY = settings[14];
    39e4:	466a      	mov	r2, sp
    39e6:	7b92      	ldrb	r2, [r2, #14]
    39e8:	741a      	strb	r2, [r3, #16]

    deploymentSettings.channelDSettings.ENABLED = settings[15];
    39ea:	466a      	mov	r2, sp
    39ec:	7bd2      	ldrb	r2, [r2, #15]
    39ee:	1e51      	subs	r1, r2, #1
    39f0:	418a      	sbcs	r2, r1
    39f2:	749a      	strb	r2, [r3, #18]
    deploymentSettings.channelDSettings.TYPE = settings[16];
    39f4:	466a      	mov	r2, sp
    39f6:	7c12      	ldrb	r2, [r2, #16]
    deploymentSettings.channelDSettings.MAIN_DEPLOY = settings[17] << 8 | (settings[18]);
    39f8:	4669      	mov	r1, sp
    deploymentSettings.channelCSettings.TYPE = settings[11];
    deploymentSettings.channelCSettings.MAIN_DEPLOY = settings[12] << 8 | (settings[13]);
    deploymentSettings.channelCSettings.APPOGE_DELAY = settings[14];

    deploymentSettings.channelDSettings.ENABLED = settings[15];
    deploymentSettings.channelDSettings.TYPE = settings[16];
    39fa:	74da      	strb	r2, [r3, #19]
    deploymentSettings.channelDSettings.MAIN_DEPLOY = settings[17] << 8 | (settings[18]);
    39fc:	466a      	mov	r2, sp
    39fe:	7c52      	ldrb	r2, [r2, #17]
    3a00:	7c89      	ldrb	r1, [r1, #18]
    3a02:	0212      	lsls	r2, r2, #8
    3a04:	430a      	orrs	r2, r1
    3a06:	829a      	strh	r2, [r3, #20]
    deploymentSettings.channelDSettings.APPOGE_DELAY = settings[19];
    3a08:	466a      	mov	r2, sp
    3a0a:	7cd2      	ldrb	r2, [r2, #19]
    3a0c:	759a      	strb	r2, [r3, #22]


    if (settings[20] == 0xFF) {
    3a0e:	466b      	mov	r3, sp
    3a10:	7d1b      	ldrb	r3, [r3, #20]
    3a12:	2bff      	cmp	r3, #255	; 0xff
    3a14:	d103      	bne.n	3a1e <getSettings+0xae>
        applyDefaultSettings();
    3a16:	4b06      	ldr	r3, [pc, #24]	; (3a30 <getSettings+0xc0>)
    3a18:	4798      	blx	r3
        putSettings();
    3a1a:	4b06      	ldr	r3, [pc, #24]	; (3a34 <getSettings+0xc4>)
    3a1c:	4798      	blx	r3
    }

    findMainAltitude();
    3a1e:	4b06      	ldr	r3, [pc, #24]	; (3a38 <getSettings+0xc8>)
    3a20:	4798      	blx	r3

}
    3a22:	b041      	add	sp, #260	; 0x104
    3a24:	bd00      	pop	{pc}
    3a26:	46c0      	nop			; (mov r8, r8)
    3a28:	0000035d 	.word	0x0000035d
    3a2c:	20000180 	.word	0x20000180
    3a30:	000038d1 	.word	0x000038d1
    3a34:	00003901 	.word	0x00003901
    3a38:	00003885 	.word	0x00003885

00003a3c <sendFlightLogs>:
#include <util.h>
#include <boardDefines.h>

void sendFlightLogs() {
    3a3c:	b5f7      	push	{r0, r1, r2, r4, r5, r6, r7, lr}

    //send list of available flight logs
    for (u8_t flightLog = 0; flightLog < 20; ++flightLog) {
    3a3e:	2400      	movs	r4, #0

        if (isFlightLogged(flightLog)) {
    3a40:	0020      	movs	r0, r4
    3a42:	4b1e      	ldr	r3, [pc, #120]	; (3abc <sendFlightLogs+0x80>)
    3a44:	4798      	blx	r3
    3a46:	2800      	cmp	r0, #0
    3a48:	d003      	beq.n	3a52 <sendFlightLogs+0x16>

            usartDataOut(USART3, flightLog);
    3a4a:	0021      	movs	r1, r4
    3a4c:	2003      	movs	r0, #3
    3a4e:	4b1c      	ldr	r3, [pc, #112]	; (3ac0 <sendFlightLogs+0x84>)
    3a50:	4798      	blx	r3
#include <boardDefines.h>

void sendFlightLogs() {

    //send list of available flight logs
    for (u8_t flightLog = 0; flightLog < 20; ++flightLog) {
    3a52:	3401      	adds	r4, #1
    3a54:	b2e4      	uxtb	r4, r4
    3a56:	2c14      	cmp	r4, #20
    3a58:	d1f2      	bne.n	3a40 <sendFlightLogs+0x4>

            usartDataOut(USART3, flightLog);
        }
    }
    //done sending flight numbers
    usartDataOut(USART3, 0xFF);
    3a5a:	21ff      	movs	r1, #255	; 0xff
    3a5c:	2003      	movs	r0, #3
    3a5e:	4c18      	ldr	r4, [pc, #96]	; (3ac0 <sendFlightLogs+0x84>)
    3a60:	47a0      	blx	r4

    //wait for user to pick which flight to read
    while(sercom(USART3)->SPI.INTFLAG.bit.RXC == 0);
    3a62:	4a18      	ldr	r2, [pc, #96]	; (3ac4 <sendFlightLogs+0x88>)
    3a64:	7e13      	ldrb	r3, [r2, #24]
    3a66:	075b      	lsls	r3, r3, #29
    3a68:	d5fc      	bpl.n	3a64 <sendFlightLogs+0x28>
    volatile u8_t flightToRead = usartDataIn(USART3);
    3a6a:	4b17      	ldr	r3, [pc, #92]	; (3ac8 <sendFlightLogs+0x8c>)
    3a6c:	2003      	movs	r0, #3
    3a6e:	4798      	blx	r3
    3a70:	466b      	mov	r3, sp
    3a72:	71d8      	strb	r0, [r3, #7]


    u32_t flightStartAddress = getFlightStartAddress(flightToRead);
    3a74:	79d8      	ldrb	r0, [r3, #7]
    //done sending flight numbers
    usartDataOut(USART3, 0xFF);

    //wait for user to pick which flight to read
    while(sercom(USART3)->SPI.INTFLAG.bit.RXC == 0);
    volatile u8_t flightToRead = usartDataIn(USART3);
    3a76:	1ddd      	adds	r5, r3, #7


    u32_t flightStartAddress = getFlightStartAddress(flightToRead);
    3a78:	b2c0      	uxtb	r0, r0
    3a7a:	4b14      	ldr	r3, [pc, #80]	; (3acc <sendFlightLogs+0x90>)
    3a7c:	4798      	blx	r3
    3a7e:	0007      	movs	r7, r0
    u32_t flightEndAddress = FindFlightEndingAddress(flightToRead);
    3a80:	7828      	ldrb	r0, [r5, #0]
    3a82:	4b13      	ldr	r3, [pc, #76]	; (3ad0 <sendFlightLogs+0x94>)
    3a84:	b2c0      	uxtb	r0, r0
    3a86:	4798      	blx	r3
    3a88:	0006      	movs	r6, r0

    //inform of page numbers
    u16_t pagesToSend = (flightEndAddress  - flightStartAddress) >> 8;
    3a8a:	1bc5      	subs	r5, r0, r7
    3a8c:	0a2d      	lsrs	r5, r5, #8
    usartDataOut(USART3, pagesToSend >> 0);
    3a8e:	b2e9      	uxtb	r1, r5
    3a90:	2003      	movs	r0, #3
    3a92:	47a0      	blx	r4
    usartDataOut(USART3, pagesToSend >> 8);
    3a94:	b2a9      	uxth	r1, r5
    3a96:	0a09      	lsrs	r1, r1, #8
    3a98:	2003      	movs	r0, #3
    3a9a:	47a0      	blx	r4

    //send flight end address for % full
    usartDataOut(USART3, flightEndAddress >> 0);
    3a9c:	b2f1      	uxtb	r1, r6
    3a9e:	2003      	movs	r0, #3
    3aa0:	47a0      	blx	r4
    usartDataOut(USART3, flightEndAddress >> 8);
    3aa2:	0a31      	lsrs	r1, r6, #8
    3aa4:	b2c9      	uxtb	r1, r1
    3aa6:	2003      	movs	r0, #3
    3aa8:	47a0      	blx	r4
    usartDataOut(USART3, flightEndAddress >> 16);
    3aaa:	0c31      	lsrs	r1, r6, #16
    3aac:	b2c9      	uxtb	r1, r1
    3aae:	2003      	movs	r0, #3
    3ab0:	47a0      	blx	r4

    //USART out the flights pages
    sendTheasePagesToComputer(flightStartAddress, flightEndAddress);
    3ab2:	0031      	movs	r1, r6
    3ab4:	0038      	movs	r0, r7
    3ab6:	4b07      	ldr	r3, [pc, #28]	; (3ad4 <sendFlightLogs+0x98>)
    3ab8:	4798      	blx	r3

}
    3aba:	bdf7      	pop	{r0, r1, r2, r4, r5, r6, r7, pc}
    3abc:	00003241 	.word	0x00003241
    3ac0:	0000385d 	.word	0x0000385d
    3ac4:	42001400 	.word	0x42001400
    3ac8:	00003875 	.word	0x00003875
    3acc:	000031f1 	.word	0x000031f1
    3ad0:	00003219 	.word	0x00003219
    3ad4:	00000af9 	.word	0x00000af9

00003ad8 <attemptConnection>:

void attemptConnection() {
    3ad8:	b570      	push	{r4, r5, r6, lr}

    if (USARTconnectionAvaliable()) {
    3ada:	4b14      	ldr	r3, [pc, #80]	; (3b2c <attemptConnection+0x54>)
    3adc:	4798      	blx	r3
    3ade:	2800      	cmp	r0, #0
    3ae0:	d022      	beq.n	3b28 <attemptConnection+0x50>

        flightState = flightIdle;
    3ae2:	2201      	movs	r2, #1
    3ae4:	4b12      	ldr	r3, [pc, #72]	; (3b30 <attemptConnection+0x58>)
    3ae6:	701a      	strb	r2, [r3, #0]

        //wait for user to tell us what they want
        while(sercom(USART3)->SPI.INTFLAG.bit.RXC == 0);
    3ae8:	4a12      	ldr	r2, [pc, #72]	; (3b34 <attemptConnection+0x5c>)
    3aea:	7e13      	ldrb	r3, [r2, #24]
    3aec:	075b      	lsls	r3, r3, #29
    3aee:	d5fc      	bpl.n	3aea <attemptConnection+0x12>
        u8_t option = usartDataIn(USART3);
    3af0:	2003      	movs	r0, #3
    3af2:	4b11      	ldr	r3, [pc, #68]	; (3b38 <attemptConnection+0x60>)
    3af4:	4798      	blx	r3
    3af6:	1e04      	subs	r4, r0, #0

        //user wants to read flight logs
        if (option == 0x4C) {
    3af8:	2c4c      	cmp	r4, #76	; 0x4c
    3afa:	d102      	bne.n	3b02 <attemptConnection+0x2a>

            sendFlightLogs();
    3afc:	4b0f      	ldr	r3, [pc, #60]	; (3b3c <attemptConnection+0x64>)
    3afe:	4798      	blx	r3
    3b00:	e012      	b.n	3b28 <attemptConnection+0x50>
        }
        //user wants to erase chip
        if (option == 0x45) { // 'E'
    3b02:	2845      	cmp	r0, #69	; 0x45
    3b04:	d110      	bne.n	3b28 <attemptConnection+0x50>

            //getSettings();

            AT25SFChipErase();
    3b06:	4e0e      	ldr	r6, [pc, #56]	; (3b40 <attemptConnection+0x68>)
    3b08:	47b0      	blx	r6
            AT25SFHoldTillReady();
    3b0a:	4d0e      	ldr	r5, [pc, #56]	; (3b44 <attemptConnection+0x6c>)
    3b0c:	47a8      	blx	r5
            delay_ms(100);
    3b0e:	2064      	movs	r0, #100	; 0x64
    3b10:	4b0d      	ldr	r3, [pc, #52]	; (3b48 <attemptConnection+0x70>)
    3b12:	4798      	blx	r3
            AT25SFChipErase();
    3b14:	47b0      	blx	r6

            AT25SFHoldTillReady();
    3b16:	47a8      	blx	r5

            //getSettings();

            usartDataOut(USART3, 'E');
    3b18:	2003      	movs	r0, #3
    3b1a:	4b0c      	ldr	r3, [pc, #48]	; (3b4c <attemptConnection+0x74>)
    3b1c:	0021      	movs	r1, r4
    3b1e:	4798      	blx	r3
            beep(400);
    3b20:	20c8      	movs	r0, #200	; 0xc8
    3b22:	4b0b      	ldr	r3, [pc, #44]	; (3b50 <attemptConnection+0x78>)
    3b24:	0040      	lsls	r0, r0, #1
    3b26:	4798      	blx	r3


        }
    }

}
    3b28:	bd70      	pop	{r4, r5, r6, pc}
    3b2a:	46c0      	nop			; (mov r8, r8)
    3b2c:	00000ac5 	.word	0x00000ac5
    3b30:	200001ac 	.word	0x200001ac
    3b34:	42001400 	.word	0x42001400
    3b38:	00003875 	.word	0x00003875
    3b3c:	00003a3d 	.word	0x00003a3d
    3b40:	00000219 	.word	0x00000219
    3b44:	000001e5 	.word	0x000001e5
    3b48:	0000114d 	.word	0x0000114d
    3b4c:	0000385d 	.word	0x0000385d
    3b50:	00000e49 	.word	0x00000e49

00003b54 <pow>:
    3b54:	b5f0      	push	{r4, r5, r6, r7, lr}
    3b56:	465f      	mov	r7, fp
    3b58:	464d      	mov	r5, r9
    3b5a:	4656      	mov	r6, sl
    3b5c:	4644      	mov	r4, r8
    3b5e:	b4f0      	push	{r4, r5, r6, r7}
    3b60:	b091      	sub	sp, #68	; 0x44
    3b62:	001f      	movs	r7, r3
    3b64:	0004      	movs	r4, r0
    3b66:	000d      	movs	r5, r1
    3b68:	0016      	movs	r6, r2
    3b6a:	f000 f9af 	bl	3ecc <__ieee754_pow>
    3b6e:	4bcf      	ldr	r3, [pc, #828]	; (3eac <pow+0x358>)
    3b70:	9002      	str	r0, [sp, #8]
    3b72:	9103      	str	r1, [sp, #12]
    3b74:	469b      	mov	fp, r3
    3b76:	781b      	ldrb	r3, [r3, #0]
    3b78:	b25b      	sxtb	r3, r3
    3b7a:	4699      	mov	r9, r3
    3b7c:	3301      	adds	r3, #1
    3b7e:	d04f      	beq.n	3c20 <pow+0xcc>
    3b80:	0032      	movs	r2, r6
    3b82:	003b      	movs	r3, r7
    3b84:	0030      	movs	r0, r6
    3b86:	0039      	movs	r1, r7
    3b88:	f003 f950 	bl	6e2c <__aeabi_dcmpun>
    3b8c:	9000      	str	r0, [sp, #0]
    3b8e:	2800      	cmp	r0, #0
    3b90:	d146      	bne.n	3c20 <pow+0xcc>
    3b92:	0022      	movs	r2, r4
    3b94:	002b      	movs	r3, r5
    3b96:	0020      	movs	r0, r4
    3b98:	0029      	movs	r1, r5
    3b9a:	f003 f947 	bl	6e2c <__aeabi_dcmpun>
    3b9e:	2200      	movs	r2, #0
    3ba0:	4682      	mov	sl, r0
    3ba2:	2800      	cmp	r0, #0
    3ba4:	d134      	bne.n	3c10 <pow+0xbc>
    3ba6:	2300      	movs	r3, #0
    3ba8:	0020      	movs	r0, r4
    3baa:	0029      	movs	r1, r5
    3bac:	f001 fa72 	bl	5094 <__aeabi_dcmpeq>
    3bb0:	2800      	cmp	r0, #0
    3bb2:	d03a      	beq.n	3c2a <pow+0xd6>
    3bb4:	2200      	movs	r2, #0
    3bb6:	2300      	movs	r3, #0
    3bb8:	0030      	movs	r0, r6
    3bba:	0039      	movs	r1, r7
    3bbc:	f001 fa6a 	bl	5094 <__aeabi_dcmpeq>
    3bc0:	9005      	str	r0, [sp, #20]
    3bc2:	2800      	cmp	r0, #0
    3bc4:	d100      	bne.n	3bc8 <pow+0x74>
    3bc6:	e074      	b.n	3cb2 <pow+0x15e>
    3bc8:	ab06      	add	r3, sp, #24
    3bca:	4698      	mov	r8, r3
    3bcc:	2301      	movs	r3, #1
    3bce:	4642      	mov	r2, r8
    3bd0:	9306      	str	r3, [sp, #24]
    3bd2:	4bb7      	ldr	r3, [pc, #732]	; (3eb0 <pow+0x35c>)
    3bd4:	6053      	str	r3, [r2, #4]
    3bd6:	4643      	mov	r3, r8
    3bd8:	4652      	mov	r2, sl
    3bda:	609c      	str	r4, [r3, #8]
    3bdc:	60dd      	str	r5, [r3, #12]
    3bde:	621a      	str	r2, [r3, #32]
    3be0:	611e      	str	r6, [r3, #16]
    3be2:	615f      	str	r7, [r3, #20]
    3be4:	4642      	mov	r2, r8
    3be6:	2300      	movs	r3, #0
    3be8:	2400      	movs	r4, #0
    3bea:	6193      	str	r3, [r2, #24]
    3bec:	61d4      	str	r4, [r2, #28]
    3bee:	464b      	mov	r3, r9
    3bf0:	2b00      	cmp	r3, #0
    3bf2:	d100      	bne.n	3bf6 <pow+0xa2>
    3bf4:	e094      	b.n	3d20 <pow+0x1cc>
    3bf6:	2300      	movs	r3, #0
    3bf8:	4cae      	ldr	r4, [pc, #696]	; (3eb4 <pow+0x360>)
    3bfa:	9300      	str	r3, [sp, #0]
    3bfc:	9401      	str	r4, [sp, #4]
    3bfe:	9800      	ldr	r0, [sp, #0]
    3c00:	9901      	ldr	r1, [sp, #4]
    3c02:	b011      	add	sp, #68	; 0x44
    3c04:	bc3c      	pop	{r2, r3, r4, r5}
    3c06:	4690      	mov	r8, r2
    3c08:	4699      	mov	r9, r3
    3c0a:	46a2      	mov	sl, r4
    3c0c:	46ab      	mov	fp, r5
    3c0e:	bdf0      	pop	{r4, r5, r6, r7, pc}
    3c10:	2300      	movs	r3, #0
    3c12:	0030      	movs	r0, r6
    3c14:	0039      	movs	r1, r7
    3c16:	f001 fa3d 	bl	5094 <__aeabi_dcmpeq>
    3c1a:	2800      	cmp	r0, #0
    3c1c:	d000      	beq.n	3c20 <pow+0xcc>
    3c1e:	e0eb      	b.n	3df8 <pow+0x2a4>
    3c20:	9b02      	ldr	r3, [sp, #8]
    3c22:	9c03      	ldr	r4, [sp, #12]
    3c24:	9300      	str	r3, [sp, #0]
    3c26:	9401      	str	r4, [sp, #4]
    3c28:	e7e9      	b.n	3bfe <pow+0xaa>
    3c2a:	9802      	ldr	r0, [sp, #8]
    3c2c:	9903      	ldr	r1, [sp, #12]
    3c2e:	f000 ff7d 	bl	4b2c <finite>
    3c32:	4681      	mov	r9, r0
    3c34:	2800      	cmp	r0, #0
    3c36:	d100      	bne.n	3c3a <pow+0xe6>
    3c38:	e086      	b.n	3d48 <pow+0x1f4>
    3c3a:	9802      	ldr	r0, [sp, #8]
    3c3c:	9903      	ldr	r1, [sp, #12]
    3c3e:	2200      	movs	r2, #0
    3c40:	2300      	movs	r3, #0
    3c42:	f001 fa27 	bl	5094 <__aeabi_dcmpeq>
    3c46:	2800      	cmp	r0, #0
    3c48:	d0ea      	beq.n	3c20 <pow+0xcc>
    3c4a:	0020      	movs	r0, r4
    3c4c:	0029      	movs	r1, r5
    3c4e:	f000 ff6d 	bl	4b2c <finite>
    3c52:	9a02      	ldr	r2, [sp, #8]
    3c54:	9b03      	ldr	r3, [sp, #12]
    3c56:	9200      	str	r2, [sp, #0]
    3c58:	9301      	str	r3, [sp, #4]
    3c5a:	2800      	cmp	r0, #0
    3c5c:	d0cf      	beq.n	3bfe <pow+0xaa>
    3c5e:	0030      	movs	r0, r6
    3c60:	0039      	movs	r1, r7
    3c62:	f000 ff63 	bl	4b2c <finite>
    3c66:	9a02      	ldr	r2, [sp, #8]
    3c68:	9b03      	ldr	r3, [sp, #12]
    3c6a:	9200      	str	r2, [sp, #0]
    3c6c:	9301      	str	r3, [sp, #4]
    3c6e:	2800      	cmp	r0, #0
    3c70:	d0c5      	beq.n	3bfe <pow+0xaa>
    3c72:	ab06      	add	r3, sp, #24
    3c74:	4698      	mov	r8, r3
    3c76:	2304      	movs	r3, #4
    3c78:	4642      	mov	r2, r8
    3c7a:	9306      	str	r3, [sp, #24]
    3c7c:	4b8c      	ldr	r3, [pc, #560]	; (3eb0 <pow+0x35c>)
    3c7e:	6094      	str	r4, [r2, #8]
    3c80:	60d5      	str	r5, [r2, #12]
    3c82:	6053      	str	r3, [r2, #4]
    3c84:	2300      	movs	r3, #0
    3c86:	2400      	movs	r4, #0
    3c88:	6213      	str	r3, [r2, #32]
    3c8a:	2300      	movs	r3, #0
    3c8c:	6193      	str	r3, [r2, #24]
    3c8e:	61d4      	str	r4, [r2, #28]
    3c90:	465b      	mov	r3, fp
    3c92:	781b      	ldrb	r3, [r3, #0]
    3c94:	6116      	str	r6, [r2, #16]
    3c96:	6157      	str	r7, [r2, #20]
    3c98:	b25b      	sxtb	r3, r3
    3c9a:	2b02      	cmp	r3, #2
    3c9c:	d004      	beq.n	3ca8 <pow+0x154>
    3c9e:	4640      	mov	r0, r8
    3ca0:	f000 ff4e 	bl	4b40 <matherr>
    3ca4:	2800      	cmp	r0, #0
    3ca6:	d140      	bne.n	3d2a <pow+0x1d6>
    3ca8:	f003 fa8e 	bl	71c8 <__errno>
    3cac:	2322      	movs	r3, #34	; 0x22
    3cae:	6003      	str	r3, [r0, #0]
    3cb0:	e03b      	b.n	3d2a <pow+0x1d6>
    3cb2:	0030      	movs	r0, r6
    3cb4:	0039      	movs	r1, r7
    3cb6:	f000 ff39 	bl	4b2c <finite>
    3cba:	9a02      	ldr	r2, [sp, #8]
    3cbc:	9b03      	ldr	r3, [sp, #12]
    3cbe:	9200      	str	r2, [sp, #0]
    3cc0:	9301      	str	r3, [sp, #4]
    3cc2:	2800      	cmp	r0, #0
    3cc4:	d09b      	beq.n	3bfe <pow+0xaa>
    3cc6:	2200      	movs	r2, #0
    3cc8:	2300      	movs	r3, #0
    3cca:	0030      	movs	r0, r6
    3ccc:	0039      	movs	r1, r7
    3cce:	f001 f9e7 	bl	50a0 <__aeabi_dcmplt>
    3cd2:	2800      	cmp	r0, #0
    3cd4:	d100      	bne.n	3cd8 <pow+0x184>
    3cd6:	e792      	b.n	3bfe <pow+0xaa>
    3cd8:	ab06      	add	r3, sp, #24
    3cda:	4698      	mov	r8, r3
    3cdc:	2301      	movs	r3, #1
    3cde:	4642      	mov	r2, r8
    3ce0:	9306      	str	r3, [sp, #24]
    3ce2:	4b73      	ldr	r3, [pc, #460]	; (3eb0 <pow+0x35c>)
    3ce4:	6053      	str	r3, [r2, #4]
    3ce6:	4643      	mov	r3, r8
    3ce8:	9a05      	ldr	r2, [sp, #20]
    3cea:	609c      	str	r4, [r3, #8]
    3cec:	60dd      	str	r5, [r3, #12]
    3cee:	621a      	str	r2, [r3, #32]
    3cf0:	611e      	str	r6, [r3, #16]
    3cf2:	615f      	str	r7, [r3, #20]
    3cf4:	465b      	mov	r3, fp
    3cf6:	781b      	ldrb	r3, [r3, #0]
    3cf8:	b25b      	sxtb	r3, r3
    3cfa:	2b00      	cmp	r3, #0
    3cfc:	d00b      	beq.n	3d16 <pow+0x1c2>
    3cfe:	2000      	movs	r0, #0
    3d00:	4642      	mov	r2, r8
    3d02:	496d      	ldr	r1, [pc, #436]	; (3eb8 <pow+0x364>)
    3d04:	6190      	str	r0, [r2, #24]
    3d06:	61d1      	str	r1, [r2, #28]
    3d08:	2b02      	cmp	r3, #2
    3d0a:	d109      	bne.n	3d20 <pow+0x1cc>
    3d0c:	f003 fa5c 	bl	71c8 <__errno>
    3d10:	2321      	movs	r3, #33	; 0x21
    3d12:	6003      	str	r3, [r0, #0]
    3d14:	e009      	b.n	3d2a <pow+0x1d6>
    3d16:	4642      	mov	r2, r8
    3d18:	2300      	movs	r3, #0
    3d1a:	2400      	movs	r4, #0
    3d1c:	6193      	str	r3, [r2, #24]
    3d1e:	61d4      	str	r4, [r2, #28]
    3d20:	4640      	mov	r0, r8
    3d22:	f000 ff0d 	bl	4b40 <matherr>
    3d26:	2800      	cmp	r0, #0
    3d28:	d0f0      	beq.n	3d0c <pow+0x1b8>
    3d2a:	4643      	mov	r3, r8
    3d2c:	6a1b      	ldr	r3, [r3, #32]
    3d2e:	2b00      	cmp	r3, #0
    3d30:	d004      	beq.n	3d3c <pow+0x1e8>
    3d32:	f003 fa49 	bl	71c8 <__errno>
    3d36:	4643      	mov	r3, r8
    3d38:	6a1b      	ldr	r3, [r3, #32]
    3d3a:	6003      	str	r3, [r0, #0]
    3d3c:	4643      	mov	r3, r8
    3d3e:	69dc      	ldr	r4, [r3, #28]
    3d40:	699b      	ldr	r3, [r3, #24]
    3d42:	9300      	str	r3, [sp, #0]
    3d44:	9401      	str	r4, [sp, #4]
    3d46:	e75a      	b.n	3bfe <pow+0xaa>
    3d48:	0020      	movs	r0, r4
    3d4a:	0029      	movs	r1, r5
    3d4c:	f000 feee 	bl	4b2c <finite>
    3d50:	2800      	cmp	r0, #0
    3d52:	d100      	bne.n	3d56 <pow+0x202>
    3d54:	e771      	b.n	3c3a <pow+0xe6>
    3d56:	0030      	movs	r0, r6
    3d58:	0039      	movs	r1, r7
    3d5a:	f000 fee7 	bl	4b2c <finite>
    3d5e:	2800      	cmp	r0, #0
    3d60:	d100      	bne.n	3d64 <pow+0x210>
    3d62:	e76a      	b.n	3c3a <pow+0xe6>
    3d64:	9802      	ldr	r0, [sp, #8]
    3d66:	9903      	ldr	r1, [sp, #12]
    3d68:	000b      	movs	r3, r1
    3d6a:	0002      	movs	r2, r0
    3d6c:	f003 f85e 	bl	6e2c <__aeabi_dcmpun>
    3d70:	ab06      	add	r3, sp, #24
    3d72:	4698      	mov	r8, r3
    3d74:	2800      	cmp	r0, #0
    3d76:	d17a      	bne.n	3e6e <pow+0x31a>
    3d78:	2303      	movs	r3, #3
    3d7a:	4642      	mov	r2, r8
    3d7c:	9306      	str	r3, [sp, #24]
    3d7e:	4b4c      	ldr	r3, [pc, #304]	; (3eb0 <pow+0x35c>)
    3d80:	6210      	str	r0, [r2, #32]
    3d82:	6053      	str	r3, [r2, #4]
    3d84:	465b      	mov	r3, fp
    3d86:	781b      	ldrb	r3, [r3, #0]
    3d88:	6094      	str	r4, [r2, #8]
    3d8a:	60d5      	str	r5, [r2, #12]
    3d8c:	b25b      	sxtb	r3, r3
    3d8e:	6116      	str	r6, [r2, #16]
    3d90:	6157      	str	r7, [r2, #20]
    3d92:	4699      	mov	r9, r3
    3d94:	2b00      	cmp	r3, #0
    3d96:	d148      	bne.n	3e2a <pow+0x2d6>
    3d98:	22e0      	movs	r2, #224	; 0xe0
    3d9a:	4641      	mov	r1, r8
    3d9c:	4b47      	ldr	r3, [pc, #284]	; (3ebc <pow+0x368>)
    3d9e:	0612      	lsls	r2, r2, #24
    3da0:	618a      	str	r2, [r1, #24]
    3da2:	61cb      	str	r3, [r1, #28]
    3da4:	0020      	movs	r0, r4
    3da6:	2200      	movs	r2, #0
    3da8:	2300      	movs	r3, #0
    3daa:	0029      	movs	r1, r5
    3dac:	f001 f978 	bl	50a0 <__aeabi_dcmplt>
    3db0:	2800      	cmp	r0, #0
    3db2:	d100      	bne.n	3db6 <pow+0x262>
    3db4:	e773      	b.n	3c9e <pow+0x14a>
    3db6:	2200      	movs	r2, #0
    3db8:	4b41      	ldr	r3, [pc, #260]	; (3ec0 <pow+0x36c>)
    3dba:	0030      	movs	r0, r6
    3dbc:	0039      	movs	r1, r7
    3dbe:	f002 fa67 	bl	6290 <__aeabi_dmul>
    3dc2:	0004      	movs	r4, r0
    3dc4:	000d      	movs	r5, r1
    3dc6:	f000 fec3 	bl	4b50 <rint>
    3dca:	0002      	movs	r2, r0
    3dcc:	000b      	movs	r3, r1
    3dce:	0020      	movs	r0, r4
    3dd0:	0029      	movs	r1, r5
    3dd2:	f001 f95f 	bl	5094 <__aeabi_dcmpeq>
    3dd6:	2800      	cmp	r0, #0
    3dd8:	d105      	bne.n	3de6 <pow+0x292>
    3dda:	22e0      	movs	r2, #224	; 0xe0
    3ddc:	4b39      	ldr	r3, [pc, #228]	; (3ec4 <pow+0x370>)
    3dde:	0612      	lsls	r2, r2, #24
    3de0:	4641      	mov	r1, r8
    3de2:	618a      	str	r2, [r1, #24]
    3de4:	61cb      	str	r3, [r1, #28]
    3de6:	465b      	mov	r3, fp
    3de8:	781b      	ldrb	r3, [r3, #0]
    3dea:	b25b      	sxtb	r3, r3
    3dec:	4699      	mov	r9, r3
    3dee:	464b      	mov	r3, r9
    3df0:	2b02      	cmp	r3, #2
    3df2:	d000      	beq.n	3df6 <pow+0x2a2>
    3df4:	e753      	b.n	3c9e <pow+0x14a>
    3df6:	e757      	b.n	3ca8 <pow+0x154>
    3df8:	ab06      	add	r3, sp, #24
    3dfa:	4698      	mov	r8, r3
    3dfc:	2301      	movs	r3, #1
    3dfe:	4642      	mov	r2, r8
    3e00:	9306      	str	r3, [sp, #24]
    3e02:	4b2b      	ldr	r3, [pc, #172]	; (3eb0 <pow+0x35c>)
    3e04:	6053      	str	r3, [r2, #4]
    3e06:	4643      	mov	r3, r8
    3e08:	609c      	str	r4, [r3, #8]
    3e0a:	60dd      	str	r5, [r3, #12]
    3e0c:	2400      	movs	r4, #0
    3e0e:	9a00      	ldr	r2, [sp, #0]
    3e10:	4d28      	ldr	r5, [pc, #160]	; (3eb4 <pow+0x360>)
    3e12:	621a      	str	r2, [r3, #32]
    3e14:	611e      	str	r6, [r3, #16]
    3e16:	615f      	str	r7, [r3, #20]
    3e18:	619c      	str	r4, [r3, #24]
    3e1a:	61dd      	str	r5, [r3, #28]
    3e1c:	464b      	mov	r3, r9
    3e1e:	9400      	str	r4, [sp, #0]
    3e20:	9501      	str	r5, [sp, #4]
    3e22:	2b02      	cmp	r3, #2
    3e24:	d000      	beq.n	3e28 <pow+0x2d4>
    3e26:	e77b      	b.n	3d20 <pow+0x1cc>
    3e28:	e6e9      	b.n	3bfe <pow+0xaa>
    3e2a:	2200      	movs	r2, #0
    3e2c:	4641      	mov	r1, r8
    3e2e:	4b26      	ldr	r3, [pc, #152]	; (3ec8 <pow+0x374>)
    3e30:	0020      	movs	r0, r4
    3e32:	618a      	str	r2, [r1, #24]
    3e34:	61cb      	str	r3, [r1, #28]
    3e36:	2200      	movs	r2, #0
    3e38:	2300      	movs	r3, #0
    3e3a:	0029      	movs	r1, r5
    3e3c:	f001 f930 	bl	50a0 <__aeabi_dcmplt>
    3e40:	2800      	cmp	r0, #0
    3e42:	d0d4      	beq.n	3dee <pow+0x29a>
    3e44:	2200      	movs	r2, #0
    3e46:	4b1e      	ldr	r3, [pc, #120]	; (3ec0 <pow+0x36c>)
    3e48:	0030      	movs	r0, r6
    3e4a:	0039      	movs	r1, r7
    3e4c:	f002 fa20 	bl	6290 <__aeabi_dmul>
    3e50:	0004      	movs	r4, r0
    3e52:	000d      	movs	r5, r1
    3e54:	f000 fe7c 	bl	4b50 <rint>
    3e58:	0002      	movs	r2, r0
    3e5a:	000b      	movs	r3, r1
    3e5c:	0020      	movs	r0, r4
    3e5e:	0029      	movs	r1, r5
    3e60:	f001 f918 	bl	5094 <__aeabi_dcmpeq>
    3e64:	2800      	cmp	r0, #0
    3e66:	d1be      	bne.n	3de6 <pow+0x292>
    3e68:	2200      	movs	r2, #0
    3e6a:	4b13      	ldr	r3, [pc, #76]	; (3eb8 <pow+0x364>)
    3e6c:	e7b8      	b.n	3de0 <pow+0x28c>
    3e6e:	2301      	movs	r3, #1
    3e70:	4642      	mov	r2, r8
    3e72:	9306      	str	r3, [sp, #24]
    3e74:	4b0e      	ldr	r3, [pc, #56]	; (3eb0 <pow+0x35c>)
    3e76:	6053      	str	r3, [r2, #4]
    3e78:	4643      	mov	r3, r8
    3e7a:	464a      	mov	r2, r9
    3e7c:	609c      	str	r4, [r3, #8]
    3e7e:	60dd      	str	r5, [r3, #12]
    3e80:	621a      	str	r2, [r3, #32]
    3e82:	611e      	str	r6, [r3, #16]
    3e84:	615f      	str	r7, [r3, #20]
    3e86:	2400      	movs	r4, #0
    3e88:	465b      	mov	r3, fp
    3e8a:	571c      	ldrsb	r4, [r3, r4]
    3e8c:	2c00      	cmp	r4, #0
    3e8e:	d100      	bne.n	3e92 <pow+0x33e>
    3e90:	e741      	b.n	3d16 <pow+0x1c2>
    3e92:	2300      	movs	r3, #0
    3e94:	2200      	movs	r2, #0
    3e96:	0019      	movs	r1, r3
    3e98:	0010      	movs	r0, r2
    3e9a:	f001 fdd5 	bl	5a48 <__aeabi_ddiv>
    3e9e:	4643      	mov	r3, r8
    3ea0:	6198      	str	r0, [r3, #24]
    3ea2:	61d9      	str	r1, [r3, #28]
    3ea4:	2c02      	cmp	r4, #2
    3ea6:	d100      	bne.n	3eaa <pow+0x356>
    3ea8:	e730      	b.n	3d0c <pow+0x1b8>
    3eaa:	e739      	b.n	3d20 <pow+0x1cc>
    3eac:	200000b8 	.word	0x200000b8
    3eb0:	00007240 	.word	0x00007240
    3eb4:	3ff00000 	.word	0x3ff00000
    3eb8:	fff00000 	.word	0xfff00000
    3ebc:	47efffff 	.word	0x47efffff
    3ec0:	3fe00000 	.word	0x3fe00000
    3ec4:	c7efffff 	.word	0xc7efffff
    3ec8:	7ff00000 	.word	0x7ff00000

00003ecc <__ieee754_pow>:
    3ecc:	b5f0      	push	{r4, r5, r6, r7, lr}
    3ece:	4656      	mov	r6, sl
    3ed0:	464d      	mov	r5, r9
    3ed2:	4644      	mov	r4, r8
    3ed4:	465f      	mov	r7, fp
    3ed6:	b4f0      	push	{r4, r5, r6, r7}
    3ed8:	001c      	movs	r4, r3
    3eda:	0013      	movs	r3, r2
    3edc:	0067      	lsls	r7, r4, #1
    3ede:	b091      	sub	sp, #68	; 0x44
    3ee0:	087f      	lsrs	r7, r7, #1
    3ee2:	9300      	str	r3, [sp, #0]
    3ee4:	9401      	str	r4, [sp, #4]
    3ee6:	0006      	movs	r6, r0
    3ee8:	000d      	movs	r5, r1
    3eea:	4680      	mov	r8, r0
    3eec:	4689      	mov	r9, r1
    3eee:	46a2      	mov	sl, r4
    3ef0:	433b      	orrs	r3, r7
    3ef2:	d032      	beq.n	3f5a <__ieee754_pow+0x8e>
    3ef4:	4b6e      	ldr	r3, [pc, #440]	; (40b0 <__ieee754_pow+0x1e4>)
    3ef6:	006c      	lsls	r4, r5, #1
    3ef8:	0864      	lsrs	r4, r4, #1
    3efa:	429c      	cmp	r4, r3
    3efc:	dc29      	bgt.n	3f52 <__ieee754_pow+0x86>
    3efe:	d026      	beq.n	3f4e <__ieee754_pow+0x82>
    3f00:	429f      	cmp	r7, r3
    3f02:	dc26      	bgt.n	3f52 <__ieee754_pow+0x86>
    3f04:	4b6a      	ldr	r3, [pc, #424]	; (40b0 <__ieee754_pow+0x1e4>)
    3f06:	429f      	cmp	r7, r3
    3f08:	d100      	bne.n	3f0c <__ieee754_pow+0x40>
    3f0a:	e089      	b.n	4020 <__ieee754_pow+0x154>
    3f0c:	2300      	movs	r3, #0
    3f0e:	469b      	mov	fp, r3
    3f10:	464b      	mov	r3, r9
    3f12:	2b00      	cmp	r3, #0
    3f14:	da00      	bge.n	3f18 <__ieee754_pow+0x4c>
    3f16:	e087      	b.n	4028 <__ieee754_pow+0x15c>
    3f18:	2a00      	cmp	r2, #0
    3f1a:	d12f      	bne.n	3f7c <__ieee754_pow+0xb0>
    3f1c:	4b64      	ldr	r3, [pc, #400]	; (40b0 <__ieee754_pow+0x1e4>)
    3f1e:	429f      	cmp	r7, r3
    3f20:	d100      	bne.n	3f24 <__ieee754_pow+0x58>
    3f22:	e09f      	b.n	4064 <__ieee754_pow+0x198>
    3f24:	4b63      	ldr	r3, [pc, #396]	; (40b4 <__ieee754_pow+0x1e8>)
    3f26:	429f      	cmp	r7, r3
    3f28:	d05d      	beq.n	3fe6 <__ieee754_pow+0x11a>
    3f2a:	2380      	movs	r3, #128	; 0x80
    3f2c:	05db      	lsls	r3, r3, #23
    3f2e:	459a      	cmp	sl, r3
    3f30:	d101      	bne.n	3f36 <__ieee754_pow+0x6a>
    3f32:	f000 fbc1 	bl	46b8 <__ieee754_pow+0x7ec>
    3f36:	4b60      	ldr	r3, [pc, #384]	; (40b8 <__ieee754_pow+0x1ec>)
    3f38:	459a      	cmp	sl, r3
    3f3a:	d11f      	bne.n	3f7c <__ieee754_pow+0xb0>
    3f3c:	464b      	mov	r3, r9
    3f3e:	2b00      	cmp	r3, #0
    3f40:	db1c      	blt.n	3f7c <__ieee754_pow+0xb0>
    3f42:	0030      	movs	r0, r6
    3f44:	0029      	movs	r1, r5
    3f46:	f000 fcf7 	bl	4938 <__ieee754_sqrt>
    3f4a:	0006      	movs	r6, r0
    3f4c:	e007      	b.n	3f5e <__ieee754_pow+0x92>
    3f4e:	2800      	cmp	r0, #0
    3f50:	d00d      	beq.n	3f6e <__ieee754_pow+0xa2>
    3f52:	4b5a      	ldr	r3, [pc, #360]	; (40bc <__ieee754_pow+0x1f0>)
    3f54:	18e0      	adds	r0, r4, r3
    3f56:	4330      	orrs	r0, r6
    3f58:	d10b      	bne.n	3f72 <__ieee754_pow+0xa6>
    3f5a:	2600      	movs	r6, #0
    3f5c:	4955      	ldr	r1, [pc, #340]	; (40b4 <__ieee754_pow+0x1e8>)
    3f5e:	0030      	movs	r0, r6
    3f60:	b011      	add	sp, #68	; 0x44
    3f62:	bc3c      	pop	{r2, r3, r4, r5}
    3f64:	4690      	mov	r8, r2
    3f66:	4699      	mov	r9, r3
    3f68:	46a2      	mov	sl, r4
    3f6a:	46ab      	mov	fp, r5
    3f6c:	bdf0      	pop	{r4, r5, r6, r7, pc}
    3f6e:	42a7      	cmp	r7, r4
    3f70:	ddc8      	ble.n	3f04 <__ieee754_pow+0x38>
    3f72:	4853      	ldr	r0, [pc, #332]	; (40c0 <__ieee754_pow+0x1f4>)
    3f74:	f000 fde6 	bl	4b44 <nan>
    3f78:	0006      	movs	r6, r0
    3f7a:	e7f0      	b.n	3f5e <__ieee754_pow+0x92>
    3f7c:	0030      	movs	r0, r6
    3f7e:	0029      	movs	r1, r5
    3f80:	f000 fdd0 	bl	4b24 <fabs>
    3f84:	4643      	mov	r3, r8
    3f86:	2b00      	cmp	r3, #0
    3f88:	d01d      	beq.n	3fc6 <__ieee754_pow+0xfa>
    3f8a:	0feb      	lsrs	r3, r5, #31
    3f8c:	3b01      	subs	r3, #1
    3f8e:	4698      	mov	r8, r3
    3f90:	465b      	mov	r3, fp
    3f92:	4642      	mov	r2, r8
    3f94:	4313      	orrs	r3, r2
    3f96:	d079      	beq.n	408c <__ieee754_pow+0x1c0>
    3f98:	4b4a      	ldr	r3, [pc, #296]	; (40c4 <__ieee754_pow+0x1f8>)
    3f9a:	429f      	cmp	r7, r3
    3f9c:	dc00      	bgt.n	3fa0 <__ieee754_pow+0xd4>
    3f9e:	e09f      	b.n	40e0 <__ieee754_pow+0x214>
    3fa0:	4b49      	ldr	r3, [pc, #292]	; (40c8 <__ieee754_pow+0x1fc>)
    3fa2:	429f      	cmp	r7, r3
    3fa4:	dc01      	bgt.n	3faa <__ieee754_pow+0xde>
    3fa6:	f000 fbce 	bl	4746 <__ieee754_pow+0x87a>
    3faa:	4b48      	ldr	r3, [pc, #288]	; (40cc <__ieee754_pow+0x200>)
    3fac:	429c      	cmp	r4, r3
    3fae:	dd79      	ble.n	40a4 <__ieee754_pow+0x1d8>
    3fb0:	4653      	mov	r3, sl
    3fb2:	2b00      	cmp	r3, #0
    3fb4:	dd79      	ble.n	40aa <__ieee754_pow+0x1de>
    3fb6:	4a46      	ldr	r2, [pc, #280]	; (40d0 <__ieee754_pow+0x204>)
    3fb8:	4b46      	ldr	r3, [pc, #280]	; (40d4 <__ieee754_pow+0x208>)
    3fba:	0010      	movs	r0, r2
    3fbc:	0019      	movs	r1, r3
    3fbe:	f002 f967 	bl	6290 <__aeabi_dmul>
    3fc2:	0006      	movs	r6, r0
    3fc4:	e7cb      	b.n	3f5e <__ieee754_pow+0x92>
    3fc6:	2c00      	cmp	r4, #0
    3fc8:	d004      	beq.n	3fd4 <__ieee754_pow+0x108>
    3fca:	4a3a      	ldr	r2, [pc, #232]	; (40b4 <__ieee754_pow+0x1e8>)
    3fcc:	00ab      	lsls	r3, r5, #2
    3fce:	089b      	lsrs	r3, r3, #2
    3fd0:	4293      	cmp	r3, r2
    3fd2:	d1da      	bne.n	3f8a <__ieee754_pow+0xbe>
    3fd4:	4653      	mov	r3, sl
    3fd6:	2b00      	cmp	r3, #0
    3fd8:	da00      	bge.n	3fdc <__ieee754_pow+0x110>
    3fda:	e3ad      	b.n	4738 <__ieee754_pow+0x86c>
    3fdc:	464b      	mov	r3, r9
    3fde:	2b00      	cmp	r3, #0
    3fe0:	db0d      	blt.n	3ffe <__ieee754_pow+0x132>
    3fe2:	0006      	movs	r6, r0
    3fe4:	e7bb      	b.n	3f5e <__ieee754_pow+0x92>
    3fe6:	4653      	mov	r3, sl
    3fe8:	0029      	movs	r1, r5
    3fea:	2b00      	cmp	r3, #0
    3fec:	dab7      	bge.n	3f5e <__ieee754_pow+0x92>
    3fee:	0032      	movs	r2, r6
    3ff0:	002b      	movs	r3, r5
    3ff2:	2000      	movs	r0, #0
    3ff4:	492f      	ldr	r1, [pc, #188]	; (40b4 <__ieee754_pow+0x1e8>)
    3ff6:	f001 fd27 	bl	5a48 <__aeabi_ddiv>
    3ffa:	0006      	movs	r6, r0
    3ffc:	e7af      	b.n	3f5e <__ieee754_pow+0x92>
    3ffe:	4b2f      	ldr	r3, [pc, #188]	; (40bc <__ieee754_pow+0x1f0>)
    4000:	469c      	mov	ip, r3
    4002:	465b      	mov	r3, fp
    4004:	4464      	add	r4, ip
    4006:	431c      	orrs	r4, r3
    4008:	d101      	bne.n	400e <__ieee754_pow+0x142>
    400a:	f000 fc2b 	bl	4864 <__ieee754_pow+0x998>
    400e:	465b      	mov	r3, fp
    4010:	0006      	movs	r6, r0
    4012:	2b01      	cmp	r3, #1
    4014:	d1a3      	bne.n	3f5e <__ieee754_pow+0x92>
    4016:	2380      	movs	r3, #128	; 0x80
    4018:	061b      	lsls	r3, r3, #24
    401a:	469c      	mov	ip, r3
    401c:	4461      	add	r1, ip
    401e:	e79e      	b.n	3f5e <__ieee754_pow+0x92>
    4020:	2a00      	cmp	r2, #0
    4022:	d100      	bne.n	4026 <__ieee754_pow+0x15a>
    4024:	e772      	b.n	3f0c <__ieee754_pow+0x40>
    4026:	e794      	b.n	3f52 <__ieee754_pow+0x86>
    4028:	4b2b      	ldr	r3, [pc, #172]	; (40d8 <__ieee754_pow+0x20c>)
    402a:	429f      	cmp	r7, r3
    402c:	dc2b      	bgt.n	4086 <__ieee754_pow+0x1ba>
    402e:	4b27      	ldr	r3, [pc, #156]	; (40cc <__ieee754_pow+0x200>)
    4030:	429f      	cmp	r7, r3
    4032:	dc00      	bgt.n	4036 <__ieee754_pow+0x16a>
    4034:	e770      	b.n	3f18 <__ieee754_pow+0x4c>
    4036:	4929      	ldr	r1, [pc, #164]	; (40dc <__ieee754_pow+0x210>)
    4038:	153b      	asrs	r3, r7, #20
    403a:	468c      	mov	ip, r1
    403c:	4463      	add	r3, ip
    403e:	2b14      	cmp	r3, #20
    4040:	dc01      	bgt.n	4046 <__ieee754_pow+0x17a>
    4042:	f000 fbf2 	bl	482a <__ieee754_pow+0x95e>
    4046:	2134      	movs	r1, #52	; 0x34
    4048:	1acb      	subs	r3, r1, r3
    404a:	9900      	ldr	r1, [sp, #0]
    404c:	40d9      	lsrs	r1, r3
    404e:	0008      	movs	r0, r1
    4050:	4098      	lsls	r0, r3
    4052:	4282      	cmp	r2, r0
    4054:	d000      	beq.n	4058 <__ieee754_pow+0x18c>
    4056:	e75f      	b.n	3f18 <__ieee754_pow+0x4c>
    4058:	2301      	movs	r3, #1
    405a:	4019      	ands	r1, r3
    405c:	3301      	adds	r3, #1
    405e:	1a5b      	subs	r3, r3, r1
    4060:	469b      	mov	fp, r3
    4062:	e759      	b.n	3f18 <__ieee754_pow+0x4c>
    4064:	4b15      	ldr	r3, [pc, #84]	; (40bc <__ieee754_pow+0x1f0>)
    4066:	18e0      	adds	r0, r4, r3
    4068:	4306      	orrs	r6, r0
    406a:	d100      	bne.n	406e <__ieee754_pow+0x1a2>
    406c:	e775      	b.n	3f5a <__ieee754_pow+0x8e>
    406e:	4b17      	ldr	r3, [pc, #92]	; (40cc <__ieee754_pow+0x200>)
    4070:	429c      	cmp	r4, r3
    4072:	dc00      	bgt.n	4076 <__ieee754_pow+0x1aa>
    4074:	e351      	b.n	471a <__ieee754_pow+0x84e>
    4076:	4653      	mov	r3, sl
    4078:	2b00      	cmp	r3, #0
    407a:	db16      	blt.n	40aa <__ieee754_pow+0x1de>
    407c:	9b00      	ldr	r3, [sp, #0]
    407e:	9c01      	ldr	r4, [sp, #4]
    4080:	001e      	movs	r6, r3
    4082:	0021      	movs	r1, r4
    4084:	e76b      	b.n	3f5e <__ieee754_pow+0x92>
    4086:	2302      	movs	r3, #2
    4088:	469b      	mov	fp, r3
    408a:	e745      	b.n	3f18 <__ieee754_pow+0x4c>
    408c:	0032      	movs	r2, r6
    408e:	002b      	movs	r3, r5
    4090:	0030      	movs	r0, r6
    4092:	0029      	movs	r1, r5
    4094:	f002 fb76 	bl	6784 <__aeabi_dsub>
    4098:	0002      	movs	r2, r0
    409a:	000b      	movs	r3, r1
    409c:	f001 fcd4 	bl	5a48 <__aeabi_ddiv>
    40a0:	0006      	movs	r6, r0
    40a2:	e75c      	b.n	3f5e <__ieee754_pow+0x92>
    40a4:	4653      	mov	r3, sl
    40a6:	2b00      	cmp	r3, #0
    40a8:	db85      	blt.n	3fb6 <__ieee754_pow+0xea>
    40aa:	2600      	movs	r6, #0
    40ac:	2100      	movs	r1, #0
    40ae:	e756      	b.n	3f5e <__ieee754_pow+0x92>
    40b0:	7ff00000 	.word	0x7ff00000
    40b4:	3ff00000 	.word	0x3ff00000
    40b8:	3fe00000 	.word	0x3fe00000
    40bc:	c0100000 	.word	0xc0100000
    40c0:	00007244 	.word	0x00007244
    40c4:	41e00000 	.word	0x41e00000
    40c8:	43f00000 	.word	0x43f00000
    40cc:	3fefffff 	.word	0x3fefffff
    40d0:	8800759c 	.word	0x8800759c
    40d4:	7e37e43c 	.word	0x7e37e43c
    40d8:	433fffff 	.word	0x433fffff
    40dc:	fffffc01 	.word	0xfffffc01
    40e0:	4be8      	ldr	r3, [pc, #928]	; (4484 <__ieee754_pow+0x5b8>)
    40e2:	2200      	movs	r2, #0
    40e4:	429c      	cmp	r4, r3
    40e6:	dc06      	bgt.n	40f6 <__ieee754_pow+0x22a>
    40e8:	2200      	movs	r2, #0
    40ea:	4be7      	ldr	r3, [pc, #924]	; (4488 <__ieee754_pow+0x5bc>)
    40ec:	f002 f8d0 	bl	6290 <__aeabi_dmul>
    40f0:	2235      	movs	r2, #53	; 0x35
    40f2:	000c      	movs	r4, r1
    40f4:	4252      	negs	r2, r2
    40f6:	4de5      	ldr	r5, [pc, #916]	; (448c <__ieee754_pow+0x5c0>)
    40f8:	1523      	asrs	r3, r4, #20
    40fa:	46ac      	mov	ip, r5
    40fc:	4463      	add	r3, ip
    40fe:	4699      	mov	r9, r3
    4100:	0324      	lsls	r4, r4, #12
    4102:	4de3      	ldr	r5, [pc, #908]	; (4490 <__ieee754_pow+0x5c4>)
    4104:	4be3      	ldr	r3, [pc, #908]	; (4494 <__ieee754_pow+0x5c8>)
    4106:	0b24      	lsrs	r4, r4, #12
    4108:	4491      	add	r9, r2
    410a:	4325      	orrs	r5, r4
    410c:	429c      	cmp	r4, r3
    410e:	dd09      	ble.n	4124 <__ieee754_pow+0x258>
    4110:	4be1      	ldr	r3, [pc, #900]	; (4498 <__ieee754_pow+0x5cc>)
    4112:	429c      	cmp	r4, r3
    4114:	dc00      	bgt.n	4118 <__ieee754_pow+0x24c>
    4116:	e3a9      	b.n	486c <__ieee754_pow+0x9a0>
    4118:	2301      	movs	r3, #1
    411a:	469c      	mov	ip, r3
    411c:	4bdf      	ldr	r3, [pc, #892]	; (449c <__ieee754_pow+0x5d0>)
    411e:	44e1      	add	r9, ip
    4120:	469c      	mov	ip, r3
    4122:	4465      	add	r5, ip
    4124:	2300      	movs	r3, #0
    4126:	2400      	movs	r4, #0
    4128:	2200      	movs	r2, #0
    412a:	9308      	str	r3, [sp, #32]
    412c:	9409      	str	r4, [sp, #36]	; 0x24
    412e:	930c      	str	r3, [sp, #48]	; 0x30
    4130:	940d      	str	r4, [sp, #52]	; 0x34
    4132:	2400      	movs	r4, #0
    4134:	4bd6      	ldr	r3, [pc, #856]	; (4490 <__ieee754_pow+0x5c4>)
    4136:	9206      	str	r2, [sp, #24]
    4138:	9307      	str	r3, [sp, #28]
    413a:	9a06      	ldr	r2, [sp, #24]
    413c:	9b07      	ldr	r3, [sp, #28]
    413e:	0029      	movs	r1, r5
    4140:	900a      	str	r0, [sp, #40]	; 0x28
    4142:	910b      	str	r1, [sp, #44]	; 0x2c
    4144:	f002 fb1e 	bl	6784 <__aeabi_dsub>
    4148:	9a06      	ldr	r2, [sp, #24]
    414a:	9b07      	ldr	r3, [sp, #28]
    414c:	0006      	movs	r6, r0
    414e:	000f      	movs	r7, r1
    4150:	980a      	ldr	r0, [sp, #40]	; 0x28
    4152:	990b      	ldr	r1, [sp, #44]	; 0x2c
    4154:	f001 f94c 	bl	53f0 <__aeabi_dadd>
    4158:	0002      	movs	r2, r0
    415a:	000b      	movs	r3, r1
    415c:	2000      	movs	r0, #0
    415e:	49cc      	ldr	r1, [pc, #816]	; (4490 <__ieee754_pow+0x5c4>)
    4160:	f001 fc72 	bl	5a48 <__aeabi_ddiv>
    4164:	000a      	movs	r2, r1
    4166:	0001      	movs	r1, r0
    4168:	0013      	movs	r3, r2
    416a:	910e      	str	r1, [sp, #56]	; 0x38
    416c:	920f      	str	r2, [sp, #60]	; 0x3c
    416e:	0002      	movs	r2, r0
    4170:	0039      	movs	r1, r7
    4172:	0030      	movs	r0, r6
    4174:	f002 f88c 	bl	6290 <__aeabi_dmul>
    4178:	000a      	movs	r2, r1
    417a:	0001      	movs	r1, r0
    417c:	2080      	movs	r0, #128	; 0x80
    417e:	9104      	str	r1, [sp, #16]
    4180:	9205      	str	r2, [sp, #20]
    4182:	0013      	movs	r3, r2
    4184:	2200      	movs	r2, #0
    4186:	2180      	movs	r1, #128	; 0x80
    4188:	0300      	lsls	r0, r0, #12
    418a:	4684      	mov	ip, r0
    418c:	9202      	str	r2, [sp, #8]
    418e:	9303      	str	r3, [sp, #12]
    4190:	2200      	movs	r2, #0
    4192:	0589      	lsls	r1, r1, #22
    4194:	106d      	asrs	r5, r5, #1
    4196:	430d      	orrs	r5, r1
    4198:	4465      	add	r5, ip
    419a:	192b      	adds	r3, r5, r4
    419c:	9802      	ldr	r0, [sp, #8]
    419e:	9903      	ldr	r1, [sp, #12]
    41a0:	0014      	movs	r4, r2
    41a2:	001d      	movs	r5, r3
    41a4:	f002 f874 	bl	6290 <__aeabi_dmul>
    41a8:	0002      	movs	r2, r0
    41aa:	000b      	movs	r3, r1
    41ac:	0030      	movs	r0, r6
    41ae:	0039      	movs	r1, r7
    41b0:	f002 fae8 	bl	6784 <__aeabi_dsub>
    41b4:	9a06      	ldr	r2, [sp, #24]
    41b6:	9b07      	ldr	r3, [sp, #28]
    41b8:	0006      	movs	r6, r0
    41ba:	000f      	movs	r7, r1
    41bc:	0020      	movs	r0, r4
    41be:	0029      	movs	r1, r5
    41c0:	f002 fae0 	bl	6784 <__aeabi_dsub>
    41c4:	0002      	movs	r2, r0
    41c6:	000b      	movs	r3, r1
    41c8:	980a      	ldr	r0, [sp, #40]	; 0x28
    41ca:	990b      	ldr	r1, [sp, #44]	; 0x2c
    41cc:	f002 fada 	bl	6784 <__aeabi_dsub>
    41d0:	9a02      	ldr	r2, [sp, #8]
    41d2:	9b03      	ldr	r3, [sp, #12]
    41d4:	f002 f85c 	bl	6290 <__aeabi_dmul>
    41d8:	0002      	movs	r2, r0
    41da:	000b      	movs	r3, r1
    41dc:	0030      	movs	r0, r6
    41de:	0039      	movs	r1, r7
    41e0:	f002 fad0 	bl	6784 <__aeabi_dsub>
    41e4:	9a0e      	ldr	r2, [sp, #56]	; 0x38
    41e6:	9b0f      	ldr	r3, [sp, #60]	; 0x3c
    41e8:	f002 f852 	bl	6290 <__aeabi_dmul>
    41ec:	9d04      	ldr	r5, [sp, #16]
    41ee:	9e05      	ldr	r6, [sp, #20]
    41f0:	9006      	str	r0, [sp, #24]
    41f2:	9107      	str	r1, [sp, #28]
    41f4:	002a      	movs	r2, r5
    41f6:	0033      	movs	r3, r6
    41f8:	0028      	movs	r0, r5
    41fa:	0031      	movs	r1, r6
    41fc:	f002 f848 	bl	6290 <__aeabi_dmul>
    4200:	0006      	movs	r6, r0
    4202:	000f      	movs	r7, r1
    4204:	4aa6      	ldr	r2, [pc, #664]	; (44a0 <__ieee754_pow+0x5d4>)
    4206:	4ba7      	ldr	r3, [pc, #668]	; (44a4 <__ieee754_pow+0x5d8>)
    4208:	f002 f842 	bl	6290 <__aeabi_dmul>
    420c:	4aa6      	ldr	r2, [pc, #664]	; (44a8 <__ieee754_pow+0x5dc>)
    420e:	4ba7      	ldr	r3, [pc, #668]	; (44ac <__ieee754_pow+0x5e0>)
    4210:	f001 f8ee 	bl	53f0 <__aeabi_dadd>
    4214:	0032      	movs	r2, r6
    4216:	003b      	movs	r3, r7
    4218:	f002 f83a 	bl	6290 <__aeabi_dmul>
    421c:	4aa4      	ldr	r2, [pc, #656]	; (44b0 <__ieee754_pow+0x5e4>)
    421e:	4ba5      	ldr	r3, [pc, #660]	; (44b4 <__ieee754_pow+0x5e8>)
    4220:	f001 f8e6 	bl	53f0 <__aeabi_dadd>
    4224:	0032      	movs	r2, r6
    4226:	003b      	movs	r3, r7
    4228:	f002 f832 	bl	6290 <__aeabi_dmul>
    422c:	4aa2      	ldr	r2, [pc, #648]	; (44b8 <__ieee754_pow+0x5ec>)
    422e:	4ba3      	ldr	r3, [pc, #652]	; (44bc <__ieee754_pow+0x5f0>)
    4230:	f001 f8de 	bl	53f0 <__aeabi_dadd>
    4234:	0032      	movs	r2, r6
    4236:	003b      	movs	r3, r7
    4238:	f002 f82a 	bl	6290 <__aeabi_dmul>
    423c:	4aa0      	ldr	r2, [pc, #640]	; (44c0 <__ieee754_pow+0x5f4>)
    423e:	4ba1      	ldr	r3, [pc, #644]	; (44c4 <__ieee754_pow+0x5f8>)
    4240:	f001 f8d6 	bl	53f0 <__aeabi_dadd>
    4244:	0032      	movs	r2, r6
    4246:	003b      	movs	r3, r7
    4248:	f002 f822 	bl	6290 <__aeabi_dmul>
    424c:	4a9e      	ldr	r2, [pc, #632]	; (44c8 <__ieee754_pow+0x5fc>)
    424e:	4b9f      	ldr	r3, [pc, #636]	; (44cc <__ieee754_pow+0x600>)
    4250:	f001 f8ce 	bl	53f0 <__aeabi_dadd>
    4254:	0032      	movs	r2, r6
    4256:	0004      	movs	r4, r0
    4258:	000d      	movs	r5, r1
    425a:	003b      	movs	r3, r7
    425c:	0030      	movs	r0, r6
    425e:	0039      	movs	r1, r7
    4260:	f002 f816 	bl	6290 <__aeabi_dmul>
    4264:	0002      	movs	r2, r0
    4266:	000b      	movs	r3, r1
    4268:	0020      	movs	r0, r4
    426a:	0029      	movs	r1, r5
    426c:	f002 f810 	bl	6290 <__aeabi_dmul>
    4270:	9e02      	ldr	r6, [sp, #8]
    4272:	9f03      	ldr	r7, [sp, #12]
    4274:	0004      	movs	r4, r0
    4276:	000d      	movs	r5, r1
    4278:	9804      	ldr	r0, [sp, #16]
    427a:	9905      	ldr	r1, [sp, #20]
    427c:	0032      	movs	r2, r6
    427e:	003b      	movs	r3, r7
    4280:	f001 f8b6 	bl	53f0 <__aeabi_dadd>
    4284:	9a06      	ldr	r2, [sp, #24]
    4286:	9b07      	ldr	r3, [sp, #28]
    4288:	f002 f802 	bl	6290 <__aeabi_dmul>
    428c:	0022      	movs	r2, r4
    428e:	002b      	movs	r3, r5
    4290:	f001 f8ae 	bl	53f0 <__aeabi_dadd>
    4294:	0032      	movs	r2, r6
    4296:	900a      	str	r0, [sp, #40]	; 0x28
    4298:	910b      	str	r1, [sp, #44]	; 0x2c
    429a:	003b      	movs	r3, r7
    429c:	0030      	movs	r0, r6
    429e:	0039      	movs	r1, r7
    42a0:	9602      	str	r6, [sp, #8]
    42a2:	9703      	str	r7, [sp, #12]
    42a4:	f001 fff4 	bl	6290 <__aeabi_dmul>
    42a8:	2200      	movs	r2, #0
    42aa:	4b89      	ldr	r3, [pc, #548]	; (44d0 <__ieee754_pow+0x604>)
    42ac:	0004      	movs	r4, r0
    42ae:	000d      	movs	r5, r1
    42b0:	f001 f89e 	bl	53f0 <__aeabi_dadd>
    42b4:	9a0a      	ldr	r2, [sp, #40]	; 0x28
    42b6:	9b0b      	ldr	r3, [sp, #44]	; 0x2c
    42b8:	f001 f89a 	bl	53f0 <__aeabi_dadd>
    42bc:	2600      	movs	r6, #0
    42be:	000f      	movs	r7, r1
    42c0:	0032      	movs	r2, r6
    42c2:	000b      	movs	r3, r1
    42c4:	9802      	ldr	r0, [sp, #8]
    42c6:	9903      	ldr	r1, [sp, #12]
    42c8:	f001 ffe2 	bl	6290 <__aeabi_dmul>
    42cc:	2200      	movs	r2, #0
    42ce:	9002      	str	r0, [sp, #8]
    42d0:	9103      	str	r1, [sp, #12]
    42d2:	4b7f      	ldr	r3, [pc, #508]	; (44d0 <__ieee754_pow+0x604>)
    42d4:	0030      	movs	r0, r6
    42d6:	0039      	movs	r1, r7
    42d8:	f002 fa54 	bl	6784 <__aeabi_dsub>
    42dc:	0022      	movs	r2, r4
    42de:	002b      	movs	r3, r5
    42e0:	f002 fa50 	bl	6784 <__aeabi_dsub>
    42e4:	0002      	movs	r2, r0
    42e6:	000b      	movs	r3, r1
    42e8:	980a      	ldr	r0, [sp, #40]	; 0x28
    42ea:	990b      	ldr	r1, [sp, #44]	; 0x2c
    42ec:	f002 fa4a 	bl	6784 <__aeabi_dsub>
    42f0:	9a04      	ldr	r2, [sp, #16]
    42f2:	9b05      	ldr	r3, [sp, #20]
    42f4:	f001 ffcc 	bl	6290 <__aeabi_dmul>
    42f8:	0032      	movs	r2, r6
    42fa:	0004      	movs	r4, r0
    42fc:	000d      	movs	r5, r1
    42fe:	9806      	ldr	r0, [sp, #24]
    4300:	9907      	ldr	r1, [sp, #28]
    4302:	003b      	movs	r3, r7
    4304:	f001 ffc4 	bl	6290 <__aeabi_dmul>
    4308:	0002      	movs	r2, r0
    430a:	000b      	movs	r3, r1
    430c:	0020      	movs	r0, r4
    430e:	0029      	movs	r1, r5
    4310:	f001 f86e 	bl	53f0 <__aeabi_dadd>
    4314:	0004      	movs	r4, r0
    4316:	000d      	movs	r5, r1
    4318:	0002      	movs	r2, r0
    431a:	000b      	movs	r3, r1
    431c:	9802      	ldr	r0, [sp, #8]
    431e:	9903      	ldr	r1, [sp, #12]
    4320:	f001 f866 	bl	53f0 <__aeabi_dadd>
    4324:	2600      	movs	r6, #0
    4326:	22e0      	movs	r2, #224	; 0xe0
    4328:	4b6a      	ldr	r3, [pc, #424]	; (44d4 <__ieee754_pow+0x608>)
    432a:	0612      	lsls	r2, r2, #24
    432c:	0030      	movs	r0, r6
    432e:	000f      	movs	r7, r1
    4330:	f001 ffae 	bl	6290 <__aeabi_dmul>
    4334:	9a02      	ldr	r2, [sp, #8]
    4336:	9b03      	ldr	r3, [sp, #12]
    4338:	9004      	str	r0, [sp, #16]
    433a:	9105      	str	r1, [sp, #20]
    433c:	0030      	movs	r0, r6
    433e:	0039      	movs	r1, r7
    4340:	f002 fa20 	bl	6784 <__aeabi_dsub>
    4344:	0002      	movs	r2, r0
    4346:	000b      	movs	r3, r1
    4348:	0020      	movs	r0, r4
    434a:	0029      	movs	r1, r5
    434c:	f002 fa1a 	bl	6784 <__aeabi_dsub>
    4350:	4a61      	ldr	r2, [pc, #388]	; (44d8 <__ieee754_pow+0x60c>)
    4352:	4b60      	ldr	r3, [pc, #384]	; (44d4 <__ieee754_pow+0x608>)
    4354:	f001 ff9c 	bl	6290 <__aeabi_dmul>
    4358:	4a60      	ldr	r2, [pc, #384]	; (44dc <__ieee754_pow+0x610>)
    435a:	0004      	movs	r4, r0
    435c:	000d      	movs	r5, r1
    435e:	4b60      	ldr	r3, [pc, #384]	; (44e0 <__ieee754_pow+0x614>)
    4360:	0030      	movs	r0, r6
    4362:	0039      	movs	r1, r7
    4364:	f001 ff94 	bl	6290 <__aeabi_dmul>
    4368:	0002      	movs	r2, r0
    436a:	000b      	movs	r3, r1
    436c:	0020      	movs	r0, r4
    436e:	0029      	movs	r1, r5
    4370:	f001 f83e 	bl	53f0 <__aeabi_dadd>
    4374:	9a0c      	ldr	r2, [sp, #48]	; 0x30
    4376:	9b0d      	ldr	r3, [sp, #52]	; 0x34
    4378:	f001 f83a 	bl	53f0 <__aeabi_dadd>
    437c:	0006      	movs	r6, r0
    437e:	4648      	mov	r0, r9
    4380:	000f      	movs	r7, r1
    4382:	f002 fda9 	bl	6ed8 <__aeabi_i2d>
    4386:	0004      	movs	r4, r0
    4388:	000d      	movs	r5, r1
    438a:	9804      	ldr	r0, [sp, #16]
    438c:	9905      	ldr	r1, [sp, #20]
    438e:	0032      	movs	r2, r6
    4390:	003b      	movs	r3, r7
    4392:	f001 f82d 	bl	53f0 <__aeabi_dadd>
    4396:	9a08      	ldr	r2, [sp, #32]
    4398:	9b09      	ldr	r3, [sp, #36]	; 0x24
    439a:	f001 f829 	bl	53f0 <__aeabi_dadd>
    439e:	0022      	movs	r2, r4
    43a0:	002b      	movs	r3, r5
    43a2:	f001 f825 	bl	53f0 <__aeabi_dadd>
    43a6:	2000      	movs	r0, #0
    43a8:	0022      	movs	r2, r4
    43aa:	002b      	movs	r3, r5
    43ac:	9002      	str	r0, [sp, #8]
    43ae:	9103      	str	r1, [sp, #12]
    43b0:	f002 f9e8 	bl	6784 <__aeabi_dsub>
    43b4:	9a08      	ldr	r2, [sp, #32]
    43b6:	9b09      	ldr	r3, [sp, #36]	; 0x24
    43b8:	f002 f9e4 	bl	6784 <__aeabi_dsub>
    43bc:	9a04      	ldr	r2, [sp, #16]
    43be:	9b05      	ldr	r3, [sp, #20]
    43c0:	f002 f9e0 	bl	6784 <__aeabi_dsub>
    43c4:	0002      	movs	r2, r0
    43c6:	000b      	movs	r3, r1
    43c8:	0030      	movs	r0, r6
    43ca:	0039      	movs	r1, r7
    43cc:	f002 f9da 	bl	6784 <__aeabi_dsub>
    43d0:	9004      	str	r0, [sp, #16]
    43d2:	9105      	str	r1, [sp, #20]
    43d4:	465b      	mov	r3, fp
    43d6:	4642      	mov	r2, r8
    43d8:	3b01      	subs	r3, #1
    43da:	4313      	orrs	r3, r2
    43dc:	d100      	bne.n	43e0 <__ieee754_pow+0x514>
    43de:	e197      	b.n	4710 <__ieee754_pow+0x844>
    43e0:	2300      	movs	r3, #0
    43e2:	4c2b      	ldr	r4, [pc, #172]	; (4490 <__ieee754_pow+0x5c4>)
    43e4:	9306      	str	r3, [sp, #24]
    43e6:	9407      	str	r4, [sp, #28]
    43e8:	9800      	ldr	r0, [sp, #0]
    43ea:	9901      	ldr	r1, [sp, #4]
    43ec:	2600      	movs	r6, #0
    43ee:	000b      	movs	r3, r1
    43f0:	0032      	movs	r2, r6
    43f2:	000f      	movs	r7, r1
    43f4:	f002 f9c6 	bl	6784 <__aeabi_dsub>
    43f8:	9a02      	ldr	r2, [sp, #8]
    43fa:	9b03      	ldr	r3, [sp, #12]
    43fc:	f001 ff48 	bl	6290 <__aeabi_dmul>
    4400:	9a00      	ldr	r2, [sp, #0]
    4402:	9b01      	ldr	r3, [sp, #4]
    4404:	0004      	movs	r4, r0
    4406:	000d      	movs	r5, r1
    4408:	9804      	ldr	r0, [sp, #16]
    440a:	9905      	ldr	r1, [sp, #20]
    440c:	f001 ff40 	bl	6290 <__aeabi_dmul>
    4410:	0002      	movs	r2, r0
    4412:	000b      	movs	r3, r1
    4414:	0020      	movs	r0, r4
    4416:	0029      	movs	r1, r5
    4418:	f000 ffea 	bl	53f0 <__aeabi_dadd>
    441c:	0004      	movs	r4, r0
    441e:	000d      	movs	r5, r1
    4420:	9802      	ldr	r0, [sp, #8]
    4422:	9903      	ldr	r1, [sp, #12]
    4424:	003b      	movs	r3, r7
    4426:	0032      	movs	r2, r6
    4428:	9404      	str	r4, [sp, #16]
    442a:	9505      	str	r5, [sp, #20]
    442c:	f001 ff30 	bl	6290 <__aeabi_dmul>
    4430:	9000      	str	r0, [sp, #0]
    4432:	9101      	str	r1, [sp, #4]
    4434:	000b      	movs	r3, r1
    4436:	0002      	movs	r2, r0
    4438:	0029      	movs	r1, r5
    443a:	0020      	movs	r0, r4
    443c:	f000 ffd8 	bl	53f0 <__aeabi_dadd>
    4440:	4b28      	ldr	r3, [pc, #160]	; (44e4 <__ieee754_pow+0x618>)
    4442:	4681      	mov	r9, r0
    4444:	1e0f      	subs	r7, r1, #0
    4446:	468a      	mov	sl, r1
    4448:	429f      	cmp	r7, r3
    444a:	dc00      	bgt.n	444e <__ieee754_pow+0x582>
    444c:	e13c      	b.n	46c8 <__ieee754_pow+0x7fc>
    444e:	4b26      	ldr	r3, [pc, #152]	; (44e8 <__ieee754_pow+0x61c>)
    4450:	18cb      	adds	r3, r1, r3
    4452:	4303      	orrs	r3, r0
    4454:	d000      	beq.n	4458 <__ieee754_pow+0x58c>
    4456:	e1db      	b.n	4810 <__ieee754_pow+0x944>
    4458:	9804      	ldr	r0, [sp, #16]
    445a:	9905      	ldr	r1, [sp, #20]
    445c:	4a23      	ldr	r2, [pc, #140]	; (44ec <__ieee754_pow+0x620>)
    445e:	4b24      	ldr	r3, [pc, #144]	; (44f0 <__ieee754_pow+0x624>)
    4460:	f000 ffc6 	bl	53f0 <__aeabi_dadd>
    4464:	9a00      	ldr	r2, [sp, #0]
    4466:	9b01      	ldr	r3, [sp, #4]
    4468:	0004      	movs	r4, r0
    446a:	000d      	movs	r5, r1
    446c:	4648      	mov	r0, r9
    446e:	0039      	movs	r1, r7
    4470:	f002 f988 	bl	6784 <__aeabi_dsub>
    4474:	0002      	movs	r2, r0
    4476:	000b      	movs	r3, r1
    4478:	0020      	movs	r0, r4
    447a:	0029      	movs	r1, r5
    447c:	f000 fe24 	bl	50c8 <__aeabi_dcmpgt>
    4480:	003e      	movs	r6, r7
    4482:	e037      	b.n	44f4 <__ieee754_pow+0x628>
    4484:	000fffff 	.word	0x000fffff
    4488:	43400000 	.word	0x43400000
    448c:	fffffc01 	.word	0xfffffc01
    4490:	3ff00000 	.word	0x3ff00000
    4494:	0003988e 	.word	0x0003988e
    4498:	000bb679 	.word	0x000bb679
    449c:	fff00000 	.word	0xfff00000
    44a0:	4a454eef 	.word	0x4a454eef
    44a4:	3fca7e28 	.word	0x3fca7e28
    44a8:	93c9db65 	.word	0x93c9db65
    44ac:	3fcd864a 	.word	0x3fcd864a
    44b0:	a91d4101 	.word	0xa91d4101
    44b4:	3fd17460 	.word	0x3fd17460
    44b8:	518f264d 	.word	0x518f264d
    44bc:	3fd55555 	.word	0x3fd55555
    44c0:	db6fabff 	.word	0xdb6fabff
    44c4:	3fdb6db6 	.word	0x3fdb6db6
    44c8:	33333303 	.word	0x33333303
    44cc:	3fe33333 	.word	0x3fe33333
    44d0:	40080000 	.word	0x40080000
    44d4:	3feec709 	.word	0x3feec709
    44d8:	dc3a03fd 	.word	0xdc3a03fd
    44dc:	145b01f5 	.word	0x145b01f5
    44e0:	be3e2fe0 	.word	0xbe3e2fe0
    44e4:	408fffff 	.word	0x408fffff
    44e8:	bf700000 	.word	0xbf700000
    44ec:	652b82fe 	.word	0x652b82fe
    44f0:	3c971547 	.word	0x3c971547
    44f4:	2800      	cmp	r0, #0
    44f6:	d000      	beq.n	44fa <__ieee754_pow+0x62e>
    44f8:	e18a      	b.n	4810 <__ieee754_pow+0x944>
    44fa:	2280      	movs	r2, #128	; 0x80
    44fc:	4be7      	ldr	r3, [pc, #924]	; (489c <__ieee754_pow+0x9d0>)
    44fe:	0352      	lsls	r2, r2, #13
    4500:	469c      	mov	ip, r3
    4502:	0013      	movs	r3, r2
    4504:	1536      	asrs	r6, r6, #20
    4506:	4466      	add	r6, ip
    4508:	4133      	asrs	r3, r6
    450a:	49e5      	ldr	r1, [pc, #916]	; (48a0 <__ieee754_pow+0x9d4>)
    450c:	19db      	adds	r3, r3, r7
    450e:	005e      	lsls	r6, r3, #1
    4510:	001c      	movs	r4, r3
    4512:	031b      	lsls	r3, r3, #12
    4514:	468c      	mov	ip, r1
    4516:	0b1b      	lsrs	r3, r3, #12
    4518:	4313      	orrs	r3, r2
    451a:	2214      	movs	r2, #20
    451c:	0d76      	lsrs	r6, r6, #21
    451e:	4fe1      	ldr	r7, [pc, #900]	; (48a4 <__ieee754_pow+0x9d8>)
    4520:	4466      	add	r6, ip
    4522:	4137      	asrs	r7, r6
    4524:	1b96      	subs	r6, r2, r6
    4526:	4133      	asrs	r3, r6
    4528:	4698      	mov	r8, r3
    452a:	4653      	mov	r3, sl
    452c:	43bc      	bics	r4, r7
    452e:	2000      	movs	r0, #0
    4530:	0021      	movs	r1, r4
    4532:	2b00      	cmp	r3, #0
    4534:	da00      	bge.n	4538 <__ieee754_pow+0x66c>
    4536:	e1a9      	b.n	488c <__ieee754_pow+0x9c0>
    4538:	0002      	movs	r2, r0
    453a:	000b      	movs	r3, r1
    453c:	9800      	ldr	r0, [sp, #0]
    453e:	9901      	ldr	r1, [sp, #4]
    4540:	f002 f920 	bl	6784 <__aeabi_dsub>
    4544:	000b      	movs	r3, r1
    4546:	9000      	str	r0, [sp, #0]
    4548:	9101      	str	r1, [sp, #4]
    454a:	0002      	movs	r2, r0
    454c:	9804      	ldr	r0, [sp, #16]
    454e:	9905      	ldr	r1, [sp, #20]
    4550:	f000 ff4e 	bl	53f0 <__aeabi_dadd>
    4554:	4643      	mov	r3, r8
    4556:	051b      	lsls	r3, r3, #20
    4558:	4699      	mov	r9, r3
    455a:	2000      	movs	r0, #0
    455c:	2200      	movs	r2, #0
    455e:	4bd2      	ldr	r3, [pc, #840]	; (48a8 <__ieee754_pow+0x9dc>)
    4560:	0006      	movs	r6, r0
    4562:	000f      	movs	r7, r1
    4564:	f001 fe94 	bl	6290 <__aeabi_dmul>
    4568:	9a00      	ldr	r2, [sp, #0]
    456a:	9b01      	ldr	r3, [sp, #4]
    456c:	9002      	str	r0, [sp, #8]
    456e:	9103      	str	r1, [sp, #12]
    4570:	0030      	movs	r0, r6
    4572:	0039      	movs	r1, r7
    4574:	f002 f906 	bl	6784 <__aeabi_dsub>
    4578:	0002      	movs	r2, r0
    457a:	000b      	movs	r3, r1
    457c:	9804      	ldr	r0, [sp, #16]
    457e:	9905      	ldr	r1, [sp, #20]
    4580:	f002 f900 	bl	6784 <__aeabi_dsub>
    4584:	4ac9      	ldr	r2, [pc, #804]	; (48ac <__ieee754_pow+0x9e0>)
    4586:	4bca      	ldr	r3, [pc, #808]	; (48b0 <__ieee754_pow+0x9e4>)
    4588:	f001 fe82 	bl	6290 <__aeabi_dmul>
    458c:	4ac9      	ldr	r2, [pc, #804]	; (48b4 <__ieee754_pow+0x9e8>)
    458e:	0004      	movs	r4, r0
    4590:	000d      	movs	r5, r1
    4592:	4bc9      	ldr	r3, [pc, #804]	; (48b8 <__ieee754_pow+0x9ec>)
    4594:	0030      	movs	r0, r6
    4596:	0039      	movs	r1, r7
    4598:	f001 fe7a 	bl	6290 <__aeabi_dmul>
    459c:	0002      	movs	r2, r0
    459e:	000b      	movs	r3, r1
    45a0:	0020      	movs	r0, r4
    45a2:	0029      	movs	r1, r5
    45a4:	f000 ff24 	bl	53f0 <__aeabi_dadd>
    45a8:	0004      	movs	r4, r0
    45aa:	000d      	movs	r5, r1
    45ac:	0002      	movs	r2, r0
    45ae:	000b      	movs	r3, r1
    45b0:	9802      	ldr	r0, [sp, #8]
    45b2:	9903      	ldr	r1, [sp, #12]
    45b4:	f000 ff1c 	bl	53f0 <__aeabi_dadd>
    45b8:	9a02      	ldr	r2, [sp, #8]
    45ba:	9b03      	ldr	r3, [sp, #12]
    45bc:	0006      	movs	r6, r0
    45be:	000f      	movs	r7, r1
    45c0:	f002 f8e0 	bl	6784 <__aeabi_dsub>
    45c4:	0002      	movs	r2, r0
    45c6:	000b      	movs	r3, r1
    45c8:	0020      	movs	r0, r4
    45ca:	0029      	movs	r1, r5
    45cc:	f002 f8da 	bl	6784 <__aeabi_dsub>
    45d0:	0032      	movs	r2, r6
    45d2:	9000      	str	r0, [sp, #0]
    45d4:	9101      	str	r1, [sp, #4]
    45d6:	003b      	movs	r3, r7
    45d8:	0030      	movs	r0, r6
    45da:	0039      	movs	r1, r7
    45dc:	f001 fe58 	bl	6290 <__aeabi_dmul>
    45e0:	0004      	movs	r4, r0
    45e2:	000d      	movs	r5, r1
    45e4:	4ab5      	ldr	r2, [pc, #724]	; (48bc <__ieee754_pow+0x9f0>)
    45e6:	4bb6      	ldr	r3, [pc, #728]	; (48c0 <__ieee754_pow+0x9f4>)
    45e8:	f001 fe52 	bl	6290 <__aeabi_dmul>
    45ec:	4ab5      	ldr	r2, [pc, #724]	; (48c4 <__ieee754_pow+0x9f8>)
    45ee:	4bb6      	ldr	r3, [pc, #728]	; (48c8 <__ieee754_pow+0x9fc>)
    45f0:	f002 f8c8 	bl	6784 <__aeabi_dsub>
    45f4:	0022      	movs	r2, r4
    45f6:	002b      	movs	r3, r5
    45f8:	f001 fe4a 	bl	6290 <__aeabi_dmul>
    45fc:	4ab3      	ldr	r2, [pc, #716]	; (48cc <__ieee754_pow+0xa00>)
    45fe:	4bb4      	ldr	r3, [pc, #720]	; (48d0 <__ieee754_pow+0xa04>)
    4600:	f000 fef6 	bl	53f0 <__aeabi_dadd>
    4604:	0022      	movs	r2, r4
    4606:	002b      	movs	r3, r5
    4608:	f001 fe42 	bl	6290 <__aeabi_dmul>
    460c:	4ab1      	ldr	r2, [pc, #708]	; (48d4 <__ieee754_pow+0xa08>)
    460e:	4bb2      	ldr	r3, [pc, #712]	; (48d8 <__ieee754_pow+0xa0c>)
    4610:	f002 f8b8 	bl	6784 <__aeabi_dsub>
    4614:	0022      	movs	r2, r4
    4616:	002b      	movs	r3, r5
    4618:	f001 fe3a 	bl	6290 <__aeabi_dmul>
    461c:	4aaf      	ldr	r2, [pc, #700]	; (48dc <__ieee754_pow+0xa10>)
    461e:	4bb0      	ldr	r3, [pc, #704]	; (48e0 <__ieee754_pow+0xa14>)
    4620:	f000 fee6 	bl	53f0 <__aeabi_dadd>
    4624:	0022      	movs	r2, r4
    4626:	002b      	movs	r3, r5
    4628:	f001 fe32 	bl	6290 <__aeabi_dmul>
    462c:	0002      	movs	r2, r0
    462e:	000b      	movs	r3, r1
    4630:	0030      	movs	r0, r6
    4632:	0039      	movs	r1, r7
    4634:	f002 f8a6 	bl	6784 <__aeabi_dsub>
    4638:	0004      	movs	r4, r0
    463a:	000d      	movs	r5, r1
    463c:	0002      	movs	r2, r0
    463e:	000b      	movs	r3, r1
    4640:	0030      	movs	r0, r6
    4642:	0039      	movs	r1, r7
    4644:	f001 fe24 	bl	6290 <__aeabi_dmul>
    4648:	2380      	movs	r3, #128	; 0x80
    464a:	9002      	str	r0, [sp, #8]
    464c:	9103      	str	r1, [sp, #12]
    464e:	2200      	movs	r2, #0
    4650:	05db      	lsls	r3, r3, #23
    4652:	0020      	movs	r0, r4
    4654:	0029      	movs	r1, r5
    4656:	f002 f895 	bl	6784 <__aeabi_dsub>
    465a:	0002      	movs	r2, r0
    465c:	000b      	movs	r3, r1
    465e:	9802      	ldr	r0, [sp, #8]
    4660:	9903      	ldr	r1, [sp, #12]
    4662:	f001 f9f1 	bl	5a48 <__aeabi_ddiv>
    4666:	9a00      	ldr	r2, [sp, #0]
    4668:	9b01      	ldr	r3, [sp, #4]
    466a:	0004      	movs	r4, r0
    466c:	000d      	movs	r5, r1
    466e:	0030      	movs	r0, r6
    4670:	0039      	movs	r1, r7
    4672:	f001 fe0d 	bl	6290 <__aeabi_dmul>
    4676:	9a00      	ldr	r2, [sp, #0]
    4678:	9b01      	ldr	r3, [sp, #4]
    467a:	f000 feb9 	bl	53f0 <__aeabi_dadd>
    467e:	0002      	movs	r2, r0
    4680:	000b      	movs	r3, r1
    4682:	0020      	movs	r0, r4
    4684:	0029      	movs	r1, r5
    4686:	f002 f87d 	bl	6784 <__aeabi_dsub>
    468a:	0032      	movs	r2, r6
    468c:	003b      	movs	r3, r7
    468e:	f002 f879 	bl	6784 <__aeabi_dsub>
    4692:	0002      	movs	r2, r0
    4694:	000b      	movs	r3, r1
    4696:	2000      	movs	r0, #0
    4698:	4992      	ldr	r1, [pc, #584]	; (48e4 <__ieee754_pow+0xa18>)
    469a:	f002 f873 	bl	6784 <__aeabi_dsub>
    469e:	464b      	mov	r3, r9
    46a0:	185b      	adds	r3, r3, r1
    46a2:	151a      	asrs	r2, r3, #20
    46a4:	2a00      	cmp	r2, #0
    46a6:	dc00      	bgt.n	46aa <__ieee754_pow+0x7de>
    46a8:	e0f4      	b.n	4894 <__ieee754_pow+0x9c8>
    46aa:	0019      	movs	r1, r3
    46ac:	9a06      	ldr	r2, [sp, #24]
    46ae:	9b07      	ldr	r3, [sp, #28]
    46b0:	f001 fdee 	bl	6290 <__aeabi_dmul>
    46b4:	0006      	movs	r6, r0
    46b6:	e452      	b.n	3f5e <__ieee754_pow+0x92>
    46b8:	0032      	movs	r2, r6
    46ba:	0030      	movs	r0, r6
    46bc:	002b      	movs	r3, r5
    46be:	0029      	movs	r1, r5
    46c0:	f001 fde6 	bl	6290 <__aeabi_dmul>
    46c4:	0006      	movs	r6, r0
    46c6:	e44a      	b.n	3f5e <__ieee754_pow+0x92>
    46c8:	4b87      	ldr	r3, [pc, #540]	; (48e8 <__ieee754_pow+0xa1c>)
    46ca:	004e      	lsls	r6, r1, #1
    46cc:	0876      	lsrs	r6, r6, #1
    46ce:	429e      	cmp	r6, r3
    46d0:	dc00      	bgt.n	46d4 <__ieee754_pow+0x808>
    46d2:	e0bf      	b.n	4854 <__ieee754_pow+0x988>
    46d4:	4b85      	ldr	r3, [pc, #532]	; (48ec <__ieee754_pow+0xa20>)
    46d6:	18cb      	adds	r3, r1, r3
    46d8:	4303      	orrs	r3, r0
    46da:	d10c      	bne.n	46f6 <__ieee754_pow+0x82a>
    46dc:	9a00      	ldr	r2, [sp, #0]
    46de:	9b01      	ldr	r3, [sp, #4]
    46e0:	f002 f850 	bl	6784 <__aeabi_dsub>
    46e4:	0002      	movs	r2, r0
    46e6:	000b      	movs	r3, r1
    46e8:	9804      	ldr	r0, [sp, #16]
    46ea:	9905      	ldr	r1, [sp, #20]
    46ec:	f000 fce2 	bl	50b4 <__aeabi_dcmple>
    46f0:	2800      	cmp	r0, #0
    46f2:	d100      	bne.n	46f6 <__ieee754_pow+0x82a>
    46f4:	e701      	b.n	44fa <__ieee754_pow+0x62e>
    46f6:	9806      	ldr	r0, [sp, #24]
    46f8:	9907      	ldr	r1, [sp, #28]
    46fa:	4a7d      	ldr	r2, [pc, #500]	; (48f0 <__ieee754_pow+0xa24>)
    46fc:	4b7d      	ldr	r3, [pc, #500]	; (48f4 <__ieee754_pow+0xa28>)
    46fe:	f001 fdc7 	bl	6290 <__aeabi_dmul>
    4702:	4a7b      	ldr	r2, [pc, #492]	; (48f0 <__ieee754_pow+0xa24>)
    4704:	4b7b      	ldr	r3, [pc, #492]	; (48f4 <__ieee754_pow+0xa28>)
    4706:	f001 fdc3 	bl	6290 <__aeabi_dmul>
    470a:	0006      	movs	r6, r0
    470c:	f7ff fc27 	bl	3f5e <__ieee754_pow+0x92>
    4710:	2300      	movs	r3, #0
    4712:	4c79      	ldr	r4, [pc, #484]	; (48f8 <__ieee754_pow+0xa2c>)
    4714:	9306      	str	r3, [sp, #24]
    4716:	9407      	str	r4, [sp, #28]
    4718:	e666      	b.n	43e8 <__ieee754_pow+0x51c>
    471a:	4653      	mov	r3, sl
    471c:	2b00      	cmp	r3, #0
    471e:	db00      	blt.n	4722 <__ieee754_pow+0x856>
    4720:	e4c3      	b.n	40aa <__ieee754_pow+0x1de>
    4722:	9b00      	ldr	r3, [sp, #0]
    4724:	9c01      	ldr	r4, [sp, #4]
    4726:	2280      	movs	r2, #128	; 0x80
    4728:	0612      	lsls	r2, r2, #24
    472a:	001e      	movs	r6, r3
    472c:	4694      	mov	ip, r2
    472e:	0023      	movs	r3, r4
    4730:	4463      	add	r3, ip
    4732:	0019      	movs	r1, r3
    4734:	f7ff fc13 	bl	3f5e <__ieee754_pow+0x92>
    4738:	0002      	movs	r2, r0
    473a:	000b      	movs	r3, r1
    473c:	2000      	movs	r0, #0
    473e:	4969      	ldr	r1, [pc, #420]	; (48e4 <__ieee754_pow+0xa18>)
    4740:	f001 f982 	bl	5a48 <__aeabi_ddiv>
    4744:	e44a      	b.n	3fdc <__ieee754_pow+0x110>
    4746:	4b6d      	ldr	r3, [pc, #436]	; (48fc <__ieee754_pow+0xa30>)
    4748:	429c      	cmp	r4, r3
    474a:	dc00      	bgt.n	474e <__ieee754_pow+0x882>
    474c:	e4aa      	b.n	40a4 <__ieee754_pow+0x1d8>
    474e:	4b65      	ldr	r3, [pc, #404]	; (48e4 <__ieee754_pow+0xa18>)
    4750:	429c      	cmp	r4, r3
    4752:	dd01      	ble.n	4758 <__ieee754_pow+0x88c>
    4754:	f7ff fc2c 	bl	3fb0 <__ieee754_pow+0xe4>
    4758:	2200      	movs	r2, #0
    475a:	4b62      	ldr	r3, [pc, #392]	; (48e4 <__ieee754_pow+0xa18>)
    475c:	f002 f812 	bl	6784 <__aeabi_dsub>
    4760:	22c0      	movs	r2, #192	; 0xc0
    4762:	4b67      	ldr	r3, [pc, #412]	; (4900 <__ieee754_pow+0xa34>)
    4764:	05d2      	lsls	r2, r2, #23
    4766:	0004      	movs	r4, r0
    4768:	000d      	movs	r5, r1
    476a:	f001 fd91 	bl	6290 <__aeabi_dmul>
    476e:	4a65      	ldr	r2, [pc, #404]	; (4904 <__ieee754_pow+0xa38>)
    4770:	0006      	movs	r6, r0
    4772:	000f      	movs	r7, r1
    4774:	4b64      	ldr	r3, [pc, #400]	; (4908 <__ieee754_pow+0xa3c>)
    4776:	0020      	movs	r0, r4
    4778:	0029      	movs	r1, r5
    477a:	f001 fd89 	bl	6290 <__aeabi_dmul>
    477e:	2200      	movs	r2, #0
    4780:	9002      	str	r0, [sp, #8]
    4782:	9103      	str	r1, [sp, #12]
    4784:	4b61      	ldr	r3, [pc, #388]	; (490c <__ieee754_pow+0xa40>)
    4786:	0020      	movs	r0, r4
    4788:	0029      	movs	r1, r5
    478a:	f001 fd81 	bl	6290 <__aeabi_dmul>
    478e:	0002      	movs	r2, r0
    4790:	000b      	movs	r3, r1
    4792:	485f      	ldr	r0, [pc, #380]	; (4910 <__ieee754_pow+0xa44>)
    4794:	495f      	ldr	r1, [pc, #380]	; (4914 <__ieee754_pow+0xa48>)
    4796:	f001 fff5 	bl	6784 <__aeabi_dsub>
    479a:	0022      	movs	r2, r4
    479c:	002b      	movs	r3, r5
    479e:	f001 fd77 	bl	6290 <__aeabi_dmul>
    47a2:	0002      	movs	r2, r0
    47a4:	000b      	movs	r3, r1
    47a6:	2000      	movs	r0, #0
    47a8:	495b      	ldr	r1, [pc, #364]	; (4918 <__ieee754_pow+0xa4c>)
    47aa:	f001 ffeb 	bl	6784 <__aeabi_dsub>
    47ae:	0022      	movs	r2, r4
    47b0:	9004      	str	r0, [sp, #16]
    47b2:	9105      	str	r1, [sp, #20]
    47b4:	002b      	movs	r3, r5
    47b6:	0020      	movs	r0, r4
    47b8:	0029      	movs	r1, r5
    47ba:	f001 fd69 	bl	6290 <__aeabi_dmul>
    47be:	0002      	movs	r2, r0
    47c0:	000b      	movs	r3, r1
    47c2:	9804      	ldr	r0, [sp, #16]
    47c4:	9905      	ldr	r1, [sp, #20]
    47c6:	f001 fd63 	bl	6290 <__aeabi_dmul>
    47ca:	4a54      	ldr	r2, [pc, #336]	; (491c <__ieee754_pow+0xa50>)
    47cc:	4b4c      	ldr	r3, [pc, #304]	; (4900 <__ieee754_pow+0xa34>)
    47ce:	f001 fd5f 	bl	6290 <__aeabi_dmul>
    47d2:	0002      	movs	r2, r0
    47d4:	000b      	movs	r3, r1
    47d6:	9802      	ldr	r0, [sp, #8]
    47d8:	9903      	ldr	r1, [sp, #12]
    47da:	f001 ffd3 	bl	6784 <__aeabi_dsub>
    47de:	0002      	movs	r2, r0
    47e0:	000b      	movs	r3, r1
    47e2:	0004      	movs	r4, r0
    47e4:	000d      	movs	r5, r1
    47e6:	0030      	movs	r0, r6
    47e8:	0039      	movs	r1, r7
    47ea:	f000 fe01 	bl	53f0 <__aeabi_dadd>
    47ee:	2200      	movs	r2, #0
    47f0:	0010      	movs	r0, r2
    47f2:	003b      	movs	r3, r7
    47f4:	0032      	movs	r2, r6
    47f6:	9002      	str	r0, [sp, #8]
    47f8:	9103      	str	r1, [sp, #12]
    47fa:	f001 ffc3 	bl	6784 <__aeabi_dsub>
    47fe:	0002      	movs	r2, r0
    4800:	000b      	movs	r3, r1
    4802:	0020      	movs	r0, r4
    4804:	0029      	movs	r1, r5
    4806:	f001 ffbd 	bl	6784 <__aeabi_dsub>
    480a:	9004      	str	r0, [sp, #16]
    480c:	9105      	str	r1, [sp, #20]
    480e:	e5e1      	b.n	43d4 <__ieee754_pow+0x508>
    4810:	4a43      	ldr	r2, [pc, #268]	; (4920 <__ieee754_pow+0xa54>)
    4812:	4b44      	ldr	r3, [pc, #272]	; (4924 <__ieee754_pow+0xa58>)
    4814:	9806      	ldr	r0, [sp, #24]
    4816:	9907      	ldr	r1, [sp, #28]
    4818:	f001 fd3a 	bl	6290 <__aeabi_dmul>
    481c:	4a40      	ldr	r2, [pc, #256]	; (4920 <__ieee754_pow+0xa54>)
    481e:	4b41      	ldr	r3, [pc, #260]	; (4924 <__ieee754_pow+0xa58>)
    4820:	f001 fd36 	bl	6290 <__aeabi_dmul>
    4824:	0006      	movs	r6, r0
    4826:	f7ff fb9a 	bl	3f5e <__ieee754_pow+0x92>
    482a:	2a00      	cmp	r2, #0
    482c:	d001      	beq.n	4832 <__ieee754_pow+0x966>
    482e:	f7ff fba5 	bl	3f7c <__ieee754_pow+0xb0>
    4832:	3214      	adds	r2, #20
    4834:	1ad3      	subs	r3, r2, r3
    4836:	003a      	movs	r2, r7
    4838:	411a      	asrs	r2, r3
    483a:	0011      	movs	r1, r2
    483c:	4099      	lsls	r1, r3
    483e:	428f      	cmp	r7, r1
    4840:	d001      	beq.n	4846 <__ieee754_pow+0x97a>
    4842:	f7ff fb6f 	bl	3f24 <__ieee754_pow+0x58>
    4846:	2301      	movs	r3, #1
    4848:	4013      	ands	r3, r2
    484a:	2202      	movs	r2, #2
    484c:	1ad3      	subs	r3, r2, r3
    484e:	469b      	mov	fp, r3
    4850:	f7ff fb68 	bl	3f24 <__ieee754_pow+0x58>
    4854:	4b30      	ldr	r3, [pc, #192]	; (4918 <__ieee754_pow+0xa4c>)
    4856:	429e      	cmp	r6, r3
    4858:	dd00      	ble.n	485c <__ieee754_pow+0x990>
    485a:	e64e      	b.n	44fa <__ieee754_pow+0x62e>
    485c:	2300      	movs	r3, #0
    485e:	4699      	mov	r9, r3
    4860:	4698      	mov	r8, r3
    4862:	e67a      	b.n	455a <__ieee754_pow+0x68e>
    4864:	0002      	movs	r2, r0
    4866:	000b      	movs	r3, r1
    4868:	f7ff fc14 	bl	4094 <__ieee754_pow+0x1c8>
    486c:	2380      	movs	r3, #128	; 0x80
    486e:	4c2e      	ldr	r4, [pc, #184]	; (4928 <__ieee754_pow+0xa5c>)
    4870:	05db      	lsls	r3, r3, #23
    4872:	9308      	str	r3, [sp, #32]
    4874:	9409      	str	r4, [sp, #36]	; 0x24
    4876:	4b2d      	ldr	r3, [pc, #180]	; (492c <__ieee754_pow+0xa60>)
    4878:	4c2d      	ldr	r4, [pc, #180]	; (4930 <__ieee754_pow+0xa64>)
    487a:	2200      	movs	r2, #0
    487c:	930c      	str	r3, [sp, #48]	; 0x30
    487e:	940d      	str	r4, [sp, #52]	; 0x34
    4880:	2480      	movs	r4, #128	; 0x80
    4882:	4b2c      	ldr	r3, [pc, #176]	; (4934 <__ieee754_pow+0xa68>)
    4884:	02e4      	lsls	r4, r4, #11
    4886:	9206      	str	r2, [sp, #24]
    4888:	9307      	str	r3, [sp, #28]
    488a:	e456      	b.n	413a <__ieee754_pow+0x26e>
    488c:	4643      	mov	r3, r8
    488e:	425b      	negs	r3, r3
    4890:	4698      	mov	r8, r3
    4892:	e651      	b.n	4538 <__ieee754_pow+0x66c>
    4894:	4642      	mov	r2, r8
    4896:	f000 f9fd 	bl	4c94 <scalbn>
    489a:	e707      	b.n	46ac <__ieee754_pow+0x7e0>
    489c:	fffffc02 	.word	0xfffffc02
    48a0:	fffffc01 	.word	0xfffffc01
    48a4:	000fffff 	.word	0x000fffff
    48a8:	3fe62e43 	.word	0x3fe62e43
    48ac:	fefa39ef 	.word	0xfefa39ef
    48b0:	3fe62e42 	.word	0x3fe62e42
    48b4:	0ca86c39 	.word	0x0ca86c39
    48b8:	be205c61 	.word	0xbe205c61
    48bc:	72bea4d0 	.word	0x72bea4d0
    48c0:	3e663769 	.word	0x3e663769
    48c4:	c5d26bf1 	.word	0xc5d26bf1
    48c8:	3ebbbd41 	.word	0x3ebbbd41
    48cc:	af25de2c 	.word	0xaf25de2c
    48d0:	3f11566a 	.word	0x3f11566a
    48d4:	16bebd93 	.word	0x16bebd93
    48d8:	3f66c16c 	.word	0x3f66c16c
    48dc:	5555553e 	.word	0x5555553e
    48e0:	3fc55555 	.word	0x3fc55555
    48e4:	3ff00000 	.word	0x3ff00000
    48e8:	4090cbff 	.word	0x4090cbff
    48ec:	3f6f3400 	.word	0x3f6f3400
    48f0:	c2f8f359 	.word	0xc2f8f359
    48f4:	01a56e1f 	.word	0x01a56e1f
    48f8:	bff00000 	.word	0xbff00000
    48fc:	3feffffe 	.word	0x3feffffe
    4900:	3ff71547 	.word	0x3ff71547
    4904:	f85ddf44 	.word	0xf85ddf44
    4908:	3e54ae0b 	.word	0x3e54ae0b
    490c:	3fd00000 	.word	0x3fd00000
    4910:	55555555 	.word	0x55555555
    4914:	3fd55555 	.word	0x3fd55555
    4918:	3fe00000 	.word	0x3fe00000
    491c:	652b82fe 	.word	0x652b82fe
    4920:	8800759c 	.word	0x8800759c
    4924:	7e37e43c 	.word	0x7e37e43c
    4928:	3fe2b803 	.word	0x3fe2b803
    492c:	43cfd006 	.word	0x43cfd006
    4930:	3e4cfdeb 	.word	0x3e4cfdeb
    4934:	3ff80000 	.word	0x3ff80000

00004938 <__ieee754_sqrt>:
    4938:	b5f0      	push	{r4, r5, r6, r7, lr}
    493a:	4656      	mov	r6, sl
    493c:	464d      	mov	r5, r9
    493e:	4644      	mov	r4, r8
    4940:	465f      	mov	r7, fp
    4942:	4b75      	ldr	r3, [pc, #468]	; (4b18 <__ieee754_sqrt+0x1e0>)
    4944:	b4f0      	push	{r4, r5, r6, r7}
    4946:	000a      	movs	r2, r1
    4948:	000d      	movs	r5, r1
    494a:	0019      	movs	r1, r3
    494c:	b083      	sub	sp, #12
    494e:	0006      	movs	r6, r0
    4950:	0004      	movs	r4, r0
    4952:	4029      	ands	r1, r5
    4954:	4299      	cmp	r1, r3
    4956:	d100      	bne.n	495a <__ieee754_sqrt+0x22>
    4958:	e0ba      	b.n	4ad0 <__ieee754_sqrt+0x198>
    495a:	2d00      	cmp	r5, #0
    495c:	dc00      	bgt.n	4960 <__ieee754_sqrt+0x28>
    495e:	e094      	b.n	4a8a <__ieee754_sqrt+0x152>
    4960:	152d      	asrs	r5, r5, #20
    4962:	d100      	bne.n	4966 <__ieee754_sqrt+0x2e>
    4964:	e0a3      	b.n	4aae <__ieee754_sqrt+0x176>
    4966:	4b6d      	ldr	r3, [pc, #436]	; (4b1c <__ieee754_sqrt+0x1e4>)
    4968:	0312      	lsls	r2, r2, #12
    496a:	469c      	mov	ip, r3
    496c:	2380      	movs	r3, #128	; 0x80
    496e:	0b12      	lsrs	r2, r2, #12
    4970:	035b      	lsls	r3, r3, #13
    4972:	4465      	add	r5, ip
    4974:	431a      	orrs	r2, r3
    4976:	07eb      	lsls	r3, r5, #31
    4978:	d500      	bpl.n	497c <__ieee754_sqrt+0x44>
    497a:	e081      	b.n	4a80 <__ieee754_sqrt+0x148>
    497c:	106b      	asrs	r3, r5, #1
    497e:	4698      	mov	r8, r3
    4980:	0fe3      	lsrs	r3, r4, #31
    4982:	189b      	adds	r3, r3, r2
    4984:	189b      	adds	r3, r3, r2
    4986:	2280      	movs	r2, #128	; 0x80
    4988:	2116      	movs	r1, #22
    498a:	2600      	movs	r6, #0
    498c:	2700      	movs	r7, #0
    498e:	0064      	lsls	r4, r4, #1
    4990:	0392      	lsls	r2, r2, #14
    4992:	18b8      	adds	r0, r7, r2
    4994:	4298      	cmp	r0, r3
    4996:	dc02      	bgt.n	499e <__ieee754_sqrt+0x66>
    4998:	1887      	adds	r7, r0, r2
    499a:	1a1b      	subs	r3, r3, r0
    499c:	18b6      	adds	r6, r6, r2
    499e:	0fe0      	lsrs	r0, r4, #31
    49a0:	005b      	lsls	r3, r3, #1
    49a2:	3901      	subs	r1, #1
    49a4:	181b      	adds	r3, r3, r0
    49a6:	0064      	lsls	r4, r4, #1
    49a8:	0852      	lsrs	r2, r2, #1
    49aa:	2900      	cmp	r1, #0
    49ac:	d1f1      	bne.n	4992 <__ieee754_sqrt+0x5a>
    49ae:	2200      	movs	r2, #0
    49b0:	9201      	str	r2, [sp, #4]
    49b2:	4694      	mov	ip, r2
    49b4:	2280      	movs	r2, #128	; 0x80
    49b6:	0612      	lsls	r2, r2, #24
    49b8:	2020      	movs	r0, #32
    49ba:	4691      	mov	r9, r2
    49bc:	e009      	b.n	49d2 <__ieee754_sqrt+0x9a>
    49be:	429f      	cmp	r7, r3
    49c0:	d041      	beq.n	4a46 <__ieee754_sqrt+0x10e>
    49c2:	0fe1      	lsrs	r1, r4, #31
    49c4:	18c9      	adds	r1, r1, r3
    49c6:	3801      	subs	r0, #1
    49c8:	18cb      	adds	r3, r1, r3
    49ca:	0064      	lsls	r4, r4, #1
    49cc:	0852      	lsrs	r2, r2, #1
    49ce:	2800      	cmp	r0, #0
    49d0:	d01e      	beq.n	4a10 <__ieee754_sqrt+0xd8>
    49d2:	4661      	mov	r1, ip
    49d4:	1851      	adds	r1, r2, r1
    49d6:	429f      	cmp	r7, r3
    49d8:	daf1      	bge.n	49be <__ieee754_sqrt+0x86>
    49da:	188d      	adds	r5, r1, r2
    49dc:	46ac      	mov	ip, r5
    49de:	0fcd      	lsrs	r5, r1, #31
    49e0:	07ed      	lsls	r5, r5, #31
    49e2:	46ba      	mov	sl, r7
    49e4:	454d      	cmp	r5, r9
    49e6:	d039      	beq.n	4a5c <__ieee754_sqrt+0x124>
    49e8:	1bdb      	subs	r3, r3, r7
    49ea:	428c      	cmp	r4, r1
    49ec:	41bf      	sbcs	r7, r7
    49ee:	427f      	negs	r7, r7
    49f0:	1bdb      	subs	r3, r3, r7
    49f2:	1a64      	subs	r4, r4, r1
    49f4:	9901      	ldr	r1, [sp, #4]
    49f6:	3801      	subs	r0, #1
    49f8:	468b      	mov	fp, r1
    49fa:	4493      	add	fp, r2
    49fc:	4659      	mov	r1, fp
    49fe:	9101      	str	r1, [sp, #4]
    4a00:	0fe1      	lsrs	r1, r4, #31
    4a02:	18c9      	adds	r1, r1, r3
    4a04:	4657      	mov	r7, sl
    4a06:	18cb      	adds	r3, r1, r3
    4a08:	0064      	lsls	r4, r4, #1
    4a0a:	0852      	lsrs	r2, r2, #1
    4a0c:	2800      	cmp	r0, #0
    4a0e:	d1e0      	bne.n	49d2 <__ieee754_sqrt+0x9a>
    4a10:	4323      	orrs	r3, r4
    4a12:	d12b      	bne.n	4a6c <__ieee754_sqrt+0x134>
    4a14:	9b01      	ldr	r3, [sp, #4]
    4a16:	085b      	lsrs	r3, r3, #1
    4a18:	4941      	ldr	r1, [pc, #260]	; (4b20 <__ieee754_sqrt+0x1e8>)
    4a1a:	1072      	asrs	r2, r6, #1
    4a1c:	468c      	mov	ip, r1
    4a1e:	4462      	add	r2, ip
    4a20:	07f1      	lsls	r1, r6, #31
    4a22:	d502      	bpl.n	4a2a <__ieee754_sqrt+0xf2>
    4a24:	2180      	movs	r1, #128	; 0x80
    4a26:	0609      	lsls	r1, r1, #24
    4a28:	430b      	orrs	r3, r1
    4a2a:	4641      	mov	r1, r8
    4a2c:	0509      	lsls	r1, r1, #20
    4a2e:	188d      	adds	r5, r1, r2
    4a30:	001e      	movs	r6, r3
    4a32:	002f      	movs	r7, r5
    4a34:	0030      	movs	r0, r6
    4a36:	0039      	movs	r1, r7
    4a38:	b003      	add	sp, #12
    4a3a:	bc3c      	pop	{r2, r3, r4, r5}
    4a3c:	4690      	mov	r8, r2
    4a3e:	4699      	mov	r9, r3
    4a40:	46a2      	mov	sl, r4
    4a42:	46ab      	mov	fp, r5
    4a44:	bdf0      	pop	{r4, r5, r6, r7, pc}
    4a46:	42a1      	cmp	r1, r4
    4a48:	d80e      	bhi.n	4a68 <__ieee754_sqrt+0x130>
    4a4a:	188d      	adds	r5, r1, r2
    4a4c:	46ac      	mov	ip, r5
    4a4e:	0fcd      	lsrs	r5, r1, #31
    4a50:	07ed      	lsls	r5, r5, #31
    4a52:	454d      	cmp	r5, r9
    4a54:	d048      	beq.n	4ae8 <__ieee754_sqrt+0x1b0>
    4a56:	469a      	mov	sl, r3
    4a58:	2300      	movs	r3, #0
    4a5a:	e7ca      	b.n	49f2 <__ieee754_sqrt+0xba>
    4a5c:	4665      	mov	r5, ip
    4a5e:	2d00      	cmp	r5, #0
    4a60:	dbc2      	blt.n	49e8 <__ieee754_sqrt+0xb0>
    4a62:	1c7d      	adds	r5, r7, #1
    4a64:	46aa      	mov	sl, r5
    4a66:	e7bf      	b.n	49e8 <__ieee754_sqrt+0xb0>
    4a68:	003b      	movs	r3, r7
    4a6a:	e7aa      	b.n	49c2 <__ieee754_sqrt+0x8a>
    4a6c:	9b01      	ldr	r3, [sp, #4]
    4a6e:	3301      	adds	r3, #1
    4a70:	d03e      	beq.n	4af0 <__ieee754_sqrt+0x1b8>
    4a72:	9a01      	ldr	r2, [sp, #4]
    4a74:	2301      	movs	r3, #1
    4a76:	4694      	mov	ip, r2
    4a78:	4013      	ands	r3, r2
    4a7a:	4463      	add	r3, ip
    4a7c:	085b      	lsrs	r3, r3, #1
    4a7e:	e7cb      	b.n	4a18 <__ieee754_sqrt+0xe0>
    4a80:	0fe3      	lsrs	r3, r4, #31
    4a82:	0052      	lsls	r2, r2, #1
    4a84:	189a      	adds	r2, r3, r2
    4a86:	0064      	lsls	r4, r4, #1
    4a88:	e778      	b.n	497c <__ieee754_sqrt+0x44>
    4a8a:	006b      	lsls	r3, r5, #1
    4a8c:	085b      	lsrs	r3, r3, #1
    4a8e:	4303      	orrs	r3, r0
    4a90:	002f      	movs	r7, r5
    4a92:	2b00      	cmp	r3, #0
    4a94:	d0ce      	beq.n	4a34 <__ieee754_sqrt+0xfc>
    4a96:	2500      	movs	r5, #0
    4a98:	2a00      	cmp	r2, #0
    4a9a:	d131      	bne.n	4b00 <__ieee754_sqrt+0x1c8>
    4a9c:	0ae2      	lsrs	r2, r4, #11
    4a9e:	3d15      	subs	r5, #21
    4aa0:	0564      	lsls	r4, r4, #21
    4aa2:	2a00      	cmp	r2, #0
    4aa4:	d0fa      	beq.n	4a9c <__ieee754_sqrt+0x164>
    4aa6:	2380      	movs	r3, #128	; 0x80
    4aa8:	035b      	lsls	r3, r3, #13
    4aaa:	421a      	tst	r2, r3
    4aac:	d123      	bne.n	4af6 <__ieee754_sqrt+0x1be>
    4aae:	2080      	movs	r0, #128	; 0x80
    4ab0:	2300      	movs	r3, #0
    4ab2:	0340      	lsls	r0, r0, #13
    4ab4:	e000      	b.n	4ab8 <__ieee754_sqrt+0x180>
    4ab6:	000b      	movs	r3, r1
    4ab8:	0052      	lsls	r2, r2, #1
    4aba:	1c59      	adds	r1, r3, #1
    4abc:	4202      	tst	r2, r0
    4abe:	d0fa      	beq.n	4ab6 <__ieee754_sqrt+0x17e>
    4ac0:	2020      	movs	r0, #32
    4ac2:	1a40      	subs	r0, r0, r1
    4ac4:	1aed      	subs	r5, r5, r3
    4ac6:	0023      	movs	r3, r4
    4ac8:	40c3      	lsrs	r3, r0
    4aca:	408c      	lsls	r4, r1
    4acc:	431a      	orrs	r2, r3
    4ace:	e74a      	b.n	4966 <__ieee754_sqrt+0x2e>
    4ad0:	0002      	movs	r2, r0
    4ad2:	002b      	movs	r3, r5
    4ad4:	0029      	movs	r1, r5
    4ad6:	f001 fbdb 	bl	6290 <__aeabi_dmul>
    4ada:	0032      	movs	r2, r6
    4adc:	002b      	movs	r3, r5
    4ade:	f000 fc87 	bl	53f0 <__aeabi_dadd>
    4ae2:	0006      	movs	r6, r0
    4ae4:	000f      	movs	r7, r1
    4ae6:	e7a5      	b.n	4a34 <__ieee754_sqrt+0xfc>
    4ae8:	4665      	mov	r5, ip
    4aea:	2d00      	cmp	r5, #0
    4aec:	dab9      	bge.n	4a62 <__ieee754_sqrt+0x12a>
    4aee:	e7b2      	b.n	4a56 <__ieee754_sqrt+0x11e>
    4af0:	3601      	adds	r6, #1
    4af2:	2300      	movs	r3, #0
    4af4:	e790      	b.n	4a18 <__ieee754_sqrt+0xe0>
    4af6:	2301      	movs	r3, #1
    4af8:	2020      	movs	r0, #32
    4afa:	425b      	negs	r3, r3
    4afc:	2100      	movs	r1, #0
    4afe:	e7e1      	b.n	4ac4 <__ieee754_sqrt+0x18c>
    4b00:	003b      	movs	r3, r7
    4b02:	0002      	movs	r2, r0
    4b04:	0039      	movs	r1, r7
    4b06:	f001 fe3d 	bl	6784 <__aeabi_dsub>
    4b0a:	0002      	movs	r2, r0
    4b0c:	000b      	movs	r3, r1
    4b0e:	f000 ff9b 	bl	5a48 <__aeabi_ddiv>
    4b12:	0006      	movs	r6, r0
    4b14:	000f      	movs	r7, r1
    4b16:	e78d      	b.n	4a34 <__ieee754_sqrt+0xfc>
    4b18:	7ff00000 	.word	0x7ff00000
    4b1c:	fffffc01 	.word	0xfffffc01
    4b20:	3fe00000 	.word	0x3fe00000

00004b24 <fabs>:
    4b24:	0049      	lsls	r1, r1, #1
    4b26:	084b      	lsrs	r3, r1, #1
    4b28:	0019      	movs	r1, r3
    4b2a:	4770      	bx	lr

00004b2c <finite>:
    4b2c:	4b03      	ldr	r3, [pc, #12]	; (4b3c <finite+0x10>)
    4b2e:	0048      	lsls	r0, r1, #1
    4b30:	469c      	mov	ip, r3
    4b32:	0840      	lsrs	r0, r0, #1
    4b34:	4460      	add	r0, ip
    4b36:	0fc0      	lsrs	r0, r0, #31
    4b38:	4770      	bx	lr
    4b3a:	46c0      	nop			; (mov r8, r8)
    4b3c:	80100000 	.word	0x80100000

00004b40 <matherr>:
    4b40:	2000      	movs	r0, #0
    4b42:	4770      	bx	lr

00004b44 <nan>:
    4b44:	2000      	movs	r0, #0
    4b46:	4901      	ldr	r1, [pc, #4]	; (4b4c <nan+0x8>)
    4b48:	4770      	bx	lr
    4b4a:	46c0      	nop			; (mov r8, r8)
    4b4c:	7ff80000 	.word	0x7ff80000

00004b50 <rint>:
    4b50:	b5f0      	push	{r4, r5, r6, r7, lr}
    4b52:	4647      	mov	r7, r8
    4b54:	b480      	push	{r7}
    4b56:	0fcb      	lsrs	r3, r1, #31
    4b58:	4698      	mov	r8, r3
    4b5a:	4c4a      	ldr	r4, [pc, #296]	; (4c84 <rint+0x134>)
    4b5c:	004b      	lsls	r3, r1, #1
    4b5e:	0d5b      	lsrs	r3, r3, #21
    4b60:	191e      	adds	r6, r3, r4
    4b62:	b082      	sub	sp, #8
    4b64:	0007      	movs	r7, r0
    4b66:	000a      	movs	r2, r1
    4b68:	2e13      	cmp	r6, #19
    4b6a:	dc35      	bgt.n	4bd8 <rint+0x88>
    4b6c:	2e00      	cmp	r6, #0
    4b6e:	db57      	blt.n	4c20 <rint+0xd0>
    4b70:	4b45      	ldr	r3, [pc, #276]	; (4c88 <rint+0x138>)
    4b72:	0004      	movs	r4, r0
    4b74:	4133      	asrs	r3, r6
    4b76:	001f      	movs	r7, r3
    4b78:	400f      	ands	r7, r1
    4b7a:	4307      	orrs	r7, r0
    4b7c:	000d      	movs	r5, r1
    4b7e:	2f00      	cmp	r7, #0
    4b80:	d024      	beq.n	4bcc <rint+0x7c>
    4b82:	085b      	lsrs	r3, r3, #1
    4b84:	001c      	movs	r4, r3
    4b86:	400c      	ands	r4, r1
    4b88:	4320      	orrs	r0, r4
    4b8a:	2700      	movs	r7, #0
    4b8c:	2800      	cmp	r0, #0
    4b8e:	d007      	beq.n	4ba0 <rint+0x50>
    4b90:	2e13      	cmp	r6, #19
    4b92:	d100      	bne.n	4b96 <rint+0x46>
    4b94:	e072      	b.n	4c7c <rint+0x12c>
    4b96:	2280      	movs	r2, #128	; 0x80
    4b98:	02d2      	lsls	r2, r2, #11
    4b9a:	4132      	asrs	r2, r6
    4b9c:	4399      	bics	r1, r3
    4b9e:	430a      	orrs	r2, r1
    4ba0:	4643      	mov	r3, r8
    4ba2:	00de      	lsls	r6, r3, #3
    4ba4:	4b39      	ldr	r3, [pc, #228]	; (4c8c <rint+0x13c>)
    4ba6:	0011      	movs	r1, r2
    4ba8:	199e      	adds	r6, r3, r6
    4baa:	6834      	ldr	r4, [r6, #0]
    4bac:	6875      	ldr	r5, [r6, #4]
    4bae:	0038      	movs	r0, r7
    4bb0:	0022      	movs	r2, r4
    4bb2:	002b      	movs	r3, r5
    4bb4:	f000 fc1c 	bl	53f0 <__aeabi_dadd>
    4bb8:	9000      	str	r0, [sp, #0]
    4bba:	9101      	str	r1, [sp, #4]
    4bbc:	9800      	ldr	r0, [sp, #0]
    4bbe:	9901      	ldr	r1, [sp, #4]
    4bc0:	0022      	movs	r2, r4
    4bc2:	002b      	movs	r3, r5
    4bc4:	f001 fdde 	bl	6784 <__aeabi_dsub>
    4bc8:	0004      	movs	r4, r0
    4bca:	000d      	movs	r5, r1
    4bcc:	0020      	movs	r0, r4
    4bce:	0029      	movs	r1, r5
    4bd0:	b002      	add	sp, #8
    4bd2:	bc04      	pop	{r2}
    4bd4:	4690      	mov	r8, r2
    4bd6:	bdf0      	pop	{r4, r5, r6, r7, pc}
    4bd8:	2e33      	cmp	r6, #51	; 0x33
    4bda:	dd0c      	ble.n	4bf6 <rint+0xa6>
    4bdc:	2380      	movs	r3, #128	; 0x80
    4bde:	0004      	movs	r4, r0
    4be0:	000d      	movs	r5, r1
    4be2:	00db      	lsls	r3, r3, #3
    4be4:	429e      	cmp	r6, r3
    4be6:	d1f1      	bne.n	4bcc <rint+0x7c>
    4be8:	0002      	movs	r2, r0
    4bea:	000b      	movs	r3, r1
    4bec:	f000 fc00 	bl	53f0 <__aeabi_dadd>
    4bf0:	0004      	movs	r4, r0
    4bf2:	000d      	movs	r5, r1
    4bf4:	e7ea      	b.n	4bcc <rint+0x7c>
    4bf6:	4c26      	ldr	r4, [pc, #152]	; (4c90 <rint+0x140>)
    4bf8:	000d      	movs	r5, r1
    4bfa:	46a4      	mov	ip, r4
    4bfc:	2401      	movs	r4, #1
    4bfe:	4463      	add	r3, ip
    4c00:	4264      	negs	r4, r4
    4c02:	40dc      	lsrs	r4, r3
    4c04:	46a4      	mov	ip, r4
    4c06:	4661      	mov	r1, ip
    4c08:	0004      	movs	r4, r0
    4c0a:	4201      	tst	r1, r0
    4c0c:	d0de      	beq.n	4bcc <rint+0x7c>
    4c0e:	0849      	lsrs	r1, r1, #1
    4c10:	4201      	tst	r1, r0
    4c12:	d0c5      	beq.n	4ba0 <rint+0x50>
    4c14:	2780      	movs	r7, #128	; 0x80
    4c16:	05ff      	lsls	r7, r7, #23
    4c18:	411f      	asrs	r7, r3
    4c1a:	4388      	bics	r0, r1
    4c1c:	4307      	orrs	r7, r0
    4c1e:	e7bf      	b.n	4ba0 <rint+0x50>
    4c20:	004b      	lsls	r3, r1, #1
    4c22:	085b      	lsrs	r3, r3, #1
    4c24:	4303      	orrs	r3, r0
    4c26:	0004      	movs	r4, r0
    4c28:	000d      	movs	r5, r1
    4c2a:	2b00      	cmp	r3, #0
    4c2c:	d0ce      	beq.n	4bcc <rint+0x7c>
    4c2e:	030b      	lsls	r3, r1, #12
    4c30:	0b1b      	lsrs	r3, r3, #12
    4c32:	4303      	orrs	r3, r0
    4c34:	425a      	negs	r2, r3
    4c36:	4313      	orrs	r3, r2
    4c38:	2280      	movs	r2, #128	; 0x80
    4c3a:	0b1b      	lsrs	r3, r3, #12
    4c3c:	0312      	lsls	r2, r2, #12
    4c3e:	4013      	ands	r3, r2
    4c40:	0c4a      	lsrs	r2, r1, #17
    4c42:	0452      	lsls	r2, r2, #17
    4c44:	4313      	orrs	r3, r2
    4c46:	0019      	movs	r1, r3
    4c48:	4643      	mov	r3, r8
    4c4a:	4a10      	ldr	r2, [pc, #64]	; (4c8c <rint+0x13c>)
    4c4c:	00db      	lsls	r3, r3, #3
    4c4e:	18d3      	adds	r3, r2, r3
    4c50:	681c      	ldr	r4, [r3, #0]
    4c52:	685d      	ldr	r5, [r3, #4]
    4c54:	0022      	movs	r2, r4
    4c56:	002b      	movs	r3, r5
    4c58:	f000 fbca 	bl	53f0 <__aeabi_dadd>
    4c5c:	9000      	str	r0, [sp, #0]
    4c5e:	9101      	str	r1, [sp, #4]
    4c60:	9800      	ldr	r0, [sp, #0]
    4c62:	9901      	ldr	r1, [sp, #4]
    4c64:	0022      	movs	r2, r4
    4c66:	002b      	movs	r3, r5
    4c68:	f001 fd8c 	bl	6784 <__aeabi_dsub>
    4c6c:	4642      	mov	r2, r8
    4c6e:	004b      	lsls	r3, r1, #1
    4c70:	085b      	lsrs	r3, r3, #1
    4c72:	07d6      	lsls	r6, r2, #31
    4c74:	4333      	orrs	r3, r6
    4c76:	0004      	movs	r4, r0
    4c78:	001d      	movs	r5, r3
    4c7a:	e7a7      	b.n	4bcc <rint+0x7c>
    4c7c:	2780      	movs	r7, #128	; 0x80
    4c7e:	063f      	lsls	r7, r7, #24
    4c80:	e789      	b.n	4b96 <rint+0x46>
    4c82:	46c0      	nop			; (mov r8, r8)
    4c84:	fffffc01 	.word	0xfffffc01
    4c88:	000fffff 	.word	0x000fffff
    4c8c:	00007248 	.word	0x00007248
    4c90:	fffffbed 	.word	0xfffffbed

00004c94 <scalbn>:
    4c94:	004b      	lsls	r3, r1, #1
    4c96:	b570      	push	{r4, r5, r6, lr}
    4c98:	0d5b      	lsrs	r3, r3, #21
    4c9a:	0014      	movs	r4, r2
    4c9c:	000a      	movs	r2, r1
    4c9e:	2b00      	cmp	r3, #0
    4ca0:	d11a      	bne.n	4cd8 <scalbn+0x44>
    4ca2:	004b      	lsls	r3, r1, #1
    4ca4:	085b      	lsrs	r3, r3, #1
    4ca6:	4303      	orrs	r3, r0
    4ca8:	d015      	beq.n	4cd6 <scalbn+0x42>
    4caa:	2200      	movs	r2, #0
    4cac:	4b22      	ldr	r3, [pc, #136]	; (4d38 <scalbn+0xa4>)
    4cae:	f001 faef 	bl	6290 <__aeabi_dmul>
    4cb2:	4b22      	ldr	r3, [pc, #136]	; (4d3c <scalbn+0xa8>)
    4cb4:	000a      	movs	r2, r1
    4cb6:	429c      	cmp	r4, r3
    4cb8:	db22      	blt.n	4d00 <scalbn+0x6c>
    4cba:	004b      	lsls	r3, r1, #1
    4cbc:	0d5b      	lsrs	r3, r3, #21
    4cbe:	3b36      	subs	r3, #54	; 0x36
    4cc0:	4d1f      	ldr	r5, [pc, #124]	; (4d40 <scalbn+0xac>)
    4cc2:	18e3      	adds	r3, r4, r3
    4cc4:	42ab      	cmp	r3, r5
    4cc6:	dc20      	bgt.n	4d0a <scalbn+0x76>
    4cc8:	2b00      	cmp	r3, #0
    4cca:	dd0d      	ble.n	4ce8 <scalbn+0x54>
    4ccc:	4c1d      	ldr	r4, [pc, #116]	; (4d44 <scalbn+0xb0>)
    4cce:	051b      	lsls	r3, r3, #20
    4cd0:	4022      	ands	r2, r4
    4cd2:	431a      	orrs	r2, r3
    4cd4:	0011      	movs	r1, r2
    4cd6:	bd70      	pop	{r4, r5, r6, pc}
    4cd8:	4d1b      	ldr	r5, [pc, #108]	; (4d48 <scalbn+0xb4>)
    4cda:	42ab      	cmp	r3, r5
    4cdc:	d1f0      	bne.n	4cc0 <scalbn+0x2c>
    4cde:	0002      	movs	r2, r0
    4ce0:	000b      	movs	r3, r1
    4ce2:	f000 fb85 	bl	53f0 <__aeabi_dadd>
    4ce6:	e7f6      	b.n	4cd6 <scalbn+0x42>
    4ce8:	001d      	movs	r5, r3
    4cea:	3535      	adds	r5, #53	; 0x35
    4cec:	da18      	bge.n	4d20 <scalbn+0x8c>
    4cee:	4b17      	ldr	r3, [pc, #92]	; (4d4c <scalbn+0xb8>)
    4cf0:	0002      	movs	r2, r0
    4cf2:	429c      	cmp	r4, r3
    4cf4:	dc0a      	bgt.n	4d0c <scalbn+0x78>
    4cf6:	000b      	movs	r3, r1
    4cf8:	4815      	ldr	r0, [pc, #84]	; (4d50 <scalbn+0xbc>)
    4cfa:	4916      	ldr	r1, [pc, #88]	; (4d54 <scalbn+0xc0>)
    4cfc:	f000 f832 	bl	4d64 <copysign>
    4d00:	4a13      	ldr	r2, [pc, #76]	; (4d50 <scalbn+0xbc>)
    4d02:	4b14      	ldr	r3, [pc, #80]	; (4d54 <scalbn+0xc0>)
    4d04:	f001 fac4 	bl	6290 <__aeabi_dmul>
    4d08:	e7e5      	b.n	4cd6 <scalbn+0x42>
    4d0a:	0002      	movs	r2, r0
    4d0c:	000b      	movs	r3, r1
    4d0e:	4812      	ldr	r0, [pc, #72]	; (4d58 <scalbn+0xc4>)
    4d10:	4912      	ldr	r1, [pc, #72]	; (4d5c <scalbn+0xc8>)
    4d12:	f000 f827 	bl	4d64 <copysign>
    4d16:	4a10      	ldr	r2, [pc, #64]	; (4d58 <scalbn+0xc4>)
    4d18:	4b10      	ldr	r3, [pc, #64]	; (4d5c <scalbn+0xc8>)
    4d1a:	f001 fab9 	bl	6290 <__aeabi_dmul>
    4d1e:	e7da      	b.n	4cd6 <scalbn+0x42>
    4d20:	4c08      	ldr	r4, [pc, #32]	; (4d44 <scalbn+0xb0>)
    4d22:	3336      	adds	r3, #54	; 0x36
    4d24:	4022      	ands	r2, r4
    4d26:	051b      	lsls	r3, r3, #20
    4d28:	4313      	orrs	r3, r2
    4d2a:	0019      	movs	r1, r3
    4d2c:	2200      	movs	r2, #0
    4d2e:	4b0c      	ldr	r3, [pc, #48]	; (4d60 <scalbn+0xcc>)
    4d30:	f001 faae 	bl	6290 <__aeabi_dmul>
    4d34:	e7cf      	b.n	4cd6 <scalbn+0x42>
    4d36:	46c0      	nop			; (mov r8, r8)
    4d38:	43500000 	.word	0x43500000
    4d3c:	ffff3cb0 	.word	0xffff3cb0
    4d40:	000007fe 	.word	0x000007fe
    4d44:	800fffff 	.word	0x800fffff
    4d48:	000007ff 	.word	0x000007ff
    4d4c:	0000c350 	.word	0x0000c350
    4d50:	c2f8f359 	.word	0xc2f8f359
    4d54:	01a56e1f 	.word	0x01a56e1f
    4d58:	8800759c 	.word	0x8800759c
    4d5c:	7e37e43c 	.word	0x7e37e43c
    4d60:	3c900000 	.word	0x3c900000

00004d64 <copysign>:
    4d64:	b530      	push	{r4, r5, lr}
    4d66:	004a      	lsls	r2, r1, #1
    4d68:	0fdb      	lsrs	r3, r3, #31
    4d6a:	07db      	lsls	r3, r3, #31
    4d6c:	0852      	lsrs	r2, r2, #1
    4d6e:	431a      	orrs	r2, r3
    4d70:	0011      	movs	r1, r2
    4d72:	bd30      	pop	{r4, r5, pc}

00004d74 <__gnu_thumb1_case_uqi>:
    4d74:	b402      	push	{r1}
    4d76:	4671      	mov	r1, lr
    4d78:	0849      	lsrs	r1, r1, #1
    4d7a:	0049      	lsls	r1, r1, #1
    4d7c:	5c09      	ldrb	r1, [r1, r0]
    4d7e:	0049      	lsls	r1, r1, #1
    4d80:	448e      	add	lr, r1
    4d82:	bc02      	pop	{r1}
    4d84:	4770      	bx	lr
    4d86:	46c0      	nop			; (mov r8, r8)

00004d88 <__aeabi_uidiv>:
    4d88:	2200      	movs	r2, #0
    4d8a:	0843      	lsrs	r3, r0, #1
    4d8c:	428b      	cmp	r3, r1
    4d8e:	d374      	bcc.n	4e7a <__aeabi_uidiv+0xf2>
    4d90:	0903      	lsrs	r3, r0, #4
    4d92:	428b      	cmp	r3, r1
    4d94:	d35f      	bcc.n	4e56 <__aeabi_uidiv+0xce>
    4d96:	0a03      	lsrs	r3, r0, #8
    4d98:	428b      	cmp	r3, r1
    4d9a:	d344      	bcc.n	4e26 <__aeabi_uidiv+0x9e>
    4d9c:	0b03      	lsrs	r3, r0, #12
    4d9e:	428b      	cmp	r3, r1
    4da0:	d328      	bcc.n	4df4 <__aeabi_uidiv+0x6c>
    4da2:	0c03      	lsrs	r3, r0, #16
    4da4:	428b      	cmp	r3, r1
    4da6:	d30d      	bcc.n	4dc4 <__aeabi_uidiv+0x3c>
    4da8:	22ff      	movs	r2, #255	; 0xff
    4daa:	0209      	lsls	r1, r1, #8
    4dac:	ba12      	rev	r2, r2
    4dae:	0c03      	lsrs	r3, r0, #16
    4db0:	428b      	cmp	r3, r1
    4db2:	d302      	bcc.n	4dba <__aeabi_uidiv+0x32>
    4db4:	1212      	asrs	r2, r2, #8
    4db6:	0209      	lsls	r1, r1, #8
    4db8:	d065      	beq.n	4e86 <__aeabi_uidiv+0xfe>
    4dba:	0b03      	lsrs	r3, r0, #12
    4dbc:	428b      	cmp	r3, r1
    4dbe:	d319      	bcc.n	4df4 <__aeabi_uidiv+0x6c>
    4dc0:	e000      	b.n	4dc4 <__aeabi_uidiv+0x3c>
    4dc2:	0a09      	lsrs	r1, r1, #8
    4dc4:	0bc3      	lsrs	r3, r0, #15
    4dc6:	428b      	cmp	r3, r1
    4dc8:	d301      	bcc.n	4dce <__aeabi_uidiv+0x46>
    4dca:	03cb      	lsls	r3, r1, #15
    4dcc:	1ac0      	subs	r0, r0, r3
    4dce:	4152      	adcs	r2, r2
    4dd0:	0b83      	lsrs	r3, r0, #14
    4dd2:	428b      	cmp	r3, r1
    4dd4:	d301      	bcc.n	4dda <__aeabi_uidiv+0x52>
    4dd6:	038b      	lsls	r3, r1, #14
    4dd8:	1ac0      	subs	r0, r0, r3
    4dda:	4152      	adcs	r2, r2
    4ddc:	0b43      	lsrs	r3, r0, #13
    4dde:	428b      	cmp	r3, r1
    4de0:	d301      	bcc.n	4de6 <__aeabi_uidiv+0x5e>
    4de2:	034b      	lsls	r3, r1, #13
    4de4:	1ac0      	subs	r0, r0, r3
    4de6:	4152      	adcs	r2, r2
    4de8:	0b03      	lsrs	r3, r0, #12
    4dea:	428b      	cmp	r3, r1
    4dec:	d301      	bcc.n	4df2 <__aeabi_uidiv+0x6a>
    4dee:	030b      	lsls	r3, r1, #12
    4df0:	1ac0      	subs	r0, r0, r3
    4df2:	4152      	adcs	r2, r2
    4df4:	0ac3      	lsrs	r3, r0, #11
    4df6:	428b      	cmp	r3, r1
    4df8:	d301      	bcc.n	4dfe <__aeabi_uidiv+0x76>
    4dfa:	02cb      	lsls	r3, r1, #11
    4dfc:	1ac0      	subs	r0, r0, r3
    4dfe:	4152      	adcs	r2, r2
    4e00:	0a83      	lsrs	r3, r0, #10
    4e02:	428b      	cmp	r3, r1
    4e04:	d301      	bcc.n	4e0a <__aeabi_uidiv+0x82>
    4e06:	028b      	lsls	r3, r1, #10
    4e08:	1ac0      	subs	r0, r0, r3
    4e0a:	4152      	adcs	r2, r2
    4e0c:	0a43      	lsrs	r3, r0, #9
    4e0e:	428b      	cmp	r3, r1
    4e10:	d301      	bcc.n	4e16 <__aeabi_uidiv+0x8e>
    4e12:	024b      	lsls	r3, r1, #9
    4e14:	1ac0      	subs	r0, r0, r3
    4e16:	4152      	adcs	r2, r2
    4e18:	0a03      	lsrs	r3, r0, #8
    4e1a:	428b      	cmp	r3, r1
    4e1c:	d301      	bcc.n	4e22 <__aeabi_uidiv+0x9a>
    4e1e:	020b      	lsls	r3, r1, #8
    4e20:	1ac0      	subs	r0, r0, r3
    4e22:	4152      	adcs	r2, r2
    4e24:	d2cd      	bcs.n	4dc2 <__aeabi_uidiv+0x3a>
    4e26:	09c3      	lsrs	r3, r0, #7
    4e28:	428b      	cmp	r3, r1
    4e2a:	d301      	bcc.n	4e30 <__aeabi_uidiv+0xa8>
    4e2c:	01cb      	lsls	r3, r1, #7
    4e2e:	1ac0      	subs	r0, r0, r3
    4e30:	4152      	adcs	r2, r2
    4e32:	0983      	lsrs	r3, r0, #6
    4e34:	428b      	cmp	r3, r1
    4e36:	d301      	bcc.n	4e3c <__aeabi_uidiv+0xb4>
    4e38:	018b      	lsls	r3, r1, #6
    4e3a:	1ac0      	subs	r0, r0, r3
    4e3c:	4152      	adcs	r2, r2
    4e3e:	0943      	lsrs	r3, r0, #5
    4e40:	428b      	cmp	r3, r1
    4e42:	d301      	bcc.n	4e48 <__aeabi_uidiv+0xc0>
    4e44:	014b      	lsls	r3, r1, #5
    4e46:	1ac0      	subs	r0, r0, r3
    4e48:	4152      	adcs	r2, r2
    4e4a:	0903      	lsrs	r3, r0, #4
    4e4c:	428b      	cmp	r3, r1
    4e4e:	d301      	bcc.n	4e54 <__aeabi_uidiv+0xcc>
    4e50:	010b      	lsls	r3, r1, #4
    4e52:	1ac0      	subs	r0, r0, r3
    4e54:	4152      	adcs	r2, r2
    4e56:	08c3      	lsrs	r3, r0, #3
    4e58:	428b      	cmp	r3, r1
    4e5a:	d301      	bcc.n	4e60 <__aeabi_uidiv+0xd8>
    4e5c:	00cb      	lsls	r3, r1, #3
    4e5e:	1ac0      	subs	r0, r0, r3
    4e60:	4152      	adcs	r2, r2
    4e62:	0883      	lsrs	r3, r0, #2
    4e64:	428b      	cmp	r3, r1
    4e66:	d301      	bcc.n	4e6c <__aeabi_uidiv+0xe4>
    4e68:	008b      	lsls	r3, r1, #2
    4e6a:	1ac0      	subs	r0, r0, r3
    4e6c:	4152      	adcs	r2, r2
    4e6e:	0843      	lsrs	r3, r0, #1
    4e70:	428b      	cmp	r3, r1
    4e72:	d301      	bcc.n	4e78 <__aeabi_uidiv+0xf0>
    4e74:	004b      	lsls	r3, r1, #1
    4e76:	1ac0      	subs	r0, r0, r3
    4e78:	4152      	adcs	r2, r2
    4e7a:	1a41      	subs	r1, r0, r1
    4e7c:	d200      	bcs.n	4e80 <__aeabi_uidiv+0xf8>
    4e7e:	4601      	mov	r1, r0
    4e80:	4152      	adcs	r2, r2
    4e82:	4610      	mov	r0, r2
    4e84:	4770      	bx	lr
    4e86:	e7ff      	b.n	4e88 <__aeabi_uidiv+0x100>
    4e88:	b501      	push	{r0, lr}
    4e8a:	2000      	movs	r0, #0
    4e8c:	f000 f8f0 	bl	5070 <__aeabi_idiv0>
    4e90:	bd02      	pop	{r1, pc}
    4e92:	46c0      	nop			; (mov r8, r8)

00004e94 <__aeabi_uidivmod>:
    4e94:	2900      	cmp	r1, #0
    4e96:	d0f7      	beq.n	4e88 <__aeabi_uidiv+0x100>
    4e98:	e776      	b.n	4d88 <__aeabi_uidiv>
    4e9a:	4770      	bx	lr

00004e9c <__aeabi_idiv>:
    4e9c:	4603      	mov	r3, r0
    4e9e:	430b      	orrs	r3, r1
    4ea0:	d47f      	bmi.n	4fa2 <__aeabi_idiv+0x106>
    4ea2:	2200      	movs	r2, #0
    4ea4:	0843      	lsrs	r3, r0, #1
    4ea6:	428b      	cmp	r3, r1
    4ea8:	d374      	bcc.n	4f94 <__aeabi_idiv+0xf8>
    4eaa:	0903      	lsrs	r3, r0, #4
    4eac:	428b      	cmp	r3, r1
    4eae:	d35f      	bcc.n	4f70 <__aeabi_idiv+0xd4>
    4eb0:	0a03      	lsrs	r3, r0, #8
    4eb2:	428b      	cmp	r3, r1
    4eb4:	d344      	bcc.n	4f40 <__aeabi_idiv+0xa4>
    4eb6:	0b03      	lsrs	r3, r0, #12
    4eb8:	428b      	cmp	r3, r1
    4eba:	d328      	bcc.n	4f0e <__aeabi_idiv+0x72>
    4ebc:	0c03      	lsrs	r3, r0, #16
    4ebe:	428b      	cmp	r3, r1
    4ec0:	d30d      	bcc.n	4ede <__aeabi_idiv+0x42>
    4ec2:	22ff      	movs	r2, #255	; 0xff
    4ec4:	0209      	lsls	r1, r1, #8
    4ec6:	ba12      	rev	r2, r2
    4ec8:	0c03      	lsrs	r3, r0, #16
    4eca:	428b      	cmp	r3, r1
    4ecc:	d302      	bcc.n	4ed4 <__aeabi_idiv+0x38>
    4ece:	1212      	asrs	r2, r2, #8
    4ed0:	0209      	lsls	r1, r1, #8
    4ed2:	d065      	beq.n	4fa0 <__aeabi_idiv+0x104>
    4ed4:	0b03      	lsrs	r3, r0, #12
    4ed6:	428b      	cmp	r3, r1
    4ed8:	d319      	bcc.n	4f0e <__aeabi_idiv+0x72>
    4eda:	e000      	b.n	4ede <__aeabi_idiv+0x42>
    4edc:	0a09      	lsrs	r1, r1, #8
    4ede:	0bc3      	lsrs	r3, r0, #15
    4ee0:	428b      	cmp	r3, r1
    4ee2:	d301      	bcc.n	4ee8 <__aeabi_idiv+0x4c>
    4ee4:	03cb      	lsls	r3, r1, #15
    4ee6:	1ac0      	subs	r0, r0, r3
    4ee8:	4152      	adcs	r2, r2
    4eea:	0b83      	lsrs	r3, r0, #14
    4eec:	428b      	cmp	r3, r1
    4eee:	d301      	bcc.n	4ef4 <__aeabi_idiv+0x58>
    4ef0:	038b      	lsls	r3, r1, #14
    4ef2:	1ac0      	subs	r0, r0, r3
    4ef4:	4152      	adcs	r2, r2
    4ef6:	0b43      	lsrs	r3, r0, #13
    4ef8:	428b      	cmp	r3, r1
    4efa:	d301      	bcc.n	4f00 <__aeabi_idiv+0x64>
    4efc:	034b      	lsls	r3, r1, #13
    4efe:	1ac0      	subs	r0, r0, r3
    4f00:	4152      	adcs	r2, r2
    4f02:	0b03      	lsrs	r3, r0, #12
    4f04:	428b      	cmp	r3, r1
    4f06:	d301      	bcc.n	4f0c <__aeabi_idiv+0x70>
    4f08:	030b      	lsls	r3, r1, #12
    4f0a:	1ac0      	subs	r0, r0, r3
    4f0c:	4152      	adcs	r2, r2
    4f0e:	0ac3      	lsrs	r3, r0, #11
    4f10:	428b      	cmp	r3, r1
    4f12:	d301      	bcc.n	4f18 <__aeabi_idiv+0x7c>
    4f14:	02cb      	lsls	r3, r1, #11
    4f16:	1ac0      	subs	r0, r0, r3
    4f18:	4152      	adcs	r2, r2
    4f1a:	0a83      	lsrs	r3, r0, #10
    4f1c:	428b      	cmp	r3, r1
    4f1e:	d301      	bcc.n	4f24 <__aeabi_idiv+0x88>
    4f20:	028b      	lsls	r3, r1, #10
    4f22:	1ac0      	subs	r0, r0, r3
    4f24:	4152      	adcs	r2, r2
    4f26:	0a43      	lsrs	r3, r0, #9
    4f28:	428b      	cmp	r3, r1
    4f2a:	d301      	bcc.n	4f30 <__aeabi_idiv+0x94>
    4f2c:	024b      	lsls	r3, r1, #9
    4f2e:	1ac0      	subs	r0, r0, r3
    4f30:	4152      	adcs	r2, r2
    4f32:	0a03      	lsrs	r3, r0, #8
    4f34:	428b      	cmp	r3, r1
    4f36:	d301      	bcc.n	4f3c <__aeabi_idiv+0xa0>
    4f38:	020b      	lsls	r3, r1, #8
    4f3a:	1ac0      	subs	r0, r0, r3
    4f3c:	4152      	adcs	r2, r2
    4f3e:	d2cd      	bcs.n	4edc <__aeabi_idiv+0x40>
    4f40:	09c3      	lsrs	r3, r0, #7
    4f42:	428b      	cmp	r3, r1
    4f44:	d301      	bcc.n	4f4a <__aeabi_idiv+0xae>
    4f46:	01cb      	lsls	r3, r1, #7
    4f48:	1ac0      	subs	r0, r0, r3
    4f4a:	4152      	adcs	r2, r2
    4f4c:	0983      	lsrs	r3, r0, #6
    4f4e:	428b      	cmp	r3, r1
    4f50:	d301      	bcc.n	4f56 <__aeabi_idiv+0xba>
    4f52:	018b      	lsls	r3, r1, #6
    4f54:	1ac0      	subs	r0, r0, r3
    4f56:	4152      	adcs	r2, r2
    4f58:	0943      	lsrs	r3, r0, #5
    4f5a:	428b      	cmp	r3, r1
    4f5c:	d301      	bcc.n	4f62 <__aeabi_idiv+0xc6>
    4f5e:	014b      	lsls	r3, r1, #5
    4f60:	1ac0      	subs	r0, r0, r3
    4f62:	4152      	adcs	r2, r2
    4f64:	0903      	lsrs	r3, r0, #4
    4f66:	428b      	cmp	r3, r1
    4f68:	d301      	bcc.n	4f6e <__aeabi_idiv+0xd2>
    4f6a:	010b      	lsls	r3, r1, #4
    4f6c:	1ac0      	subs	r0, r0, r3
    4f6e:	4152      	adcs	r2, r2
    4f70:	08c3      	lsrs	r3, r0, #3
    4f72:	428b      	cmp	r3, r1
    4f74:	d301      	bcc.n	4f7a <__aeabi_idiv+0xde>
    4f76:	00cb      	lsls	r3, r1, #3
    4f78:	1ac0      	subs	r0, r0, r3
    4f7a:	4152      	adcs	r2, r2
    4f7c:	0883      	lsrs	r3, r0, #2
    4f7e:	428b      	cmp	r3, r1
    4f80:	d301      	bcc.n	4f86 <__aeabi_idiv+0xea>
    4f82:	008b      	lsls	r3, r1, #2
    4f84:	1ac0      	subs	r0, r0, r3
    4f86:	4152      	adcs	r2, r2
    4f88:	0843      	lsrs	r3, r0, #1
    4f8a:	428b      	cmp	r3, r1
    4f8c:	d301      	bcc.n	4f92 <__aeabi_idiv+0xf6>
    4f8e:	004b      	lsls	r3, r1, #1
    4f90:	1ac0      	subs	r0, r0, r3
    4f92:	4152      	adcs	r2, r2
    4f94:	1a41      	subs	r1, r0, r1
    4f96:	d200      	bcs.n	4f9a <__aeabi_idiv+0xfe>
    4f98:	4601      	mov	r1, r0
    4f9a:	4152      	adcs	r2, r2
    4f9c:	4610      	mov	r0, r2
    4f9e:	4770      	bx	lr
    4fa0:	e05d      	b.n	505e <__aeabi_idiv+0x1c2>
    4fa2:	0fca      	lsrs	r2, r1, #31
    4fa4:	d000      	beq.n	4fa8 <__aeabi_idiv+0x10c>
    4fa6:	4249      	negs	r1, r1
    4fa8:	1003      	asrs	r3, r0, #32
    4faa:	d300      	bcc.n	4fae <__aeabi_idiv+0x112>
    4fac:	4240      	negs	r0, r0
    4fae:	4053      	eors	r3, r2
    4fb0:	2200      	movs	r2, #0
    4fb2:	469c      	mov	ip, r3
    4fb4:	0903      	lsrs	r3, r0, #4
    4fb6:	428b      	cmp	r3, r1
    4fb8:	d32d      	bcc.n	5016 <__aeabi_idiv+0x17a>
    4fba:	0a03      	lsrs	r3, r0, #8
    4fbc:	428b      	cmp	r3, r1
    4fbe:	d312      	bcc.n	4fe6 <__aeabi_idiv+0x14a>
    4fc0:	22fc      	movs	r2, #252	; 0xfc
    4fc2:	0189      	lsls	r1, r1, #6
    4fc4:	ba12      	rev	r2, r2
    4fc6:	0a03      	lsrs	r3, r0, #8
    4fc8:	428b      	cmp	r3, r1
    4fca:	d30c      	bcc.n	4fe6 <__aeabi_idiv+0x14a>
    4fcc:	0189      	lsls	r1, r1, #6
    4fce:	1192      	asrs	r2, r2, #6
    4fd0:	428b      	cmp	r3, r1
    4fd2:	d308      	bcc.n	4fe6 <__aeabi_idiv+0x14a>
    4fd4:	0189      	lsls	r1, r1, #6
    4fd6:	1192      	asrs	r2, r2, #6
    4fd8:	428b      	cmp	r3, r1
    4fda:	d304      	bcc.n	4fe6 <__aeabi_idiv+0x14a>
    4fdc:	0189      	lsls	r1, r1, #6
    4fde:	d03a      	beq.n	5056 <__aeabi_idiv+0x1ba>
    4fe0:	1192      	asrs	r2, r2, #6
    4fe2:	e000      	b.n	4fe6 <__aeabi_idiv+0x14a>
    4fe4:	0989      	lsrs	r1, r1, #6
    4fe6:	09c3      	lsrs	r3, r0, #7
    4fe8:	428b      	cmp	r3, r1
    4fea:	d301      	bcc.n	4ff0 <__aeabi_idiv+0x154>
    4fec:	01cb      	lsls	r3, r1, #7
    4fee:	1ac0      	subs	r0, r0, r3
    4ff0:	4152      	adcs	r2, r2
    4ff2:	0983      	lsrs	r3, r0, #6
    4ff4:	428b      	cmp	r3, r1
    4ff6:	d301      	bcc.n	4ffc <__aeabi_idiv+0x160>
    4ff8:	018b      	lsls	r3, r1, #6
    4ffa:	1ac0      	subs	r0, r0, r3
    4ffc:	4152      	adcs	r2, r2
    4ffe:	0943      	lsrs	r3, r0, #5
    5000:	428b      	cmp	r3, r1
    5002:	d301      	bcc.n	5008 <__aeabi_idiv+0x16c>
    5004:	014b      	lsls	r3, r1, #5
    5006:	1ac0      	subs	r0, r0, r3
    5008:	4152      	adcs	r2, r2
    500a:	0903      	lsrs	r3, r0, #4
    500c:	428b      	cmp	r3, r1
    500e:	d301      	bcc.n	5014 <__aeabi_idiv+0x178>
    5010:	010b      	lsls	r3, r1, #4
    5012:	1ac0      	subs	r0, r0, r3
    5014:	4152      	adcs	r2, r2
    5016:	08c3      	lsrs	r3, r0, #3
    5018:	428b      	cmp	r3, r1
    501a:	d301      	bcc.n	5020 <__aeabi_idiv+0x184>
    501c:	00cb      	lsls	r3, r1, #3
    501e:	1ac0      	subs	r0, r0, r3
    5020:	4152      	adcs	r2, r2
    5022:	0883      	lsrs	r3, r0, #2
    5024:	428b      	cmp	r3, r1
    5026:	d301      	bcc.n	502c <__aeabi_idiv+0x190>
    5028:	008b      	lsls	r3, r1, #2
    502a:	1ac0      	subs	r0, r0, r3
    502c:	4152      	adcs	r2, r2
    502e:	d2d9      	bcs.n	4fe4 <__aeabi_idiv+0x148>
    5030:	0843      	lsrs	r3, r0, #1
    5032:	428b      	cmp	r3, r1
    5034:	d301      	bcc.n	503a <__aeabi_idiv+0x19e>
    5036:	004b      	lsls	r3, r1, #1
    5038:	1ac0      	subs	r0, r0, r3
    503a:	4152      	adcs	r2, r2
    503c:	1a41      	subs	r1, r0, r1
    503e:	d200      	bcs.n	5042 <__aeabi_idiv+0x1a6>
    5040:	4601      	mov	r1, r0
    5042:	4663      	mov	r3, ip
    5044:	4152      	adcs	r2, r2
    5046:	105b      	asrs	r3, r3, #1
    5048:	4610      	mov	r0, r2
    504a:	d301      	bcc.n	5050 <__aeabi_idiv+0x1b4>
    504c:	4240      	negs	r0, r0
    504e:	2b00      	cmp	r3, #0
    5050:	d500      	bpl.n	5054 <__aeabi_idiv+0x1b8>
    5052:	4249      	negs	r1, r1
    5054:	4770      	bx	lr
    5056:	4663      	mov	r3, ip
    5058:	105b      	asrs	r3, r3, #1
    505a:	d300      	bcc.n	505e <__aeabi_idiv+0x1c2>
    505c:	4240      	negs	r0, r0
    505e:	b501      	push	{r0, lr}
    5060:	2000      	movs	r0, #0
    5062:	f000 f805 	bl	5070 <__aeabi_idiv0>
    5066:	bd02      	pop	{r1, pc}

00005068 <__aeabi_idivmod>:
    5068:	2900      	cmp	r1, #0
    506a:	d0f8      	beq.n	505e <__aeabi_idiv+0x1c2>
    506c:	e716      	b.n	4e9c <__aeabi_idiv>
    506e:	4770      	bx	lr

00005070 <__aeabi_idiv0>:
    5070:	4770      	bx	lr
    5072:	46c0      	nop			; (mov r8, r8)

00005074 <__aeabi_cdrcmple>:
    5074:	4684      	mov	ip, r0
    5076:	1c10      	adds	r0, r2, #0
    5078:	4662      	mov	r2, ip
    507a:	468c      	mov	ip, r1
    507c:	1c19      	adds	r1, r3, #0
    507e:	4663      	mov	r3, ip
    5080:	e000      	b.n	5084 <__aeabi_cdcmpeq>
    5082:	46c0      	nop			; (mov r8, r8)

00005084 <__aeabi_cdcmpeq>:
    5084:	b51f      	push	{r0, r1, r2, r3, r4, lr}
    5086:	f001 f899 	bl	61bc <__ledf2>
    508a:	2800      	cmp	r0, #0
    508c:	d401      	bmi.n	5092 <__aeabi_cdcmpeq+0xe>
    508e:	2100      	movs	r1, #0
    5090:	42c8      	cmn	r0, r1
    5092:	bd1f      	pop	{r0, r1, r2, r3, r4, pc}

00005094 <__aeabi_dcmpeq>:
    5094:	b510      	push	{r4, lr}
    5096:	f000 ffed 	bl	6074 <__eqdf2>
    509a:	4240      	negs	r0, r0
    509c:	3001      	adds	r0, #1
    509e:	bd10      	pop	{r4, pc}

000050a0 <__aeabi_dcmplt>:
    50a0:	b510      	push	{r4, lr}
    50a2:	f001 f88b 	bl	61bc <__ledf2>
    50a6:	2800      	cmp	r0, #0
    50a8:	db01      	blt.n	50ae <__aeabi_dcmplt+0xe>
    50aa:	2000      	movs	r0, #0
    50ac:	bd10      	pop	{r4, pc}
    50ae:	2001      	movs	r0, #1
    50b0:	bd10      	pop	{r4, pc}
    50b2:	46c0      	nop			; (mov r8, r8)

000050b4 <__aeabi_dcmple>:
    50b4:	b510      	push	{r4, lr}
    50b6:	f001 f881 	bl	61bc <__ledf2>
    50ba:	2800      	cmp	r0, #0
    50bc:	dd01      	ble.n	50c2 <__aeabi_dcmple+0xe>
    50be:	2000      	movs	r0, #0
    50c0:	bd10      	pop	{r4, pc}
    50c2:	2001      	movs	r0, #1
    50c4:	bd10      	pop	{r4, pc}
    50c6:	46c0      	nop			; (mov r8, r8)

000050c8 <__aeabi_dcmpgt>:
    50c8:	b510      	push	{r4, lr}
    50ca:	f001 f813 	bl	60f4 <__gedf2>
    50ce:	2800      	cmp	r0, #0
    50d0:	dc01      	bgt.n	50d6 <__aeabi_dcmpgt+0xe>
    50d2:	2000      	movs	r0, #0
    50d4:	bd10      	pop	{r4, pc}
    50d6:	2001      	movs	r0, #1
    50d8:	bd10      	pop	{r4, pc}
    50da:	46c0      	nop			; (mov r8, r8)

000050dc <__aeabi_dcmpge>:
    50dc:	b510      	push	{r4, lr}
    50de:	f001 f809 	bl	60f4 <__gedf2>
    50e2:	2800      	cmp	r0, #0
    50e4:	da01      	bge.n	50ea <__aeabi_dcmpge+0xe>
    50e6:	2000      	movs	r0, #0
    50e8:	bd10      	pop	{r4, pc}
    50ea:	2001      	movs	r0, #1
    50ec:	bd10      	pop	{r4, pc}
    50ee:	46c0      	nop			; (mov r8, r8)

000050f0 <__aeabi_lmul>:
    50f0:	b5f0      	push	{r4, r5, r6, r7, lr}
    50f2:	464f      	mov	r7, r9
    50f4:	4646      	mov	r6, r8
    50f6:	b4c0      	push	{r6, r7}
    50f8:	0416      	lsls	r6, r2, #16
    50fa:	0c36      	lsrs	r6, r6, #16
    50fc:	4699      	mov	r9, r3
    50fe:	0033      	movs	r3, r6
    5100:	0405      	lsls	r5, r0, #16
    5102:	0c2c      	lsrs	r4, r5, #16
    5104:	0c07      	lsrs	r7, r0, #16
    5106:	0c15      	lsrs	r5, r2, #16
    5108:	4363      	muls	r3, r4
    510a:	437e      	muls	r6, r7
    510c:	436f      	muls	r7, r5
    510e:	4365      	muls	r5, r4
    5110:	0c1c      	lsrs	r4, r3, #16
    5112:	19ad      	adds	r5, r5, r6
    5114:	1964      	adds	r4, r4, r5
    5116:	469c      	mov	ip, r3
    5118:	42a6      	cmp	r6, r4
    511a:	d903      	bls.n	5124 <__aeabi_lmul+0x34>
    511c:	2380      	movs	r3, #128	; 0x80
    511e:	025b      	lsls	r3, r3, #9
    5120:	4698      	mov	r8, r3
    5122:	4447      	add	r7, r8
    5124:	4663      	mov	r3, ip
    5126:	0c25      	lsrs	r5, r4, #16
    5128:	19ef      	adds	r7, r5, r7
    512a:	041d      	lsls	r5, r3, #16
    512c:	464b      	mov	r3, r9
    512e:	434a      	muls	r2, r1
    5130:	4343      	muls	r3, r0
    5132:	0c2d      	lsrs	r5, r5, #16
    5134:	0424      	lsls	r4, r4, #16
    5136:	1964      	adds	r4, r4, r5
    5138:	1899      	adds	r1, r3, r2
    513a:	19c9      	adds	r1, r1, r7
    513c:	0020      	movs	r0, r4
    513e:	bc0c      	pop	{r2, r3}
    5140:	4690      	mov	r8, r2
    5142:	4699      	mov	r9, r3
    5144:	bdf0      	pop	{r4, r5, r6, r7, pc}
    5146:	46c0      	nop			; (mov r8, r8)

00005148 <__aeabi_d2uiz>:
    5148:	b570      	push	{r4, r5, r6, lr}
    514a:	2200      	movs	r2, #0
    514c:	4b0c      	ldr	r3, [pc, #48]	; (5180 <__aeabi_d2uiz+0x38>)
    514e:	0004      	movs	r4, r0
    5150:	000d      	movs	r5, r1
    5152:	f7ff ffc3 	bl	50dc <__aeabi_dcmpge>
    5156:	2800      	cmp	r0, #0
    5158:	d104      	bne.n	5164 <__aeabi_d2uiz+0x1c>
    515a:	0020      	movs	r0, r4
    515c:	0029      	movs	r1, r5
    515e:	f001 fe85 	bl	6e6c <__aeabi_d2iz>
    5162:	bd70      	pop	{r4, r5, r6, pc}
    5164:	4b06      	ldr	r3, [pc, #24]	; (5180 <__aeabi_d2uiz+0x38>)
    5166:	2200      	movs	r2, #0
    5168:	0020      	movs	r0, r4
    516a:	0029      	movs	r1, r5
    516c:	f001 fb0a 	bl	6784 <__aeabi_dsub>
    5170:	f001 fe7c 	bl	6e6c <__aeabi_d2iz>
    5174:	2380      	movs	r3, #128	; 0x80
    5176:	061b      	lsls	r3, r3, #24
    5178:	469c      	mov	ip, r3
    517a:	4460      	add	r0, ip
    517c:	e7f1      	b.n	5162 <__aeabi_d2uiz+0x1a>
    517e:	46c0      	nop			; (mov r8, r8)
    5180:	41e00000 	.word	0x41e00000

00005184 <__aeabi_fmul>:
    5184:	b5f0      	push	{r4, r5, r6, r7, lr}
    5186:	4657      	mov	r7, sl
    5188:	464e      	mov	r6, r9
    518a:	4645      	mov	r5, r8
    518c:	0043      	lsls	r3, r0, #1
    518e:	b4e0      	push	{r5, r6, r7}
    5190:	0246      	lsls	r6, r0, #9
    5192:	4688      	mov	r8, r1
    5194:	0a76      	lsrs	r6, r6, #9
    5196:	0e1f      	lsrs	r7, r3, #24
    5198:	0fc4      	lsrs	r4, r0, #31
    519a:	2f00      	cmp	r7, #0
    519c:	d047      	beq.n	522e <__aeabi_fmul+0xaa>
    519e:	2fff      	cmp	r7, #255	; 0xff
    51a0:	d025      	beq.n	51ee <__aeabi_fmul+0x6a>
    51a2:	2300      	movs	r3, #0
    51a4:	2580      	movs	r5, #128	; 0x80
    51a6:	469a      	mov	sl, r3
    51a8:	4699      	mov	r9, r3
    51aa:	00f6      	lsls	r6, r6, #3
    51ac:	04ed      	lsls	r5, r5, #19
    51ae:	432e      	orrs	r6, r5
    51b0:	3f7f      	subs	r7, #127	; 0x7f
    51b2:	4643      	mov	r3, r8
    51b4:	4642      	mov	r2, r8
    51b6:	025d      	lsls	r5, r3, #9
    51b8:	0fd2      	lsrs	r2, r2, #31
    51ba:	005b      	lsls	r3, r3, #1
    51bc:	0a6d      	lsrs	r5, r5, #9
    51be:	0e1b      	lsrs	r3, r3, #24
    51c0:	4690      	mov	r8, r2
    51c2:	d040      	beq.n	5246 <__aeabi_fmul+0xc2>
    51c4:	2bff      	cmp	r3, #255	; 0xff
    51c6:	d039      	beq.n	523c <__aeabi_fmul+0xb8>
    51c8:	2280      	movs	r2, #128	; 0x80
    51ca:	2000      	movs	r0, #0
    51cc:	00ed      	lsls	r5, r5, #3
    51ce:	04d2      	lsls	r2, r2, #19
    51d0:	4315      	orrs	r5, r2
    51d2:	3b7f      	subs	r3, #127	; 0x7f
    51d4:	18fb      	adds	r3, r7, r3
    51d6:	4642      	mov	r2, r8
    51d8:	4657      	mov	r7, sl
    51da:	1c59      	adds	r1, r3, #1
    51dc:	4062      	eors	r2, r4
    51de:	468c      	mov	ip, r1
    51e0:	4307      	orrs	r7, r0
    51e2:	2f0f      	cmp	r7, #15
    51e4:	d85c      	bhi.n	52a0 <__aeabi_fmul+0x11c>
    51e6:	496f      	ldr	r1, [pc, #444]	; (53a4 <__aeabi_fmul+0x220>)
    51e8:	00bf      	lsls	r7, r7, #2
    51ea:	59c9      	ldr	r1, [r1, r7]
    51ec:	468f      	mov	pc, r1
    51ee:	2e00      	cmp	r6, #0
    51f0:	d145      	bne.n	527e <__aeabi_fmul+0xfa>
    51f2:	2308      	movs	r3, #8
    51f4:	469a      	mov	sl, r3
    51f6:	3b06      	subs	r3, #6
    51f8:	4699      	mov	r9, r3
    51fa:	e7da      	b.n	51b2 <__aeabi_fmul+0x2e>
    51fc:	4642      	mov	r2, r8
    51fe:	2802      	cmp	r0, #2
    5200:	d02d      	beq.n	525e <__aeabi_fmul+0xda>
    5202:	2803      	cmp	r0, #3
    5204:	d100      	bne.n	5208 <__aeabi_fmul+0x84>
    5206:	e0c3      	b.n	5390 <__aeabi_fmul+0x20c>
    5208:	2801      	cmp	r0, #1
    520a:	d000      	beq.n	520e <__aeabi_fmul+0x8a>
    520c:	e0a2      	b.n	5354 <__aeabi_fmul+0x1d0>
    520e:	2500      	movs	r5, #0
    5210:	2600      	movs	r6, #0
    5212:	4002      	ands	r2, r0
    5214:	b2d4      	uxtb	r4, r2
    5216:	0276      	lsls	r6, r6, #9
    5218:	05ed      	lsls	r5, r5, #23
    521a:	0a76      	lsrs	r6, r6, #9
    521c:	432e      	orrs	r6, r5
    521e:	07e4      	lsls	r4, r4, #31
    5220:	4326      	orrs	r6, r4
    5222:	0030      	movs	r0, r6
    5224:	bc1c      	pop	{r2, r3, r4}
    5226:	4690      	mov	r8, r2
    5228:	4699      	mov	r9, r3
    522a:	46a2      	mov	sl, r4
    522c:	bdf0      	pop	{r4, r5, r6, r7, pc}
    522e:	2e00      	cmp	r6, #0
    5230:	d11a      	bne.n	5268 <__aeabi_fmul+0xe4>
    5232:	2304      	movs	r3, #4
    5234:	469a      	mov	sl, r3
    5236:	3b03      	subs	r3, #3
    5238:	4699      	mov	r9, r3
    523a:	e7ba      	b.n	51b2 <__aeabi_fmul+0x2e>
    523c:	002a      	movs	r2, r5
    523e:	1e51      	subs	r1, r2, #1
    5240:	418a      	sbcs	r2, r1
    5242:	1c90      	adds	r0, r2, #2
    5244:	e7c6      	b.n	51d4 <__aeabi_fmul+0x50>
    5246:	2001      	movs	r0, #1
    5248:	2d00      	cmp	r5, #0
    524a:	d0c3      	beq.n	51d4 <__aeabi_fmul+0x50>
    524c:	0028      	movs	r0, r5
    524e:	f001 ff9d 	bl	718c <__clzsi2>
    5252:	1f43      	subs	r3, r0, #5
    5254:	3076      	adds	r0, #118	; 0x76
    5256:	409d      	lsls	r5, r3
    5258:	4243      	negs	r3, r0
    525a:	2000      	movs	r0, #0
    525c:	e7ba      	b.n	51d4 <__aeabi_fmul+0x50>
    525e:	2401      	movs	r4, #1
    5260:	25ff      	movs	r5, #255	; 0xff
    5262:	4014      	ands	r4, r2
    5264:	2600      	movs	r6, #0
    5266:	e7d6      	b.n	5216 <__aeabi_fmul+0x92>
    5268:	0030      	movs	r0, r6
    526a:	f001 ff8f 	bl	718c <__clzsi2>
    526e:	1f43      	subs	r3, r0, #5
    5270:	409e      	lsls	r6, r3
    5272:	2300      	movs	r3, #0
    5274:	3076      	adds	r0, #118	; 0x76
    5276:	4247      	negs	r7, r0
    5278:	469a      	mov	sl, r3
    527a:	4699      	mov	r9, r3
    527c:	e799      	b.n	51b2 <__aeabi_fmul+0x2e>
    527e:	230c      	movs	r3, #12
    5280:	469a      	mov	sl, r3
    5282:	3b09      	subs	r3, #9
    5284:	4699      	mov	r9, r3
    5286:	e794      	b.n	51b2 <__aeabi_fmul+0x2e>
    5288:	2680      	movs	r6, #128	; 0x80
    528a:	2400      	movs	r4, #0
    528c:	03f6      	lsls	r6, r6, #15
    528e:	25ff      	movs	r5, #255	; 0xff
    5290:	e7c1      	b.n	5216 <__aeabi_fmul+0x92>
    5292:	0035      	movs	r5, r6
    5294:	4648      	mov	r0, r9
    5296:	e7b2      	b.n	51fe <__aeabi_fmul+0x7a>
    5298:	0035      	movs	r5, r6
    529a:	0022      	movs	r2, r4
    529c:	4648      	mov	r0, r9
    529e:	e7ae      	b.n	51fe <__aeabi_fmul+0x7a>
    52a0:	0429      	lsls	r1, r5, #16
    52a2:	0c09      	lsrs	r1, r1, #16
    52a4:	0008      	movs	r0, r1
    52a6:	0c37      	lsrs	r7, r6, #16
    52a8:	0436      	lsls	r6, r6, #16
    52aa:	0c36      	lsrs	r6, r6, #16
    52ac:	0c2c      	lsrs	r4, r5, #16
    52ae:	4379      	muls	r1, r7
    52b0:	4370      	muls	r0, r6
    52b2:	4367      	muls	r7, r4
    52b4:	4374      	muls	r4, r6
    52b6:	0c06      	lsrs	r6, r0, #16
    52b8:	1864      	adds	r4, r4, r1
    52ba:	1936      	adds	r6, r6, r4
    52bc:	42b1      	cmp	r1, r6
    52be:	d903      	bls.n	52c8 <__aeabi_fmul+0x144>
    52c0:	2180      	movs	r1, #128	; 0x80
    52c2:	0249      	lsls	r1, r1, #9
    52c4:	4688      	mov	r8, r1
    52c6:	4447      	add	r7, r8
    52c8:	0400      	lsls	r0, r0, #16
    52ca:	0c00      	lsrs	r0, r0, #16
    52cc:	0431      	lsls	r1, r6, #16
    52ce:	1809      	adds	r1, r1, r0
    52d0:	018d      	lsls	r5, r1, #6
    52d2:	1e68      	subs	r0, r5, #1
    52d4:	4185      	sbcs	r5, r0
    52d6:	0e89      	lsrs	r1, r1, #26
    52d8:	4329      	orrs	r1, r5
    52da:	0c35      	lsrs	r5, r6, #16
    52dc:	19ed      	adds	r5, r5, r7
    52de:	01ad      	lsls	r5, r5, #6
    52e0:	430d      	orrs	r5, r1
    52e2:	0129      	lsls	r1, r5, #4
    52e4:	d504      	bpl.n	52f0 <__aeabi_fmul+0x16c>
    52e6:	2301      	movs	r3, #1
    52e8:	0869      	lsrs	r1, r5, #1
    52ea:	401d      	ands	r5, r3
    52ec:	4663      	mov	r3, ip
    52ee:	430d      	orrs	r5, r1
    52f0:	0019      	movs	r1, r3
    52f2:	317f      	adds	r1, #127	; 0x7f
    52f4:	2900      	cmp	r1, #0
    52f6:	dd25      	ble.n	5344 <__aeabi_fmul+0x1c0>
    52f8:	0768      	lsls	r0, r5, #29
    52fa:	d004      	beq.n	5306 <__aeabi_fmul+0x182>
    52fc:	200f      	movs	r0, #15
    52fe:	4028      	ands	r0, r5
    5300:	2804      	cmp	r0, #4
    5302:	d000      	beq.n	5306 <__aeabi_fmul+0x182>
    5304:	3504      	adds	r5, #4
    5306:	0128      	lsls	r0, r5, #4
    5308:	d503      	bpl.n	5312 <__aeabi_fmul+0x18e>
    530a:	4927      	ldr	r1, [pc, #156]	; (53a8 <__aeabi_fmul+0x224>)
    530c:	3380      	adds	r3, #128	; 0x80
    530e:	400d      	ands	r5, r1
    5310:	0019      	movs	r1, r3
    5312:	29fe      	cmp	r1, #254	; 0xfe
    5314:	dca3      	bgt.n	525e <__aeabi_fmul+0xda>
    5316:	2401      	movs	r4, #1
    5318:	01ad      	lsls	r5, r5, #6
    531a:	0a6e      	lsrs	r6, r5, #9
    531c:	4014      	ands	r4, r2
    531e:	b2cd      	uxtb	r5, r1
    5320:	e779      	b.n	5216 <__aeabi_fmul+0x92>
    5322:	2080      	movs	r0, #128	; 0x80
    5324:	03c0      	lsls	r0, r0, #15
    5326:	4206      	tst	r6, r0
    5328:	d007      	beq.n	533a <__aeabi_fmul+0x1b6>
    532a:	4205      	tst	r5, r0
    532c:	d105      	bne.n	533a <__aeabi_fmul+0x1b6>
    532e:	4328      	orrs	r0, r5
    5330:	0246      	lsls	r6, r0, #9
    5332:	0a76      	lsrs	r6, r6, #9
    5334:	4644      	mov	r4, r8
    5336:	25ff      	movs	r5, #255	; 0xff
    5338:	e76d      	b.n	5216 <__aeabi_fmul+0x92>
    533a:	4306      	orrs	r6, r0
    533c:	0276      	lsls	r6, r6, #9
    533e:	0a76      	lsrs	r6, r6, #9
    5340:	25ff      	movs	r5, #255	; 0xff
    5342:	e768      	b.n	5216 <__aeabi_fmul+0x92>
    5344:	2401      	movs	r4, #1
    5346:	1a61      	subs	r1, r4, r1
    5348:	291b      	cmp	r1, #27
    534a:	dd05      	ble.n	5358 <__aeabi_fmul+0x1d4>
    534c:	4014      	ands	r4, r2
    534e:	2500      	movs	r5, #0
    5350:	2600      	movs	r6, #0
    5352:	e760      	b.n	5216 <__aeabi_fmul+0x92>
    5354:	4663      	mov	r3, ip
    5356:	e7cb      	b.n	52f0 <__aeabi_fmul+0x16c>
    5358:	002e      	movs	r6, r5
    535a:	2320      	movs	r3, #32
    535c:	40ce      	lsrs	r6, r1
    535e:	1a59      	subs	r1, r3, r1
    5360:	408d      	lsls	r5, r1
    5362:	1e6b      	subs	r3, r5, #1
    5364:	419d      	sbcs	r5, r3
    5366:	432e      	orrs	r6, r5
    5368:	0773      	lsls	r3, r6, #29
    536a:	d004      	beq.n	5376 <__aeabi_fmul+0x1f2>
    536c:	230f      	movs	r3, #15
    536e:	4033      	ands	r3, r6
    5370:	2b04      	cmp	r3, #4
    5372:	d000      	beq.n	5376 <__aeabi_fmul+0x1f2>
    5374:	3604      	adds	r6, #4
    5376:	0173      	lsls	r3, r6, #5
    5378:	d504      	bpl.n	5384 <__aeabi_fmul+0x200>
    537a:	2401      	movs	r4, #1
    537c:	2501      	movs	r5, #1
    537e:	4014      	ands	r4, r2
    5380:	2600      	movs	r6, #0
    5382:	e748      	b.n	5216 <__aeabi_fmul+0x92>
    5384:	2401      	movs	r4, #1
    5386:	01b6      	lsls	r6, r6, #6
    5388:	0a76      	lsrs	r6, r6, #9
    538a:	4014      	ands	r4, r2
    538c:	2500      	movs	r5, #0
    538e:	e742      	b.n	5216 <__aeabi_fmul+0x92>
    5390:	2680      	movs	r6, #128	; 0x80
    5392:	2401      	movs	r4, #1
    5394:	03f6      	lsls	r6, r6, #15
    5396:	432e      	orrs	r6, r5
    5398:	0276      	lsls	r6, r6, #9
    539a:	0a76      	lsrs	r6, r6, #9
    539c:	4014      	ands	r4, r2
    539e:	25ff      	movs	r5, #255	; 0xff
    53a0:	e739      	b.n	5216 <__aeabi_fmul+0x92>
    53a2:	46c0      	nop			; (mov r8, r8)
    53a4:	00007258 	.word	0x00007258
    53a8:	f7ffffff 	.word	0xf7ffffff

000053ac <__aeabi_f2iz>:
    53ac:	0243      	lsls	r3, r0, #9
    53ae:	0a59      	lsrs	r1, r3, #9
    53b0:	0043      	lsls	r3, r0, #1
    53b2:	0fc2      	lsrs	r2, r0, #31
    53b4:	0e1b      	lsrs	r3, r3, #24
    53b6:	2000      	movs	r0, #0
    53b8:	2b7e      	cmp	r3, #126	; 0x7e
    53ba:	dd0e      	ble.n	53da <__aeabi_f2iz+0x2e>
    53bc:	2b9d      	cmp	r3, #157	; 0x9d
    53be:	dc0d      	bgt.n	53dc <__aeabi_f2iz+0x30>
    53c0:	2080      	movs	r0, #128	; 0x80
    53c2:	0400      	lsls	r0, r0, #16
    53c4:	4301      	orrs	r1, r0
    53c6:	2b95      	cmp	r3, #149	; 0x95
    53c8:	dc0b      	bgt.n	53e2 <__aeabi_f2iz+0x36>
    53ca:	2096      	movs	r0, #150	; 0x96
    53cc:	1ac3      	subs	r3, r0, r3
    53ce:	40d9      	lsrs	r1, r3
    53d0:	000b      	movs	r3, r1
    53d2:	4258      	negs	r0, r3
    53d4:	2a00      	cmp	r2, #0
    53d6:	d100      	bne.n	53da <__aeabi_f2iz+0x2e>
    53d8:	0018      	movs	r0, r3
    53da:	4770      	bx	lr
    53dc:	4b03      	ldr	r3, [pc, #12]	; (53ec <__aeabi_f2iz+0x40>)
    53de:	18d0      	adds	r0, r2, r3
    53e0:	e7fb      	b.n	53da <__aeabi_f2iz+0x2e>
    53e2:	3b96      	subs	r3, #150	; 0x96
    53e4:	4099      	lsls	r1, r3
    53e6:	000b      	movs	r3, r1
    53e8:	e7f3      	b.n	53d2 <__aeabi_f2iz+0x26>
    53ea:	46c0      	nop			; (mov r8, r8)
    53ec:	7fffffff 	.word	0x7fffffff

000053f0 <__aeabi_dadd>:
    53f0:	b5f8      	push	{r3, r4, r5, r6, r7, lr}
    53f2:	4656      	mov	r6, sl
    53f4:	465f      	mov	r7, fp
    53f6:	464d      	mov	r5, r9
    53f8:	4644      	mov	r4, r8
    53fa:	b4f0      	push	{r4, r5, r6, r7}
    53fc:	000f      	movs	r7, r1
    53fe:	0ffd      	lsrs	r5, r7, #31
    5400:	46aa      	mov	sl, r5
    5402:	0309      	lsls	r1, r1, #12
    5404:	007c      	lsls	r4, r7, #1
    5406:	002e      	movs	r6, r5
    5408:	005f      	lsls	r7, r3, #1
    540a:	0f45      	lsrs	r5, r0, #29
    540c:	0a49      	lsrs	r1, r1, #9
    540e:	0d7f      	lsrs	r7, r7, #21
    5410:	4329      	orrs	r1, r5
    5412:	00c5      	lsls	r5, r0, #3
    5414:	0318      	lsls	r0, r3, #12
    5416:	46bc      	mov	ip, r7
    5418:	0a40      	lsrs	r0, r0, #9
    541a:	0f57      	lsrs	r7, r2, #29
    541c:	0d64      	lsrs	r4, r4, #21
    541e:	0fdb      	lsrs	r3, r3, #31
    5420:	4338      	orrs	r0, r7
    5422:	00d2      	lsls	r2, r2, #3
    5424:	459a      	cmp	sl, r3
    5426:	d100      	bne.n	542a <__aeabi_dadd+0x3a>
    5428:	e0aa      	b.n	5580 <__aeabi_dadd+0x190>
    542a:	4666      	mov	r6, ip
    542c:	1ba6      	subs	r6, r4, r6
    542e:	2e00      	cmp	r6, #0
    5430:	dc00      	bgt.n	5434 <__aeabi_dadd+0x44>
    5432:	e0ff      	b.n	5634 <__aeabi_dadd+0x244>
    5434:	4663      	mov	r3, ip
    5436:	2b00      	cmp	r3, #0
    5438:	d139      	bne.n	54ae <__aeabi_dadd+0xbe>
    543a:	0003      	movs	r3, r0
    543c:	4313      	orrs	r3, r2
    543e:	d000      	beq.n	5442 <__aeabi_dadd+0x52>
    5440:	e0d9      	b.n	55f6 <__aeabi_dadd+0x206>
    5442:	076b      	lsls	r3, r5, #29
    5444:	d009      	beq.n	545a <__aeabi_dadd+0x6a>
    5446:	230f      	movs	r3, #15
    5448:	402b      	ands	r3, r5
    544a:	2b04      	cmp	r3, #4
    544c:	d005      	beq.n	545a <__aeabi_dadd+0x6a>
    544e:	1d2b      	adds	r3, r5, #4
    5450:	42ab      	cmp	r3, r5
    5452:	41ad      	sbcs	r5, r5
    5454:	426d      	negs	r5, r5
    5456:	1949      	adds	r1, r1, r5
    5458:	001d      	movs	r5, r3
    545a:	020b      	lsls	r3, r1, #8
    545c:	d400      	bmi.n	5460 <__aeabi_dadd+0x70>
    545e:	e082      	b.n	5566 <__aeabi_dadd+0x176>
    5460:	4bca      	ldr	r3, [pc, #808]	; (578c <__aeabi_dadd+0x39c>)
    5462:	3401      	adds	r4, #1
    5464:	429c      	cmp	r4, r3
    5466:	d100      	bne.n	546a <__aeabi_dadd+0x7a>
    5468:	e0fe      	b.n	5668 <__aeabi_dadd+0x278>
    546a:	000a      	movs	r2, r1
    546c:	4656      	mov	r6, sl
    546e:	4bc8      	ldr	r3, [pc, #800]	; (5790 <__aeabi_dadd+0x3a0>)
    5470:	08ed      	lsrs	r5, r5, #3
    5472:	401a      	ands	r2, r3
    5474:	0750      	lsls	r0, r2, #29
    5476:	0564      	lsls	r4, r4, #21
    5478:	0252      	lsls	r2, r2, #9
    547a:	4305      	orrs	r5, r0
    547c:	0b12      	lsrs	r2, r2, #12
    547e:	0d64      	lsrs	r4, r4, #21
    5480:	2100      	movs	r1, #0
    5482:	0312      	lsls	r2, r2, #12
    5484:	0d0b      	lsrs	r3, r1, #20
    5486:	051b      	lsls	r3, r3, #20
    5488:	0564      	lsls	r4, r4, #21
    548a:	0b12      	lsrs	r2, r2, #12
    548c:	431a      	orrs	r2, r3
    548e:	0863      	lsrs	r3, r4, #1
    5490:	4cc0      	ldr	r4, [pc, #768]	; (5794 <__aeabi_dadd+0x3a4>)
    5492:	07f6      	lsls	r6, r6, #31
    5494:	4014      	ands	r4, r2
    5496:	431c      	orrs	r4, r3
    5498:	0064      	lsls	r4, r4, #1
    549a:	0864      	lsrs	r4, r4, #1
    549c:	4334      	orrs	r4, r6
    549e:	0028      	movs	r0, r5
    54a0:	0021      	movs	r1, r4
    54a2:	bc3c      	pop	{r2, r3, r4, r5}
    54a4:	4690      	mov	r8, r2
    54a6:	4699      	mov	r9, r3
    54a8:	46a2      	mov	sl, r4
    54aa:	46ab      	mov	fp, r5
    54ac:	bdf8      	pop	{r3, r4, r5, r6, r7, pc}
    54ae:	4bb7      	ldr	r3, [pc, #732]	; (578c <__aeabi_dadd+0x39c>)
    54b0:	429c      	cmp	r4, r3
    54b2:	d0c6      	beq.n	5442 <__aeabi_dadd+0x52>
    54b4:	2380      	movs	r3, #128	; 0x80
    54b6:	041b      	lsls	r3, r3, #16
    54b8:	4318      	orrs	r0, r3
    54ba:	2e38      	cmp	r6, #56	; 0x38
    54bc:	dd00      	ble.n	54c0 <__aeabi_dadd+0xd0>
    54be:	e0eb      	b.n	5698 <__aeabi_dadd+0x2a8>
    54c0:	2e1f      	cmp	r6, #31
    54c2:	dd00      	ble.n	54c6 <__aeabi_dadd+0xd6>
    54c4:	e11e      	b.n	5704 <__aeabi_dadd+0x314>
    54c6:	2320      	movs	r3, #32
    54c8:	1b9b      	subs	r3, r3, r6
    54ca:	469c      	mov	ip, r3
    54cc:	0003      	movs	r3, r0
    54ce:	4667      	mov	r7, ip
    54d0:	40bb      	lsls	r3, r7
    54d2:	4698      	mov	r8, r3
    54d4:	0013      	movs	r3, r2
    54d6:	4647      	mov	r7, r8
    54d8:	40f3      	lsrs	r3, r6
    54da:	433b      	orrs	r3, r7
    54dc:	4667      	mov	r7, ip
    54de:	40ba      	lsls	r2, r7
    54e0:	1e57      	subs	r7, r2, #1
    54e2:	41ba      	sbcs	r2, r7
    54e4:	4313      	orrs	r3, r2
    54e6:	0002      	movs	r2, r0
    54e8:	40f2      	lsrs	r2, r6
    54ea:	1aeb      	subs	r3, r5, r3
    54ec:	429d      	cmp	r5, r3
    54ee:	41b6      	sbcs	r6, r6
    54f0:	001d      	movs	r5, r3
    54f2:	1a8a      	subs	r2, r1, r2
    54f4:	4276      	negs	r6, r6
    54f6:	1b91      	subs	r1, r2, r6
    54f8:	020b      	lsls	r3, r1, #8
    54fa:	d531      	bpl.n	5560 <__aeabi_dadd+0x170>
    54fc:	024a      	lsls	r2, r1, #9
    54fe:	0a56      	lsrs	r6, r2, #9
    5500:	2e00      	cmp	r6, #0
    5502:	d100      	bne.n	5506 <__aeabi_dadd+0x116>
    5504:	e0b4      	b.n	5670 <__aeabi_dadd+0x280>
    5506:	0030      	movs	r0, r6
    5508:	f001 fe40 	bl	718c <__clzsi2>
    550c:	0003      	movs	r3, r0
    550e:	3b08      	subs	r3, #8
    5510:	2b1f      	cmp	r3, #31
    5512:	dd00      	ble.n	5516 <__aeabi_dadd+0x126>
    5514:	e0b5      	b.n	5682 <__aeabi_dadd+0x292>
    5516:	2220      	movs	r2, #32
    5518:	0029      	movs	r1, r5
    551a:	1ad2      	subs	r2, r2, r3
    551c:	40d1      	lsrs	r1, r2
    551e:	409e      	lsls	r6, r3
    5520:	000a      	movs	r2, r1
    5522:	409d      	lsls	r5, r3
    5524:	4332      	orrs	r2, r6
    5526:	429c      	cmp	r4, r3
    5528:	dd00      	ble.n	552c <__aeabi_dadd+0x13c>
    552a:	e0b1      	b.n	5690 <__aeabi_dadd+0x2a0>
    552c:	1b1c      	subs	r4, r3, r4
    552e:	1c63      	adds	r3, r4, #1
    5530:	2b1f      	cmp	r3, #31
    5532:	dd00      	ble.n	5536 <__aeabi_dadd+0x146>
    5534:	e0d5      	b.n	56e2 <__aeabi_dadd+0x2f2>
    5536:	2120      	movs	r1, #32
    5538:	0014      	movs	r4, r2
    553a:	0028      	movs	r0, r5
    553c:	1ac9      	subs	r1, r1, r3
    553e:	408c      	lsls	r4, r1
    5540:	40d8      	lsrs	r0, r3
    5542:	408d      	lsls	r5, r1
    5544:	4304      	orrs	r4, r0
    5546:	40da      	lsrs	r2, r3
    5548:	1e68      	subs	r0, r5, #1
    554a:	4185      	sbcs	r5, r0
    554c:	0011      	movs	r1, r2
    554e:	4325      	orrs	r5, r4
    5550:	2400      	movs	r4, #0
    5552:	e776      	b.n	5442 <__aeabi_dadd+0x52>
    5554:	4641      	mov	r1, r8
    5556:	4331      	orrs	r1, r6
    5558:	d100      	bne.n	555c <__aeabi_dadd+0x16c>
    555a:	e234      	b.n	59c6 <__aeabi_dadd+0x5d6>
    555c:	0031      	movs	r1, r6
    555e:	4645      	mov	r5, r8
    5560:	076b      	lsls	r3, r5, #29
    5562:	d000      	beq.n	5566 <__aeabi_dadd+0x176>
    5564:	e76f      	b.n	5446 <__aeabi_dadd+0x56>
    5566:	4656      	mov	r6, sl
    5568:	0748      	lsls	r0, r1, #29
    556a:	08ed      	lsrs	r5, r5, #3
    556c:	08c9      	lsrs	r1, r1, #3
    556e:	4305      	orrs	r5, r0
    5570:	4b86      	ldr	r3, [pc, #536]	; (578c <__aeabi_dadd+0x39c>)
    5572:	429c      	cmp	r4, r3
    5574:	d035      	beq.n	55e2 <__aeabi_dadd+0x1f2>
    5576:	030a      	lsls	r2, r1, #12
    5578:	0564      	lsls	r4, r4, #21
    557a:	0b12      	lsrs	r2, r2, #12
    557c:	0d64      	lsrs	r4, r4, #21
    557e:	e77f      	b.n	5480 <__aeabi_dadd+0x90>
    5580:	4663      	mov	r3, ip
    5582:	1ae3      	subs	r3, r4, r3
    5584:	469b      	mov	fp, r3
    5586:	2b00      	cmp	r3, #0
    5588:	dc00      	bgt.n	558c <__aeabi_dadd+0x19c>
    558a:	e08b      	b.n	56a4 <__aeabi_dadd+0x2b4>
    558c:	4667      	mov	r7, ip
    558e:	2f00      	cmp	r7, #0
    5590:	d03c      	beq.n	560c <__aeabi_dadd+0x21c>
    5592:	4f7e      	ldr	r7, [pc, #504]	; (578c <__aeabi_dadd+0x39c>)
    5594:	42bc      	cmp	r4, r7
    5596:	d100      	bne.n	559a <__aeabi_dadd+0x1aa>
    5598:	e753      	b.n	5442 <__aeabi_dadd+0x52>
    559a:	2780      	movs	r7, #128	; 0x80
    559c:	043f      	lsls	r7, r7, #16
    559e:	4338      	orrs	r0, r7
    55a0:	465b      	mov	r3, fp
    55a2:	2b38      	cmp	r3, #56	; 0x38
    55a4:	dc00      	bgt.n	55a8 <__aeabi_dadd+0x1b8>
    55a6:	e0f7      	b.n	5798 <__aeabi_dadd+0x3a8>
    55a8:	4302      	orrs	r2, r0
    55aa:	1e50      	subs	r0, r2, #1
    55ac:	4182      	sbcs	r2, r0
    55ae:	2000      	movs	r0, #0
    55b0:	b2d2      	uxtb	r2, r2
    55b2:	1953      	adds	r3, r2, r5
    55b4:	1842      	adds	r2, r0, r1
    55b6:	42ab      	cmp	r3, r5
    55b8:	4189      	sbcs	r1, r1
    55ba:	001d      	movs	r5, r3
    55bc:	4249      	negs	r1, r1
    55be:	1889      	adds	r1, r1, r2
    55c0:	020b      	lsls	r3, r1, #8
    55c2:	d5cd      	bpl.n	5560 <__aeabi_dadd+0x170>
    55c4:	4b71      	ldr	r3, [pc, #452]	; (578c <__aeabi_dadd+0x39c>)
    55c6:	3401      	adds	r4, #1
    55c8:	429c      	cmp	r4, r3
    55ca:	d100      	bne.n	55ce <__aeabi_dadd+0x1de>
    55cc:	e13d      	b.n	584a <__aeabi_dadd+0x45a>
    55ce:	2001      	movs	r0, #1
    55d0:	4a6f      	ldr	r2, [pc, #444]	; (5790 <__aeabi_dadd+0x3a0>)
    55d2:	086b      	lsrs	r3, r5, #1
    55d4:	400a      	ands	r2, r1
    55d6:	4028      	ands	r0, r5
    55d8:	4318      	orrs	r0, r3
    55da:	07d5      	lsls	r5, r2, #31
    55dc:	4305      	orrs	r5, r0
    55de:	0851      	lsrs	r1, r2, #1
    55e0:	e72f      	b.n	5442 <__aeabi_dadd+0x52>
    55e2:	002b      	movs	r3, r5
    55e4:	430b      	orrs	r3, r1
    55e6:	d100      	bne.n	55ea <__aeabi_dadd+0x1fa>
    55e8:	e1cb      	b.n	5982 <__aeabi_dadd+0x592>
    55ea:	2380      	movs	r3, #128	; 0x80
    55ec:	031b      	lsls	r3, r3, #12
    55ee:	430b      	orrs	r3, r1
    55f0:	031a      	lsls	r2, r3, #12
    55f2:	0b12      	lsrs	r2, r2, #12
    55f4:	e744      	b.n	5480 <__aeabi_dadd+0x90>
    55f6:	3e01      	subs	r6, #1
    55f8:	2e00      	cmp	r6, #0
    55fa:	d16d      	bne.n	56d8 <__aeabi_dadd+0x2e8>
    55fc:	1aae      	subs	r6, r5, r2
    55fe:	42b5      	cmp	r5, r6
    5600:	419b      	sbcs	r3, r3
    5602:	1a09      	subs	r1, r1, r0
    5604:	425b      	negs	r3, r3
    5606:	1ac9      	subs	r1, r1, r3
    5608:	0035      	movs	r5, r6
    560a:	e775      	b.n	54f8 <__aeabi_dadd+0x108>
    560c:	0007      	movs	r7, r0
    560e:	4317      	orrs	r7, r2
    5610:	d100      	bne.n	5614 <__aeabi_dadd+0x224>
    5612:	e716      	b.n	5442 <__aeabi_dadd+0x52>
    5614:	2301      	movs	r3, #1
    5616:	425b      	negs	r3, r3
    5618:	469c      	mov	ip, r3
    561a:	44e3      	add	fp, ip
    561c:	465b      	mov	r3, fp
    561e:	2b00      	cmp	r3, #0
    5620:	d000      	beq.n	5624 <__aeabi_dadd+0x234>
    5622:	e0e0      	b.n	57e6 <__aeabi_dadd+0x3f6>
    5624:	18aa      	adds	r2, r5, r2
    5626:	42aa      	cmp	r2, r5
    5628:	419b      	sbcs	r3, r3
    562a:	1809      	adds	r1, r1, r0
    562c:	425b      	negs	r3, r3
    562e:	1859      	adds	r1, r3, r1
    5630:	0015      	movs	r5, r2
    5632:	e7c5      	b.n	55c0 <__aeabi_dadd+0x1d0>
    5634:	2e00      	cmp	r6, #0
    5636:	d175      	bne.n	5724 <__aeabi_dadd+0x334>
    5638:	1c66      	adds	r6, r4, #1
    563a:	0576      	lsls	r6, r6, #21
    563c:	0d76      	lsrs	r6, r6, #21
    563e:	2e01      	cmp	r6, #1
    5640:	dc00      	bgt.n	5644 <__aeabi_dadd+0x254>
    5642:	e0f3      	b.n	582c <__aeabi_dadd+0x43c>
    5644:	1aae      	subs	r6, r5, r2
    5646:	46b0      	mov	r8, r6
    5648:	4545      	cmp	r5, r8
    564a:	41bf      	sbcs	r7, r7
    564c:	1a0e      	subs	r6, r1, r0
    564e:	427f      	negs	r7, r7
    5650:	1bf6      	subs	r6, r6, r7
    5652:	0237      	lsls	r7, r6, #8
    5654:	d400      	bmi.n	5658 <__aeabi_dadd+0x268>
    5656:	e08f      	b.n	5778 <__aeabi_dadd+0x388>
    5658:	1b55      	subs	r5, r2, r5
    565a:	42aa      	cmp	r2, r5
    565c:	41b6      	sbcs	r6, r6
    565e:	1a41      	subs	r1, r0, r1
    5660:	4276      	negs	r6, r6
    5662:	1b8e      	subs	r6, r1, r6
    5664:	469a      	mov	sl, r3
    5666:	e74b      	b.n	5500 <__aeabi_dadd+0x110>
    5668:	4656      	mov	r6, sl
    566a:	2200      	movs	r2, #0
    566c:	2500      	movs	r5, #0
    566e:	e707      	b.n	5480 <__aeabi_dadd+0x90>
    5670:	0028      	movs	r0, r5
    5672:	f001 fd8b 	bl	718c <__clzsi2>
    5676:	3020      	adds	r0, #32
    5678:	0003      	movs	r3, r0
    567a:	3b08      	subs	r3, #8
    567c:	2b1f      	cmp	r3, #31
    567e:	dc00      	bgt.n	5682 <__aeabi_dadd+0x292>
    5680:	e749      	b.n	5516 <__aeabi_dadd+0x126>
    5682:	002a      	movs	r2, r5
    5684:	3828      	subs	r0, #40	; 0x28
    5686:	4082      	lsls	r2, r0
    5688:	2500      	movs	r5, #0
    568a:	429c      	cmp	r4, r3
    568c:	dc00      	bgt.n	5690 <__aeabi_dadd+0x2a0>
    568e:	e74d      	b.n	552c <__aeabi_dadd+0x13c>
    5690:	493f      	ldr	r1, [pc, #252]	; (5790 <__aeabi_dadd+0x3a0>)
    5692:	1ae4      	subs	r4, r4, r3
    5694:	4011      	ands	r1, r2
    5696:	e6d4      	b.n	5442 <__aeabi_dadd+0x52>
    5698:	4302      	orrs	r2, r0
    569a:	1e50      	subs	r0, r2, #1
    569c:	4182      	sbcs	r2, r0
    569e:	b2d3      	uxtb	r3, r2
    56a0:	2200      	movs	r2, #0
    56a2:	e722      	b.n	54ea <__aeabi_dadd+0xfa>
    56a4:	2b00      	cmp	r3, #0
    56a6:	d000      	beq.n	56aa <__aeabi_dadd+0x2ba>
    56a8:	e0f3      	b.n	5892 <__aeabi_dadd+0x4a2>
    56aa:	1c63      	adds	r3, r4, #1
    56ac:	469c      	mov	ip, r3
    56ae:	055b      	lsls	r3, r3, #21
    56b0:	0d5b      	lsrs	r3, r3, #21
    56b2:	2b01      	cmp	r3, #1
    56b4:	dc00      	bgt.n	56b8 <__aeabi_dadd+0x2c8>
    56b6:	e09f      	b.n	57f8 <__aeabi_dadd+0x408>
    56b8:	4b34      	ldr	r3, [pc, #208]	; (578c <__aeabi_dadd+0x39c>)
    56ba:	459c      	cmp	ip, r3
    56bc:	d100      	bne.n	56c0 <__aeabi_dadd+0x2d0>
    56be:	e0c3      	b.n	5848 <__aeabi_dadd+0x458>
    56c0:	18aa      	adds	r2, r5, r2
    56c2:	1809      	adds	r1, r1, r0
    56c4:	42aa      	cmp	r2, r5
    56c6:	4180      	sbcs	r0, r0
    56c8:	4240      	negs	r0, r0
    56ca:	1841      	adds	r1, r0, r1
    56cc:	07cd      	lsls	r5, r1, #31
    56ce:	0852      	lsrs	r2, r2, #1
    56d0:	4315      	orrs	r5, r2
    56d2:	0849      	lsrs	r1, r1, #1
    56d4:	4664      	mov	r4, ip
    56d6:	e6b4      	b.n	5442 <__aeabi_dadd+0x52>
    56d8:	4b2c      	ldr	r3, [pc, #176]	; (578c <__aeabi_dadd+0x39c>)
    56da:	429c      	cmp	r4, r3
    56dc:	d000      	beq.n	56e0 <__aeabi_dadd+0x2f0>
    56de:	e6ec      	b.n	54ba <__aeabi_dadd+0xca>
    56e0:	e6af      	b.n	5442 <__aeabi_dadd+0x52>
    56e2:	0011      	movs	r1, r2
    56e4:	3c1f      	subs	r4, #31
    56e6:	40e1      	lsrs	r1, r4
    56e8:	000c      	movs	r4, r1
    56ea:	2b20      	cmp	r3, #32
    56ec:	d100      	bne.n	56f0 <__aeabi_dadd+0x300>
    56ee:	e07f      	b.n	57f0 <__aeabi_dadd+0x400>
    56f0:	2140      	movs	r1, #64	; 0x40
    56f2:	1acb      	subs	r3, r1, r3
    56f4:	409a      	lsls	r2, r3
    56f6:	4315      	orrs	r5, r2
    56f8:	1e6a      	subs	r2, r5, #1
    56fa:	4195      	sbcs	r5, r2
    56fc:	2100      	movs	r1, #0
    56fe:	4325      	orrs	r5, r4
    5700:	2400      	movs	r4, #0
    5702:	e72d      	b.n	5560 <__aeabi_dadd+0x170>
    5704:	0033      	movs	r3, r6
    5706:	0007      	movs	r7, r0
    5708:	3b20      	subs	r3, #32
    570a:	40df      	lsrs	r7, r3
    570c:	003b      	movs	r3, r7
    570e:	2e20      	cmp	r6, #32
    5710:	d070      	beq.n	57f4 <__aeabi_dadd+0x404>
    5712:	2740      	movs	r7, #64	; 0x40
    5714:	1bbe      	subs	r6, r7, r6
    5716:	40b0      	lsls	r0, r6
    5718:	4302      	orrs	r2, r0
    571a:	1e50      	subs	r0, r2, #1
    571c:	4182      	sbcs	r2, r0
    571e:	4313      	orrs	r3, r2
    5720:	2200      	movs	r2, #0
    5722:	e6e2      	b.n	54ea <__aeabi_dadd+0xfa>
    5724:	2c00      	cmp	r4, #0
    5726:	d04f      	beq.n	57c8 <__aeabi_dadd+0x3d8>
    5728:	4c18      	ldr	r4, [pc, #96]	; (578c <__aeabi_dadd+0x39c>)
    572a:	45a4      	cmp	ip, r4
    572c:	d100      	bne.n	5730 <__aeabi_dadd+0x340>
    572e:	e0ab      	b.n	5888 <__aeabi_dadd+0x498>
    5730:	2480      	movs	r4, #128	; 0x80
    5732:	0424      	lsls	r4, r4, #16
    5734:	4276      	negs	r6, r6
    5736:	4321      	orrs	r1, r4
    5738:	2e38      	cmp	r6, #56	; 0x38
    573a:	dd00      	ble.n	573e <__aeabi_dadd+0x34e>
    573c:	e0df      	b.n	58fe <__aeabi_dadd+0x50e>
    573e:	2e1f      	cmp	r6, #31
    5740:	dd00      	ble.n	5744 <__aeabi_dadd+0x354>
    5742:	e143      	b.n	59cc <__aeabi_dadd+0x5dc>
    5744:	2720      	movs	r7, #32
    5746:	1bbc      	subs	r4, r7, r6
    5748:	46a1      	mov	r9, r4
    574a:	000c      	movs	r4, r1
    574c:	464f      	mov	r7, r9
    574e:	40bc      	lsls	r4, r7
    5750:	46a0      	mov	r8, r4
    5752:	002c      	movs	r4, r5
    5754:	4647      	mov	r7, r8
    5756:	40f4      	lsrs	r4, r6
    5758:	433c      	orrs	r4, r7
    575a:	464f      	mov	r7, r9
    575c:	40bd      	lsls	r5, r7
    575e:	1e6f      	subs	r7, r5, #1
    5760:	41bd      	sbcs	r5, r7
    5762:	40f1      	lsrs	r1, r6
    5764:	432c      	orrs	r4, r5
    5766:	1b15      	subs	r5, r2, r4
    5768:	42aa      	cmp	r2, r5
    576a:	4192      	sbcs	r2, r2
    576c:	1a41      	subs	r1, r0, r1
    576e:	4252      	negs	r2, r2
    5770:	1a89      	subs	r1, r1, r2
    5772:	4664      	mov	r4, ip
    5774:	469a      	mov	sl, r3
    5776:	e6bf      	b.n	54f8 <__aeabi_dadd+0x108>
    5778:	4641      	mov	r1, r8
    577a:	4645      	mov	r5, r8
    577c:	4331      	orrs	r1, r6
    577e:	d000      	beq.n	5782 <__aeabi_dadd+0x392>
    5780:	e6be      	b.n	5500 <__aeabi_dadd+0x110>
    5782:	2600      	movs	r6, #0
    5784:	2400      	movs	r4, #0
    5786:	2500      	movs	r5, #0
    5788:	e6f2      	b.n	5570 <__aeabi_dadd+0x180>
    578a:	46c0      	nop			; (mov r8, r8)
    578c:	000007ff 	.word	0x000007ff
    5790:	ff7fffff 	.word	0xff7fffff
    5794:	800fffff 	.word	0x800fffff
    5798:	2b1f      	cmp	r3, #31
    579a:	dc59      	bgt.n	5850 <__aeabi_dadd+0x460>
    579c:	2720      	movs	r7, #32
    579e:	1aff      	subs	r7, r7, r3
    57a0:	46bc      	mov	ip, r7
    57a2:	0007      	movs	r7, r0
    57a4:	4663      	mov	r3, ip
    57a6:	409f      	lsls	r7, r3
    57a8:	465b      	mov	r3, fp
    57aa:	46b9      	mov	r9, r7
    57ac:	0017      	movs	r7, r2
    57ae:	40df      	lsrs	r7, r3
    57b0:	46b8      	mov	r8, r7
    57b2:	464f      	mov	r7, r9
    57b4:	4643      	mov	r3, r8
    57b6:	431f      	orrs	r7, r3
    57b8:	4663      	mov	r3, ip
    57ba:	409a      	lsls	r2, r3
    57bc:	1e53      	subs	r3, r2, #1
    57be:	419a      	sbcs	r2, r3
    57c0:	465b      	mov	r3, fp
    57c2:	433a      	orrs	r2, r7
    57c4:	40d8      	lsrs	r0, r3
    57c6:	e6f4      	b.n	55b2 <__aeabi_dadd+0x1c2>
    57c8:	000c      	movs	r4, r1
    57ca:	432c      	orrs	r4, r5
    57cc:	d05c      	beq.n	5888 <__aeabi_dadd+0x498>
    57ce:	43f6      	mvns	r6, r6
    57d0:	2e00      	cmp	r6, #0
    57d2:	d155      	bne.n	5880 <__aeabi_dadd+0x490>
    57d4:	1b55      	subs	r5, r2, r5
    57d6:	42aa      	cmp	r2, r5
    57d8:	41a4      	sbcs	r4, r4
    57da:	1a41      	subs	r1, r0, r1
    57dc:	4264      	negs	r4, r4
    57de:	1b09      	subs	r1, r1, r4
    57e0:	469a      	mov	sl, r3
    57e2:	4664      	mov	r4, ip
    57e4:	e688      	b.n	54f8 <__aeabi_dadd+0x108>
    57e6:	4f96      	ldr	r7, [pc, #600]	; (5a40 <__aeabi_dadd+0x650>)
    57e8:	42bc      	cmp	r4, r7
    57ea:	d000      	beq.n	57ee <__aeabi_dadd+0x3fe>
    57ec:	e6d8      	b.n	55a0 <__aeabi_dadd+0x1b0>
    57ee:	e628      	b.n	5442 <__aeabi_dadd+0x52>
    57f0:	2200      	movs	r2, #0
    57f2:	e780      	b.n	56f6 <__aeabi_dadd+0x306>
    57f4:	2000      	movs	r0, #0
    57f6:	e78f      	b.n	5718 <__aeabi_dadd+0x328>
    57f8:	000b      	movs	r3, r1
    57fa:	432b      	orrs	r3, r5
    57fc:	2c00      	cmp	r4, #0
    57fe:	d000      	beq.n	5802 <__aeabi_dadd+0x412>
    5800:	e0c2      	b.n	5988 <__aeabi_dadd+0x598>
    5802:	2b00      	cmp	r3, #0
    5804:	d100      	bne.n	5808 <__aeabi_dadd+0x418>
    5806:	e101      	b.n	5a0c <__aeabi_dadd+0x61c>
    5808:	0003      	movs	r3, r0
    580a:	4313      	orrs	r3, r2
    580c:	d100      	bne.n	5810 <__aeabi_dadd+0x420>
    580e:	e618      	b.n	5442 <__aeabi_dadd+0x52>
    5810:	18ab      	adds	r3, r5, r2
    5812:	42ab      	cmp	r3, r5
    5814:	41b6      	sbcs	r6, r6
    5816:	1809      	adds	r1, r1, r0
    5818:	4276      	negs	r6, r6
    581a:	1871      	adds	r1, r6, r1
    581c:	020a      	lsls	r2, r1, #8
    581e:	d400      	bmi.n	5822 <__aeabi_dadd+0x432>
    5820:	e109      	b.n	5a36 <__aeabi_dadd+0x646>
    5822:	4a88      	ldr	r2, [pc, #544]	; (5a44 <__aeabi_dadd+0x654>)
    5824:	001d      	movs	r5, r3
    5826:	4011      	ands	r1, r2
    5828:	4664      	mov	r4, ip
    582a:	e60a      	b.n	5442 <__aeabi_dadd+0x52>
    582c:	2c00      	cmp	r4, #0
    582e:	d15b      	bne.n	58e8 <__aeabi_dadd+0x4f8>
    5830:	000e      	movs	r6, r1
    5832:	432e      	orrs	r6, r5
    5834:	d000      	beq.n	5838 <__aeabi_dadd+0x448>
    5836:	e08a      	b.n	594e <__aeabi_dadd+0x55e>
    5838:	0001      	movs	r1, r0
    583a:	4311      	orrs	r1, r2
    583c:	d100      	bne.n	5840 <__aeabi_dadd+0x450>
    583e:	e0c2      	b.n	59c6 <__aeabi_dadd+0x5d6>
    5840:	0001      	movs	r1, r0
    5842:	0015      	movs	r5, r2
    5844:	469a      	mov	sl, r3
    5846:	e5fc      	b.n	5442 <__aeabi_dadd+0x52>
    5848:	4664      	mov	r4, ip
    584a:	2100      	movs	r1, #0
    584c:	2500      	movs	r5, #0
    584e:	e68f      	b.n	5570 <__aeabi_dadd+0x180>
    5850:	2320      	movs	r3, #32
    5852:	425b      	negs	r3, r3
    5854:	469c      	mov	ip, r3
    5856:	44dc      	add	ip, fp
    5858:	4663      	mov	r3, ip
    585a:	0007      	movs	r7, r0
    585c:	40df      	lsrs	r7, r3
    585e:	465b      	mov	r3, fp
    5860:	46bc      	mov	ip, r7
    5862:	2b20      	cmp	r3, #32
    5864:	d100      	bne.n	5868 <__aeabi_dadd+0x478>
    5866:	e0ac      	b.n	59c2 <__aeabi_dadd+0x5d2>
    5868:	2340      	movs	r3, #64	; 0x40
    586a:	465f      	mov	r7, fp
    586c:	1bdb      	subs	r3, r3, r7
    586e:	4098      	lsls	r0, r3
    5870:	4302      	orrs	r2, r0
    5872:	1e50      	subs	r0, r2, #1
    5874:	4182      	sbcs	r2, r0
    5876:	4663      	mov	r3, ip
    5878:	4313      	orrs	r3, r2
    587a:	001a      	movs	r2, r3
    587c:	2000      	movs	r0, #0
    587e:	e698      	b.n	55b2 <__aeabi_dadd+0x1c2>
    5880:	4c6f      	ldr	r4, [pc, #444]	; (5a40 <__aeabi_dadd+0x650>)
    5882:	45a4      	cmp	ip, r4
    5884:	d000      	beq.n	5888 <__aeabi_dadd+0x498>
    5886:	e757      	b.n	5738 <__aeabi_dadd+0x348>
    5888:	0001      	movs	r1, r0
    588a:	0015      	movs	r5, r2
    588c:	4664      	mov	r4, ip
    588e:	469a      	mov	sl, r3
    5890:	e5d7      	b.n	5442 <__aeabi_dadd+0x52>
    5892:	2c00      	cmp	r4, #0
    5894:	d139      	bne.n	590a <__aeabi_dadd+0x51a>
    5896:	000c      	movs	r4, r1
    5898:	432c      	orrs	r4, r5
    589a:	d06e      	beq.n	597a <__aeabi_dadd+0x58a>
    589c:	43db      	mvns	r3, r3
    589e:	2b00      	cmp	r3, #0
    58a0:	d01a      	beq.n	58d8 <__aeabi_dadd+0x4e8>
    58a2:	4c67      	ldr	r4, [pc, #412]	; (5a40 <__aeabi_dadd+0x650>)
    58a4:	45a4      	cmp	ip, r4
    58a6:	d068      	beq.n	597a <__aeabi_dadd+0x58a>
    58a8:	2b38      	cmp	r3, #56	; 0x38
    58aa:	dd00      	ble.n	58ae <__aeabi_dadd+0x4be>
    58ac:	e0a4      	b.n	59f8 <__aeabi_dadd+0x608>
    58ae:	2b1f      	cmp	r3, #31
    58b0:	dd00      	ble.n	58b4 <__aeabi_dadd+0x4c4>
    58b2:	e0ae      	b.n	5a12 <__aeabi_dadd+0x622>
    58b4:	2420      	movs	r4, #32
    58b6:	000f      	movs	r7, r1
    58b8:	1ae4      	subs	r4, r4, r3
    58ba:	40a7      	lsls	r7, r4
    58bc:	46b9      	mov	r9, r7
    58be:	002f      	movs	r7, r5
    58c0:	40df      	lsrs	r7, r3
    58c2:	46b8      	mov	r8, r7
    58c4:	46a3      	mov	fp, r4
    58c6:	464f      	mov	r7, r9
    58c8:	4644      	mov	r4, r8
    58ca:	4327      	orrs	r7, r4
    58cc:	465c      	mov	r4, fp
    58ce:	40a5      	lsls	r5, r4
    58d0:	1e6c      	subs	r4, r5, #1
    58d2:	41a5      	sbcs	r5, r4
    58d4:	40d9      	lsrs	r1, r3
    58d6:	433d      	orrs	r5, r7
    58d8:	18ad      	adds	r5, r5, r2
    58da:	4295      	cmp	r5, r2
    58dc:	419b      	sbcs	r3, r3
    58de:	1809      	adds	r1, r1, r0
    58e0:	425b      	negs	r3, r3
    58e2:	1859      	adds	r1, r3, r1
    58e4:	4664      	mov	r4, ip
    58e6:	e66b      	b.n	55c0 <__aeabi_dadd+0x1d0>
    58e8:	000c      	movs	r4, r1
    58ea:	432c      	orrs	r4, r5
    58ec:	d115      	bne.n	591a <__aeabi_dadd+0x52a>
    58ee:	0001      	movs	r1, r0
    58f0:	4311      	orrs	r1, r2
    58f2:	d07b      	beq.n	59ec <__aeabi_dadd+0x5fc>
    58f4:	0001      	movs	r1, r0
    58f6:	0015      	movs	r5, r2
    58f8:	469a      	mov	sl, r3
    58fa:	4c51      	ldr	r4, [pc, #324]	; (5a40 <__aeabi_dadd+0x650>)
    58fc:	e5a1      	b.n	5442 <__aeabi_dadd+0x52>
    58fe:	430d      	orrs	r5, r1
    5900:	1e69      	subs	r1, r5, #1
    5902:	418d      	sbcs	r5, r1
    5904:	2100      	movs	r1, #0
    5906:	b2ec      	uxtb	r4, r5
    5908:	e72d      	b.n	5766 <__aeabi_dadd+0x376>
    590a:	4c4d      	ldr	r4, [pc, #308]	; (5a40 <__aeabi_dadd+0x650>)
    590c:	45a4      	cmp	ip, r4
    590e:	d034      	beq.n	597a <__aeabi_dadd+0x58a>
    5910:	2480      	movs	r4, #128	; 0x80
    5912:	0424      	lsls	r4, r4, #16
    5914:	425b      	negs	r3, r3
    5916:	4321      	orrs	r1, r4
    5918:	e7c6      	b.n	58a8 <__aeabi_dadd+0x4b8>
    591a:	0004      	movs	r4, r0
    591c:	4314      	orrs	r4, r2
    591e:	d04e      	beq.n	59be <__aeabi_dadd+0x5ce>
    5920:	08ed      	lsrs	r5, r5, #3
    5922:	074c      	lsls	r4, r1, #29
    5924:	432c      	orrs	r4, r5
    5926:	2580      	movs	r5, #128	; 0x80
    5928:	08c9      	lsrs	r1, r1, #3
    592a:	032d      	lsls	r5, r5, #12
    592c:	4229      	tst	r1, r5
    592e:	d008      	beq.n	5942 <__aeabi_dadd+0x552>
    5930:	08c6      	lsrs	r6, r0, #3
    5932:	422e      	tst	r6, r5
    5934:	d105      	bne.n	5942 <__aeabi_dadd+0x552>
    5936:	08d2      	lsrs	r2, r2, #3
    5938:	0741      	lsls	r1, r0, #29
    593a:	4311      	orrs	r1, r2
    593c:	000c      	movs	r4, r1
    593e:	469a      	mov	sl, r3
    5940:	0031      	movs	r1, r6
    5942:	0f62      	lsrs	r2, r4, #29
    5944:	00c9      	lsls	r1, r1, #3
    5946:	00e5      	lsls	r5, r4, #3
    5948:	4311      	orrs	r1, r2
    594a:	4c3d      	ldr	r4, [pc, #244]	; (5a40 <__aeabi_dadd+0x650>)
    594c:	e579      	b.n	5442 <__aeabi_dadd+0x52>
    594e:	0006      	movs	r6, r0
    5950:	4316      	orrs	r6, r2
    5952:	d100      	bne.n	5956 <__aeabi_dadd+0x566>
    5954:	e575      	b.n	5442 <__aeabi_dadd+0x52>
    5956:	1aae      	subs	r6, r5, r2
    5958:	46b0      	mov	r8, r6
    595a:	4545      	cmp	r5, r8
    595c:	41bf      	sbcs	r7, r7
    595e:	1a0e      	subs	r6, r1, r0
    5960:	427f      	negs	r7, r7
    5962:	1bf6      	subs	r6, r6, r7
    5964:	0237      	lsls	r7, r6, #8
    5966:	d400      	bmi.n	596a <__aeabi_dadd+0x57a>
    5968:	e5f4      	b.n	5554 <__aeabi_dadd+0x164>
    596a:	1b55      	subs	r5, r2, r5
    596c:	42aa      	cmp	r2, r5
    596e:	41b6      	sbcs	r6, r6
    5970:	1a41      	subs	r1, r0, r1
    5972:	4276      	negs	r6, r6
    5974:	1b89      	subs	r1, r1, r6
    5976:	469a      	mov	sl, r3
    5978:	e563      	b.n	5442 <__aeabi_dadd+0x52>
    597a:	0001      	movs	r1, r0
    597c:	0015      	movs	r5, r2
    597e:	4664      	mov	r4, ip
    5980:	e55f      	b.n	5442 <__aeabi_dadd+0x52>
    5982:	2200      	movs	r2, #0
    5984:	2500      	movs	r5, #0
    5986:	e57b      	b.n	5480 <__aeabi_dadd+0x90>
    5988:	2b00      	cmp	r3, #0
    598a:	d03b      	beq.n	5a04 <__aeabi_dadd+0x614>
    598c:	0003      	movs	r3, r0
    598e:	4313      	orrs	r3, r2
    5990:	d015      	beq.n	59be <__aeabi_dadd+0x5ce>
    5992:	08ed      	lsrs	r5, r5, #3
    5994:	074b      	lsls	r3, r1, #29
    5996:	432b      	orrs	r3, r5
    5998:	2580      	movs	r5, #128	; 0x80
    599a:	08c9      	lsrs	r1, r1, #3
    599c:	032d      	lsls	r5, r5, #12
    599e:	4229      	tst	r1, r5
    59a0:	d007      	beq.n	59b2 <__aeabi_dadd+0x5c2>
    59a2:	08c4      	lsrs	r4, r0, #3
    59a4:	422c      	tst	r4, r5
    59a6:	d104      	bne.n	59b2 <__aeabi_dadd+0x5c2>
    59a8:	0741      	lsls	r1, r0, #29
    59aa:	000b      	movs	r3, r1
    59ac:	0021      	movs	r1, r4
    59ae:	08d2      	lsrs	r2, r2, #3
    59b0:	4313      	orrs	r3, r2
    59b2:	00c9      	lsls	r1, r1, #3
    59b4:	0f5a      	lsrs	r2, r3, #29
    59b6:	4311      	orrs	r1, r2
    59b8:	00dd      	lsls	r5, r3, #3
    59ba:	4c21      	ldr	r4, [pc, #132]	; (5a40 <__aeabi_dadd+0x650>)
    59bc:	e541      	b.n	5442 <__aeabi_dadd+0x52>
    59be:	4c20      	ldr	r4, [pc, #128]	; (5a40 <__aeabi_dadd+0x650>)
    59c0:	e53f      	b.n	5442 <__aeabi_dadd+0x52>
    59c2:	2000      	movs	r0, #0
    59c4:	e754      	b.n	5870 <__aeabi_dadd+0x480>
    59c6:	2600      	movs	r6, #0
    59c8:	2500      	movs	r5, #0
    59ca:	e5d1      	b.n	5570 <__aeabi_dadd+0x180>
    59cc:	0034      	movs	r4, r6
    59ce:	000f      	movs	r7, r1
    59d0:	3c20      	subs	r4, #32
    59d2:	40e7      	lsrs	r7, r4
    59d4:	003c      	movs	r4, r7
    59d6:	2e20      	cmp	r6, #32
    59d8:	d02b      	beq.n	5a32 <__aeabi_dadd+0x642>
    59da:	2740      	movs	r7, #64	; 0x40
    59dc:	1bbe      	subs	r6, r7, r6
    59de:	40b1      	lsls	r1, r6
    59e0:	430d      	orrs	r5, r1
    59e2:	1e69      	subs	r1, r5, #1
    59e4:	418d      	sbcs	r5, r1
    59e6:	2100      	movs	r1, #0
    59e8:	432c      	orrs	r4, r5
    59ea:	e6bc      	b.n	5766 <__aeabi_dadd+0x376>
    59ec:	2180      	movs	r1, #128	; 0x80
    59ee:	2600      	movs	r6, #0
    59f0:	0309      	lsls	r1, r1, #12
    59f2:	4c13      	ldr	r4, [pc, #76]	; (5a40 <__aeabi_dadd+0x650>)
    59f4:	2500      	movs	r5, #0
    59f6:	e5bb      	b.n	5570 <__aeabi_dadd+0x180>
    59f8:	430d      	orrs	r5, r1
    59fa:	1e69      	subs	r1, r5, #1
    59fc:	418d      	sbcs	r5, r1
    59fe:	2100      	movs	r1, #0
    5a00:	b2ed      	uxtb	r5, r5
    5a02:	e769      	b.n	58d8 <__aeabi_dadd+0x4e8>
    5a04:	0001      	movs	r1, r0
    5a06:	0015      	movs	r5, r2
    5a08:	4c0d      	ldr	r4, [pc, #52]	; (5a40 <__aeabi_dadd+0x650>)
    5a0a:	e51a      	b.n	5442 <__aeabi_dadd+0x52>
    5a0c:	0001      	movs	r1, r0
    5a0e:	0015      	movs	r5, r2
    5a10:	e517      	b.n	5442 <__aeabi_dadd+0x52>
    5a12:	001c      	movs	r4, r3
    5a14:	000f      	movs	r7, r1
    5a16:	3c20      	subs	r4, #32
    5a18:	40e7      	lsrs	r7, r4
    5a1a:	003c      	movs	r4, r7
    5a1c:	2b20      	cmp	r3, #32
    5a1e:	d00c      	beq.n	5a3a <__aeabi_dadd+0x64a>
    5a20:	2740      	movs	r7, #64	; 0x40
    5a22:	1afb      	subs	r3, r7, r3
    5a24:	4099      	lsls	r1, r3
    5a26:	430d      	orrs	r5, r1
    5a28:	1e69      	subs	r1, r5, #1
    5a2a:	418d      	sbcs	r5, r1
    5a2c:	2100      	movs	r1, #0
    5a2e:	4325      	orrs	r5, r4
    5a30:	e752      	b.n	58d8 <__aeabi_dadd+0x4e8>
    5a32:	2100      	movs	r1, #0
    5a34:	e7d4      	b.n	59e0 <__aeabi_dadd+0x5f0>
    5a36:	001d      	movs	r5, r3
    5a38:	e592      	b.n	5560 <__aeabi_dadd+0x170>
    5a3a:	2100      	movs	r1, #0
    5a3c:	e7f3      	b.n	5a26 <__aeabi_dadd+0x636>
    5a3e:	46c0      	nop			; (mov r8, r8)
    5a40:	000007ff 	.word	0x000007ff
    5a44:	ff7fffff 	.word	0xff7fffff

00005a48 <__aeabi_ddiv>:
    5a48:	b5f0      	push	{r4, r5, r6, r7, lr}
    5a4a:	4656      	mov	r6, sl
    5a4c:	464d      	mov	r5, r9
    5a4e:	4644      	mov	r4, r8
    5a50:	465f      	mov	r7, fp
    5a52:	b4f0      	push	{r4, r5, r6, r7}
    5a54:	001d      	movs	r5, r3
    5a56:	030e      	lsls	r6, r1, #12
    5a58:	004c      	lsls	r4, r1, #1
    5a5a:	0fcb      	lsrs	r3, r1, #31
    5a5c:	b087      	sub	sp, #28
    5a5e:	0007      	movs	r7, r0
    5a60:	4692      	mov	sl, r2
    5a62:	4681      	mov	r9, r0
    5a64:	0b36      	lsrs	r6, r6, #12
    5a66:	0d64      	lsrs	r4, r4, #21
    5a68:	4698      	mov	r8, r3
    5a6a:	d06a      	beq.n	5b42 <__aeabi_ddiv+0xfa>
    5a6c:	4b6d      	ldr	r3, [pc, #436]	; (5c24 <__aeabi_ddiv+0x1dc>)
    5a6e:	429c      	cmp	r4, r3
    5a70:	d035      	beq.n	5ade <__aeabi_ddiv+0x96>
    5a72:	2280      	movs	r2, #128	; 0x80
    5a74:	0f43      	lsrs	r3, r0, #29
    5a76:	0412      	lsls	r2, r2, #16
    5a78:	4313      	orrs	r3, r2
    5a7a:	00f6      	lsls	r6, r6, #3
    5a7c:	431e      	orrs	r6, r3
    5a7e:	00c3      	lsls	r3, r0, #3
    5a80:	4699      	mov	r9, r3
    5a82:	4b69      	ldr	r3, [pc, #420]	; (5c28 <__aeabi_ddiv+0x1e0>)
    5a84:	2700      	movs	r7, #0
    5a86:	469c      	mov	ip, r3
    5a88:	2300      	movs	r3, #0
    5a8a:	4464      	add	r4, ip
    5a8c:	9302      	str	r3, [sp, #8]
    5a8e:	032b      	lsls	r3, r5, #12
    5a90:	0068      	lsls	r0, r5, #1
    5a92:	0b1b      	lsrs	r3, r3, #12
    5a94:	0fed      	lsrs	r5, r5, #31
    5a96:	4651      	mov	r1, sl
    5a98:	469b      	mov	fp, r3
    5a9a:	0d40      	lsrs	r0, r0, #21
    5a9c:	9500      	str	r5, [sp, #0]
    5a9e:	d100      	bne.n	5aa2 <__aeabi_ddiv+0x5a>
    5aa0:	e078      	b.n	5b94 <__aeabi_ddiv+0x14c>
    5aa2:	4b60      	ldr	r3, [pc, #384]	; (5c24 <__aeabi_ddiv+0x1dc>)
    5aa4:	4298      	cmp	r0, r3
    5aa6:	d06c      	beq.n	5b82 <__aeabi_ddiv+0x13a>
    5aa8:	465b      	mov	r3, fp
    5aaa:	00da      	lsls	r2, r3, #3
    5aac:	0f4b      	lsrs	r3, r1, #29
    5aae:	2180      	movs	r1, #128	; 0x80
    5ab0:	0409      	lsls	r1, r1, #16
    5ab2:	430b      	orrs	r3, r1
    5ab4:	4313      	orrs	r3, r2
    5ab6:	469b      	mov	fp, r3
    5ab8:	4653      	mov	r3, sl
    5aba:	00d9      	lsls	r1, r3, #3
    5abc:	4b5a      	ldr	r3, [pc, #360]	; (5c28 <__aeabi_ddiv+0x1e0>)
    5abe:	469c      	mov	ip, r3
    5ac0:	2300      	movs	r3, #0
    5ac2:	4460      	add	r0, ip
    5ac4:	4642      	mov	r2, r8
    5ac6:	1a20      	subs	r0, r4, r0
    5ac8:	406a      	eors	r2, r5
    5aca:	4692      	mov	sl, r2
    5acc:	9001      	str	r0, [sp, #4]
    5ace:	431f      	orrs	r7, r3
    5ad0:	2f0f      	cmp	r7, #15
    5ad2:	d900      	bls.n	5ad6 <__aeabi_ddiv+0x8e>
    5ad4:	e0b0      	b.n	5c38 <__aeabi_ddiv+0x1f0>
    5ad6:	4855      	ldr	r0, [pc, #340]	; (5c2c <__aeabi_ddiv+0x1e4>)
    5ad8:	00bf      	lsls	r7, r7, #2
    5ada:	59c0      	ldr	r0, [r0, r7]
    5adc:	4687      	mov	pc, r0
    5ade:	4337      	orrs	r7, r6
    5ae0:	d000      	beq.n	5ae4 <__aeabi_ddiv+0x9c>
    5ae2:	e088      	b.n	5bf6 <__aeabi_ddiv+0x1ae>
    5ae4:	2300      	movs	r3, #0
    5ae6:	4699      	mov	r9, r3
    5ae8:	3302      	adds	r3, #2
    5aea:	2708      	movs	r7, #8
    5aec:	2600      	movs	r6, #0
    5aee:	9302      	str	r3, [sp, #8]
    5af0:	e7cd      	b.n	5a8e <__aeabi_ddiv+0x46>
    5af2:	4643      	mov	r3, r8
    5af4:	46b3      	mov	fp, r6
    5af6:	4649      	mov	r1, r9
    5af8:	9300      	str	r3, [sp, #0]
    5afa:	9b02      	ldr	r3, [sp, #8]
    5afc:	9a00      	ldr	r2, [sp, #0]
    5afe:	4692      	mov	sl, r2
    5b00:	2b02      	cmp	r3, #2
    5b02:	d000      	beq.n	5b06 <__aeabi_ddiv+0xbe>
    5b04:	e1bf      	b.n	5e86 <__aeabi_ddiv+0x43e>
    5b06:	2100      	movs	r1, #0
    5b08:	4653      	mov	r3, sl
    5b0a:	2201      	movs	r2, #1
    5b0c:	2600      	movs	r6, #0
    5b0e:	4689      	mov	r9, r1
    5b10:	401a      	ands	r2, r3
    5b12:	4b44      	ldr	r3, [pc, #272]	; (5c24 <__aeabi_ddiv+0x1dc>)
    5b14:	2100      	movs	r1, #0
    5b16:	0336      	lsls	r6, r6, #12
    5b18:	0d0c      	lsrs	r4, r1, #20
    5b1a:	0524      	lsls	r4, r4, #20
    5b1c:	0b36      	lsrs	r6, r6, #12
    5b1e:	4326      	orrs	r6, r4
    5b20:	4c43      	ldr	r4, [pc, #268]	; (5c30 <__aeabi_ddiv+0x1e8>)
    5b22:	051b      	lsls	r3, r3, #20
    5b24:	4026      	ands	r6, r4
    5b26:	431e      	orrs	r6, r3
    5b28:	0076      	lsls	r6, r6, #1
    5b2a:	07d2      	lsls	r2, r2, #31
    5b2c:	0876      	lsrs	r6, r6, #1
    5b2e:	4316      	orrs	r6, r2
    5b30:	4648      	mov	r0, r9
    5b32:	0031      	movs	r1, r6
    5b34:	b007      	add	sp, #28
    5b36:	bc3c      	pop	{r2, r3, r4, r5}
    5b38:	4690      	mov	r8, r2
    5b3a:	4699      	mov	r9, r3
    5b3c:	46a2      	mov	sl, r4
    5b3e:	46ab      	mov	fp, r5
    5b40:	bdf0      	pop	{r4, r5, r6, r7, pc}
    5b42:	0033      	movs	r3, r6
    5b44:	4303      	orrs	r3, r0
    5b46:	d04f      	beq.n	5be8 <__aeabi_ddiv+0x1a0>
    5b48:	2e00      	cmp	r6, #0
    5b4a:	d100      	bne.n	5b4e <__aeabi_ddiv+0x106>
    5b4c:	e1bc      	b.n	5ec8 <__aeabi_ddiv+0x480>
    5b4e:	0030      	movs	r0, r6
    5b50:	f001 fb1c 	bl	718c <__clzsi2>
    5b54:	0003      	movs	r3, r0
    5b56:	3b0b      	subs	r3, #11
    5b58:	2b1c      	cmp	r3, #28
    5b5a:	dd00      	ble.n	5b5e <__aeabi_ddiv+0x116>
    5b5c:	e1ad      	b.n	5eba <__aeabi_ddiv+0x472>
    5b5e:	221d      	movs	r2, #29
    5b60:	0001      	movs	r1, r0
    5b62:	1ad3      	subs	r3, r2, r3
    5b64:	3908      	subs	r1, #8
    5b66:	003a      	movs	r2, r7
    5b68:	408f      	lsls	r7, r1
    5b6a:	408e      	lsls	r6, r1
    5b6c:	40da      	lsrs	r2, r3
    5b6e:	46b9      	mov	r9, r7
    5b70:	4316      	orrs	r6, r2
    5b72:	4b30      	ldr	r3, [pc, #192]	; (5c34 <__aeabi_ddiv+0x1ec>)
    5b74:	2700      	movs	r7, #0
    5b76:	469c      	mov	ip, r3
    5b78:	2300      	movs	r3, #0
    5b7a:	4460      	add	r0, ip
    5b7c:	4244      	negs	r4, r0
    5b7e:	9302      	str	r3, [sp, #8]
    5b80:	e785      	b.n	5a8e <__aeabi_ddiv+0x46>
    5b82:	4653      	mov	r3, sl
    5b84:	465a      	mov	r2, fp
    5b86:	4313      	orrs	r3, r2
    5b88:	d12c      	bne.n	5be4 <__aeabi_ddiv+0x19c>
    5b8a:	2300      	movs	r3, #0
    5b8c:	2100      	movs	r1, #0
    5b8e:	469b      	mov	fp, r3
    5b90:	3302      	adds	r3, #2
    5b92:	e797      	b.n	5ac4 <__aeabi_ddiv+0x7c>
    5b94:	430b      	orrs	r3, r1
    5b96:	d020      	beq.n	5bda <__aeabi_ddiv+0x192>
    5b98:	465b      	mov	r3, fp
    5b9a:	2b00      	cmp	r3, #0
    5b9c:	d100      	bne.n	5ba0 <__aeabi_ddiv+0x158>
    5b9e:	e19e      	b.n	5ede <__aeabi_ddiv+0x496>
    5ba0:	4658      	mov	r0, fp
    5ba2:	f001 faf3 	bl	718c <__clzsi2>
    5ba6:	0003      	movs	r3, r0
    5ba8:	3b0b      	subs	r3, #11
    5baa:	2b1c      	cmp	r3, #28
    5bac:	dd00      	ble.n	5bb0 <__aeabi_ddiv+0x168>
    5bae:	e18f      	b.n	5ed0 <__aeabi_ddiv+0x488>
    5bb0:	0002      	movs	r2, r0
    5bb2:	4659      	mov	r1, fp
    5bb4:	3a08      	subs	r2, #8
    5bb6:	4091      	lsls	r1, r2
    5bb8:	468b      	mov	fp, r1
    5bba:	211d      	movs	r1, #29
    5bbc:	1acb      	subs	r3, r1, r3
    5bbe:	4651      	mov	r1, sl
    5bc0:	40d9      	lsrs	r1, r3
    5bc2:	000b      	movs	r3, r1
    5bc4:	4659      	mov	r1, fp
    5bc6:	430b      	orrs	r3, r1
    5bc8:	4651      	mov	r1, sl
    5bca:	469b      	mov	fp, r3
    5bcc:	4091      	lsls	r1, r2
    5bce:	4b19      	ldr	r3, [pc, #100]	; (5c34 <__aeabi_ddiv+0x1ec>)
    5bd0:	469c      	mov	ip, r3
    5bd2:	4460      	add	r0, ip
    5bd4:	4240      	negs	r0, r0
    5bd6:	2300      	movs	r3, #0
    5bd8:	e774      	b.n	5ac4 <__aeabi_ddiv+0x7c>
    5bda:	2300      	movs	r3, #0
    5bdc:	2100      	movs	r1, #0
    5bde:	469b      	mov	fp, r3
    5be0:	3301      	adds	r3, #1
    5be2:	e76f      	b.n	5ac4 <__aeabi_ddiv+0x7c>
    5be4:	2303      	movs	r3, #3
    5be6:	e76d      	b.n	5ac4 <__aeabi_ddiv+0x7c>
    5be8:	2300      	movs	r3, #0
    5bea:	4699      	mov	r9, r3
    5bec:	3301      	adds	r3, #1
    5bee:	2704      	movs	r7, #4
    5bf0:	2600      	movs	r6, #0
    5bf2:	9302      	str	r3, [sp, #8]
    5bf4:	e74b      	b.n	5a8e <__aeabi_ddiv+0x46>
    5bf6:	2303      	movs	r3, #3
    5bf8:	270c      	movs	r7, #12
    5bfa:	9302      	str	r3, [sp, #8]
    5bfc:	e747      	b.n	5a8e <__aeabi_ddiv+0x46>
    5bfe:	2201      	movs	r2, #1
    5c00:	1ad5      	subs	r5, r2, r3
    5c02:	2d38      	cmp	r5, #56	; 0x38
    5c04:	dc00      	bgt.n	5c08 <__aeabi_ddiv+0x1c0>
    5c06:	e1b0      	b.n	5f6a <__aeabi_ddiv+0x522>
    5c08:	4653      	mov	r3, sl
    5c0a:	401a      	ands	r2, r3
    5c0c:	2100      	movs	r1, #0
    5c0e:	2300      	movs	r3, #0
    5c10:	2600      	movs	r6, #0
    5c12:	4689      	mov	r9, r1
    5c14:	e77e      	b.n	5b14 <__aeabi_ddiv+0xcc>
    5c16:	2300      	movs	r3, #0
    5c18:	2680      	movs	r6, #128	; 0x80
    5c1a:	4699      	mov	r9, r3
    5c1c:	2200      	movs	r2, #0
    5c1e:	0336      	lsls	r6, r6, #12
    5c20:	4b00      	ldr	r3, [pc, #0]	; (5c24 <__aeabi_ddiv+0x1dc>)
    5c22:	e777      	b.n	5b14 <__aeabi_ddiv+0xcc>
    5c24:	000007ff 	.word	0x000007ff
    5c28:	fffffc01 	.word	0xfffffc01
    5c2c:	00007298 	.word	0x00007298
    5c30:	800fffff 	.word	0x800fffff
    5c34:	000003f3 	.word	0x000003f3
    5c38:	455e      	cmp	r6, fp
    5c3a:	d900      	bls.n	5c3e <__aeabi_ddiv+0x1f6>
    5c3c:	e172      	b.n	5f24 <__aeabi_ddiv+0x4dc>
    5c3e:	d100      	bne.n	5c42 <__aeabi_ddiv+0x1fa>
    5c40:	e16d      	b.n	5f1e <__aeabi_ddiv+0x4d6>
    5c42:	9b01      	ldr	r3, [sp, #4]
    5c44:	464d      	mov	r5, r9
    5c46:	3b01      	subs	r3, #1
    5c48:	9301      	str	r3, [sp, #4]
    5c4a:	2300      	movs	r3, #0
    5c4c:	0034      	movs	r4, r6
    5c4e:	9302      	str	r3, [sp, #8]
    5c50:	465b      	mov	r3, fp
    5c52:	021e      	lsls	r6, r3, #8
    5c54:	0e0b      	lsrs	r3, r1, #24
    5c56:	431e      	orrs	r6, r3
    5c58:	020b      	lsls	r3, r1, #8
    5c5a:	9303      	str	r3, [sp, #12]
    5c5c:	0c33      	lsrs	r3, r6, #16
    5c5e:	4699      	mov	r9, r3
    5c60:	0433      	lsls	r3, r6, #16
    5c62:	0c1b      	lsrs	r3, r3, #16
    5c64:	4649      	mov	r1, r9
    5c66:	0020      	movs	r0, r4
    5c68:	9300      	str	r3, [sp, #0]
    5c6a:	f7ff f88d 	bl	4d88 <__aeabi_uidiv>
    5c6e:	9b00      	ldr	r3, [sp, #0]
    5c70:	0037      	movs	r7, r6
    5c72:	4343      	muls	r3, r0
    5c74:	0006      	movs	r6, r0
    5c76:	4649      	mov	r1, r9
    5c78:	0020      	movs	r0, r4
    5c7a:	4698      	mov	r8, r3
    5c7c:	f7ff f90a 	bl	4e94 <__aeabi_uidivmod>
    5c80:	0c2c      	lsrs	r4, r5, #16
    5c82:	0409      	lsls	r1, r1, #16
    5c84:	430c      	orrs	r4, r1
    5c86:	45a0      	cmp	r8, r4
    5c88:	d909      	bls.n	5c9e <__aeabi_ddiv+0x256>
    5c8a:	19e4      	adds	r4, r4, r7
    5c8c:	1e73      	subs	r3, r6, #1
    5c8e:	42a7      	cmp	r7, r4
    5c90:	d900      	bls.n	5c94 <__aeabi_ddiv+0x24c>
    5c92:	e15c      	b.n	5f4e <__aeabi_ddiv+0x506>
    5c94:	45a0      	cmp	r8, r4
    5c96:	d800      	bhi.n	5c9a <__aeabi_ddiv+0x252>
    5c98:	e159      	b.n	5f4e <__aeabi_ddiv+0x506>
    5c9a:	3e02      	subs	r6, #2
    5c9c:	19e4      	adds	r4, r4, r7
    5c9e:	4643      	mov	r3, r8
    5ca0:	1ae4      	subs	r4, r4, r3
    5ca2:	4649      	mov	r1, r9
    5ca4:	0020      	movs	r0, r4
    5ca6:	f7ff f86f 	bl	4d88 <__aeabi_uidiv>
    5caa:	0003      	movs	r3, r0
    5cac:	9a00      	ldr	r2, [sp, #0]
    5cae:	4680      	mov	r8, r0
    5cb0:	4353      	muls	r3, r2
    5cb2:	4649      	mov	r1, r9
    5cb4:	0020      	movs	r0, r4
    5cb6:	469b      	mov	fp, r3
    5cb8:	f7ff f8ec 	bl	4e94 <__aeabi_uidivmod>
    5cbc:	042a      	lsls	r2, r5, #16
    5cbe:	0409      	lsls	r1, r1, #16
    5cc0:	0c12      	lsrs	r2, r2, #16
    5cc2:	430a      	orrs	r2, r1
    5cc4:	4593      	cmp	fp, r2
    5cc6:	d90d      	bls.n	5ce4 <__aeabi_ddiv+0x29c>
    5cc8:	4643      	mov	r3, r8
    5cca:	19d2      	adds	r2, r2, r7
    5ccc:	3b01      	subs	r3, #1
    5cce:	4297      	cmp	r7, r2
    5cd0:	d900      	bls.n	5cd4 <__aeabi_ddiv+0x28c>
    5cd2:	e13a      	b.n	5f4a <__aeabi_ddiv+0x502>
    5cd4:	4593      	cmp	fp, r2
    5cd6:	d800      	bhi.n	5cda <__aeabi_ddiv+0x292>
    5cd8:	e137      	b.n	5f4a <__aeabi_ddiv+0x502>
    5cda:	2302      	movs	r3, #2
    5cdc:	425b      	negs	r3, r3
    5cde:	469c      	mov	ip, r3
    5ce0:	19d2      	adds	r2, r2, r7
    5ce2:	44e0      	add	r8, ip
    5ce4:	465b      	mov	r3, fp
    5ce6:	1ad2      	subs	r2, r2, r3
    5ce8:	4643      	mov	r3, r8
    5cea:	0436      	lsls	r6, r6, #16
    5cec:	4333      	orrs	r3, r6
    5cee:	469b      	mov	fp, r3
    5cf0:	9903      	ldr	r1, [sp, #12]
    5cf2:	0c18      	lsrs	r0, r3, #16
    5cf4:	0c0b      	lsrs	r3, r1, #16
    5cf6:	001d      	movs	r5, r3
    5cf8:	9305      	str	r3, [sp, #20]
    5cfa:	0409      	lsls	r1, r1, #16
    5cfc:	465b      	mov	r3, fp
    5cfe:	0c09      	lsrs	r1, r1, #16
    5d00:	000c      	movs	r4, r1
    5d02:	041b      	lsls	r3, r3, #16
    5d04:	0c1b      	lsrs	r3, r3, #16
    5d06:	4344      	muls	r4, r0
    5d08:	9104      	str	r1, [sp, #16]
    5d0a:	4359      	muls	r1, r3
    5d0c:	436b      	muls	r3, r5
    5d0e:	4368      	muls	r0, r5
    5d10:	191b      	adds	r3, r3, r4
    5d12:	0c0d      	lsrs	r5, r1, #16
    5d14:	18eb      	adds	r3, r5, r3
    5d16:	429c      	cmp	r4, r3
    5d18:	d903      	bls.n	5d22 <__aeabi_ddiv+0x2da>
    5d1a:	2480      	movs	r4, #128	; 0x80
    5d1c:	0264      	lsls	r4, r4, #9
    5d1e:	46a4      	mov	ip, r4
    5d20:	4460      	add	r0, ip
    5d22:	0c1c      	lsrs	r4, r3, #16
    5d24:	0409      	lsls	r1, r1, #16
    5d26:	041b      	lsls	r3, r3, #16
    5d28:	0c09      	lsrs	r1, r1, #16
    5d2a:	1820      	adds	r0, r4, r0
    5d2c:	185d      	adds	r5, r3, r1
    5d2e:	4282      	cmp	r2, r0
    5d30:	d200      	bcs.n	5d34 <__aeabi_ddiv+0x2ec>
    5d32:	e0de      	b.n	5ef2 <__aeabi_ddiv+0x4aa>
    5d34:	d100      	bne.n	5d38 <__aeabi_ddiv+0x2f0>
    5d36:	e0d7      	b.n	5ee8 <__aeabi_ddiv+0x4a0>
    5d38:	1a16      	subs	r6, r2, r0
    5d3a:	9b02      	ldr	r3, [sp, #8]
    5d3c:	469c      	mov	ip, r3
    5d3e:	1b5d      	subs	r5, r3, r5
    5d40:	45ac      	cmp	ip, r5
    5d42:	419b      	sbcs	r3, r3
    5d44:	425b      	negs	r3, r3
    5d46:	1af6      	subs	r6, r6, r3
    5d48:	42b7      	cmp	r7, r6
    5d4a:	d100      	bne.n	5d4e <__aeabi_ddiv+0x306>
    5d4c:	e106      	b.n	5f5c <__aeabi_ddiv+0x514>
    5d4e:	4649      	mov	r1, r9
    5d50:	0030      	movs	r0, r6
    5d52:	f7ff f819 	bl	4d88 <__aeabi_uidiv>
    5d56:	9b00      	ldr	r3, [sp, #0]
    5d58:	0004      	movs	r4, r0
    5d5a:	4343      	muls	r3, r0
    5d5c:	4649      	mov	r1, r9
    5d5e:	0030      	movs	r0, r6
    5d60:	4698      	mov	r8, r3
    5d62:	f7ff f897 	bl	4e94 <__aeabi_uidivmod>
    5d66:	0c2e      	lsrs	r6, r5, #16
    5d68:	0409      	lsls	r1, r1, #16
    5d6a:	430e      	orrs	r6, r1
    5d6c:	45b0      	cmp	r8, r6
    5d6e:	d909      	bls.n	5d84 <__aeabi_ddiv+0x33c>
    5d70:	19f6      	adds	r6, r6, r7
    5d72:	1e63      	subs	r3, r4, #1
    5d74:	42b7      	cmp	r7, r6
    5d76:	d900      	bls.n	5d7a <__aeabi_ddiv+0x332>
    5d78:	e0f3      	b.n	5f62 <__aeabi_ddiv+0x51a>
    5d7a:	45b0      	cmp	r8, r6
    5d7c:	d800      	bhi.n	5d80 <__aeabi_ddiv+0x338>
    5d7e:	e0f0      	b.n	5f62 <__aeabi_ddiv+0x51a>
    5d80:	3c02      	subs	r4, #2
    5d82:	19f6      	adds	r6, r6, r7
    5d84:	4643      	mov	r3, r8
    5d86:	1af3      	subs	r3, r6, r3
    5d88:	4649      	mov	r1, r9
    5d8a:	0018      	movs	r0, r3
    5d8c:	9302      	str	r3, [sp, #8]
    5d8e:	f7fe fffb 	bl	4d88 <__aeabi_uidiv>
    5d92:	9b00      	ldr	r3, [sp, #0]
    5d94:	0006      	movs	r6, r0
    5d96:	4343      	muls	r3, r0
    5d98:	4649      	mov	r1, r9
    5d9a:	9802      	ldr	r0, [sp, #8]
    5d9c:	4698      	mov	r8, r3
    5d9e:	f7ff f879 	bl	4e94 <__aeabi_uidivmod>
    5da2:	042d      	lsls	r5, r5, #16
    5da4:	0409      	lsls	r1, r1, #16
    5da6:	0c2d      	lsrs	r5, r5, #16
    5da8:	430d      	orrs	r5, r1
    5daa:	45a8      	cmp	r8, r5
    5dac:	d909      	bls.n	5dc2 <__aeabi_ddiv+0x37a>
    5dae:	19ed      	adds	r5, r5, r7
    5db0:	1e73      	subs	r3, r6, #1
    5db2:	42af      	cmp	r7, r5
    5db4:	d900      	bls.n	5db8 <__aeabi_ddiv+0x370>
    5db6:	e0d6      	b.n	5f66 <__aeabi_ddiv+0x51e>
    5db8:	45a8      	cmp	r8, r5
    5dba:	d800      	bhi.n	5dbe <__aeabi_ddiv+0x376>
    5dbc:	e0d3      	b.n	5f66 <__aeabi_ddiv+0x51e>
    5dbe:	3e02      	subs	r6, #2
    5dc0:	19ed      	adds	r5, r5, r7
    5dc2:	0424      	lsls	r4, r4, #16
    5dc4:	0021      	movs	r1, r4
    5dc6:	4643      	mov	r3, r8
    5dc8:	4331      	orrs	r1, r6
    5dca:	9e04      	ldr	r6, [sp, #16]
    5dcc:	9a05      	ldr	r2, [sp, #20]
    5dce:	0030      	movs	r0, r6
    5dd0:	1aed      	subs	r5, r5, r3
    5dd2:	040b      	lsls	r3, r1, #16
    5dd4:	0c0c      	lsrs	r4, r1, #16
    5dd6:	0c1b      	lsrs	r3, r3, #16
    5dd8:	4358      	muls	r0, r3
    5dda:	4366      	muls	r6, r4
    5ddc:	4353      	muls	r3, r2
    5dde:	4354      	muls	r4, r2
    5de0:	199a      	adds	r2, r3, r6
    5de2:	0c03      	lsrs	r3, r0, #16
    5de4:	189b      	adds	r3, r3, r2
    5de6:	429e      	cmp	r6, r3
    5de8:	d903      	bls.n	5df2 <__aeabi_ddiv+0x3aa>
    5dea:	2280      	movs	r2, #128	; 0x80
    5dec:	0252      	lsls	r2, r2, #9
    5dee:	4694      	mov	ip, r2
    5df0:	4464      	add	r4, ip
    5df2:	0c1a      	lsrs	r2, r3, #16
    5df4:	0400      	lsls	r0, r0, #16
    5df6:	041b      	lsls	r3, r3, #16
    5df8:	0c00      	lsrs	r0, r0, #16
    5dfa:	1914      	adds	r4, r2, r4
    5dfc:	181b      	adds	r3, r3, r0
    5dfe:	42a5      	cmp	r5, r4
    5e00:	d350      	bcc.n	5ea4 <__aeabi_ddiv+0x45c>
    5e02:	d04d      	beq.n	5ea0 <__aeabi_ddiv+0x458>
    5e04:	2301      	movs	r3, #1
    5e06:	4319      	orrs	r1, r3
    5e08:	4a96      	ldr	r2, [pc, #600]	; (6064 <__aeabi_ddiv+0x61c>)
    5e0a:	9b01      	ldr	r3, [sp, #4]
    5e0c:	4694      	mov	ip, r2
    5e0e:	4463      	add	r3, ip
    5e10:	2b00      	cmp	r3, #0
    5e12:	dc00      	bgt.n	5e16 <__aeabi_ddiv+0x3ce>
    5e14:	e6f3      	b.n	5bfe <__aeabi_ddiv+0x1b6>
    5e16:	074a      	lsls	r2, r1, #29
    5e18:	d009      	beq.n	5e2e <__aeabi_ddiv+0x3e6>
    5e1a:	220f      	movs	r2, #15
    5e1c:	400a      	ands	r2, r1
    5e1e:	2a04      	cmp	r2, #4
    5e20:	d005      	beq.n	5e2e <__aeabi_ddiv+0x3e6>
    5e22:	1d0a      	adds	r2, r1, #4
    5e24:	428a      	cmp	r2, r1
    5e26:	4189      	sbcs	r1, r1
    5e28:	4249      	negs	r1, r1
    5e2a:	448b      	add	fp, r1
    5e2c:	0011      	movs	r1, r2
    5e2e:	465a      	mov	r2, fp
    5e30:	01d2      	lsls	r2, r2, #7
    5e32:	d508      	bpl.n	5e46 <__aeabi_ddiv+0x3fe>
    5e34:	465a      	mov	r2, fp
    5e36:	4b8c      	ldr	r3, [pc, #560]	; (6068 <__aeabi_ddiv+0x620>)
    5e38:	401a      	ands	r2, r3
    5e3a:	4693      	mov	fp, r2
    5e3c:	2280      	movs	r2, #128	; 0x80
    5e3e:	00d2      	lsls	r2, r2, #3
    5e40:	4694      	mov	ip, r2
    5e42:	9b01      	ldr	r3, [sp, #4]
    5e44:	4463      	add	r3, ip
    5e46:	4a89      	ldr	r2, [pc, #548]	; (606c <__aeabi_ddiv+0x624>)
    5e48:	4293      	cmp	r3, r2
    5e4a:	dd00      	ble.n	5e4e <__aeabi_ddiv+0x406>
    5e4c:	e65b      	b.n	5b06 <__aeabi_ddiv+0xbe>
    5e4e:	465a      	mov	r2, fp
    5e50:	08c9      	lsrs	r1, r1, #3
    5e52:	0750      	lsls	r0, r2, #29
    5e54:	4308      	orrs	r0, r1
    5e56:	0256      	lsls	r6, r2, #9
    5e58:	4651      	mov	r1, sl
    5e5a:	2201      	movs	r2, #1
    5e5c:	055b      	lsls	r3, r3, #21
    5e5e:	4681      	mov	r9, r0
    5e60:	0b36      	lsrs	r6, r6, #12
    5e62:	0d5b      	lsrs	r3, r3, #21
    5e64:	400a      	ands	r2, r1
    5e66:	e655      	b.n	5b14 <__aeabi_ddiv+0xcc>
    5e68:	2380      	movs	r3, #128	; 0x80
    5e6a:	031b      	lsls	r3, r3, #12
    5e6c:	421e      	tst	r6, r3
    5e6e:	d011      	beq.n	5e94 <__aeabi_ddiv+0x44c>
    5e70:	465a      	mov	r2, fp
    5e72:	421a      	tst	r2, r3
    5e74:	d10e      	bne.n	5e94 <__aeabi_ddiv+0x44c>
    5e76:	465e      	mov	r6, fp
    5e78:	431e      	orrs	r6, r3
    5e7a:	0336      	lsls	r6, r6, #12
    5e7c:	0b36      	lsrs	r6, r6, #12
    5e7e:	002a      	movs	r2, r5
    5e80:	4689      	mov	r9, r1
    5e82:	4b7b      	ldr	r3, [pc, #492]	; (6070 <__aeabi_ddiv+0x628>)
    5e84:	e646      	b.n	5b14 <__aeabi_ddiv+0xcc>
    5e86:	2b03      	cmp	r3, #3
    5e88:	d100      	bne.n	5e8c <__aeabi_ddiv+0x444>
    5e8a:	e0e1      	b.n	6050 <__aeabi_ddiv+0x608>
    5e8c:	2b01      	cmp	r3, #1
    5e8e:	d1bb      	bne.n	5e08 <__aeabi_ddiv+0x3c0>
    5e90:	401a      	ands	r2, r3
    5e92:	e6bb      	b.n	5c0c <__aeabi_ddiv+0x1c4>
    5e94:	431e      	orrs	r6, r3
    5e96:	0336      	lsls	r6, r6, #12
    5e98:	0b36      	lsrs	r6, r6, #12
    5e9a:	4642      	mov	r2, r8
    5e9c:	4b74      	ldr	r3, [pc, #464]	; (6070 <__aeabi_ddiv+0x628>)
    5e9e:	e639      	b.n	5b14 <__aeabi_ddiv+0xcc>
    5ea0:	2b00      	cmp	r3, #0
    5ea2:	d0b1      	beq.n	5e08 <__aeabi_ddiv+0x3c0>
    5ea4:	197d      	adds	r5, r7, r5
    5ea6:	1e4a      	subs	r2, r1, #1
    5ea8:	42af      	cmp	r7, r5
    5eaa:	d952      	bls.n	5f52 <__aeabi_ddiv+0x50a>
    5eac:	0011      	movs	r1, r2
    5eae:	42a5      	cmp	r5, r4
    5eb0:	d1a8      	bne.n	5e04 <__aeabi_ddiv+0x3bc>
    5eb2:	9a03      	ldr	r2, [sp, #12]
    5eb4:	429a      	cmp	r2, r3
    5eb6:	d1a5      	bne.n	5e04 <__aeabi_ddiv+0x3bc>
    5eb8:	e7a6      	b.n	5e08 <__aeabi_ddiv+0x3c0>
    5eba:	0003      	movs	r3, r0
    5ebc:	003e      	movs	r6, r7
    5ebe:	3b28      	subs	r3, #40	; 0x28
    5ec0:	409e      	lsls	r6, r3
    5ec2:	2300      	movs	r3, #0
    5ec4:	4699      	mov	r9, r3
    5ec6:	e654      	b.n	5b72 <__aeabi_ddiv+0x12a>
    5ec8:	f001 f960 	bl	718c <__clzsi2>
    5ecc:	3020      	adds	r0, #32
    5ece:	e641      	b.n	5b54 <__aeabi_ddiv+0x10c>
    5ed0:	0003      	movs	r3, r0
    5ed2:	4652      	mov	r2, sl
    5ed4:	3b28      	subs	r3, #40	; 0x28
    5ed6:	409a      	lsls	r2, r3
    5ed8:	2100      	movs	r1, #0
    5eda:	4693      	mov	fp, r2
    5edc:	e677      	b.n	5bce <__aeabi_ddiv+0x186>
    5ede:	4650      	mov	r0, sl
    5ee0:	f001 f954 	bl	718c <__clzsi2>
    5ee4:	3020      	adds	r0, #32
    5ee6:	e65e      	b.n	5ba6 <__aeabi_ddiv+0x15e>
    5ee8:	9b02      	ldr	r3, [sp, #8]
    5eea:	2600      	movs	r6, #0
    5eec:	42ab      	cmp	r3, r5
    5eee:	d300      	bcc.n	5ef2 <__aeabi_ddiv+0x4aa>
    5ef0:	e723      	b.n	5d3a <__aeabi_ddiv+0x2f2>
    5ef2:	9e03      	ldr	r6, [sp, #12]
    5ef4:	9902      	ldr	r1, [sp, #8]
    5ef6:	46b4      	mov	ip, r6
    5ef8:	4461      	add	r1, ip
    5efa:	4688      	mov	r8, r1
    5efc:	45b0      	cmp	r8, r6
    5efe:	41b6      	sbcs	r6, r6
    5f00:	465b      	mov	r3, fp
    5f02:	4276      	negs	r6, r6
    5f04:	19f6      	adds	r6, r6, r7
    5f06:	18b2      	adds	r2, r6, r2
    5f08:	3b01      	subs	r3, #1
    5f0a:	9102      	str	r1, [sp, #8]
    5f0c:	4297      	cmp	r7, r2
    5f0e:	d213      	bcs.n	5f38 <__aeabi_ddiv+0x4f0>
    5f10:	4290      	cmp	r0, r2
    5f12:	d84f      	bhi.n	5fb4 <__aeabi_ddiv+0x56c>
    5f14:	d100      	bne.n	5f18 <__aeabi_ddiv+0x4d0>
    5f16:	e08e      	b.n	6036 <__aeabi_ddiv+0x5ee>
    5f18:	1a16      	subs	r6, r2, r0
    5f1a:	469b      	mov	fp, r3
    5f1c:	e70d      	b.n	5d3a <__aeabi_ddiv+0x2f2>
    5f1e:	4589      	cmp	r9, r1
    5f20:	d200      	bcs.n	5f24 <__aeabi_ddiv+0x4dc>
    5f22:	e68e      	b.n	5c42 <__aeabi_ddiv+0x1fa>
    5f24:	0874      	lsrs	r4, r6, #1
    5f26:	464b      	mov	r3, r9
    5f28:	07f6      	lsls	r6, r6, #31
    5f2a:	0035      	movs	r5, r6
    5f2c:	085b      	lsrs	r3, r3, #1
    5f2e:	431d      	orrs	r5, r3
    5f30:	464b      	mov	r3, r9
    5f32:	07db      	lsls	r3, r3, #31
    5f34:	9302      	str	r3, [sp, #8]
    5f36:	e68b      	b.n	5c50 <__aeabi_ddiv+0x208>
    5f38:	4297      	cmp	r7, r2
    5f3a:	d1ed      	bne.n	5f18 <__aeabi_ddiv+0x4d0>
    5f3c:	9903      	ldr	r1, [sp, #12]
    5f3e:	9c02      	ldr	r4, [sp, #8]
    5f40:	42a1      	cmp	r1, r4
    5f42:	d9e5      	bls.n	5f10 <__aeabi_ddiv+0x4c8>
    5f44:	1a3e      	subs	r6, r7, r0
    5f46:	469b      	mov	fp, r3
    5f48:	e6f7      	b.n	5d3a <__aeabi_ddiv+0x2f2>
    5f4a:	4698      	mov	r8, r3
    5f4c:	e6ca      	b.n	5ce4 <__aeabi_ddiv+0x29c>
    5f4e:	001e      	movs	r6, r3
    5f50:	e6a5      	b.n	5c9e <__aeabi_ddiv+0x256>
    5f52:	42ac      	cmp	r4, r5
    5f54:	d83e      	bhi.n	5fd4 <__aeabi_ddiv+0x58c>
    5f56:	d074      	beq.n	6042 <__aeabi_ddiv+0x5fa>
    5f58:	0011      	movs	r1, r2
    5f5a:	e753      	b.n	5e04 <__aeabi_ddiv+0x3bc>
    5f5c:	2101      	movs	r1, #1
    5f5e:	4249      	negs	r1, r1
    5f60:	e752      	b.n	5e08 <__aeabi_ddiv+0x3c0>
    5f62:	001c      	movs	r4, r3
    5f64:	e70e      	b.n	5d84 <__aeabi_ddiv+0x33c>
    5f66:	001e      	movs	r6, r3
    5f68:	e72b      	b.n	5dc2 <__aeabi_ddiv+0x37a>
    5f6a:	2d1f      	cmp	r5, #31
    5f6c:	dc3c      	bgt.n	5fe8 <__aeabi_ddiv+0x5a0>
    5f6e:	2320      	movs	r3, #32
    5f70:	000a      	movs	r2, r1
    5f72:	4658      	mov	r0, fp
    5f74:	1b5b      	subs	r3, r3, r5
    5f76:	4098      	lsls	r0, r3
    5f78:	40ea      	lsrs	r2, r5
    5f7a:	4099      	lsls	r1, r3
    5f7c:	4302      	orrs	r2, r0
    5f7e:	1e48      	subs	r0, r1, #1
    5f80:	4181      	sbcs	r1, r0
    5f82:	465e      	mov	r6, fp
    5f84:	4311      	orrs	r1, r2
    5f86:	40ee      	lsrs	r6, r5
    5f88:	074b      	lsls	r3, r1, #29
    5f8a:	d009      	beq.n	5fa0 <__aeabi_ddiv+0x558>
    5f8c:	230f      	movs	r3, #15
    5f8e:	400b      	ands	r3, r1
    5f90:	2b04      	cmp	r3, #4
    5f92:	d005      	beq.n	5fa0 <__aeabi_ddiv+0x558>
    5f94:	000b      	movs	r3, r1
    5f96:	1d19      	adds	r1, r3, #4
    5f98:	4299      	cmp	r1, r3
    5f9a:	419b      	sbcs	r3, r3
    5f9c:	425b      	negs	r3, r3
    5f9e:	18f6      	adds	r6, r6, r3
    5fa0:	0233      	lsls	r3, r6, #8
    5fa2:	d53c      	bpl.n	601e <__aeabi_ddiv+0x5d6>
    5fa4:	4653      	mov	r3, sl
    5fa6:	2201      	movs	r2, #1
    5fa8:	2100      	movs	r1, #0
    5faa:	401a      	ands	r2, r3
    5fac:	2600      	movs	r6, #0
    5fae:	2301      	movs	r3, #1
    5fb0:	4689      	mov	r9, r1
    5fb2:	e5af      	b.n	5b14 <__aeabi_ddiv+0xcc>
    5fb4:	2302      	movs	r3, #2
    5fb6:	425b      	negs	r3, r3
    5fb8:	469c      	mov	ip, r3
    5fba:	9c03      	ldr	r4, [sp, #12]
    5fbc:	44e3      	add	fp, ip
    5fbe:	46a4      	mov	ip, r4
    5fc0:	9b02      	ldr	r3, [sp, #8]
    5fc2:	4463      	add	r3, ip
    5fc4:	4698      	mov	r8, r3
    5fc6:	45a0      	cmp	r8, r4
    5fc8:	41b6      	sbcs	r6, r6
    5fca:	4276      	negs	r6, r6
    5fcc:	19f6      	adds	r6, r6, r7
    5fce:	9302      	str	r3, [sp, #8]
    5fd0:	18b2      	adds	r2, r6, r2
    5fd2:	e6b1      	b.n	5d38 <__aeabi_ddiv+0x2f0>
    5fd4:	9803      	ldr	r0, [sp, #12]
    5fd6:	1e8a      	subs	r2, r1, #2
    5fd8:	0041      	lsls	r1, r0, #1
    5fda:	4281      	cmp	r1, r0
    5fdc:	41b6      	sbcs	r6, r6
    5fde:	4276      	negs	r6, r6
    5fe0:	19f6      	adds	r6, r6, r7
    5fe2:	19ad      	adds	r5, r5, r6
    5fe4:	9103      	str	r1, [sp, #12]
    5fe6:	e761      	b.n	5eac <__aeabi_ddiv+0x464>
    5fe8:	221f      	movs	r2, #31
    5fea:	4252      	negs	r2, r2
    5fec:	1ad3      	subs	r3, r2, r3
    5fee:	465a      	mov	r2, fp
    5ff0:	40da      	lsrs	r2, r3
    5ff2:	0013      	movs	r3, r2
    5ff4:	2d20      	cmp	r5, #32
    5ff6:	d029      	beq.n	604c <__aeabi_ddiv+0x604>
    5ff8:	2240      	movs	r2, #64	; 0x40
    5ffa:	4658      	mov	r0, fp
    5ffc:	1b55      	subs	r5, r2, r5
    5ffe:	40a8      	lsls	r0, r5
    6000:	4301      	orrs	r1, r0
    6002:	1e48      	subs	r0, r1, #1
    6004:	4181      	sbcs	r1, r0
    6006:	2007      	movs	r0, #7
    6008:	430b      	orrs	r3, r1
    600a:	4018      	ands	r0, r3
    600c:	2600      	movs	r6, #0
    600e:	2800      	cmp	r0, #0
    6010:	d009      	beq.n	6026 <__aeabi_ddiv+0x5de>
    6012:	220f      	movs	r2, #15
    6014:	2600      	movs	r6, #0
    6016:	401a      	ands	r2, r3
    6018:	0019      	movs	r1, r3
    601a:	2a04      	cmp	r2, #4
    601c:	d1bb      	bne.n	5f96 <__aeabi_ddiv+0x54e>
    601e:	000b      	movs	r3, r1
    6020:	0770      	lsls	r0, r6, #29
    6022:	0276      	lsls	r6, r6, #9
    6024:	0b36      	lsrs	r6, r6, #12
    6026:	08db      	lsrs	r3, r3, #3
    6028:	4303      	orrs	r3, r0
    602a:	4699      	mov	r9, r3
    602c:	2201      	movs	r2, #1
    602e:	4653      	mov	r3, sl
    6030:	401a      	ands	r2, r3
    6032:	2300      	movs	r3, #0
    6034:	e56e      	b.n	5b14 <__aeabi_ddiv+0xcc>
    6036:	9902      	ldr	r1, [sp, #8]
    6038:	428d      	cmp	r5, r1
    603a:	d8bb      	bhi.n	5fb4 <__aeabi_ddiv+0x56c>
    603c:	469b      	mov	fp, r3
    603e:	2600      	movs	r6, #0
    6040:	e67b      	b.n	5d3a <__aeabi_ddiv+0x2f2>
    6042:	9803      	ldr	r0, [sp, #12]
    6044:	4298      	cmp	r0, r3
    6046:	d3c5      	bcc.n	5fd4 <__aeabi_ddiv+0x58c>
    6048:	0011      	movs	r1, r2
    604a:	e732      	b.n	5eb2 <__aeabi_ddiv+0x46a>
    604c:	2000      	movs	r0, #0
    604e:	e7d7      	b.n	6000 <__aeabi_ddiv+0x5b8>
    6050:	2680      	movs	r6, #128	; 0x80
    6052:	465b      	mov	r3, fp
    6054:	0336      	lsls	r6, r6, #12
    6056:	431e      	orrs	r6, r3
    6058:	0336      	lsls	r6, r6, #12
    605a:	0b36      	lsrs	r6, r6, #12
    605c:	9a00      	ldr	r2, [sp, #0]
    605e:	4689      	mov	r9, r1
    6060:	4b03      	ldr	r3, [pc, #12]	; (6070 <__aeabi_ddiv+0x628>)
    6062:	e557      	b.n	5b14 <__aeabi_ddiv+0xcc>
    6064:	000003ff 	.word	0x000003ff
    6068:	feffffff 	.word	0xfeffffff
    606c:	000007fe 	.word	0x000007fe
    6070:	000007ff 	.word	0x000007ff

00006074 <__eqdf2>:
    6074:	b5f0      	push	{r4, r5, r6, r7, lr}
    6076:	465f      	mov	r7, fp
    6078:	4656      	mov	r6, sl
    607a:	464d      	mov	r5, r9
    607c:	4644      	mov	r4, r8
    607e:	b4f0      	push	{r4, r5, r6, r7}
    6080:	031f      	lsls	r7, r3, #12
    6082:	005c      	lsls	r4, r3, #1
    6084:	0fdb      	lsrs	r3, r3, #31
    6086:	469a      	mov	sl, r3
    6088:	4b19      	ldr	r3, [pc, #100]	; (60f0 <__eqdf2+0x7c>)
    608a:	030e      	lsls	r6, r1, #12
    608c:	004d      	lsls	r5, r1, #1
    608e:	0fc9      	lsrs	r1, r1, #31
    6090:	4680      	mov	r8, r0
    6092:	0b36      	lsrs	r6, r6, #12
    6094:	0d6d      	lsrs	r5, r5, #21
    6096:	468b      	mov	fp, r1
    6098:	4691      	mov	r9, r2
    609a:	0b3f      	lsrs	r7, r7, #12
    609c:	0d64      	lsrs	r4, r4, #21
    609e:	429d      	cmp	r5, r3
    60a0:	d019      	beq.n	60d6 <__eqdf2+0x62>
    60a2:	4b13      	ldr	r3, [pc, #76]	; (60f0 <__eqdf2+0x7c>)
    60a4:	429c      	cmp	r4, r3
    60a6:	d01b      	beq.n	60e0 <__eqdf2+0x6c>
    60a8:	2301      	movs	r3, #1
    60aa:	42a5      	cmp	r5, r4
    60ac:	d006      	beq.n	60bc <__eqdf2+0x48>
    60ae:	0018      	movs	r0, r3
    60b0:	bc3c      	pop	{r2, r3, r4, r5}
    60b2:	4690      	mov	r8, r2
    60b4:	4699      	mov	r9, r3
    60b6:	46a2      	mov	sl, r4
    60b8:	46ab      	mov	fp, r5
    60ba:	bdf0      	pop	{r4, r5, r6, r7, pc}
    60bc:	42be      	cmp	r6, r7
    60be:	d1f6      	bne.n	60ae <__eqdf2+0x3a>
    60c0:	45c8      	cmp	r8, r9
    60c2:	d1f4      	bne.n	60ae <__eqdf2+0x3a>
    60c4:	45d3      	cmp	fp, sl
    60c6:	d010      	beq.n	60ea <__eqdf2+0x76>
    60c8:	2d00      	cmp	r5, #0
    60ca:	d1f0      	bne.n	60ae <__eqdf2+0x3a>
    60cc:	4330      	orrs	r0, r6
    60ce:	0003      	movs	r3, r0
    60d0:	1e5a      	subs	r2, r3, #1
    60d2:	4193      	sbcs	r3, r2
    60d4:	e7eb      	b.n	60ae <__eqdf2+0x3a>
    60d6:	0031      	movs	r1, r6
    60d8:	2301      	movs	r3, #1
    60da:	4301      	orrs	r1, r0
    60dc:	d1e7      	bne.n	60ae <__eqdf2+0x3a>
    60de:	e7e0      	b.n	60a2 <__eqdf2+0x2e>
    60e0:	433a      	orrs	r2, r7
    60e2:	2301      	movs	r3, #1
    60e4:	2a00      	cmp	r2, #0
    60e6:	d1e2      	bne.n	60ae <__eqdf2+0x3a>
    60e8:	e7de      	b.n	60a8 <__eqdf2+0x34>
    60ea:	2300      	movs	r3, #0
    60ec:	e7df      	b.n	60ae <__eqdf2+0x3a>
    60ee:	46c0      	nop			; (mov r8, r8)
    60f0:	000007ff 	.word	0x000007ff

000060f4 <__gedf2>:
    60f4:	b5f0      	push	{r4, r5, r6, r7, lr}
    60f6:	465f      	mov	r7, fp
    60f8:	4644      	mov	r4, r8
    60fa:	4656      	mov	r6, sl
    60fc:	464d      	mov	r5, r9
    60fe:	b4f0      	push	{r4, r5, r6, r7}
    6100:	031f      	lsls	r7, r3, #12
    6102:	0b3c      	lsrs	r4, r7, #12
    6104:	4f2c      	ldr	r7, [pc, #176]	; (61b8 <__gedf2+0xc4>)
    6106:	030e      	lsls	r6, r1, #12
    6108:	004d      	lsls	r5, r1, #1
    610a:	46a3      	mov	fp, r4
    610c:	005c      	lsls	r4, r3, #1
    610e:	4684      	mov	ip, r0
    6110:	0b36      	lsrs	r6, r6, #12
    6112:	0d6d      	lsrs	r5, r5, #21
    6114:	0fc9      	lsrs	r1, r1, #31
    6116:	4690      	mov	r8, r2
    6118:	0d64      	lsrs	r4, r4, #21
    611a:	0fdb      	lsrs	r3, r3, #31
    611c:	42bd      	cmp	r5, r7
    611e:	d02b      	beq.n	6178 <__gedf2+0x84>
    6120:	4f25      	ldr	r7, [pc, #148]	; (61b8 <__gedf2+0xc4>)
    6122:	42bc      	cmp	r4, r7
    6124:	d02e      	beq.n	6184 <__gedf2+0x90>
    6126:	2d00      	cmp	r5, #0
    6128:	d10e      	bne.n	6148 <__gedf2+0x54>
    612a:	4330      	orrs	r0, r6
    612c:	0007      	movs	r7, r0
    612e:	4681      	mov	r9, r0
    6130:	4278      	negs	r0, r7
    6132:	4178      	adcs	r0, r7
    6134:	2c00      	cmp	r4, #0
    6136:	d117      	bne.n	6168 <__gedf2+0x74>
    6138:	465f      	mov	r7, fp
    613a:	433a      	orrs	r2, r7
    613c:	d114      	bne.n	6168 <__gedf2+0x74>
    613e:	464b      	mov	r3, r9
    6140:	2000      	movs	r0, #0
    6142:	2b00      	cmp	r3, #0
    6144:	d00a      	beq.n	615c <__gedf2+0x68>
    6146:	e006      	b.n	6156 <__gedf2+0x62>
    6148:	2c00      	cmp	r4, #0
    614a:	d102      	bne.n	6152 <__gedf2+0x5e>
    614c:	4658      	mov	r0, fp
    614e:	4302      	orrs	r2, r0
    6150:	d001      	beq.n	6156 <__gedf2+0x62>
    6152:	4299      	cmp	r1, r3
    6154:	d01a      	beq.n	618c <__gedf2+0x98>
    6156:	2301      	movs	r3, #1
    6158:	4248      	negs	r0, r1
    615a:	4318      	orrs	r0, r3
    615c:	bc3c      	pop	{r2, r3, r4, r5}
    615e:	4690      	mov	r8, r2
    6160:	4699      	mov	r9, r3
    6162:	46a2      	mov	sl, r4
    6164:	46ab      	mov	fp, r5
    6166:	bdf0      	pop	{r4, r5, r6, r7, pc}
    6168:	2800      	cmp	r0, #0
    616a:	d0f2      	beq.n	6152 <__gedf2+0x5e>
    616c:	4258      	negs	r0, r3
    616e:	4158      	adcs	r0, r3
    6170:	2201      	movs	r2, #1
    6172:	4240      	negs	r0, r0
    6174:	4310      	orrs	r0, r2
    6176:	e7f1      	b.n	615c <__gedf2+0x68>
    6178:	0037      	movs	r7, r6
    617a:	4307      	orrs	r7, r0
    617c:	d0d0      	beq.n	6120 <__gedf2+0x2c>
    617e:	2002      	movs	r0, #2
    6180:	4240      	negs	r0, r0
    6182:	e7eb      	b.n	615c <__gedf2+0x68>
    6184:	465f      	mov	r7, fp
    6186:	4317      	orrs	r7, r2
    6188:	d0cd      	beq.n	6126 <__gedf2+0x32>
    618a:	e7f8      	b.n	617e <__gedf2+0x8a>
    618c:	42a5      	cmp	r5, r4
    618e:	dce2      	bgt.n	6156 <__gedf2+0x62>
    6190:	db05      	blt.n	619e <__gedf2+0xaa>
    6192:	455e      	cmp	r6, fp
    6194:	d8df      	bhi.n	6156 <__gedf2+0x62>
    6196:	d008      	beq.n	61aa <__gedf2+0xb6>
    6198:	2000      	movs	r0, #0
    619a:	455e      	cmp	r6, fp
    619c:	d2de      	bcs.n	615c <__gedf2+0x68>
    619e:	4248      	negs	r0, r1
    61a0:	4148      	adcs	r0, r1
    61a2:	2301      	movs	r3, #1
    61a4:	4240      	negs	r0, r0
    61a6:	4318      	orrs	r0, r3
    61a8:	e7d8      	b.n	615c <__gedf2+0x68>
    61aa:	45c4      	cmp	ip, r8
    61ac:	d8d3      	bhi.n	6156 <__gedf2+0x62>
    61ae:	2000      	movs	r0, #0
    61b0:	45c4      	cmp	ip, r8
    61b2:	d3f4      	bcc.n	619e <__gedf2+0xaa>
    61b4:	e7d2      	b.n	615c <__gedf2+0x68>
    61b6:	46c0      	nop			; (mov r8, r8)
    61b8:	000007ff 	.word	0x000007ff

000061bc <__ledf2>:
    61bc:	b5f0      	push	{r4, r5, r6, r7, lr}
    61be:	465f      	mov	r7, fp
    61c0:	464d      	mov	r5, r9
    61c2:	4644      	mov	r4, r8
    61c4:	4656      	mov	r6, sl
    61c6:	b4f0      	push	{r4, r5, r6, r7}
    61c8:	031c      	lsls	r4, r3, #12
    61ca:	0b24      	lsrs	r4, r4, #12
    61cc:	46a4      	mov	ip, r4
    61ce:	4c2f      	ldr	r4, [pc, #188]	; (628c <__ledf2+0xd0>)
    61d0:	030f      	lsls	r7, r1, #12
    61d2:	004d      	lsls	r5, r1, #1
    61d4:	005e      	lsls	r6, r3, #1
    61d6:	0fc9      	lsrs	r1, r1, #31
    61d8:	4680      	mov	r8, r0
    61da:	0b3f      	lsrs	r7, r7, #12
    61dc:	0d6d      	lsrs	r5, r5, #21
    61de:	468b      	mov	fp, r1
    61e0:	4691      	mov	r9, r2
    61e2:	0d76      	lsrs	r6, r6, #21
    61e4:	0fdb      	lsrs	r3, r3, #31
    61e6:	42a5      	cmp	r5, r4
    61e8:	d020      	beq.n	622c <__ledf2+0x70>
    61ea:	4c28      	ldr	r4, [pc, #160]	; (628c <__ledf2+0xd0>)
    61ec:	42a6      	cmp	r6, r4
    61ee:	d022      	beq.n	6236 <__ledf2+0x7a>
    61f0:	2d00      	cmp	r5, #0
    61f2:	d112      	bne.n	621a <__ledf2+0x5e>
    61f4:	4338      	orrs	r0, r7
    61f6:	4244      	negs	r4, r0
    61f8:	4144      	adcs	r4, r0
    61fa:	2e00      	cmp	r6, #0
    61fc:	d020      	beq.n	6240 <__ledf2+0x84>
    61fe:	2c00      	cmp	r4, #0
    6200:	d00d      	beq.n	621e <__ledf2+0x62>
    6202:	425c      	negs	r4, r3
    6204:	4163      	adcs	r3, r4
    6206:	2401      	movs	r4, #1
    6208:	425b      	negs	r3, r3
    620a:	431c      	orrs	r4, r3
    620c:	0020      	movs	r0, r4
    620e:	bc3c      	pop	{r2, r3, r4, r5}
    6210:	4690      	mov	r8, r2
    6212:	4699      	mov	r9, r3
    6214:	46a2      	mov	sl, r4
    6216:	46ab      	mov	fp, r5
    6218:	bdf0      	pop	{r4, r5, r6, r7, pc}
    621a:	2e00      	cmp	r6, #0
    621c:	d017      	beq.n	624e <__ledf2+0x92>
    621e:	455b      	cmp	r3, fp
    6220:	d019      	beq.n	6256 <__ledf2+0x9a>
    6222:	465b      	mov	r3, fp
    6224:	425c      	negs	r4, r3
    6226:	2301      	movs	r3, #1
    6228:	431c      	orrs	r4, r3
    622a:	e7ef      	b.n	620c <__ledf2+0x50>
    622c:	0039      	movs	r1, r7
    622e:	2402      	movs	r4, #2
    6230:	4301      	orrs	r1, r0
    6232:	d1eb      	bne.n	620c <__ledf2+0x50>
    6234:	e7d9      	b.n	61ea <__ledf2+0x2e>
    6236:	4661      	mov	r1, ip
    6238:	2402      	movs	r4, #2
    623a:	4311      	orrs	r1, r2
    623c:	d1e6      	bne.n	620c <__ledf2+0x50>
    623e:	e7d7      	b.n	61f0 <__ledf2+0x34>
    6240:	4661      	mov	r1, ip
    6242:	430a      	orrs	r2, r1
    6244:	d1db      	bne.n	61fe <__ledf2+0x42>
    6246:	2400      	movs	r4, #0
    6248:	2800      	cmp	r0, #0
    624a:	d0df      	beq.n	620c <__ledf2+0x50>
    624c:	e7e9      	b.n	6222 <__ledf2+0x66>
    624e:	4661      	mov	r1, ip
    6250:	430a      	orrs	r2, r1
    6252:	d1e4      	bne.n	621e <__ledf2+0x62>
    6254:	e7e5      	b.n	6222 <__ledf2+0x66>
    6256:	42b5      	cmp	r5, r6
    6258:	dd03      	ble.n	6262 <__ledf2+0xa6>
    625a:	2201      	movs	r2, #1
    625c:	425c      	negs	r4, r3
    625e:	4314      	orrs	r4, r2
    6260:	e7d4      	b.n	620c <__ledf2+0x50>
    6262:	42b5      	cmp	r5, r6
    6264:	dbcd      	blt.n	6202 <__ledf2+0x46>
    6266:	4567      	cmp	r7, ip
    6268:	d8db      	bhi.n	6222 <__ledf2+0x66>
    626a:	d009      	beq.n	6280 <__ledf2+0xc4>
    626c:	2400      	movs	r4, #0
    626e:	4567      	cmp	r7, ip
    6270:	d2cc      	bcs.n	620c <__ledf2+0x50>
    6272:	4659      	mov	r1, fp
    6274:	424c      	negs	r4, r1
    6276:	4161      	adcs	r1, r4
    6278:	2401      	movs	r4, #1
    627a:	4249      	negs	r1, r1
    627c:	430c      	orrs	r4, r1
    627e:	e7c5      	b.n	620c <__ledf2+0x50>
    6280:	45c8      	cmp	r8, r9
    6282:	d8ce      	bhi.n	6222 <__ledf2+0x66>
    6284:	2400      	movs	r4, #0
    6286:	45c8      	cmp	r8, r9
    6288:	d3f3      	bcc.n	6272 <__ledf2+0xb6>
    628a:	e7bf      	b.n	620c <__ledf2+0x50>
    628c:	000007ff 	.word	0x000007ff

00006290 <__aeabi_dmul>:
    6290:	b5f0      	push	{r4, r5, r6, r7, lr}
    6292:	465f      	mov	r7, fp
    6294:	4656      	mov	r6, sl
    6296:	464d      	mov	r5, r9
    6298:	4644      	mov	r4, r8
    629a:	b4f0      	push	{r4, r5, r6, r7}
    629c:	030d      	lsls	r5, r1, #12
    629e:	4699      	mov	r9, r3
    62a0:	004e      	lsls	r6, r1, #1
    62a2:	0b2b      	lsrs	r3, r5, #12
    62a4:	b087      	sub	sp, #28
    62a6:	0007      	movs	r7, r0
    62a8:	4692      	mov	sl, r2
    62aa:	4680      	mov	r8, r0
    62ac:	469b      	mov	fp, r3
    62ae:	0d76      	lsrs	r6, r6, #21
    62b0:	0fcc      	lsrs	r4, r1, #31
    62b2:	2e00      	cmp	r6, #0
    62b4:	d069      	beq.n	638a <__aeabi_dmul+0xfa>
    62b6:	4b6d      	ldr	r3, [pc, #436]	; (646c <__aeabi_dmul+0x1dc>)
    62b8:	429e      	cmp	r6, r3
    62ba:	d035      	beq.n	6328 <__aeabi_dmul+0x98>
    62bc:	465b      	mov	r3, fp
    62be:	2280      	movs	r2, #128	; 0x80
    62c0:	00dd      	lsls	r5, r3, #3
    62c2:	0412      	lsls	r2, r2, #16
    62c4:	0f43      	lsrs	r3, r0, #29
    62c6:	4313      	orrs	r3, r2
    62c8:	432b      	orrs	r3, r5
    62ca:	469b      	mov	fp, r3
    62cc:	00c3      	lsls	r3, r0, #3
    62ce:	4698      	mov	r8, r3
    62d0:	4b67      	ldr	r3, [pc, #412]	; (6470 <__aeabi_dmul+0x1e0>)
    62d2:	2700      	movs	r7, #0
    62d4:	469c      	mov	ip, r3
    62d6:	2300      	movs	r3, #0
    62d8:	4466      	add	r6, ip
    62da:	9301      	str	r3, [sp, #4]
    62dc:	464a      	mov	r2, r9
    62de:	0315      	lsls	r5, r2, #12
    62e0:	0050      	lsls	r0, r2, #1
    62e2:	0fd2      	lsrs	r2, r2, #31
    62e4:	4653      	mov	r3, sl
    62e6:	0b2d      	lsrs	r5, r5, #12
    62e8:	0d40      	lsrs	r0, r0, #21
    62ea:	4691      	mov	r9, r2
    62ec:	d100      	bne.n	62f0 <__aeabi_dmul+0x60>
    62ee:	e076      	b.n	63de <__aeabi_dmul+0x14e>
    62f0:	4a5e      	ldr	r2, [pc, #376]	; (646c <__aeabi_dmul+0x1dc>)
    62f2:	4290      	cmp	r0, r2
    62f4:	d06c      	beq.n	63d0 <__aeabi_dmul+0x140>
    62f6:	2280      	movs	r2, #128	; 0x80
    62f8:	0f5b      	lsrs	r3, r3, #29
    62fa:	0412      	lsls	r2, r2, #16
    62fc:	4313      	orrs	r3, r2
    62fe:	4a5c      	ldr	r2, [pc, #368]	; (6470 <__aeabi_dmul+0x1e0>)
    6300:	00ed      	lsls	r5, r5, #3
    6302:	4694      	mov	ip, r2
    6304:	431d      	orrs	r5, r3
    6306:	4653      	mov	r3, sl
    6308:	2200      	movs	r2, #0
    630a:	00db      	lsls	r3, r3, #3
    630c:	4460      	add	r0, ip
    630e:	4649      	mov	r1, r9
    6310:	1836      	adds	r6, r6, r0
    6312:	1c70      	adds	r0, r6, #1
    6314:	4061      	eors	r1, r4
    6316:	9002      	str	r0, [sp, #8]
    6318:	4317      	orrs	r7, r2
    631a:	2f0f      	cmp	r7, #15
    631c:	d900      	bls.n	6320 <__aeabi_dmul+0x90>
    631e:	e0af      	b.n	6480 <__aeabi_dmul+0x1f0>
    6320:	4854      	ldr	r0, [pc, #336]	; (6474 <__aeabi_dmul+0x1e4>)
    6322:	00bf      	lsls	r7, r7, #2
    6324:	59c7      	ldr	r7, [r0, r7]
    6326:	46bf      	mov	pc, r7
    6328:	465b      	mov	r3, fp
    632a:	431f      	orrs	r7, r3
    632c:	d000      	beq.n	6330 <__aeabi_dmul+0xa0>
    632e:	e088      	b.n	6442 <__aeabi_dmul+0x1b2>
    6330:	2300      	movs	r3, #0
    6332:	469b      	mov	fp, r3
    6334:	4698      	mov	r8, r3
    6336:	3302      	adds	r3, #2
    6338:	2708      	movs	r7, #8
    633a:	9301      	str	r3, [sp, #4]
    633c:	e7ce      	b.n	62dc <__aeabi_dmul+0x4c>
    633e:	4649      	mov	r1, r9
    6340:	2a02      	cmp	r2, #2
    6342:	d06a      	beq.n	641a <__aeabi_dmul+0x18a>
    6344:	2a03      	cmp	r2, #3
    6346:	d100      	bne.n	634a <__aeabi_dmul+0xba>
    6348:	e209      	b.n	675e <__aeabi_dmul+0x4ce>
    634a:	2a01      	cmp	r2, #1
    634c:	d000      	beq.n	6350 <__aeabi_dmul+0xc0>
    634e:	e1bb      	b.n	66c8 <__aeabi_dmul+0x438>
    6350:	4011      	ands	r1, r2
    6352:	2200      	movs	r2, #0
    6354:	2300      	movs	r3, #0
    6356:	2500      	movs	r5, #0
    6358:	4690      	mov	r8, r2
    635a:	b2cc      	uxtb	r4, r1
    635c:	2100      	movs	r1, #0
    635e:	032d      	lsls	r5, r5, #12
    6360:	0d0a      	lsrs	r2, r1, #20
    6362:	0512      	lsls	r2, r2, #20
    6364:	0b2d      	lsrs	r5, r5, #12
    6366:	4315      	orrs	r5, r2
    6368:	4a43      	ldr	r2, [pc, #268]	; (6478 <__aeabi_dmul+0x1e8>)
    636a:	051b      	lsls	r3, r3, #20
    636c:	4015      	ands	r5, r2
    636e:	431d      	orrs	r5, r3
    6370:	006d      	lsls	r5, r5, #1
    6372:	07e4      	lsls	r4, r4, #31
    6374:	086d      	lsrs	r5, r5, #1
    6376:	4325      	orrs	r5, r4
    6378:	4640      	mov	r0, r8
    637a:	0029      	movs	r1, r5
    637c:	b007      	add	sp, #28
    637e:	bc3c      	pop	{r2, r3, r4, r5}
    6380:	4690      	mov	r8, r2
    6382:	4699      	mov	r9, r3
    6384:	46a2      	mov	sl, r4
    6386:	46ab      	mov	fp, r5
    6388:	bdf0      	pop	{r4, r5, r6, r7, pc}
    638a:	4303      	orrs	r3, r0
    638c:	d052      	beq.n	6434 <__aeabi_dmul+0x1a4>
    638e:	465b      	mov	r3, fp
    6390:	2b00      	cmp	r3, #0
    6392:	d100      	bne.n	6396 <__aeabi_dmul+0x106>
    6394:	e18a      	b.n	66ac <__aeabi_dmul+0x41c>
    6396:	4658      	mov	r0, fp
    6398:	f000 fef8 	bl	718c <__clzsi2>
    639c:	0003      	movs	r3, r0
    639e:	3b0b      	subs	r3, #11
    63a0:	2b1c      	cmp	r3, #28
    63a2:	dd00      	ble.n	63a6 <__aeabi_dmul+0x116>
    63a4:	e17b      	b.n	669e <__aeabi_dmul+0x40e>
    63a6:	221d      	movs	r2, #29
    63a8:	1ad3      	subs	r3, r2, r3
    63aa:	003a      	movs	r2, r7
    63ac:	0001      	movs	r1, r0
    63ae:	465d      	mov	r5, fp
    63b0:	40da      	lsrs	r2, r3
    63b2:	3908      	subs	r1, #8
    63b4:	408d      	lsls	r5, r1
    63b6:	0013      	movs	r3, r2
    63b8:	408f      	lsls	r7, r1
    63ba:	432b      	orrs	r3, r5
    63bc:	469b      	mov	fp, r3
    63be:	46b8      	mov	r8, r7
    63c0:	4b2e      	ldr	r3, [pc, #184]	; (647c <__aeabi_dmul+0x1ec>)
    63c2:	2700      	movs	r7, #0
    63c4:	469c      	mov	ip, r3
    63c6:	2300      	movs	r3, #0
    63c8:	4460      	add	r0, ip
    63ca:	4246      	negs	r6, r0
    63cc:	9301      	str	r3, [sp, #4]
    63ce:	e785      	b.n	62dc <__aeabi_dmul+0x4c>
    63d0:	4652      	mov	r2, sl
    63d2:	432a      	orrs	r2, r5
    63d4:	d12c      	bne.n	6430 <__aeabi_dmul+0x1a0>
    63d6:	2500      	movs	r5, #0
    63d8:	2300      	movs	r3, #0
    63da:	2202      	movs	r2, #2
    63dc:	e797      	b.n	630e <__aeabi_dmul+0x7e>
    63de:	4652      	mov	r2, sl
    63e0:	432a      	orrs	r2, r5
    63e2:	d021      	beq.n	6428 <__aeabi_dmul+0x198>
    63e4:	2d00      	cmp	r5, #0
    63e6:	d100      	bne.n	63ea <__aeabi_dmul+0x15a>
    63e8:	e154      	b.n	6694 <__aeabi_dmul+0x404>
    63ea:	0028      	movs	r0, r5
    63ec:	f000 fece 	bl	718c <__clzsi2>
    63f0:	0003      	movs	r3, r0
    63f2:	3b0b      	subs	r3, #11
    63f4:	2b1c      	cmp	r3, #28
    63f6:	dd00      	ble.n	63fa <__aeabi_dmul+0x16a>
    63f8:	e146      	b.n	6688 <__aeabi_dmul+0x3f8>
    63fa:	211d      	movs	r1, #29
    63fc:	1acb      	subs	r3, r1, r3
    63fe:	4651      	mov	r1, sl
    6400:	0002      	movs	r2, r0
    6402:	40d9      	lsrs	r1, r3
    6404:	4653      	mov	r3, sl
    6406:	3a08      	subs	r2, #8
    6408:	4095      	lsls	r5, r2
    640a:	4093      	lsls	r3, r2
    640c:	430d      	orrs	r5, r1
    640e:	4a1b      	ldr	r2, [pc, #108]	; (647c <__aeabi_dmul+0x1ec>)
    6410:	4694      	mov	ip, r2
    6412:	4460      	add	r0, ip
    6414:	4240      	negs	r0, r0
    6416:	2200      	movs	r2, #0
    6418:	e779      	b.n	630e <__aeabi_dmul+0x7e>
    641a:	2401      	movs	r4, #1
    641c:	2200      	movs	r2, #0
    641e:	400c      	ands	r4, r1
    6420:	4b12      	ldr	r3, [pc, #72]	; (646c <__aeabi_dmul+0x1dc>)
    6422:	2500      	movs	r5, #0
    6424:	4690      	mov	r8, r2
    6426:	e799      	b.n	635c <__aeabi_dmul+0xcc>
    6428:	2500      	movs	r5, #0
    642a:	2300      	movs	r3, #0
    642c:	2201      	movs	r2, #1
    642e:	e76e      	b.n	630e <__aeabi_dmul+0x7e>
    6430:	2203      	movs	r2, #3
    6432:	e76c      	b.n	630e <__aeabi_dmul+0x7e>
    6434:	2300      	movs	r3, #0
    6436:	469b      	mov	fp, r3
    6438:	4698      	mov	r8, r3
    643a:	3301      	adds	r3, #1
    643c:	2704      	movs	r7, #4
    643e:	9301      	str	r3, [sp, #4]
    6440:	e74c      	b.n	62dc <__aeabi_dmul+0x4c>
    6442:	2303      	movs	r3, #3
    6444:	270c      	movs	r7, #12
    6446:	9301      	str	r3, [sp, #4]
    6448:	e748      	b.n	62dc <__aeabi_dmul+0x4c>
    644a:	2300      	movs	r3, #0
    644c:	2580      	movs	r5, #128	; 0x80
    644e:	4698      	mov	r8, r3
    6450:	2400      	movs	r4, #0
    6452:	032d      	lsls	r5, r5, #12
    6454:	4b05      	ldr	r3, [pc, #20]	; (646c <__aeabi_dmul+0x1dc>)
    6456:	e781      	b.n	635c <__aeabi_dmul+0xcc>
    6458:	465d      	mov	r5, fp
    645a:	4643      	mov	r3, r8
    645c:	9a01      	ldr	r2, [sp, #4]
    645e:	e76f      	b.n	6340 <__aeabi_dmul+0xb0>
    6460:	465d      	mov	r5, fp
    6462:	4643      	mov	r3, r8
    6464:	0021      	movs	r1, r4
    6466:	9a01      	ldr	r2, [sp, #4]
    6468:	e76a      	b.n	6340 <__aeabi_dmul+0xb0>
    646a:	46c0      	nop			; (mov r8, r8)
    646c:	000007ff 	.word	0x000007ff
    6470:	fffffc01 	.word	0xfffffc01
    6474:	000072d8 	.word	0x000072d8
    6478:	800fffff 	.word	0x800fffff
    647c:	000003f3 	.word	0x000003f3
    6480:	4642      	mov	r2, r8
    6482:	0c12      	lsrs	r2, r2, #16
    6484:	4691      	mov	r9, r2
    6486:	0c1a      	lsrs	r2, r3, #16
    6488:	4694      	mov	ip, r2
    648a:	4642      	mov	r2, r8
    648c:	0417      	lsls	r7, r2, #16
    648e:	464a      	mov	r2, r9
    6490:	041b      	lsls	r3, r3, #16
    6492:	0c1b      	lsrs	r3, r3, #16
    6494:	435a      	muls	r2, r3
    6496:	4660      	mov	r0, ip
    6498:	4690      	mov	r8, r2
    649a:	464a      	mov	r2, r9
    649c:	4342      	muls	r2, r0
    649e:	0010      	movs	r0, r2
    64a0:	9203      	str	r2, [sp, #12]
    64a2:	4662      	mov	r2, ip
    64a4:	001c      	movs	r4, r3
    64a6:	0c3f      	lsrs	r7, r7, #16
    64a8:	437a      	muls	r2, r7
    64aa:	437c      	muls	r4, r7
    64ac:	4442      	add	r2, r8
    64ae:	9201      	str	r2, [sp, #4]
    64b0:	0c22      	lsrs	r2, r4, #16
    64b2:	4692      	mov	sl, r2
    64b4:	9a01      	ldr	r2, [sp, #4]
    64b6:	4452      	add	r2, sl
    64b8:	4590      	cmp	r8, r2
    64ba:	d906      	bls.n	64ca <__aeabi_dmul+0x23a>
    64bc:	4682      	mov	sl, r0
    64be:	2080      	movs	r0, #128	; 0x80
    64c0:	0240      	lsls	r0, r0, #9
    64c2:	4680      	mov	r8, r0
    64c4:	44c2      	add	sl, r8
    64c6:	4650      	mov	r0, sl
    64c8:	9003      	str	r0, [sp, #12]
    64ca:	0c10      	lsrs	r0, r2, #16
    64cc:	9004      	str	r0, [sp, #16]
    64ce:	4648      	mov	r0, r9
    64d0:	0424      	lsls	r4, r4, #16
    64d2:	0c24      	lsrs	r4, r4, #16
    64d4:	0412      	lsls	r2, r2, #16
    64d6:	1912      	adds	r2, r2, r4
    64d8:	9205      	str	r2, [sp, #20]
    64da:	0c2a      	lsrs	r2, r5, #16
    64dc:	042d      	lsls	r5, r5, #16
    64de:	0c2d      	lsrs	r5, r5, #16
    64e0:	4368      	muls	r0, r5
    64e2:	002c      	movs	r4, r5
    64e4:	4682      	mov	sl, r0
    64e6:	4648      	mov	r0, r9
    64e8:	437c      	muls	r4, r7
    64ea:	4350      	muls	r0, r2
    64ec:	4681      	mov	r9, r0
    64ee:	0c20      	lsrs	r0, r4, #16
    64f0:	4680      	mov	r8, r0
    64f2:	4357      	muls	r7, r2
    64f4:	4457      	add	r7, sl
    64f6:	4447      	add	r7, r8
    64f8:	45ba      	cmp	sl, r7
    64fa:	d903      	bls.n	6504 <__aeabi_dmul+0x274>
    64fc:	2080      	movs	r0, #128	; 0x80
    64fe:	0240      	lsls	r0, r0, #9
    6500:	4680      	mov	r8, r0
    6502:	44c1      	add	r9, r8
    6504:	0c38      	lsrs	r0, r7, #16
    6506:	043f      	lsls	r7, r7, #16
    6508:	46b8      	mov	r8, r7
    650a:	4448      	add	r0, r9
    650c:	0424      	lsls	r4, r4, #16
    650e:	0c24      	lsrs	r4, r4, #16
    6510:	9001      	str	r0, [sp, #4]
    6512:	9804      	ldr	r0, [sp, #16]
    6514:	44a0      	add	r8, r4
    6516:	4440      	add	r0, r8
    6518:	9004      	str	r0, [sp, #16]
    651a:	4658      	mov	r0, fp
    651c:	0c00      	lsrs	r0, r0, #16
    651e:	4681      	mov	r9, r0
    6520:	4658      	mov	r0, fp
    6522:	0404      	lsls	r4, r0, #16
    6524:	0c20      	lsrs	r0, r4, #16
    6526:	4682      	mov	sl, r0
    6528:	0007      	movs	r7, r0
    652a:	4648      	mov	r0, r9
    652c:	435f      	muls	r7, r3
    652e:	464c      	mov	r4, r9
    6530:	4343      	muls	r3, r0
    6532:	4660      	mov	r0, ip
    6534:	4360      	muls	r0, r4
    6536:	4664      	mov	r4, ip
    6538:	4683      	mov	fp, r0
    653a:	4650      	mov	r0, sl
    653c:	4344      	muls	r4, r0
    653e:	0c38      	lsrs	r0, r7, #16
    6540:	4684      	mov	ip, r0
    6542:	18e4      	adds	r4, r4, r3
    6544:	4464      	add	r4, ip
    6546:	42a3      	cmp	r3, r4
    6548:	d903      	bls.n	6552 <__aeabi_dmul+0x2c2>
    654a:	2380      	movs	r3, #128	; 0x80
    654c:	025b      	lsls	r3, r3, #9
    654e:	469c      	mov	ip, r3
    6550:	44e3      	add	fp, ip
    6552:	4648      	mov	r0, r9
    6554:	043f      	lsls	r7, r7, #16
    6556:	0c23      	lsrs	r3, r4, #16
    6558:	0c3f      	lsrs	r7, r7, #16
    655a:	0424      	lsls	r4, r4, #16
    655c:	19e4      	adds	r4, r4, r7
    655e:	4657      	mov	r7, sl
    6560:	4368      	muls	r0, r5
    6562:	436f      	muls	r7, r5
    6564:	4684      	mov	ip, r0
    6566:	464d      	mov	r5, r9
    6568:	4650      	mov	r0, sl
    656a:	4355      	muls	r5, r2
    656c:	4342      	muls	r2, r0
    656e:	0c38      	lsrs	r0, r7, #16
    6570:	4681      	mov	r9, r0
    6572:	4462      	add	r2, ip
    6574:	444a      	add	r2, r9
    6576:	445b      	add	r3, fp
    6578:	4594      	cmp	ip, r2
    657a:	d903      	bls.n	6584 <__aeabi_dmul+0x2f4>
    657c:	2080      	movs	r0, #128	; 0x80
    657e:	0240      	lsls	r0, r0, #9
    6580:	4684      	mov	ip, r0
    6582:	4465      	add	r5, ip
    6584:	9803      	ldr	r0, [sp, #12]
    6586:	043f      	lsls	r7, r7, #16
    6588:	4683      	mov	fp, r0
    658a:	9804      	ldr	r0, [sp, #16]
    658c:	0c3f      	lsrs	r7, r7, #16
    658e:	4684      	mov	ip, r0
    6590:	44e3      	add	fp, ip
    6592:	45c3      	cmp	fp, r8
    6594:	4180      	sbcs	r0, r0
    6596:	4240      	negs	r0, r0
    6598:	4682      	mov	sl, r0
    659a:	0410      	lsls	r0, r2, #16
    659c:	4684      	mov	ip, r0
    659e:	9801      	ldr	r0, [sp, #4]
    65a0:	4467      	add	r7, ip
    65a2:	4684      	mov	ip, r0
    65a4:	4467      	add	r7, ip
    65a6:	44a3      	add	fp, r4
    65a8:	46bc      	mov	ip, r7
    65aa:	45a3      	cmp	fp, r4
    65ac:	41a4      	sbcs	r4, r4
    65ae:	4699      	mov	r9, r3
    65b0:	44d4      	add	ip, sl
    65b2:	4264      	negs	r4, r4
    65b4:	4287      	cmp	r7, r0
    65b6:	41bf      	sbcs	r7, r7
    65b8:	45d4      	cmp	ip, sl
    65ba:	4180      	sbcs	r0, r0
    65bc:	44e1      	add	r9, ip
    65be:	46a0      	mov	r8, r4
    65c0:	4599      	cmp	r9, r3
    65c2:	419b      	sbcs	r3, r3
    65c4:	427f      	negs	r7, r7
    65c6:	4240      	negs	r0, r0
    65c8:	44c8      	add	r8, r9
    65ca:	4307      	orrs	r7, r0
    65cc:	0c12      	lsrs	r2, r2, #16
    65ce:	18ba      	adds	r2, r7, r2
    65d0:	45a0      	cmp	r8, r4
    65d2:	41a4      	sbcs	r4, r4
    65d4:	425f      	negs	r7, r3
    65d6:	003b      	movs	r3, r7
    65d8:	4264      	negs	r4, r4
    65da:	4323      	orrs	r3, r4
    65dc:	18d7      	adds	r7, r2, r3
    65de:	4643      	mov	r3, r8
    65e0:	197d      	adds	r5, r7, r5
    65e2:	0ddb      	lsrs	r3, r3, #23
    65e4:	026d      	lsls	r5, r5, #9
    65e6:	431d      	orrs	r5, r3
    65e8:	465b      	mov	r3, fp
    65ea:	025a      	lsls	r2, r3, #9
    65ec:	9b05      	ldr	r3, [sp, #20]
    65ee:	431a      	orrs	r2, r3
    65f0:	1e53      	subs	r3, r2, #1
    65f2:	419a      	sbcs	r2, r3
    65f4:	465b      	mov	r3, fp
    65f6:	0ddb      	lsrs	r3, r3, #23
    65f8:	431a      	orrs	r2, r3
    65fa:	4643      	mov	r3, r8
    65fc:	025b      	lsls	r3, r3, #9
    65fe:	4313      	orrs	r3, r2
    6600:	01ea      	lsls	r2, r5, #7
    6602:	d507      	bpl.n	6614 <__aeabi_dmul+0x384>
    6604:	2201      	movs	r2, #1
    6606:	085c      	lsrs	r4, r3, #1
    6608:	4013      	ands	r3, r2
    660a:	4323      	orrs	r3, r4
    660c:	07ea      	lsls	r2, r5, #31
    660e:	9e02      	ldr	r6, [sp, #8]
    6610:	4313      	orrs	r3, r2
    6612:	086d      	lsrs	r5, r5, #1
    6614:	4a57      	ldr	r2, [pc, #348]	; (6774 <__aeabi_dmul+0x4e4>)
    6616:	18b2      	adds	r2, r6, r2
    6618:	2a00      	cmp	r2, #0
    661a:	dd4b      	ble.n	66b4 <__aeabi_dmul+0x424>
    661c:	0758      	lsls	r0, r3, #29
    661e:	d009      	beq.n	6634 <__aeabi_dmul+0x3a4>
    6620:	200f      	movs	r0, #15
    6622:	4018      	ands	r0, r3
    6624:	2804      	cmp	r0, #4
    6626:	d005      	beq.n	6634 <__aeabi_dmul+0x3a4>
    6628:	1d18      	adds	r0, r3, #4
    662a:	4298      	cmp	r0, r3
    662c:	419b      	sbcs	r3, r3
    662e:	425b      	negs	r3, r3
    6630:	18ed      	adds	r5, r5, r3
    6632:	0003      	movs	r3, r0
    6634:	01e8      	lsls	r0, r5, #7
    6636:	d504      	bpl.n	6642 <__aeabi_dmul+0x3b2>
    6638:	4a4f      	ldr	r2, [pc, #316]	; (6778 <__aeabi_dmul+0x4e8>)
    663a:	4015      	ands	r5, r2
    663c:	2280      	movs	r2, #128	; 0x80
    663e:	00d2      	lsls	r2, r2, #3
    6640:	18b2      	adds	r2, r6, r2
    6642:	484e      	ldr	r0, [pc, #312]	; (677c <__aeabi_dmul+0x4ec>)
    6644:	4282      	cmp	r2, r0
    6646:	dd00      	ble.n	664a <__aeabi_dmul+0x3ba>
    6648:	e6e7      	b.n	641a <__aeabi_dmul+0x18a>
    664a:	2401      	movs	r4, #1
    664c:	08db      	lsrs	r3, r3, #3
    664e:	0768      	lsls	r0, r5, #29
    6650:	4318      	orrs	r0, r3
    6652:	026d      	lsls	r5, r5, #9
    6654:	0553      	lsls	r3, r2, #21
    6656:	4680      	mov	r8, r0
    6658:	0b2d      	lsrs	r5, r5, #12
    665a:	0d5b      	lsrs	r3, r3, #21
    665c:	400c      	ands	r4, r1
    665e:	e67d      	b.n	635c <__aeabi_dmul+0xcc>
    6660:	2280      	movs	r2, #128	; 0x80
    6662:	4659      	mov	r1, fp
    6664:	0312      	lsls	r2, r2, #12
    6666:	4211      	tst	r1, r2
    6668:	d008      	beq.n	667c <__aeabi_dmul+0x3ec>
    666a:	4215      	tst	r5, r2
    666c:	d106      	bne.n	667c <__aeabi_dmul+0x3ec>
    666e:	4315      	orrs	r5, r2
    6670:	032d      	lsls	r5, r5, #12
    6672:	4698      	mov	r8, r3
    6674:	0b2d      	lsrs	r5, r5, #12
    6676:	464c      	mov	r4, r9
    6678:	4b41      	ldr	r3, [pc, #260]	; (6780 <__aeabi_dmul+0x4f0>)
    667a:	e66f      	b.n	635c <__aeabi_dmul+0xcc>
    667c:	465d      	mov	r5, fp
    667e:	4315      	orrs	r5, r2
    6680:	032d      	lsls	r5, r5, #12
    6682:	0b2d      	lsrs	r5, r5, #12
    6684:	4b3e      	ldr	r3, [pc, #248]	; (6780 <__aeabi_dmul+0x4f0>)
    6686:	e669      	b.n	635c <__aeabi_dmul+0xcc>
    6688:	0003      	movs	r3, r0
    668a:	4655      	mov	r5, sl
    668c:	3b28      	subs	r3, #40	; 0x28
    668e:	409d      	lsls	r5, r3
    6690:	2300      	movs	r3, #0
    6692:	e6bc      	b.n	640e <__aeabi_dmul+0x17e>
    6694:	4650      	mov	r0, sl
    6696:	f000 fd79 	bl	718c <__clzsi2>
    669a:	3020      	adds	r0, #32
    669c:	e6a8      	b.n	63f0 <__aeabi_dmul+0x160>
    669e:	0003      	movs	r3, r0
    66a0:	3b28      	subs	r3, #40	; 0x28
    66a2:	409f      	lsls	r7, r3
    66a4:	2300      	movs	r3, #0
    66a6:	46bb      	mov	fp, r7
    66a8:	4698      	mov	r8, r3
    66aa:	e689      	b.n	63c0 <__aeabi_dmul+0x130>
    66ac:	f000 fd6e 	bl	718c <__clzsi2>
    66b0:	3020      	adds	r0, #32
    66b2:	e673      	b.n	639c <__aeabi_dmul+0x10c>
    66b4:	2401      	movs	r4, #1
    66b6:	1aa6      	subs	r6, r4, r2
    66b8:	2e38      	cmp	r6, #56	; 0x38
    66ba:	dd07      	ble.n	66cc <__aeabi_dmul+0x43c>
    66bc:	2200      	movs	r2, #0
    66be:	400c      	ands	r4, r1
    66c0:	2300      	movs	r3, #0
    66c2:	2500      	movs	r5, #0
    66c4:	4690      	mov	r8, r2
    66c6:	e649      	b.n	635c <__aeabi_dmul+0xcc>
    66c8:	9e02      	ldr	r6, [sp, #8]
    66ca:	e7a3      	b.n	6614 <__aeabi_dmul+0x384>
    66cc:	2e1f      	cmp	r6, #31
    66ce:	dc20      	bgt.n	6712 <__aeabi_dmul+0x482>
    66d0:	2220      	movs	r2, #32
    66d2:	002c      	movs	r4, r5
    66d4:	0018      	movs	r0, r3
    66d6:	1b92      	subs	r2, r2, r6
    66d8:	40f0      	lsrs	r0, r6
    66da:	4094      	lsls	r4, r2
    66dc:	4093      	lsls	r3, r2
    66de:	4304      	orrs	r4, r0
    66e0:	1e58      	subs	r0, r3, #1
    66e2:	4183      	sbcs	r3, r0
    66e4:	431c      	orrs	r4, r3
    66e6:	40f5      	lsrs	r5, r6
    66e8:	0763      	lsls	r3, r4, #29
    66ea:	d009      	beq.n	6700 <__aeabi_dmul+0x470>
    66ec:	230f      	movs	r3, #15
    66ee:	4023      	ands	r3, r4
    66f0:	2b04      	cmp	r3, #4
    66f2:	d005      	beq.n	6700 <__aeabi_dmul+0x470>
    66f4:	0023      	movs	r3, r4
    66f6:	1d1c      	adds	r4, r3, #4
    66f8:	429c      	cmp	r4, r3
    66fa:	4192      	sbcs	r2, r2
    66fc:	4252      	negs	r2, r2
    66fe:	18ad      	adds	r5, r5, r2
    6700:	022b      	lsls	r3, r5, #8
    6702:	d51f      	bpl.n	6744 <__aeabi_dmul+0x4b4>
    6704:	2401      	movs	r4, #1
    6706:	2200      	movs	r2, #0
    6708:	400c      	ands	r4, r1
    670a:	2301      	movs	r3, #1
    670c:	2500      	movs	r5, #0
    670e:	4690      	mov	r8, r2
    6710:	e624      	b.n	635c <__aeabi_dmul+0xcc>
    6712:	201f      	movs	r0, #31
    6714:	002c      	movs	r4, r5
    6716:	4240      	negs	r0, r0
    6718:	1a82      	subs	r2, r0, r2
    671a:	40d4      	lsrs	r4, r2
    671c:	2e20      	cmp	r6, #32
    671e:	d01c      	beq.n	675a <__aeabi_dmul+0x4ca>
    6720:	2240      	movs	r2, #64	; 0x40
    6722:	1b96      	subs	r6, r2, r6
    6724:	40b5      	lsls	r5, r6
    6726:	432b      	orrs	r3, r5
    6728:	1e58      	subs	r0, r3, #1
    672a:	4183      	sbcs	r3, r0
    672c:	2007      	movs	r0, #7
    672e:	4323      	orrs	r3, r4
    6730:	4018      	ands	r0, r3
    6732:	2500      	movs	r5, #0
    6734:	2800      	cmp	r0, #0
    6736:	d009      	beq.n	674c <__aeabi_dmul+0x4bc>
    6738:	220f      	movs	r2, #15
    673a:	2500      	movs	r5, #0
    673c:	401a      	ands	r2, r3
    673e:	001c      	movs	r4, r3
    6740:	2a04      	cmp	r2, #4
    6742:	d1d8      	bne.n	66f6 <__aeabi_dmul+0x466>
    6744:	0023      	movs	r3, r4
    6746:	0768      	lsls	r0, r5, #29
    6748:	026d      	lsls	r5, r5, #9
    674a:	0b2d      	lsrs	r5, r5, #12
    674c:	2401      	movs	r4, #1
    674e:	08db      	lsrs	r3, r3, #3
    6750:	4303      	orrs	r3, r0
    6752:	4698      	mov	r8, r3
    6754:	400c      	ands	r4, r1
    6756:	2300      	movs	r3, #0
    6758:	e600      	b.n	635c <__aeabi_dmul+0xcc>
    675a:	2500      	movs	r5, #0
    675c:	e7e3      	b.n	6726 <__aeabi_dmul+0x496>
    675e:	2280      	movs	r2, #128	; 0x80
    6760:	2401      	movs	r4, #1
    6762:	0312      	lsls	r2, r2, #12
    6764:	4315      	orrs	r5, r2
    6766:	032d      	lsls	r5, r5, #12
    6768:	4698      	mov	r8, r3
    676a:	0b2d      	lsrs	r5, r5, #12
    676c:	400c      	ands	r4, r1
    676e:	4b04      	ldr	r3, [pc, #16]	; (6780 <__aeabi_dmul+0x4f0>)
    6770:	e5f4      	b.n	635c <__aeabi_dmul+0xcc>
    6772:	46c0      	nop			; (mov r8, r8)
    6774:	000003ff 	.word	0x000003ff
    6778:	feffffff 	.word	0xfeffffff
    677c:	000007fe 	.word	0x000007fe
    6780:	000007ff 	.word	0x000007ff

00006784 <__aeabi_dsub>:
    6784:	b5f0      	push	{r4, r5, r6, r7, lr}
    6786:	4657      	mov	r7, sl
    6788:	464e      	mov	r6, r9
    678a:	4645      	mov	r5, r8
    678c:	b4e0      	push	{r5, r6, r7}
    678e:	000e      	movs	r6, r1
    6790:	0011      	movs	r1, r2
    6792:	0ff2      	lsrs	r2, r6, #31
    6794:	4692      	mov	sl, r2
    6796:	00c5      	lsls	r5, r0, #3
    6798:	0f42      	lsrs	r2, r0, #29
    679a:	0318      	lsls	r0, r3, #12
    679c:	0337      	lsls	r7, r6, #12
    679e:	0074      	lsls	r4, r6, #1
    67a0:	0a40      	lsrs	r0, r0, #9
    67a2:	0f4e      	lsrs	r6, r1, #29
    67a4:	0a7f      	lsrs	r7, r7, #9
    67a6:	4330      	orrs	r0, r6
    67a8:	4ecf      	ldr	r6, [pc, #828]	; (6ae8 <__aeabi_dsub+0x364>)
    67aa:	4317      	orrs	r7, r2
    67ac:	005a      	lsls	r2, r3, #1
    67ae:	0d64      	lsrs	r4, r4, #21
    67b0:	0d52      	lsrs	r2, r2, #21
    67b2:	0fdb      	lsrs	r3, r3, #31
    67b4:	00c9      	lsls	r1, r1, #3
    67b6:	42b2      	cmp	r2, r6
    67b8:	d100      	bne.n	67bc <__aeabi_dsub+0x38>
    67ba:	e0e5      	b.n	6988 <__aeabi_dsub+0x204>
    67bc:	2601      	movs	r6, #1
    67be:	4073      	eors	r3, r6
    67c0:	1aa6      	subs	r6, r4, r2
    67c2:	46b4      	mov	ip, r6
    67c4:	4553      	cmp	r3, sl
    67c6:	d100      	bne.n	67ca <__aeabi_dsub+0x46>
    67c8:	e0af      	b.n	692a <__aeabi_dsub+0x1a6>
    67ca:	2e00      	cmp	r6, #0
    67cc:	dc00      	bgt.n	67d0 <__aeabi_dsub+0x4c>
    67ce:	e10d      	b.n	69ec <__aeabi_dsub+0x268>
    67d0:	2a00      	cmp	r2, #0
    67d2:	d13a      	bne.n	684a <__aeabi_dsub+0xc6>
    67d4:	0003      	movs	r3, r0
    67d6:	430b      	orrs	r3, r1
    67d8:	d000      	beq.n	67dc <__aeabi_dsub+0x58>
    67da:	e0e4      	b.n	69a6 <__aeabi_dsub+0x222>
    67dc:	076b      	lsls	r3, r5, #29
    67de:	d009      	beq.n	67f4 <__aeabi_dsub+0x70>
    67e0:	230f      	movs	r3, #15
    67e2:	402b      	ands	r3, r5
    67e4:	2b04      	cmp	r3, #4
    67e6:	d005      	beq.n	67f4 <__aeabi_dsub+0x70>
    67e8:	1d2b      	adds	r3, r5, #4
    67ea:	42ab      	cmp	r3, r5
    67ec:	41ad      	sbcs	r5, r5
    67ee:	426d      	negs	r5, r5
    67f0:	197f      	adds	r7, r7, r5
    67f2:	001d      	movs	r5, r3
    67f4:	023b      	lsls	r3, r7, #8
    67f6:	d400      	bmi.n	67fa <__aeabi_dsub+0x76>
    67f8:	e088      	b.n	690c <__aeabi_dsub+0x188>
    67fa:	4bbb      	ldr	r3, [pc, #748]	; (6ae8 <__aeabi_dsub+0x364>)
    67fc:	3401      	adds	r4, #1
    67fe:	429c      	cmp	r4, r3
    6800:	d100      	bne.n	6804 <__aeabi_dsub+0x80>
    6802:	e110      	b.n	6a26 <__aeabi_dsub+0x2a2>
    6804:	003a      	movs	r2, r7
    6806:	4bb9      	ldr	r3, [pc, #740]	; (6aec <__aeabi_dsub+0x368>)
    6808:	4651      	mov	r1, sl
    680a:	401a      	ands	r2, r3
    680c:	2301      	movs	r3, #1
    680e:	0750      	lsls	r0, r2, #29
    6810:	08ed      	lsrs	r5, r5, #3
    6812:	0252      	lsls	r2, r2, #9
    6814:	0564      	lsls	r4, r4, #21
    6816:	4305      	orrs	r5, r0
    6818:	0b12      	lsrs	r2, r2, #12
    681a:	0d64      	lsrs	r4, r4, #21
    681c:	400b      	ands	r3, r1
    681e:	2100      	movs	r1, #0
    6820:	0028      	movs	r0, r5
    6822:	0312      	lsls	r2, r2, #12
    6824:	0d0d      	lsrs	r5, r1, #20
    6826:	0b12      	lsrs	r2, r2, #12
    6828:	0564      	lsls	r4, r4, #21
    682a:	052d      	lsls	r5, r5, #20
    682c:	4315      	orrs	r5, r2
    682e:	0862      	lsrs	r2, r4, #1
    6830:	4caf      	ldr	r4, [pc, #700]	; (6af0 <__aeabi_dsub+0x36c>)
    6832:	07db      	lsls	r3, r3, #31
    6834:	402c      	ands	r4, r5
    6836:	4314      	orrs	r4, r2
    6838:	0064      	lsls	r4, r4, #1
    683a:	0864      	lsrs	r4, r4, #1
    683c:	431c      	orrs	r4, r3
    683e:	0021      	movs	r1, r4
    6840:	bc1c      	pop	{r2, r3, r4}
    6842:	4690      	mov	r8, r2
    6844:	4699      	mov	r9, r3
    6846:	46a2      	mov	sl, r4
    6848:	bdf0      	pop	{r4, r5, r6, r7, pc}
    684a:	4ba7      	ldr	r3, [pc, #668]	; (6ae8 <__aeabi_dsub+0x364>)
    684c:	429c      	cmp	r4, r3
    684e:	d0c5      	beq.n	67dc <__aeabi_dsub+0x58>
    6850:	2380      	movs	r3, #128	; 0x80
    6852:	041b      	lsls	r3, r3, #16
    6854:	4318      	orrs	r0, r3
    6856:	4663      	mov	r3, ip
    6858:	2b38      	cmp	r3, #56	; 0x38
    685a:	dd00      	ble.n	685e <__aeabi_dsub+0xda>
    685c:	e0fd      	b.n	6a5a <__aeabi_dsub+0x2d6>
    685e:	2b1f      	cmp	r3, #31
    6860:	dd00      	ble.n	6864 <__aeabi_dsub+0xe0>
    6862:	e130      	b.n	6ac6 <__aeabi_dsub+0x342>
    6864:	4662      	mov	r2, ip
    6866:	2320      	movs	r3, #32
    6868:	1a9b      	subs	r3, r3, r2
    686a:	0002      	movs	r2, r0
    686c:	409a      	lsls	r2, r3
    686e:	4666      	mov	r6, ip
    6870:	4690      	mov	r8, r2
    6872:	000a      	movs	r2, r1
    6874:	4099      	lsls	r1, r3
    6876:	40f2      	lsrs	r2, r6
    6878:	4646      	mov	r6, r8
    687a:	1e4b      	subs	r3, r1, #1
    687c:	4199      	sbcs	r1, r3
    687e:	4332      	orrs	r2, r6
    6880:	4311      	orrs	r1, r2
    6882:	4663      	mov	r3, ip
    6884:	0002      	movs	r2, r0
    6886:	40da      	lsrs	r2, r3
    6888:	1a69      	subs	r1, r5, r1
    688a:	428d      	cmp	r5, r1
    688c:	419b      	sbcs	r3, r3
    688e:	000d      	movs	r5, r1
    6890:	1aba      	subs	r2, r7, r2
    6892:	425b      	negs	r3, r3
    6894:	1ad7      	subs	r7, r2, r3
    6896:	023b      	lsls	r3, r7, #8
    6898:	d535      	bpl.n	6906 <__aeabi_dsub+0x182>
    689a:	027a      	lsls	r2, r7, #9
    689c:	0a53      	lsrs	r3, r2, #9
    689e:	4698      	mov	r8, r3
    68a0:	4643      	mov	r3, r8
    68a2:	2b00      	cmp	r3, #0
    68a4:	d100      	bne.n	68a8 <__aeabi_dsub+0x124>
    68a6:	e0c4      	b.n	6a32 <__aeabi_dsub+0x2ae>
    68a8:	4640      	mov	r0, r8
    68aa:	f000 fc6f 	bl	718c <__clzsi2>
    68ae:	0003      	movs	r3, r0
    68b0:	3b08      	subs	r3, #8
    68b2:	2b1f      	cmp	r3, #31
    68b4:	dd00      	ble.n	68b8 <__aeabi_dsub+0x134>
    68b6:	e0c5      	b.n	6a44 <__aeabi_dsub+0x2c0>
    68b8:	2220      	movs	r2, #32
    68ba:	0029      	movs	r1, r5
    68bc:	1ad2      	subs	r2, r2, r3
    68be:	4647      	mov	r7, r8
    68c0:	40d1      	lsrs	r1, r2
    68c2:	409f      	lsls	r7, r3
    68c4:	000a      	movs	r2, r1
    68c6:	409d      	lsls	r5, r3
    68c8:	433a      	orrs	r2, r7
    68ca:	429c      	cmp	r4, r3
    68cc:	dd00      	ble.n	68d0 <__aeabi_dsub+0x14c>
    68ce:	e0c0      	b.n	6a52 <__aeabi_dsub+0x2ce>
    68d0:	1b1c      	subs	r4, r3, r4
    68d2:	1c63      	adds	r3, r4, #1
    68d4:	2b1f      	cmp	r3, #31
    68d6:	dd00      	ble.n	68da <__aeabi_dsub+0x156>
    68d8:	e0e4      	b.n	6aa4 <__aeabi_dsub+0x320>
    68da:	2120      	movs	r1, #32
    68dc:	0014      	movs	r4, r2
    68de:	0028      	movs	r0, r5
    68e0:	1ac9      	subs	r1, r1, r3
    68e2:	40d8      	lsrs	r0, r3
    68e4:	408c      	lsls	r4, r1
    68e6:	408d      	lsls	r5, r1
    68e8:	4304      	orrs	r4, r0
    68ea:	40da      	lsrs	r2, r3
    68ec:	1e68      	subs	r0, r5, #1
    68ee:	4185      	sbcs	r5, r0
    68f0:	0017      	movs	r7, r2
    68f2:	4325      	orrs	r5, r4
    68f4:	2400      	movs	r4, #0
    68f6:	e771      	b.n	67dc <__aeabi_dsub+0x58>
    68f8:	4642      	mov	r2, r8
    68fa:	4663      	mov	r3, ip
    68fc:	431a      	orrs	r2, r3
    68fe:	d100      	bne.n	6902 <__aeabi_dsub+0x17e>
    6900:	e24c      	b.n	6d9c <__aeabi_dsub+0x618>
    6902:	4667      	mov	r7, ip
    6904:	4645      	mov	r5, r8
    6906:	076b      	lsls	r3, r5, #29
    6908:	d000      	beq.n	690c <__aeabi_dsub+0x188>
    690a:	e769      	b.n	67e0 <__aeabi_dsub+0x5c>
    690c:	2301      	movs	r3, #1
    690e:	4651      	mov	r1, sl
    6910:	0778      	lsls	r0, r7, #29
    6912:	08ed      	lsrs	r5, r5, #3
    6914:	08fa      	lsrs	r2, r7, #3
    6916:	400b      	ands	r3, r1
    6918:	4305      	orrs	r5, r0
    691a:	4973      	ldr	r1, [pc, #460]	; (6ae8 <__aeabi_dsub+0x364>)
    691c:	428c      	cmp	r4, r1
    691e:	d038      	beq.n	6992 <__aeabi_dsub+0x20e>
    6920:	0312      	lsls	r2, r2, #12
    6922:	0564      	lsls	r4, r4, #21
    6924:	0b12      	lsrs	r2, r2, #12
    6926:	0d64      	lsrs	r4, r4, #21
    6928:	e779      	b.n	681e <__aeabi_dsub+0x9a>
    692a:	2e00      	cmp	r6, #0
    692c:	dc00      	bgt.n	6930 <__aeabi_dsub+0x1ac>
    692e:	e09a      	b.n	6a66 <__aeabi_dsub+0x2e2>
    6930:	2a00      	cmp	r2, #0
    6932:	d047      	beq.n	69c4 <__aeabi_dsub+0x240>
    6934:	4a6c      	ldr	r2, [pc, #432]	; (6ae8 <__aeabi_dsub+0x364>)
    6936:	4294      	cmp	r4, r2
    6938:	d100      	bne.n	693c <__aeabi_dsub+0x1b8>
    693a:	e74f      	b.n	67dc <__aeabi_dsub+0x58>
    693c:	2280      	movs	r2, #128	; 0x80
    693e:	0412      	lsls	r2, r2, #16
    6940:	4310      	orrs	r0, r2
    6942:	4662      	mov	r2, ip
    6944:	2a38      	cmp	r2, #56	; 0x38
    6946:	dc00      	bgt.n	694a <__aeabi_dsub+0x1c6>
    6948:	e108      	b.n	6b5c <__aeabi_dsub+0x3d8>
    694a:	4301      	orrs	r1, r0
    694c:	1e48      	subs	r0, r1, #1
    694e:	4181      	sbcs	r1, r0
    6950:	2200      	movs	r2, #0
    6952:	b2c9      	uxtb	r1, r1
    6954:	1949      	adds	r1, r1, r5
    6956:	19d2      	adds	r2, r2, r7
    6958:	42a9      	cmp	r1, r5
    695a:	41bf      	sbcs	r7, r7
    695c:	000d      	movs	r5, r1
    695e:	427f      	negs	r7, r7
    6960:	18bf      	adds	r7, r7, r2
    6962:	023a      	lsls	r2, r7, #8
    6964:	d400      	bmi.n	6968 <__aeabi_dsub+0x1e4>
    6966:	e142      	b.n	6bee <__aeabi_dsub+0x46a>
    6968:	4a5f      	ldr	r2, [pc, #380]	; (6ae8 <__aeabi_dsub+0x364>)
    696a:	3401      	adds	r4, #1
    696c:	4294      	cmp	r4, r2
    696e:	d100      	bne.n	6972 <__aeabi_dsub+0x1ee>
    6970:	e14e      	b.n	6c10 <__aeabi_dsub+0x48c>
    6972:	2001      	movs	r0, #1
    6974:	4a5d      	ldr	r2, [pc, #372]	; (6aec <__aeabi_dsub+0x368>)
    6976:	0869      	lsrs	r1, r5, #1
    6978:	403a      	ands	r2, r7
    697a:	4028      	ands	r0, r5
    697c:	4308      	orrs	r0, r1
    697e:	07d5      	lsls	r5, r2, #31
    6980:	4305      	orrs	r5, r0
    6982:	0857      	lsrs	r7, r2, #1
    6984:	469a      	mov	sl, r3
    6986:	e729      	b.n	67dc <__aeabi_dsub+0x58>
    6988:	0006      	movs	r6, r0
    698a:	430e      	orrs	r6, r1
    698c:	d000      	beq.n	6990 <__aeabi_dsub+0x20c>
    698e:	e717      	b.n	67c0 <__aeabi_dsub+0x3c>
    6990:	e714      	b.n	67bc <__aeabi_dsub+0x38>
    6992:	0029      	movs	r1, r5
    6994:	4311      	orrs	r1, r2
    6996:	d100      	bne.n	699a <__aeabi_dsub+0x216>
    6998:	e1f9      	b.n	6d8e <__aeabi_dsub+0x60a>
    699a:	2180      	movs	r1, #128	; 0x80
    699c:	0309      	lsls	r1, r1, #12
    699e:	430a      	orrs	r2, r1
    69a0:	0312      	lsls	r2, r2, #12
    69a2:	0b12      	lsrs	r2, r2, #12
    69a4:	e73b      	b.n	681e <__aeabi_dsub+0x9a>
    69a6:	2301      	movs	r3, #1
    69a8:	425b      	negs	r3, r3
    69aa:	4698      	mov	r8, r3
    69ac:	44c4      	add	ip, r8
    69ae:	4663      	mov	r3, ip
    69b0:	2b00      	cmp	r3, #0
    69b2:	d172      	bne.n	6a9a <__aeabi_dsub+0x316>
    69b4:	1a69      	subs	r1, r5, r1
    69b6:	428d      	cmp	r5, r1
    69b8:	419b      	sbcs	r3, r3
    69ba:	1a3f      	subs	r7, r7, r0
    69bc:	425b      	negs	r3, r3
    69be:	1aff      	subs	r7, r7, r3
    69c0:	000d      	movs	r5, r1
    69c2:	e768      	b.n	6896 <__aeabi_dsub+0x112>
    69c4:	0002      	movs	r2, r0
    69c6:	430a      	orrs	r2, r1
    69c8:	d100      	bne.n	69cc <__aeabi_dsub+0x248>
    69ca:	e707      	b.n	67dc <__aeabi_dsub+0x58>
    69cc:	2201      	movs	r2, #1
    69ce:	4252      	negs	r2, r2
    69d0:	4690      	mov	r8, r2
    69d2:	44c4      	add	ip, r8
    69d4:	4662      	mov	r2, ip
    69d6:	2a00      	cmp	r2, #0
    69d8:	d000      	beq.n	69dc <__aeabi_dsub+0x258>
    69da:	e0e6      	b.n	6baa <__aeabi_dsub+0x426>
    69dc:	1869      	adds	r1, r5, r1
    69de:	42a9      	cmp	r1, r5
    69e0:	41b6      	sbcs	r6, r6
    69e2:	183f      	adds	r7, r7, r0
    69e4:	4276      	negs	r6, r6
    69e6:	19f7      	adds	r7, r6, r7
    69e8:	000d      	movs	r5, r1
    69ea:	e7ba      	b.n	6962 <__aeabi_dsub+0x1de>
    69ec:	2e00      	cmp	r6, #0
    69ee:	d000      	beq.n	69f2 <__aeabi_dsub+0x26e>
    69f0:	e080      	b.n	6af4 <__aeabi_dsub+0x370>
    69f2:	1c62      	adds	r2, r4, #1
    69f4:	0552      	lsls	r2, r2, #21
    69f6:	0d52      	lsrs	r2, r2, #21
    69f8:	2a01      	cmp	r2, #1
    69fa:	dc00      	bgt.n	69fe <__aeabi_dsub+0x27a>
    69fc:	e0f9      	b.n	6bf2 <__aeabi_dsub+0x46e>
    69fe:	1a6a      	subs	r2, r5, r1
    6a00:	4691      	mov	r9, r2
    6a02:	454d      	cmp	r5, r9
    6a04:	41b6      	sbcs	r6, r6
    6a06:	1a3a      	subs	r2, r7, r0
    6a08:	4276      	negs	r6, r6
    6a0a:	1b92      	subs	r2, r2, r6
    6a0c:	4690      	mov	r8, r2
    6a0e:	0212      	lsls	r2, r2, #8
    6a10:	d400      	bmi.n	6a14 <__aeabi_dsub+0x290>
    6a12:	e099      	b.n	6b48 <__aeabi_dsub+0x3c4>
    6a14:	1b4d      	subs	r5, r1, r5
    6a16:	42a9      	cmp	r1, r5
    6a18:	4189      	sbcs	r1, r1
    6a1a:	1bc7      	subs	r7, r0, r7
    6a1c:	4249      	negs	r1, r1
    6a1e:	1a7a      	subs	r2, r7, r1
    6a20:	4690      	mov	r8, r2
    6a22:	469a      	mov	sl, r3
    6a24:	e73c      	b.n	68a0 <__aeabi_dsub+0x11c>
    6a26:	4652      	mov	r2, sl
    6a28:	2301      	movs	r3, #1
    6a2a:	2500      	movs	r5, #0
    6a2c:	4013      	ands	r3, r2
    6a2e:	2200      	movs	r2, #0
    6a30:	e6f5      	b.n	681e <__aeabi_dsub+0x9a>
    6a32:	0028      	movs	r0, r5
    6a34:	f000 fbaa 	bl	718c <__clzsi2>
    6a38:	3020      	adds	r0, #32
    6a3a:	0003      	movs	r3, r0
    6a3c:	3b08      	subs	r3, #8
    6a3e:	2b1f      	cmp	r3, #31
    6a40:	dc00      	bgt.n	6a44 <__aeabi_dsub+0x2c0>
    6a42:	e739      	b.n	68b8 <__aeabi_dsub+0x134>
    6a44:	002a      	movs	r2, r5
    6a46:	3828      	subs	r0, #40	; 0x28
    6a48:	4082      	lsls	r2, r0
    6a4a:	2500      	movs	r5, #0
    6a4c:	429c      	cmp	r4, r3
    6a4e:	dc00      	bgt.n	6a52 <__aeabi_dsub+0x2ce>
    6a50:	e73e      	b.n	68d0 <__aeabi_dsub+0x14c>
    6a52:	4f26      	ldr	r7, [pc, #152]	; (6aec <__aeabi_dsub+0x368>)
    6a54:	1ae4      	subs	r4, r4, r3
    6a56:	4017      	ands	r7, r2
    6a58:	e6c0      	b.n	67dc <__aeabi_dsub+0x58>
    6a5a:	4301      	orrs	r1, r0
    6a5c:	1e48      	subs	r0, r1, #1
    6a5e:	4181      	sbcs	r1, r0
    6a60:	2200      	movs	r2, #0
    6a62:	b2c9      	uxtb	r1, r1
    6a64:	e710      	b.n	6888 <__aeabi_dsub+0x104>
    6a66:	2e00      	cmp	r6, #0
    6a68:	d000      	beq.n	6a6c <__aeabi_dsub+0x2e8>
    6a6a:	e0f1      	b.n	6c50 <__aeabi_dsub+0x4cc>
    6a6c:	1c62      	adds	r2, r4, #1
    6a6e:	4694      	mov	ip, r2
    6a70:	0552      	lsls	r2, r2, #21
    6a72:	0d52      	lsrs	r2, r2, #21
    6a74:	2a01      	cmp	r2, #1
    6a76:	dc00      	bgt.n	6a7a <__aeabi_dsub+0x2f6>
    6a78:	e0a0      	b.n	6bbc <__aeabi_dsub+0x438>
    6a7a:	4a1b      	ldr	r2, [pc, #108]	; (6ae8 <__aeabi_dsub+0x364>)
    6a7c:	4594      	cmp	ip, r2
    6a7e:	d100      	bne.n	6a82 <__aeabi_dsub+0x2fe>
    6a80:	e0c5      	b.n	6c0e <__aeabi_dsub+0x48a>
    6a82:	1869      	adds	r1, r5, r1
    6a84:	42a9      	cmp	r1, r5
    6a86:	4192      	sbcs	r2, r2
    6a88:	183f      	adds	r7, r7, r0
    6a8a:	4252      	negs	r2, r2
    6a8c:	19d2      	adds	r2, r2, r7
    6a8e:	0849      	lsrs	r1, r1, #1
    6a90:	07d5      	lsls	r5, r2, #31
    6a92:	430d      	orrs	r5, r1
    6a94:	0857      	lsrs	r7, r2, #1
    6a96:	4664      	mov	r4, ip
    6a98:	e6a0      	b.n	67dc <__aeabi_dsub+0x58>
    6a9a:	4b13      	ldr	r3, [pc, #76]	; (6ae8 <__aeabi_dsub+0x364>)
    6a9c:	429c      	cmp	r4, r3
    6a9e:	d000      	beq.n	6aa2 <__aeabi_dsub+0x31e>
    6aa0:	e6d9      	b.n	6856 <__aeabi_dsub+0xd2>
    6aa2:	e69b      	b.n	67dc <__aeabi_dsub+0x58>
    6aa4:	0011      	movs	r1, r2
    6aa6:	3c1f      	subs	r4, #31
    6aa8:	40e1      	lsrs	r1, r4
    6aaa:	000c      	movs	r4, r1
    6aac:	2b20      	cmp	r3, #32
    6aae:	d100      	bne.n	6ab2 <__aeabi_dsub+0x32e>
    6ab0:	e080      	b.n	6bb4 <__aeabi_dsub+0x430>
    6ab2:	2140      	movs	r1, #64	; 0x40
    6ab4:	1acb      	subs	r3, r1, r3
    6ab6:	409a      	lsls	r2, r3
    6ab8:	4315      	orrs	r5, r2
    6aba:	1e6a      	subs	r2, r5, #1
    6abc:	4195      	sbcs	r5, r2
    6abe:	2700      	movs	r7, #0
    6ac0:	4325      	orrs	r5, r4
    6ac2:	2400      	movs	r4, #0
    6ac4:	e71f      	b.n	6906 <__aeabi_dsub+0x182>
    6ac6:	4663      	mov	r3, ip
    6ac8:	0002      	movs	r2, r0
    6aca:	3b20      	subs	r3, #32
    6acc:	40da      	lsrs	r2, r3
    6ace:	4663      	mov	r3, ip
    6ad0:	2b20      	cmp	r3, #32
    6ad2:	d071      	beq.n	6bb8 <__aeabi_dsub+0x434>
    6ad4:	2340      	movs	r3, #64	; 0x40
    6ad6:	4666      	mov	r6, ip
    6ad8:	1b9b      	subs	r3, r3, r6
    6ada:	4098      	lsls	r0, r3
    6adc:	4301      	orrs	r1, r0
    6ade:	1e48      	subs	r0, r1, #1
    6ae0:	4181      	sbcs	r1, r0
    6ae2:	4311      	orrs	r1, r2
    6ae4:	2200      	movs	r2, #0
    6ae6:	e6cf      	b.n	6888 <__aeabi_dsub+0x104>
    6ae8:	000007ff 	.word	0x000007ff
    6aec:	ff7fffff 	.word	0xff7fffff
    6af0:	800fffff 	.word	0x800fffff
    6af4:	2c00      	cmp	r4, #0
    6af6:	d048      	beq.n	6b8a <__aeabi_dsub+0x406>
    6af8:	4cca      	ldr	r4, [pc, #808]	; (6e24 <__aeabi_dsub+0x6a0>)
    6afa:	42a2      	cmp	r2, r4
    6afc:	d100      	bne.n	6b00 <__aeabi_dsub+0x37c>
    6afe:	e0a2      	b.n	6c46 <__aeabi_dsub+0x4c2>
    6b00:	4274      	negs	r4, r6
    6b02:	46a1      	mov	r9, r4
    6b04:	2480      	movs	r4, #128	; 0x80
    6b06:	0424      	lsls	r4, r4, #16
    6b08:	4327      	orrs	r7, r4
    6b0a:	464c      	mov	r4, r9
    6b0c:	2c38      	cmp	r4, #56	; 0x38
    6b0e:	dd00      	ble.n	6b12 <__aeabi_dsub+0x38e>
    6b10:	e0db      	b.n	6cca <__aeabi_dsub+0x546>
    6b12:	2c1f      	cmp	r4, #31
    6b14:	dd00      	ble.n	6b18 <__aeabi_dsub+0x394>
    6b16:	e144      	b.n	6da2 <__aeabi_dsub+0x61e>
    6b18:	464e      	mov	r6, r9
    6b1a:	2420      	movs	r4, #32
    6b1c:	1ba4      	subs	r4, r4, r6
    6b1e:	003e      	movs	r6, r7
    6b20:	40a6      	lsls	r6, r4
    6b22:	46a2      	mov	sl, r4
    6b24:	46b0      	mov	r8, r6
    6b26:	464c      	mov	r4, r9
    6b28:	002e      	movs	r6, r5
    6b2a:	40e6      	lsrs	r6, r4
    6b2c:	46b4      	mov	ip, r6
    6b2e:	4646      	mov	r6, r8
    6b30:	4664      	mov	r4, ip
    6b32:	4326      	orrs	r6, r4
    6b34:	4654      	mov	r4, sl
    6b36:	40a5      	lsls	r5, r4
    6b38:	1e6c      	subs	r4, r5, #1
    6b3a:	41a5      	sbcs	r5, r4
    6b3c:	0034      	movs	r4, r6
    6b3e:	432c      	orrs	r4, r5
    6b40:	464d      	mov	r5, r9
    6b42:	40ef      	lsrs	r7, r5
    6b44:	1b0d      	subs	r5, r1, r4
    6b46:	e028      	b.n	6b9a <__aeabi_dsub+0x416>
    6b48:	464a      	mov	r2, r9
    6b4a:	4643      	mov	r3, r8
    6b4c:	464d      	mov	r5, r9
    6b4e:	431a      	orrs	r2, r3
    6b50:	d000      	beq.n	6b54 <__aeabi_dsub+0x3d0>
    6b52:	e6a5      	b.n	68a0 <__aeabi_dsub+0x11c>
    6b54:	2300      	movs	r3, #0
    6b56:	2400      	movs	r4, #0
    6b58:	2500      	movs	r5, #0
    6b5a:	e6de      	b.n	691a <__aeabi_dsub+0x196>
    6b5c:	2a1f      	cmp	r2, #31
    6b5e:	dc5a      	bgt.n	6c16 <__aeabi_dsub+0x492>
    6b60:	4666      	mov	r6, ip
    6b62:	2220      	movs	r2, #32
    6b64:	1b92      	subs	r2, r2, r6
    6b66:	0006      	movs	r6, r0
    6b68:	4096      	lsls	r6, r2
    6b6a:	4691      	mov	r9, r2
    6b6c:	46b0      	mov	r8, r6
    6b6e:	4662      	mov	r2, ip
    6b70:	000e      	movs	r6, r1
    6b72:	40d6      	lsrs	r6, r2
    6b74:	4642      	mov	r2, r8
    6b76:	4316      	orrs	r6, r2
    6b78:	464a      	mov	r2, r9
    6b7a:	4091      	lsls	r1, r2
    6b7c:	1e4a      	subs	r2, r1, #1
    6b7e:	4191      	sbcs	r1, r2
    6b80:	0002      	movs	r2, r0
    6b82:	4660      	mov	r0, ip
    6b84:	4331      	orrs	r1, r6
    6b86:	40c2      	lsrs	r2, r0
    6b88:	e6e4      	b.n	6954 <__aeabi_dsub+0x1d0>
    6b8a:	003c      	movs	r4, r7
    6b8c:	432c      	orrs	r4, r5
    6b8e:	d05a      	beq.n	6c46 <__aeabi_dsub+0x4c2>
    6b90:	43f4      	mvns	r4, r6
    6b92:	46a1      	mov	r9, r4
    6b94:	2c00      	cmp	r4, #0
    6b96:	d152      	bne.n	6c3e <__aeabi_dsub+0x4ba>
    6b98:	1b4d      	subs	r5, r1, r5
    6b9a:	42a9      	cmp	r1, r5
    6b9c:	4189      	sbcs	r1, r1
    6b9e:	1bc7      	subs	r7, r0, r7
    6ba0:	4249      	negs	r1, r1
    6ba2:	1a7f      	subs	r7, r7, r1
    6ba4:	0014      	movs	r4, r2
    6ba6:	469a      	mov	sl, r3
    6ba8:	e675      	b.n	6896 <__aeabi_dsub+0x112>
    6baa:	4a9e      	ldr	r2, [pc, #632]	; (6e24 <__aeabi_dsub+0x6a0>)
    6bac:	4294      	cmp	r4, r2
    6bae:	d000      	beq.n	6bb2 <__aeabi_dsub+0x42e>
    6bb0:	e6c7      	b.n	6942 <__aeabi_dsub+0x1be>
    6bb2:	e613      	b.n	67dc <__aeabi_dsub+0x58>
    6bb4:	2200      	movs	r2, #0
    6bb6:	e77f      	b.n	6ab8 <__aeabi_dsub+0x334>
    6bb8:	2000      	movs	r0, #0
    6bba:	e78f      	b.n	6adc <__aeabi_dsub+0x358>
    6bbc:	2c00      	cmp	r4, #0
    6bbe:	d000      	beq.n	6bc2 <__aeabi_dsub+0x43e>
    6bc0:	e0c8      	b.n	6d54 <__aeabi_dsub+0x5d0>
    6bc2:	003b      	movs	r3, r7
    6bc4:	432b      	orrs	r3, r5
    6bc6:	d100      	bne.n	6bca <__aeabi_dsub+0x446>
    6bc8:	e10f      	b.n	6dea <__aeabi_dsub+0x666>
    6bca:	0003      	movs	r3, r0
    6bcc:	430b      	orrs	r3, r1
    6bce:	d100      	bne.n	6bd2 <__aeabi_dsub+0x44e>
    6bd0:	e604      	b.n	67dc <__aeabi_dsub+0x58>
    6bd2:	1869      	adds	r1, r5, r1
    6bd4:	42a9      	cmp	r1, r5
    6bd6:	419b      	sbcs	r3, r3
    6bd8:	183f      	adds	r7, r7, r0
    6bda:	425b      	negs	r3, r3
    6bdc:	19df      	adds	r7, r3, r7
    6bde:	023b      	lsls	r3, r7, #8
    6be0:	d400      	bmi.n	6be4 <__aeabi_dsub+0x460>
    6be2:	e11a      	b.n	6e1a <__aeabi_dsub+0x696>
    6be4:	4b90      	ldr	r3, [pc, #576]	; (6e28 <__aeabi_dsub+0x6a4>)
    6be6:	000d      	movs	r5, r1
    6be8:	401f      	ands	r7, r3
    6bea:	4664      	mov	r4, ip
    6bec:	e5f6      	b.n	67dc <__aeabi_dsub+0x58>
    6bee:	469a      	mov	sl, r3
    6bf0:	e689      	b.n	6906 <__aeabi_dsub+0x182>
    6bf2:	003a      	movs	r2, r7
    6bf4:	432a      	orrs	r2, r5
    6bf6:	2c00      	cmp	r4, #0
    6bf8:	d15c      	bne.n	6cb4 <__aeabi_dsub+0x530>
    6bfa:	2a00      	cmp	r2, #0
    6bfc:	d175      	bne.n	6cea <__aeabi_dsub+0x566>
    6bfe:	0002      	movs	r2, r0
    6c00:	430a      	orrs	r2, r1
    6c02:	d100      	bne.n	6c06 <__aeabi_dsub+0x482>
    6c04:	e0ca      	b.n	6d9c <__aeabi_dsub+0x618>
    6c06:	0007      	movs	r7, r0
    6c08:	000d      	movs	r5, r1
    6c0a:	469a      	mov	sl, r3
    6c0c:	e5e6      	b.n	67dc <__aeabi_dsub+0x58>
    6c0e:	4664      	mov	r4, ip
    6c10:	2200      	movs	r2, #0
    6c12:	2500      	movs	r5, #0
    6c14:	e681      	b.n	691a <__aeabi_dsub+0x196>
    6c16:	4662      	mov	r2, ip
    6c18:	0006      	movs	r6, r0
    6c1a:	3a20      	subs	r2, #32
    6c1c:	40d6      	lsrs	r6, r2
    6c1e:	4662      	mov	r2, ip
    6c20:	46b0      	mov	r8, r6
    6c22:	2a20      	cmp	r2, #32
    6c24:	d100      	bne.n	6c28 <__aeabi_dsub+0x4a4>
    6c26:	e0b7      	b.n	6d98 <__aeabi_dsub+0x614>
    6c28:	2240      	movs	r2, #64	; 0x40
    6c2a:	4666      	mov	r6, ip
    6c2c:	1b92      	subs	r2, r2, r6
    6c2e:	4090      	lsls	r0, r2
    6c30:	4301      	orrs	r1, r0
    6c32:	4642      	mov	r2, r8
    6c34:	1e48      	subs	r0, r1, #1
    6c36:	4181      	sbcs	r1, r0
    6c38:	4311      	orrs	r1, r2
    6c3a:	2200      	movs	r2, #0
    6c3c:	e68a      	b.n	6954 <__aeabi_dsub+0x1d0>
    6c3e:	4c79      	ldr	r4, [pc, #484]	; (6e24 <__aeabi_dsub+0x6a0>)
    6c40:	42a2      	cmp	r2, r4
    6c42:	d000      	beq.n	6c46 <__aeabi_dsub+0x4c2>
    6c44:	e761      	b.n	6b0a <__aeabi_dsub+0x386>
    6c46:	0007      	movs	r7, r0
    6c48:	000d      	movs	r5, r1
    6c4a:	0014      	movs	r4, r2
    6c4c:	469a      	mov	sl, r3
    6c4e:	e5c5      	b.n	67dc <__aeabi_dsub+0x58>
    6c50:	2c00      	cmp	r4, #0
    6c52:	d141      	bne.n	6cd8 <__aeabi_dsub+0x554>
    6c54:	003c      	movs	r4, r7
    6c56:	432c      	orrs	r4, r5
    6c58:	d078      	beq.n	6d4c <__aeabi_dsub+0x5c8>
    6c5a:	43f4      	mvns	r4, r6
    6c5c:	46a1      	mov	r9, r4
    6c5e:	2c00      	cmp	r4, #0
    6c60:	d020      	beq.n	6ca4 <__aeabi_dsub+0x520>
    6c62:	4c70      	ldr	r4, [pc, #448]	; (6e24 <__aeabi_dsub+0x6a0>)
    6c64:	42a2      	cmp	r2, r4
    6c66:	d071      	beq.n	6d4c <__aeabi_dsub+0x5c8>
    6c68:	464c      	mov	r4, r9
    6c6a:	2c38      	cmp	r4, #56	; 0x38
    6c6c:	dd00      	ble.n	6c70 <__aeabi_dsub+0x4ec>
    6c6e:	e0b2      	b.n	6dd6 <__aeabi_dsub+0x652>
    6c70:	2c1f      	cmp	r4, #31
    6c72:	dd00      	ble.n	6c76 <__aeabi_dsub+0x4f2>
    6c74:	e0bc      	b.n	6df0 <__aeabi_dsub+0x66c>
    6c76:	2620      	movs	r6, #32
    6c78:	1b34      	subs	r4, r6, r4
    6c7a:	46a2      	mov	sl, r4
    6c7c:	003c      	movs	r4, r7
    6c7e:	4656      	mov	r6, sl
    6c80:	40b4      	lsls	r4, r6
    6c82:	464e      	mov	r6, r9
    6c84:	46a0      	mov	r8, r4
    6c86:	002c      	movs	r4, r5
    6c88:	40f4      	lsrs	r4, r6
    6c8a:	46a4      	mov	ip, r4
    6c8c:	4644      	mov	r4, r8
    6c8e:	4666      	mov	r6, ip
    6c90:	4334      	orrs	r4, r6
    6c92:	46a4      	mov	ip, r4
    6c94:	4654      	mov	r4, sl
    6c96:	40a5      	lsls	r5, r4
    6c98:	4664      	mov	r4, ip
    6c9a:	1e6e      	subs	r6, r5, #1
    6c9c:	41b5      	sbcs	r5, r6
    6c9e:	4325      	orrs	r5, r4
    6ca0:	464c      	mov	r4, r9
    6ca2:	40e7      	lsrs	r7, r4
    6ca4:	186d      	adds	r5, r5, r1
    6ca6:	428d      	cmp	r5, r1
    6ca8:	4189      	sbcs	r1, r1
    6caa:	183f      	adds	r7, r7, r0
    6cac:	4249      	negs	r1, r1
    6cae:	19cf      	adds	r7, r1, r7
    6cb0:	0014      	movs	r4, r2
    6cb2:	e656      	b.n	6962 <__aeabi_dsub+0x1de>
    6cb4:	2a00      	cmp	r2, #0
    6cb6:	d12f      	bne.n	6d18 <__aeabi_dsub+0x594>
    6cb8:	0002      	movs	r2, r0
    6cba:	430a      	orrs	r2, r1
    6cbc:	d100      	bne.n	6cc0 <__aeabi_dsub+0x53c>
    6cbe:	e084      	b.n	6dca <__aeabi_dsub+0x646>
    6cc0:	0007      	movs	r7, r0
    6cc2:	000d      	movs	r5, r1
    6cc4:	469a      	mov	sl, r3
    6cc6:	4c57      	ldr	r4, [pc, #348]	; (6e24 <__aeabi_dsub+0x6a0>)
    6cc8:	e588      	b.n	67dc <__aeabi_dsub+0x58>
    6cca:	433d      	orrs	r5, r7
    6ccc:	1e6f      	subs	r7, r5, #1
    6cce:	41bd      	sbcs	r5, r7
    6cd0:	b2ec      	uxtb	r4, r5
    6cd2:	2700      	movs	r7, #0
    6cd4:	1b0d      	subs	r5, r1, r4
    6cd6:	e760      	b.n	6b9a <__aeabi_dsub+0x416>
    6cd8:	4c52      	ldr	r4, [pc, #328]	; (6e24 <__aeabi_dsub+0x6a0>)
    6cda:	42a2      	cmp	r2, r4
    6cdc:	d036      	beq.n	6d4c <__aeabi_dsub+0x5c8>
    6cde:	4274      	negs	r4, r6
    6ce0:	2680      	movs	r6, #128	; 0x80
    6ce2:	0436      	lsls	r6, r6, #16
    6ce4:	46a1      	mov	r9, r4
    6ce6:	4337      	orrs	r7, r6
    6ce8:	e7be      	b.n	6c68 <__aeabi_dsub+0x4e4>
    6cea:	0002      	movs	r2, r0
    6cec:	430a      	orrs	r2, r1
    6cee:	d100      	bne.n	6cf2 <__aeabi_dsub+0x56e>
    6cf0:	e574      	b.n	67dc <__aeabi_dsub+0x58>
    6cf2:	1a6a      	subs	r2, r5, r1
    6cf4:	4690      	mov	r8, r2
    6cf6:	4545      	cmp	r5, r8
    6cf8:	41b6      	sbcs	r6, r6
    6cfa:	1a3a      	subs	r2, r7, r0
    6cfc:	4276      	negs	r6, r6
    6cfe:	1b92      	subs	r2, r2, r6
    6d00:	4694      	mov	ip, r2
    6d02:	0212      	lsls	r2, r2, #8
    6d04:	d400      	bmi.n	6d08 <__aeabi_dsub+0x584>
    6d06:	e5f7      	b.n	68f8 <__aeabi_dsub+0x174>
    6d08:	1b4d      	subs	r5, r1, r5
    6d0a:	42a9      	cmp	r1, r5
    6d0c:	4189      	sbcs	r1, r1
    6d0e:	1bc7      	subs	r7, r0, r7
    6d10:	4249      	negs	r1, r1
    6d12:	1a7f      	subs	r7, r7, r1
    6d14:	469a      	mov	sl, r3
    6d16:	e561      	b.n	67dc <__aeabi_dsub+0x58>
    6d18:	0002      	movs	r2, r0
    6d1a:	430a      	orrs	r2, r1
    6d1c:	d03a      	beq.n	6d94 <__aeabi_dsub+0x610>
    6d1e:	08ed      	lsrs	r5, r5, #3
    6d20:	077c      	lsls	r4, r7, #29
    6d22:	432c      	orrs	r4, r5
    6d24:	2580      	movs	r5, #128	; 0x80
    6d26:	08fa      	lsrs	r2, r7, #3
    6d28:	032d      	lsls	r5, r5, #12
    6d2a:	422a      	tst	r2, r5
    6d2c:	d008      	beq.n	6d40 <__aeabi_dsub+0x5bc>
    6d2e:	08c7      	lsrs	r7, r0, #3
    6d30:	422f      	tst	r7, r5
    6d32:	d105      	bne.n	6d40 <__aeabi_dsub+0x5bc>
    6d34:	0745      	lsls	r5, r0, #29
    6d36:	002c      	movs	r4, r5
    6d38:	003a      	movs	r2, r7
    6d3a:	469a      	mov	sl, r3
    6d3c:	08c9      	lsrs	r1, r1, #3
    6d3e:	430c      	orrs	r4, r1
    6d40:	0f67      	lsrs	r7, r4, #29
    6d42:	00d2      	lsls	r2, r2, #3
    6d44:	00e5      	lsls	r5, r4, #3
    6d46:	4317      	orrs	r7, r2
    6d48:	4c36      	ldr	r4, [pc, #216]	; (6e24 <__aeabi_dsub+0x6a0>)
    6d4a:	e547      	b.n	67dc <__aeabi_dsub+0x58>
    6d4c:	0007      	movs	r7, r0
    6d4e:	000d      	movs	r5, r1
    6d50:	0014      	movs	r4, r2
    6d52:	e543      	b.n	67dc <__aeabi_dsub+0x58>
    6d54:	003a      	movs	r2, r7
    6d56:	432a      	orrs	r2, r5
    6d58:	d043      	beq.n	6de2 <__aeabi_dsub+0x65e>
    6d5a:	0002      	movs	r2, r0
    6d5c:	430a      	orrs	r2, r1
    6d5e:	d019      	beq.n	6d94 <__aeabi_dsub+0x610>
    6d60:	08ed      	lsrs	r5, r5, #3
    6d62:	077c      	lsls	r4, r7, #29
    6d64:	432c      	orrs	r4, r5
    6d66:	2580      	movs	r5, #128	; 0x80
    6d68:	08fa      	lsrs	r2, r7, #3
    6d6a:	032d      	lsls	r5, r5, #12
    6d6c:	422a      	tst	r2, r5
    6d6e:	d007      	beq.n	6d80 <__aeabi_dsub+0x5fc>
    6d70:	08c6      	lsrs	r6, r0, #3
    6d72:	422e      	tst	r6, r5
    6d74:	d104      	bne.n	6d80 <__aeabi_dsub+0x5fc>
    6d76:	0747      	lsls	r7, r0, #29
    6d78:	003c      	movs	r4, r7
    6d7a:	0032      	movs	r2, r6
    6d7c:	08c9      	lsrs	r1, r1, #3
    6d7e:	430c      	orrs	r4, r1
    6d80:	00d7      	lsls	r7, r2, #3
    6d82:	0f62      	lsrs	r2, r4, #29
    6d84:	00e5      	lsls	r5, r4, #3
    6d86:	4317      	orrs	r7, r2
    6d88:	469a      	mov	sl, r3
    6d8a:	4c26      	ldr	r4, [pc, #152]	; (6e24 <__aeabi_dsub+0x6a0>)
    6d8c:	e526      	b.n	67dc <__aeabi_dsub+0x58>
    6d8e:	2200      	movs	r2, #0
    6d90:	2500      	movs	r5, #0
    6d92:	e544      	b.n	681e <__aeabi_dsub+0x9a>
    6d94:	4c23      	ldr	r4, [pc, #140]	; (6e24 <__aeabi_dsub+0x6a0>)
    6d96:	e521      	b.n	67dc <__aeabi_dsub+0x58>
    6d98:	2000      	movs	r0, #0
    6d9a:	e749      	b.n	6c30 <__aeabi_dsub+0x4ac>
    6d9c:	2300      	movs	r3, #0
    6d9e:	2500      	movs	r5, #0
    6da0:	e5bb      	b.n	691a <__aeabi_dsub+0x196>
    6da2:	464c      	mov	r4, r9
    6da4:	003e      	movs	r6, r7
    6da6:	3c20      	subs	r4, #32
    6da8:	40e6      	lsrs	r6, r4
    6daa:	464c      	mov	r4, r9
    6dac:	46b4      	mov	ip, r6
    6dae:	2c20      	cmp	r4, #32
    6db0:	d031      	beq.n	6e16 <__aeabi_dsub+0x692>
    6db2:	2440      	movs	r4, #64	; 0x40
    6db4:	464e      	mov	r6, r9
    6db6:	1ba6      	subs	r6, r4, r6
    6db8:	40b7      	lsls	r7, r6
    6dba:	433d      	orrs	r5, r7
    6dbc:	1e6c      	subs	r4, r5, #1
    6dbe:	41a5      	sbcs	r5, r4
    6dc0:	4664      	mov	r4, ip
    6dc2:	432c      	orrs	r4, r5
    6dc4:	2700      	movs	r7, #0
    6dc6:	1b0d      	subs	r5, r1, r4
    6dc8:	e6e7      	b.n	6b9a <__aeabi_dsub+0x416>
    6dca:	2280      	movs	r2, #128	; 0x80
    6dcc:	2300      	movs	r3, #0
    6dce:	0312      	lsls	r2, r2, #12
    6dd0:	4c14      	ldr	r4, [pc, #80]	; (6e24 <__aeabi_dsub+0x6a0>)
    6dd2:	2500      	movs	r5, #0
    6dd4:	e5a1      	b.n	691a <__aeabi_dsub+0x196>
    6dd6:	433d      	orrs	r5, r7
    6dd8:	1e6f      	subs	r7, r5, #1
    6dda:	41bd      	sbcs	r5, r7
    6ddc:	2700      	movs	r7, #0
    6dde:	b2ed      	uxtb	r5, r5
    6de0:	e760      	b.n	6ca4 <__aeabi_dsub+0x520>
    6de2:	0007      	movs	r7, r0
    6de4:	000d      	movs	r5, r1
    6de6:	4c0f      	ldr	r4, [pc, #60]	; (6e24 <__aeabi_dsub+0x6a0>)
    6de8:	e4f8      	b.n	67dc <__aeabi_dsub+0x58>
    6dea:	0007      	movs	r7, r0
    6dec:	000d      	movs	r5, r1
    6dee:	e4f5      	b.n	67dc <__aeabi_dsub+0x58>
    6df0:	464e      	mov	r6, r9
    6df2:	003c      	movs	r4, r7
    6df4:	3e20      	subs	r6, #32
    6df6:	40f4      	lsrs	r4, r6
    6df8:	46a0      	mov	r8, r4
    6dfa:	464c      	mov	r4, r9
    6dfc:	2c20      	cmp	r4, #32
    6dfe:	d00e      	beq.n	6e1e <__aeabi_dsub+0x69a>
    6e00:	2440      	movs	r4, #64	; 0x40
    6e02:	464e      	mov	r6, r9
    6e04:	1ba4      	subs	r4, r4, r6
    6e06:	40a7      	lsls	r7, r4
    6e08:	433d      	orrs	r5, r7
    6e0a:	1e6f      	subs	r7, r5, #1
    6e0c:	41bd      	sbcs	r5, r7
    6e0e:	4644      	mov	r4, r8
    6e10:	2700      	movs	r7, #0
    6e12:	4325      	orrs	r5, r4
    6e14:	e746      	b.n	6ca4 <__aeabi_dsub+0x520>
    6e16:	2700      	movs	r7, #0
    6e18:	e7cf      	b.n	6dba <__aeabi_dsub+0x636>
    6e1a:	000d      	movs	r5, r1
    6e1c:	e573      	b.n	6906 <__aeabi_dsub+0x182>
    6e1e:	2700      	movs	r7, #0
    6e20:	e7f2      	b.n	6e08 <__aeabi_dsub+0x684>
    6e22:	46c0      	nop			; (mov r8, r8)
    6e24:	000007ff 	.word	0x000007ff
    6e28:	ff7fffff 	.word	0xff7fffff

00006e2c <__aeabi_dcmpun>:
    6e2c:	b570      	push	{r4, r5, r6, lr}
    6e2e:	4e0e      	ldr	r6, [pc, #56]	; (6e68 <__aeabi_dcmpun+0x3c>)
    6e30:	030c      	lsls	r4, r1, #12
    6e32:	031d      	lsls	r5, r3, #12
    6e34:	0049      	lsls	r1, r1, #1
    6e36:	005b      	lsls	r3, r3, #1
    6e38:	0b24      	lsrs	r4, r4, #12
    6e3a:	0d49      	lsrs	r1, r1, #21
    6e3c:	0b2d      	lsrs	r5, r5, #12
    6e3e:	0d5b      	lsrs	r3, r3, #21
    6e40:	42b1      	cmp	r1, r6
    6e42:	d004      	beq.n	6e4e <__aeabi_dcmpun+0x22>
    6e44:	4908      	ldr	r1, [pc, #32]	; (6e68 <__aeabi_dcmpun+0x3c>)
    6e46:	2000      	movs	r0, #0
    6e48:	428b      	cmp	r3, r1
    6e4a:	d008      	beq.n	6e5e <__aeabi_dcmpun+0x32>
    6e4c:	bd70      	pop	{r4, r5, r6, pc}
    6e4e:	4304      	orrs	r4, r0
    6e50:	2001      	movs	r0, #1
    6e52:	2c00      	cmp	r4, #0
    6e54:	d1fa      	bne.n	6e4c <__aeabi_dcmpun+0x20>
    6e56:	4904      	ldr	r1, [pc, #16]	; (6e68 <__aeabi_dcmpun+0x3c>)
    6e58:	2000      	movs	r0, #0
    6e5a:	428b      	cmp	r3, r1
    6e5c:	d1f6      	bne.n	6e4c <__aeabi_dcmpun+0x20>
    6e5e:	4315      	orrs	r5, r2
    6e60:	0028      	movs	r0, r5
    6e62:	1e45      	subs	r5, r0, #1
    6e64:	41a8      	sbcs	r0, r5
    6e66:	e7f1      	b.n	6e4c <__aeabi_dcmpun+0x20>
    6e68:	000007ff 	.word	0x000007ff

00006e6c <__aeabi_d2iz>:
    6e6c:	030b      	lsls	r3, r1, #12
    6e6e:	b530      	push	{r4, r5, lr}
    6e70:	4d13      	ldr	r5, [pc, #76]	; (6ec0 <__aeabi_d2iz+0x54>)
    6e72:	0b1a      	lsrs	r2, r3, #12
    6e74:	004b      	lsls	r3, r1, #1
    6e76:	0d5b      	lsrs	r3, r3, #21
    6e78:	0fc9      	lsrs	r1, r1, #31
    6e7a:	2400      	movs	r4, #0
    6e7c:	42ab      	cmp	r3, r5
    6e7e:	dd11      	ble.n	6ea4 <__aeabi_d2iz+0x38>
    6e80:	4c10      	ldr	r4, [pc, #64]	; (6ec4 <__aeabi_d2iz+0x58>)
    6e82:	42a3      	cmp	r3, r4
    6e84:	dc10      	bgt.n	6ea8 <__aeabi_d2iz+0x3c>
    6e86:	2480      	movs	r4, #128	; 0x80
    6e88:	0364      	lsls	r4, r4, #13
    6e8a:	4322      	orrs	r2, r4
    6e8c:	4c0e      	ldr	r4, [pc, #56]	; (6ec8 <__aeabi_d2iz+0x5c>)
    6e8e:	1ae4      	subs	r4, r4, r3
    6e90:	2c1f      	cmp	r4, #31
    6e92:	dd0c      	ble.n	6eae <__aeabi_d2iz+0x42>
    6e94:	480d      	ldr	r0, [pc, #52]	; (6ecc <__aeabi_d2iz+0x60>)
    6e96:	1ac3      	subs	r3, r0, r3
    6e98:	40da      	lsrs	r2, r3
    6e9a:	0013      	movs	r3, r2
    6e9c:	425c      	negs	r4, r3
    6e9e:	2900      	cmp	r1, #0
    6ea0:	d100      	bne.n	6ea4 <__aeabi_d2iz+0x38>
    6ea2:	001c      	movs	r4, r3
    6ea4:	0020      	movs	r0, r4
    6ea6:	bd30      	pop	{r4, r5, pc}
    6ea8:	4b09      	ldr	r3, [pc, #36]	; (6ed0 <__aeabi_d2iz+0x64>)
    6eaa:	18cc      	adds	r4, r1, r3
    6eac:	e7fa      	b.n	6ea4 <__aeabi_d2iz+0x38>
    6eae:	40e0      	lsrs	r0, r4
    6eb0:	4c08      	ldr	r4, [pc, #32]	; (6ed4 <__aeabi_d2iz+0x68>)
    6eb2:	46a4      	mov	ip, r4
    6eb4:	4463      	add	r3, ip
    6eb6:	409a      	lsls	r2, r3
    6eb8:	0013      	movs	r3, r2
    6eba:	4303      	orrs	r3, r0
    6ebc:	e7ee      	b.n	6e9c <__aeabi_d2iz+0x30>
    6ebe:	46c0      	nop			; (mov r8, r8)
    6ec0:	000003fe 	.word	0x000003fe
    6ec4:	0000041d 	.word	0x0000041d
    6ec8:	00000433 	.word	0x00000433
    6ecc:	00000413 	.word	0x00000413
    6ed0:	7fffffff 	.word	0x7fffffff
    6ed4:	fffffbed 	.word	0xfffffbed

00006ed8 <__aeabi_i2d>:
    6ed8:	b570      	push	{r4, r5, r6, lr}
    6eda:	2800      	cmp	r0, #0
    6edc:	d030      	beq.n	6f40 <__aeabi_i2d+0x68>
    6ede:	17c3      	asrs	r3, r0, #31
    6ee0:	18c4      	adds	r4, r0, r3
    6ee2:	405c      	eors	r4, r3
    6ee4:	0fc5      	lsrs	r5, r0, #31
    6ee6:	0020      	movs	r0, r4
    6ee8:	f000 f950 	bl	718c <__clzsi2>
    6eec:	4b17      	ldr	r3, [pc, #92]	; (6f4c <__aeabi_i2d+0x74>)
    6eee:	4a18      	ldr	r2, [pc, #96]	; (6f50 <__aeabi_i2d+0x78>)
    6ef0:	1a1b      	subs	r3, r3, r0
    6ef2:	1ad2      	subs	r2, r2, r3
    6ef4:	2a1f      	cmp	r2, #31
    6ef6:	dd18      	ble.n	6f2a <__aeabi_i2d+0x52>
    6ef8:	4a16      	ldr	r2, [pc, #88]	; (6f54 <__aeabi_i2d+0x7c>)
    6efa:	1ad2      	subs	r2, r2, r3
    6efc:	4094      	lsls	r4, r2
    6efe:	2200      	movs	r2, #0
    6f00:	0324      	lsls	r4, r4, #12
    6f02:	055b      	lsls	r3, r3, #21
    6f04:	0b24      	lsrs	r4, r4, #12
    6f06:	0d5b      	lsrs	r3, r3, #21
    6f08:	2100      	movs	r1, #0
    6f0a:	0010      	movs	r0, r2
    6f0c:	0324      	lsls	r4, r4, #12
    6f0e:	0d0a      	lsrs	r2, r1, #20
    6f10:	0512      	lsls	r2, r2, #20
    6f12:	0b24      	lsrs	r4, r4, #12
    6f14:	4314      	orrs	r4, r2
    6f16:	4a10      	ldr	r2, [pc, #64]	; (6f58 <__aeabi_i2d+0x80>)
    6f18:	051b      	lsls	r3, r3, #20
    6f1a:	4014      	ands	r4, r2
    6f1c:	431c      	orrs	r4, r3
    6f1e:	0064      	lsls	r4, r4, #1
    6f20:	07ed      	lsls	r5, r5, #31
    6f22:	0864      	lsrs	r4, r4, #1
    6f24:	432c      	orrs	r4, r5
    6f26:	0021      	movs	r1, r4
    6f28:	bd70      	pop	{r4, r5, r6, pc}
    6f2a:	0021      	movs	r1, r4
    6f2c:	4091      	lsls	r1, r2
    6f2e:	000a      	movs	r2, r1
    6f30:	210b      	movs	r1, #11
    6f32:	1a08      	subs	r0, r1, r0
    6f34:	40c4      	lsrs	r4, r0
    6f36:	055b      	lsls	r3, r3, #21
    6f38:	0324      	lsls	r4, r4, #12
    6f3a:	0b24      	lsrs	r4, r4, #12
    6f3c:	0d5b      	lsrs	r3, r3, #21
    6f3e:	e7e3      	b.n	6f08 <__aeabi_i2d+0x30>
    6f40:	2500      	movs	r5, #0
    6f42:	2300      	movs	r3, #0
    6f44:	2400      	movs	r4, #0
    6f46:	2200      	movs	r2, #0
    6f48:	e7de      	b.n	6f08 <__aeabi_i2d+0x30>
    6f4a:	46c0      	nop			; (mov r8, r8)
    6f4c:	0000041e 	.word	0x0000041e
    6f50:	00000433 	.word	0x00000433
    6f54:	00000413 	.word	0x00000413
    6f58:	800fffff 	.word	0x800fffff

00006f5c <__aeabi_ui2d>:
    6f5c:	b570      	push	{r4, r5, r6, lr}
    6f5e:	1e05      	subs	r5, r0, #0
    6f60:	d028      	beq.n	6fb4 <__aeabi_ui2d+0x58>
    6f62:	f000 f913 	bl	718c <__clzsi2>
    6f66:	4b15      	ldr	r3, [pc, #84]	; (6fbc <__aeabi_ui2d+0x60>)
    6f68:	4a15      	ldr	r2, [pc, #84]	; (6fc0 <__aeabi_ui2d+0x64>)
    6f6a:	1a1b      	subs	r3, r3, r0
    6f6c:	1ad2      	subs	r2, r2, r3
    6f6e:	2a1f      	cmp	r2, #31
    6f70:	dd16      	ble.n	6fa0 <__aeabi_ui2d+0x44>
    6f72:	002c      	movs	r4, r5
    6f74:	4a13      	ldr	r2, [pc, #76]	; (6fc4 <__aeabi_ui2d+0x68>)
    6f76:	2500      	movs	r5, #0
    6f78:	1ad2      	subs	r2, r2, r3
    6f7a:	4094      	lsls	r4, r2
    6f7c:	055a      	lsls	r2, r3, #21
    6f7e:	0324      	lsls	r4, r4, #12
    6f80:	0b24      	lsrs	r4, r4, #12
    6f82:	0d52      	lsrs	r2, r2, #21
    6f84:	2100      	movs	r1, #0
    6f86:	0324      	lsls	r4, r4, #12
    6f88:	0d0b      	lsrs	r3, r1, #20
    6f8a:	0b24      	lsrs	r4, r4, #12
    6f8c:	051b      	lsls	r3, r3, #20
    6f8e:	4323      	orrs	r3, r4
    6f90:	4c0d      	ldr	r4, [pc, #52]	; (6fc8 <__aeabi_ui2d+0x6c>)
    6f92:	0512      	lsls	r2, r2, #20
    6f94:	4023      	ands	r3, r4
    6f96:	4313      	orrs	r3, r2
    6f98:	005b      	lsls	r3, r3, #1
    6f9a:	0028      	movs	r0, r5
    6f9c:	0859      	lsrs	r1, r3, #1
    6f9e:	bd70      	pop	{r4, r5, r6, pc}
    6fa0:	210b      	movs	r1, #11
    6fa2:	002c      	movs	r4, r5
    6fa4:	1a08      	subs	r0, r1, r0
    6fa6:	40c4      	lsrs	r4, r0
    6fa8:	4095      	lsls	r5, r2
    6faa:	0324      	lsls	r4, r4, #12
    6fac:	055a      	lsls	r2, r3, #21
    6fae:	0b24      	lsrs	r4, r4, #12
    6fb0:	0d52      	lsrs	r2, r2, #21
    6fb2:	e7e7      	b.n	6f84 <__aeabi_ui2d+0x28>
    6fb4:	2200      	movs	r2, #0
    6fb6:	2400      	movs	r4, #0
    6fb8:	e7e4      	b.n	6f84 <__aeabi_ui2d+0x28>
    6fba:	46c0      	nop			; (mov r8, r8)
    6fbc:	0000041e 	.word	0x0000041e
    6fc0:	00000433 	.word	0x00000433
    6fc4:	00000413 	.word	0x00000413
    6fc8:	800fffff 	.word	0x800fffff

00006fcc <__aeabi_f2d>:
    6fcc:	0042      	lsls	r2, r0, #1
    6fce:	0e12      	lsrs	r2, r2, #24
    6fd0:	1c51      	adds	r1, r2, #1
    6fd2:	0243      	lsls	r3, r0, #9
    6fd4:	b2c9      	uxtb	r1, r1
    6fd6:	b570      	push	{r4, r5, r6, lr}
    6fd8:	0a5d      	lsrs	r5, r3, #9
    6fda:	0fc4      	lsrs	r4, r0, #31
    6fdc:	2901      	cmp	r1, #1
    6fde:	dd15      	ble.n	700c <__aeabi_f2d+0x40>
    6fe0:	21e0      	movs	r1, #224	; 0xe0
    6fe2:	0089      	lsls	r1, r1, #2
    6fe4:	468c      	mov	ip, r1
    6fe6:	076d      	lsls	r5, r5, #29
    6fe8:	0b1b      	lsrs	r3, r3, #12
    6fea:	4462      	add	r2, ip
    6fec:	2100      	movs	r1, #0
    6fee:	0028      	movs	r0, r5
    6ff0:	0d0d      	lsrs	r5, r1, #20
    6ff2:	052d      	lsls	r5, r5, #20
    6ff4:	432b      	orrs	r3, r5
    6ff6:	4d1c      	ldr	r5, [pc, #112]	; (7068 <__aeabi_f2d+0x9c>)
    6ff8:	0552      	lsls	r2, r2, #21
    6ffa:	402b      	ands	r3, r5
    6ffc:	0852      	lsrs	r2, r2, #1
    6ffe:	4313      	orrs	r3, r2
    7000:	005b      	lsls	r3, r3, #1
    7002:	07e4      	lsls	r4, r4, #31
    7004:	085b      	lsrs	r3, r3, #1
    7006:	4323      	orrs	r3, r4
    7008:	0019      	movs	r1, r3
    700a:	bd70      	pop	{r4, r5, r6, pc}
    700c:	2a00      	cmp	r2, #0
    700e:	d115      	bne.n	703c <__aeabi_f2d+0x70>
    7010:	2d00      	cmp	r5, #0
    7012:	d01f      	beq.n	7054 <__aeabi_f2d+0x88>
    7014:	0028      	movs	r0, r5
    7016:	f000 f8b9 	bl	718c <__clzsi2>
    701a:	280a      	cmp	r0, #10
    701c:	dc1d      	bgt.n	705a <__aeabi_f2d+0x8e>
    701e:	230b      	movs	r3, #11
    7020:	002a      	movs	r2, r5
    7022:	1a1b      	subs	r3, r3, r0
    7024:	40da      	lsrs	r2, r3
    7026:	0013      	movs	r3, r2
    7028:	0002      	movs	r2, r0
    702a:	3215      	adds	r2, #21
    702c:	4095      	lsls	r5, r2
    702e:	4a0f      	ldr	r2, [pc, #60]	; (706c <__aeabi_f2d+0xa0>)
    7030:	031b      	lsls	r3, r3, #12
    7032:	1a12      	subs	r2, r2, r0
    7034:	0552      	lsls	r2, r2, #21
    7036:	0b1b      	lsrs	r3, r3, #12
    7038:	0d52      	lsrs	r2, r2, #21
    703a:	e7d7      	b.n	6fec <__aeabi_f2d+0x20>
    703c:	2d00      	cmp	r5, #0
    703e:	d006      	beq.n	704e <__aeabi_f2d+0x82>
    7040:	2280      	movs	r2, #128	; 0x80
    7042:	0b1b      	lsrs	r3, r3, #12
    7044:	0312      	lsls	r2, r2, #12
    7046:	4313      	orrs	r3, r2
    7048:	076d      	lsls	r5, r5, #29
    704a:	4a09      	ldr	r2, [pc, #36]	; (7070 <__aeabi_f2d+0xa4>)
    704c:	e7ce      	b.n	6fec <__aeabi_f2d+0x20>
    704e:	4a08      	ldr	r2, [pc, #32]	; (7070 <__aeabi_f2d+0xa4>)
    7050:	2300      	movs	r3, #0
    7052:	e7cb      	b.n	6fec <__aeabi_f2d+0x20>
    7054:	2200      	movs	r2, #0
    7056:	2300      	movs	r3, #0
    7058:	e7c8      	b.n	6fec <__aeabi_f2d+0x20>
    705a:	0003      	movs	r3, r0
    705c:	3b0b      	subs	r3, #11
    705e:	409d      	lsls	r5, r3
    7060:	002b      	movs	r3, r5
    7062:	2500      	movs	r5, #0
    7064:	e7e3      	b.n	702e <__aeabi_f2d+0x62>
    7066:	46c0      	nop			; (mov r8, r8)
    7068:	800fffff 	.word	0x800fffff
    706c:	00000389 	.word	0x00000389
    7070:	000007ff 	.word	0x000007ff

00007074 <__aeabi_d2f>:
    7074:	004b      	lsls	r3, r1, #1
    7076:	b570      	push	{r4, r5, r6, lr}
    7078:	0d5e      	lsrs	r6, r3, #21
    707a:	030c      	lsls	r4, r1, #12
    707c:	1c75      	adds	r5, r6, #1
    707e:	0a64      	lsrs	r4, r4, #9
    7080:	0f42      	lsrs	r2, r0, #29
    7082:	056d      	lsls	r5, r5, #21
    7084:	4322      	orrs	r2, r4
    7086:	0fc9      	lsrs	r1, r1, #31
    7088:	00c4      	lsls	r4, r0, #3
    708a:	0d6d      	lsrs	r5, r5, #21
    708c:	2d01      	cmp	r5, #1
    708e:	dd2a      	ble.n	70e6 <__aeabi_d2f+0x72>
    7090:	4b3b      	ldr	r3, [pc, #236]	; (7180 <__aeabi_d2f+0x10c>)
    7092:	18f3      	adds	r3, r6, r3
    7094:	2bfe      	cmp	r3, #254	; 0xfe
    7096:	dc1a      	bgt.n	70ce <__aeabi_d2f+0x5a>
    7098:	2b00      	cmp	r3, #0
    709a:	dd42      	ble.n	7122 <__aeabi_d2f+0xae>
    709c:	0180      	lsls	r0, r0, #6
    709e:	1e45      	subs	r5, r0, #1
    70a0:	41a8      	sbcs	r0, r5
    70a2:	00d2      	lsls	r2, r2, #3
    70a4:	4310      	orrs	r0, r2
    70a6:	0f62      	lsrs	r2, r4, #29
    70a8:	4302      	orrs	r2, r0
    70aa:	0750      	lsls	r0, r2, #29
    70ac:	d004      	beq.n	70b8 <__aeabi_d2f+0x44>
    70ae:	200f      	movs	r0, #15
    70b0:	4010      	ands	r0, r2
    70b2:	2804      	cmp	r0, #4
    70b4:	d000      	beq.n	70b8 <__aeabi_d2f+0x44>
    70b6:	3204      	adds	r2, #4
    70b8:	2080      	movs	r0, #128	; 0x80
    70ba:	04c0      	lsls	r0, r0, #19
    70bc:	4010      	ands	r0, r2
    70be:	d021      	beq.n	7104 <__aeabi_d2f+0x90>
    70c0:	3301      	adds	r3, #1
    70c2:	2bff      	cmp	r3, #255	; 0xff
    70c4:	d003      	beq.n	70ce <__aeabi_d2f+0x5a>
    70c6:	0192      	lsls	r2, r2, #6
    70c8:	0a52      	lsrs	r2, r2, #9
    70ca:	b2db      	uxtb	r3, r3
    70cc:	e001      	b.n	70d2 <__aeabi_d2f+0x5e>
    70ce:	23ff      	movs	r3, #255	; 0xff
    70d0:	2200      	movs	r2, #0
    70d2:	0252      	lsls	r2, r2, #9
    70d4:	0a52      	lsrs	r2, r2, #9
    70d6:	05db      	lsls	r3, r3, #23
    70d8:	4313      	orrs	r3, r2
    70da:	005b      	lsls	r3, r3, #1
    70dc:	07c9      	lsls	r1, r1, #31
    70de:	085b      	lsrs	r3, r3, #1
    70e0:	430b      	orrs	r3, r1
    70e2:	0018      	movs	r0, r3
    70e4:	bd70      	pop	{r4, r5, r6, pc}
    70e6:	2e00      	cmp	r6, #0
    70e8:	d007      	beq.n	70fa <__aeabi_d2f+0x86>
    70ea:	4314      	orrs	r4, r2
    70ec:	d0ef      	beq.n	70ce <__aeabi_d2f+0x5a>
    70ee:	2080      	movs	r0, #128	; 0x80
    70f0:	00d2      	lsls	r2, r2, #3
    70f2:	0480      	lsls	r0, r0, #18
    70f4:	4302      	orrs	r2, r0
    70f6:	23ff      	movs	r3, #255	; 0xff
    70f8:	e7d7      	b.n	70aa <__aeabi_d2f+0x36>
    70fa:	4322      	orrs	r2, r4
    70fc:	2300      	movs	r3, #0
    70fe:	2a00      	cmp	r2, #0
    7100:	d003      	beq.n	710a <__aeabi_d2f+0x96>
    7102:	2205      	movs	r2, #5
    7104:	08d2      	lsrs	r2, r2, #3
    7106:	2bff      	cmp	r3, #255	; 0xff
    7108:	d003      	beq.n	7112 <__aeabi_d2f+0x9e>
    710a:	0252      	lsls	r2, r2, #9
    710c:	0a52      	lsrs	r2, r2, #9
    710e:	b2db      	uxtb	r3, r3
    7110:	e7df      	b.n	70d2 <__aeabi_d2f+0x5e>
    7112:	2a00      	cmp	r2, #0
    7114:	d032      	beq.n	717c <__aeabi_d2f+0x108>
    7116:	2080      	movs	r0, #128	; 0x80
    7118:	03c0      	lsls	r0, r0, #15
    711a:	4302      	orrs	r2, r0
    711c:	0252      	lsls	r2, r2, #9
    711e:	0a52      	lsrs	r2, r2, #9
    7120:	e7d7      	b.n	70d2 <__aeabi_d2f+0x5e>
    7122:	0018      	movs	r0, r3
    7124:	3017      	adds	r0, #23
    7126:	db14      	blt.n	7152 <__aeabi_d2f+0xde>
    7128:	2080      	movs	r0, #128	; 0x80
    712a:	0400      	lsls	r0, r0, #16
    712c:	4302      	orrs	r2, r0
    712e:	201e      	movs	r0, #30
    7130:	1ac0      	subs	r0, r0, r3
    7132:	281f      	cmp	r0, #31
    7134:	dc0f      	bgt.n	7156 <__aeabi_d2f+0xe2>
    7136:	0025      	movs	r5, r4
    7138:	4b12      	ldr	r3, [pc, #72]	; (7184 <__aeabi_d2f+0x110>)
    713a:	18f3      	adds	r3, r6, r3
    713c:	409d      	lsls	r5, r3
    713e:	1e6e      	subs	r6, r5, #1
    7140:	41b5      	sbcs	r5, r6
    7142:	409a      	lsls	r2, r3
    7144:	002b      	movs	r3, r5
    7146:	4313      	orrs	r3, r2
    7148:	0022      	movs	r2, r4
    714a:	40c2      	lsrs	r2, r0
    714c:	431a      	orrs	r2, r3
    714e:	2300      	movs	r3, #0
    7150:	e7ab      	b.n	70aa <__aeabi_d2f+0x36>
    7152:	2300      	movs	r3, #0
    7154:	e7d5      	b.n	7102 <__aeabi_d2f+0x8e>
    7156:	2502      	movs	r5, #2
    7158:	426d      	negs	r5, r5
    715a:	1aeb      	subs	r3, r5, r3
    715c:	0015      	movs	r5, r2
    715e:	40dd      	lsrs	r5, r3
    7160:	2820      	cmp	r0, #32
    7162:	d009      	beq.n	7178 <__aeabi_d2f+0x104>
    7164:	4b08      	ldr	r3, [pc, #32]	; (7188 <__aeabi_d2f+0x114>)
    7166:	18f3      	adds	r3, r6, r3
    7168:	409a      	lsls	r2, r3
    716a:	4314      	orrs	r4, r2
    716c:	1e62      	subs	r2, r4, #1
    716e:	4194      	sbcs	r4, r2
    7170:	0022      	movs	r2, r4
    7172:	2300      	movs	r3, #0
    7174:	432a      	orrs	r2, r5
    7176:	e798      	b.n	70aa <__aeabi_d2f+0x36>
    7178:	2200      	movs	r2, #0
    717a:	e7f6      	b.n	716a <__aeabi_d2f+0xf6>
    717c:	2200      	movs	r2, #0
    717e:	e7a8      	b.n	70d2 <__aeabi_d2f+0x5e>
    7180:	fffffc80 	.word	0xfffffc80
    7184:	fffffc82 	.word	0xfffffc82
    7188:	fffffca2 	.word	0xfffffca2

0000718c <__clzsi2>:
    718c:	211c      	movs	r1, #28
    718e:	2301      	movs	r3, #1
    7190:	041b      	lsls	r3, r3, #16
    7192:	4298      	cmp	r0, r3
    7194:	d301      	bcc.n	719a <__clzsi2+0xe>
    7196:	0c00      	lsrs	r0, r0, #16
    7198:	3910      	subs	r1, #16
    719a:	0a1b      	lsrs	r3, r3, #8
    719c:	4298      	cmp	r0, r3
    719e:	d301      	bcc.n	71a4 <__clzsi2+0x18>
    71a0:	0a00      	lsrs	r0, r0, #8
    71a2:	3908      	subs	r1, #8
    71a4:	091b      	lsrs	r3, r3, #4
    71a6:	4298      	cmp	r0, r3
    71a8:	d301      	bcc.n	71ae <__clzsi2+0x22>
    71aa:	0900      	lsrs	r0, r0, #4
    71ac:	3904      	subs	r1, #4
    71ae:	a202      	add	r2, pc, #8	; (adr r2, 71b8 <__clzsi2+0x2c>)
    71b0:	5c10      	ldrb	r0, [r2, r0]
    71b2:	1840      	adds	r0, r0, r1
    71b4:	4770      	bx	lr
    71b6:	46c0      	nop			; (mov r8, r8)
    71b8:	02020304 	.word	0x02020304
    71bc:	01010101 	.word	0x01010101
	...

000071c8 <__errno>:
    71c8:	4b01      	ldr	r3, [pc, #4]	; (71d0 <__errno+0x8>)
    71ca:	6818      	ldr	r0, [r3, #0]
    71cc:	4770      	bx	lr
    71ce:	46c0      	nop			; (mov r8, r8)
    71d0:	2000011c 	.word	0x2000011c

000071d4 <__libc_init_array>:
    71d4:	4b0e      	ldr	r3, [pc, #56]	; (7210 <__libc_init_array+0x3c>)
    71d6:	b570      	push	{r4, r5, r6, lr}
    71d8:	2500      	movs	r5, #0
    71da:	001e      	movs	r6, r3
    71dc:	4c0d      	ldr	r4, [pc, #52]	; (7214 <__libc_init_array+0x40>)
    71de:	1ae4      	subs	r4, r4, r3
    71e0:	10a4      	asrs	r4, r4, #2
    71e2:	42a5      	cmp	r5, r4
    71e4:	d004      	beq.n	71f0 <__libc_init_array+0x1c>
    71e6:	00ab      	lsls	r3, r5, #2
    71e8:	58f3      	ldr	r3, [r6, r3]
    71ea:	4798      	blx	r3
    71ec:	3501      	adds	r5, #1
    71ee:	e7f8      	b.n	71e2 <__libc_init_array+0xe>
    71f0:	f000 f894 	bl	731c <_init>
    71f4:	4b08      	ldr	r3, [pc, #32]	; (7218 <__libc_init_array+0x44>)
    71f6:	2500      	movs	r5, #0
    71f8:	001e      	movs	r6, r3
    71fa:	4c08      	ldr	r4, [pc, #32]	; (721c <__libc_init_array+0x48>)
    71fc:	1ae4      	subs	r4, r4, r3
    71fe:	10a4      	asrs	r4, r4, #2
    7200:	42a5      	cmp	r5, r4
    7202:	d004      	beq.n	720e <__libc_init_array+0x3a>
    7204:	00ab      	lsls	r3, r5, #2
    7206:	58f3      	ldr	r3, [r6, r3]
    7208:	4798      	blx	r3
    720a:	3501      	adds	r5, #1
    720c:	e7f8      	b.n	7200 <__libc_init_array+0x2c>
    720e:	bd70      	pop	{r4, r5, r6, pc}
    7210:	00007328 	.word	0x00007328
    7214:	00007328 	.word	0x00007328
    7218:	00007328 	.word	0x00007328
    721c:	0000732c 	.word	0x0000732c

00007220 <senseBatPin>:
    7220:	06000000 01000106                                .....

00007225 <senseAPin>:
    7225:	03010001 0100010b                                .....

0000722a <senseBPin>:
    722a:	02010001 0000010a                                .....

0000722f <senseCPin>:
    722f:	03000001 00000101                                .....

00007234 <senseDPin>:
    7234:	02000001 00000100                                .....

00007239 <analogAccelPin>:
    7239:	07000001 70000007 0000776f 00000000              .......pow.....

00007248 <TWO52>:
    7248:	00000000 43300000 00000000 c3300000     ......0C......0.
    7258:	000052a0 000051fe 000051fe 000051fc     .R...Q...Q...Q..
    7268:	00005292 00005292 00005288 000051fc     .R...R...R...Q..
    7278:	00005292 00005288 00005292 000051fc     .R...R...R...Q..
    7288:	00005298 00005298 00005298 00005322     .R...R...R.."S..
    7298:	00005c38 00005b06 00005c0c 00005afc     8\...[...\...Z..
    72a8:	00005c0c 00005c16 00005c0c 00005afc     .\...\...\...Z..
    72b8:	00005b06 00005b06 00005c16 00005afc     .[...[...\...Z..
    72c8:	00005af2 00005af2 00005af2 00005e68     .Z...Z...Z..h^..
    72d8:	00006480 00006340 00006340 0000633e     .d..@c..@c..>c..
    72e8:	00006458 00006458 0000644a 0000633e     Xd..Xd..Jd..>c..
    72f8:	00006458 0000644a 00006458 0000633e     Xd..Jd..Xd..>c..
    7308:	00006460 00006460 00006460 00006660     `d..`d..`d..`f..
    7318:	00000043                                C...

0000731c <_init>:
    731c:	b5f8      	push	{r3, r4, r5, r6, r7, lr}
    731e:	46c0      	nop			; (mov r8, r8)
    7320:	bcf8      	pop	{r3, r4, r5, r6, r7}
    7322:	bc08      	pop	{r3}
    7324:	469e      	mov	lr, r3
    7326:	4770      	bx	lr

00007328 <__init_array_start>:
    7328:	000000dd 	.word	0x000000dd

0000732c <_fini>:
    732c:	b5f8      	push	{r3, r4, r5, r6, r7, lr}
    732e:	46c0      	nop			; (mov r8, r8)
    7330:	bcf8      	pop	{r3, r4, r5, r6, r7}
    7332:	bc08      	pop	{r3}
    7334:	469e      	mov	lr, r3
    7336:	4770      	bx	lr

00007338 <__fini_array_start>:
    7338:	000000b5 	.word	0x000000b5
