
DasAltimeter.elf:     file format elf32-littlearm

Sections:
Idx Name          Size      VMA       LMA       File off  Algn
  0 .text         00001f84  00000000  00000000  00010000  2**2
                  CONTENTS, ALLOC, LOAD, READONLY, CODE
  1 .relocate     00000438  20000000  00001f84  00020000  2**3
                  CONTENTS, ALLOC, LOAD, DATA
  2 .bss          000001a0  20000440  000023d0  00020440  2**4
                  ALLOC
  3 .stack        00002000  200005e0  00002570  00020440  2**0
                  ALLOC
  4 .ARM.attributes 00000028  00000000  00000000  00020438  2**0
                  CONTENTS, READONLY
  5 .comment      00000059  00000000  00000000  00020460  2**0
                  CONTENTS, READONLY
  6 .debug_frame  000002fc  00000000  00000000  000204bc  2**2
                  CONTENTS, READONLY, DEBUGGING

Disassembly of section .text:

00000000 <exception_table>:
       0:	e0 25 00 20 19 01 00 00 15 01 00 00 15 01 00 00     .%. ............
	...
      2c:	15 01 00 00 00 00 00 00 00 00 00 00 15 01 00 00     ................
      3c:	15 01 00 00 15 01 00 00 15 01 00 00 15 01 00 00     ................
      4c:	45 06 00 00 15 01 00 00 15 01 00 00 15 01 00 00     E...............
      5c:	15 01 00 00 15 01 00 00 15 01 00 00 15 01 00 00     ................
      6c:	15 01 00 00 15 01 00 00 15 01 00 00 15 01 00 00     ................
      7c:	15 01 00 00 15 01 00 00 15 01 00 00 15 01 00 00     ................
      8c:	15 01 00 00 15 01 00 00 00 00 00 00 00 00 00 00     ................
      9c:	15 01 00 00 15 01 00 00 15 01 00 00 15 01 00 00     ................
      ac:	15 01 00 00 00 00 00 00                             ........

000000b4 <__do_global_dtors_aux>:
      b4:	b510      	push	{r4, lr}
      b6:	4c06      	ldr	r4, [pc, #24]	; (d0 <__do_global_dtors_aux+0x1c>)
      b8:	7823      	ldrb	r3, [r4, #0]
      ba:	2b00      	cmp	r3, #0
      bc:	d107      	bne.n	ce <__do_global_dtors_aux+0x1a>
      be:	4b05      	ldr	r3, [pc, #20]	; (d4 <__do_global_dtors_aux+0x20>)
      c0:	2b00      	cmp	r3, #0
      c2:	d002      	beq.n	ca <__do_global_dtors_aux+0x16>
      c4:	4804      	ldr	r0, [pc, #16]	; (d8 <__do_global_dtors_aux+0x24>)
      c6:	e000      	b.n	ca <__do_global_dtors_aux+0x16>
      c8:	bf00      	nop
      ca:	2301      	movs	r3, #1
      cc:	7023      	strb	r3, [r4, #0]
      ce:	bd10      	pop	{r4, pc}
      d0:	20000440 	.word	0x20000440
      d4:	00000000 	.word	0x00000000
      d8:	00001f84 	.word	0x00001f84

000000dc <frame_dummy>:
      dc:	4b08      	ldr	r3, [pc, #32]	; (100 <frame_dummy+0x24>)
      de:	b510      	push	{r4, lr}
      e0:	2b00      	cmp	r3, #0
      e2:	d003      	beq.n	ec <frame_dummy+0x10>
      e4:	4907      	ldr	r1, [pc, #28]	; (104 <frame_dummy+0x28>)
      e6:	4808      	ldr	r0, [pc, #32]	; (108 <frame_dummy+0x2c>)
      e8:	e000      	b.n	ec <frame_dummy+0x10>
      ea:	bf00      	nop
      ec:	4807      	ldr	r0, [pc, #28]	; (10c <frame_dummy+0x30>)
      ee:	6803      	ldr	r3, [r0, #0]
      f0:	2b00      	cmp	r3, #0
      f2:	d100      	bne.n	f6 <frame_dummy+0x1a>
      f4:	bd10      	pop	{r4, pc}
      f6:	4b06      	ldr	r3, [pc, #24]	; (110 <frame_dummy+0x34>)
      f8:	2b00      	cmp	r3, #0
      fa:	d0fb      	beq.n	f4 <frame_dummy+0x18>
      fc:	4798      	blx	r3
      fe:	e7f9      	b.n	f4 <frame_dummy+0x18>
     100:	00000000 	.word	0x00000000
     104:	20000444 	.word	0x20000444
     108:	00001f84 	.word	0x00001f84
     10c:	00001f84 	.word	0x00001f84
     110:	00000000 	.word	0x00000000

00000114 <Dummy_Handler>:
     114:	e7fe      	b.n	114 <Dummy_Handler>
	...

00000118 <Reset_Handler>:
     118:	4821      	ldr	r0, [pc, #132]	; (1a0 <Reset_Handler+0x88>)
     11a:	4922      	ldr	r1, [pc, #136]	; (1a4 <Reset_Handler+0x8c>)
     11c:	b570      	push	{r4, r5, r6, lr}
     11e:	4288      	cmp	r0, r1
     120:	d004      	beq.n	12c <Reset_Handler+0x14>
     122:	2300      	movs	r3, #0
     124:	4c20      	ldr	r4, [pc, #128]	; (1a8 <Reset_Handler+0x90>)
     126:	18ca      	adds	r2, r1, r3
     128:	42a2      	cmp	r2, r4
     12a:	d332      	bcc.n	192 <Reset_Handler+0x7a>
     12c:	2100      	movs	r1, #0
     12e:	4b1f      	ldr	r3, [pc, #124]	; (1ac <Reset_Handler+0x94>)
     130:	4a1f      	ldr	r2, [pc, #124]	; (1b0 <Reset_Handler+0x98>)
     132:	4293      	cmp	r3, r2
     134:	d331      	bcc.n	19a <Reset_Handler+0x82>
     136:	21ff      	movs	r1, #255	; 0xff
     138:	4b1e      	ldr	r3, [pc, #120]	; (1b4 <Reset_Handler+0x9c>)
     13a:	4a1f      	ldr	r2, [pc, #124]	; (1b8 <Reset_Handler+0xa0>)
     13c:	438b      	bics	r3, r1
     13e:	6093      	str	r3, [r2, #8]
     140:	2202      	movs	r2, #2
     142:	250c      	movs	r5, #12
     144:	2408      	movs	r4, #8
     146:	2630      	movs	r6, #48	; 0x30
     148:	4b1c      	ldr	r3, [pc, #112]	; (1bc <Reset_Handler+0xa4>)
     14a:	481d      	ldr	r0, [pc, #116]	; (1c0 <Reset_Handler+0xa8>)
     14c:	625a      	str	r2, [r3, #36]	; 0x24
     14e:	78c3      	ldrb	r3, [r0, #3]
     150:	39fc      	subs	r1, #252	; 0xfc
     152:	438b      	bics	r3, r1
     154:	4313      	orrs	r3, r2
     156:	70c3      	strb	r3, [r0, #3]
     158:	78c3      	ldrb	r3, [r0, #3]
     15a:	43ab      	bics	r3, r5
     15c:	4323      	orrs	r3, r4
     15e:	70c3      	strb	r3, [r0, #3]
     160:	4b18      	ldr	r3, [pc, #96]	; (1c4 <Reset_Handler+0xac>)
     162:	7b98      	ldrb	r0, [r3, #14]
     164:	43b0      	bics	r0, r6
     166:	0006      	movs	r6, r0
     168:	2020      	movs	r0, #32
     16a:	4330      	orrs	r0, r6
     16c:	7398      	strb	r0, [r3, #14]
     16e:	7b98      	ldrb	r0, [r3, #14]
     170:	43a8      	bics	r0, r5
     172:	4304      	orrs	r4, r0
     174:	739c      	strb	r4, [r3, #14]
     176:	7b98      	ldrb	r0, [r3, #14]
     178:	4388      	bics	r0, r1
     17a:	4302      	orrs	r2, r0
     17c:	739a      	strb	r2, [r3, #14]
     17e:	2380      	movs	r3, #128	; 0x80
     180:	4a11      	ldr	r2, [pc, #68]	; (1c8 <Reset_Handler+0xb0>)
     182:	6851      	ldr	r1, [r2, #4]
     184:	430b      	orrs	r3, r1
     186:	6053      	str	r3, [r2, #4]
     188:	4b10      	ldr	r3, [pc, #64]	; (1cc <Reset_Handler+0xb4>)
     18a:	4798      	blx	r3
     18c:	4b10      	ldr	r3, [pc, #64]	; (1d0 <Reset_Handler+0xb8>)
     18e:	4798      	blx	r3
     190:	e7fe      	b.n	190 <Reset_Handler+0x78>
     192:	58c5      	ldr	r5, [r0, r3]
     194:	3304      	adds	r3, #4
     196:	6015      	str	r5, [r2, #0]
     198:	e7c5      	b.n	126 <Reset_Handler+0xe>
     19a:	c302      	stmia	r3!, {r1}
     19c:	e7c9      	b.n	132 <Reset_Handler+0x1a>
     19e:	46c0      	nop			; (mov r8, r8)
     1a0:	00001f84 	.word	0x00001f84
     1a4:	20000000 	.word	0x20000000
     1a8:	20000438 	.word	0x20000438
     1ac:	20000440 	.word	0x20000440
     1b0:	200005e0 	.word	0x200005e0
     1b4:	00000000 	.word	0x00000000
     1b8:	e000ed00 	.word	0xe000ed00
     1bc:	410070fc 	.word	0x410070fc
     1c0:	41005000 	.word	0x41005000
     1c4:	41004800 	.word	0x41004800
     1c8:	41004000 	.word	0x41004000
     1cc:	00001b49 	.word	0x00001b49
     1d0:	00000361 	.word	0x00000361

000001d4 <SystemInit>:
     1d4:	4a01      	ldr	r2, [pc, #4]	; (1dc <SystemInit+0x8>)
     1d6:	4b02      	ldr	r3, [pc, #8]	; (1e0 <SystemInit+0xc>)
     1d8:	601a      	str	r2, [r3, #0]
     1da:	4770      	bx	lr
     1dc:	000f4240 	.word	0x000f4240
     1e0:	20000000 	.word	0x20000000

000001e4 <init>:
     1e4:	b5f7      	push	{r0, r1, r2, r4, r5, r6, r7, lr}
     1e6:	4b53      	ldr	r3, [pc, #332]	; (334 <init+0x150>)
     1e8:	4798      	blx	r3
     1ea:	4b53      	ldr	r3, [pc, #332]	; (338 <init+0x154>)
     1ec:	4798      	blx	r3
     1ee:	4b53      	ldr	r3, [pc, #332]	; (33c <init+0x158>)
     1f0:	4798      	blx	r3
     1f2:	4b53      	ldr	r3, [pc, #332]	; (340 <init+0x15c>)
     1f4:	4798      	blx	r3
     1f6:	4b53      	ldr	r3, [pc, #332]	; (344 <init+0x160>)
     1f8:	4798      	blx	r3
     1fa:	4b53      	ldr	r3, [pc, #332]	; (348 <init+0x164>)
     1fc:	4798      	blx	r3
     1fe:	2240      	movs	r2, #64	; 0x40
     200:	21c1      	movs	r1, #193	; 0xc1
     202:	4b52      	ldr	r3, [pc, #328]	; (34c <init+0x168>)
     204:	0089      	lsls	r1, r1, #2
     206:	601a      	str	r2, [r3, #0]
     208:	585a      	ldr	r2, [r3, r1]
     20a:	4851      	ldr	r0, [pc, #324]	; (350 <init+0x16c>)
     20c:	4002      	ands	r2, r0
     20e:	505a      	str	r2, [r3, r1]
     210:	4b50      	ldr	r3, [pc, #320]	; (354 <init+0x170>)
     212:	2201      	movs	r2, #1
     214:	0018      	movs	r0, r3
     216:	305c      	adds	r0, #92	; 0x5c
     218:	7801      	ldrb	r1, [r0, #0]
     21a:	001d      	movs	r5, r3
     21c:	4391      	bics	r1, r2
     21e:	7001      	strb	r1, [r0, #0]
     220:	2180      	movs	r1, #128	; 0x80
     222:	200f      	movs	r0, #15
     224:	0549      	lsls	r1, r1, #21
     226:	6099      	str	r1, [r3, #8]
     228:	2110      	movs	r1, #16
     22a:	3532      	adds	r5, #50	; 0x32
     22c:	782c      	ldrb	r4, [r5, #0]
     22e:	001e      	movs	r6, r3
     230:	4004      	ands	r4, r0
     232:	4321      	orrs	r1, r4
     234:	001c      	movs	r4, r3
     236:	7029      	strb	r1, [r5, #0]
     238:	3445      	adds	r4, #69	; 0x45
     23a:	7821      	ldrb	r1, [r4, #0]
     23c:	3c11      	subs	r4, #17
     23e:	4311      	orrs	r1, r2
     240:	7461      	strb	r1, [r4, #17]
     242:	7821      	ldrb	r1, [r4, #0]
     244:	364c      	adds	r6, #76	; 0x4c
     246:	4381      	bics	r1, r0
     248:	4311      	orrs	r1, r2
     24a:	7021      	strb	r1, [r4, #0]
     24c:	7d21      	ldrb	r1, [r4, #20]
     24e:	001f      	movs	r7, r3
     250:	4311      	orrs	r1, r2
     252:	7521      	strb	r1, [r4, #20]
     254:	3414      	adds	r4, #20
     256:	7c21      	ldrb	r1, [r4, #16]
     258:	374d      	adds	r7, #77	; 0x4d
     25a:	4391      	bics	r1, r2
     25c:	7421      	strb	r1, [r4, #16]
     25e:	2180      	movs	r1, #128	; 0x80
     260:	0449      	lsls	r1, r1, #17
     262:	6099      	str	r1, [r3, #8]
     264:	6159      	str	r1, [r3, #20]
     266:	7831      	ldrb	r1, [r6, #0]
     268:	4391      	bics	r1, r2
     26a:	7031      	strb	r1, [r6, #0]
     26c:	2180      	movs	r1, #128	; 0x80
     26e:	0149      	lsls	r1, r1, #5
     270:	6099      	str	r1, [r3, #8]
     272:	7839      	ldrb	r1, [r7, #0]
     274:	4391      	bics	r1, r2
     276:	7039      	strb	r1, [r7, #0]
     278:	2180      	movs	r1, #128	; 0x80
     27a:	0189      	lsls	r1, r1, #6
     27c:	6099      	str	r1, [r3, #8]
     27e:	0019      	movs	r1, r3
     280:	314f      	adds	r1, #79	; 0x4f
     282:	780c      	ldrb	r4, [r1, #0]
     284:	3919      	subs	r1, #25
     286:	4394      	bics	r4, r2
     288:	764c      	strb	r4, [r1, #25]
     28a:	2402      	movs	r4, #2
     28c:	7e4d      	ldrb	r5, [r1, #25]
     28e:	4325      	orrs	r5, r4
     290:	764d      	strb	r5, [r1, #25]
     292:	2580      	movs	r5, #128	; 0x80
     294:	022d      	lsls	r5, r5, #8
     296:	605d      	str	r5, [r3, #4]
     298:	2537      	movs	r5, #55	; 0x37
     29a:	46ac      	mov	ip, r5
     29c:	449c      	add	ip, r3
     29e:	4665      	mov	r5, ip
     2a0:	782d      	ldrb	r5, [r5, #0]
     2a2:	341e      	adds	r4, #30
     2a4:	4005      	ands	r5, r0
     2a6:	4325      	orrs	r5, r4
     2a8:	4664      	mov	r4, ip
     2aa:	7025      	strb	r5, [r4, #0]
     2ac:	2420      	movs	r4, #32
     2ae:	7e4d      	ldrb	r5, [r1, #25]
     2b0:	4315      	orrs	r5, r2
     2b2:	764d      	strb	r5, [r1, #25]
     2b4:	780d      	ldrb	r5, [r1, #0]
     2b6:	4005      	ands	r5, r0
     2b8:	4325      	orrs	r5, r4
     2ba:	700d      	strb	r5, [r1, #0]
     2bc:	783d      	ldrb	r5, [r7, #0]
     2be:	3c1e      	subs	r4, #30
     2c0:	4315      	orrs	r5, r2
     2c2:	703d      	strb	r5, [r7, #0]
     2c4:	780d      	ldrb	r5, [r1, #0]
     2c6:	4385      	bics	r5, r0
     2c8:	0028      	movs	r0, r5
     2ca:	4320      	orrs	r0, r4
     2cc:	7008      	strb	r0, [r1, #0]
     2ce:	7831      	ldrb	r1, [r6, #0]
     2d0:	4311      	orrs	r1, r2
     2d2:	7031      	strb	r1, [r6, #0]
     2d4:	0019      	movs	r1, r3
     2d6:	3154      	adds	r1, #84	; 0x54
     2d8:	7808      	ldrb	r0, [r1, #0]
     2da:	3906      	subs	r1, #6
     2dc:	4390      	bics	r0, r2
     2de:	7188      	strb	r0, [r1, #6]
     2e0:	2080      	movs	r0, #128	; 0x80
     2e2:	0340      	lsls	r0, r0, #13
     2e4:	6098      	str	r0, [r3, #8]
     2e6:	6198      	str	r0, [r3, #24]
     2e8:	7988      	ldrb	r0, [r1, #6]
     2ea:	4390      	bics	r0, r2
     2ec:	7188      	strb	r0, [r1, #6]
     2ee:	7808      	ldrb	r0, [r1, #0]
     2f0:	4390      	bics	r0, r2
     2f2:	7008      	strb	r0, [r1, #0]
     2f4:	2080      	movs	r0, #128	; 0x80
     2f6:	01c0      	lsls	r0, r0, #7
     2f8:	6098      	str	r0, [r3, #8]
     2fa:	6198      	str	r0, [r3, #24]
     2fc:	7808      	ldrb	r0, [r1, #0]
     2fe:	4390      	bics	r0, r2
     300:	7008      	strb	r0, [r1, #0]
     302:	7a08      	ldrb	r0, [r1, #8]
     304:	4390      	bics	r0, r2
     306:	2280      	movs	r2, #128	; 0x80
     308:	03d2      	lsls	r2, r2, #15
     30a:	7208      	strb	r0, [r1, #8]
     30c:	609a      	str	r2, [r3, #8]
     30e:	2240      	movs	r2, #64	; 0x40
     310:	7a0b      	ldrb	r3, [r1, #8]
     312:	0020      	movs	r0, r4
     314:	4313      	orrs	r3, r2
     316:	720b      	strb	r3, [r1, #8]
     318:	3a3c      	subs	r2, #60	; 0x3c
     31a:	2103      	movs	r1, #3
     31c:	4b0e      	ldr	r3, [pc, #56]	; (358 <init+0x174>)
     31e:	4798      	blx	r3
     320:	2200      	movs	r2, #0
     322:	0020      	movs	r0, r4
     324:	9201      	str	r2, [sp, #4]
     326:	9200      	str	r2, [sp, #0]
     328:	0013      	movs	r3, r2
     32a:	2103      	movs	r1, #3
     32c:	4c0b      	ldr	r4, [pc, #44]	; (35c <init+0x178>)
     32e:	47a0      	blx	r4
     330:	bdf7      	pop	{r0, r1, r2, r4, r5, r6, r7, pc}
     332:	46c0      	nop			; (mov r8, r8)
     334:	000001d5 	.word	0x000001d5
     338:	0000053d 	.word	0x0000053d
     33c:	000006c9 	.word	0x000006c9
     340:	0000045d 	.word	0x0000045d
     344:	00000741 	.word	0x00000741
     348:	000005d1 	.word	0x000005d1
     34c:	e000e100 	.word	0xe000e100
     350:	ff00ffff 	.word	0xff00ffff
     354:	41004400 	.word	0x41004400
     358:	00000bc1 	.word	0x00000bc1
     35c:	00000c21 	.word	0x00000c21

00000360 <main>:
     360:	b570      	push	{r4, r5, r6, lr}
     362:	4b2e      	ldr	r3, [pc, #184]	; (41c <main+0xbc>)
     364:	b0a2      	sub	sp, #136	; 0x88
     366:	4798      	blx	r3
     368:	4b2d      	ldr	r3, [pc, #180]	; (420 <main+0xc0>)
     36a:	a807      	add	r0, sp, #28
     36c:	4798      	blx	r3
     36e:	2300      	movs	r3, #0
     370:	4c2c      	ldr	r4, [pc, #176]	; (424 <main+0xc4>)
     372:	9302      	str	r3, [sp, #8]
     374:	7863      	ldrb	r3, [r4, #1]
     376:	7825      	ldrb	r5, [r4, #0]
     378:	021b      	lsls	r3, r3, #8
     37a:	432b      	orrs	r3, r5
     37c:	78a5      	ldrb	r5, [r4, #2]
     37e:	042d      	lsls	r5, r5, #16
     380:	432b      	orrs	r3, r5
     382:	78e5      	ldrb	r5, [r4, #3]
     384:	062d      	lsls	r5, r5, #24
     386:	431d      	orrs	r5, r3
     388:	7921      	ldrb	r1, [r4, #4]
     38a:	4e27      	ldr	r6, [pc, #156]	; (428 <main+0xc8>)
     38c:	0028      	movs	r0, r5
     38e:	47b0      	blx	r6
     390:	466b      	mov	r3, sp
     392:	80d8      	strh	r0, [r3, #6]
     394:	9b02      	ldr	r3, [sp, #8]
     396:	a807      	add	r0, sp, #28
     398:	3301      	adds	r3, #1
     39a:	9302      	str	r3, [sp, #8]
     39c:	4b23      	ldr	r3, [pc, #140]	; (42c <main+0xcc>)
     39e:	4798      	blx	r3
     3a0:	79a3      	ldrb	r3, [r4, #6]
     3a2:	7960      	ldrb	r0, [r4, #5]
     3a4:	021b      	lsls	r3, r3, #8
     3a6:	4303      	orrs	r3, r0
     3a8:	79e0      	ldrb	r0, [r4, #7]
     3aa:	7a61      	ldrb	r1, [r4, #9]
     3ac:	0400      	lsls	r0, r0, #16
     3ae:	4303      	orrs	r3, r0
     3b0:	7a20      	ldrb	r0, [r4, #8]
     3b2:	0600      	lsls	r0, r0, #24
     3b4:	4318      	orrs	r0, r3
     3b6:	47b0      	blx	r6
     3b8:	ab01      	add	r3, sp, #4
     3ba:	8018      	strh	r0, [r3, #0]
     3bc:	8818      	ldrh	r0, [r3, #0]
     3be:	4b1c      	ldr	r3, [pc, #112]	; (430 <main+0xd0>)
     3c0:	18c0      	adds	r0, r0, r3
     3c2:	4b1c      	ldr	r3, [pc, #112]	; (434 <main+0xd4>)
     3c4:	4798      	blx	r3
     3c6:	4a1c      	ldr	r2, [pc, #112]	; (438 <main+0xd8>)
     3c8:	4b1c      	ldr	r3, [pc, #112]	; (43c <main+0xdc>)
     3ca:	4e1d      	ldr	r6, [pc, #116]	; (440 <main+0xe0>)
     3cc:	47b0      	blx	r6
     3ce:	4b1d      	ldr	r3, [pc, #116]	; (444 <main+0xe4>)
     3d0:	4798      	blx	r3
     3d2:	9005      	str	r0, [sp, #20]
     3d4:	9803      	ldr	r0, [sp, #12]
     3d6:	4e1c      	ldr	r6, [pc, #112]	; (448 <main+0xe8>)
     3d8:	9905      	ldr	r1, [sp, #20]
     3da:	47b0      	blx	r6
     3dc:	9003      	str	r0, [sp, #12]
     3de:	9804      	ldr	r0, [sp, #16]
     3e0:	9910      	ldr	r1, [sp, #64]	; 0x40
     3e2:	47b0      	blx	r6
     3e4:	9004      	str	r0, [sp, #16]
     3e6:	9b02      	ldr	r3, [sp, #8]
     3e8:	2b64      	cmp	r3, #100	; 0x64
     3ea:	d1cd      	bne.n	388 <main+0x28>
     3ec:	4b17      	ldr	r3, [pc, #92]	; (44c <main+0xec>)
     3ee:	4798      	blx	r3
     3f0:	2280      	movs	r2, #128	; 0x80
     3f2:	4b17      	ldr	r3, [pc, #92]	; (450 <main+0xf0>)
     3f4:	0552      	lsls	r2, r2, #21
     3f6:	9006      	str	r0, [sp, #24]
     3f8:	61da      	str	r2, [r3, #28]
     3fa:	9804      	ldr	r0, [sp, #16]
     3fc:	4e15      	ldr	r6, [pc, #84]	; (454 <main+0xf4>)
     3fe:	4916      	ldr	r1, [pc, #88]	; (458 <main+0xf8>)
     400:	47b0      	blx	r6
     402:	9004      	str	r0, [sp, #16]
     404:	9803      	ldr	r0, [sp, #12]
     406:	4914      	ldr	r1, [pc, #80]	; (458 <main+0xf8>)
     408:	47b0      	blx	r6
     40a:	2301      	movs	r3, #1
     40c:	425b      	negs	r3, r3
     40e:	9003      	str	r0, [sp, #12]
     410:	9302      	str	r3, [sp, #8]
     412:	2300      	movs	r3, #0
     414:	9303      	str	r3, [sp, #12]
     416:	9304      	str	r3, [sp, #16]
     418:	e7b6      	b.n	388 <main+0x28>
     41a:	46c0      	nop			; (mov r8, r8)
     41c:	000001e5 	.word	0x000001e5
     420:	0000097d 	.word	0x0000097d
     424:	00001d54 	.word	0x00001d54
     428:	000004d1 	.word	0x000004d1
     42c:	000009d9 	.word	0x000009d9
     430:	fffff0b0 	.word	0xfffff0b0
     434:	000018d1 	.word	0x000018d1
     438:	367a0f91 	.word	0x367a0f91
     43c:	3f973eab 	.word	0x3f973eab
     440:	000013d1 	.word	0x000013d1
     444:	000019f9 	.word	0x000019f9
     448:	00000cf1 	.word	0x00000cf1
     44c:	00000661 	.word	0x00000661
     450:	41004400 	.word	0x41004400
     454:	00001015 	.word	0x00001015
     458:	42c80000 	.word	0x42c80000

0000045c <adcInit>:
     45c:	2380      	movs	r3, #128	; 0x80
     45e:	4a10      	ldr	r2, [pc, #64]	; (4a0 <adcInit+0x44>)
     460:	025b      	lsls	r3, r3, #9
     462:	6a11      	ldr	r1, [r2, #32]
     464:	480f      	ldr	r0, [pc, #60]	; (4a4 <adcInit+0x48>)
     466:	430b      	orrs	r3, r1
     468:	21e0      	movs	r1, #224	; 0xe0
     46a:	6213      	str	r3, [r2, #32]
     46c:	4b0e      	ldr	r3, [pc, #56]	; (4a8 <adcInit+0x4c>)
     46e:	4a0f      	ldr	r2, [pc, #60]	; (4ac <adcInit+0x50>)
     470:	00c9      	lsls	r1, r1, #3
     472:	8099      	strh	r1, [r3, #4]
     474:	8050      	strh	r0, [r2, #2]
     476:	4a0e      	ldr	r2, [pc, #56]	; (4b0 <adcInit+0x54>)
     478:	6810      	ldr	r0, [r2, #0]
     47a:	0142      	lsls	r2, r0, #5
     47c:	0010      	movs	r0, r2
     47e:	4011      	ands	r1, r2
     480:	4a0c      	ldr	r2, [pc, #48]	; (4b4 <adcInit+0x58>)
     482:	6812      	ldr	r2, [r2, #0]
     484:	0ed2      	lsrs	r2, r2, #27
     486:	4302      	orrs	r2, r0
     488:	b2d2      	uxtb	r2, r2
     48a:	430a      	orrs	r2, r1
     48c:	851a      	strh	r2, [r3, #40]	; 0x28
     48e:	2202      	movs	r2, #2
     490:	705a      	strb	r2, [r3, #1]
     492:	701a      	strb	r2, [r3, #0]
     494:	7e5a      	ldrb	r2, [r3, #25]
     496:	b252      	sxtb	r2, r2
     498:	2a00      	cmp	r2, #0
     49a:	dbfb      	blt.n	494 <adcInit+0x38>
     49c:	4770      	bx	lr
     49e:	46c0      	nop			; (mov r8, r8)
     4a0:	40000400 	.word	0x40000400
     4a4:	0000401e 	.word	0x0000401e
     4a8:	42004000 	.word	0x42004000
     4ac:	40000c00 	.word	0x40000c00
     4b0:	00806024 	.word	0x00806024
     4b4:	00806020 	.word	0x00806020

000004b8 <adcSample>:
     4b8:	2202      	movs	r2, #2
     4ba:	4b04      	ldr	r3, [pc, #16]	; (4cc <adcSample+0x14>)
     4bc:	731a      	strb	r2, [r3, #12]
     4be:	3a01      	subs	r2, #1
     4c0:	7e19      	ldrb	r1, [r3, #24]
     4c2:	4211      	tst	r1, r2
     4c4:	d0fc      	beq.n	4c0 <adcSample+0x8>
     4c6:	8b58      	ldrh	r0, [r3, #26]
     4c8:	b280      	uxth	r0, r0
     4ca:	4770      	bx	lr
     4cc:	42004000 	.word	0x42004000

000004d0 <adc_read>:
     4d0:	b537      	push	{r0, r1, r2, r4, r5, lr}
     4d2:	9101      	str	r1, [sp, #4]
     4d4:	2101      	movs	r1, #1
     4d6:	0c02      	lsrs	r2, r0, #16
     4d8:	9000      	str	r0, [sp, #0]
     4da:	b2d2      	uxtb	r2, r2
     4dc:	0e00      	lsrs	r0, r0, #24
     4de:	0843      	lsrs	r3, r0, #1
     4e0:	01d2      	lsls	r2, r2, #7
     4e2:	189b      	adds	r3, r3, r2
     4e4:	4208      	tst	r0, r1
     4e6:	d01a      	beq.n	51e <adc_read+0x4e>
     4e8:	240f      	movs	r4, #15
     4ea:	4910      	ldr	r1, [pc, #64]	; (52c <adc_read+0x5c>)
     4ec:	185b      	adds	r3, r3, r1
     4ee:	7819      	ldrb	r1, [r3, #0]
     4f0:	400c      	ands	r4, r1
     4f2:	2110      	movs	r1, #16
     4f4:	4321      	orrs	r1, r4
     4f6:	7019      	strb	r1, [r3, #0]
     4f8:	4b0d      	ldr	r3, [pc, #52]	; (530 <adc_read+0x60>)
     4fa:	1880      	adds	r0, r0, r2
     4fc:	18c0      	adds	r0, r0, r3
     4fe:	2301      	movs	r3, #1
     500:	7802      	ldrb	r2, [r0, #0]
     502:	4313      	orrs	r3, r2
     504:	7003      	strb	r3, [r0, #0]
     506:	466b      	mov	r3, sp
     508:	221f      	movs	r2, #31
     50a:	791b      	ldrb	r3, [r3, #4]
     50c:	401a      	ands	r2, r3
     50e:	23c0      	movs	r3, #192	; 0xc0
     510:	015b      	lsls	r3, r3, #5
     512:	4313      	orrs	r3, r2
     514:	4a07      	ldr	r2, [pc, #28]	; (534 <adc_read+0x64>)
     516:	6113      	str	r3, [r2, #16]
     518:	4b07      	ldr	r3, [pc, #28]	; (538 <adc_read+0x68>)
     51a:	4798      	blx	r3
     51c:	bd3e      	pop	{r1, r2, r3, r4, r5, pc}
     51e:	250f      	movs	r5, #15
     520:	4c02      	ldr	r4, [pc, #8]	; (52c <adc_read+0x5c>)
     522:	191b      	adds	r3, r3, r4
     524:	781c      	ldrb	r4, [r3, #0]
     526:	43ac      	bics	r4, r5
     528:	e7e4      	b.n	4f4 <adc_read+0x24>
     52a:	46c0      	nop			; (mov r8, r8)
     52c:	41004430 	.word	0x41004430
     530:	41004440 	.word	0x41004440
     534:	42004000 	.word	0x42004000
     538:	000004b9 	.word	0x000004b9

0000053c <GclkInit>:
     53c:	22c2      	movs	r2, #194	; 0xc2
     53e:	4b19      	ldr	r3, [pc, #100]	; (5a4 <GclkInit+0x68>)
     540:	00d2      	lsls	r2, r2, #3
     542:	b510      	push	{r4, lr}
     544:	609a      	str	r2, [r3, #8]
     546:	2202      	movs	r2, #2
     548:	4817      	ldr	r0, [pc, #92]	; (5a8 <GclkInit+0x6c>)
     54a:	6841      	ldr	r1, [r0, #4]
     54c:	4311      	orrs	r1, r2
     54e:	6041      	str	r1, [r0, #4]
     550:	4916      	ldr	r1, [pc, #88]	; (5ac <GclkInit+0x70>)
     552:	8299      	strh	r1, [r3, #20]
     554:	68d9      	ldr	r1, [r3, #12]
     556:	4211      	tst	r1, r2
     558:	d0fc      	beq.n	554 <GclkInit+0x18>
     55a:	4a15      	ldr	r2, [pc, #84]	; (5b0 <GclkInit+0x74>)
     55c:	6812      	ldr	r2, [r2, #0]
     55e:	0e92      	lsrs	r2, r2, #26
     560:	2a3f      	cmp	r2, #63	; 0x3f
     562:	d100      	bne.n	566 <GclkInit+0x2a>
     564:	3a20      	subs	r2, #32
     566:	4913      	ldr	r1, [pc, #76]	; (5b4 <GclkInit+0x78>)
     568:	4813      	ldr	r0, [pc, #76]	; (5b8 <GclkInit+0x7c>)
     56a:	6809      	ldr	r1, [r1, #0]
     56c:	0589      	lsls	r1, r1, #22
     56e:	0d89      	lsrs	r1, r1, #22
     570:	4281      	cmp	r1, r0
     572:	d100      	bne.n	576 <GclkInit+0x3a>
     574:	4911      	ldr	r1, [pc, #68]	; (5bc <GclkInit+0x80>)
     576:	4812      	ldr	r0, [pc, #72]	; (5c0 <GclkInit+0x84>)
     578:	8498      	strh	r0, [r3, #36]	; 0x24
     57a:	2010      	movs	r0, #16
     57c:	68dc      	ldr	r4, [r3, #12]
     57e:	4204      	tst	r4, r0
     580:	d0fc      	beq.n	57c <GclkInit+0x40>
     582:	0292      	lsls	r2, r2, #10
     584:	430a      	orrs	r2, r1
     586:	629a      	str	r2, [r3, #40]	; 0x28
     588:	2210      	movs	r2, #16
     58a:	68d9      	ldr	r1, [r3, #12]
     58c:	4211      	tst	r1, r2
     58e:	d0fc      	beq.n	58a <GclkInit+0x4e>
     590:	4a0c      	ldr	r2, [pc, #48]	; (5c4 <GclkInit+0x88>)
     592:	849a      	strh	r2, [r3, #36]	; 0x24
     594:	2280      	movs	r2, #128	; 0x80
     596:	4b0c      	ldr	r3, [pc, #48]	; (5c8 <GclkInit+0x8c>)
     598:	0052      	lsls	r2, r2, #1
     59a:	609a      	str	r2, [r3, #8]
     59c:	4a0b      	ldr	r2, [pc, #44]	; (5cc <GclkInit+0x90>)
     59e:	605a      	str	r2, [r3, #4]
     5a0:	bd10      	pop	{r4, pc}
     5a2:	46c0      	nop			; (mov r8, r8)
     5a4:	40000800 	.word	0x40000800
     5a8:	41004000 	.word	0x41004000
     5ac:	0000060e 	.word	0x0000060e
     5b0:	00806024 	.word	0x00806024
     5b4:	00806028 	.word	0x00806028
     5b8:	000003ff 	.word	0x000003ff
     5bc:	000001ff 	.word	0x000001ff
     5c0:	00000522 	.word	0x00000522
     5c4:	000005a2 	.word	0x000005a2
     5c8:	40000c00 	.word	0x40000c00
     5cc:	00010700 	.word	0x00010700

000005d0 <RtcInit>:
     5d0:	2281      	movs	r2, #129	; 0x81
     5d2:	4b15      	ldr	r3, [pc, #84]	; (628 <RtcInit+0x58>)
     5d4:	0052      	lsls	r2, r2, #1
     5d6:	609a      	str	r2, [r3, #8]
     5d8:	4a14      	ldr	r2, [pc, #80]	; (62c <RtcInit+0x5c>)
     5da:	605a      	str	r2, [r3, #4]
     5dc:	785a      	ldrb	r2, [r3, #1]
     5de:	b252      	sxtb	r2, r2
     5e0:	2a00      	cmp	r2, #0
     5e2:	dbfb      	blt.n	5dc <RtcInit+0xc>
     5e4:	4a12      	ldr	r2, [pc, #72]	; (630 <RtcInit+0x60>)
     5e6:	805a      	strh	r2, [r3, #2]
     5e8:	2204      	movs	r2, #4
     5ea:	4b12      	ldr	r3, [pc, #72]	; (634 <RtcInit+0x64>)
     5ec:	801a      	strh	r2, [r3, #0]
     5ee:	7a9a      	ldrb	r2, [r3, #10]
     5f0:	09d2      	lsrs	r2, r2, #7
     5f2:	d1fc      	bne.n	5ee <RtcInit+0x1e>
     5f4:	7a9a      	ldrb	r2, [r3, #10]
     5f6:	09d2      	lsrs	r2, r2, #7
     5f8:	d1fc      	bne.n	5f4 <RtcInit+0x24>
     5fa:	4a0f      	ldr	r2, [pc, #60]	; (638 <RtcInit+0x68>)
     5fc:	829a      	strh	r2, [r3, #20]
     5fe:	7a9a      	ldrb	r2, [r3, #10]
     600:	09d2      	lsrs	r2, r2, #7
     602:	d1fc      	bne.n	5fe <RtcInit+0x2e>
     604:	8859      	ldrh	r1, [r3, #2]
     606:	4a0d      	ldr	r2, [pc, #52]	; (63c <RtcInit+0x6c>)
     608:	430a      	orrs	r2, r1
     60a:	805a      	strh	r2, [r3, #2]
     60c:	2280      	movs	r2, #128	; 0x80
     60e:	71da      	strb	r2, [r3, #7]
     610:	8819      	ldrh	r1, [r3, #0]
     612:	3a7e      	subs	r2, #126	; 0x7e
     614:	430a      	orrs	r2, r1
     616:	801a      	strh	r2, [r3, #0]
     618:	7a9a      	ldrb	r2, [r3, #10]
     61a:	09d2      	lsrs	r2, r2, #7
     61c:	d1fc      	bne.n	618 <RtcInit+0x48>
     61e:	4b08      	ldr	r3, [pc, #32]	; (640 <RtcInit+0x70>)
     620:	3208      	adds	r2, #8
     622:	601a      	str	r2, [r3, #0]
     624:	4770      	bx	lr
     626:	46c0      	nop			; (mov r8, r8)
     628:	40000c00 	.word	0x40000c00
     62c:	00230002 	.word	0x00230002
     630:	00004204 	.word	0x00004204
     634:	40001400 	.word	0x40001400
     638:	000003e6 	.word	0x000003e6
     63c:	00004010 	.word	0x00004010
     640:	e000e100 	.word	0xe000e100

00000644 <RTC_Handler>:
     644:	21fa      	movs	r1, #250	; 0xfa
     646:	4a04      	ldr	r2, [pc, #16]	; (658 <RTC_Handler+0x14>)
     648:	0089      	lsls	r1, r1, #2
     64a:	6813      	ldr	r3, [r2, #0]
     64c:	185b      	adds	r3, r3, r1
     64e:	6013      	str	r3, [r2, #0]
     650:	22ff      	movs	r2, #255	; 0xff
     652:	4b02      	ldr	r3, [pc, #8]	; (65c <RTC_Handler+0x18>)
     654:	721a      	strb	r2, [r3, #8]
     656:	4770      	bx	lr
     658:	2000045c 	.word	0x2000045c
     65c:	40001400 	.word	0x40001400

00000660 <millis>:
     660:	b530      	push	{r4, r5, lr}
     662:	f3ef 8110 	mrs	r1, PRIMASK
     666:	b672      	cpsid	i
     668:	4b09      	ldr	r3, [pc, #36]	; (690 <millis+0x30>)
     66a:	4c0a      	ldr	r4, [pc, #40]	; (694 <millis+0x34>)
     66c:	8a18      	ldrh	r0, [r3, #16]
     66e:	6825      	ldr	r5, [r4, #0]
     670:	7a1a      	ldrb	r2, [r3, #8]
     672:	b280      	uxth	r0, r0
     674:	09d2      	lsrs	r2, r2, #7
     676:	1940      	adds	r0, r0, r5
     678:	2a00      	cmp	r2, #0
     67a:	d005      	beq.n	688 <millis+0x28>
     67c:	22fa      	movs	r2, #250	; 0xfa
     67e:	8a1b      	ldrh	r3, [r3, #16]
     680:	6820      	ldr	r0, [r4, #0]
     682:	0092      	lsls	r2, r2, #2
     684:	1880      	adds	r0, r0, r2
     686:	18c0      	adds	r0, r0, r3
     688:	f381 8810 	msr	PRIMASK, r1
     68c:	bd30      	pop	{r4, r5, pc}
     68e:	46c0      	nop			; (mov r8, r8)
     690:	40001400 	.word	0x40001400
     694:	2000045c 	.word	0x2000045c

00000698 <gclkEnable>:
     698:	230f      	movs	r3, #15
     69a:	4003      	ands	r3, r0
     69c:	4808      	ldr	r0, [pc, #32]	; (6c0 <gclkEnable+0x28>)
     69e:	0212      	lsls	r2, r2, #8
     6a0:	4002      	ands	r2, r0
     6a2:	20f8      	movs	r0, #248	; 0xf8
     6a4:	0209      	lsls	r1, r1, #8
     6a6:	0140      	lsls	r0, r0, #5
     6a8:	4001      	ands	r1, r0
     6aa:	2080      	movs	r0, #128	; 0x80
     6ac:	b510      	push	{r4, lr}
     6ae:	0240      	lsls	r0, r0, #9
     6b0:	4c04      	ldr	r4, [pc, #16]	; (6c4 <gclkEnable+0x2c>)
     6b2:	4308      	orrs	r0, r1
     6b4:	431a      	orrs	r2, r3
     6b6:	4318      	orrs	r0, r3
     6b8:	60a2      	str	r2, [r4, #8]
     6ba:	6060      	str	r0, [r4, #4]
     6bc:	bd10      	pop	{r4, pc}
     6be:	46c0      	nop			; (mov r8, r8)
     6c0:	00ffff00 	.word	0x00ffff00
     6c4:	40000c00 	.word	0x40000c00

000006c8 <delayInit>:
     6c8:	4b04      	ldr	r3, [pc, #16]	; (6dc <delayInit+0x14>)
     6ca:	4a05      	ldr	r2, [pc, #20]	; (6e0 <delayInit+0x18>)
     6cc:	601a      	str	r2, [r3, #0]
     6ce:	2230      	movs	r2, #48	; 0x30
     6d0:	605a      	str	r2, [r3, #4]
     6d2:	4b04      	ldr	r3, [pc, #16]	; (6e4 <delayInit+0x1c>)
     6d4:	3a2b      	subs	r2, #43	; 0x2b
     6d6:	601a      	str	r2, [r3, #0]
     6d8:	4770      	bx	lr
     6da:	46c0      	nop			; (mov r8, r8)
     6dc:	20000004 	.word	0x20000004
     6e0:	0000bb80 	.word	0x0000bb80
     6e4:	e000e010 	.word	0xe000e010

000006e8 <delay_us>:
     6e8:	b530      	push	{r4, r5, lr}
     6ea:	2480      	movs	r4, #128	; 0x80
     6ec:	2100      	movs	r1, #0
     6ee:	4b07      	ldr	r3, [pc, #28]	; (70c <delay_us+0x24>)
     6f0:	0264      	lsls	r4, r4, #9
     6f2:	685a      	ldr	r2, [r3, #4]
     6f4:	4b06      	ldr	r3, [pc, #24]	; (710 <delay_us+0x28>)
     6f6:	3801      	subs	r0, #1
     6f8:	d200      	bcs.n	6fc <delay_us+0x14>
     6fa:	bd30      	pop	{r4, r5, pc}
     6fc:	2a00      	cmp	r2, #0
     6fe:	d0fa      	beq.n	6f6 <delay_us+0xe>
     700:	605a      	str	r2, [r3, #4]
     702:	6099      	str	r1, [r3, #8]
     704:	681d      	ldr	r5, [r3, #0]
     706:	4225      	tst	r5, r4
     708:	d0fc      	beq.n	704 <delay_us+0x1c>
     70a:	e7f4      	b.n	6f6 <delay_us+0xe>
     70c:	20000004 	.word	0x20000004
     710:	e000e010 	.word	0xe000e010

00000714 <delay_ms>:
     714:	b530      	push	{r4, r5, lr}
     716:	2480      	movs	r4, #128	; 0x80
     718:	2100      	movs	r1, #0
     71a:	4b07      	ldr	r3, [pc, #28]	; (738 <delay_ms+0x24>)
     71c:	0264      	lsls	r4, r4, #9
     71e:	681a      	ldr	r2, [r3, #0]
     720:	4b06      	ldr	r3, [pc, #24]	; (73c <delay_ms+0x28>)
     722:	3801      	subs	r0, #1
     724:	d200      	bcs.n	728 <delay_ms+0x14>
     726:	bd30      	pop	{r4, r5, pc}
     728:	2a00      	cmp	r2, #0
     72a:	d0fa      	beq.n	722 <delay_ms+0xe>
     72c:	605a      	str	r2, [r3, #4]
     72e:	6099      	str	r1, [r3, #8]
     730:	681d      	ldr	r5, [r3, #0]
     732:	4225      	tst	r5, r4
     734:	d0fc      	beq.n	730 <delay_ms+0x1c>
     736:	e7f4      	b.n	722 <delay_ms+0xe>
     738:	20000004 	.word	0x20000004
     73c:	e000e010 	.word	0xe000e010

00000740 <dmaInit>:
     740:	b5f8      	push	{r3, r4, r5, r6, r7, lr}
     742:	27c0      	movs	r7, #192	; 0xc0
     744:	4d10      	ldr	r5, [pc, #64]	; (788 <dmaInit+0x48>)
     746:	003a      	movs	r2, r7
     748:	4e10      	ldr	r6, [pc, #64]	; (78c <dmaInit+0x4c>)
     74a:	0028      	movs	r0, r5
     74c:	2100      	movs	r1, #0
     74e:	47b0      	blx	r6
     750:	4c0f      	ldr	r4, [pc, #60]	; (790 <dmaInit+0x50>)
     752:	003a      	movs	r2, r7
     754:	2100      	movs	r1, #0
     756:	0020      	movs	r0, r4
     758:	47b0      	blx	r6
     75a:	2220      	movs	r2, #32
     75c:	4b0d      	ldr	r3, [pc, #52]	; (794 <dmaInit+0x54>)
     75e:	6959      	ldr	r1, [r3, #20]
     760:	430a      	orrs	r2, r1
     762:	615a      	str	r2, [r3, #20]
     764:	2210      	movs	r2, #16
     766:	69d9      	ldr	r1, [r3, #28]
     768:	430a      	orrs	r2, r1
     76a:	2102      	movs	r1, #2
     76c:	61da      	str	r2, [r3, #28]
     76e:	4b0a      	ldr	r3, [pc, #40]	; (798 <dmaInit+0x58>)
     770:	881a      	ldrh	r2, [r3, #0]
     772:	438a      	bics	r2, r1
     774:	801a      	strh	r2, [r3, #0]
     776:	2201      	movs	r2, #1
     778:	8819      	ldrh	r1, [r3, #0]
     77a:	430a      	orrs	r2, r1
     77c:	801a      	strh	r2, [r3, #0]
     77e:	4a07      	ldr	r2, [pc, #28]	; (79c <dmaInit+0x5c>)
     780:	635d      	str	r5, [r3, #52]	; 0x34
     782:	639c      	str	r4, [r3, #56]	; 0x38
     784:	801a      	strh	r2, [r3, #0]
     786:	bdf8      	pop	{r3, r4, r5, r6, r7, pc}
     788:	20000520 	.word	0x20000520
     78c:	00001b91 	.word	0x00001b91
     790:	20000460 	.word	0x20000460
     794:	40000400 	.word	0x40000400
     798:	41004800 	.word	0x41004800
     79c:	00000f02 	.word	0x00000f02

000007a0 <readMS5803AdcResults>:
     7a0:	b5f7      	push	{r0, r1, r2, r4, r5, r6, r7, lr}
     7a2:	2780      	movs	r7, #128	; 0x80
     7a4:	4e0c      	ldr	r6, [pc, #48]	; (7d8 <readMS5803AdcResults+0x38>)
     7a6:	01ff      	lsls	r7, r7, #7
     7a8:	4d0c      	ldr	r5, [pc, #48]	; (7dc <readMS5803AdcResults+0x3c>)
     7aa:	6177      	str	r7, [r6, #20]
     7ac:	2100      	movs	r1, #0
     7ae:	2002      	movs	r0, #2
     7b0:	47a8      	blx	r5
     7b2:	21ff      	movs	r1, #255	; 0xff
     7b4:	2002      	movs	r0, #2
     7b6:	47a8      	blx	r5
     7b8:	21ff      	movs	r1, #255	; 0xff
     7ba:	0004      	movs	r4, r0
     7bc:	2002      	movs	r0, #2
     7be:	47a8      	blx	r5
     7c0:	21ff      	movs	r1, #255	; 0xff
     7c2:	9001      	str	r0, [sp, #4]
     7c4:	2002      	movs	r0, #2
     7c6:	47a8      	blx	r5
     7c8:	61b7      	str	r7, [r6, #24]
     7ca:	9b01      	ldr	r3, [sp, #4]
     7cc:	0424      	lsls	r4, r4, #16
     7ce:	021b      	lsls	r3, r3, #8
     7d0:	431c      	orrs	r4, r3
     7d2:	4320      	orrs	r0, r4
     7d4:	bdfe      	pop	{r1, r2, r3, r4, r5, r6, r7, pc}
     7d6:	46c0      	nop			; (mov r8, r8)
     7d8:	41004400 	.word	0x41004400
     7dc:	00000c85 	.word	0x00000c85

000007e0 <ConvertPressureTemperature>:
     7e0:	b5f0      	push	{r4, r5, r6, r7, lr}
     7e2:	240a      	movs	r4, #10
     7e4:	b08b      	sub	sp, #44	; 0x2c
     7e6:	8803      	ldrh	r3, [r0, #0]
     7e8:	aa02      	add	r2, sp, #8
     7ea:	8093      	strh	r3, [r2, #4]
     7ec:	8843      	ldrh	r3, [r0, #2]
     7ee:	18a4      	adds	r4, r4, r2
     7f0:	80d3      	strh	r3, [r2, #6]
     7f2:	8883      	ldrh	r3, [r0, #4]
     7f4:	1d95      	adds	r5, r2, #6
     7f6:	8113      	strh	r3, [r2, #8]
     7f8:	88c3      	ldrh	r3, [r0, #6]
     7fa:	0006      	movs	r6, r0
     7fc:	8023      	strh	r3, [r4, #0]
     7fe:	8902      	ldrh	r2, [r0, #8]
     800:	ab05      	add	r3, sp, #20
     802:	801a      	strh	r2, [r3, #0]
     804:	220e      	movs	r2, #14
     806:	8941      	ldrh	r1, [r0, #10]
     808:	a802      	add	r0, sp, #8
     80a:	1812      	adds	r2, r2, r0
     80c:	8011      	strh	r1, [r2, #0]
     80e:	881b      	ldrh	r3, [r3, #0]
     810:	6931      	ldr	r1, [r6, #16]
     812:	021b      	lsls	r3, r3, #8
     814:	8810      	ldrh	r0, [r2, #0]
     816:	1acb      	subs	r3, r1, r3
     818:	9300      	str	r3, [sp, #0]
     81a:	17db      	asrs	r3, r3, #31
     81c:	9301      	str	r3, [sp, #4]
     81e:	9a00      	ldr	r2, [sp, #0]
     820:	4f29      	ldr	r7, [pc, #164]	; (8c8 <ConvertPressureTemperature+0xe8>)
     822:	b280      	uxth	r0, r0
     824:	2100      	movs	r1, #0
     826:	47b8      	blx	r7
     828:	23fa      	movs	r3, #250	; 0xfa
     82a:	00db      	lsls	r3, r3, #3
     82c:	18c9      	adds	r1, r1, r3
     82e:	882b      	ldrh	r3, [r5, #0]
     830:	8820      	ldrh	r0, [r4, #0]
     832:	b29b      	uxth	r3, r3
     834:	6171      	str	r1, [r6, #20]
     836:	001f      	movs	r7, r3
     838:	9a00      	ldr	r2, [sp, #0]
     83a:	9b01      	ldr	r3, [sp, #4]
     83c:	4c22      	ldr	r4, [pc, #136]	; (8c8 <ConvertPressureTemperature+0xe8>)
     83e:	b280      	uxth	r0, r0
     840:	2100      	movs	r1, #0
     842:	47a0      	blx	r4
     844:	064b      	lsls	r3, r1, #25
     846:	09c4      	lsrs	r4, r0, #7
     848:	431c      	orrs	r4, r3
     84a:	2300      	movs	r3, #0
     84c:	11cd      	asrs	r5, r1, #7
     84e:	043a      	lsls	r2, r7, #16
     850:	1912      	adds	r2, r2, r4
     852:	416b      	adcs	r3, r5
     854:	9206      	str	r2, [sp, #24]
     856:	9307      	str	r3, [sp, #28]
     858:	ab02      	add	r3, sp, #8
     85a:	889c      	ldrh	r4, [r3, #4]
     85c:	8918      	ldrh	r0, [r3, #8]
     85e:	9a00      	ldr	r2, [sp, #0]
     860:	9b01      	ldr	r3, [sp, #4]
     862:	4d19      	ldr	r5, [pc, #100]	; (8c8 <ConvertPressureTemperature+0xe8>)
     864:	b280      	uxth	r0, r0
     866:	2100      	movs	r1, #0
     868:	47a8      	blx	r5
     86a:	060d      	lsls	r5, r1, #24
     86c:	120b      	asrs	r3, r1, #8
     86e:	2100      	movs	r1, #0
     870:	b2a4      	uxth	r4, r4
     872:	0a02      	lsrs	r2, r0, #8
     874:	432a      	orrs	r2, r5
     876:	03e0      	lsls	r0, r4, #15
     878:	1812      	adds	r2, r2, r0
     87a:	414b      	adcs	r3, r1
     87c:	9208      	str	r2, [sp, #32]
     87e:	9309      	str	r3, [sp, #36]	; 0x24
     880:	9a08      	ldr	r2, [sp, #32]
     882:	9b09      	ldr	r3, [sp, #36]	; 0x24
     884:	9c06      	ldr	r4, [sp, #24]
     886:	9d07      	ldr	r5, [sp, #28]
     888:	4f0f      	ldr	r7, [pc, #60]	; (8c8 <ConvertPressureTemperature+0xe8>)
     88a:	68f0      	ldr	r0, [r6, #12]
     88c:	47b8      	blx	r7
     88e:	17cb      	asrs	r3, r1, #31
     890:	02db      	lsls	r3, r3, #11
     892:	469c      	mov	ip, r3
     894:	4667      	mov	r7, ip
     896:	2300      	movs	r3, #0
     898:	0afa      	lsrs	r2, r7, #11
     89a:	1880      	adds	r0, r0, r2
     89c:	4159      	adcs	r1, r3
     89e:	02cb      	lsls	r3, r1, #11
     8a0:	469c      	mov	ip, r3
     8a2:	4667      	mov	r7, ip
     8a4:	0d42      	lsrs	r2, r0, #21
     8a6:	433a      	orrs	r2, r7
     8a8:	154b      	asrs	r3, r1, #21
     8aa:	1b12      	subs	r2, r2, r4
     8ac:	41ab      	sbcs	r3, r5
     8ae:	2100      	movs	r1, #0
     8b0:	17dc      	asrs	r4, r3, #31
     8b2:	0464      	lsls	r4, r4, #17
     8b4:	0c60      	lsrs	r0, r4, #17
     8b6:	1812      	adds	r2, r2, r0
     8b8:	414b      	adcs	r3, r1
     8ba:	0011      	movs	r1, r2
     8bc:	045b      	lsls	r3, r3, #17
     8be:	0bca      	lsrs	r2, r1, #15
     8c0:	431a      	orrs	r2, r3
     8c2:	61f2      	str	r2, [r6, #28]
     8c4:	b00b      	add	sp, #44	; 0x2c
     8c6:	bdf0      	pop	{r4, r5, r6, r7, pc}
     8c8:	00000c9d 	.word	0x00000c9d

000008cc <pascalToCent>:
     8cc:	b570      	push	{r4, r5, r6, lr}
     8ce:	0004      	movs	r4, r0
     8d0:	490f      	ldr	r1, [pc, #60]	; (910 <pascalToCent+0x44>)
     8d2:	69c0      	ldr	r0, [r0, #28]
     8d4:	61a0      	str	r0, [r4, #24]
     8d6:	4288      	cmp	r0, r1
     8d8:	d902      	bls.n	8e0 <pascalToCent+0x14>
     8da:	4b0e      	ldr	r3, [pc, #56]	; (914 <pascalToCent+0x48>)
     8dc:	6223      	str	r3, [r4, #32]
     8de:	bd70      	pop	{r4, r5, r6, pc}
     8e0:	1a0b      	subs	r3, r1, r0
     8e2:	0a9b      	lsrs	r3, r3, #10
     8e4:	2b4b      	cmp	r3, #75	; 0x4b
     8e6:	d901      	bls.n	8ec <pascalToCent+0x20>
     8e8:	4b0b      	ldr	r3, [pc, #44]	; (918 <pascalToCent+0x4c>)
     8ea:	e7f7      	b.n	8dc <pascalToCent+0x10>
     8ec:	4d0b      	ldr	r5, [pc, #44]	; (91c <pascalToCent+0x50>)
     8ee:	009a      	lsls	r2, r3, #2
     8f0:	029e      	lsls	r6, r3, #10
     8f2:	3301      	adds	r3, #1
     8f4:	009b      	lsls	r3, r3, #2
     8f6:	1b89      	subs	r1, r1, r6
     8f8:	5952      	ldr	r2, [r2, r5]
     8fa:	1a09      	subs	r1, r1, r0
     8fc:	5958      	ldr	r0, [r3, r5]
     8fe:	4b08      	ldr	r3, [pc, #32]	; (920 <pascalToCent+0x54>)
     900:	1a80      	subs	r0, r0, r2
     902:	4348      	muls	r0, r1
     904:	0a80      	lsrs	r0, r0, #10
     906:	1880      	adds	r0, r0, r2
     908:	4798      	blx	r3
     90a:	6220      	str	r0, [r4, #32]
     90c:	e7e7      	b.n	8de <pascalToCent+0x12>
     90e:	46c0      	nop			; (mov r8, r8)
     910:	000199cc 	.word	0x000199cc
     914:	c6e5c000 	.word	0xc6e5c000
     918:	497048e0 	.word	0x497048e0
     91c:	00001d60 	.word	0x00001d60
     920:	00001345 	.word	0x00001345

00000924 <readMS5803Coefficients>:
     924:	b5f7      	push	{r0, r1, r2, r4, r5, r6, r7, lr}
     926:	0005      	movs	r5, r0
     928:	24a2      	movs	r4, #162	; 0xa2
     92a:	2096      	movs	r0, #150	; 0x96
     92c:	4e10      	ldr	r6, [pc, #64]	; (970 <readMS5803Coefficients+0x4c>)
     92e:	0080      	lsls	r0, r0, #2
     930:	47b0      	blx	r6
     932:	2096      	movs	r0, #150	; 0x96
     934:	0080      	lsls	r0, r0, #2
     936:	47b0      	blx	r6
     938:	2380      	movs	r3, #128	; 0x80
     93a:	4f0e      	ldr	r7, [pc, #56]	; (974 <readMS5803Coefficients+0x50>)
     93c:	01db      	lsls	r3, r3, #7
     93e:	617b      	str	r3, [r7, #20]
     940:	0021      	movs	r1, r4
     942:	4e0d      	ldr	r6, [pc, #52]	; (978 <readMS5803Coefficients+0x54>)
     944:	2002      	movs	r0, #2
     946:	47b0      	blx	r6
     948:	21ff      	movs	r1, #255	; 0xff
     94a:	2002      	movs	r0, #2
     94c:	47b0      	blx	r6
     94e:	21ff      	movs	r1, #255	; 0xff
     950:	9001      	str	r0, [sp, #4]
     952:	2002      	movs	r0, #2
     954:	47b0      	blx	r6
     956:	2380      	movs	r3, #128	; 0x80
     958:	01db      	lsls	r3, r3, #7
     95a:	61bb      	str	r3, [r7, #24]
     95c:	9b01      	ldr	r3, [sp, #4]
     95e:	3402      	adds	r4, #2
     960:	021b      	lsls	r3, r3, #8
     962:	4318      	orrs	r0, r3
     964:	b2e4      	uxtb	r4, r4
     966:	8028      	strh	r0, [r5, #0]
     968:	3502      	adds	r5, #2
     96a:	2cae      	cmp	r4, #174	; 0xae
     96c:	d1dd      	bne.n	92a <readMS5803Coefficients+0x6>
     96e:	bdf7      	pop	{r0, r1, r2, r4, r5, r6, r7, pc}
     970:	000006e9 	.word	0x000006e9
     974:	41004400 	.word	0x41004400
     978:	00000c85 	.word	0x00000c85

0000097c <initMS5803Barometer>:
     97c:	b570      	push	{r4, r5, r6, lr}
     97e:	2680      	movs	r6, #128	; 0x80
     980:	0004      	movs	r4, r0
     982:	4d0d      	ldr	r5, [pc, #52]	; (9b8 <initMS5803Barometer+0x3c>)
     984:	01f6      	lsls	r6, r6, #7
     986:	616e      	str	r6, [r5, #20]
     988:	211e      	movs	r1, #30
     98a:	4b0c      	ldr	r3, [pc, #48]	; (9bc <initMS5803Barometer+0x40>)
     98c:	2002      	movs	r0, #2
     98e:	4798      	blx	r3
     990:	61ae      	str	r6, [r5, #24]
     992:	20c8      	movs	r0, #200	; 0xc8
     994:	4b0a      	ldr	r3, [pc, #40]	; (9c0 <initMS5803Barometer+0x44>)
     996:	4798      	blx	r3
     998:	0020      	movs	r0, r4
     99a:	4b0a      	ldr	r3, [pc, #40]	; (9c4 <initMS5803Barometer+0x48>)
     99c:	4798      	blx	r3
     99e:	4b0a      	ldr	r3, [pc, #40]	; (9c8 <initMS5803Barometer+0x4c>)
     9a0:	6223      	str	r3, [r4, #32]
     9a2:	4b0a      	ldr	r3, [pc, #40]	; (9cc <initMS5803Barometer+0x50>)
     9a4:	61a3      	str	r3, [r4, #24]
     9a6:	4b0a      	ldr	r3, [pc, #40]	; (9d0 <initMS5803Barometer+0x54>)
     9a8:	60e3      	str	r3, [r4, #12]
     9aa:	4b0a      	ldr	r3, [pc, #40]	; (9d4 <initMS5803Barometer+0x58>)
     9ac:	6123      	str	r3, [r4, #16]
     9ae:	23fa      	movs	r3, #250	; 0xfa
     9b0:	00db      	lsls	r3, r3, #3
     9b2:	6163      	str	r3, [r4, #20]
     9b4:	bd70      	pop	{r4, r5, r6, pc}
     9b6:	46c0      	nop			; (mov r8, r8)
     9b8:	41004400 	.word	0x41004400
     9bc:	00000c85 	.word	0x00000c85
     9c0:	00000715 	.word	0x00000715
     9c4:	00000925 	.word	0x00000925
     9c8:	457a0000 	.word	0x457a0000
     9cc:	00002710 	.word	0x00002710
     9d0:	0041c9fe 	.word	0x0041c9fe
     9d4:	007ffae4 	.word	0x007ffae4

000009d8 <sampleTick>:
     9d8:	4b65      	ldr	r3, [pc, #404]	; (b70 <sampleTick+0x198>)
     9da:	b5f7      	push	{r0, r1, r2, r4, r5, r6, r7, lr}
     9dc:	785a      	ldrb	r2, [r3, #1]
     9de:	0006      	movs	r6, r0
     9e0:	7818      	ldrb	r0, [r3, #0]
     9e2:	0212      	lsls	r2, r2, #8
     9e4:	4302      	orrs	r2, r0
     9e6:	7898      	ldrb	r0, [r3, #2]
     9e8:	7919      	ldrb	r1, [r3, #4]
     9ea:	0400      	lsls	r0, r0, #16
     9ec:	4302      	orrs	r2, r0
     9ee:	78d8      	ldrb	r0, [r3, #3]
     9f0:	4b60      	ldr	r3, [pc, #384]	; (b74 <sampleTick+0x19c>)
     9f2:	0600      	lsls	r0, r0, #24
     9f4:	4310      	orrs	r0, r2
     9f6:	4798      	blx	r3
     9f8:	4b5f      	ldr	r3, [pc, #380]	; (b78 <sampleTick+0x1a0>)
     9fa:	4798      	blx	r3
     9fc:	4a5f      	ldr	r2, [pc, #380]	; (b7c <sampleTick+0x1a4>)
     9fe:	4c60      	ldr	r4, [pc, #384]	; (b80 <sampleTick+0x1a8>)
     a00:	4b60      	ldr	r3, [pc, #384]	; (b84 <sampleTick+0x1ac>)
     a02:	47a0      	blx	r4
     a04:	2780      	movs	r7, #128	; 0x80
     a06:	4b60      	ldr	r3, [pc, #384]	; (b88 <sampleTick+0x1b0>)
     a08:	4798      	blx	r3
     a0a:	4c60      	ldr	r4, [pc, #384]	; (b8c <sampleTick+0x1b4>)
     a0c:	01ff      	lsls	r7, r7, #7
     a0e:	2150      	movs	r1, #80	; 0x50
     a10:	66b0      	str	r0, [r6, #104]	; 0x68
     a12:	4b5f      	ldr	r3, [pc, #380]	; (b90 <sampleTick+0x1b8>)
     a14:	6167      	str	r7, [r4, #20]
     a16:	2002      	movs	r0, #2
     a18:	4798      	blx	r3
     a1a:	4b5e      	ldr	r3, [pc, #376]	; (b94 <sampleTick+0x1bc>)
     a1c:	61a7      	str	r7, [r4, #24]
     a1e:	2002      	movs	r0, #2
     a20:	4798      	blx	r3
     a22:	4d5d      	ldr	r5, [pc, #372]	; (b98 <sampleTick+0x1c0>)
     a24:	47a8      	blx	r5
     a26:	2142      	movs	r1, #66	; 0x42
     a28:	6130      	str	r0, [r6, #16]
     a2a:	4b59      	ldr	r3, [pc, #356]	; (b90 <sampleTick+0x1b8>)
     a2c:	6167      	str	r7, [r4, #20]
     a2e:	2002      	movs	r0, #2
     a30:	4798      	blx	r3
     a32:	4b58      	ldr	r3, [pc, #352]	; (b94 <sampleTick+0x1bc>)
     a34:	61a7      	str	r7, [r4, #24]
     a36:	2002      	movs	r0, #2
     a38:	4798      	blx	r3
     a3a:	47a8      	blx	r5
     a3c:	4b57      	ldr	r3, [pc, #348]	; (b9c <sampleTick+0x1c4>)
     a3e:	60f0      	str	r0, [r6, #12]
     a40:	0030      	movs	r0, r6
     a42:	4798      	blx	r3
     a44:	4b56      	ldr	r3, [pc, #344]	; (ba0 <sampleTick+0x1c8>)
     a46:	0030      	movs	r0, r6
     a48:	4798      	blx	r3
     a4a:	6a30      	ldr	r0, [r6, #32]
     a4c:	4f55      	ldr	r7, [pc, #340]	; (ba4 <sampleTick+0x1cc>)
     a4e:	47b8      	blx	r7
     a50:	4a55      	ldr	r2, [pc, #340]	; (ba8 <sampleTick+0x1d0>)
     a52:	4d4b      	ldr	r5, [pc, #300]	; (b80 <sampleTick+0x1a8>)
     a54:	4b55      	ldr	r3, [pc, #340]	; (bac <sampleTick+0x1d4>)
     a56:	47a8      	blx	r5
     a58:	4b4b      	ldr	r3, [pc, #300]	; (b88 <sampleTick+0x1b0>)
     a5a:	4798      	blx	r3
     a5c:	2380      	movs	r3, #128	; 0x80
     a5e:	035b      	lsls	r3, r3, #13
     a60:	6270      	str	r0, [r6, #36]	; 0x24
     a62:	21ba      	movs	r1, #186	; 0xba
     a64:	6163      	str	r3, [r4, #20]
     a66:	2002      	movs	r0, #2
     a68:	4b49      	ldr	r3, [pc, #292]	; (b90 <sampleTick+0x1b8>)
     a6a:	4798      	blx	r3
     a6c:	0035      	movs	r5, r6
     a6e:	21ff      	movs	r1, #255	; 0xff
     a70:	4b47      	ldr	r3, [pc, #284]	; (b90 <sampleTick+0x1b8>)
     a72:	2002      	movs	r0, #2
     a74:	4798      	blx	r3
     a76:	354c      	adds	r5, #76	; 0x4c
     a78:	7028      	strb	r0, [r5, #0]
     a7a:	21ff      	movs	r1, #255	; 0xff
     a7c:	4b44      	ldr	r3, [pc, #272]	; (b90 <sampleTick+0x1b8>)
     a7e:	2002      	movs	r0, #2
     a80:	4798      	blx	r3
     a82:	0033      	movs	r3, r6
     a84:	334d      	adds	r3, #77	; 0x4d
     a86:	7018      	strb	r0, [r3, #0]
     a88:	2380      	movs	r3, #128	; 0x80
     a8a:	035b      	lsls	r3, r3, #13
     a8c:	61a3      	str	r3, [r4, #24]
     a8e:	b243      	sxtb	r3, r0
     a90:	469c      	mov	ip, r3
     a92:	0202      	lsls	r2, r0, #8
     a94:	4660      	mov	r0, ip
     a96:	7829      	ldrb	r1, [r5, #0]
     a98:	4b45      	ldr	r3, [pc, #276]	; (bb0 <sampleTick+0x1d8>)
     a9a:	2800      	cmp	r0, #0
     a9c:	da66      	bge.n	b6c <sampleTick+0x194>
     a9e:	4845      	ldr	r0, [pc, #276]	; (bb4 <sampleTick+0x1dc>)
     aa0:	4308      	orrs	r0, r1
     aa2:	4310      	orrs	r0, r2
     aa4:	4798      	blx	r3
     aa6:	62b0      	str	r0, [r6, #40]	; 0x28
     aa8:	6ab0      	ldr	r0, [r6, #40]	; 0x28
     aaa:	47b8      	blx	r7
     aac:	4a42      	ldr	r2, [pc, #264]	; (bb8 <sampleTick+0x1e0>)
     aae:	4d34      	ldr	r5, [pc, #208]	; (b80 <sampleTick+0x1a8>)
     ab0:	4b42      	ldr	r3, [pc, #264]	; (bbc <sampleTick+0x1e4>)
     ab2:	47a8      	blx	r5
     ab4:	2780      	movs	r7, #128	; 0x80
     ab6:	4b34      	ldr	r3, [pc, #208]	; (b88 <sampleTick+0x1b0>)
     ab8:	4798      	blx	r3
     aba:	037f      	lsls	r7, r7, #13
     abc:	4d34      	ldr	r5, [pc, #208]	; (b90 <sampleTick+0x1b8>)
     abe:	62b0      	str	r0, [r6, #40]	; 0x28
     ac0:	21bc      	movs	r1, #188	; 0xbc
     ac2:	6167      	str	r7, [r4, #20]
     ac4:	2002      	movs	r0, #2
     ac6:	47a8      	blx	r5
     ac8:	21ff      	movs	r1, #255	; 0xff
     aca:	2002      	movs	r0, #2
     acc:	47a8      	blx	r5
     ace:	0033      	movs	r3, r6
     ad0:	334e      	adds	r3, #78	; 0x4e
     ad2:	7018      	strb	r0, [r3, #0]
     ad4:	21ff      	movs	r1, #255	; 0xff
     ad6:	2002      	movs	r0, #2
     ad8:	9301      	str	r3, [sp, #4]
     ada:	47a8      	blx	r5
     adc:	0033      	movs	r3, r6
     ade:	334f      	adds	r3, #79	; 0x4f
     ae0:	7018      	strb	r0, [r3, #0]
     ae2:	61a7      	str	r7, [r4, #24]
     ae4:	9a01      	ldr	r2, [sp, #4]
     ae6:	b245      	sxtb	r5, r0
     ae8:	7811      	ldrb	r1, [r2, #0]
     aea:	0202      	lsls	r2, r0, #8
     aec:	4b30      	ldr	r3, [pc, #192]	; (bb0 <sampleTick+0x1d8>)
     aee:	1850      	adds	r0, r2, r1
     af0:	2d00      	cmp	r5, #0
     af2:	da02      	bge.n	afa <sampleTick+0x122>
     af4:	482f      	ldr	r0, [pc, #188]	; (bb4 <sampleTick+0x1dc>)
     af6:	4308      	orrs	r0, r1
     af8:	4310      	orrs	r0, r2
     afa:	4798      	blx	r3
     afc:	62f0      	str	r0, [r6, #44]	; 0x2c
     afe:	6af0      	ldr	r0, [r6, #44]	; 0x2c
     b00:	4b28      	ldr	r3, [pc, #160]	; (ba4 <sampleTick+0x1cc>)
     b02:	4798      	blx	r3
     b04:	4a2c      	ldr	r2, [pc, #176]	; (bb8 <sampleTick+0x1e0>)
     b06:	4d1e      	ldr	r5, [pc, #120]	; (b80 <sampleTick+0x1a8>)
     b08:	4b2c      	ldr	r3, [pc, #176]	; (bbc <sampleTick+0x1e4>)
     b0a:	47a8      	blx	r5
     b0c:	2780      	movs	r7, #128	; 0x80
     b0e:	4b1e      	ldr	r3, [pc, #120]	; (b88 <sampleTick+0x1b0>)
     b10:	4798      	blx	r3
     b12:	037f      	lsls	r7, r7, #13
     b14:	62f0      	str	r0, [r6, #44]	; 0x2c
     b16:	4d1e      	ldr	r5, [pc, #120]	; (b90 <sampleTick+0x1b8>)
     b18:	6167      	str	r7, [r4, #20]
     b1a:	21be      	movs	r1, #190	; 0xbe
     b1c:	2002      	movs	r0, #2
     b1e:	47a8      	blx	r5
     b20:	21ff      	movs	r1, #255	; 0xff
     b22:	2002      	movs	r0, #2
     b24:	47a8      	blx	r5
     b26:	0033      	movs	r3, r6
     b28:	3350      	adds	r3, #80	; 0x50
     b2a:	7018      	strb	r0, [r3, #0]
     b2c:	21ff      	movs	r1, #255	; 0xff
     b2e:	2002      	movs	r0, #2
     b30:	9301      	str	r3, [sp, #4]
     b32:	47a8      	blx	r5
     b34:	0033      	movs	r3, r6
     b36:	3351      	adds	r3, #81	; 0x51
     b38:	7018      	strb	r0, [r3, #0]
     b3a:	61a7      	str	r7, [r4, #24]
     b3c:	9a01      	ldr	r2, [sp, #4]
     b3e:	b244      	sxtb	r4, r0
     b40:	7811      	ldrb	r1, [r2, #0]
     b42:	0202      	lsls	r2, r0, #8
     b44:	4b1a      	ldr	r3, [pc, #104]	; (bb0 <sampleTick+0x1d8>)
     b46:	1850      	adds	r0, r2, r1
     b48:	2c00      	cmp	r4, #0
     b4a:	da02      	bge.n	b52 <sampleTick+0x17a>
     b4c:	4819      	ldr	r0, [pc, #100]	; (bb4 <sampleTick+0x1dc>)
     b4e:	4308      	orrs	r0, r1
     b50:	4310      	orrs	r0, r2
     b52:	4798      	blx	r3
     b54:	6330      	str	r0, [r6, #48]	; 0x30
     b56:	6b30      	ldr	r0, [r6, #48]	; 0x30
     b58:	4b12      	ldr	r3, [pc, #72]	; (ba4 <sampleTick+0x1cc>)
     b5a:	4798      	blx	r3
     b5c:	4a16      	ldr	r2, [pc, #88]	; (bb8 <sampleTick+0x1e0>)
     b5e:	4b17      	ldr	r3, [pc, #92]	; (bbc <sampleTick+0x1e4>)
     b60:	4c07      	ldr	r4, [pc, #28]	; (b80 <sampleTick+0x1a8>)
     b62:	47a0      	blx	r4
     b64:	4b08      	ldr	r3, [pc, #32]	; (b88 <sampleTick+0x1b0>)
     b66:	4798      	blx	r3
     b68:	6330      	str	r0, [r6, #48]	; 0x30
     b6a:	bdf7      	pop	{r0, r1, r2, r4, r5, r6, r7, pc}
     b6c:	1850      	adds	r0, r2, r1
     b6e:	e799      	b.n	aa4 <sampleTick+0xcc>
     b70:	00001e94 	.word	0x00001e94
     b74:	000004d1 	.word	0x000004d1
     b78:	000018d1 	.word	0x000018d1
     b7c:	eaa2a0a9 	.word	0xeaa2a0a9
     b80:	000013d1 	.word	0x000013d1
     b84:	3f5f3a57 	.word	0x3f5f3a57
     b88:	000019f9 	.word	0x000019f9
     b8c:	41004400 	.word	0x41004400
     b90:	00000c85 	.word	0x00000c85
     b94:	00000715 	.word	0x00000715
     b98:	000007a1 	.word	0x000007a1
     b9c:	000007e1 	.word	0x000007e1
     ba0:	000008cd 	.word	0x000008cd
     ba4:	00001955 	.word	0x00001955
     ba8:	e9f6a93f 	.word	0xe9f6a93f
     bac:	3fa0cc78 	.word	0x3fa0cc78
     bb0:	000012a5 	.word	0x000012a5
     bb4:	ffff0000 	.word	0xffff0000
     bb8:	d52535ef 	.word	0xd52535ef
     bbc:	3f0fff4e 	.word	0x3f0fff4e

00000bc0 <sercomClockEnable>:
     bc0:	b570      	push	{r4, r5, r6, lr}
     bc2:	0005      	movs	r5, r0
     bc4:	2301      	movs	r3, #1
     bc6:	1cae      	adds	r6, r5, #2
     bc8:	40b3      	lsls	r3, r6
     bca:	000c      	movs	r4, r1
     bcc:	490b      	ldr	r1, [pc, #44]	; (bfc <sercomClockEnable+0x3c>)
     bce:	6a08      	ldr	r0, [r1, #32]
     bd0:	4303      	orrs	r3, r0
     bd2:	620b      	str	r3, [r1, #32]
     bd4:	2c00      	cmp	r4, #0
     bd6:	d003      	beq.n	be0 <sercomClockEnable+0x20>
     bd8:	2107      	movs	r1, #7
     bda:	0020      	movs	r0, r4
     bdc:	4b08      	ldr	r3, [pc, #32]	; (c00 <sercomClockEnable+0x40>)
     bde:	4798      	blx	r3
     be0:	23f0      	movs	r3, #240	; 0xf0
     be2:	0224      	lsls	r4, r4, #8
     be4:	011b      	lsls	r3, r3, #4
     be6:	401c      	ands	r4, r3
     be8:	2380      	movs	r3, #128	; 0x80
     bea:	01db      	lsls	r3, r3, #7
     bec:	431c      	orrs	r4, r3
     bee:	233f      	movs	r3, #63	; 0x3f
     bf0:	3514      	adds	r5, #20
     bf2:	401d      	ands	r5, r3
     bf4:	4b03      	ldr	r3, [pc, #12]	; (c04 <sercomClockEnable+0x44>)
     bf6:	4325      	orrs	r5, r4
     bf8:	805d      	strh	r5, [r3, #2]
     bfa:	bd70      	pop	{r4, r5, r6, pc}
     bfc:	40000400 	.word	0x40000400
     c00:	00000699 	.word	0x00000699
     c04:	40000c00 	.word	0x40000c00

00000c08 <sercomReset>:
     c08:	4b04      	ldr	r3, [pc, #16]	; (c1c <sercomReset+0x14>)
     c0a:	0280      	lsls	r0, r0, #10
     c0c:	18c0      	adds	r0, r0, r3
     c0e:	2301      	movs	r3, #1
     c10:	6003      	str	r3, [r0, #0]
     c12:	6802      	ldr	r2, [r0, #0]
     c14:	421a      	tst	r2, r3
     c16:	d1fc      	bne.n	c12 <sercomReset+0xa>
     c18:	4770      	bx	lr
     c1a:	46c0      	nop			; (mov r8, r8)
     c1c:	42000800 	.word	0x42000800

00000c20 <sercomSpiMasterInit>:
     c20:	b5f7      	push	{r0, r1, r2, r4, r5, r6, r7, lr}
     c22:	0004      	movs	r4, r0
     c24:	9300      	str	r3, [sp, #0]
     c26:	ab08      	add	r3, sp, #32
     c28:	781b      	ldrb	r3, [r3, #0]
     c2a:	0016      	movs	r6, r2
     c2c:	9301      	str	r3, [sp, #4]
     c2e:	ab09      	add	r3, sp, #36	; 0x24
     c30:	781f      	ldrb	r7, [r3, #0]
     c32:	4b12      	ldr	r3, [pc, #72]	; (c7c <sercomSpiMasterInit+0x5c>)
     c34:	000d      	movs	r5, r1
     c36:	4798      	blx	r3
     c38:	4b11      	ldr	r3, [pc, #68]	; (c80 <sercomSpiMasterInit+0x60>)
     c3a:	02a4      	lsls	r4, r4, #10
     c3c:	18e4      	adds	r4, r4, r3
     c3e:	2380      	movs	r3, #128	; 0x80
     c40:	029b      	lsls	r3, r3, #10
     c42:	6063      	str	r3, [r4, #4]
     c44:	23c0      	movs	r3, #192	; 0xc0
     c46:	052d      	lsls	r5, r5, #20
     c48:	039b      	lsls	r3, r3, #14
     c4a:	401d      	ands	r5, r3
     c4c:	23c0      	movs	r3, #192	; 0xc0
     c4e:	0436      	lsls	r6, r6, #16
     c50:	029b      	lsls	r3, r3, #10
     c52:	401e      	ands	r6, r3
     c54:	230e      	movs	r3, #14
     c56:	431e      	orrs	r6, r3
     c58:	9b00      	ldr	r3, [sp, #0]
     c5a:	4335      	orrs	r5, r6
     c5c:	1e5a      	subs	r2, r3, #1
     c5e:	4193      	sbcs	r3, r2
     c60:	9a01      	ldr	r2, [sp, #4]
     c62:	075b      	lsls	r3, r3, #29
     c64:	1e51      	subs	r1, r2, #1
     c66:	418a      	sbcs	r2, r1
     c68:	431d      	orrs	r5, r3
     c6a:	0712      	lsls	r2, r2, #28
     c6c:	4315      	orrs	r5, r2
     c6e:	7327      	strb	r7, [r4, #12]
     c70:	6025      	str	r5, [r4, #0]
     c72:	69e3      	ldr	r3, [r4, #28]
     c74:	075b      	lsls	r3, r3, #29
     c76:	d4fc      	bmi.n	c72 <sercomSpiMasterInit+0x52>
     c78:	bdf7      	pop	{r0, r1, r2, r4, r5, r6, r7, pc}
     c7a:	46c0      	nop			; (mov r8, r8)
     c7c:	00000c09 	.word	0x00000c09
     c80:	42000800 	.word	0x42000800

00000c84 <spiDataTransfer>:
     c84:	4b04      	ldr	r3, [pc, #16]	; (c98 <spiDataTransfer+0x14>)
     c86:	0280      	lsls	r0, r0, #10
     c88:	18c0      	adds	r0, r0, r3
     c8a:	6281      	str	r1, [r0, #40]	; 0x28
     c8c:	7e03      	ldrb	r3, [r0, #24]
     c8e:	075b      	lsls	r3, r3, #29
     c90:	d5fc      	bpl.n	c8c <spiDataTransfer+0x8>
     c92:	6a80      	ldr	r0, [r0, #40]	; 0x28
     c94:	b2c0      	uxtb	r0, r0
     c96:	4770      	bx	lr
     c98:	42000800 	.word	0x42000800

00000c9c <__aeabi_lmul>:
     c9c:	b5f0      	push	{r4, r5, r6, r7, lr}
     c9e:	46ce      	mov	lr, r9
     ca0:	4647      	mov	r7, r8
     ca2:	0415      	lsls	r5, r2, #16
     ca4:	0c2d      	lsrs	r5, r5, #16
     ca6:	002e      	movs	r6, r5
     ca8:	b580      	push	{r7, lr}
     caa:	0407      	lsls	r7, r0, #16
     cac:	0c14      	lsrs	r4, r2, #16
     cae:	0c3f      	lsrs	r7, r7, #16
     cb0:	4699      	mov	r9, r3
     cb2:	0c03      	lsrs	r3, r0, #16
     cb4:	437e      	muls	r6, r7
     cb6:	435d      	muls	r5, r3
     cb8:	4367      	muls	r7, r4
     cba:	4363      	muls	r3, r4
     cbc:	197f      	adds	r7, r7, r5
     cbe:	0c34      	lsrs	r4, r6, #16
     cc0:	19e4      	adds	r4, r4, r7
     cc2:	469c      	mov	ip, r3
     cc4:	42a5      	cmp	r5, r4
     cc6:	d903      	bls.n	cd0 <__aeabi_lmul+0x34>
     cc8:	2380      	movs	r3, #128	; 0x80
     cca:	025b      	lsls	r3, r3, #9
     ccc:	4698      	mov	r8, r3
     cce:	44c4      	add	ip, r8
     cd0:	464b      	mov	r3, r9
     cd2:	4351      	muls	r1, r2
     cd4:	4343      	muls	r3, r0
     cd6:	0436      	lsls	r6, r6, #16
     cd8:	0c36      	lsrs	r6, r6, #16
     cda:	0c25      	lsrs	r5, r4, #16
     cdc:	0424      	lsls	r4, r4, #16
     cde:	4465      	add	r5, ip
     ce0:	19a4      	adds	r4, r4, r6
     ce2:	1859      	adds	r1, r3, r1
     ce4:	1949      	adds	r1, r1, r5
     ce6:	0020      	movs	r0, r4
     ce8:	bc0c      	pop	{r2, r3}
     cea:	4690      	mov	r8, r2
     cec:	4699      	mov	r9, r3
     cee:	bdf0      	pop	{r4, r5, r6, r7, pc}

00000cf0 <__aeabi_fadd>:
     cf0:	b5f0      	push	{r4, r5, r6, r7, lr}
     cf2:	46c6      	mov	lr, r8
     cf4:	024e      	lsls	r6, r1, #9
     cf6:	0247      	lsls	r7, r0, #9
     cf8:	0a76      	lsrs	r6, r6, #9
     cfa:	0a7b      	lsrs	r3, r7, #9
     cfc:	0044      	lsls	r4, r0, #1
     cfe:	0fc5      	lsrs	r5, r0, #31
     d00:	00f7      	lsls	r7, r6, #3
     d02:	0048      	lsls	r0, r1, #1
     d04:	4698      	mov	r8, r3
     d06:	b500      	push	{lr}
     d08:	0e24      	lsrs	r4, r4, #24
     d0a:	002a      	movs	r2, r5
     d0c:	00db      	lsls	r3, r3, #3
     d0e:	0e00      	lsrs	r0, r0, #24
     d10:	0fc9      	lsrs	r1, r1, #31
     d12:	46bc      	mov	ip, r7
     d14:	428d      	cmp	r5, r1
     d16:	d067      	beq.n	de8 <__aeabi_fadd+0xf8>
     d18:	1a22      	subs	r2, r4, r0
     d1a:	2a00      	cmp	r2, #0
     d1c:	dc00      	bgt.n	d20 <__aeabi_fadd+0x30>
     d1e:	e0a5      	b.n	e6c <__aeabi_fadd+0x17c>
     d20:	2800      	cmp	r0, #0
     d22:	d13a      	bne.n	d9a <__aeabi_fadd+0xaa>
     d24:	2f00      	cmp	r7, #0
     d26:	d100      	bne.n	d2a <__aeabi_fadd+0x3a>
     d28:	e093      	b.n	e52 <__aeabi_fadd+0x162>
     d2a:	1e51      	subs	r1, r2, #1
     d2c:	2900      	cmp	r1, #0
     d2e:	d000      	beq.n	d32 <__aeabi_fadd+0x42>
     d30:	e0bc      	b.n	eac <__aeabi_fadd+0x1bc>
     d32:	2401      	movs	r4, #1
     d34:	1bdb      	subs	r3, r3, r7
     d36:	015a      	lsls	r2, r3, #5
     d38:	d546      	bpl.n	dc8 <__aeabi_fadd+0xd8>
     d3a:	019b      	lsls	r3, r3, #6
     d3c:	099e      	lsrs	r6, r3, #6
     d3e:	0030      	movs	r0, r6
     d40:	f000 fee4 	bl	1b0c <__clzsi2>
     d44:	3805      	subs	r0, #5
     d46:	4086      	lsls	r6, r0
     d48:	4284      	cmp	r4, r0
     d4a:	dd00      	ble.n	d4e <__aeabi_fadd+0x5e>
     d4c:	e09d      	b.n	e8a <__aeabi_fadd+0x19a>
     d4e:	1b04      	subs	r4, r0, r4
     d50:	0032      	movs	r2, r6
     d52:	2020      	movs	r0, #32
     d54:	3401      	adds	r4, #1
     d56:	40e2      	lsrs	r2, r4
     d58:	1b04      	subs	r4, r0, r4
     d5a:	40a6      	lsls	r6, r4
     d5c:	0033      	movs	r3, r6
     d5e:	1e5e      	subs	r6, r3, #1
     d60:	41b3      	sbcs	r3, r6
     d62:	2400      	movs	r4, #0
     d64:	4313      	orrs	r3, r2
     d66:	075a      	lsls	r2, r3, #29
     d68:	d004      	beq.n	d74 <__aeabi_fadd+0x84>
     d6a:	220f      	movs	r2, #15
     d6c:	401a      	ands	r2, r3
     d6e:	2a04      	cmp	r2, #4
     d70:	d000      	beq.n	d74 <__aeabi_fadd+0x84>
     d72:	3304      	adds	r3, #4
     d74:	015a      	lsls	r2, r3, #5
     d76:	d529      	bpl.n	dcc <__aeabi_fadd+0xdc>
     d78:	3401      	adds	r4, #1
     d7a:	2cff      	cmp	r4, #255	; 0xff
     d7c:	d100      	bne.n	d80 <__aeabi_fadd+0x90>
     d7e:	e081      	b.n	e84 <__aeabi_fadd+0x194>
     d80:	002a      	movs	r2, r5
     d82:	019b      	lsls	r3, r3, #6
     d84:	0a5b      	lsrs	r3, r3, #9
     d86:	b2e4      	uxtb	r4, r4
     d88:	025b      	lsls	r3, r3, #9
     d8a:	05e4      	lsls	r4, r4, #23
     d8c:	0a58      	lsrs	r0, r3, #9
     d8e:	07d2      	lsls	r2, r2, #31
     d90:	4320      	orrs	r0, r4
     d92:	4310      	orrs	r0, r2
     d94:	bc04      	pop	{r2}
     d96:	4690      	mov	r8, r2
     d98:	bdf0      	pop	{r4, r5, r6, r7, pc}
     d9a:	2cff      	cmp	r4, #255	; 0xff
     d9c:	d0e3      	beq.n	d66 <__aeabi_fadd+0x76>
     d9e:	2180      	movs	r1, #128	; 0x80
     da0:	0038      	movs	r0, r7
     da2:	04c9      	lsls	r1, r1, #19
     da4:	4308      	orrs	r0, r1
     da6:	4684      	mov	ip, r0
     da8:	2a1b      	cmp	r2, #27
     daa:	dd00      	ble.n	dae <__aeabi_fadd+0xbe>
     dac:	e082      	b.n	eb4 <__aeabi_fadd+0x1c4>
     dae:	2020      	movs	r0, #32
     db0:	4661      	mov	r1, ip
     db2:	40d1      	lsrs	r1, r2
     db4:	1a82      	subs	r2, r0, r2
     db6:	4660      	mov	r0, ip
     db8:	4090      	lsls	r0, r2
     dba:	0002      	movs	r2, r0
     dbc:	1e50      	subs	r0, r2, #1
     dbe:	4182      	sbcs	r2, r0
     dc0:	430a      	orrs	r2, r1
     dc2:	1a9b      	subs	r3, r3, r2
     dc4:	015a      	lsls	r2, r3, #5
     dc6:	d4b8      	bmi.n	d3a <__aeabi_fadd+0x4a>
     dc8:	075a      	lsls	r2, r3, #29
     dca:	d1ce      	bne.n	d6a <__aeabi_fadd+0x7a>
     dcc:	08de      	lsrs	r6, r3, #3
     dce:	002a      	movs	r2, r5
     dd0:	2cff      	cmp	r4, #255	; 0xff
     dd2:	d13a      	bne.n	e4a <__aeabi_fadd+0x15a>
     dd4:	2e00      	cmp	r6, #0
     dd6:	d100      	bne.n	dda <__aeabi_fadd+0xea>
     dd8:	e0ae      	b.n	f38 <__aeabi_fadd+0x248>
     dda:	2380      	movs	r3, #128	; 0x80
     ddc:	03db      	lsls	r3, r3, #15
     dde:	4333      	orrs	r3, r6
     de0:	025b      	lsls	r3, r3, #9
     de2:	0a5b      	lsrs	r3, r3, #9
     de4:	24ff      	movs	r4, #255	; 0xff
     de6:	e7cf      	b.n	d88 <__aeabi_fadd+0x98>
     de8:	1a21      	subs	r1, r4, r0
     dea:	2900      	cmp	r1, #0
     dec:	dd52      	ble.n	e94 <__aeabi_fadd+0x1a4>
     dee:	2800      	cmp	r0, #0
     df0:	d031      	beq.n	e56 <__aeabi_fadd+0x166>
     df2:	2cff      	cmp	r4, #255	; 0xff
     df4:	d0b7      	beq.n	d66 <__aeabi_fadd+0x76>
     df6:	2080      	movs	r0, #128	; 0x80
     df8:	003e      	movs	r6, r7
     dfa:	04c0      	lsls	r0, r0, #19
     dfc:	4306      	orrs	r6, r0
     dfe:	46b4      	mov	ip, r6
     e00:	291b      	cmp	r1, #27
     e02:	dd00      	ble.n	e06 <__aeabi_fadd+0x116>
     e04:	e0aa      	b.n	f5c <__aeabi_fadd+0x26c>
     e06:	2620      	movs	r6, #32
     e08:	4660      	mov	r0, ip
     e0a:	40c8      	lsrs	r0, r1
     e0c:	1a71      	subs	r1, r6, r1
     e0e:	4666      	mov	r6, ip
     e10:	408e      	lsls	r6, r1
     e12:	0031      	movs	r1, r6
     e14:	1e4e      	subs	r6, r1, #1
     e16:	41b1      	sbcs	r1, r6
     e18:	4301      	orrs	r1, r0
     e1a:	185b      	adds	r3, r3, r1
     e1c:	0159      	lsls	r1, r3, #5
     e1e:	d5d3      	bpl.n	dc8 <__aeabi_fadd+0xd8>
     e20:	3401      	adds	r4, #1
     e22:	2cff      	cmp	r4, #255	; 0xff
     e24:	d100      	bne.n	e28 <__aeabi_fadd+0x138>
     e26:	e087      	b.n	f38 <__aeabi_fadd+0x248>
     e28:	2201      	movs	r2, #1
     e2a:	4978      	ldr	r1, [pc, #480]	; (100c <__aeabi_fadd+0x31c>)
     e2c:	401a      	ands	r2, r3
     e2e:	085b      	lsrs	r3, r3, #1
     e30:	400b      	ands	r3, r1
     e32:	4313      	orrs	r3, r2
     e34:	e797      	b.n	d66 <__aeabi_fadd+0x76>
     e36:	2c00      	cmp	r4, #0
     e38:	d000      	beq.n	e3c <__aeabi_fadd+0x14c>
     e3a:	e0a7      	b.n	f8c <__aeabi_fadd+0x29c>
     e3c:	2b00      	cmp	r3, #0
     e3e:	d000      	beq.n	e42 <__aeabi_fadd+0x152>
     e40:	e0b6      	b.n	fb0 <__aeabi_fadd+0x2c0>
     e42:	1e3b      	subs	r3, r7, #0
     e44:	d162      	bne.n	f0c <__aeabi_fadd+0x21c>
     e46:	2600      	movs	r6, #0
     e48:	2200      	movs	r2, #0
     e4a:	0273      	lsls	r3, r6, #9
     e4c:	0a5b      	lsrs	r3, r3, #9
     e4e:	b2e4      	uxtb	r4, r4
     e50:	e79a      	b.n	d88 <__aeabi_fadd+0x98>
     e52:	0014      	movs	r4, r2
     e54:	e787      	b.n	d66 <__aeabi_fadd+0x76>
     e56:	2f00      	cmp	r7, #0
     e58:	d04d      	beq.n	ef6 <__aeabi_fadd+0x206>
     e5a:	1e48      	subs	r0, r1, #1
     e5c:	2800      	cmp	r0, #0
     e5e:	d157      	bne.n	f10 <__aeabi_fadd+0x220>
     e60:	4463      	add	r3, ip
     e62:	2401      	movs	r4, #1
     e64:	015a      	lsls	r2, r3, #5
     e66:	d5af      	bpl.n	dc8 <__aeabi_fadd+0xd8>
     e68:	2402      	movs	r4, #2
     e6a:	e7dd      	b.n	e28 <__aeabi_fadd+0x138>
     e6c:	2a00      	cmp	r2, #0
     e6e:	d124      	bne.n	eba <__aeabi_fadd+0x1ca>
     e70:	1c62      	adds	r2, r4, #1
     e72:	b2d2      	uxtb	r2, r2
     e74:	2a01      	cmp	r2, #1
     e76:	ddde      	ble.n	e36 <__aeabi_fadd+0x146>
     e78:	1bde      	subs	r6, r3, r7
     e7a:	0172      	lsls	r2, r6, #5
     e7c:	d535      	bpl.n	eea <__aeabi_fadd+0x1fa>
     e7e:	1afe      	subs	r6, r7, r3
     e80:	000d      	movs	r5, r1
     e82:	e75c      	b.n	d3e <__aeabi_fadd+0x4e>
     e84:	002a      	movs	r2, r5
     e86:	2300      	movs	r3, #0
     e88:	e77e      	b.n	d88 <__aeabi_fadd+0x98>
     e8a:	0033      	movs	r3, r6
     e8c:	4a60      	ldr	r2, [pc, #384]	; (1010 <__aeabi_fadd+0x320>)
     e8e:	1a24      	subs	r4, r4, r0
     e90:	4013      	ands	r3, r2
     e92:	e768      	b.n	d66 <__aeabi_fadd+0x76>
     e94:	2900      	cmp	r1, #0
     e96:	d163      	bne.n	f60 <__aeabi_fadd+0x270>
     e98:	1c61      	adds	r1, r4, #1
     e9a:	b2c8      	uxtb	r0, r1
     e9c:	2801      	cmp	r0, #1
     e9e:	dd4e      	ble.n	f3e <__aeabi_fadd+0x24e>
     ea0:	29ff      	cmp	r1, #255	; 0xff
     ea2:	d049      	beq.n	f38 <__aeabi_fadd+0x248>
     ea4:	4463      	add	r3, ip
     ea6:	085b      	lsrs	r3, r3, #1
     ea8:	000c      	movs	r4, r1
     eaa:	e75c      	b.n	d66 <__aeabi_fadd+0x76>
     eac:	2aff      	cmp	r2, #255	; 0xff
     eae:	d041      	beq.n	f34 <__aeabi_fadd+0x244>
     eb0:	000a      	movs	r2, r1
     eb2:	e779      	b.n	da8 <__aeabi_fadd+0xb8>
     eb4:	2201      	movs	r2, #1
     eb6:	1a9b      	subs	r3, r3, r2
     eb8:	e784      	b.n	dc4 <__aeabi_fadd+0xd4>
     eba:	2c00      	cmp	r4, #0
     ebc:	d01d      	beq.n	efa <__aeabi_fadd+0x20a>
     ebe:	28ff      	cmp	r0, #255	; 0xff
     ec0:	d022      	beq.n	f08 <__aeabi_fadd+0x218>
     ec2:	2480      	movs	r4, #128	; 0x80
     ec4:	04e4      	lsls	r4, r4, #19
     ec6:	4252      	negs	r2, r2
     ec8:	4323      	orrs	r3, r4
     eca:	2a1b      	cmp	r2, #27
     ecc:	dd00      	ble.n	ed0 <__aeabi_fadd+0x1e0>
     ece:	e08a      	b.n	fe6 <__aeabi_fadd+0x2f6>
     ed0:	001c      	movs	r4, r3
     ed2:	2520      	movs	r5, #32
     ed4:	40d4      	lsrs	r4, r2
     ed6:	1aaa      	subs	r2, r5, r2
     ed8:	4093      	lsls	r3, r2
     eda:	1e5a      	subs	r2, r3, #1
     edc:	4193      	sbcs	r3, r2
     ede:	4323      	orrs	r3, r4
     ee0:	4662      	mov	r2, ip
     ee2:	0004      	movs	r4, r0
     ee4:	1ad3      	subs	r3, r2, r3
     ee6:	000d      	movs	r5, r1
     ee8:	e725      	b.n	d36 <__aeabi_fadd+0x46>
     eea:	2e00      	cmp	r6, #0
     eec:	d000      	beq.n	ef0 <__aeabi_fadd+0x200>
     eee:	e726      	b.n	d3e <__aeabi_fadd+0x4e>
     ef0:	2200      	movs	r2, #0
     ef2:	2400      	movs	r4, #0
     ef4:	e7a9      	b.n	e4a <__aeabi_fadd+0x15a>
     ef6:	000c      	movs	r4, r1
     ef8:	e735      	b.n	d66 <__aeabi_fadd+0x76>
     efa:	2b00      	cmp	r3, #0
     efc:	d04d      	beq.n	f9a <__aeabi_fadd+0x2aa>
     efe:	43d2      	mvns	r2, r2
     f00:	2a00      	cmp	r2, #0
     f02:	d0ed      	beq.n	ee0 <__aeabi_fadd+0x1f0>
     f04:	28ff      	cmp	r0, #255	; 0xff
     f06:	d1e0      	bne.n	eca <__aeabi_fadd+0x1da>
     f08:	4663      	mov	r3, ip
     f0a:	24ff      	movs	r4, #255	; 0xff
     f0c:	000d      	movs	r5, r1
     f0e:	e72a      	b.n	d66 <__aeabi_fadd+0x76>
     f10:	29ff      	cmp	r1, #255	; 0xff
     f12:	d00f      	beq.n	f34 <__aeabi_fadd+0x244>
     f14:	0001      	movs	r1, r0
     f16:	e773      	b.n	e00 <__aeabi_fadd+0x110>
     f18:	2b00      	cmp	r3, #0
     f1a:	d061      	beq.n	fe0 <__aeabi_fadd+0x2f0>
     f1c:	24ff      	movs	r4, #255	; 0xff
     f1e:	2f00      	cmp	r7, #0
     f20:	d100      	bne.n	f24 <__aeabi_fadd+0x234>
     f22:	e720      	b.n	d66 <__aeabi_fadd+0x76>
     f24:	2280      	movs	r2, #128	; 0x80
     f26:	4641      	mov	r1, r8
     f28:	03d2      	lsls	r2, r2, #15
     f2a:	4211      	tst	r1, r2
     f2c:	d002      	beq.n	f34 <__aeabi_fadd+0x244>
     f2e:	4216      	tst	r6, r2
     f30:	d100      	bne.n	f34 <__aeabi_fadd+0x244>
     f32:	003b      	movs	r3, r7
     f34:	24ff      	movs	r4, #255	; 0xff
     f36:	e716      	b.n	d66 <__aeabi_fadd+0x76>
     f38:	24ff      	movs	r4, #255	; 0xff
     f3a:	2300      	movs	r3, #0
     f3c:	e724      	b.n	d88 <__aeabi_fadd+0x98>
     f3e:	2c00      	cmp	r4, #0
     f40:	d1ea      	bne.n	f18 <__aeabi_fadd+0x228>
     f42:	2b00      	cmp	r3, #0
     f44:	d058      	beq.n	ff8 <__aeabi_fadd+0x308>
     f46:	2f00      	cmp	r7, #0
     f48:	d100      	bne.n	f4c <__aeabi_fadd+0x25c>
     f4a:	e70c      	b.n	d66 <__aeabi_fadd+0x76>
     f4c:	4463      	add	r3, ip
     f4e:	015a      	lsls	r2, r3, #5
     f50:	d400      	bmi.n	f54 <__aeabi_fadd+0x264>
     f52:	e739      	b.n	dc8 <__aeabi_fadd+0xd8>
     f54:	4a2e      	ldr	r2, [pc, #184]	; (1010 <__aeabi_fadd+0x320>)
     f56:	000c      	movs	r4, r1
     f58:	4013      	ands	r3, r2
     f5a:	e704      	b.n	d66 <__aeabi_fadd+0x76>
     f5c:	2101      	movs	r1, #1
     f5e:	e75c      	b.n	e1a <__aeabi_fadd+0x12a>
     f60:	2c00      	cmp	r4, #0
     f62:	d11e      	bne.n	fa2 <__aeabi_fadd+0x2b2>
     f64:	2b00      	cmp	r3, #0
     f66:	d040      	beq.n	fea <__aeabi_fadd+0x2fa>
     f68:	43c9      	mvns	r1, r1
     f6a:	2900      	cmp	r1, #0
     f6c:	d00b      	beq.n	f86 <__aeabi_fadd+0x296>
     f6e:	28ff      	cmp	r0, #255	; 0xff
     f70:	d036      	beq.n	fe0 <__aeabi_fadd+0x2f0>
     f72:	291b      	cmp	r1, #27
     f74:	dc47      	bgt.n	1006 <__aeabi_fadd+0x316>
     f76:	001c      	movs	r4, r3
     f78:	2620      	movs	r6, #32
     f7a:	40cc      	lsrs	r4, r1
     f7c:	1a71      	subs	r1, r6, r1
     f7e:	408b      	lsls	r3, r1
     f80:	1e59      	subs	r1, r3, #1
     f82:	418b      	sbcs	r3, r1
     f84:	4323      	orrs	r3, r4
     f86:	4463      	add	r3, ip
     f88:	0004      	movs	r4, r0
     f8a:	e747      	b.n	e1c <__aeabi_fadd+0x12c>
     f8c:	2b00      	cmp	r3, #0
     f8e:	d118      	bne.n	fc2 <__aeabi_fadd+0x2d2>
     f90:	1e3b      	subs	r3, r7, #0
     f92:	d02d      	beq.n	ff0 <__aeabi_fadd+0x300>
     f94:	000d      	movs	r5, r1
     f96:	24ff      	movs	r4, #255	; 0xff
     f98:	e6e5      	b.n	d66 <__aeabi_fadd+0x76>
     f9a:	003b      	movs	r3, r7
     f9c:	0004      	movs	r4, r0
     f9e:	000d      	movs	r5, r1
     fa0:	e6e1      	b.n	d66 <__aeabi_fadd+0x76>
     fa2:	28ff      	cmp	r0, #255	; 0xff
     fa4:	d01c      	beq.n	fe0 <__aeabi_fadd+0x2f0>
     fa6:	2480      	movs	r4, #128	; 0x80
     fa8:	04e4      	lsls	r4, r4, #19
     faa:	4249      	negs	r1, r1
     fac:	4323      	orrs	r3, r4
     fae:	e7e0      	b.n	f72 <__aeabi_fadd+0x282>
     fb0:	2f00      	cmp	r7, #0
     fb2:	d100      	bne.n	fb6 <__aeabi_fadd+0x2c6>
     fb4:	e6d7      	b.n	d66 <__aeabi_fadd+0x76>
     fb6:	1bde      	subs	r6, r3, r7
     fb8:	0172      	lsls	r2, r6, #5
     fba:	d51f      	bpl.n	ffc <__aeabi_fadd+0x30c>
     fbc:	1afb      	subs	r3, r7, r3
     fbe:	000d      	movs	r5, r1
     fc0:	e6d1      	b.n	d66 <__aeabi_fadd+0x76>
     fc2:	24ff      	movs	r4, #255	; 0xff
     fc4:	2f00      	cmp	r7, #0
     fc6:	d100      	bne.n	fca <__aeabi_fadd+0x2da>
     fc8:	e6cd      	b.n	d66 <__aeabi_fadd+0x76>
     fca:	2280      	movs	r2, #128	; 0x80
     fcc:	4640      	mov	r0, r8
     fce:	03d2      	lsls	r2, r2, #15
     fd0:	4210      	tst	r0, r2
     fd2:	d0af      	beq.n	f34 <__aeabi_fadd+0x244>
     fd4:	4216      	tst	r6, r2
     fd6:	d1ad      	bne.n	f34 <__aeabi_fadd+0x244>
     fd8:	003b      	movs	r3, r7
     fda:	000d      	movs	r5, r1
     fdc:	24ff      	movs	r4, #255	; 0xff
     fde:	e6c2      	b.n	d66 <__aeabi_fadd+0x76>
     fe0:	4663      	mov	r3, ip
     fe2:	24ff      	movs	r4, #255	; 0xff
     fe4:	e6bf      	b.n	d66 <__aeabi_fadd+0x76>
     fe6:	2301      	movs	r3, #1
     fe8:	e77a      	b.n	ee0 <__aeabi_fadd+0x1f0>
     fea:	003b      	movs	r3, r7
     fec:	0004      	movs	r4, r0
     fee:	e6ba      	b.n	d66 <__aeabi_fadd+0x76>
     ff0:	2680      	movs	r6, #128	; 0x80
     ff2:	2200      	movs	r2, #0
     ff4:	03f6      	lsls	r6, r6, #15
     ff6:	e6f0      	b.n	dda <__aeabi_fadd+0xea>
     ff8:	003b      	movs	r3, r7
     ffa:	e6b4      	b.n	d66 <__aeabi_fadd+0x76>
     ffc:	1e33      	subs	r3, r6, #0
     ffe:	d000      	beq.n	1002 <__aeabi_fadd+0x312>
    1000:	e6e2      	b.n	dc8 <__aeabi_fadd+0xd8>
    1002:	2200      	movs	r2, #0
    1004:	e721      	b.n	e4a <__aeabi_fadd+0x15a>
    1006:	2301      	movs	r3, #1
    1008:	e7bd      	b.n	f86 <__aeabi_fadd+0x296>
    100a:	46c0      	nop			; (mov r8, r8)
    100c:	7dffffff 	.word	0x7dffffff
    1010:	fbffffff 	.word	0xfbffffff

00001014 <__aeabi_fdiv>:
    1014:	b5f0      	push	{r4, r5, r6, r7, lr}
    1016:	4657      	mov	r7, sl
    1018:	464e      	mov	r6, r9
    101a:	46de      	mov	lr, fp
    101c:	4645      	mov	r5, r8
    101e:	b5e0      	push	{r5, r6, r7, lr}
    1020:	0244      	lsls	r4, r0, #9
    1022:	0043      	lsls	r3, r0, #1
    1024:	0fc6      	lsrs	r6, r0, #31
    1026:	b083      	sub	sp, #12
    1028:	1c0f      	adds	r7, r1, #0
    102a:	0a64      	lsrs	r4, r4, #9
    102c:	0e1b      	lsrs	r3, r3, #24
    102e:	46b2      	mov	sl, r6
    1030:	d053      	beq.n	10da <__aeabi_fdiv+0xc6>
    1032:	2bff      	cmp	r3, #255	; 0xff
    1034:	d027      	beq.n	1086 <__aeabi_fdiv+0x72>
    1036:	2280      	movs	r2, #128	; 0x80
    1038:	00e4      	lsls	r4, r4, #3
    103a:	04d2      	lsls	r2, r2, #19
    103c:	4314      	orrs	r4, r2
    103e:	227f      	movs	r2, #127	; 0x7f
    1040:	4252      	negs	r2, r2
    1042:	4690      	mov	r8, r2
    1044:	4498      	add	r8, r3
    1046:	2300      	movs	r3, #0
    1048:	4699      	mov	r9, r3
    104a:	469b      	mov	fp, r3
    104c:	027d      	lsls	r5, r7, #9
    104e:	0078      	lsls	r0, r7, #1
    1050:	0ffb      	lsrs	r3, r7, #31
    1052:	0a6d      	lsrs	r5, r5, #9
    1054:	0e00      	lsrs	r0, r0, #24
    1056:	9300      	str	r3, [sp, #0]
    1058:	d024      	beq.n	10a4 <__aeabi_fdiv+0x90>
    105a:	28ff      	cmp	r0, #255	; 0xff
    105c:	d046      	beq.n	10ec <__aeabi_fdiv+0xd8>
    105e:	2380      	movs	r3, #128	; 0x80
    1060:	2100      	movs	r1, #0
    1062:	00ed      	lsls	r5, r5, #3
    1064:	04db      	lsls	r3, r3, #19
    1066:	431d      	orrs	r5, r3
    1068:	387f      	subs	r0, #127	; 0x7f
    106a:	4647      	mov	r7, r8
    106c:	1a38      	subs	r0, r7, r0
    106e:	464f      	mov	r7, r9
    1070:	430f      	orrs	r7, r1
    1072:	00bf      	lsls	r7, r7, #2
    1074:	46b9      	mov	r9, r7
    1076:	0033      	movs	r3, r6
    1078:	9a00      	ldr	r2, [sp, #0]
    107a:	4f87      	ldr	r7, [pc, #540]	; (1298 <__aeabi_fdiv+0x284>)
    107c:	4053      	eors	r3, r2
    107e:	464a      	mov	r2, r9
    1080:	58ba      	ldr	r2, [r7, r2]
    1082:	9301      	str	r3, [sp, #4]
    1084:	4697      	mov	pc, r2
    1086:	2c00      	cmp	r4, #0
    1088:	d14e      	bne.n	1128 <__aeabi_fdiv+0x114>
    108a:	2308      	movs	r3, #8
    108c:	4699      	mov	r9, r3
    108e:	33f7      	adds	r3, #247	; 0xf7
    1090:	4698      	mov	r8, r3
    1092:	3bfd      	subs	r3, #253	; 0xfd
    1094:	469b      	mov	fp, r3
    1096:	027d      	lsls	r5, r7, #9
    1098:	0078      	lsls	r0, r7, #1
    109a:	0ffb      	lsrs	r3, r7, #31
    109c:	0a6d      	lsrs	r5, r5, #9
    109e:	0e00      	lsrs	r0, r0, #24
    10a0:	9300      	str	r3, [sp, #0]
    10a2:	d1da      	bne.n	105a <__aeabi_fdiv+0x46>
    10a4:	2d00      	cmp	r5, #0
    10a6:	d126      	bne.n	10f6 <__aeabi_fdiv+0xe2>
    10a8:	2000      	movs	r0, #0
    10aa:	2101      	movs	r1, #1
    10ac:	0033      	movs	r3, r6
    10ae:	9a00      	ldr	r2, [sp, #0]
    10b0:	4f7a      	ldr	r7, [pc, #488]	; (129c <__aeabi_fdiv+0x288>)
    10b2:	4053      	eors	r3, r2
    10b4:	4642      	mov	r2, r8
    10b6:	1a10      	subs	r0, r2, r0
    10b8:	464a      	mov	r2, r9
    10ba:	430a      	orrs	r2, r1
    10bc:	0092      	lsls	r2, r2, #2
    10be:	58ba      	ldr	r2, [r7, r2]
    10c0:	001d      	movs	r5, r3
    10c2:	4697      	mov	pc, r2
    10c4:	9b00      	ldr	r3, [sp, #0]
    10c6:	002c      	movs	r4, r5
    10c8:	469a      	mov	sl, r3
    10ca:	468b      	mov	fp, r1
    10cc:	465b      	mov	r3, fp
    10ce:	2b02      	cmp	r3, #2
    10d0:	d131      	bne.n	1136 <__aeabi_fdiv+0x122>
    10d2:	4653      	mov	r3, sl
    10d4:	21ff      	movs	r1, #255	; 0xff
    10d6:	2400      	movs	r4, #0
    10d8:	e038      	b.n	114c <__aeabi_fdiv+0x138>
    10da:	2c00      	cmp	r4, #0
    10dc:	d117      	bne.n	110e <__aeabi_fdiv+0xfa>
    10de:	2304      	movs	r3, #4
    10e0:	4699      	mov	r9, r3
    10e2:	2300      	movs	r3, #0
    10e4:	4698      	mov	r8, r3
    10e6:	3301      	adds	r3, #1
    10e8:	469b      	mov	fp, r3
    10ea:	e7af      	b.n	104c <__aeabi_fdiv+0x38>
    10ec:	20ff      	movs	r0, #255	; 0xff
    10ee:	2d00      	cmp	r5, #0
    10f0:	d10b      	bne.n	110a <__aeabi_fdiv+0xf6>
    10f2:	2102      	movs	r1, #2
    10f4:	e7da      	b.n	10ac <__aeabi_fdiv+0x98>
    10f6:	0028      	movs	r0, r5
    10f8:	f000 fd08 	bl	1b0c <__clzsi2>
    10fc:	1f43      	subs	r3, r0, #5
    10fe:	409d      	lsls	r5, r3
    1100:	2376      	movs	r3, #118	; 0x76
    1102:	425b      	negs	r3, r3
    1104:	1a18      	subs	r0, r3, r0
    1106:	2100      	movs	r1, #0
    1108:	e7af      	b.n	106a <__aeabi_fdiv+0x56>
    110a:	2103      	movs	r1, #3
    110c:	e7ad      	b.n	106a <__aeabi_fdiv+0x56>
    110e:	0020      	movs	r0, r4
    1110:	f000 fcfc 	bl	1b0c <__clzsi2>
    1114:	1f43      	subs	r3, r0, #5
    1116:	409c      	lsls	r4, r3
    1118:	2376      	movs	r3, #118	; 0x76
    111a:	425b      	negs	r3, r3
    111c:	1a1b      	subs	r3, r3, r0
    111e:	4698      	mov	r8, r3
    1120:	2300      	movs	r3, #0
    1122:	4699      	mov	r9, r3
    1124:	469b      	mov	fp, r3
    1126:	e791      	b.n	104c <__aeabi_fdiv+0x38>
    1128:	230c      	movs	r3, #12
    112a:	4699      	mov	r9, r3
    112c:	33f3      	adds	r3, #243	; 0xf3
    112e:	4698      	mov	r8, r3
    1130:	3bfc      	subs	r3, #252	; 0xfc
    1132:	469b      	mov	fp, r3
    1134:	e78a      	b.n	104c <__aeabi_fdiv+0x38>
    1136:	2b03      	cmp	r3, #3
    1138:	d100      	bne.n	113c <__aeabi_fdiv+0x128>
    113a:	e0a5      	b.n	1288 <__aeabi_fdiv+0x274>
    113c:	4655      	mov	r5, sl
    113e:	2b01      	cmp	r3, #1
    1140:	d000      	beq.n	1144 <__aeabi_fdiv+0x130>
    1142:	e081      	b.n	1248 <__aeabi_fdiv+0x234>
    1144:	2301      	movs	r3, #1
    1146:	2100      	movs	r1, #0
    1148:	2400      	movs	r4, #0
    114a:	402b      	ands	r3, r5
    114c:	0264      	lsls	r4, r4, #9
    114e:	05c9      	lsls	r1, r1, #23
    1150:	0a60      	lsrs	r0, r4, #9
    1152:	07db      	lsls	r3, r3, #31
    1154:	4308      	orrs	r0, r1
    1156:	4318      	orrs	r0, r3
    1158:	b003      	add	sp, #12
    115a:	bc3c      	pop	{r2, r3, r4, r5}
    115c:	4690      	mov	r8, r2
    115e:	4699      	mov	r9, r3
    1160:	46a2      	mov	sl, r4
    1162:	46ab      	mov	fp, r5
    1164:	bdf0      	pop	{r4, r5, r6, r7, pc}
    1166:	2480      	movs	r4, #128	; 0x80
    1168:	2300      	movs	r3, #0
    116a:	03e4      	lsls	r4, r4, #15
    116c:	21ff      	movs	r1, #255	; 0xff
    116e:	e7ed      	b.n	114c <__aeabi_fdiv+0x138>
    1170:	21ff      	movs	r1, #255	; 0xff
    1172:	2400      	movs	r4, #0
    1174:	e7ea      	b.n	114c <__aeabi_fdiv+0x138>
    1176:	2301      	movs	r3, #1
    1178:	1a59      	subs	r1, r3, r1
    117a:	291b      	cmp	r1, #27
    117c:	dd66      	ble.n	124c <__aeabi_fdiv+0x238>
    117e:	9a01      	ldr	r2, [sp, #4]
    1180:	4013      	ands	r3, r2
    1182:	2100      	movs	r1, #0
    1184:	2400      	movs	r4, #0
    1186:	e7e1      	b.n	114c <__aeabi_fdiv+0x138>
    1188:	2380      	movs	r3, #128	; 0x80
    118a:	03db      	lsls	r3, r3, #15
    118c:	421c      	tst	r4, r3
    118e:	d038      	beq.n	1202 <__aeabi_fdiv+0x1ee>
    1190:	421d      	tst	r5, r3
    1192:	d051      	beq.n	1238 <__aeabi_fdiv+0x224>
    1194:	431c      	orrs	r4, r3
    1196:	0264      	lsls	r4, r4, #9
    1198:	0a64      	lsrs	r4, r4, #9
    119a:	0033      	movs	r3, r6
    119c:	21ff      	movs	r1, #255	; 0xff
    119e:	e7d5      	b.n	114c <__aeabi_fdiv+0x138>
    11a0:	0163      	lsls	r3, r4, #5
    11a2:	016c      	lsls	r4, r5, #5
    11a4:	42a3      	cmp	r3, r4
    11a6:	d23b      	bcs.n	1220 <__aeabi_fdiv+0x20c>
    11a8:	261b      	movs	r6, #27
    11aa:	2100      	movs	r1, #0
    11ac:	3801      	subs	r0, #1
    11ae:	2501      	movs	r5, #1
    11b0:	001f      	movs	r7, r3
    11b2:	0049      	lsls	r1, r1, #1
    11b4:	005b      	lsls	r3, r3, #1
    11b6:	2f00      	cmp	r7, #0
    11b8:	db01      	blt.n	11be <__aeabi_fdiv+0x1aa>
    11ba:	429c      	cmp	r4, r3
    11bc:	d801      	bhi.n	11c2 <__aeabi_fdiv+0x1ae>
    11be:	1b1b      	subs	r3, r3, r4
    11c0:	4329      	orrs	r1, r5
    11c2:	3e01      	subs	r6, #1
    11c4:	2e00      	cmp	r6, #0
    11c6:	d1f3      	bne.n	11b0 <__aeabi_fdiv+0x19c>
    11c8:	001c      	movs	r4, r3
    11ca:	1e63      	subs	r3, r4, #1
    11cc:	419c      	sbcs	r4, r3
    11ce:	430c      	orrs	r4, r1
    11d0:	0001      	movs	r1, r0
    11d2:	317f      	adds	r1, #127	; 0x7f
    11d4:	2900      	cmp	r1, #0
    11d6:	ddce      	ble.n	1176 <__aeabi_fdiv+0x162>
    11d8:	0763      	lsls	r3, r4, #29
    11da:	d004      	beq.n	11e6 <__aeabi_fdiv+0x1d2>
    11dc:	230f      	movs	r3, #15
    11de:	4023      	ands	r3, r4
    11e0:	2b04      	cmp	r3, #4
    11e2:	d000      	beq.n	11e6 <__aeabi_fdiv+0x1d2>
    11e4:	3404      	adds	r4, #4
    11e6:	0123      	lsls	r3, r4, #4
    11e8:	d503      	bpl.n	11f2 <__aeabi_fdiv+0x1de>
    11ea:	0001      	movs	r1, r0
    11ec:	4b2c      	ldr	r3, [pc, #176]	; (12a0 <__aeabi_fdiv+0x28c>)
    11ee:	3180      	adds	r1, #128	; 0x80
    11f0:	401c      	ands	r4, r3
    11f2:	29fe      	cmp	r1, #254	; 0xfe
    11f4:	dd0d      	ble.n	1212 <__aeabi_fdiv+0x1fe>
    11f6:	2301      	movs	r3, #1
    11f8:	9a01      	ldr	r2, [sp, #4]
    11fa:	21ff      	movs	r1, #255	; 0xff
    11fc:	4013      	ands	r3, r2
    11fe:	2400      	movs	r4, #0
    1200:	e7a4      	b.n	114c <__aeabi_fdiv+0x138>
    1202:	2380      	movs	r3, #128	; 0x80
    1204:	03db      	lsls	r3, r3, #15
    1206:	431c      	orrs	r4, r3
    1208:	0264      	lsls	r4, r4, #9
    120a:	0a64      	lsrs	r4, r4, #9
    120c:	0033      	movs	r3, r6
    120e:	21ff      	movs	r1, #255	; 0xff
    1210:	e79c      	b.n	114c <__aeabi_fdiv+0x138>
    1212:	2301      	movs	r3, #1
    1214:	9a01      	ldr	r2, [sp, #4]
    1216:	01a4      	lsls	r4, r4, #6
    1218:	0a64      	lsrs	r4, r4, #9
    121a:	b2c9      	uxtb	r1, r1
    121c:	4013      	ands	r3, r2
    121e:	e795      	b.n	114c <__aeabi_fdiv+0x138>
    1220:	1b1b      	subs	r3, r3, r4
    1222:	261a      	movs	r6, #26
    1224:	2101      	movs	r1, #1
    1226:	e7c2      	b.n	11ae <__aeabi_fdiv+0x19a>
    1228:	9b00      	ldr	r3, [sp, #0]
    122a:	468b      	mov	fp, r1
    122c:	469a      	mov	sl, r3
    122e:	2400      	movs	r4, #0
    1230:	e74c      	b.n	10cc <__aeabi_fdiv+0xb8>
    1232:	0263      	lsls	r3, r4, #9
    1234:	d5e5      	bpl.n	1202 <__aeabi_fdiv+0x1ee>
    1236:	2500      	movs	r5, #0
    1238:	2480      	movs	r4, #128	; 0x80
    123a:	03e4      	lsls	r4, r4, #15
    123c:	432c      	orrs	r4, r5
    123e:	0264      	lsls	r4, r4, #9
    1240:	0a64      	lsrs	r4, r4, #9
    1242:	9b00      	ldr	r3, [sp, #0]
    1244:	21ff      	movs	r1, #255	; 0xff
    1246:	e781      	b.n	114c <__aeabi_fdiv+0x138>
    1248:	9501      	str	r5, [sp, #4]
    124a:	e7c1      	b.n	11d0 <__aeabi_fdiv+0x1bc>
    124c:	0023      	movs	r3, r4
    124e:	2020      	movs	r0, #32
    1250:	40cb      	lsrs	r3, r1
    1252:	1a41      	subs	r1, r0, r1
    1254:	408c      	lsls	r4, r1
    1256:	1e61      	subs	r1, r4, #1
    1258:	418c      	sbcs	r4, r1
    125a:	431c      	orrs	r4, r3
    125c:	0763      	lsls	r3, r4, #29
    125e:	d004      	beq.n	126a <__aeabi_fdiv+0x256>
    1260:	230f      	movs	r3, #15
    1262:	4023      	ands	r3, r4
    1264:	2b04      	cmp	r3, #4
    1266:	d000      	beq.n	126a <__aeabi_fdiv+0x256>
    1268:	3404      	adds	r4, #4
    126a:	0163      	lsls	r3, r4, #5
    126c:	d505      	bpl.n	127a <__aeabi_fdiv+0x266>
    126e:	2301      	movs	r3, #1
    1270:	9a01      	ldr	r2, [sp, #4]
    1272:	2101      	movs	r1, #1
    1274:	4013      	ands	r3, r2
    1276:	2400      	movs	r4, #0
    1278:	e768      	b.n	114c <__aeabi_fdiv+0x138>
    127a:	2301      	movs	r3, #1
    127c:	9a01      	ldr	r2, [sp, #4]
    127e:	01a4      	lsls	r4, r4, #6
    1280:	0a64      	lsrs	r4, r4, #9
    1282:	4013      	ands	r3, r2
    1284:	2100      	movs	r1, #0
    1286:	e761      	b.n	114c <__aeabi_fdiv+0x138>
    1288:	2380      	movs	r3, #128	; 0x80
    128a:	03db      	lsls	r3, r3, #15
    128c:	431c      	orrs	r4, r3
    128e:	0264      	lsls	r4, r4, #9
    1290:	0a64      	lsrs	r4, r4, #9
    1292:	4653      	mov	r3, sl
    1294:	21ff      	movs	r1, #255	; 0xff
    1296:	e759      	b.n	114c <__aeabi_fdiv+0x138>
    1298:	00001e9c 	.word	0x00001e9c
    129c:	00001edc 	.word	0x00001edc
    12a0:	f7ffffff 	.word	0xf7ffffff

000012a4 <__aeabi_i2f>:
    12a4:	b570      	push	{r4, r5, r6, lr}
    12a6:	2800      	cmp	r0, #0
    12a8:	d030      	beq.n	130c <__aeabi_i2f+0x68>
    12aa:	17c3      	asrs	r3, r0, #31
    12ac:	18c4      	adds	r4, r0, r3
    12ae:	405c      	eors	r4, r3
    12b0:	0fc5      	lsrs	r5, r0, #31
    12b2:	0020      	movs	r0, r4
    12b4:	f000 fc2a 	bl	1b0c <__clzsi2>
    12b8:	239e      	movs	r3, #158	; 0x9e
    12ba:	1a1b      	subs	r3, r3, r0
    12bc:	2b96      	cmp	r3, #150	; 0x96
    12be:	dc0d      	bgt.n	12dc <__aeabi_i2f+0x38>
    12c0:	2296      	movs	r2, #150	; 0x96
    12c2:	1ad2      	subs	r2, r2, r3
    12c4:	4094      	lsls	r4, r2
    12c6:	002a      	movs	r2, r5
    12c8:	0264      	lsls	r4, r4, #9
    12ca:	0a64      	lsrs	r4, r4, #9
    12cc:	b2db      	uxtb	r3, r3
    12ce:	0264      	lsls	r4, r4, #9
    12d0:	05db      	lsls	r3, r3, #23
    12d2:	0a60      	lsrs	r0, r4, #9
    12d4:	07d2      	lsls	r2, r2, #31
    12d6:	4318      	orrs	r0, r3
    12d8:	4310      	orrs	r0, r2
    12da:	bd70      	pop	{r4, r5, r6, pc}
    12dc:	2b99      	cmp	r3, #153	; 0x99
    12de:	dc19      	bgt.n	1314 <__aeabi_i2f+0x70>
    12e0:	2299      	movs	r2, #153	; 0x99
    12e2:	1ad2      	subs	r2, r2, r3
    12e4:	2a00      	cmp	r2, #0
    12e6:	dd29      	ble.n	133c <__aeabi_i2f+0x98>
    12e8:	4094      	lsls	r4, r2
    12ea:	0022      	movs	r2, r4
    12ec:	4c14      	ldr	r4, [pc, #80]	; (1340 <__aeabi_i2f+0x9c>)
    12ee:	4014      	ands	r4, r2
    12f0:	0751      	lsls	r1, r2, #29
    12f2:	d004      	beq.n	12fe <__aeabi_i2f+0x5a>
    12f4:	210f      	movs	r1, #15
    12f6:	400a      	ands	r2, r1
    12f8:	2a04      	cmp	r2, #4
    12fa:	d000      	beq.n	12fe <__aeabi_i2f+0x5a>
    12fc:	3404      	adds	r4, #4
    12fe:	0162      	lsls	r2, r4, #5
    1300:	d413      	bmi.n	132a <__aeabi_i2f+0x86>
    1302:	01a4      	lsls	r4, r4, #6
    1304:	0a64      	lsrs	r4, r4, #9
    1306:	b2db      	uxtb	r3, r3
    1308:	002a      	movs	r2, r5
    130a:	e7e0      	b.n	12ce <__aeabi_i2f+0x2a>
    130c:	2200      	movs	r2, #0
    130e:	2300      	movs	r3, #0
    1310:	2400      	movs	r4, #0
    1312:	e7dc      	b.n	12ce <__aeabi_i2f+0x2a>
    1314:	2205      	movs	r2, #5
    1316:	0021      	movs	r1, r4
    1318:	1a12      	subs	r2, r2, r0
    131a:	40d1      	lsrs	r1, r2
    131c:	22b9      	movs	r2, #185	; 0xb9
    131e:	1ad2      	subs	r2, r2, r3
    1320:	4094      	lsls	r4, r2
    1322:	1e62      	subs	r2, r4, #1
    1324:	4194      	sbcs	r4, r2
    1326:	430c      	orrs	r4, r1
    1328:	e7da      	b.n	12e0 <__aeabi_i2f+0x3c>
    132a:	4b05      	ldr	r3, [pc, #20]	; (1340 <__aeabi_i2f+0x9c>)
    132c:	002a      	movs	r2, r5
    132e:	401c      	ands	r4, r3
    1330:	239f      	movs	r3, #159	; 0x9f
    1332:	01a4      	lsls	r4, r4, #6
    1334:	1a1b      	subs	r3, r3, r0
    1336:	0a64      	lsrs	r4, r4, #9
    1338:	b2db      	uxtb	r3, r3
    133a:	e7c8      	b.n	12ce <__aeabi_i2f+0x2a>
    133c:	0022      	movs	r2, r4
    133e:	e7d5      	b.n	12ec <__aeabi_i2f+0x48>
    1340:	fbffffff 	.word	0xfbffffff

00001344 <__aeabi_ui2f>:
    1344:	b510      	push	{r4, lr}
    1346:	1e04      	subs	r4, r0, #0
    1348:	d027      	beq.n	139a <__aeabi_ui2f+0x56>
    134a:	f000 fbdf 	bl	1b0c <__clzsi2>
    134e:	239e      	movs	r3, #158	; 0x9e
    1350:	1a1b      	subs	r3, r3, r0
    1352:	2b96      	cmp	r3, #150	; 0x96
    1354:	dc0a      	bgt.n	136c <__aeabi_ui2f+0x28>
    1356:	2296      	movs	r2, #150	; 0x96
    1358:	1ad2      	subs	r2, r2, r3
    135a:	4094      	lsls	r4, r2
    135c:	0264      	lsls	r4, r4, #9
    135e:	0a64      	lsrs	r4, r4, #9
    1360:	b2db      	uxtb	r3, r3
    1362:	0264      	lsls	r4, r4, #9
    1364:	05db      	lsls	r3, r3, #23
    1366:	0a60      	lsrs	r0, r4, #9
    1368:	4318      	orrs	r0, r3
    136a:	bd10      	pop	{r4, pc}
    136c:	2b99      	cmp	r3, #153	; 0x99
    136e:	dc17      	bgt.n	13a0 <__aeabi_ui2f+0x5c>
    1370:	2299      	movs	r2, #153	; 0x99
    1372:	1ad2      	subs	r2, r2, r3
    1374:	2a00      	cmp	r2, #0
    1376:	dd27      	ble.n	13c8 <__aeabi_ui2f+0x84>
    1378:	4094      	lsls	r4, r2
    137a:	0022      	movs	r2, r4
    137c:	4c13      	ldr	r4, [pc, #76]	; (13cc <__aeabi_ui2f+0x88>)
    137e:	4014      	ands	r4, r2
    1380:	0751      	lsls	r1, r2, #29
    1382:	d004      	beq.n	138e <__aeabi_ui2f+0x4a>
    1384:	210f      	movs	r1, #15
    1386:	400a      	ands	r2, r1
    1388:	2a04      	cmp	r2, #4
    138a:	d000      	beq.n	138e <__aeabi_ui2f+0x4a>
    138c:	3404      	adds	r4, #4
    138e:	0162      	lsls	r2, r4, #5
    1390:	d412      	bmi.n	13b8 <__aeabi_ui2f+0x74>
    1392:	01a4      	lsls	r4, r4, #6
    1394:	0a64      	lsrs	r4, r4, #9
    1396:	b2db      	uxtb	r3, r3
    1398:	e7e3      	b.n	1362 <__aeabi_ui2f+0x1e>
    139a:	2300      	movs	r3, #0
    139c:	2400      	movs	r4, #0
    139e:	e7e0      	b.n	1362 <__aeabi_ui2f+0x1e>
    13a0:	22b9      	movs	r2, #185	; 0xb9
    13a2:	0021      	movs	r1, r4
    13a4:	1ad2      	subs	r2, r2, r3
    13a6:	4091      	lsls	r1, r2
    13a8:	000a      	movs	r2, r1
    13aa:	1e51      	subs	r1, r2, #1
    13ac:	418a      	sbcs	r2, r1
    13ae:	2105      	movs	r1, #5
    13b0:	1a09      	subs	r1, r1, r0
    13b2:	40cc      	lsrs	r4, r1
    13b4:	4314      	orrs	r4, r2
    13b6:	e7db      	b.n	1370 <__aeabi_ui2f+0x2c>
    13b8:	4b04      	ldr	r3, [pc, #16]	; (13cc <__aeabi_ui2f+0x88>)
    13ba:	401c      	ands	r4, r3
    13bc:	239f      	movs	r3, #159	; 0x9f
    13be:	01a4      	lsls	r4, r4, #6
    13c0:	1a1b      	subs	r3, r3, r0
    13c2:	0a64      	lsrs	r4, r4, #9
    13c4:	b2db      	uxtb	r3, r3
    13c6:	e7cc      	b.n	1362 <__aeabi_ui2f+0x1e>
    13c8:	0022      	movs	r2, r4
    13ca:	e7d7      	b.n	137c <__aeabi_ui2f+0x38>
    13cc:	fbffffff 	.word	0xfbffffff

000013d0 <__aeabi_dmul>:
    13d0:	b5f0      	push	{r4, r5, r6, r7, lr}
    13d2:	4657      	mov	r7, sl
    13d4:	4645      	mov	r5, r8
    13d6:	46de      	mov	lr, fp
    13d8:	464e      	mov	r6, r9
    13da:	b5e0      	push	{r5, r6, r7, lr}
    13dc:	030c      	lsls	r4, r1, #12
    13de:	4698      	mov	r8, r3
    13e0:	004e      	lsls	r6, r1, #1
    13e2:	0b23      	lsrs	r3, r4, #12
    13e4:	b087      	sub	sp, #28
    13e6:	0007      	movs	r7, r0
    13e8:	4692      	mov	sl, r2
    13ea:	469b      	mov	fp, r3
    13ec:	0d76      	lsrs	r6, r6, #21
    13ee:	0fcd      	lsrs	r5, r1, #31
    13f0:	2e00      	cmp	r6, #0
    13f2:	d06b      	beq.n	14cc <__aeabi_dmul+0xfc>
    13f4:	4b6d      	ldr	r3, [pc, #436]	; (15ac <__aeabi_dmul+0x1dc>)
    13f6:	429e      	cmp	r6, r3
    13f8:	d035      	beq.n	1466 <__aeabi_dmul+0x96>
    13fa:	2480      	movs	r4, #128	; 0x80
    13fc:	465b      	mov	r3, fp
    13fe:	0f42      	lsrs	r2, r0, #29
    1400:	0424      	lsls	r4, r4, #16
    1402:	00db      	lsls	r3, r3, #3
    1404:	4314      	orrs	r4, r2
    1406:	431c      	orrs	r4, r3
    1408:	00c3      	lsls	r3, r0, #3
    140a:	4699      	mov	r9, r3
    140c:	4b68      	ldr	r3, [pc, #416]	; (15b0 <__aeabi_dmul+0x1e0>)
    140e:	46a3      	mov	fp, r4
    1410:	469c      	mov	ip, r3
    1412:	2300      	movs	r3, #0
    1414:	2700      	movs	r7, #0
    1416:	4466      	add	r6, ip
    1418:	9302      	str	r3, [sp, #8]
    141a:	4643      	mov	r3, r8
    141c:	031c      	lsls	r4, r3, #12
    141e:	005a      	lsls	r2, r3, #1
    1420:	0fdb      	lsrs	r3, r3, #31
    1422:	4650      	mov	r0, sl
    1424:	0b24      	lsrs	r4, r4, #12
    1426:	0d52      	lsrs	r2, r2, #21
    1428:	4698      	mov	r8, r3
    142a:	d100      	bne.n	142e <__aeabi_dmul+0x5e>
    142c:	e076      	b.n	151c <__aeabi_dmul+0x14c>
    142e:	4b5f      	ldr	r3, [pc, #380]	; (15ac <__aeabi_dmul+0x1dc>)
    1430:	429a      	cmp	r2, r3
    1432:	d06d      	beq.n	1510 <__aeabi_dmul+0x140>
    1434:	2380      	movs	r3, #128	; 0x80
    1436:	0f41      	lsrs	r1, r0, #29
    1438:	041b      	lsls	r3, r3, #16
    143a:	430b      	orrs	r3, r1
    143c:	495c      	ldr	r1, [pc, #368]	; (15b0 <__aeabi_dmul+0x1e0>)
    143e:	00e4      	lsls	r4, r4, #3
    1440:	468c      	mov	ip, r1
    1442:	431c      	orrs	r4, r3
    1444:	00c3      	lsls	r3, r0, #3
    1446:	2000      	movs	r0, #0
    1448:	4462      	add	r2, ip
    144a:	4641      	mov	r1, r8
    144c:	18b6      	adds	r6, r6, r2
    144e:	4069      	eors	r1, r5
    1450:	1c72      	adds	r2, r6, #1
    1452:	9101      	str	r1, [sp, #4]
    1454:	4694      	mov	ip, r2
    1456:	4307      	orrs	r7, r0
    1458:	2f0f      	cmp	r7, #15
    145a:	d900      	bls.n	145e <__aeabi_dmul+0x8e>
    145c:	e0b0      	b.n	15c0 <__aeabi_dmul+0x1f0>
    145e:	4a55      	ldr	r2, [pc, #340]	; (15b4 <__aeabi_dmul+0x1e4>)
    1460:	00bf      	lsls	r7, r7, #2
    1462:	59d2      	ldr	r2, [r2, r7]
    1464:	4697      	mov	pc, r2
    1466:	465b      	mov	r3, fp
    1468:	4303      	orrs	r3, r0
    146a:	4699      	mov	r9, r3
    146c:	d000      	beq.n	1470 <__aeabi_dmul+0xa0>
    146e:	e087      	b.n	1580 <__aeabi_dmul+0x1b0>
    1470:	2300      	movs	r3, #0
    1472:	469b      	mov	fp, r3
    1474:	3302      	adds	r3, #2
    1476:	2708      	movs	r7, #8
    1478:	9302      	str	r3, [sp, #8]
    147a:	e7ce      	b.n	141a <__aeabi_dmul+0x4a>
    147c:	4642      	mov	r2, r8
    147e:	9201      	str	r2, [sp, #4]
    1480:	2802      	cmp	r0, #2
    1482:	d067      	beq.n	1554 <__aeabi_dmul+0x184>
    1484:	2803      	cmp	r0, #3
    1486:	d100      	bne.n	148a <__aeabi_dmul+0xba>
    1488:	e20e      	b.n	18a8 <__aeabi_dmul+0x4d8>
    148a:	2801      	cmp	r0, #1
    148c:	d000      	beq.n	1490 <__aeabi_dmul+0xc0>
    148e:	e162      	b.n	1756 <__aeabi_dmul+0x386>
    1490:	2300      	movs	r3, #0
    1492:	2400      	movs	r4, #0
    1494:	2200      	movs	r2, #0
    1496:	4699      	mov	r9, r3
    1498:	9901      	ldr	r1, [sp, #4]
    149a:	4001      	ands	r1, r0
    149c:	b2cd      	uxtb	r5, r1
    149e:	2100      	movs	r1, #0
    14a0:	0312      	lsls	r2, r2, #12
    14a2:	0d0b      	lsrs	r3, r1, #20
    14a4:	0b12      	lsrs	r2, r2, #12
    14a6:	051b      	lsls	r3, r3, #20
    14a8:	4313      	orrs	r3, r2
    14aa:	4a43      	ldr	r2, [pc, #268]	; (15b8 <__aeabi_dmul+0x1e8>)
    14ac:	0524      	lsls	r4, r4, #20
    14ae:	4013      	ands	r3, r2
    14b0:	431c      	orrs	r4, r3
    14b2:	0064      	lsls	r4, r4, #1
    14b4:	07ed      	lsls	r5, r5, #31
    14b6:	0864      	lsrs	r4, r4, #1
    14b8:	432c      	orrs	r4, r5
    14ba:	4648      	mov	r0, r9
    14bc:	0021      	movs	r1, r4
    14be:	b007      	add	sp, #28
    14c0:	bc3c      	pop	{r2, r3, r4, r5}
    14c2:	4690      	mov	r8, r2
    14c4:	4699      	mov	r9, r3
    14c6:	46a2      	mov	sl, r4
    14c8:	46ab      	mov	fp, r5
    14ca:	bdf0      	pop	{r4, r5, r6, r7, pc}
    14cc:	4303      	orrs	r3, r0
    14ce:	4699      	mov	r9, r3
    14d0:	d04f      	beq.n	1572 <__aeabi_dmul+0x1a2>
    14d2:	465b      	mov	r3, fp
    14d4:	2b00      	cmp	r3, #0
    14d6:	d100      	bne.n	14da <__aeabi_dmul+0x10a>
    14d8:	e189      	b.n	17ee <__aeabi_dmul+0x41e>
    14da:	4658      	mov	r0, fp
    14dc:	f000 fb16 	bl	1b0c <__clzsi2>
    14e0:	0003      	movs	r3, r0
    14e2:	3b0b      	subs	r3, #11
    14e4:	2b1c      	cmp	r3, #28
    14e6:	dd00      	ble.n	14ea <__aeabi_dmul+0x11a>
    14e8:	e17a      	b.n	17e0 <__aeabi_dmul+0x410>
    14ea:	221d      	movs	r2, #29
    14ec:	1ad3      	subs	r3, r2, r3
    14ee:	003a      	movs	r2, r7
    14f0:	0001      	movs	r1, r0
    14f2:	465c      	mov	r4, fp
    14f4:	40da      	lsrs	r2, r3
    14f6:	3908      	subs	r1, #8
    14f8:	408c      	lsls	r4, r1
    14fa:	0013      	movs	r3, r2
    14fc:	408f      	lsls	r7, r1
    14fe:	4323      	orrs	r3, r4
    1500:	469b      	mov	fp, r3
    1502:	46b9      	mov	r9, r7
    1504:	2300      	movs	r3, #0
    1506:	4e2d      	ldr	r6, [pc, #180]	; (15bc <__aeabi_dmul+0x1ec>)
    1508:	2700      	movs	r7, #0
    150a:	1a36      	subs	r6, r6, r0
    150c:	9302      	str	r3, [sp, #8]
    150e:	e784      	b.n	141a <__aeabi_dmul+0x4a>
    1510:	4653      	mov	r3, sl
    1512:	4323      	orrs	r3, r4
    1514:	d12a      	bne.n	156c <__aeabi_dmul+0x19c>
    1516:	2400      	movs	r4, #0
    1518:	2002      	movs	r0, #2
    151a:	e796      	b.n	144a <__aeabi_dmul+0x7a>
    151c:	4653      	mov	r3, sl
    151e:	4323      	orrs	r3, r4
    1520:	d020      	beq.n	1564 <__aeabi_dmul+0x194>
    1522:	2c00      	cmp	r4, #0
    1524:	d100      	bne.n	1528 <__aeabi_dmul+0x158>
    1526:	e157      	b.n	17d8 <__aeabi_dmul+0x408>
    1528:	0020      	movs	r0, r4
    152a:	f000 faef 	bl	1b0c <__clzsi2>
    152e:	0003      	movs	r3, r0
    1530:	3b0b      	subs	r3, #11
    1532:	2b1c      	cmp	r3, #28
    1534:	dd00      	ble.n	1538 <__aeabi_dmul+0x168>
    1536:	e149      	b.n	17cc <__aeabi_dmul+0x3fc>
    1538:	211d      	movs	r1, #29
    153a:	1acb      	subs	r3, r1, r3
    153c:	4651      	mov	r1, sl
    153e:	0002      	movs	r2, r0
    1540:	40d9      	lsrs	r1, r3
    1542:	4653      	mov	r3, sl
    1544:	3a08      	subs	r2, #8
    1546:	4094      	lsls	r4, r2
    1548:	4093      	lsls	r3, r2
    154a:	430c      	orrs	r4, r1
    154c:	4a1b      	ldr	r2, [pc, #108]	; (15bc <__aeabi_dmul+0x1ec>)
    154e:	1a12      	subs	r2, r2, r0
    1550:	2000      	movs	r0, #0
    1552:	e77a      	b.n	144a <__aeabi_dmul+0x7a>
    1554:	2501      	movs	r5, #1
    1556:	9b01      	ldr	r3, [sp, #4]
    1558:	4c14      	ldr	r4, [pc, #80]	; (15ac <__aeabi_dmul+0x1dc>)
    155a:	401d      	ands	r5, r3
    155c:	2300      	movs	r3, #0
    155e:	2200      	movs	r2, #0
    1560:	4699      	mov	r9, r3
    1562:	e79c      	b.n	149e <__aeabi_dmul+0xce>
    1564:	2400      	movs	r4, #0
    1566:	2200      	movs	r2, #0
    1568:	2001      	movs	r0, #1
    156a:	e76e      	b.n	144a <__aeabi_dmul+0x7a>
    156c:	4653      	mov	r3, sl
    156e:	2003      	movs	r0, #3
    1570:	e76b      	b.n	144a <__aeabi_dmul+0x7a>
    1572:	2300      	movs	r3, #0
    1574:	469b      	mov	fp, r3
    1576:	3301      	adds	r3, #1
    1578:	2704      	movs	r7, #4
    157a:	2600      	movs	r6, #0
    157c:	9302      	str	r3, [sp, #8]
    157e:	e74c      	b.n	141a <__aeabi_dmul+0x4a>
    1580:	2303      	movs	r3, #3
    1582:	4681      	mov	r9, r0
    1584:	270c      	movs	r7, #12
    1586:	9302      	str	r3, [sp, #8]
    1588:	e747      	b.n	141a <__aeabi_dmul+0x4a>
    158a:	2280      	movs	r2, #128	; 0x80
    158c:	2300      	movs	r3, #0
    158e:	2500      	movs	r5, #0
    1590:	0312      	lsls	r2, r2, #12
    1592:	4699      	mov	r9, r3
    1594:	4c05      	ldr	r4, [pc, #20]	; (15ac <__aeabi_dmul+0x1dc>)
    1596:	e782      	b.n	149e <__aeabi_dmul+0xce>
    1598:	465c      	mov	r4, fp
    159a:	464b      	mov	r3, r9
    159c:	9802      	ldr	r0, [sp, #8]
    159e:	e76f      	b.n	1480 <__aeabi_dmul+0xb0>
    15a0:	465c      	mov	r4, fp
    15a2:	464b      	mov	r3, r9
    15a4:	9501      	str	r5, [sp, #4]
    15a6:	9802      	ldr	r0, [sp, #8]
    15a8:	e76a      	b.n	1480 <__aeabi_dmul+0xb0>
    15aa:	46c0      	nop			; (mov r8, r8)
    15ac:	000007ff 	.word	0x000007ff
    15b0:	fffffc01 	.word	0xfffffc01
    15b4:	00001f1c 	.word	0x00001f1c
    15b8:	800fffff 	.word	0x800fffff
    15bc:	fffffc0d 	.word	0xfffffc0d
    15c0:	464a      	mov	r2, r9
    15c2:	4649      	mov	r1, r9
    15c4:	0c17      	lsrs	r7, r2, #16
    15c6:	0c1a      	lsrs	r2, r3, #16
    15c8:	041b      	lsls	r3, r3, #16
    15ca:	0c1b      	lsrs	r3, r3, #16
    15cc:	0408      	lsls	r0, r1, #16
    15ce:	0019      	movs	r1, r3
    15d0:	0c00      	lsrs	r0, r0, #16
    15d2:	4341      	muls	r1, r0
    15d4:	0015      	movs	r5, r2
    15d6:	4688      	mov	r8, r1
    15d8:	0019      	movs	r1, r3
    15da:	437d      	muls	r5, r7
    15dc:	4379      	muls	r1, r7
    15de:	9503      	str	r5, [sp, #12]
    15e0:	4689      	mov	r9, r1
    15e2:	0029      	movs	r1, r5
    15e4:	0015      	movs	r5, r2
    15e6:	4345      	muls	r5, r0
    15e8:	444d      	add	r5, r9
    15ea:	9502      	str	r5, [sp, #8]
    15ec:	4645      	mov	r5, r8
    15ee:	0c2d      	lsrs	r5, r5, #16
    15f0:	46aa      	mov	sl, r5
    15f2:	9d02      	ldr	r5, [sp, #8]
    15f4:	4455      	add	r5, sl
    15f6:	45a9      	cmp	r9, r5
    15f8:	d906      	bls.n	1608 <__aeabi_dmul+0x238>
    15fa:	468a      	mov	sl, r1
    15fc:	2180      	movs	r1, #128	; 0x80
    15fe:	0249      	lsls	r1, r1, #9
    1600:	4689      	mov	r9, r1
    1602:	44ca      	add	sl, r9
    1604:	4651      	mov	r1, sl
    1606:	9103      	str	r1, [sp, #12]
    1608:	0c29      	lsrs	r1, r5, #16
    160a:	9104      	str	r1, [sp, #16]
    160c:	4641      	mov	r1, r8
    160e:	0409      	lsls	r1, r1, #16
    1610:	042d      	lsls	r5, r5, #16
    1612:	0c09      	lsrs	r1, r1, #16
    1614:	4688      	mov	r8, r1
    1616:	0029      	movs	r1, r5
    1618:	0c25      	lsrs	r5, r4, #16
    161a:	0424      	lsls	r4, r4, #16
    161c:	4441      	add	r1, r8
    161e:	0c24      	lsrs	r4, r4, #16
    1620:	9105      	str	r1, [sp, #20]
    1622:	0021      	movs	r1, r4
    1624:	4341      	muls	r1, r0
    1626:	4688      	mov	r8, r1
    1628:	0021      	movs	r1, r4
    162a:	4379      	muls	r1, r7
    162c:	468a      	mov	sl, r1
    162e:	4368      	muls	r0, r5
    1630:	4641      	mov	r1, r8
    1632:	4450      	add	r0, sl
    1634:	4681      	mov	r9, r0
    1636:	0c08      	lsrs	r0, r1, #16
    1638:	4448      	add	r0, r9
    163a:	436f      	muls	r7, r5
    163c:	4582      	cmp	sl, r0
    163e:	d903      	bls.n	1648 <__aeabi_dmul+0x278>
    1640:	2180      	movs	r1, #128	; 0x80
    1642:	0249      	lsls	r1, r1, #9
    1644:	4689      	mov	r9, r1
    1646:	444f      	add	r7, r9
    1648:	0c01      	lsrs	r1, r0, #16
    164a:	4689      	mov	r9, r1
    164c:	0039      	movs	r1, r7
    164e:	4449      	add	r1, r9
    1650:	9102      	str	r1, [sp, #8]
    1652:	4641      	mov	r1, r8
    1654:	040f      	lsls	r7, r1, #16
    1656:	9904      	ldr	r1, [sp, #16]
    1658:	0c3f      	lsrs	r7, r7, #16
    165a:	4688      	mov	r8, r1
    165c:	0400      	lsls	r0, r0, #16
    165e:	19c0      	adds	r0, r0, r7
    1660:	4480      	add	r8, r0
    1662:	4641      	mov	r1, r8
    1664:	9104      	str	r1, [sp, #16]
    1666:	4659      	mov	r1, fp
    1668:	0c0f      	lsrs	r7, r1, #16
    166a:	0409      	lsls	r1, r1, #16
    166c:	0c09      	lsrs	r1, r1, #16
    166e:	4688      	mov	r8, r1
    1670:	4359      	muls	r1, r3
    1672:	468a      	mov	sl, r1
    1674:	0039      	movs	r1, r7
    1676:	4351      	muls	r1, r2
    1678:	4689      	mov	r9, r1
    167a:	4641      	mov	r1, r8
    167c:	434a      	muls	r2, r1
    167e:	4651      	mov	r1, sl
    1680:	0c09      	lsrs	r1, r1, #16
    1682:	468b      	mov	fp, r1
    1684:	437b      	muls	r3, r7
    1686:	18d2      	adds	r2, r2, r3
    1688:	445a      	add	r2, fp
    168a:	4293      	cmp	r3, r2
    168c:	d903      	bls.n	1696 <__aeabi_dmul+0x2c6>
    168e:	2380      	movs	r3, #128	; 0x80
    1690:	025b      	lsls	r3, r3, #9
    1692:	469b      	mov	fp, r3
    1694:	44d9      	add	r9, fp
    1696:	4651      	mov	r1, sl
    1698:	0409      	lsls	r1, r1, #16
    169a:	0c09      	lsrs	r1, r1, #16
    169c:	468a      	mov	sl, r1
    169e:	4641      	mov	r1, r8
    16a0:	4361      	muls	r1, r4
    16a2:	437c      	muls	r4, r7
    16a4:	0c13      	lsrs	r3, r2, #16
    16a6:	0412      	lsls	r2, r2, #16
    16a8:	444b      	add	r3, r9
    16aa:	4452      	add	r2, sl
    16ac:	46a1      	mov	r9, r4
    16ae:	468a      	mov	sl, r1
    16b0:	003c      	movs	r4, r7
    16b2:	4641      	mov	r1, r8
    16b4:	436c      	muls	r4, r5
    16b6:	434d      	muls	r5, r1
    16b8:	4651      	mov	r1, sl
    16ba:	444d      	add	r5, r9
    16bc:	0c0f      	lsrs	r7, r1, #16
    16be:	197d      	adds	r5, r7, r5
    16c0:	45a9      	cmp	r9, r5
    16c2:	d903      	bls.n	16cc <__aeabi_dmul+0x2fc>
    16c4:	2180      	movs	r1, #128	; 0x80
    16c6:	0249      	lsls	r1, r1, #9
    16c8:	4688      	mov	r8, r1
    16ca:	4444      	add	r4, r8
    16cc:	9f04      	ldr	r7, [sp, #16]
    16ce:	9903      	ldr	r1, [sp, #12]
    16d0:	46b8      	mov	r8, r7
    16d2:	4441      	add	r1, r8
    16d4:	468b      	mov	fp, r1
    16d6:	4583      	cmp	fp, r0
    16d8:	4180      	sbcs	r0, r0
    16da:	4241      	negs	r1, r0
    16dc:	4688      	mov	r8, r1
    16de:	4651      	mov	r1, sl
    16e0:	0408      	lsls	r0, r1, #16
    16e2:	042f      	lsls	r7, r5, #16
    16e4:	0c00      	lsrs	r0, r0, #16
    16e6:	183f      	adds	r7, r7, r0
    16e8:	4658      	mov	r0, fp
    16ea:	9902      	ldr	r1, [sp, #8]
    16ec:	1810      	adds	r0, r2, r0
    16ee:	4689      	mov	r9, r1
    16f0:	4290      	cmp	r0, r2
    16f2:	4192      	sbcs	r2, r2
    16f4:	444f      	add	r7, r9
    16f6:	46ba      	mov	sl, r7
    16f8:	4252      	negs	r2, r2
    16fa:	4699      	mov	r9, r3
    16fc:	4693      	mov	fp, r2
    16fe:	44c2      	add	sl, r8
    1700:	44d1      	add	r9, sl
    1702:	44cb      	add	fp, r9
    1704:	428f      	cmp	r7, r1
    1706:	41bf      	sbcs	r7, r7
    1708:	45c2      	cmp	sl, r8
    170a:	4189      	sbcs	r1, r1
    170c:	4599      	cmp	r9, r3
    170e:	419b      	sbcs	r3, r3
    1710:	4593      	cmp	fp, r2
    1712:	4192      	sbcs	r2, r2
    1714:	427f      	negs	r7, r7
    1716:	4249      	negs	r1, r1
    1718:	0c2d      	lsrs	r5, r5, #16
    171a:	4252      	negs	r2, r2
    171c:	430f      	orrs	r7, r1
    171e:	425b      	negs	r3, r3
    1720:	4313      	orrs	r3, r2
    1722:	197f      	adds	r7, r7, r5
    1724:	18ff      	adds	r7, r7, r3
    1726:	465b      	mov	r3, fp
    1728:	193c      	adds	r4, r7, r4
    172a:	0ddb      	lsrs	r3, r3, #23
    172c:	9a05      	ldr	r2, [sp, #20]
    172e:	0264      	lsls	r4, r4, #9
    1730:	431c      	orrs	r4, r3
    1732:	0243      	lsls	r3, r0, #9
    1734:	4313      	orrs	r3, r2
    1736:	1e5d      	subs	r5, r3, #1
    1738:	41ab      	sbcs	r3, r5
    173a:	465a      	mov	r2, fp
    173c:	0dc0      	lsrs	r0, r0, #23
    173e:	4303      	orrs	r3, r0
    1740:	0252      	lsls	r2, r2, #9
    1742:	4313      	orrs	r3, r2
    1744:	01e2      	lsls	r2, r4, #7
    1746:	d556      	bpl.n	17f6 <__aeabi_dmul+0x426>
    1748:	2001      	movs	r0, #1
    174a:	085a      	lsrs	r2, r3, #1
    174c:	4003      	ands	r3, r0
    174e:	4313      	orrs	r3, r2
    1750:	07e2      	lsls	r2, r4, #31
    1752:	4313      	orrs	r3, r2
    1754:	0864      	lsrs	r4, r4, #1
    1756:	485a      	ldr	r0, [pc, #360]	; (18c0 <__aeabi_dmul+0x4f0>)
    1758:	4460      	add	r0, ip
    175a:	2800      	cmp	r0, #0
    175c:	dd4d      	ble.n	17fa <__aeabi_dmul+0x42a>
    175e:	075a      	lsls	r2, r3, #29
    1760:	d009      	beq.n	1776 <__aeabi_dmul+0x3a6>
    1762:	220f      	movs	r2, #15
    1764:	401a      	ands	r2, r3
    1766:	2a04      	cmp	r2, #4
    1768:	d005      	beq.n	1776 <__aeabi_dmul+0x3a6>
    176a:	1d1a      	adds	r2, r3, #4
    176c:	429a      	cmp	r2, r3
    176e:	419b      	sbcs	r3, r3
    1770:	425b      	negs	r3, r3
    1772:	18e4      	adds	r4, r4, r3
    1774:	0013      	movs	r3, r2
    1776:	01e2      	lsls	r2, r4, #7
    1778:	d504      	bpl.n	1784 <__aeabi_dmul+0x3b4>
    177a:	2080      	movs	r0, #128	; 0x80
    177c:	4a51      	ldr	r2, [pc, #324]	; (18c4 <__aeabi_dmul+0x4f4>)
    177e:	00c0      	lsls	r0, r0, #3
    1780:	4014      	ands	r4, r2
    1782:	4460      	add	r0, ip
    1784:	4a50      	ldr	r2, [pc, #320]	; (18c8 <__aeabi_dmul+0x4f8>)
    1786:	4290      	cmp	r0, r2
    1788:	dd00      	ble.n	178c <__aeabi_dmul+0x3bc>
    178a:	e6e3      	b.n	1554 <__aeabi_dmul+0x184>
    178c:	2501      	movs	r5, #1
    178e:	08db      	lsrs	r3, r3, #3
    1790:	0762      	lsls	r2, r4, #29
    1792:	431a      	orrs	r2, r3
    1794:	0264      	lsls	r4, r4, #9
    1796:	9b01      	ldr	r3, [sp, #4]
    1798:	4691      	mov	r9, r2
    179a:	0b22      	lsrs	r2, r4, #12
    179c:	0544      	lsls	r4, r0, #21
    179e:	0d64      	lsrs	r4, r4, #21
    17a0:	401d      	ands	r5, r3
    17a2:	e67c      	b.n	149e <__aeabi_dmul+0xce>
    17a4:	2280      	movs	r2, #128	; 0x80
    17a6:	4659      	mov	r1, fp
    17a8:	0312      	lsls	r2, r2, #12
    17aa:	4211      	tst	r1, r2
    17ac:	d008      	beq.n	17c0 <__aeabi_dmul+0x3f0>
    17ae:	4214      	tst	r4, r2
    17b0:	d106      	bne.n	17c0 <__aeabi_dmul+0x3f0>
    17b2:	4322      	orrs	r2, r4
    17b4:	0312      	lsls	r2, r2, #12
    17b6:	0b12      	lsrs	r2, r2, #12
    17b8:	4645      	mov	r5, r8
    17ba:	4699      	mov	r9, r3
    17bc:	4c43      	ldr	r4, [pc, #268]	; (18cc <__aeabi_dmul+0x4fc>)
    17be:	e66e      	b.n	149e <__aeabi_dmul+0xce>
    17c0:	465b      	mov	r3, fp
    17c2:	431a      	orrs	r2, r3
    17c4:	0312      	lsls	r2, r2, #12
    17c6:	0b12      	lsrs	r2, r2, #12
    17c8:	4c40      	ldr	r4, [pc, #256]	; (18cc <__aeabi_dmul+0x4fc>)
    17ca:	e668      	b.n	149e <__aeabi_dmul+0xce>
    17cc:	0003      	movs	r3, r0
    17ce:	4654      	mov	r4, sl
    17d0:	3b28      	subs	r3, #40	; 0x28
    17d2:	409c      	lsls	r4, r3
    17d4:	2300      	movs	r3, #0
    17d6:	e6b9      	b.n	154c <__aeabi_dmul+0x17c>
    17d8:	f000 f998 	bl	1b0c <__clzsi2>
    17dc:	3020      	adds	r0, #32
    17de:	e6a6      	b.n	152e <__aeabi_dmul+0x15e>
    17e0:	0003      	movs	r3, r0
    17e2:	3b28      	subs	r3, #40	; 0x28
    17e4:	409f      	lsls	r7, r3
    17e6:	2300      	movs	r3, #0
    17e8:	46bb      	mov	fp, r7
    17ea:	4699      	mov	r9, r3
    17ec:	e68a      	b.n	1504 <__aeabi_dmul+0x134>
    17ee:	f000 f98d 	bl	1b0c <__clzsi2>
    17f2:	3020      	adds	r0, #32
    17f4:	e674      	b.n	14e0 <__aeabi_dmul+0x110>
    17f6:	46b4      	mov	ip, r6
    17f8:	e7ad      	b.n	1756 <__aeabi_dmul+0x386>
    17fa:	2501      	movs	r5, #1
    17fc:	1a2a      	subs	r2, r5, r0
    17fe:	2a38      	cmp	r2, #56	; 0x38
    1800:	dd06      	ble.n	1810 <__aeabi_dmul+0x440>
    1802:	9b01      	ldr	r3, [sp, #4]
    1804:	2400      	movs	r4, #0
    1806:	401d      	ands	r5, r3
    1808:	2300      	movs	r3, #0
    180a:	2200      	movs	r2, #0
    180c:	4699      	mov	r9, r3
    180e:	e646      	b.n	149e <__aeabi_dmul+0xce>
    1810:	2a1f      	cmp	r2, #31
    1812:	dc21      	bgt.n	1858 <__aeabi_dmul+0x488>
    1814:	2520      	movs	r5, #32
    1816:	0020      	movs	r0, r4
    1818:	1aad      	subs	r5, r5, r2
    181a:	001e      	movs	r6, r3
    181c:	40ab      	lsls	r3, r5
    181e:	40a8      	lsls	r0, r5
    1820:	40d6      	lsrs	r6, r2
    1822:	1e5d      	subs	r5, r3, #1
    1824:	41ab      	sbcs	r3, r5
    1826:	4330      	orrs	r0, r6
    1828:	4318      	orrs	r0, r3
    182a:	40d4      	lsrs	r4, r2
    182c:	0743      	lsls	r3, r0, #29
    182e:	d009      	beq.n	1844 <__aeabi_dmul+0x474>
    1830:	230f      	movs	r3, #15
    1832:	4003      	ands	r3, r0
    1834:	2b04      	cmp	r3, #4
    1836:	d005      	beq.n	1844 <__aeabi_dmul+0x474>
    1838:	0003      	movs	r3, r0
    183a:	1d18      	adds	r0, r3, #4
    183c:	4298      	cmp	r0, r3
    183e:	419b      	sbcs	r3, r3
    1840:	425b      	negs	r3, r3
    1842:	18e4      	adds	r4, r4, r3
    1844:	0223      	lsls	r3, r4, #8
    1846:	d521      	bpl.n	188c <__aeabi_dmul+0x4bc>
    1848:	2501      	movs	r5, #1
    184a:	9b01      	ldr	r3, [sp, #4]
    184c:	2401      	movs	r4, #1
    184e:	401d      	ands	r5, r3
    1850:	2300      	movs	r3, #0
    1852:	2200      	movs	r2, #0
    1854:	4699      	mov	r9, r3
    1856:	e622      	b.n	149e <__aeabi_dmul+0xce>
    1858:	251f      	movs	r5, #31
    185a:	0021      	movs	r1, r4
    185c:	426d      	negs	r5, r5
    185e:	1a28      	subs	r0, r5, r0
    1860:	40c1      	lsrs	r1, r0
    1862:	0008      	movs	r0, r1
    1864:	2a20      	cmp	r2, #32
    1866:	d01d      	beq.n	18a4 <__aeabi_dmul+0x4d4>
    1868:	355f      	adds	r5, #95	; 0x5f
    186a:	1aaa      	subs	r2, r5, r2
    186c:	4094      	lsls	r4, r2
    186e:	4323      	orrs	r3, r4
    1870:	1e5c      	subs	r4, r3, #1
    1872:	41a3      	sbcs	r3, r4
    1874:	2507      	movs	r5, #7
    1876:	4303      	orrs	r3, r0
    1878:	401d      	ands	r5, r3
    187a:	2200      	movs	r2, #0
    187c:	2d00      	cmp	r5, #0
    187e:	d009      	beq.n	1894 <__aeabi_dmul+0x4c4>
    1880:	220f      	movs	r2, #15
    1882:	2400      	movs	r4, #0
    1884:	401a      	ands	r2, r3
    1886:	0018      	movs	r0, r3
    1888:	2a04      	cmp	r2, #4
    188a:	d1d6      	bne.n	183a <__aeabi_dmul+0x46a>
    188c:	0003      	movs	r3, r0
    188e:	0765      	lsls	r5, r4, #29
    1890:	0264      	lsls	r4, r4, #9
    1892:	0b22      	lsrs	r2, r4, #12
    1894:	08db      	lsrs	r3, r3, #3
    1896:	432b      	orrs	r3, r5
    1898:	2501      	movs	r5, #1
    189a:	4699      	mov	r9, r3
    189c:	9b01      	ldr	r3, [sp, #4]
    189e:	2400      	movs	r4, #0
    18a0:	401d      	ands	r5, r3
    18a2:	e5fc      	b.n	149e <__aeabi_dmul+0xce>
    18a4:	2400      	movs	r4, #0
    18a6:	e7e2      	b.n	186e <__aeabi_dmul+0x49e>
    18a8:	2280      	movs	r2, #128	; 0x80
    18aa:	2501      	movs	r5, #1
    18ac:	0312      	lsls	r2, r2, #12
    18ae:	4322      	orrs	r2, r4
    18b0:	9901      	ldr	r1, [sp, #4]
    18b2:	0312      	lsls	r2, r2, #12
    18b4:	0b12      	lsrs	r2, r2, #12
    18b6:	400d      	ands	r5, r1
    18b8:	4699      	mov	r9, r3
    18ba:	4c04      	ldr	r4, [pc, #16]	; (18cc <__aeabi_dmul+0x4fc>)
    18bc:	e5ef      	b.n	149e <__aeabi_dmul+0xce>
    18be:	46c0      	nop			; (mov r8, r8)
    18c0:	000003ff 	.word	0x000003ff
    18c4:	feffffff 	.word	0xfeffffff
    18c8:	000007fe 	.word	0x000007fe
    18cc:	000007ff 	.word	0x000007ff

000018d0 <__aeabi_i2d>:
    18d0:	b570      	push	{r4, r5, r6, lr}
    18d2:	2800      	cmp	r0, #0
    18d4:	d030      	beq.n	1938 <__aeabi_i2d+0x68>
    18d6:	17c3      	asrs	r3, r0, #31
    18d8:	18c4      	adds	r4, r0, r3
    18da:	405c      	eors	r4, r3
    18dc:	0fc5      	lsrs	r5, r0, #31
    18de:	0020      	movs	r0, r4
    18e0:	f000 f914 	bl	1b0c <__clzsi2>
    18e4:	4b17      	ldr	r3, [pc, #92]	; (1944 <__aeabi_i2d+0x74>)
    18e6:	4a18      	ldr	r2, [pc, #96]	; (1948 <__aeabi_i2d+0x78>)
    18e8:	1a1b      	subs	r3, r3, r0
    18ea:	1ad2      	subs	r2, r2, r3
    18ec:	2a1f      	cmp	r2, #31
    18ee:	dd18      	ble.n	1922 <__aeabi_i2d+0x52>
    18f0:	4a16      	ldr	r2, [pc, #88]	; (194c <__aeabi_i2d+0x7c>)
    18f2:	1ad2      	subs	r2, r2, r3
    18f4:	4094      	lsls	r4, r2
    18f6:	2200      	movs	r2, #0
    18f8:	0324      	lsls	r4, r4, #12
    18fa:	055b      	lsls	r3, r3, #21
    18fc:	0b24      	lsrs	r4, r4, #12
    18fe:	0d5b      	lsrs	r3, r3, #21
    1900:	2100      	movs	r1, #0
    1902:	0010      	movs	r0, r2
    1904:	0324      	lsls	r4, r4, #12
    1906:	0d0a      	lsrs	r2, r1, #20
    1908:	0b24      	lsrs	r4, r4, #12
    190a:	0512      	lsls	r2, r2, #20
    190c:	4322      	orrs	r2, r4
    190e:	4c10      	ldr	r4, [pc, #64]	; (1950 <__aeabi_i2d+0x80>)
    1910:	051b      	lsls	r3, r3, #20
    1912:	4022      	ands	r2, r4
    1914:	4313      	orrs	r3, r2
    1916:	005b      	lsls	r3, r3, #1
    1918:	07ed      	lsls	r5, r5, #31
    191a:	085b      	lsrs	r3, r3, #1
    191c:	432b      	orrs	r3, r5
    191e:	0019      	movs	r1, r3
    1920:	bd70      	pop	{r4, r5, r6, pc}
    1922:	0021      	movs	r1, r4
    1924:	4091      	lsls	r1, r2
    1926:	000a      	movs	r2, r1
    1928:	210b      	movs	r1, #11
    192a:	1a08      	subs	r0, r1, r0
    192c:	40c4      	lsrs	r4, r0
    192e:	055b      	lsls	r3, r3, #21
    1930:	0324      	lsls	r4, r4, #12
    1932:	0b24      	lsrs	r4, r4, #12
    1934:	0d5b      	lsrs	r3, r3, #21
    1936:	e7e3      	b.n	1900 <__aeabi_i2d+0x30>
    1938:	2500      	movs	r5, #0
    193a:	2300      	movs	r3, #0
    193c:	2400      	movs	r4, #0
    193e:	2200      	movs	r2, #0
    1940:	e7de      	b.n	1900 <__aeabi_i2d+0x30>
    1942:	46c0      	nop			; (mov r8, r8)
    1944:	0000041e 	.word	0x0000041e
    1948:	00000433 	.word	0x00000433
    194c:	00000413 	.word	0x00000413
    1950:	800fffff 	.word	0x800fffff

00001954 <__aeabi_f2d>:
    1954:	0041      	lsls	r1, r0, #1
    1956:	0e09      	lsrs	r1, r1, #24
    1958:	1c4b      	adds	r3, r1, #1
    195a:	b570      	push	{r4, r5, r6, lr}
    195c:	b2db      	uxtb	r3, r3
    195e:	0246      	lsls	r6, r0, #9
    1960:	0a75      	lsrs	r5, r6, #9
    1962:	0fc4      	lsrs	r4, r0, #31
    1964:	2b01      	cmp	r3, #1
    1966:	dd14      	ble.n	1992 <__aeabi_f2d+0x3e>
    1968:	23e0      	movs	r3, #224	; 0xe0
    196a:	009b      	lsls	r3, r3, #2
    196c:	076d      	lsls	r5, r5, #29
    196e:	0b36      	lsrs	r6, r6, #12
    1970:	18cb      	adds	r3, r1, r3
    1972:	2100      	movs	r1, #0
    1974:	0d0a      	lsrs	r2, r1, #20
    1976:	0028      	movs	r0, r5
    1978:	0512      	lsls	r2, r2, #20
    197a:	4d1c      	ldr	r5, [pc, #112]	; (19ec <__aeabi_f2d+0x98>)
    197c:	4332      	orrs	r2, r6
    197e:	055b      	lsls	r3, r3, #21
    1980:	402a      	ands	r2, r5
    1982:	085b      	lsrs	r3, r3, #1
    1984:	4313      	orrs	r3, r2
    1986:	005b      	lsls	r3, r3, #1
    1988:	07e4      	lsls	r4, r4, #31
    198a:	085b      	lsrs	r3, r3, #1
    198c:	4323      	orrs	r3, r4
    198e:	0019      	movs	r1, r3
    1990:	bd70      	pop	{r4, r5, r6, pc}
    1992:	2900      	cmp	r1, #0
    1994:	d114      	bne.n	19c0 <__aeabi_f2d+0x6c>
    1996:	2d00      	cmp	r5, #0
    1998:	d01e      	beq.n	19d8 <__aeabi_f2d+0x84>
    199a:	0028      	movs	r0, r5
    199c:	f000 f8b6 	bl	1b0c <__clzsi2>
    19a0:	280a      	cmp	r0, #10
    19a2:	dc1c      	bgt.n	19de <__aeabi_f2d+0x8a>
    19a4:	230b      	movs	r3, #11
    19a6:	002a      	movs	r2, r5
    19a8:	1a1b      	subs	r3, r3, r0
    19aa:	40da      	lsrs	r2, r3
    19ac:	0003      	movs	r3, r0
    19ae:	3315      	adds	r3, #21
    19b0:	409d      	lsls	r5, r3
    19b2:	4b0f      	ldr	r3, [pc, #60]	; (19f0 <__aeabi_f2d+0x9c>)
    19b4:	0312      	lsls	r2, r2, #12
    19b6:	1a1b      	subs	r3, r3, r0
    19b8:	055b      	lsls	r3, r3, #21
    19ba:	0b16      	lsrs	r6, r2, #12
    19bc:	0d5b      	lsrs	r3, r3, #21
    19be:	e7d8      	b.n	1972 <__aeabi_f2d+0x1e>
    19c0:	2d00      	cmp	r5, #0
    19c2:	d006      	beq.n	19d2 <__aeabi_f2d+0x7e>
    19c4:	0b32      	lsrs	r2, r6, #12
    19c6:	2680      	movs	r6, #128	; 0x80
    19c8:	0336      	lsls	r6, r6, #12
    19ca:	076d      	lsls	r5, r5, #29
    19cc:	4316      	orrs	r6, r2
    19ce:	4b09      	ldr	r3, [pc, #36]	; (19f4 <__aeabi_f2d+0xa0>)
    19d0:	e7cf      	b.n	1972 <__aeabi_f2d+0x1e>
    19d2:	4b08      	ldr	r3, [pc, #32]	; (19f4 <__aeabi_f2d+0xa0>)
    19d4:	2600      	movs	r6, #0
    19d6:	e7cc      	b.n	1972 <__aeabi_f2d+0x1e>
    19d8:	2300      	movs	r3, #0
    19da:	2600      	movs	r6, #0
    19dc:	e7c9      	b.n	1972 <__aeabi_f2d+0x1e>
    19de:	0003      	movs	r3, r0
    19e0:	002a      	movs	r2, r5
    19e2:	3b0b      	subs	r3, #11
    19e4:	409a      	lsls	r2, r3
    19e6:	2500      	movs	r5, #0
    19e8:	e7e3      	b.n	19b2 <__aeabi_f2d+0x5e>
    19ea:	46c0      	nop			; (mov r8, r8)
    19ec:	800fffff 	.word	0x800fffff
    19f0:	00000389 	.word	0x00000389
    19f4:	000007ff 	.word	0x000007ff

000019f8 <__aeabi_d2f>:
    19f8:	b5f0      	push	{r4, r5, r6, r7, lr}
    19fa:	004c      	lsls	r4, r1, #1
    19fc:	0d64      	lsrs	r4, r4, #21
    19fe:	030b      	lsls	r3, r1, #12
    1a00:	1c62      	adds	r2, r4, #1
    1a02:	0f45      	lsrs	r5, r0, #29
    1a04:	0a5b      	lsrs	r3, r3, #9
    1a06:	0552      	lsls	r2, r2, #21
    1a08:	432b      	orrs	r3, r5
    1a0a:	0fc9      	lsrs	r1, r1, #31
    1a0c:	00c5      	lsls	r5, r0, #3
    1a0e:	0d52      	lsrs	r2, r2, #21
    1a10:	2a01      	cmp	r2, #1
    1a12:	dd28      	ble.n	1a66 <__aeabi_d2f+0x6e>
    1a14:	4a3a      	ldr	r2, [pc, #232]	; (1b00 <__aeabi_d2f+0x108>)
    1a16:	18a6      	adds	r6, r4, r2
    1a18:	2efe      	cmp	r6, #254	; 0xfe
    1a1a:	dc1b      	bgt.n	1a54 <__aeabi_d2f+0x5c>
    1a1c:	2e00      	cmp	r6, #0
    1a1e:	dd3e      	ble.n	1a9e <__aeabi_d2f+0xa6>
    1a20:	0180      	lsls	r0, r0, #6
    1a22:	0002      	movs	r2, r0
    1a24:	1e50      	subs	r0, r2, #1
    1a26:	4182      	sbcs	r2, r0
    1a28:	0f6d      	lsrs	r5, r5, #29
    1a2a:	432a      	orrs	r2, r5
    1a2c:	00db      	lsls	r3, r3, #3
    1a2e:	4313      	orrs	r3, r2
    1a30:	075a      	lsls	r2, r3, #29
    1a32:	d004      	beq.n	1a3e <__aeabi_d2f+0x46>
    1a34:	220f      	movs	r2, #15
    1a36:	401a      	ands	r2, r3
    1a38:	2a04      	cmp	r2, #4
    1a3a:	d000      	beq.n	1a3e <__aeabi_d2f+0x46>
    1a3c:	3304      	adds	r3, #4
    1a3e:	2280      	movs	r2, #128	; 0x80
    1a40:	04d2      	lsls	r2, r2, #19
    1a42:	401a      	ands	r2, r3
    1a44:	d05a      	beq.n	1afc <__aeabi_d2f+0x104>
    1a46:	3601      	adds	r6, #1
    1a48:	2eff      	cmp	r6, #255	; 0xff
    1a4a:	d003      	beq.n	1a54 <__aeabi_d2f+0x5c>
    1a4c:	019b      	lsls	r3, r3, #6
    1a4e:	0a5b      	lsrs	r3, r3, #9
    1a50:	b2f4      	uxtb	r4, r6
    1a52:	e001      	b.n	1a58 <__aeabi_d2f+0x60>
    1a54:	24ff      	movs	r4, #255	; 0xff
    1a56:	2300      	movs	r3, #0
    1a58:	0258      	lsls	r0, r3, #9
    1a5a:	05e4      	lsls	r4, r4, #23
    1a5c:	0a40      	lsrs	r0, r0, #9
    1a5e:	07c9      	lsls	r1, r1, #31
    1a60:	4320      	orrs	r0, r4
    1a62:	4308      	orrs	r0, r1
    1a64:	bdf0      	pop	{r4, r5, r6, r7, pc}
    1a66:	2c00      	cmp	r4, #0
    1a68:	d007      	beq.n	1a7a <__aeabi_d2f+0x82>
    1a6a:	431d      	orrs	r5, r3
    1a6c:	d0f2      	beq.n	1a54 <__aeabi_d2f+0x5c>
    1a6e:	2080      	movs	r0, #128	; 0x80
    1a70:	00db      	lsls	r3, r3, #3
    1a72:	0480      	lsls	r0, r0, #18
    1a74:	4303      	orrs	r3, r0
    1a76:	26ff      	movs	r6, #255	; 0xff
    1a78:	e7da      	b.n	1a30 <__aeabi_d2f+0x38>
    1a7a:	432b      	orrs	r3, r5
    1a7c:	d003      	beq.n	1a86 <__aeabi_d2f+0x8e>
    1a7e:	2305      	movs	r3, #5
    1a80:	08db      	lsrs	r3, r3, #3
    1a82:	2cff      	cmp	r4, #255	; 0xff
    1a84:	d003      	beq.n	1a8e <__aeabi_d2f+0x96>
    1a86:	025b      	lsls	r3, r3, #9
    1a88:	0a5b      	lsrs	r3, r3, #9
    1a8a:	b2e4      	uxtb	r4, r4
    1a8c:	e7e4      	b.n	1a58 <__aeabi_d2f+0x60>
    1a8e:	2b00      	cmp	r3, #0
    1a90:	d032      	beq.n	1af8 <__aeabi_d2f+0x100>
    1a92:	2080      	movs	r0, #128	; 0x80
    1a94:	03c0      	lsls	r0, r0, #15
    1a96:	4303      	orrs	r3, r0
    1a98:	025b      	lsls	r3, r3, #9
    1a9a:	0a5b      	lsrs	r3, r3, #9
    1a9c:	e7dc      	b.n	1a58 <__aeabi_d2f+0x60>
    1a9e:	0032      	movs	r2, r6
    1aa0:	3217      	adds	r2, #23
    1aa2:	db14      	blt.n	1ace <__aeabi_d2f+0xd6>
    1aa4:	2280      	movs	r2, #128	; 0x80
    1aa6:	271e      	movs	r7, #30
    1aa8:	0412      	lsls	r2, r2, #16
    1aaa:	4313      	orrs	r3, r2
    1aac:	1bbf      	subs	r7, r7, r6
    1aae:	2f1f      	cmp	r7, #31
    1ab0:	dc0f      	bgt.n	1ad2 <__aeabi_d2f+0xda>
    1ab2:	4a14      	ldr	r2, [pc, #80]	; (1b04 <__aeabi_d2f+0x10c>)
    1ab4:	4694      	mov	ip, r2
    1ab6:	4464      	add	r4, ip
    1ab8:	002a      	movs	r2, r5
    1aba:	40a5      	lsls	r5, r4
    1abc:	002e      	movs	r6, r5
    1abe:	40a3      	lsls	r3, r4
    1ac0:	1e75      	subs	r5, r6, #1
    1ac2:	41ae      	sbcs	r6, r5
    1ac4:	40fa      	lsrs	r2, r7
    1ac6:	4333      	orrs	r3, r6
    1ac8:	4313      	orrs	r3, r2
    1aca:	2600      	movs	r6, #0
    1acc:	e7b0      	b.n	1a30 <__aeabi_d2f+0x38>
    1ace:	2400      	movs	r4, #0
    1ad0:	e7d5      	b.n	1a7e <__aeabi_d2f+0x86>
    1ad2:	2202      	movs	r2, #2
    1ad4:	4252      	negs	r2, r2
    1ad6:	1b96      	subs	r6, r2, r6
    1ad8:	001a      	movs	r2, r3
    1ada:	40f2      	lsrs	r2, r6
    1adc:	2f20      	cmp	r7, #32
    1ade:	d009      	beq.n	1af4 <__aeabi_d2f+0xfc>
    1ae0:	4809      	ldr	r0, [pc, #36]	; (1b08 <__aeabi_d2f+0x110>)
    1ae2:	4684      	mov	ip, r0
    1ae4:	4464      	add	r4, ip
    1ae6:	40a3      	lsls	r3, r4
    1ae8:	432b      	orrs	r3, r5
    1aea:	1e5d      	subs	r5, r3, #1
    1aec:	41ab      	sbcs	r3, r5
    1aee:	2600      	movs	r6, #0
    1af0:	4313      	orrs	r3, r2
    1af2:	e79d      	b.n	1a30 <__aeabi_d2f+0x38>
    1af4:	2300      	movs	r3, #0
    1af6:	e7f7      	b.n	1ae8 <__aeabi_d2f+0xf0>
    1af8:	2300      	movs	r3, #0
    1afa:	e7ad      	b.n	1a58 <__aeabi_d2f+0x60>
    1afc:	0034      	movs	r4, r6
    1afe:	e7bf      	b.n	1a80 <__aeabi_d2f+0x88>
    1b00:	fffffc80 	.word	0xfffffc80
    1b04:	fffffc82 	.word	0xfffffc82
    1b08:	fffffca2 	.word	0xfffffca2

00001b0c <__clzsi2>:
    1b0c:	211c      	movs	r1, #28
    1b0e:	2301      	movs	r3, #1
    1b10:	041b      	lsls	r3, r3, #16
    1b12:	4298      	cmp	r0, r3
    1b14:	d301      	bcc.n	1b1a <__clzsi2+0xe>
    1b16:	0c00      	lsrs	r0, r0, #16
    1b18:	3910      	subs	r1, #16
    1b1a:	0a1b      	lsrs	r3, r3, #8
    1b1c:	4298      	cmp	r0, r3
    1b1e:	d301      	bcc.n	1b24 <__clzsi2+0x18>
    1b20:	0a00      	lsrs	r0, r0, #8
    1b22:	3908      	subs	r1, #8
    1b24:	091b      	lsrs	r3, r3, #4
    1b26:	4298      	cmp	r0, r3
    1b28:	d301      	bcc.n	1b2e <__clzsi2+0x22>
    1b2a:	0900      	lsrs	r0, r0, #4
    1b2c:	3904      	subs	r1, #4
    1b2e:	a202      	add	r2, pc, #8	; (adr r2, 1b38 <__clzsi2+0x2c>)
    1b30:	5c10      	ldrb	r0, [r2, r0]
    1b32:	1840      	adds	r0, r0, r1
    1b34:	4770      	bx	lr
    1b36:	46c0      	nop			; (mov r8, r8)
    1b38:	02020304 	.word	0x02020304
    1b3c:	01010101 	.word	0x01010101
	...

00001b48 <__libc_init_array>:
    1b48:	b570      	push	{r4, r5, r6, lr}
    1b4a:	4e0d      	ldr	r6, [pc, #52]	; (1b80 <__libc_init_array+0x38>)
    1b4c:	4d0d      	ldr	r5, [pc, #52]	; (1b84 <__libc_init_array+0x3c>)
    1b4e:	2400      	movs	r4, #0
    1b50:	1bad      	subs	r5, r5, r6
    1b52:	10ad      	asrs	r5, r5, #2
    1b54:	d005      	beq.n	1b62 <__libc_init_array+0x1a>
    1b56:	00a3      	lsls	r3, r4, #2
    1b58:	58f3      	ldr	r3, [r6, r3]
    1b5a:	3401      	adds	r4, #1
    1b5c:	4798      	blx	r3
    1b5e:	42a5      	cmp	r5, r4
    1b60:	d1f9      	bne.n	1b56 <__libc_init_array+0xe>
    1b62:	f000 f9fd 	bl	1f60 <_init>
    1b66:	4e08      	ldr	r6, [pc, #32]	; (1b88 <__libc_init_array+0x40>)
    1b68:	4d08      	ldr	r5, [pc, #32]	; (1b8c <__libc_init_array+0x44>)
    1b6a:	2400      	movs	r4, #0
    1b6c:	1bad      	subs	r5, r5, r6
    1b6e:	10ad      	asrs	r5, r5, #2
    1b70:	d005      	beq.n	1b7e <__libc_init_array+0x36>
    1b72:	00a3      	lsls	r3, r4, #2
    1b74:	58f3      	ldr	r3, [r6, r3]
    1b76:	3401      	adds	r4, #1
    1b78:	4798      	blx	r3
    1b7a:	42a5      	cmp	r5, r4
    1b7c:	d1f9      	bne.n	1b72 <__libc_init_array+0x2a>
    1b7e:	bd70      	pop	{r4, r5, r6, pc}
    1b80:	00001f6c 	.word	0x00001f6c
    1b84:	00001f6c 	.word	0x00001f6c
    1b88:	00001f6c 	.word	0x00001f6c
    1b8c:	00001f74 	.word	0x00001f74

00001b90 <memset>:
    1b90:	b5f0      	push	{r4, r5, r6, r7, lr}
    1b92:	0783      	lsls	r3, r0, #30
    1b94:	d043      	beq.n	1c1e <memset+0x8e>
    1b96:	1e54      	subs	r4, r2, #1
    1b98:	2a00      	cmp	r2, #0
    1b9a:	d03f      	beq.n	1c1c <memset+0x8c>
    1b9c:	b2ce      	uxtb	r6, r1
    1b9e:	0002      	movs	r2, r0
    1ba0:	2503      	movs	r5, #3
    1ba2:	e002      	b.n	1baa <memset+0x1a>
    1ba4:	001a      	movs	r2, r3
    1ba6:	3c01      	subs	r4, #1
    1ba8:	d338      	bcc.n	1c1c <memset+0x8c>
    1baa:	1c53      	adds	r3, r2, #1
    1bac:	7016      	strb	r6, [r2, #0]
    1bae:	422b      	tst	r3, r5
    1bb0:	d1f8      	bne.n	1ba4 <memset+0x14>
    1bb2:	2c03      	cmp	r4, #3
    1bb4:	d92a      	bls.n	1c0c <memset+0x7c>
    1bb6:	22ff      	movs	r2, #255	; 0xff
    1bb8:	400a      	ands	r2, r1
    1bba:	0215      	lsls	r5, r2, #8
    1bbc:	4315      	orrs	r5, r2
    1bbe:	042a      	lsls	r2, r5, #16
    1bc0:	4315      	orrs	r5, r2
    1bc2:	2c0f      	cmp	r4, #15
    1bc4:	d914      	bls.n	1bf0 <memset+0x60>
    1bc6:	0027      	movs	r7, r4
    1bc8:	001a      	movs	r2, r3
    1bca:	3f10      	subs	r7, #16
    1bcc:	093e      	lsrs	r6, r7, #4
    1bce:	3601      	adds	r6, #1
    1bd0:	0136      	lsls	r6, r6, #4
    1bd2:	199e      	adds	r6, r3, r6
    1bd4:	6015      	str	r5, [r2, #0]
    1bd6:	6055      	str	r5, [r2, #4]
    1bd8:	6095      	str	r5, [r2, #8]
    1bda:	60d5      	str	r5, [r2, #12]
    1bdc:	3210      	adds	r2, #16
    1bde:	4296      	cmp	r6, r2
    1be0:	d1f8      	bne.n	1bd4 <memset+0x44>
    1be2:	220f      	movs	r2, #15
    1be4:	4397      	bics	r7, r2
    1be6:	3710      	adds	r7, #16
    1be8:	19db      	adds	r3, r3, r7
    1bea:	4014      	ands	r4, r2
    1bec:	2c03      	cmp	r4, #3
    1bee:	d90d      	bls.n	1c0c <memset+0x7c>
    1bf0:	001a      	movs	r2, r3
    1bf2:	1f27      	subs	r7, r4, #4
    1bf4:	08be      	lsrs	r6, r7, #2
    1bf6:	3601      	adds	r6, #1
    1bf8:	00b6      	lsls	r6, r6, #2
    1bfa:	199e      	adds	r6, r3, r6
    1bfc:	c220      	stmia	r2!, {r5}
    1bfe:	42b2      	cmp	r2, r6
    1c00:	d1fc      	bne.n	1bfc <memset+0x6c>
    1c02:	2203      	movs	r2, #3
    1c04:	4397      	bics	r7, r2
    1c06:	3704      	adds	r7, #4
    1c08:	19db      	adds	r3, r3, r7
    1c0a:	4014      	ands	r4, r2
    1c0c:	2c00      	cmp	r4, #0
    1c0e:	d005      	beq.n	1c1c <memset+0x8c>
    1c10:	b2c9      	uxtb	r1, r1
    1c12:	191c      	adds	r4, r3, r4
    1c14:	7019      	strb	r1, [r3, #0]
    1c16:	3301      	adds	r3, #1
    1c18:	429c      	cmp	r4, r3
    1c1a:	d1fb      	bne.n	1c14 <memset+0x84>
    1c1c:	bdf0      	pop	{r4, r5, r6, r7, pc}
    1c1e:	0014      	movs	r4, r2
    1c20:	0003      	movs	r3, r0
    1c22:	e7c6      	b.n	1bb2 <memset+0x22>

00001c24 <register_fini>:
    1c24:	4b03      	ldr	r3, [pc, #12]	; (1c34 <register_fini+0x10>)
    1c26:	b510      	push	{r4, lr}
    1c28:	2b00      	cmp	r3, #0
    1c2a:	d002      	beq.n	1c32 <register_fini+0xe>
    1c2c:	4802      	ldr	r0, [pc, #8]	; (1c38 <register_fini+0x14>)
    1c2e:	f000 f805 	bl	1c3c <atexit>
    1c32:	bd10      	pop	{r4, pc}
    1c34:	00000000 	.word	0x00000000
    1c38:	00001c4d 	.word	0x00001c4d

00001c3c <atexit>:
    1c3c:	b510      	push	{r4, lr}
    1c3e:	0001      	movs	r1, r0
    1c40:	2300      	movs	r3, #0
    1c42:	2200      	movs	r2, #0
    1c44:	2000      	movs	r0, #0
    1c46:	f000 f81b 	bl	1c80 <__register_exitproc>
    1c4a:	bd10      	pop	{r4, pc}

00001c4c <__libc_fini_array>:
    1c4c:	b570      	push	{r4, r5, r6, lr}
    1c4e:	4b09      	ldr	r3, [pc, #36]	; (1c74 <__libc_fini_array+0x28>)
    1c50:	4c09      	ldr	r4, [pc, #36]	; (1c78 <__libc_fini_array+0x2c>)
    1c52:	1ae4      	subs	r4, r4, r3
    1c54:	10a4      	asrs	r4, r4, #2
    1c56:	d009      	beq.n	1c6c <__libc_fini_array+0x20>
    1c58:	4a08      	ldr	r2, [pc, #32]	; (1c7c <__libc_fini_array+0x30>)
    1c5a:	18a5      	adds	r5, r4, r2
    1c5c:	00ad      	lsls	r5, r5, #2
    1c5e:	18ed      	adds	r5, r5, r3
    1c60:	682b      	ldr	r3, [r5, #0]
    1c62:	3c01      	subs	r4, #1
    1c64:	4798      	blx	r3
    1c66:	3d04      	subs	r5, #4
    1c68:	2c00      	cmp	r4, #0
    1c6a:	d1f9      	bne.n	1c60 <__libc_fini_array+0x14>
    1c6c:	f000 f982 	bl	1f74 <_fini>
    1c70:	bd70      	pop	{r4, r5, r6, pc}
    1c72:	46c0      	nop			; (mov r8, r8)
    1c74:	00001f80 	.word	0x00001f80
    1c78:	00001f84 	.word	0x00001f84
    1c7c:	3fffffff 	.word	0x3fffffff

00001c80 <__register_exitproc>:
    1c80:	b5f8      	push	{r3, r4, r5, r6, r7, lr}
    1c82:	46de      	mov	lr, fp
    1c84:	469b      	mov	fp, r3
    1c86:	4b31      	ldr	r3, [pc, #196]	; (1d4c <__register_exitproc+0xcc>)
    1c88:	4645      	mov	r5, r8
    1c8a:	681c      	ldr	r4, [r3, #0]
    1c8c:	23a4      	movs	r3, #164	; 0xa4
    1c8e:	464e      	mov	r6, r9
    1c90:	4657      	mov	r7, sl
    1c92:	005b      	lsls	r3, r3, #1
    1c94:	b5e0      	push	{r5, r6, r7, lr}
    1c96:	0005      	movs	r5, r0
    1c98:	58e0      	ldr	r0, [r4, r3]
    1c9a:	000e      	movs	r6, r1
    1c9c:	4690      	mov	r8, r2
    1c9e:	2800      	cmp	r0, #0
    1ca0:	d04b      	beq.n	1d3a <__register_exitproc+0xba>
    1ca2:	6843      	ldr	r3, [r0, #4]
    1ca4:	2b1f      	cmp	r3, #31
    1ca6:	dc0d      	bgt.n	1cc4 <__register_exitproc+0x44>
    1ca8:	1c5c      	adds	r4, r3, #1
    1caa:	2d00      	cmp	r5, #0
    1cac:	d121      	bne.n	1cf2 <__register_exitproc+0x72>
    1cae:	3302      	adds	r3, #2
    1cb0:	009b      	lsls	r3, r3, #2
    1cb2:	6044      	str	r4, [r0, #4]
    1cb4:	501e      	str	r6, [r3, r0]
    1cb6:	2000      	movs	r0, #0
    1cb8:	bc3c      	pop	{r2, r3, r4, r5}
    1cba:	4690      	mov	r8, r2
    1cbc:	4699      	mov	r9, r3
    1cbe:	46a2      	mov	sl, r4
    1cc0:	46ab      	mov	fp, r5
    1cc2:	bdf8      	pop	{r3, r4, r5, r6, r7, pc}
    1cc4:	4b22      	ldr	r3, [pc, #136]	; (1d50 <__register_exitproc+0xd0>)
    1cc6:	2b00      	cmp	r3, #0
    1cc8:	d03c      	beq.n	1d44 <__register_exitproc+0xc4>
    1cca:	20c8      	movs	r0, #200	; 0xc8
    1ccc:	0040      	lsls	r0, r0, #1
    1cce:	e000      	b.n	1cd2 <__register_exitproc+0x52>
    1cd0:	bf00      	nop
    1cd2:	2800      	cmp	r0, #0
    1cd4:	d036      	beq.n	1d44 <__register_exitproc+0xc4>
    1cd6:	22a4      	movs	r2, #164	; 0xa4
    1cd8:	2300      	movs	r3, #0
    1cda:	0052      	lsls	r2, r2, #1
    1cdc:	58a1      	ldr	r1, [r4, r2]
    1cde:	6043      	str	r3, [r0, #4]
    1ce0:	6001      	str	r1, [r0, #0]
    1ce2:	50a0      	str	r0, [r4, r2]
    1ce4:	3240      	adds	r2, #64	; 0x40
    1ce6:	5083      	str	r3, [r0, r2]
    1ce8:	3204      	adds	r2, #4
    1cea:	5083      	str	r3, [r0, r2]
    1cec:	2401      	movs	r4, #1
    1cee:	2d00      	cmp	r5, #0
    1cf0:	d0dd      	beq.n	1cae <__register_exitproc+0x2e>
    1cf2:	009a      	lsls	r2, r3, #2
    1cf4:	4691      	mov	r9, r2
    1cf6:	4481      	add	r9, r0
    1cf8:	4642      	mov	r2, r8
    1cfa:	2188      	movs	r1, #136	; 0x88
    1cfc:	464f      	mov	r7, r9
    1cfe:	507a      	str	r2, [r7, r1]
    1d00:	22c4      	movs	r2, #196	; 0xc4
    1d02:	0052      	lsls	r2, r2, #1
    1d04:	4690      	mov	r8, r2
    1d06:	4480      	add	r8, r0
    1d08:	4642      	mov	r2, r8
    1d0a:	3987      	subs	r1, #135	; 0x87
    1d0c:	4099      	lsls	r1, r3
    1d0e:	6812      	ldr	r2, [r2, #0]
    1d10:	468a      	mov	sl, r1
    1d12:	430a      	orrs	r2, r1
    1d14:	4694      	mov	ip, r2
    1d16:	4642      	mov	r2, r8
    1d18:	4661      	mov	r1, ip
    1d1a:	6011      	str	r1, [r2, #0]
    1d1c:	2284      	movs	r2, #132	; 0x84
    1d1e:	4649      	mov	r1, r9
    1d20:	465f      	mov	r7, fp
    1d22:	0052      	lsls	r2, r2, #1
    1d24:	508f      	str	r7, [r1, r2]
    1d26:	2d02      	cmp	r5, #2
    1d28:	d1c1      	bne.n	1cae <__register_exitproc+0x2e>
    1d2a:	0002      	movs	r2, r0
    1d2c:	4655      	mov	r5, sl
    1d2e:	328d      	adds	r2, #141	; 0x8d
    1d30:	32ff      	adds	r2, #255	; 0xff
    1d32:	6811      	ldr	r1, [r2, #0]
    1d34:	430d      	orrs	r5, r1
    1d36:	6015      	str	r5, [r2, #0]
    1d38:	e7b9      	b.n	1cae <__register_exitproc+0x2e>
    1d3a:	0020      	movs	r0, r4
    1d3c:	304d      	adds	r0, #77	; 0x4d
    1d3e:	30ff      	adds	r0, #255	; 0xff
    1d40:	50e0      	str	r0, [r4, r3]
    1d42:	e7ae      	b.n	1ca2 <__register_exitproc+0x22>
    1d44:	2001      	movs	r0, #1
    1d46:	4240      	negs	r0, r0
    1d48:	e7b6      	b.n	1cb8 <__register_exitproc+0x38>
    1d4a:	46c0      	nop			; (mov r8, r8)
    1d4c:	00001f5c 	.word	0x00001f5c
    1d50:	00000000 	.word	0x00000000

00001d54 <senseAPin>:
    1d54:	08000000 00000008                                .....

00001d59 <analogAccelPin>:
    1d59:	07000000 20000007                                .......

00001d60 <lookupTable.12306>:
    1d60:	ffff8d20 ffffada1 ffffce64 ffffef6c      .......d...l...
    1d70:	000010b7 0000324a 00005425 00007649     ....J2..%T..Iv..
    1d80:	000098b7 0000bb72 0000de79 000101d0     ....r...y.......
    1d90:	00012576 0001496f 00016dbc 0001925e     v%..oI...m..^...
    1da0:	0001b758 0001dcaa 00020258 00022862     X.......X...b(..
    1db0:	00024ecc 00027596 00029cc4 0002c457     .N...u......W...
    1dc0:	0002ec52 000314b7 00033d89 000366ca     R........=...f..
    1dd0:	0003907d 0003baa4 0003e544 0004105e     }.......D...^...
    1de0:	00043bf6 0004680e 000494ac 0004c1d1     .;...h..........
    1df0:	0004ef81 00051dc1 00054c95 00057c00     .........L...|..
    1e00:	0005ac07 0005dcae 00060dfb 00063ff2     .............?..
    1e10:	00067298 0006a5f4 0006da09 00070ee0     .r..............
    1e20:	0007447d 00077ae8 0007b228 0007ea44     }D...z..(...D...
    1e30:	00082344 00085d30 00089810 0008d3ef     D#..0]..........
    1e40:	000910d6 00094ecf 00098de5 0009ce23     .....N......#...
    1e50:	000a0f98 000a524f 000a9657 000adbbf     ....OR..W.......
    1e60:	000b2298 000b6af3 000bb4e2 000c007b     ."...j......{...
    1e70:	000c4dd4 000c9d03 000cee23 000d4150     .M......#...PA..
    1e80:	000d96a9 000dee4e 000e4865 000ea516     ....N...eH......
    1e90:	000f048e                                ....

00001e94 <senseBatPin>:
    1e94:	05000000 00000005 000011a0 00001170     ............p...
    1ea4:	00001182 000010c4 00001182 00001166     ............f...
    1eb4:	00001182 000010c4 00001170 00001170     ........p...p...
    1ec4:	00001166 000010c4 000010cc 000010cc     f...............
    1ed4:	000010cc 00001188 00001170 00001170     ........p...p...
    1ee4:	00001144 00001228 00001144 00001166     D...(...D...f...
    1ef4:	00001144 00001228 00001170 00001170     D...(...p...p...
    1f04:	00001166 00001228 000010cc 000010cc     f...(...........
    1f14:	000010cc 00001232 000015c0 00001480     ....2...........
    1f24:	00001480 0000147c 00001598 00001598     ....|...........
    1f34:	0000158a 0000147c 00001598 0000158a     ....|...........
    1f44:	00001598 0000147c 000015a0 000015a0     ....|...........
    1f54:	000015a0 000017a4                       ........

00001f5c <_global_impure_ptr>:
    1f5c:	20000010                                ... 

00001f60 <_init>:
    1f60:	b5f8      	push	{r3, r4, r5, r6, r7, lr}
    1f62:	46c0      	nop			; (mov r8, r8)
    1f64:	bcf8      	pop	{r3, r4, r5, r6, r7}
    1f66:	bc08      	pop	{r3}
    1f68:	469e      	mov	lr, r3
    1f6a:	4770      	bx	lr

00001f6c <__init_array_start>:
    1f6c:	00001c25 	.word	0x00001c25

00001f70 <__frame_dummy_init_array_entry>:
    1f70:	000000dd                                ....

00001f74 <_fini>:
    1f74:	b5f8      	push	{r3, r4, r5, r6, r7, lr}
    1f76:	46c0      	nop			; (mov r8, r8)
    1f78:	bcf8      	pop	{r3, r4, r5, r6, r7}
    1f7a:	bc08      	pop	{r3}
    1f7c:	469e      	mov	lr, r3
    1f7e:	4770      	bx	lr

00001f80 <__fini_array_start>:
    1f80:	000000b5 	.word	0x000000b5
