
DasAltimeter.elf:     file format elf32-littlearm

Sections:
Idx Name          Size      VMA       LMA       File off  Algn
  0 .text         00006388  00000000  00000000  00010000  2**3
                  CONTENTS, ALLOC, LOAD, READONLY, CODE
  1 .relocate     000004a0  20000000  00006388  00020000  2**3
                  CONTENTS, ALLOC, LOAD, DATA
  2 .bss          00000370  200004a0  00006828  000204a0  2**3
                  ALLOC
  3 .stack        00002000  20000810  00006b98  000204a0  2**0
                  ALLOC
  4 .ARM.attributes 00000028  00000000  00000000  000204a0  2**0
                  CONTENTS, READONLY
  5 .comment      00000059  00000000  00000000  000204c8  2**0
                  CONTENTS, READONLY
  6 .debug_info   0002951d  00000000  00000000  00020521  2**0
                  CONTENTS, READONLY, DEBUGGING
  7 .debug_abbrev 00003173  00000000  00000000  00049a3e  2**0
                  CONTENTS, READONLY, DEBUGGING
  8 .debug_loc    00002324  00000000  00000000  0004cbb1  2**0
                  CONTENTS, READONLY, DEBUGGING
  9 .debug_aranges 000003d8  00000000  00000000  0004eed5  2**0
                  CONTENTS, READONLY, DEBUGGING
 10 .debug_ranges 00000ce0  00000000  00000000  0004f2ad  2**0
                  CONTENTS, READONLY, DEBUGGING
 11 .debug_macro  00016401  00000000  00000000  0004ff8d  2**0
                  CONTENTS, READONLY, DEBUGGING
 12 .debug_line   0000978c  00000000  00000000  0006638e  2**0
                  CONTENTS, READONLY, DEBUGGING
 13 .debug_str    00073290  00000000  00000000  0006fb1a  2**0
                  CONTENTS, READONLY, DEBUGGING
 14 .debug_frame  00001058  00000000  00000000  000e2dac  2**2
                  CONTENTS, READONLY, DEBUGGING

Disassembly of section .text:

00000000 <exception_table>:
 *         retrieved from cpu registers.
 */
void SystemCoreClockUpdate(void)
{
	// Not implemented
	SystemCoreClock = __SYSTEM_CLOCK;
       0:	10 28 00 20 19 01 00 00 15 01 00 00 15 01 00 00     .(. ............
	...
      2c:	15 01 00 00 00 00 00 00 00 00 00 00 15 01 00 00     ................
      3c:	15 01 00 00 15 01 00 00 15 01 00 00 15 01 00 00     ................
      4c:	19 0f 00 00 15 01 00 00 15 01 00 00 15 01 00 00     ................
      5c:	15 01 00 00 15 01 00 00 15 01 00 00 15 01 00 00     ................
      6c:	15 01 00 00 15 01 00 00 15 01 00 00 15 01 00 00     ................
      7c:	15 01 00 00 15 01 00 00 15 01 00 00 15 01 00 00     ................
      8c:	bd 0f 00 00 25 10 00 00 00 00 00 00 00 00 00 00     ....%...........
      9c:	15 01 00 00 15 01 00 00 15 01 00 00 15 01 00 00     ................
      ac:	15 01 00 00 00 00 00 00                             ........

000000b4 <__do_global_dtors_aux>:
      b4:	b510      	push	{r4, lr}
      b6:	4c06      	ldr	r4, [pc, #24]	; (d0 <__do_global_dtors_aux+0x1c>)
      b8:	7823      	ldrb	r3, [r4, #0]
      ba:	2b00      	cmp	r3, #0
      bc:	d107      	bne.n	ce <__do_global_dtors_aux+0x1a>
      be:	4b05      	ldr	r3, [pc, #20]	; (d4 <__do_global_dtors_aux+0x20>)
      c0:	2b00      	cmp	r3, #0
      c2:	d002      	beq.n	ca <__do_global_dtors_aux+0x16>
      c4:	4804      	ldr	r0, [pc, #16]	; (d8 <__do_global_dtors_aux+0x24>)
      c6:	e000      	b.n	ca <__do_global_dtors_aux+0x16>
      c8:	bf00      	nop
      ca:	2301      	movs	r3, #1
      cc:	7023      	strb	r3, [r4, #0]
      ce:	bd10      	pop	{r4, pc}
      d0:	200004a0 	.word	0x200004a0
      d4:	00000000 	.word	0x00000000
      d8:	00006388 	.word	0x00006388

000000dc <frame_dummy>:
      dc:	4b08      	ldr	r3, [pc, #32]	; (100 <frame_dummy+0x24>)
      de:	b510      	push	{r4, lr}
      e0:	2b00      	cmp	r3, #0
      e2:	d003      	beq.n	ec <frame_dummy+0x10>
      e4:	4907      	ldr	r1, [pc, #28]	; (104 <frame_dummy+0x28>)
      e6:	4808      	ldr	r0, [pc, #32]	; (108 <frame_dummy+0x2c>)
      e8:	e000      	b.n	ec <frame_dummy+0x10>
      ea:	bf00      	nop
      ec:	4807      	ldr	r0, [pc, #28]	; (10c <frame_dummy+0x30>)
      ee:	6803      	ldr	r3, [r0, #0]
      f0:	2b00      	cmp	r3, #0
      f2:	d100      	bne.n	f6 <frame_dummy+0x1a>
      f4:	bd10      	pop	{r4, pc}
      f6:	4b06      	ldr	r3, [pc, #24]	; (110 <frame_dummy+0x34>)
      f8:	2b00      	cmp	r3, #0
      fa:	d0fb      	beq.n	f4 <frame_dummy+0x18>
      fc:	4798      	blx	r3
      fe:	e7f9      	b.n	f4 <frame_dummy+0x18>
     100:	00000000 	.word	0x00000000
     104:	200004a4 	.word	0x200004a4
     108:	00006388 	.word	0x00006388
     10c:	00006388 	.word	0x00006388
     110:	00000000 	.word	0x00000000

00000114 <Dummy_Handler>:

/**
 * \brief Default interrupt handler for unused IRQs.
 */
void Dummy_Handler(void)
{
     114:	e7fe      	b.n	114 <Dummy_Handler>
	...

00000118 <Reset_Handler>:
        if (pSrc != pDest) {
     118:	4821      	ldr	r0, [pc, #132]	; (1a0 <Reset_Handler+0x88>)
     11a:	4922      	ldr	r1, [pc, #136]	; (1a4 <Reset_Handler+0x8c>)
{
     11c:	b570      	push	{r4, r5, r6, lr}
        if (pSrc != pDest) {
     11e:	4288      	cmp	r0, r1
     120:	d004      	beq.n	12c <Reset_Handler+0x14>
     122:	2300      	movs	r3, #0
                for (; pDest < &_erelocate;) {
     124:	4c20      	ldr	r4, [pc, #128]	; (1a8 <Reset_Handler+0x90>)
     126:	18ca      	adds	r2, r1, r3
     128:	42a2      	cmp	r2, r4
     12a:	d332      	bcc.n	192 <Reset_Handler+0x7a>
                *pDest++ = 0;
     12c:	2100      	movs	r1, #0
     12e:	4b1f      	ldr	r3, [pc, #124]	; (1ac <Reset_Handler+0x94>)
        for (pDest = &_szero; pDest < &_ezero;) {
     130:	4a1f      	ldr	r2, [pc, #124]	; (1b0 <Reset_Handler+0x98>)
     132:	4293      	cmp	r3, r2
     134:	d331      	bcc.n	19a <Reset_Handler+0x82>
        SCB->VTOR = ((uint32_t) pSrc & SCB_VTOR_TBLOFF_Msk);
     136:	21ff      	movs	r1, #255	; 0xff
     138:	4b1e      	ldr	r3, [pc, #120]	; (1b4 <Reset_Handler+0x9c>)
     13a:	4a1f      	ldr	r2, [pc, #124]	; (1b8 <Reset_Handler+0xa0>)
     13c:	438b      	bics	r3, r1
     13e:	6093      	str	r3, [r2, #8]
        SBMATRIX->SFR[SBMATRIX_SLAVE_HMCRAMC0].reg = 2;
     140:	2202      	movs	r2, #2
        USB->DEVICE.QOSCTRL.bit.DQOS = 2;
     142:	250c      	movs	r5, #12
     144:	2408      	movs	r4, #8
        DMAC->QOSCTRL.bit.DQOS = 2;
     146:	2630      	movs	r6, #48	; 0x30
        SBMATRIX->SFR[SBMATRIX_SLAVE_HMCRAMC0].reg = 2;
     148:	4b1c      	ldr	r3, [pc, #112]	; (1bc <Reset_Handler+0xa4>)
        USB->DEVICE.QOSCTRL.bit.CQOS = 2;
     14a:	481d      	ldr	r0, [pc, #116]	; (1c0 <Reset_Handler+0xa8>)
        SBMATRIX->SFR[SBMATRIX_SLAVE_HMCRAMC0].reg = 2;
     14c:	625a      	str	r2, [r3, #36]	; 0x24
        USB->DEVICE.QOSCTRL.bit.CQOS = 2;
     14e:	78c3      	ldrb	r3, [r0, #3]
     150:	39fc      	subs	r1, #252	; 0xfc
     152:	438b      	bics	r3, r1
     154:	4313      	orrs	r3, r2
     156:	70c3      	strb	r3, [r0, #3]
        USB->DEVICE.QOSCTRL.bit.DQOS = 2;
     158:	78c3      	ldrb	r3, [r0, #3]
     15a:	43ab      	bics	r3, r5
     15c:	4323      	orrs	r3, r4
     15e:	70c3      	strb	r3, [r0, #3]
        DMAC->QOSCTRL.bit.DQOS = 2;
     160:	4b18      	ldr	r3, [pc, #96]	; (1c4 <Reset_Handler+0xac>)
     162:	7b98      	ldrb	r0, [r3, #14]
     164:	43b0      	bics	r0, r6
     166:	0006      	movs	r6, r0
     168:	2020      	movs	r0, #32
     16a:	4330      	orrs	r0, r6
     16c:	7398      	strb	r0, [r3, #14]
        DMAC->QOSCTRL.bit.FQOS = 2;
     16e:	7b98      	ldrb	r0, [r3, #14]
     170:	43a8      	bics	r0, r5
     172:	4304      	orrs	r4, r0
     174:	739c      	strb	r4, [r3, #14]
        DMAC->QOSCTRL.bit.WRBQOS = 2;
     176:	7b98      	ldrb	r0, [r3, #14]
     178:	4388      	bics	r0, r1
     17a:	4302      	orrs	r2, r0
     17c:	739a      	strb	r2, [r3, #14]
        NVMCTRL->CTRLB.bit.MANW = 1;
     17e:	2380      	movs	r3, #128	; 0x80
     180:	4a11      	ldr	r2, [pc, #68]	; (1c8 <Reset_Handler+0xb0>)
     182:	6851      	ldr	r1, [r2, #4]
     184:	430b      	orrs	r3, r1
     186:	6053      	str	r3, [r2, #4]
        __libc_init_array();
     188:	4b10      	ldr	r3, [pc, #64]	; (1cc <Reset_Handler+0xb4>)
     18a:	4798      	blx	r3
        main();
     18c:	4b10      	ldr	r3, [pc, #64]	; (1d0 <Reset_Handler+0xb8>)
     18e:	4798      	blx	r3
     190:	e7fe      	b.n	190 <Reset_Handler+0x78>
                        *pDest++ = *pSrc++;
     192:	58c5      	ldr	r5, [r0, r3]
     194:	3304      	adds	r3, #4
     196:	6015      	str	r5, [r2, #0]
     198:	e7c5      	b.n	126 <Reset_Handler+0xe>
                *pDest++ = 0;
     19a:	c302      	stmia	r3!, {r1}
     19c:	e7c9      	b.n	132 <Reset_Handler+0x1a>
     19e:	46c0      	nop			; (mov r8, r8)
     1a0:	00006388 	.word	0x00006388
     1a4:	20000000 	.word	0x20000000
     1a8:	200004a0 	.word	0x200004a0
     1ac:	200004a0 	.word	0x200004a0
     1b0:	20000810 	.word	0x20000810
     1b4:	00000000 	.word	0x00000000
     1b8:	e000ed00 	.word	0xe000ed00
     1bc:	410070fc 	.word	0x410070fc
     1c0:	41005000 	.word	0x41005000
     1c4:	41004800 	.word	0x41004800
     1c8:	41004000 	.word	0x41004000
     1cc:	000060ed 	.word	0x000060ed
     1d0:	00000a01 	.word	0x00000a01

000001d4 <SystemInit>:
     1d4:	4a01      	ldr	r2, [pc, #4]	; (1dc <SystemInit+0x8>)
     1d6:	4b02      	ldr	r3, [pc, #8]	; (1e0 <SystemInit+0xc>)
     1d8:	601a      	str	r2, [r3, #0]
     1da:	4770      	bx	lr
     1dc:	000f4240 	.word	0x000f4240
     1e0:	20000000 	.word	0x20000000

000001e4 <AT25SFHoldTillReady>:
    pinLow(cs_mem);
    dummy_rx = spiDataTransfer(SPI1,OPCODE_WRITEENABLE);
    pinHigh(cs_mem);
}

void AT25SFHoldTillReady(){
     1e4:	b5f8      	push	{r3, r4, r5, r6, r7, lr}
    PORT->Group[p.group].OUTSET.reg = (1<<p.pin);
}


inline static void pinLow(Pin p) {
    PORT->Group[p.group].OUTCLR.reg = (1<<p.pin);
     1e6:	2380      	movs	r3, #128	; 0x80
     1e8:	4f09      	ldr	r7, [pc, #36]	; (210 <AT25SFHoldTillReady+0x2c>)
     1ea:	02db      	lsls	r3, r3, #11
     1ec:	617b      	str	r3, [r7, #20]
	pinLow(cs_mem);
	dummy_rx = spiDataTransfer(SPI1,OPCODE_READSTATUS);
     1ee:	2105      	movs	r1, #5
     1f0:	2001      	movs	r0, #1
     1f2:	4d08      	ldr	r5, [pc, #32]	; (214 <AT25SFHoldTillReady+0x30>)
     1f4:	47a8      	blx	r5
        while (spiDataTransfer(SPI1,dummy_rx) & 0x01);
     1f6:	2401      	movs	r4, #1
	dummy_rx = spiDataTransfer(SPI1,OPCODE_READSTATUS);
     1f8:	4e07      	ldr	r6, [pc, #28]	; (218 <AT25SFHoldTillReady+0x34>)
     1fa:	7030      	strb	r0, [r6, #0]
        while (spiDataTransfer(SPI1,dummy_rx) & 0x01);
     1fc:	7831      	ldrb	r1, [r6, #0]
     1fe:	0020      	movs	r0, r4
     200:	47a8      	blx	r5
     202:	4220      	tst	r0, r4
     204:	d1fa      	bne.n	1fc <AT25SFHoldTillReady+0x18>
    PORT->Group[p.group].OUTSET.reg = (1<<p.pin);
     206:	2380      	movs	r3, #128	; 0x80
     208:	02db      	lsls	r3, r3, #11
     20a:	61bb      	str	r3, [r7, #24]
	pinHigh(cs_mem);
}
     20c:	bdf8      	pop	{r3, r4, r5, r6, r7, pc}
     20e:	46c0      	nop			; (mov r8, r8)
     210:	41004400 	.word	0x41004400
     214:	00002615 	.word	0x00002615
     218:	200004c4 	.word	0x200004c4

0000021c <AT25SFChipErase>:
void AT25SFChipErase() {
     21c:	b5f8      	push	{r3, r4, r5, r6, r7, lr}
    PORT->Group[p.group].OUTCLR.reg = (1<<p.pin);
     21e:	2580      	movs	r5, #128	; 0x80
     220:	4c08      	ldr	r4, [pc, #32]	; (244 <AT25SFChipErase+0x28>)
     222:	02ed      	lsls	r5, r5, #11

    pinLow(cs_mem);
    dummy_rx = spiDataTransfer(SPI1,OPCODE_WRITEENABLE);
     224:	4f08      	ldr	r7, [pc, #32]	; (248 <AT25SFChipErase+0x2c>)
     226:	6165      	str	r5, [r4, #20]
     228:	2106      	movs	r1, #6
     22a:	2001      	movs	r0, #1
     22c:	47b8      	blx	r7
     22e:	4e07      	ldr	r6, [pc, #28]	; (24c <AT25SFChipErase+0x30>)
    pinHigh(cs_mem);

    pinLow(cs_mem);
    dummy_rx = spiDataTransfer(SPI1,OPCODE_CHIP_ERASE);
     230:	2160      	movs	r1, #96	; 0x60
    dummy_rx = spiDataTransfer(SPI1,OPCODE_WRITEENABLE);
     232:	7030      	strb	r0, [r6, #0]
    PORT->Group[p.group].OUTSET.reg = (1<<p.pin);
     234:	61a5      	str	r5, [r4, #24]
    dummy_rx = spiDataTransfer(SPI1,OPCODE_CHIP_ERASE);
     236:	2001      	movs	r0, #1
    PORT->Group[p.group].OUTCLR.reg = (1<<p.pin);
     238:	6165      	str	r5, [r4, #20]
     23a:	47b8      	blx	r7
     23c:	7030      	strb	r0, [r6, #0]
    PORT->Group[p.group].OUTSET.reg = (1<<p.pin);
     23e:	61a5      	str	r5, [r4, #24]
    pinHigh(cs_mem);
}
     240:	bdf8      	pop	{r3, r4, r5, r6, r7, pc}
     242:	46c0      	nop			; (mov r8, r8)
     244:	41004400 	.word	0x41004400
     248:	00002615 	.word	0x00002615
     24c:	200004c4 	.word	0x200004c4

00000250 <AT25SFWriteBytes>:
    PORT->Group[p.group].OUTCLR.reg = (1<<p.pin);
     250:	2380      	movs	r3, #128	; 0x80
    pinHigh(cs_mem);

    return _byte;
}

void AT25SFWriteBytes(uint32_t address, u8_t len, uint8_t *bytes) {
     252:	b5f7      	push	{r0, r1, r2, r4, r5, r6, r7, lr}
     254:	4c19      	ldr	r4, [pc, #100]	; (2bc <AT25SFWriteBytes+0x6c>)
     256:	02db      	lsls	r3, r3, #11
     258:	9201      	str	r2, [sp, #4]
     25a:	0007      	movs	r7, r0


    pinLow(cs_mem);
    dummy_rx = spiDataTransfer(SPI1,OPCODE_WRITEENABLE);
     25c:	4d18      	ldr	r5, [pc, #96]	; (2c0 <AT25SFWriteBytes+0x70>)
void AT25SFWriteBytes(uint32_t address, u8_t len, uint8_t *bytes) {
     25e:	9100      	str	r1, [sp, #0]
    dummy_rx = spiDataTransfer(SPI1,OPCODE_WRITEENABLE);
     260:	2001      	movs	r0, #1
     262:	6163      	str	r3, [r4, #20]
     264:	2106      	movs	r1, #6
     266:	47a8      	blx	r5
    PORT->Group[p.group].OUTSET.reg = (1<<p.pin);
     268:	2380      	movs	r3, #128	; 0x80
     26a:	4e16      	ldr	r6, [pc, #88]	; (2c4 <AT25SFWriteBytes+0x74>)
     26c:	02db      	lsls	r3, r3, #11
     26e:	7030      	strb	r0, [r6, #0]
    pinHigh(cs_mem);

    pinLow(cs_mem);
    dummy_rx = spiDataTransfer(SPI1,OPCODE_PROGRAM);
     270:	2102      	movs	r1, #2
     272:	61a3      	str	r3, [r4, #24]
     274:	2001      	movs	r0, #1
    PORT->Group[p.group].OUTCLR.reg = (1<<p.pin);
     276:	6163      	str	r3, [r4, #20]
     278:	47a8      	blx	r5
    dummy_rx = spiDataTransfer(SPI1,((address & 0xFF0000) >> 16));
     27a:	0c39      	lsrs	r1, r7, #16
    dummy_rx = spiDataTransfer(SPI1,OPCODE_PROGRAM);
     27c:	7030      	strb	r0, [r6, #0]
    dummy_rx = spiDataTransfer(SPI1,((address & 0xFF0000) >> 16));
     27e:	b2c9      	uxtb	r1, r1
     280:	2001      	movs	r0, #1
     282:	47a8      	blx	r5
    dummy_rx = spiDataTransfer(SPI1,((address & 0x00FF00) >>  8));
     284:	0a39      	lsrs	r1, r7, #8
    dummy_rx = spiDataTransfer(SPI1,((address & 0xFF0000) >> 16));
     286:	7030      	strb	r0, [r6, #0]
    dummy_rx = spiDataTransfer(SPI1,((address & 0x00FF00) >>  8));
     288:	b2c9      	uxtb	r1, r1
     28a:	2001      	movs	r0, #1
     28c:	47a8      	blx	r5
    dummy_rx = spiDataTransfer(SPI1,((address & 0x0000FF) >>  0));
     28e:	b2f9      	uxtb	r1, r7
    dummy_rx = spiDataTransfer(SPI1,((address & 0x00FF00) >>  8));
     290:	7030      	strb	r0, [r6, #0]
    dummy_rx = spiDataTransfer(SPI1,((address & 0x0000FF) >>  0));
     292:	2001      	movs	r0, #1
     294:	47a8      	blx	r5
     296:	9b00      	ldr	r3, [sp, #0]
     298:	9f01      	ldr	r7, [sp, #4]
     29a:	7030      	strb	r0, [r6, #0]
     29c:	18fb      	adds	r3, r7, r3
     29e:	9300      	str	r3, [sp, #0]

    for (u8_t pos = 0; pos < len; ++pos) {
     2a0:	9b00      	ldr	r3, [sp, #0]
     2a2:	429f      	cmp	r7, r3
     2a4:	d103      	bne.n	2ae <AT25SFWriteBytes+0x5e>
    PORT->Group[p.group].OUTSET.reg = (1<<p.pin);
     2a6:	2380      	movs	r3, #128	; 0x80
     2a8:	02db      	lsls	r3, r3, #11
     2aa:	61a3      	str	r3, [r4, #24]
        dummy_rx = spiDataTransfer(SPI1, bytes[pos]);
    }

    pinHigh(cs_mem);

}
     2ac:	bdf7      	pop	{r0, r1, r2, r4, r5, r6, r7, pc}
        dummy_rx = spiDataTransfer(SPI1, bytes[pos]);
     2ae:	7839      	ldrb	r1, [r7, #0]
     2b0:	2001      	movs	r0, #1
     2b2:	47a8      	blx	r5
     2b4:	3701      	adds	r7, #1
     2b6:	7030      	strb	r0, [r6, #0]
     2b8:	e7f2      	b.n	2a0 <AT25SFWriteBytes+0x50>
     2ba:	46c0      	nop			; (mov r8, r8)
     2bc:	41004400 	.word	0x41004400
     2c0:	00002615 	.word	0x00002615
     2c4:	200004c4 	.word	0x200004c4

000002c8 <AT25SEWritePage>:
    PORT->Group[p.group].OUTCLR.reg = (1<<p.pin);
     2c8:	2380      	movs	r3, #128	; 0x80
    delay_ms(70);

}


u8_t AT25SEWritePage(u32_t startingAddress, u8_t *data) {
     2ca:	b5f7      	push	{r0, r1, r2, r4, r5, r6, r7, lr}
     2cc:	4c18      	ldr	r4, [pc, #96]	; (330 <AT25SEWritePage+0x68>)
     2ce:	02db      	lsls	r3, r3, #11
     2d0:	0007      	movs	r7, r0

    u8_t bytesSent = 0;


    pinLow(cs_mem);
    dummy_rx = spiDataTransfer(SPI1,OPCODE_WRITEENABLE);
     2d2:	4e18      	ldr	r6, [pc, #96]	; (334 <AT25SEWritePage+0x6c>)
u8_t AT25SEWritePage(u32_t startingAddress, u8_t *data) {
     2d4:	9101      	str	r1, [sp, #4]
    dummy_rx = spiDataTransfer(SPI1,OPCODE_WRITEENABLE);
     2d6:	2001      	movs	r0, #1
     2d8:	6163      	str	r3, [r4, #20]
     2da:	2106      	movs	r1, #6
     2dc:	47b0      	blx	r6
    PORT->Group[p.group].OUTSET.reg = (1<<p.pin);
     2de:	2380      	movs	r3, #128	; 0x80
     2e0:	4d15      	ldr	r5, [pc, #84]	; (338 <AT25SEWritePage+0x70>)
     2e2:	02db      	lsls	r3, r3, #11
     2e4:	7028      	strb	r0, [r5, #0]
    pinHigh(cs_mem);


    pinLow(cs_mem);
    dummy_rx = spiDataTransfer(SPI1,OPCODE_PROGRAM);
     2e6:	2102      	movs	r1, #2
     2e8:	61a3      	str	r3, [r4, #24]
     2ea:	2001      	movs	r0, #1
    PORT->Group[p.group].OUTCLR.reg = (1<<p.pin);
     2ec:	6163      	str	r3, [r4, #20]
     2ee:	47b0      	blx	r6
    dummy_rx = spiDataTransfer(SPI1,((startingAddress & 0xFF0000) >> 16));
     2f0:	0c39      	lsrs	r1, r7, #16
    dummy_rx = spiDataTransfer(SPI1,OPCODE_PROGRAM);
     2f2:	7028      	strb	r0, [r5, #0]
    dummy_rx = spiDataTransfer(SPI1,((startingAddress & 0xFF0000) >> 16));
     2f4:	b2c9      	uxtb	r1, r1
     2f6:	2001      	movs	r0, #1
     2f8:	47b0      	blx	r6
    dummy_rx = spiDataTransfer(SPI1,((startingAddress & 0x00FF00) >>  8));
     2fa:	0a39      	lsrs	r1, r7, #8
    dummy_rx = spiDataTransfer(SPI1,((startingAddress & 0xFF0000) >> 16));
     2fc:	7028      	strb	r0, [r5, #0]
    dummy_rx = spiDataTransfer(SPI1,((startingAddress & 0x00FF00) >>  8));
     2fe:	b2c9      	uxtb	r1, r1
     300:	2001      	movs	r0, #1
     302:	47b0      	blx	r6
    dummy_rx = spiDataTransfer(SPI1,((startingAddress & 0x0000FF) >>  0));
     304:	b2f9      	uxtb	r1, r7
    dummy_rx = spiDataTransfer(SPI1,((startingAddress & 0x00FF00) >>  8));
     306:	7028      	strb	r0, [r5, #0]
    dummy_rx = spiDataTransfer(SPI1,((startingAddress & 0x0000FF) >>  0));
     308:	2001      	movs	r0, #1
     30a:	47b0      	blx	r6
     30c:	9f01      	ldr	r7, [sp, #4]
     30e:	7028      	strb	r0, [r5, #0]
     310:	1c7b      	adds	r3, r7, #1
     312:	33ff      	adds	r3, #255	; 0xff
     314:	9301      	str	r3, [sp, #4]


    for (u16_t pos = 0; pos < 256; ++pos) {
        ++bytesSent;
        dummy_rx = spiDataTransfer(SPI1,data[pos]);
     316:	7839      	ldrb	r1, [r7, #0]
     318:	2001      	movs	r0, #1
     31a:	47b0      	blx	r6
    for (u16_t pos = 0; pos < 256; ++pos) {
     31c:	9b01      	ldr	r3, [sp, #4]
     31e:	3701      	adds	r7, #1
        dummy_rx = spiDataTransfer(SPI1,data[pos]);
     320:	7028      	strb	r0, [r5, #0]
    for (u16_t pos = 0; pos < 256; ++pos) {
     322:	42bb      	cmp	r3, r7
     324:	d1f7      	bne.n	316 <AT25SEWritePage+0x4e>
    PORT->Group[p.group].OUTSET.reg = (1<<p.pin);
     326:	2380      	movs	r3, #128	; 0x80
     328:	02db      	lsls	r3, r3, #11
    }
    pinHigh(cs_mem);


    return bytesSent;
}
     32a:	2000      	movs	r0, #0
     32c:	61a3      	str	r3, [r4, #24]
     32e:	bdfe      	pop	{r1, r2, r3, r4, r5, r6, r7, pc}
     330:	41004400 	.word	0x41004400
     334:	00002615 	.word	0x00002615
     338:	200004c4 	.word	0x200004c4

0000033c <AT25SEreadSample>:
    PORT->Group[p.group].OUTCLR.reg = (1<<p.pin);
     33c:	2380      	movs	r3, #128	; 0x80

void AT25SEreadSample(u32_t startingAddress, u8_t len, u8_t *data) {
     33e:	b5f7      	push	{r0, r1, r2, r4, r5, r6, r7, lr}
     340:	4f17      	ldr	r7, [pc, #92]	; (3a0 <AT25SEreadSample+0x64>)
     342:	02db      	lsls	r3, r3, #11
     344:	9201      	str	r2, [sp, #4]
     346:	0004      	movs	r4, r0

    pinLow(cs_mem);
    dummy_rx = spiDataTransfer(SPI1,OPCODE_FASTREAD_ARRAY);
     348:	4d16      	ldr	r5, [pc, #88]	; (3a4 <AT25SEreadSample+0x68>)
void AT25SEreadSample(u32_t startingAddress, u8_t len, u8_t *data) {
     34a:	9100      	str	r1, [sp, #0]
    dummy_rx = spiDataTransfer(SPI1,OPCODE_FASTREAD_ARRAY);
     34c:	2001      	movs	r0, #1
     34e:	617b      	str	r3, [r7, #20]
     350:	210b      	movs	r1, #11
     352:	47a8      	blx	r5
     354:	4e14      	ldr	r6, [pc, #80]	; (3a8 <AT25SEreadSample+0x6c>)
    dummy_rx = spiDataTransfer(SPI1,((startingAddress & 0xFF0000) >> 16));
     356:	0c21      	lsrs	r1, r4, #16
    dummy_rx = spiDataTransfer(SPI1,OPCODE_FASTREAD_ARRAY);
     358:	7030      	strb	r0, [r6, #0]
    dummy_rx = spiDataTransfer(SPI1,((startingAddress & 0xFF0000) >> 16));
     35a:	b2c9      	uxtb	r1, r1
     35c:	2001      	movs	r0, #1
     35e:	47a8      	blx	r5
    dummy_rx = spiDataTransfer(SPI1,((startingAddress & 0x00FF00) >>  8));
     360:	0a21      	lsrs	r1, r4, #8
    dummy_rx = spiDataTransfer(SPI1,((startingAddress & 0xFF0000) >> 16));
     362:	7030      	strb	r0, [r6, #0]
    dummy_rx = spiDataTransfer(SPI1,((startingAddress & 0x00FF00) >>  8));
     364:	b2c9      	uxtb	r1, r1
     366:	2001      	movs	r0, #1
     368:	47a8      	blx	r5
    dummy_rx = spiDataTransfer(SPI1,((startingAddress & 0x0000FF) >>  0));
     36a:	b2e1      	uxtb	r1, r4
    dummy_rx = spiDataTransfer(SPI1,((startingAddress & 0x00FF00) >>  8));
     36c:	7030      	strb	r0, [r6, #0]
    dummy_rx = spiDataTransfer(SPI1,((startingAddress & 0x0000FF) >>  0));
     36e:	2001      	movs	r0, #1
     370:	47a8      	blx	r5
    dummy_rx = spiDataTransfer(SPI1, 0xFF);
     372:	21ff      	movs	r1, #255	; 0xff
    dummy_rx = spiDataTransfer(SPI1,((startingAddress & 0x0000FF) >>  0));
     374:	7030      	strb	r0, [r6, #0]
    dummy_rx = spiDataTransfer(SPI1, 0xFF);
     376:	2001      	movs	r0, #1
     378:	47a8      	blx	r5
     37a:	9b00      	ldr	r3, [sp, #0]
     37c:	9c01      	ldr	r4, [sp, #4]
     37e:	7030      	strb	r0, [r6, #0]
     380:	18e3      	adds	r3, r4, r3
     382:	9300      	str	r3, [sp, #0]


    for (u8_t pos = 0; pos < len; ++pos) {
     384:	9b00      	ldr	r3, [sp, #0]
     386:	429c      	cmp	r4, r3
     388:	d103      	bne.n	392 <AT25SEreadSample+0x56>
    PORT->Group[p.group].OUTSET.reg = (1<<p.pin);
     38a:	2380      	movs	r3, #128	; 0x80
     38c:	02db      	lsls	r3, r3, #11
     38e:	61bb      	str	r3, [r7, #24]
        data[pos] = spiDataTransfer(SPI1,dummy_rx);
    }
    pinHigh(cs_mem);

}
     390:	bdf7      	pop	{r0, r1, r2, r4, r5, r6, r7, pc}
        data[pos] = spiDataTransfer(SPI1,dummy_rx);
     392:	7831      	ldrb	r1, [r6, #0]
     394:	2001      	movs	r0, #1
     396:	47a8      	blx	r5
     398:	7020      	strb	r0, [r4, #0]
     39a:	3401      	adds	r4, #1
     39c:	e7f2      	b.n	384 <AT25SEreadSample+0x48>
     39e:	46c0      	nop			; (mov r8, r8)
     3a0:	41004400 	.word	0x41004400
     3a4:	00002615 	.word	0x00002615
     3a8:	200004c4 	.word	0x200004c4

000003ac <AT25SEreadPage>:
    PORT->Group[p.group].OUTCLR.reg = (1<<p.pin);
     3ac:	2380      	movs	r3, #128	; 0x80

void AT25SEreadPage(u32_t startingAddress, u8_t *data) {
     3ae:	b5f7      	push	{r0, r1, r2, r4, r5, r6, r7, lr}
     3b0:	4f16      	ldr	r7, [pc, #88]	; (40c <AT25SEreadPage+0x60>)
     3b2:	02db      	lsls	r3, r3, #11
     3b4:	0006      	movs	r6, r0


    pinLow(cs_mem);
    dummy_rx = spiDataTransfer(SPI1,OPCODE_FASTREAD_ARRAY);
     3b6:	4c16      	ldr	r4, [pc, #88]	; (410 <AT25SEreadPage+0x64>)
void AT25SEreadPage(u32_t startingAddress, u8_t *data) {
     3b8:	9101      	str	r1, [sp, #4]
    dummy_rx = spiDataTransfer(SPI1,OPCODE_FASTREAD_ARRAY);
     3ba:	2001      	movs	r0, #1
     3bc:	617b      	str	r3, [r7, #20]
     3be:	210b      	movs	r1, #11
     3c0:	47a0      	blx	r4
     3c2:	4d14      	ldr	r5, [pc, #80]	; (414 <AT25SEreadPage+0x68>)
    dummy_rx = spiDataTransfer(SPI1,((startingAddress & 0xFF0000) >> 16));
     3c4:	0c31      	lsrs	r1, r6, #16
    dummy_rx = spiDataTransfer(SPI1,OPCODE_FASTREAD_ARRAY);
     3c6:	7028      	strb	r0, [r5, #0]
    dummy_rx = spiDataTransfer(SPI1,((startingAddress & 0xFF0000) >> 16));
     3c8:	b2c9      	uxtb	r1, r1
     3ca:	2001      	movs	r0, #1
     3cc:	47a0      	blx	r4
    dummy_rx = spiDataTransfer(SPI1,((startingAddress & 0x00FF00) >>  8));
     3ce:	0a31      	lsrs	r1, r6, #8
    dummy_rx = spiDataTransfer(SPI1,((startingAddress & 0xFF0000) >> 16));
     3d0:	7028      	strb	r0, [r5, #0]
    dummy_rx = spiDataTransfer(SPI1,((startingAddress & 0x00FF00) >>  8));
     3d2:	b2c9      	uxtb	r1, r1
     3d4:	2001      	movs	r0, #1
     3d6:	47a0      	blx	r4
    dummy_rx = spiDataTransfer(SPI1,((startingAddress & 0x0000FF) >>  0));
     3d8:	b2f1      	uxtb	r1, r6
    dummy_rx = spiDataTransfer(SPI1,((startingAddress & 0x00FF00) >>  8));
     3da:	7028      	strb	r0, [r5, #0]
    dummy_rx = spiDataTransfer(SPI1,((startingAddress & 0x0000FF) >>  0));
     3dc:	2001      	movs	r0, #1
     3de:	47a0      	blx	r4
    dummy_rx = spiDataTransfer(SPI1, 0xFF);
     3e0:	21ff      	movs	r1, #255	; 0xff
    dummy_rx = spiDataTransfer(SPI1,((startingAddress & 0x0000FF) >>  0));
     3e2:	7028      	strb	r0, [r5, #0]
    dummy_rx = spiDataTransfer(SPI1, 0xFF);
     3e4:	2001      	movs	r0, #1
     3e6:	47a0      	blx	r4
     3e8:	9e01      	ldr	r6, [sp, #4]
     3ea:	7028      	strb	r0, [r5, #0]
     3ec:	1c73      	adds	r3, r6, #1
     3ee:	33ff      	adds	r3, #255	; 0xff
     3f0:	9301      	str	r3, [sp, #4]


    for (u16_t pos = 0; pos < 256; ++pos) {
        data[pos] = spiDataTransfer(SPI1,dummy_rx);
     3f2:	7829      	ldrb	r1, [r5, #0]
     3f4:	2001      	movs	r0, #1
     3f6:	47a0      	blx	r4
    for (u16_t pos = 0; pos < 256; ++pos) {
     3f8:	9b01      	ldr	r3, [sp, #4]
        data[pos] = spiDataTransfer(SPI1,dummy_rx);
     3fa:	7030      	strb	r0, [r6, #0]
     3fc:	3601      	adds	r6, #1
    for (u16_t pos = 0; pos < 256; ++pos) {
     3fe:	429e      	cmp	r6, r3
     400:	d1f7      	bne.n	3f2 <AT25SEreadPage+0x46>
    PORT->Group[p.group].OUTSET.reg = (1<<p.pin);
     402:	2380      	movs	r3, #128	; 0x80
     404:	02db      	lsls	r3, r3, #11
     406:	61bb      	str	r3, [r7, #24]
    }
    pinHigh(cs_mem);

}
     408:	bdf7      	pop	{r0, r1, r2, r4, r5, r6, r7, pc}
     40a:	46c0      	nop			; (mov r8, r8)
     40c:	41004400 	.word	0x41004400
     410:	00002615 	.word	0x00002615
     414:	200004c4 	.word	0x200004c4

00000418 <readMS5803AdcResults>:
#include <boardDefines.h>
#include <math.h>
//#include <tgmath.h>


u32_t readMS5803AdcResults() {
     418:	b5f7      	push	{r0, r1, r2, r4, r5, r6, r7, lr}
    PORT->Group[p.group].OUTCLR.reg = (1<<p.pin);
     41a:	2780      	movs	r7, #128	; 0x80
     41c:	4e0c      	ldr	r6, [pc, #48]	; (450 <readMS5803AdcResults+0x38>)
     41e:	01ff      	lsls	r7, r7, #7

    u8_t dummy_tx = 0xFF;


    pinLow(cs_baro);
    spiDataTransfer(SPI2, cmdAdcRead_);
     420:	4d0c      	ldr	r5, [pc, #48]	; (454 <readMS5803AdcResults+0x3c>)
     422:	6177      	str	r7, [r6, #20]
     424:	2100      	movs	r1, #0
     426:	2002      	movs	r0, #2
     428:	47a8      	blx	r5
    u8_t _byte1 = spiDataTransfer(SPI2,dummy_tx);
     42a:	21ff      	movs	r1, #255	; 0xff
     42c:	2002      	movs	r0, #2
     42e:	47a8      	blx	r5
    u8_t _byte2 = spiDataTransfer(SPI2,dummy_tx);
     430:	21ff      	movs	r1, #255	; 0xff
    u8_t _byte1 = spiDataTransfer(SPI2,dummy_tx);
     432:	0004      	movs	r4, r0
    u8_t _byte2 = spiDataTransfer(SPI2,dummy_tx);
     434:	2002      	movs	r0, #2
     436:	47a8      	blx	r5
    u8_t _byte3 = spiDataTransfer(SPI2,dummy_tx);
     438:	21ff      	movs	r1, #255	; 0xff
    u8_t _byte2 = spiDataTransfer(SPI2,dummy_tx);
     43a:	9001      	str	r0, [sp, #4]
    u8_t _byte3 = spiDataTransfer(SPI2,dummy_tx);
     43c:	2002      	movs	r0, #2
     43e:	47a8      	blx	r5
    PORT->Group[p.group].OUTSET.reg = (1<<p.pin);
     440:	61b7      	str	r7, [r6, #24]
    pinHigh(cs_baro);

    u32_t _receive = (_byte1 << 16) | (_byte2 << 8) | (_byte3);
     442:	9b01      	ldr	r3, [sp, #4]
     444:	0424      	lsls	r4, r4, #16
     446:	021b      	lsls	r3, r3, #8
     448:	431c      	orrs	r4, r3
     44a:	4320      	orrs	r0, r4
    return _receive;
}
     44c:	bdfe      	pop	{r1, r2, r3, r4, r5, r6, r7, pc}
     44e:	46c0      	nop			; (mov r8, r8)
     450:	41004400 	.word	0x41004400
     454:	00002615 	.word	0x00002615

00000458 <ConvertPressureTemperature>:

void ConvertPressureTemperature(u32_t pressureRaw, u32_t tempRaw, u32_t* temperatureCelcus, int32_t* pressureMbar ) {
     458:	b5f0      	push	{r4, r5, r6, r7, lr}
    const u16_t C5 = coefficients_[5];
    const u16_t C6 = coefficients_[6];

    // calculate 1st order pressure and temperature (MS5607 1st order algorithm)
    const  int32_t dT = (tempRaw) - ((int32_t)C5 << 8);
    *temperatureCelcus  = 2000 + (((int64_t)dT * C6) >> 23) ;
     45a:	2600      	movs	r6, #0
void ConvertPressureTemperature(u32_t pressureRaw, u32_t tempRaw, u32_t* temperatureCelcus, int32_t* pressureMbar ) {
     45c:	b089      	sub	sp, #36	; 0x24
     45e:	9306      	str	r3, [sp, #24]
    const u16_t C1 = coefficients_[1];
     460:	4b25      	ldr	r3, [pc, #148]	; (4f8 <ConvertPressureTemperature+0xa0>)
void ConvertPressureTemperature(u32_t pressureRaw, u32_t tempRaw, u32_t* temperatureCelcus, int32_t* pressureMbar ) {
     462:	9004      	str	r0, [sp, #16]
     464:	9205      	str	r2, [sp, #20]
    const u16_t C1 = coefficients_[1];
     466:	885a      	ldrh	r2, [r3, #2]
    *temperatureCelcus  = 2000 + (((int64_t)dT * C6) >> 23) ;
     468:	4c24      	ldr	r4, [pc, #144]	; (4fc <ConvertPressureTemperature+0xa4>)
    const u16_t C1 = coefficients_[1];
     46a:	9201      	str	r2, [sp, #4]
    const u16_t C2 = coefficients_[2];
     46c:	889a      	ldrh	r2, [r3, #4]
     46e:	9202      	str	r2, [sp, #8]
    const u16_t C4 = coefficients_[4];
     470:	891a      	ldrh	r2, [r3, #8]
    const u16_t C3 = coefficients_[3];
     472:	88dd      	ldrh	r5, [r3, #6]
    const u16_t C4 = coefficients_[4];
     474:	9203      	str	r2, [sp, #12]
    const  int32_t dT = (tempRaw) - ((int32_t)C5 << 8);
     476:	895f      	ldrh	r7, [r3, #10]
     478:	023f      	lsls	r7, r7, #8
     47a:	1bcf      	subs	r7, r1, r7
    *temperatureCelcus  = 2000 + (((int64_t)dT * C6) >> 23) ;
     47c:	17fa      	asrs	r2, r7, #31
     47e:	9207      	str	r2, [sp, #28]
     480:	8998      	ldrh	r0, [r3, #12]
     482:	003a      	movs	r2, r7
     484:	17fb      	asrs	r3, r7, #31
     486:	0031      	movs	r1, r6
     488:	47a0      	blx	r4
     48a:	23fa      	movs	r3, #250	; 0xfa
     48c:	0249      	lsls	r1, r1, #9
     48e:	0dc0      	lsrs	r0, r0, #23
     490:	4308      	orrs	r0, r1
     492:	00db      	lsls	r3, r3, #3
     494:	18c0      	adds	r0, r0, r3
     496:	9b05      	ldr	r3, [sp, #20]

    const  int64_t OFF   = ((int64_t)C2 << 16) + ((C4 * (int64_t)dT) >> 7);
    const  int64_t SENS  =  ((int64_t)C1 << 15) + ((C3 * (int64_t)dT) >> 8);
     498:	003a      	movs	r2, r7
    *temperatureCelcus  = 2000 + (((int64_t)dT * C6) >> 23) ;
     49a:	6018      	str	r0, [r3, #0]
    const  int64_t SENS  =  ((int64_t)C1 << 15) + ((C3 * (int64_t)dT) >> 8);
     49c:	0031      	movs	r1, r6
     49e:	17fb      	asrs	r3, r7, #31
     4a0:	0028      	movs	r0, r5
     4a2:	47a0      	blx	r4
     4a4:	060c      	lsls	r4, r1, #24
     4a6:	120b      	asrs	r3, r1, #8
     4a8:	0031      	movs	r1, r6
     4aa:	0a02      	lsrs	r2, r0, #8
     4ac:	4322      	orrs	r2, r4
     4ae:	9c01      	ldr	r4, [sp, #4]
     4b0:	03e0      	lsls	r0, r4, #15
     4b2:	1880      	adds	r0, r0, r2
     4b4:	4159      	adcs	r1, r3
    *pressureMbar = ((((pressureRaw * SENS) >> 21) - OFF) >> 15);
     4b6:	4c11      	ldr	r4, [pc, #68]	; (4fc <ConvertPressureTemperature+0xa4>)
     4b8:	9a04      	ldr	r2, [sp, #16]
     4ba:	0033      	movs	r3, r6
     4bc:	47a0      	blx	r4
     4be:	02cb      	lsls	r3, r1, #11
     4c0:	0d44      	lsrs	r4, r0, #21
    const  int64_t OFF   = ((int64_t)C2 << 16) + ((C4 * (int64_t)dT) >> 7);
     4c2:	003a      	movs	r2, r7
    *pressureMbar = ((((pressureRaw * SENS) >> 21) - OFF) >> 15);
     4c4:	431c      	orrs	r4, r3
    const  int64_t OFF   = ((int64_t)C2 << 16) + ((C4 * (int64_t)dT) >> 7);
     4c6:	4f0d      	ldr	r7, [pc, #52]	; (4fc <ConvertPressureTemperature+0xa4>)
     4c8:	9b07      	ldr	r3, [sp, #28]
    *pressureMbar = ((((pressureRaw * SENS) >> 21) - OFF) >> 15);
     4ca:	154d      	asrs	r5, r1, #21
    const  int64_t OFF   = ((int64_t)C2 << 16) + ((C4 * (int64_t)dT) >> 7);
     4cc:	9803      	ldr	r0, [sp, #12]
     4ce:	0031      	movs	r1, r6
     4d0:	47b8      	blx	r7
     4d2:	064f      	lsls	r7, r1, #25
     4d4:	11cb      	asrs	r3, r1, #7
     4d6:	0031      	movs	r1, r6
     4d8:	9e02      	ldr	r6, [sp, #8]
     4da:	09c2      	lsrs	r2, r0, #7
     4dc:	433a      	orrs	r2, r7
     4de:	0430      	lsls	r0, r6, #16
     4e0:	1812      	adds	r2, r2, r0
     4e2:	414b      	adcs	r3, r1
    *pressureMbar = ((((pressureRaw * SENS) >> 21) - OFF) >> 15);
     4e4:	1aa4      	subs	r4, r4, r2
     4e6:	419d      	sbcs	r5, r3
     4e8:	046b      	lsls	r3, r5, #17
     4ea:	0be4      	lsrs	r4, r4, #15
     4ec:	431c      	orrs	r4, r3
     4ee:	9b06      	ldr	r3, [sp, #24]
     4f0:	601c      	str	r4, [r3, #0]

}
     4f2:	b009      	add	sp, #36	; 0x24
     4f4:	bdf0      	pop	{r4, r5, r6, r7, pc}
     4f6:	46c0      	nop			; (mov r8, r8)
     4f8:	2000063a 	.word	0x2000063a
     4fc:	00003a1d 	.word	0x00003a1d

00000500 <paToFeetNOAA>:

double paToFeetNOAA(int32_t pressureMbar) {
     500:	b510      	push	{r4, lr}

    double lower =(((double)(pressureMbar)/10)/1013.25);
     502:	4b0c      	ldr	r3, [pc, #48]	; (534 <paToFeetNOAA+0x34>)
     504:	4798      	blx	r3
     506:	4c0c      	ldr	r4, [pc, #48]	; (538 <paToFeetNOAA+0x38>)
     508:	2200      	movs	r2, #0
     50a:	4b0c      	ldr	r3, [pc, #48]	; (53c <paToFeetNOAA+0x3c>)
     50c:	47a0      	blx	r4
     50e:	2200      	movs	r2, #0
     510:	4b0b      	ldr	r3, [pc, #44]	; (540 <paToFeetNOAA+0x40>)
     512:	47a0      	blx	r4
    double exponent = 0.190284;

    double altFeet = (1-pow(lower,exponent))*145366.45;
     514:	4a0b      	ldr	r2, [pc, #44]	; (544 <paToFeetNOAA+0x44>)
     516:	4b0c      	ldr	r3, [pc, #48]	; (548 <paToFeetNOAA+0x48>)
     518:	4c0c      	ldr	r4, [pc, #48]	; (54c <paToFeetNOAA+0x4c>)
     51a:	47a0      	blx	r4
     51c:	4c0c      	ldr	r4, [pc, #48]	; (550 <paToFeetNOAA+0x50>)
     51e:	0002      	movs	r2, r0
     520:	000b      	movs	r3, r1
     522:	2000      	movs	r0, #0
     524:	490b      	ldr	r1, [pc, #44]	; (554 <paToFeetNOAA+0x54>)
     526:	47a0      	blx	r4
     528:	4a0b      	ldr	r2, [pc, #44]	; (558 <paToFeetNOAA+0x58>)
     52a:	4b0c      	ldr	r3, [pc, #48]	; (55c <paToFeetNOAA+0x5c>)
     52c:	4c0c      	ldr	r4, [pc, #48]	; (560 <paToFeetNOAA+0x60>)
     52e:	47a0      	blx	r4
    return altFeet;

}
     530:	bd10      	pop	{r4, pc}
     532:	46c0      	nop			; (mov r8, r8)
     534:	00005ce1 	.word	0x00005ce1
     538:	000048a5 	.word	0x000048a5
     53c:	40240000 	.word	0x40240000
     540:	408faa00 	.word	0x408faa00
     544:	e279dd3c 	.word	0xe279dd3c
     548:	3fc85b39 	.word	0x3fc85b39
     54c:	00002745 	.word	0x00002745
     550:	0000560d 	.word	0x0000560d
     554:	3ff00000 	.word	0x3ff00000
     558:	9999999a 	.word	0x9999999a
     55c:	4101beb3 	.word	0x4101beb3
     560:	0000510d 	.word	0x0000510d

00000564 <readMS5803Coefficients>:



void readMS5803Coefficients() {
     564:	b5f7      	push	{r0, r1, r2, r4, r5, r6, r7, lr}
     566:	2400      	movs	r4, #0
    for (u8_t coeff_num = 1; coeff_num < 7 ; ++coeff_num ) {
        delay_us(600);
        u8_t _cmd = MS5803_CMD_PROM_READ + ((coeff_num)*2);
        delay_us(600);
        pinLow(cs_baro);
        spiDataTransfer(SPI2, _cmd);
     568:	2602      	movs	r6, #2
        delay_us(600);
     56a:	2096      	movs	r0, #150	; 0x96
     56c:	4d11      	ldr	r5, [pc, #68]	; (5b4 <readMS5803Coefficients+0x50>)
     56e:	0080      	lsls	r0, r0, #2
     570:	47a8      	blx	r5
        delay_us(600);
     572:	2096      	movs	r0, #150	; 0x96
     574:	0080      	lsls	r0, r0, #2
     576:	47a8      	blx	r5
        spiDataTransfer(SPI2, _cmd);
     578:	0021      	movs	r1, r4
    PORT->Group[p.group].OUTCLR.reg = (1<<p.pin);
     57a:	2380      	movs	r3, #128	; 0x80
     57c:	4f0e      	ldr	r7, [pc, #56]	; (5b8 <readMS5803Coefficients+0x54>)
     57e:	01db      	lsls	r3, r3, #7
     580:	395e      	subs	r1, #94	; 0x5e
     582:	617b      	str	r3, [r7, #20]
     584:	4d0d      	ldr	r5, [pc, #52]	; (5bc <readMS5803Coefficients+0x58>)
     586:	b2c9      	uxtb	r1, r1
     588:	0030      	movs	r0, r6
     58a:	47a8      	blx	r5
        u8_t _byte1 = spiDataTransfer(SPI2,dummy_tx);
     58c:	21ff      	movs	r1, #255	; 0xff
     58e:	0030      	movs	r0, r6
     590:	47a8      	blx	r5
        u8_t _byte2 = spiDataTransfer(SPI2,dummy_tx);
     592:	21ff      	movs	r1, #255	; 0xff
        u8_t _byte1 = spiDataTransfer(SPI2,dummy_tx);
     594:	9001      	str	r0, [sp, #4]
        u8_t _byte2 = spiDataTransfer(SPI2,dummy_tx);
     596:	0030      	movs	r0, r6
     598:	47a8      	blx	r5
    PORT->Group[p.group].OUTSET.reg = (1<<p.pin);
     59a:	2380      	movs	r3, #128	; 0x80
     59c:	01db      	lsls	r3, r3, #7
     59e:	61bb      	str	r3, [r7, #24]
        pinHigh(cs_baro);
        coefficients_[coeff_num] = (_byte1 << 8) | _byte2;
     5a0:	9b01      	ldr	r3, [sp, #4]
     5a2:	4a07      	ldr	r2, [pc, #28]	; (5c0 <readMS5803Coefficients+0x5c>)
     5a4:	021b      	lsls	r3, r3, #8
     5a6:	18a2      	adds	r2, r4, r2
     5a8:	4318      	orrs	r0, r3
     5aa:	3402      	adds	r4, #2
     5ac:	8050      	strh	r0, [r2, #2]
    for (u8_t coeff_num = 1; coeff_num < 7 ; ++coeff_num ) {
     5ae:	2c0c      	cmp	r4, #12
     5b0:	d1db      	bne.n	56a <readMS5803Coefficients+0x6>
    }

}
     5b2:	bdf7      	pop	{r0, r1, r2, r4, r5, r6, r7, pc}
     5b4:	00000ec1 	.word	0x00000ec1
     5b8:	41004400 	.word	0x41004400
     5bc:	00002615 	.word	0x00002615
     5c0:	2000063a 	.word	0x2000063a

000005c4 <initMS5803Barometer>:

void initMS5803Barometer() {
     5c4:	b570      	push	{r4, r5, r6, lr}
    PORT->Group[p.group].OUTCLR.reg = (1<<p.pin);
     5c6:	2580      	movs	r5, #128	; 0x80
     5c8:	4c06      	ldr	r4, [pc, #24]	; (5e4 <initMS5803Barometer+0x20>)
     5ca:	01ed      	lsls	r5, r5, #7


    pinLow(cs_baro);
    spiDataTransfer(SPI2, MS5803_CMD_RES);
     5cc:	211e      	movs	r1, #30
     5ce:	6165      	str	r5, [r4, #20]
     5d0:	4b05      	ldr	r3, [pc, #20]	; (5e8 <initMS5803Barometer+0x24>)
     5d2:	2002      	movs	r0, #2
     5d4:	4798      	blx	r3
    PORT->Group[p.group].OUTSET.reg = (1<<p.pin);
     5d6:	61a5      	str	r5, [r4, #24]

    pinHigh(cs_baro);
    delay_ms(200);
     5d8:	20c8      	movs	r0, #200	; 0xc8
     5da:	4b04      	ldr	r3, [pc, #16]	; (5ec <initMS5803Barometer+0x28>)
     5dc:	4798      	blx	r3
    readMS5803Coefficients();
     5de:	4b04      	ldr	r3, [pc, #16]	; (5f0 <initMS5803Barometer+0x2c>)
     5e0:	4798      	blx	r3

}
     5e2:	bd70      	pop	{r4, r5, r6, pc}
     5e4:	41004400 	.word	0x41004400
     5e8:	00002615 	.word	0x00002615
     5ec:	00000eed 	.word	0x00000eed
     5f0:	00000565 	.word	0x00000565

000005f4 <init>:

void init() {


    /* Set 1 Flash Wait State for 48MHz, cf tables 20.9 and 35.27 in SAMD21 Datasheet */
    NVMCTRL->CTRLB.bit.RWS = NVMCTRL_CTRLB_RWS_HALF_Val;
     5f4:	211e      	movs	r1, #30
void init() {
     5f6:	b5f0      	push	{r4, r5, r6, r7, lr}
    NVMCTRL->CTRLB.bit.RWS = NVMCTRL_CTRLB_RWS_HALF_Val;
     5f8:	4af0      	ldr	r2, [pc, #960]	; (9bc <init+0x3c8>)
void init() {
     5fa:	b085      	sub	sp, #20
    NVMCTRL->CTRLB.bit.RWS = NVMCTRL_CTRLB_RWS_HALF_Val;
     5fc:	6853      	ldr	r3, [r2, #4]
    PORT->Group[p.group].PINCFG[p.pin].bit.PMUXEN = 0;
     5fe:	2401      	movs	r4, #1
     600:	438b      	bics	r3, r1
     602:	391c      	subs	r1, #28
     604:	430b      	orrs	r3, r1
     606:	6053      	str	r3, [r2, #4]


    /* Turn on the digital interface clock */
    PM->APBAMASK.reg |= PM_APBAMASK_GCLK;
     608:	4aed      	ldr	r2, [pc, #948]	; (9c0 <init+0x3cc>)
     60a:	3106      	adds	r1, #6
     60c:	6993      	ldr	r3, [r2, #24]
        PORT->Group[p.group].PMUX[p.pin/2].bit.PMUXE = 0x1;
     60e:	260f      	movs	r6, #15
     610:	430b      	orrs	r3, r1
     612:	6193      	str	r3, [r2, #24]


    SystemInit();
     614:	4beb      	ldr	r3, [pc, #940]	; (9c4 <init+0x3d0>)
     616:	4798      	blx	r3
    GclkInit();
     618:	4beb      	ldr	r3, [pc, #940]	; (9c8 <init+0x3d4>)
     61a:	4798      	blx	r3
    RtcInit();
     61c:	4beb      	ldr	r3, [pc, #940]	; (9cc <init+0x3d8>)
     61e:	4798      	blx	r3
    delayInit();
     620:	4beb      	ldr	r3, [pc, #940]	; (9d0 <init+0x3dc>)
     622:	4798      	blx	r3
    adcInit();
     624:	4beb      	ldr	r3, [pc, #940]	; (9d4 <init+0x3e0>)
     626:	4798      	blx	r3

    \param [in]      IRQn  External interrupt number. Value cannot be negative.
 */
__STATIC_INLINE void NVIC_EnableIRQ(IRQn_Type IRQn)
{
  NVIC->ISER[0] = (1 << ((uint32_t)(IRQn) & 0x1F));
     628:	2240      	movs	r2, #64	; 0x40
{
  if(IRQn < 0) {
    SCB->SHP[_SHP_IDX(IRQn)] = (SCB->SHP[_SHP_IDX(IRQn)] & ~(0xFF << _BIT_SHIFT(IRQn))) |
        (((priority << (8 - __NVIC_PRIO_BITS)) & 0xFF) << _BIT_SHIFT(IRQn)); }
  else {
    NVIC->IP[_IP_IDX(IRQn)] = (NVIC->IP[_IP_IDX(IRQn)] & ~(0xFF << _BIT_SHIFT(IRQn))) |
     62a:	21c1      	movs	r1, #193	; 0xc1
  NVIC->ISER[0] = (1 << ((uint32_t)(IRQn) & 0x1F));
     62c:	4bea      	ldr	r3, [pc, #936]	; (9d8 <init+0x3e4>)
    NVIC->IP[_IP_IDX(IRQn)] = (NVIC->IP[_IP_IDX(IRQn)] & ~(0xFF << _BIT_SHIFT(IRQn))) |
     62e:	0089      	lsls	r1, r1, #2
  NVIC->ISER[0] = (1 << ((uint32_t)(IRQn) & 0x1F));
     630:	601a      	str	r2, [r3, #0]
    NVIC->IP[_IP_IDX(IRQn)] = (NVIC->IP[_IP_IDX(IRQn)] & ~(0xFF << _BIT_SHIFT(IRQn))) |
     632:	585a      	ldr	r2, [r3, r1]
     634:	48e9      	ldr	r0, [pc, #932]	; (9dc <init+0x3e8>)
     636:	4002      	ands	r2, r0
     638:	505a      	str	r2, [r3, r1]
    PORT->Group[p.group].PINCFG[p.pin].bit.PMUXEN = 0;
     63a:	4be9      	ldr	r3, [pc, #932]	; (9e0 <init+0x3ec>)
    PORT->Group[p.group].PINCFG[p.pin].bit.INEN = 1;
     63c:	2002      	movs	r0, #2
    PORT->Group[p.group].PINCFG[p.pin].bit.PMUXEN = 0;
     63e:	0019      	movs	r1, r3
     640:	3154      	adds	r1, #84	; 0x54
     642:	780a      	ldrb	r2, [r1, #0]
    PORT->Group[p.group].OUTCLR.reg = (1<<p.pin);
     644:	001f      	movs	r7, r3
    PORT->Group[p.group].PINCFG[p.pin].bit.PMUXEN = 0;
     646:	43a2      	bics	r2, r4
     648:	700a      	strb	r2, [r1, #0]
    PORT->Group[p.group].DIRSET.reg = (1<<p.pin);
     64a:	2280      	movs	r2, #128	; 0x80
     64c:	0352      	lsls	r2, r2, #13
     64e:	609a      	str	r2, [r3, #8]
        PORT->Group[p.group].PMUX[p.pin/2].bit.PMUXE = 0x1;
     650:	3921      	subs	r1, #33	; 0x21
     652:	780a      	ldrb	r2, [r1, #0]
    PORT->Group[p.group].OUTCLR.reg = (1<<p.pin);
     654:	3794      	adds	r7, #148	; 0x94
        PORT->Group[p.group].PMUX[p.pin/2].bit.PMUXE = 0x1;
     656:	43b2      	bics	r2, r6
     658:	4322      	orrs	r2, r4
     65a:	700a      	strb	r2, [r1, #0]
    PORT->Group[p.group].PINCFG[p.pin].bit.PMUXEN = 1;
     65c:	7cca      	ldrb	r2, [r1, #19]
     65e:	4322      	orrs	r2, r4
     660:	74ca      	strb	r2, [r1, #19]
    PORT->Group[p.group].PINCFG[p.pin].bit.PMUXEN = 0;
     662:	001a      	movs	r2, r3
     664:	32c3      	adds	r2, #195	; 0xc3
     666:	7811      	ldrb	r1, [r2, #0]
     668:	43a1      	bics	r1, r4
     66a:	7011      	strb	r1, [r2, #0]
    PORT->Group[p.group].PINCFG[p.pin].bit.INEN = 1;
     66c:	7811      	ldrb	r1, [r2, #0]
     66e:	4301      	orrs	r1, r0
     670:	7011      	strb	r1, [r2, #0]
    PORT->Group[p.group].DIRCLR.reg = (1<<p.pin);
     672:	2108      	movs	r1, #8
     674:	468c      	mov	ip, r1
     676:	449c      	add	ip, r3
     678:	4661      	mov	r1, ip
     67a:	3006      	adds	r0, #6
     67c:	67c8      	str	r0, [r1, #124]	; 0x7c
        PORT->Group[p.group].PMUX[p.pin/2].bit.PMUXO = p.mux;
     67e:	0018      	movs	r0, r3
     680:	2110      	movs	r1, #16
     682:	30b1      	adds	r0, #177	; 0xb1
     684:	7805      	ldrb	r5, [r0, #0]
     686:	4035      	ands	r5, r6
     688:	430d      	orrs	r5, r1
     68a:	7005      	strb	r5, [r0, #0]
    PORT->Group[p.group].PINCFG[p.pin].bit.PMUXEN = 1;
     68c:	7815      	ldrb	r5, [r2, #0]
    PORT->Group[p.group].PINCFG[p.pin].bit.INEN = 1;
     68e:	390e      	subs	r1, #14
    PORT->Group[p.group].PINCFG[p.pin].bit.PMUXEN = 1;
     690:	4325      	orrs	r5, r4
     692:	7015      	strb	r5, [r2, #0]
    PORT->Group[p.group].PINCFG[p.pin].bit.PMUXEN = 0;
     694:	001d      	movs	r5, r3
     696:	35d7      	adds	r5, #215	; 0xd7
     698:	782a      	ldrb	r2, [r5, #0]
     69a:	43a2      	bics	r2, r4
     69c:	702a      	strb	r2, [r5, #0]
    PORT->Group[p.group].DIRSET.reg = (1<<p.pin);
     69e:	2580      	movs	r5, #128	; 0x80
     6a0:	4ad0      	ldr	r2, [pc, #832]	; (9e4 <init+0x3f0>)
     6a2:	042d      	lsls	r5, r5, #16
     6a4:	6015      	str	r5, [r2, #0]
    PORT->Group[p.group].PINCFG[p.pin].bit.PMUXEN = 0;
     6a6:	001a      	movs	r2, r3
    PORT->Group[p.group].OUTCLR.reg = (1<<p.pin);
     6a8:	603d      	str	r5, [r7, #0]
    PORT->Group[p.group].PINCFG[p.pin].bit.PMUXEN = 0;
     6aa:	32c2      	adds	r2, #194	; 0xc2
     6ac:	7815      	ldrb	r5, [r2, #0]
     6ae:	43a5      	bics	r5, r4
     6b0:	7015      	strb	r5, [r2, #0]
    PORT->Group[p.group].PINCFG[p.pin].bit.INEN = 1;
     6b2:	7815      	ldrb	r5, [r2, #0]
     6b4:	430d      	orrs	r5, r1
     6b6:	7015      	strb	r5, [r2, #0]
    PORT->Group[p.group].DIRCLR.reg = (1<<p.pin);
     6b8:	4661      	mov	r1, ip
     6ba:	2504      	movs	r5, #4
     6bc:	67cd      	str	r5, [r1, #124]	; 0x7c
        PORT->Group[p.group].PMUX[p.pin/2].bit.PMUXE = p.mux;
     6be:	7805      	ldrb	r5, [r0, #0]
    PORT->Group[p.group].DIRSET.reg = (1<<p.pin);
     6c0:	2180      	movs	r1, #128	; 0x80
        PORT->Group[p.group].PMUX[p.pin/2].bit.PMUXE = p.mux;
     6c2:	43b5      	bics	r5, r6
     6c4:	4325      	orrs	r5, r4
     6c6:	7005      	strb	r5, [r0, #0]
    PORT->Group[p.group].PINCFG[p.pin].bit.PMUXEN = 1;
     6c8:	7810      	ldrb	r0, [r2, #0]
    PORT->Group[p.group].DIRSET.reg = (1<<p.pin);
     6ca:	03c9      	lsls	r1, r1, #15
    PORT->Group[p.group].PINCFG[p.pin].bit.PMUXEN = 1;
     6cc:	4320      	orrs	r0, r4
     6ce:	7010      	strb	r0, [r2, #0]
    PORT->Group[p.group].PINCFG[p.pin].bit.PMUXEN = 0;
     6d0:	0018      	movs	r0, r3
     6d2:	30d6      	adds	r0, #214	; 0xd6
     6d4:	7802      	ldrb	r2, [r0, #0]
     6d6:	43a2      	bics	r2, r4
     6d8:	7002      	strb	r2, [r0, #0]
    PORT->Group[p.group].DIRSET.reg = (1<<p.pin);
     6da:	4ac2      	ldr	r2, [pc, #776]	; (9e4 <init+0x3f0>)
     6dc:	6011      	str	r1, [r2, #0]
    PORT->Group[p.group].PINCFG[p.pin].bit.PMUXEN = 0;
     6de:	001a      	movs	r2, r3
    PORT->Group[p.group].OUTCLR.reg = (1<<p.pin);
     6e0:	6039      	str	r1, [r7, #0]
    PORT->Group[p.group].PINCFG[p.pin].bit.INEN = 1;
     6e2:	2102      	movs	r1, #2
    PORT->Group[p.group].PINCFG[p.pin].bit.PMUXEN = 0;
     6e4:	3243      	adds	r2, #67	; 0x43
     6e6:	7810      	ldrb	r0, [r2, #0]
     6e8:	3f4b      	subs	r7, #75	; 0x4b
     6ea:	43a0      	bics	r0, r4
     6ec:	7010      	strb	r0, [r2, #0]
    PORT->Group[p.group].PINCFG[p.pin].bit.INEN = 1;
     6ee:	7810      	ldrb	r0, [r2, #0]
     6f0:	4308      	orrs	r0, r1
     6f2:	7010      	strb	r0, [r2, #0]
        PORT->Group[p.group].PMUX[p.pin/2].bit.PMUXO = p.mux;
     6f4:	0018      	movs	r0, r3
    PORT->Group[p.group].DIRCLR.reg = (1<<p.pin);
     6f6:	3106      	adds	r1, #6
     6f8:	6059      	str	r1, [r3, #4]
        PORT->Group[p.group].PMUX[p.pin/2].bit.PMUXO = p.mux;
     6fa:	3031      	adds	r0, #49	; 0x31
     6fc:	7805      	ldrb	r5, [r0, #0]
     6fe:	3108      	adds	r1, #8
     700:	4035      	ands	r5, r6
     702:	4329      	orrs	r1, r5
     704:	7001      	strb	r1, [r0, #0]
    PORT->Group[p.group].PINCFG[p.pin].bit.PMUXEN = 1;
     706:	7811      	ldrb	r1, [r2, #0]
    PORT->Group[p.group].PINCFG[p.pin].bit.INEN = 1;
     708:	2502      	movs	r5, #2
    PORT->Group[p.group].PINCFG[p.pin].bit.PMUXEN = 1;
     70a:	4321      	orrs	r1, r4
     70c:	7011      	strb	r1, [r2, #0]
    PORT->Group[p.group].PINCFG[p.pin].bit.PMUXEN = 0;
     70e:	0019      	movs	r1, r3
     710:	3159      	adds	r1, #89	; 0x59
     712:	780a      	ldrb	r2, [r1, #0]
     714:	43a2      	bics	r2, r4
     716:	700a      	strb	r2, [r1, #0]
    PORT->Group[p.group].DIRSET.reg = (1<<p.pin);
     718:	2280      	movs	r2, #128	; 0x80
     71a:	0492      	lsls	r2, r2, #18
     71c:	609a      	str	r2, [r3, #8]
    PORT->Group[p.group].OUTCLR.reg = (1<<p.pin);
     71e:	615a      	str	r2, [r3, #20]
    PORT->Group[p.group].PINCFG[p.pin].bit.PMUXEN = 0;
     720:	001a      	movs	r2, r3
     722:	3242      	adds	r2, #66	; 0x42
     724:	7811      	ldrb	r1, [r2, #0]
     726:	43a1      	bics	r1, r4
     728:	7011      	strb	r1, [r2, #0]
    PORT->Group[p.group].PINCFG[p.pin].bit.INEN = 1;
     72a:	7811      	ldrb	r1, [r2, #0]
     72c:	4329      	orrs	r1, r5
     72e:	7011      	strb	r1, [r2, #0]
    PORT->Group[p.group].DIRCLR.reg = (1<<p.pin);
     730:	2104      	movs	r1, #4
     732:	6059      	str	r1, [r3, #4]
        PORT->Group[p.group].PMUX[p.pin/2].bit.PMUXE = p.mux;
     734:	7801      	ldrb	r1, [r0, #0]
     736:	43b1      	bics	r1, r6
     738:	4321      	orrs	r1, r4
     73a:	7001      	strb	r1, [r0, #0]
    PORT->Group[p.group].PINCFG[p.pin].bit.PMUXEN = 1;
     73c:	7811      	ldrb	r1, [r2, #0]
     73e:	4321      	orrs	r1, r4
     740:	7011      	strb	r1, [r2, #0]
    PORT->Group[p.group].PINCFG[p.pin].bit.PMUXEN = 0;
     742:	0019      	movs	r1, r3
     744:	3158      	adds	r1, #88	; 0x58
     746:	780a      	ldrb	r2, [r1, #0]
     748:	43a2      	bics	r2, r4
     74a:	700a      	strb	r2, [r1, #0]
    PORT->Group[p.group].DIRSET.reg = (1<<p.pin);
     74c:	2280      	movs	r2, #128	; 0x80
    pinIn(senseDPin);
    pinMux(senseDPin);
    pinOut(fireDPin);
    pinLow(fireDPin);

    charges.Afired = false;
     74e:	2100      	movs	r1, #0
     750:	0452      	lsls	r2, r2, #17
     752:	609a      	str	r2, [r3, #8]
    PORT->Group[p.group].OUTCLR.reg = (1<<p.pin);
     754:	615a      	str	r2, [r3, #20]
     756:	4aa4      	ldr	r2, [pc, #656]	; (9e8 <init+0x3f4>)
     758:	7011      	strb	r1, [r2, #0]
    charges.Bfired = false;
     75a:	2100      	movs	r1, #0
     75c:	7051      	strb	r1, [r2, #1]
    charges.Cfired = false;
     75e:	2100      	movs	r1, #0
     760:	7091      	strb	r1, [r2, #2]
    charges.Dfired = false;
     762:	2100      	movs	r1, #0
     764:	70d1      	strb	r1, [r2, #3]
    PORT->Group[p.group].PINCFG[p.pin].bit.PMUXEN = 0;
     766:	7dc2      	ldrb	r2, [r0, #23]
     768:	43a2      	bics	r2, r4
     76a:	75c2      	strb	r2, [r0, #23]
    PORT->Group[p.group].DIRSET.reg = (1<<p.pin);
     76c:	2280      	movs	r2, #128	; 0x80
     76e:	0052      	lsls	r2, r2, #1
     770:	609a      	str	r2, [r3, #8]
    PORT->Group[p.group].PINCFG[p.pin].bit.PMUXEN = 0;
     772:	783a      	ldrb	r2, [r7, #0]
     774:	43a2      	bics	r2, r4
     776:	703a      	strb	r2, [r7, #0]
    PORT->Group[p.group].DIRSET.reg = (1<<p.pin);
     778:	2280      	movs	r2, #128	; 0x80
     77a:	0092      	lsls	r2, r2, #2
     77c:	609a      	str	r2, [r3, #8]
    PORT->Group[p.group].PINCFG[p.pin].bit.PMUXEN = 0;
     77e:	001a      	movs	r2, r3
     780:	324b      	adds	r2, #75	; 0x4b
     782:	7811      	ldrb	r1, [r2, #0]
     784:	43a1      	bics	r1, r4
     786:	7011      	strb	r1, [r2, #0]
    PORT->Group[p.group].PINCFG[p.pin].bit.INEN = 1;
     788:	7811      	ldrb	r1, [r2, #0]
     78a:	4329      	orrs	r1, r5
     78c:	7011      	strb	r1, [r2, #0]
    PORT->Group[p.group].DIRCLR.reg = (1<<p.pin);
     78e:	2180      	movs	r1, #128	; 0x80
     790:	0109      	lsls	r1, r1, #4
     792:	6059      	str	r1, [r3, #4]
        PORT->Group[p.group].PMUX[p.pin/2].bit.PMUXO = p.mux;
     794:	2135      	movs	r1, #53	; 0x35
     796:	468c      	mov	ip, r1
     798:	449c      	add	ip, r3
     79a:	4661      	mov	r1, ip
     79c:	7809      	ldrb	r1, [r1, #0]
     79e:	351e      	adds	r5, #30
     7a0:	4031      	ands	r1, r6
     7a2:	4329      	orrs	r1, r5
     7a4:	4665      	mov	r5, ip
     7a6:	7029      	strb	r1, [r5, #0]
    PORT->Group[p.group].PINCFG[p.pin].bit.PMUXEN = 1;
     7a8:	7811      	ldrb	r1, [r2, #0]
        PORT->Group[p.group].PMUX[p.pin/2].bit.PMUXO = p.mux;
     7aa:	2520      	movs	r5, #32
    PORT->Group[p.group].PINCFG[p.pin].bit.PMUXEN = 1;
     7ac:	4321      	orrs	r1, r4
     7ae:	7011      	strb	r1, [r2, #0]
        PORT->Group[p.group].PMUX[p.pin/2].bit.PMUXO = p.mux;
     7b0:	0019      	movs	r1, r3
     7b2:	3134      	adds	r1, #52	; 0x34
     7b4:	780a      	ldrb	r2, [r1, #0]
     7b6:	4032      	ands	r2, r6
     7b8:	432a      	orrs	r2, r5
     7ba:	700a      	strb	r2, [r1, #0]
    PORT->Group[p.group].PINCFG[p.pin].bit.PMUXEN = 1;
     7bc:	783a      	ldrb	r2, [r7, #0]
        PORT->Group[p.group].PMUX[p.pin/2].bit.PMUXE = p.mux;
     7be:	3d1e      	subs	r5, #30
    PORT->Group[p.group].PINCFG[p.pin].bit.PMUXEN = 1;
     7c0:	4322      	orrs	r2, r4
     7c2:	703a      	strb	r2, [r7, #0]
        PORT->Group[p.group].PMUX[p.pin/2].bit.PMUXE = p.mux;
     7c4:	780a      	ldrb	r2, [r1, #0]
    PORT->Group[p.group].PINCFG[p.pin].bit.PMUXEN = 0;
     7c6:	3706      	adds	r7, #6
        PORT->Group[p.group].PMUX[p.pin/2].bit.PMUXE = p.mux;
     7c8:	43b2      	bics	r2, r6
     7ca:	432a      	orrs	r2, r5
     7cc:	700a      	strb	r2, [r1, #0]
    PORT->Group[p.group].PINCFG[p.pin].bit.PMUXEN = 1;
     7ce:	7dc2      	ldrb	r2, [r0, #23]
    PORT->Group[p.group].PINCFG[p.pin].bit.PMUXEN = 0;
     7d0:	3196      	adds	r1, #150	; 0x96
    PORT->Group[p.group].PINCFG[p.pin].bit.PMUXEN = 1;
     7d2:	4322      	orrs	r2, r4
     7d4:	75c2      	strb	r2, [r0, #23]
    PORT->Group[p.group].PINCFG[p.pin].bit.PMUXEN = 0;
     7d6:	780a      	ldrb	r2, [r1, #0]
     7d8:	43a2      	bics	r2, r4
     7da:	700a      	strb	r2, [r1, #0]
    PORT->Group[p.group].DIRSET.reg = (1<<p.pin);
     7dc:	2280      	movs	r2, #128	; 0x80
     7de:	4981      	ldr	r1, [pc, #516]	; (9e4 <init+0x3f0>)
     7e0:	00d2      	lsls	r2, r2, #3
     7e2:	600a      	str	r2, [r1, #0]
    PORT->Group[p.group].OUTSET.reg = (1<<p.pin);
     7e4:	0019      	movs	r1, r3
     7e6:	3198      	adds	r1, #152	; 0x98
     7e8:	600a      	str	r2, [r1, #0]
    PORT->Group[p.group].PINCFG[p.pin].bit.PMUXEN = 0;
     7ea:	7e41      	ldrb	r1, [r0, #25]
     7ec:	43a1      	bics	r1, r4
     7ee:	7641      	strb	r1, [r0, #25]
    PORT->Group[p.group].DIRSET.reg = (1<<p.pin);
     7f0:	609a      	str	r2, [r3, #8]
    PORT->Group[p.group].OUTSET.reg = (1<<p.pin);
     7f2:	619a      	str	r2, [r3, #24]
    PORT->Group[p.group].PINCFG[p.pin].bit.PMUXEN = 0;
     7f4:	7fc2      	ldrb	r2, [r0, #31]
     7f6:	43a2      	bics	r2, r4
     7f8:	77c2      	strb	r2, [r0, #31]
    PORT->Group[p.group].DIRSET.reg = (1<<p.pin);
     7fa:	2280      	movs	r2, #128	; 0x80
     7fc:	0252      	lsls	r2, r2, #9
     7fe:	609a      	str	r2, [r3, #8]
    PORT->Group[p.group].PINCFG[p.pin].bit.PMUXEN = 0;
     800:	78ba      	ldrb	r2, [r7, #2]
     802:	43a2      	bics	r2, r4
     804:	70ba      	strb	r2, [r7, #2]
    PORT->Group[p.group].DIRSET.reg = (1<<p.pin);
     806:	2280      	movs	r2, #128	; 0x80
     808:	0292      	lsls	r2, r2, #10
     80a:	609a      	str	r2, [r3, #8]
    PORT->Group[p.group].PINCFG[p.pin].bit.PMUXEN = 0;
     80c:	001a      	movs	r2, r3
     80e:	3253      	adds	r2, #83	; 0x53
     810:	7811      	ldrb	r1, [r2, #0]
     812:	43a1      	bics	r1, r4
     814:	7011      	strb	r1, [r2, #0]
    PORT->Group[p.group].PINCFG[p.pin].bit.INEN = 1;
     816:	7811      	ldrb	r1, [r2, #0]
     818:	4329      	orrs	r1, r5
     81a:	7011      	strb	r1, [r2, #0]
    PORT->Group[p.group].DIRCLR.reg = (1<<p.pin);
     81c:	2180      	movs	r1, #128	; 0x80
     81e:	0309      	lsls	r1, r1, #12
     820:	6059      	str	r1, [r3, #4]
        PORT->Group[p.group].PMUX[p.pin/2].bit.PMUXO = p.mux;
     822:	2139      	movs	r1, #57	; 0x39
     824:	468c      	mov	ip, r1
     826:	449c      	add	ip, r3
     828:	4661      	mov	r1, ip
     82a:	7809      	ldrb	r1, [r1, #0]
     82c:	351e      	adds	r5, #30
     82e:	4031      	ands	r1, r6
     830:	4329      	orrs	r1, r5
     832:	4665      	mov	r5, ip
     834:	7029      	strb	r1, [r5, #0]
    PORT->Group[p.group].PINCFG[p.pin].bit.PMUXEN = 1;
     836:	7811      	ldrb	r1, [r2, #0]
        PORT->Group[p.group].PMUX[p.pin/2].bit.PMUXO = p.mux;
     838:	2520      	movs	r5, #32
    PORT->Group[p.group].PINCFG[p.pin].bit.PMUXEN = 1;
     83a:	4321      	orrs	r1, r4
     83c:	7011      	strb	r1, [r2, #0]
        PORT->Group[p.group].PMUX[p.pin/2].bit.PMUXO = p.mux;
     83e:	0019      	movs	r1, r3
     840:	3138      	adds	r1, #56	; 0x38
     842:	780a      	ldrb	r2, [r1, #0]
     844:	4032      	ands	r2, r6
     846:	432a      	orrs	r2, r5
     848:	700a      	strb	r2, [r1, #0]
    PORT->Group[p.group].PINCFG[p.pin].bit.PMUXEN = 1;
     84a:	78ba      	ldrb	r2, [r7, #2]
        PORT->Group[p.group].PMUX[p.pin/2].bit.PMUXE = p.mux;
     84c:	3d1e      	subs	r5, #30
    PORT->Group[p.group].PINCFG[p.pin].bit.PMUXEN = 1;
     84e:	4322      	orrs	r2, r4
     850:	70ba      	strb	r2, [r7, #2]
        PORT->Group[p.group].PMUX[p.pin/2].bit.PMUXE = p.mux;
     852:	780a      	ldrb	r2, [r1, #0]
     854:	43b2      	bics	r2, r6
     856:	432a      	orrs	r2, r5
     858:	700a      	strb	r2, [r1, #0]
    PORT->Group[p.group].PINCFG[p.pin].bit.PMUXEN = 1;
     85a:	7fc2      	ldrb	r2, [r0, #31]
    PORT->Group[p.group].PINCFG[p.pin].bit.PMUXEN = 0;
     85c:	3114      	adds	r1, #20
    PORT->Group[p.group].PINCFG[p.pin].bit.PMUXEN = 1;
     85e:	4322      	orrs	r2, r4
     860:	77c2      	strb	r2, [r0, #31]
    PORT->Group[p.group].PINCFG[p.pin].bit.PMUXEN = 0;
     862:	798a      	ldrb	r2, [r1, #6]
     864:	43a2      	bics	r2, r4
     866:	718a      	strb	r2, [r1, #6]
    PORT->Group[p.group].DIRSET.reg = (1<<p.pin);
     868:	2280      	movs	r2, #128	; 0x80
     86a:	02d2      	lsls	r2, r2, #11
     86c:	609a      	str	r2, [r3, #8]
    PORT->Group[p.group].OUTSET.reg = (1<<p.pin);
     86e:	619a      	str	r2, [r3, #24]
    PORT->Group[p.group].PINCFG[p.pin].bit.PMUXEN = 0;
     870:	9103      	str	r1, [sp, #12]
     872:	780a      	ldrb	r2, [r1, #0]
     874:	43a2      	bics	r2, r4
     876:	700a      	strb	r2, [r1, #0]
    PORT->Group[p.group].DIRSET.reg = (1<<p.pin);
     878:	2280      	movs	r2, #128	; 0x80
     87a:	0152      	lsls	r2, r2, #5
     87c:	609a      	str	r2, [r3, #8]
    PORT->Group[p.group].PINCFG[p.pin].bit.PMUXEN = 0;
     87e:	783a      	ldrb	r2, [r7, #0]
        PORT->Group[p.group].PMUX[p.pin/2].bit.PMUXO = p.mux;
     880:	2120      	movs	r1, #32
    PORT->Group[p.group].PINCFG[p.pin].bit.PMUXEN = 0;
     882:	43a2      	bics	r2, r4
     884:	703a      	strb	r2, [r7, #0]
    PORT->Group[p.group].DIRSET.reg = (1<<p.pin);
     886:	2280      	movs	r2, #128	; 0x80
     888:	0212      	lsls	r2, r2, #8
     88a:	609a      	str	r2, [r3, #8]
    PORT->Group[p.group].PINCFG[p.pin].bit.PMUXEN = 0;
     88c:	001a      	movs	r2, r3
     88e:	324d      	adds	r2, #77	; 0x4d
     890:	7810      	ldrb	r0, [r2, #0]
     892:	43a0      	bics	r0, r4
     894:	7010      	strb	r0, [r2, #0]
    PORT->Group[p.group].PINCFG[p.pin].bit.INEN = 1;
     896:	7810      	ldrb	r0, [r2, #0]
     898:	4328      	orrs	r0, r5
     89a:	7010      	strb	r0, [r2, #0]
    PORT->Group[p.group].DIRCLR.reg = (1<<p.pin);
     89c:	2080      	movs	r0, #128	; 0x80
     89e:	0180      	lsls	r0, r0, #6
     8a0:	6058      	str	r0, [r3, #4]
        PORT->Group[p.group].PMUX[p.pin/2].bit.PMUXO = p.mux;
     8a2:	0018      	movs	r0, r3
     8a4:	3036      	adds	r0, #54	; 0x36
     8a6:	7805      	ldrb	r5, [r0, #0]
     8a8:	4035      	ands	r5, r6
     8aa:	430d      	orrs	r5, r1
     8ac:	7005      	strb	r5, [r0, #0]
    PORT->Group[p.group].PINCFG[p.pin].bit.PMUXEN = 1;
     8ae:	7811      	ldrb	r1, [r2, #0]
     8b0:	000d      	movs	r5, r1
     8b2:	4325      	orrs	r5, r4
     8b4:	7015      	strb	r5, [r2, #0]
        PORT->Group[p.group].PMUX[p.pin/2].bit.PMUXO = p.mux;
     8b6:	2237      	movs	r2, #55	; 0x37
     8b8:	4694      	mov	ip, r2
     8ba:	449c      	add	ip, r3
     8bc:	4662      	mov	r2, ip
     8be:	2120      	movs	r1, #32
     8c0:	7812      	ldrb	r2, [r2, #0]
        PORT->Group[p.group].PMUX[p.pin/2].bit.PMUXE = p.mux;
     8c2:	2502      	movs	r5, #2
        PORT->Group[p.group].PMUX[p.pin/2].bit.PMUXO = p.mux;
     8c4:	4032      	ands	r2, r6
     8c6:	430a      	orrs	r2, r1
     8c8:	4661      	mov	r1, ip
     8ca:	700a      	strb	r2, [r1, #0]
        PORT->Group[p.group].PMUX[p.pin/2].bit.PMUXE = p.mux;
     8cc:	2102      	movs	r1, #2
    PORT->Group[p.group].PINCFG[p.pin].bit.PMUXEN = 1;
     8ce:	783a      	ldrb	r2, [r7, #0]
     8d0:	4322      	orrs	r2, r4
     8d2:	703a      	strb	r2, [r7, #0]
        PORT->Group[p.group].PMUX[p.pin/2].bit.PMUXE = p.mux;
     8d4:	7802      	ldrb	r2, [r0, #0]
     8d6:	43b2      	bics	r2, r6
     8d8:	430a      	orrs	r2, r1
     8da:	7002      	strb	r2, [r0, #0]
    PORT->Group[p.group].PINCFG[p.pin].bit.PMUXEN = 1;
     8dc:	9a03      	ldr	r2, [sp, #12]
     8de:	9903      	ldr	r1, [sp, #12]
     8e0:	7812      	ldrb	r2, [r2, #0]
    PORT->Group[p.group].PINCFG[p.pin].bit.PMUXEN = 0;
     8e2:	3020      	adds	r0, #32
    PORT->Group[p.group].PINCFG[p.pin].bit.PMUXEN = 1;
     8e4:	4322      	orrs	r2, r4
     8e6:	700a      	strb	r2, [r1, #0]
    PORT->Group[p.group].PINCFG[p.pin].bit.PMUXEN = 0;
     8e8:	0019      	movs	r1, r3
     8ea:	314e      	adds	r1, #78	; 0x4e
     8ec:	780a      	ldrb	r2, [r1, #0]
     8ee:	43a2      	bics	r2, r4
     8f0:	700a      	strb	r2, [r1, #0]
    PORT->Group[p.group].DIRSET.reg = (1<<p.pin);
     8f2:	2280      	movs	r2, #128	; 0x80
     8f4:	01d2      	lsls	r2, r2, #7
     8f6:	609a      	str	r2, [r3, #8]
    PORT->Group[p.group].OUTSET.reg = (1<<p.pin);
     8f8:	619a      	str	r2, [r3, #24]
    PORT->Group[p.group].PINCFG[p.pin].bit.PMUXEN = 0;
     8fa:	001a      	movs	r2, r3
     8fc:	3255      	adds	r2, #85	; 0x55
     8fe:	7811      	ldrb	r1, [r2, #0]
     900:	43a1      	bics	r1, r4
     902:	7011      	strb	r1, [r2, #0]
    PORT->Group[p.group].DIRSET.reg = (1<<p.pin);
     904:	2180      	movs	r1, #128	; 0x80
     906:	0389      	lsls	r1, r1, #14
     908:	6099      	str	r1, [r3, #8]
    PORT->Group[p.group].PINCFG[p.pin].reg = p.cfg;
     90a:	2140      	movs	r1, #64	; 0x40
     90c:	7011      	strb	r1, [r2, #0]
    PORT->Group[p.group].PINCFG[p.pin].bit.PMUXEN = 0;
     90e:	7802      	ldrb	r2, [r0, #0]
        PORT->Group[p.group].PMUX[p.pin/2].bit.PMUXE = p.mux;
     910:	0019      	movs	r1, r3
    PORT->Group[p.group].PINCFG[p.pin].bit.PMUXEN = 0;
     912:	43a2      	bics	r2, r4
     914:	7002      	strb	r2, [r0, #0]
    PORT->Group[p.group].DIRSET.reg = (1<<p.pin);
     916:	2280      	movs	r2, #128	; 0x80
     918:	03d2      	lsls	r2, r2, #15
        PORT->Group[p.group].PMUX[p.pin/2].bit.PMUXE = p.mux;
     91a:	313b      	adds	r1, #59	; 0x3b
    PORT->Group[p.group].DIRSET.reg = (1<<p.pin);
     91c:	609a      	str	r2, [r3, #8]
        PORT->Group[p.group].PMUX[p.pin/2].bit.PMUXE = p.mux;
     91e:	780a      	ldrb	r2, [r1, #0]
     920:	43b2      	bics	r2, r6
     922:	432a      	orrs	r2, r5
     924:	700a      	strb	r2, [r1, #0]
    PORT->Group[p.group].PINCFG[p.pin].bit.PMUXEN = 1;
     926:	7802      	ldrb	r2, [r0, #0]
    pinMux(TxPo);
    pinIn(RxPo);
    pinMux(RxPo);


    sercomClockEnable(SPI2, 3, 4);
     928:	4f30      	ldr	r7, [pc, #192]	; (9ec <init+0x3f8>)
     92a:	4322      	orrs	r2, r4
     92c:	7002      	strb	r2, [r0, #0]
    PORT->Group[p.group].PINCFG[p.pin].bit.PMUXEN = 0;
     92e:	001a      	movs	r2, r3
     930:	3257      	adds	r2, #87	; 0x57
     932:	7810      	ldrb	r0, [r2, #0]
     934:	43a0      	bics	r0, r4
     936:	7010      	strb	r0, [r2, #0]
    PORT->Group[p.group].PINCFG[p.pin].bit.INEN = 1;
     938:	7810      	ldrb	r0, [r2, #0]
     93a:	4328      	orrs	r0, r5
     93c:	7010      	strb	r0, [r2, #0]
    PORT->Group[p.group].DIRCLR.reg = (1<<p.pin);
     93e:	2080      	movs	r0, #128	; 0x80
     940:	0400      	lsls	r0, r0, #16
     942:	6058      	str	r0, [r3, #4]
        PORT->Group[p.group].PMUX[p.pin/2].bit.PMUXO = p.mux;
     944:	2020      	movs	r0, #32
     946:	780b      	ldrb	r3, [r1, #0]
     948:	4033      	ands	r3, r6
     94a:	4303      	orrs	r3, r0
     94c:	700b      	strb	r3, [r1, #0]
    PORT->Group[p.group].PINCFG[p.pin].bit.PMUXEN = 1;
     94e:	7813      	ldrb	r3, [r2, #0]
     950:	0028      	movs	r0, r5
     952:	4323      	orrs	r3, r4
     954:	7013      	strb	r3, [r2, #0]
     956:	2103      	movs	r1, #3
     958:	2204      	movs	r2, #4
     95a:	47b8      	blx	r7
    sercomSpiMasterInit(SPI2, 1, 3, 0, 0, 0x00);
     95c:	2300      	movs	r3, #0
     95e:	4e24      	ldr	r6, [pc, #144]	; (9f0 <init+0x3fc>)
     960:	9301      	str	r3, [sp, #4]
     962:	9300      	str	r3, [sp, #0]
     964:	0021      	movs	r1, r4
     966:	0028      	movs	r0, r5
     968:	2203      	movs	r2, #3
     96a:	47b0      	blx	r6


    sercomClockEnable(SPI0, 3, 4);
     96c:	2204      	movs	r2, #4
     96e:	2103      	movs	r1, #3
     970:	2000      	movs	r0, #0
     972:	47b8      	blx	r7
    sercomSpiMasterInit(SPI0, 3, 0, 0, 0, 0x00);
     974:	2300      	movs	r3, #0
     976:	2103      	movs	r1, #3
     978:	9301      	str	r3, [sp, #4]
     97a:	9300      	str	r3, [sp, #0]
     97c:	001a      	movs	r2, r3
     97e:	0018      	movs	r0, r3
     980:	47b0      	blx	r6


    sercomClockEnable(SPI1, 3, 4);
     982:	0020      	movs	r0, r4
     984:	2204      	movs	r2, #4
     986:	2103      	movs	r1, #3
     988:	47b8      	blx	r7
    sercomSpiMasterInit(SPI1, 3, 0, 0, 0, 0x00);
     98a:	2300      	movs	r3, #0
     98c:	0020      	movs	r0, r4
     98e:	9301      	str	r3, [sp, #4]
     990:	9300      	str	r3, [sp, #0]
     992:	001a      	movs	r2, r3
     994:	2103      	movs	r1, #3
     996:	47b0      	blx	r6


    sercomClockEnable(USART3, 4, 8);
     998:	2208      	movs	r2, #8
     99a:	2104      	movs	r1, #4
     99c:	2003      	movs	r0, #3
     99e:	47b8      	blx	r7
    sercomUartInit(USART3,1,0,19200);
     9a0:	2396      	movs	r3, #150	; 0x96
     9a2:	0021      	movs	r1, r4
     9a4:	2200      	movs	r2, #0
     9a6:	2003      	movs	r0, #3
     9a8:	01db      	lsls	r3, r3, #7
     9aa:	4c12      	ldr	r4, [pc, #72]	; (9f4 <init+0x400>)
     9ac:	47a0      	blx	r4


    TC4Init();
     9ae:	4b12      	ldr	r3, [pc, #72]	; (9f8 <init+0x404>)
     9b0:	4798      	blx	r3
    TC5Init();
     9b2:	4b12      	ldr	r3, [pc, #72]	; (9fc <init+0x408>)
     9b4:	4798      	blx	r3
}
     9b6:	b005      	add	sp, #20
     9b8:	bdf0      	pop	{r4, r5, r6, r7, pc}
     9ba:	46c0      	nop			; (mov r8, r8)
     9bc:	41004000 	.word	0x41004000
     9c0:	40000400 	.word	0x40000400
     9c4:	000001d5 	.word	0x000001d5
     9c8:	00000d25 	.word	0x00000d25
     9cc:	00000da9 	.word	0x00000da9
     9d0:	00000ea1 	.word	0x00000ea1
     9d4:	00000b91 	.word	0x00000b91
     9d8:	e000e100 	.word	0xe000e100
     9dc:	ff00ffff 	.word	0xff00ffff
     9e0:	41004400 	.word	0x41004400
     9e4:	41004488 	.word	0x41004488
     9e8:	20000680 	.word	0x20000680
     9ec:	00002509 	.word	0x00002509
     9f0:	00002569 	.word	0x00002569
     9f4:	000025cd 	.word	0x000025cd
     9f8:	00000f6d 	.word	0x00000f6d
     9fc:	00000fd5 	.word	0x00000fd5

00000a00 <main>:




int main(void) {
     a00:	b510      	push	{r4, lr}

    init();
     a02:	4b0e      	ldr	r3, [pc, #56]	; (a3c <main+0x3c>)
     a04:	4798      	blx	r3

    initMS5803Barometer();
     a06:	4b0e      	ldr	r3, [pc, #56]	; (a40 <main+0x40>)
     a08:	4798      	blx	r3
    IMUinit();
     a0a:	4b0e      	ldr	r3, [pc, #56]	; (a44 <main+0x44>)
     a0c:	4798      	blx	r3

    computeKalmanGains();
     a0e:	4b0e      	ldr	r3, [pc, #56]	; (a48 <main+0x48>)
     a10:	4798      	blx	r3


    sampleTick();
     a12:	4c0e      	ldr	r4, [pc, #56]	; (a4c <main+0x4c>)
     a14:	47a0      	blx	r4

    beep(400);
     a16:	20c8      	movs	r0, #200	; 0xc8
     a18:	4b0d      	ldr	r3, [pc, #52]	; (a50 <main+0x50>)
     a1a:	0040      	lsls	r0, r0, #1
     a1c:	4798      	blx	r3


    startupTick = millis();
     a1e:	4b0d      	ldr	r3, [pc, #52]	; (a54 <main+0x54>)
     a20:	4798      	blx	r3
     a22:	4b0d      	ldr	r3, [pc, #52]	; (a58 <main+0x58>)
     a24:	6018      	str	r0, [r3, #0]

    while (1) {



        if (takeSample()) {
     a26:	4b0d      	ldr	r3, [pc, #52]	; (a5c <main+0x5c>)
     a28:	4798      	blx	r3
     a2a:	2800      	cmp	r0, #0
     a2c:	d0fb      	beq.n	a26 <main+0x26>
            sampleTick();
     a2e:	47a0      	blx	r4
            flight();
     a30:	4b0b      	ldr	r3, [pc, #44]	; (a60 <main+0x60>)
     a32:	4798      	blx	r3
            computeKalmanStates();
     a34:	4b0b      	ldr	r3, [pc, #44]	; (a64 <main+0x64>)
     a36:	4798      	blx	r3
     a38:	e7f5      	b.n	a26 <main+0x26>
     a3a:	46c0      	nop			; (mov r8, r8)
     a3c:	000005f5 	.word	0x000005f5
     a40:	000005c5 	.word	0x000005c5
     a44:	00000a69 	.word	0x00000a69
     a48:	00001319 	.word	0x00001319
     a4c:	000021fd 	.word	0x000021fd
     a50:	00000c71 	.word	0x00000c71
     a54:	00000f35 	.word	0x00000f35
     a58:	20000524 	.word	0x20000524
     a5c:	000021e5 	.word	0x000021e5
     a60:	0000103d 	.word	0x0000103d
     a64:	00001bbd 	.word	0x00001bbd

00000a68 <IMUinit>:
#include <util.h>
#include <boardDefines.h>


void IMUinit() {
     a68:	b570      	push	{r4, r5, r6, lr}
    PORT->Group[p.group].OUTCLR.reg = (1<<p.pin);
     a6a:	4c08      	ldr	r4, [pc, #32]	; (a8c <IMUinit+0x24>)
     a6c:	2580      	movs	r5, #128	; 0x80
     a6e:	0023      	movs	r3, r4
     a70:	00ed      	lsls	r5, r5, #3
     a72:	3394      	adds	r3, #148	; 0x94
     a74:	601d      	str	r5, [r3, #0]

    uint8_t dummy_Tx = 0xFF;
    uint8_t dummy_rx;

    pinLow(cs_accel);
    dummy_rx = spiDataTransfer(SPI0, BMI_ACCEL_PMU_RANGE);
     a76:	4e06      	ldr	r6, [pc, #24]	; (a90 <IMUinit+0x28>)
     a78:	210f      	movs	r1, #15
     a7a:	2000      	movs	r0, #0
     a7c:	47b0      	blx	r6
    PORT->Group[p.group].OUTSET.reg = (1<<p.pin);
     a7e:	3498      	adds	r4, #152	; 0x98
    dummy_rx = spiDataTransfer(SPI0, BMI_ACCEL_16G_RANGE);
     a80:	210c      	movs	r1, #12
     a82:	2000      	movs	r0, #0
     a84:	47b0      	blx	r6
     a86:	6025      	str	r5, [r4, #0]
    pinHigh(cs_accel);

}
     a88:	bd70      	pop	{r4, r5, r6, pc}
     a8a:	46c0      	nop			; (mov r8, r8)
     a8c:	41004400 	.word	0x41004400
     a90:	00002615 	.word	0x00002615

00000a94 <USARTconnectionAvaliable>:

bool USARTconnectionAvaliable() {
     a94:	b510      	push	{r4, lr}

    if (sercom(USART3)->SPI.INTFLAG.bit.RXC == 1) {
     a96:	4b09      	ldr	r3, [pc, #36]	; (abc <USARTconnectionAvaliable+0x28>)
     a98:	7e1c      	ldrb	r4, [r3, #24]
     a9a:	0764      	lsls	r4, r4, #29
     a9c:	0fe4      	lsrs	r4, r4, #31
     a9e:	2c01      	cmp	r4, #1
     aa0:	d001      	beq.n	aa6 <USARTconnectionAvaliable+0x12>
            return true;
        } else {
            return false;
        }
    }
    return false;
     aa2:	2000      	movs	r0, #0
}
     aa4:	bd10      	pop	{r4, pc}
        u8_t connectAttempt = usartDataIn(USART3);
     aa6:	2003      	movs	r0, #3
     aa8:	4b05      	ldr	r3, [pc, #20]	; (ac0 <USARTconnectionAvaliable+0x2c>)
     aaa:	4798      	blx	r3
     aac:	0001      	movs	r1, r0
        if (connectAttempt == 0x48) {
     aae:	2848      	cmp	r0, #72	; 0x48
     ab0:	d1f7      	bne.n	aa2 <USARTconnectionAvaliable+0xe>
            usartDataOut(USART3, 'H');
     ab2:	2003      	movs	r0, #3
     ab4:	4b03      	ldr	r3, [pc, #12]	; (ac4 <USARTconnectionAvaliable+0x30>)
     ab6:	4798      	blx	r3
            return true;
     ab8:	0020      	movs	r0, r4
     aba:	e7f3      	b.n	aa4 <USARTconnectionAvaliable+0x10>
     abc:	42001400 	.word	0x42001400
     ac0:	00002645 	.word	0x00002645
     ac4:	0000262d 	.word	0x0000262d

00000ac8 <sendTheasePagesToComputer>:

void sendTheasePagesToComputer(u32_t firstPage, u32_t lastPage) {
     ac8:	b5f0      	push	{r4, r5, r6, r7, lr}
    for (u16_t page = 0; page <= pagesToSend; ++page) {

        u8_t data[256];
        AT25SEreadPage(pageToReadAddress , data);

        for (u16_t dataByte = 0; dataByte < 256; ++dataByte) {
     aca:	2780      	movs	r7, #128	; 0x80
void sendTheasePagesToComputer(u32_t firstPage, u32_t lastPage) {
     acc:	0005      	movs	r5, r0
    for (u16_t page = 0; page <= pagesToSend; ++page) {
     ace:	2400      	movs	r4, #0
    u16_t pagesToSend = (lastPage - firstPage) >> 8;
     ad0:	1a09      	subs	r1, r1, r0
     ad2:	0a09      	lsrs	r1, r1, #8
void sendTheasePagesToComputer(u32_t firstPage, u32_t lastPage) {
     ad4:	b0c3      	sub	sp, #268	; 0x10c
    u16_t pagesToSend = (lastPage - firstPage) >> 8;
     ad6:	b28b      	uxth	r3, r1
     ad8:	9301      	str	r3, [sp, #4]
        for (u16_t dataByte = 0; dataByte < 256; ++dataByte) {
     ada:	007f      	lsls	r7, r7, #1
        AT25SEreadPage(pageToReadAddress , data);
     adc:	a902      	add	r1, sp, #8
     ade:	0028      	movs	r0, r5
     ae0:	4b09      	ldr	r3, [pc, #36]	; (b08 <sendTheasePagesToComputer+0x40>)
     ae2:	4798      	blx	r3
     ae4:	2600      	movs	r6, #0
            usartDataOut(USART3, data[dataByte]);
     ae6:	ab02      	add	r3, sp, #8
     ae8:	5d99      	ldrb	r1, [r3, r6]
     aea:	2003      	movs	r0, #3
     aec:	4b07      	ldr	r3, [pc, #28]	; (b0c <sendTheasePagesToComputer+0x44>)
     aee:	3601      	adds	r6, #1
     af0:	4798      	blx	r3
        for (u16_t dataByte = 0; dataByte < 256; ++dataByte) {
     af2:	42be      	cmp	r6, r7
     af4:	d1f7      	bne.n	ae6 <sendTheasePagesToComputer+0x1e>
    for (u16_t page = 0; page <= pagesToSend; ++page) {
     af6:	3401      	adds	r4, #1
     af8:	9b01      	ldr	r3, [sp, #4]
        }

        pageToReadAddress = pageToReadAddress + 0x100;
     afa:	3501      	adds	r5, #1
    for (u16_t page = 0; page <= pagesToSend; ++page) {
     afc:	b2a4      	uxth	r4, r4
        pageToReadAddress = pageToReadAddress + 0x100;
     afe:	35ff      	adds	r5, #255	; 0xff
    for (u16_t page = 0; page <= pagesToSend; ++page) {
     b00:	42a3      	cmp	r3, r4
     b02:	d2eb      	bcs.n	adc <sendTheasePagesToComputer+0x14>
    }
}
     b04:	b043      	add	sp, #268	; 0x10c
     b06:	bdf0      	pop	{r4, r5, r6, r7, pc}
     b08:	000003ad 	.word	0x000003ad
     b0c:	0000262d 	.word	0x0000262d

00000b10 <altitudeAGL>:

int32_t altitudeAGL() {
    return altitude - offsets.groundOffset;
     b10:	4b07      	ldr	r3, [pc, #28]	; (b30 <altitudeAGL+0x20>)
int32_t altitudeAGL() {
     b12:	b510      	push	{r4, lr}
    return altitude - offsets.groundOffset;
     b14:	6998      	ldr	r0, [r3, #24]
     b16:	4b07      	ldr	r3, [pc, #28]	; (b34 <altitudeAGL+0x24>)
     b18:	4798      	blx	r3
     b1a:	000b      	movs	r3, r1
     b1c:	4906      	ldr	r1, [pc, #24]	; (b38 <altitudeAGL+0x28>)
     b1e:	0002      	movs	r2, r0
     b20:	6808      	ldr	r0, [r1, #0]
     b22:	6849      	ldr	r1, [r1, #4]
     b24:	4c05      	ldr	r4, [pc, #20]	; (b3c <altitudeAGL+0x2c>)
     b26:	47a0      	blx	r4
     b28:	4b05      	ldr	r3, [pc, #20]	; (b40 <altitudeAGL+0x30>)
     b2a:	4798      	blx	r3
}
     b2c:	bd10      	pop	{r4, pc}
     b2e:	46c0      	nop			; (mov r8, r8)
     b30:	200004d0 	.word	0x200004d0
     b34:	00005d65 	.word	0x00005d65
     b38:	20000698 	.word	0x20000698
     b3c:	0000560d 	.word	0x0000560d
     b40:	00005c79 	.word	0x00005c79

00000b44 <unplugged>:


bool unplugged() {
    if (sample.voltage.batFloat < 3.5) {
     b44:	4b05      	ldr	r3, [pc, #20]	; (b5c <unplugged+0x18>)
bool unplugged() {
     b46:	b510      	push	{r4, lr}
    if (sample.voltage.batFloat < 3.5) {
     b48:	68d8      	ldr	r0, [r3, #12]
     b4a:	4905      	ldr	r1, [pc, #20]	; (b60 <unplugged+0x1c>)
     b4c:	4b05      	ldr	r3, [pc, #20]	; (b64 <unplugged+0x20>)
     b4e:	2401      	movs	r4, #1
     b50:	4798      	blx	r3
     b52:	2800      	cmp	r0, #0
     b54:	d100      	bne.n	b58 <unplugged+0x14>
     b56:	1c04      	adds	r4, r0, #0
     b58:	b2e0      	uxtb	r0, r4
        return true;
    } else {
        return false;
    }
}
     b5a:	bd10      	pop	{r4, pc}
     b5c:	200007c8 	.word	0x200007c8
     b60:	40600000 	.word	0x40600000
     b64:	000039cd 	.word	0x000039cd

00000b68 <finishFlight>:

void finishFlight() {
	
    flightState = flightIdle;
     b68:	2201      	movs	r2, #1
void finishFlight() {
     b6a:	b510      	push	{r4, lr}
    flightState = flightIdle;
     b6c:	4b04      	ldr	r3, [pc, #16]	; (b80 <finishFlight+0x18>)
     b6e:	701a      	strb	r2, [r3, #0]
    AT25SFHoldTillReady();
     b70:	4b04      	ldr	r3, [pc, #16]	; (b84 <finishFlight+0x1c>)
     b72:	4798      	blx	r3
    writeFlightEndAddress( );
     b74:	4b04      	ldr	r3, [pc, #16]	; (b88 <finishFlight+0x20>)
     b76:	4798      	blx	r3
    unpluggedJingle();
     b78:	4b04      	ldr	r3, [pc, #16]	; (b8c <finishFlight+0x24>)
     b7a:	4798      	blx	r3
}
     b7c:	bd10      	pop	{r4, pc}
     b7e:	46c0      	nop			; (mov r8, r8)
     b80:	20000684 	.word	0x20000684
     b84:	000001e5 	.word	0x000001e5
     b88:	000020f1 	.word	0x000020f1
     b8c:	00000ce1 	.word	0x00000ce1

00000b90 <adcInit>:
#include <util.h>

void adcInit() {

    // set up clock
    PM->APBCMASK.reg |= PM_APBCMASK_ADC;
     b90:	2380      	movs	r3, #128	; 0x80
     b92:	4a10      	ldr	r2, [pc, #64]	; (bd4 <adcInit+0x44>)
     b94:	025b      	lsls	r3, r3, #9
     b96:	6a11      	ldr	r1, [r2, #32]
    // divide prescaler by 512 (93.75KHz), max adc freq is 2.1MHz
    ADC->CTRLB.reg = ADC_CTRLB_PRESCALER_DIV512 |
                     ADC_CTRLB_RESSEL_12BIT;

    // enable clock adc channel
    GCLK->CLKCTRL.reg = GCLK_CLKCTRL_CLKEN |
     b98:	480f      	ldr	r0, [pc, #60]	; (bd8 <adcInit+0x48>)
    PM->APBCMASK.reg |= PM_APBCMASK_ADC;
     b9a:	430b      	orrs	r3, r1
    ADC->CTRLB.reg = ADC_CTRLB_PRESCALER_DIV512 |
     b9c:	21e0      	movs	r1, #224	; 0xe0
    PM->APBCMASK.reg |= PM_APBCMASK_ADC;
     b9e:	6213      	str	r3, [r2, #32]
    ADC->CTRLB.reg = ADC_CTRLB_PRESCALER_DIV512 |
     ba0:	4b0e      	ldr	r3, [pc, #56]	; (bdc <adcInit+0x4c>)
    GCLK->CLKCTRL.reg = GCLK_CLKCTRL_CLKEN |
     ba2:	4a0f      	ldr	r2, [pc, #60]	; (be0 <adcInit+0x50>)
    ADC->CTRLB.reg = ADC_CTRLB_PRESCALER_DIV512 |
     ba4:	00c9      	lsls	r1, r1, #3
     ba6:	8099      	strh	r1, [r3, #4]
    GCLK->CLKCTRL.reg = GCLK_CLKCTRL_CLKEN |
     ba8:	8050      	strh	r0, [r2, #2]
                        GCLK_CLKCTRL_GEN(0) |
                        GCLK_CLKCTRL_ID(ADC_GCLK_ID);

    ADC->CALIB.reg =
        ADC_CALIB_BIAS_CAL(
     baa:	4a0e      	ldr	r2, [pc, #56]	; (be4 <adcInit+0x54>)
     bac:	6810      	ldr	r0, [r2, #0]
     bae:	0142      	lsls	r2, r0, #5
            (*(uint32_t *)ADC_FUSES_BIASCAL_ADDR >> ADC_FUSES_BIASCAL_Pos)
        ) |
        ADC_CALIB_LINEARITY_CAL(
     bb0:	0010      	movs	r0, r2
        ADC_CALIB_BIAS_CAL(
     bb2:	4011      	ands	r1, r2
        ADC_CALIB_LINEARITY_CAL(
     bb4:	4a0c      	ldr	r2, [pc, #48]	; (be8 <adcInit+0x58>)
     bb6:	6812      	ldr	r2, [r2, #0]
     bb8:	0ed2      	lsrs	r2, r2, #27
     bba:	4302      	orrs	r2, r0
     bbc:	b2d2      	uxtb	r2, r2
        ) |
     bbe:	430a      	orrs	r2, r1
    ADC->CALIB.reg =
     bc0:	851a      	strh	r2, [r3, #40]	; 0x28
            (*(uint64_t *)ADC_FUSES_LINEARITY_0_ADDR >> ADC_FUSES_LINEARITY_0_Pos)
        );

    ADC->REFCTRL.reg = ADC_REFCTRL_REFSEL_INTVCC1;
     bc2:	2202      	movs	r2, #2
     bc4:	705a      	strb	r2, [r3, #1]

    ADC->CTRLA.reg = ADC_CTRLA_ENABLE; // enable
     bc6:	701a      	strb	r2, [r3, #0]
    while(ADC->STATUS.reg & ADC_STATUS_SYNCBUSY);
     bc8:	7e5a      	ldrb	r2, [r3, #25]
     bca:	b252      	sxtb	r2, r2
     bcc:	2a00      	cmp	r2, #0
     bce:	dbfb      	blt.n	bc8 <adcInit+0x38>
}
     bd0:	4770      	bx	lr
     bd2:	46c0      	nop			; (mov r8, r8)
     bd4:	40000400 	.word	0x40000400
     bd8:	0000401e 	.word	0x0000401e
     bdc:	42004000 	.word	0x42004000
     be0:	40000c00 	.word	0x40000c00
     be4:	00806024 	.word	0x00806024
     be8:	00806020 	.word	0x00806020

00000bec <adcSample>:



u16_t adcSample() {
    ADC->SWTRIG.reg = ADC_SWTRIG_START;
     bec:	2202      	movs	r2, #2
     bee:	4b04      	ldr	r3, [pc, #16]	; (c00 <adcSample+0x14>)
     bf0:	731a      	strb	r2, [r3, #12]
    while(!(ADC->INTFLAG.reg & ADC_INTFLAG_RESRDY)); // wait until result is ready
     bf2:	3a01      	subs	r2, #1
     bf4:	7e19      	ldrb	r1, [r3, #24]
     bf6:	4211      	tst	r1, r2
     bf8:	d0fc      	beq.n	bf4 <adcSample+0x8>
    return ADC->RESULT.reg;
     bfa:	8b58      	ldrh	r0, [r3, #26]
     bfc:	b280      	uxth	r0, r0
}
     bfe:	4770      	bx	lr
     c00:	42004000 	.word	0x42004000

00000c04 <adc_read>:


u16_t adc_read(Pin p) {
     c04:	b537      	push	{r0, r1, r2, r4, r5, lr}
     c06:	9101      	str	r1, [sp, #4]
    if (p.pin & 1) {
     c08:	2101      	movs	r1, #1
     c0a:	0c02      	lsrs	r2, r0, #16
     c0c:	9000      	str	r0, [sp, #0]
     c0e:	b2d2      	uxtb	r2, r2
     c10:	0e00      	lsrs	r0, r0, #24
     c12:	0843      	lsrs	r3, r0, #1
     c14:	01d2      	lsls	r2, r2, #7
        PORT->Group[p.group].PMUX[p.pin/2].bit.PMUXO = 0x1;
     c16:	189b      	adds	r3, r3, r2
    if (p.pin & 1) {
     c18:	4208      	tst	r0, r1
     c1a:	d01a      	beq.n	c52 <adc_read+0x4e>
        PORT->Group[p.group].PMUX[p.pin/2].bit.PMUXO = 0x1;
     c1c:	240f      	movs	r4, #15
     c1e:	4910      	ldr	r1, [pc, #64]	; (c60 <adc_read+0x5c>)
     c20:	185b      	adds	r3, r3, r1
     c22:	7819      	ldrb	r1, [r3, #0]
     c24:	400c      	ands	r4, r1
     c26:	2110      	movs	r1, #16
        PORT->Group[p.group].PMUX[p.pin/2].bit.PMUXE = 0x1;
     c28:	4321      	orrs	r1, r4
     c2a:	7019      	strb	r1, [r3, #0]
    PORT->Group[p.group].PINCFG[p.pin].bit.PMUXEN = 1;
     c2c:	4b0d      	ldr	r3, [pc, #52]	; (c64 <adc_read+0x60>)
     c2e:	1880      	adds	r0, r0, r2
     c30:	18c0      	adds	r0, r0, r3
     c32:	2301      	movs	r3, #1
     c34:	7802      	ldrb	r2, [r0, #0]
     c36:	4313      	orrs	r3, r2
     c38:	7003      	strb	r3, [r0, #0]
    // switch pin mux to analog in
    pinAnalog(p);

    ADC->INPUTCTRL.reg = (ADC_INPUTCTRL_MUXPOS(p.chan) // select from proper pin
     c3a:	466b      	mov	r3, sp
     c3c:	221f      	movs	r2, #31
     c3e:	791b      	ldrb	r3, [r3, #4]
     c40:	401a      	ands	r2, r3
                          | ADC_INPUTCTRL_MUXNEG_GND // 0 = gnd
                          | ADC_INPUTCTRL_GAIN_1X);
     c42:	23c0      	movs	r3, #192	; 0xc0
     c44:	015b      	lsls	r3, r3, #5
     c46:	4313      	orrs	r3, r2
    ADC->INPUTCTRL.reg = (ADC_INPUTCTRL_MUXPOS(p.chan) // select from proper pin
     c48:	4a07      	ldr	r2, [pc, #28]	; (c68 <adc_read+0x64>)
     c4a:	6113      	str	r3, [r2, #16]

    return adcSample();
     c4c:	4b07      	ldr	r3, [pc, #28]	; (c6c <adc_read+0x68>)
     c4e:	4798      	blx	r3
     c50:	bd3e      	pop	{r1, r2, r3, r4, r5, pc}
        PORT->Group[p.group].PMUX[p.pin/2].bit.PMUXE = 0x1;
     c52:	250f      	movs	r5, #15
     c54:	4c02      	ldr	r4, [pc, #8]	; (c60 <adc_read+0x5c>)
     c56:	191b      	adds	r3, r3, r4
     c58:	781c      	ldrb	r4, [r3, #0]
     c5a:	43ac      	bics	r4, r5
     c5c:	e7e4      	b.n	c28 <adc_read+0x24>
     c5e:	46c0      	nop			; (mov r8, r8)
     c60:	41004430 	.word	0x41004430
     c64:	41004440 	.word	0x41004440
     c68:	42004000 	.word	0x42004000
     c6c:	00000bed 	.word	0x00000bed

00000c70 <beep>:
#include <util.h>
#include <boardDefines.h>


void beep(u16_t toggles) {
     c70:	b5f8      	push	{r3, r4, r5, r6, r7, lr}
}


inline static void pinToggle(Pin p) {
    PORT->Group[p.group].OUTTGL.reg = (1<<p.pin);
     c72:	2380      	movs	r3, #128	; 0x80
     c74:	2680      	movs	r6, #128	; 0x80
     c76:	0007      	movs	r7, r0

    pinToggle(LedPin);
    for (u16_t buzz = 0; buzz < toggles; ++buzz) {
     c78:	2500      	movs	r5, #0
     c7a:	4c09      	ldr	r4, [pc, #36]	; (ca0 <beep+0x30>)
     c7c:	035b      	lsls	r3, r3, #13
     c7e:	61e3      	str	r3, [r4, #28]
     c80:	03b6      	lsls	r6, r6, #14
     c82:	42bd      	cmp	r5, r7
     c84:	d104      	bne.n	c90 <beep+0x20>
     c86:	2380      	movs	r3, #128	; 0x80
     c88:	035b      	lsls	r3, r3, #13
    PORT->Group[p.group].OUTCLR.reg = (1<<p.pin);
     c8a:	6166      	str	r6, [r4, #20]
    PORT->Group[p.group].OUTTGL.reg = (1<<p.pin);
     c8c:	61e3      	str	r3, [r4, #28]
        pinToggle(buzzerPin);
        delay_us(122);
    }
    pinLow(buzzerPin);
    pinToggle(LedPin);
}
     c8e:	bdf8      	pop	{r3, r4, r5, r6, r7, pc}
     c90:	61e6      	str	r6, [r4, #28]
        delay_us(122);
     c92:	207a      	movs	r0, #122	; 0x7a
     c94:	4b03      	ldr	r3, [pc, #12]	; (ca4 <beep+0x34>)
    for (u16_t buzz = 0; buzz < toggles; ++buzz) {
     c96:	3501      	adds	r5, #1
        delay_us(122);
     c98:	4798      	blx	r3
    for (u16_t buzz = 0; buzz < toggles; ++buzz) {
     c9a:	b2ad      	uxth	r5, r5
     c9c:	e7f1      	b.n	c82 <beep+0x12>
     c9e:	46c0      	nop			; (mov r8, r8)
     ca0:	41004400 	.word	0x41004400
     ca4:	00000ec1 	.word	0x00000ec1

00000ca8 <startupJingle>:

void startupJingle(){
     ca8:	b570      	push	{r4, r5, r6, lr}
    beep(300);
     caa:	2696      	movs	r6, #150	; 0x96
     cac:	0076      	lsls	r6, r6, #1
     cae:	4d0a      	ldr	r5, [pc, #40]	; (cd8 <startupJingle+0x30>)
     cb0:	0030      	movs	r0, r6
     cb2:	47a8      	blx	r5
    delay_ms(80);
     cb4:	4c09      	ldr	r4, [pc, #36]	; (cdc <startupJingle+0x34>)
     cb6:	2050      	movs	r0, #80	; 0x50
     cb8:	47a0      	blx	r4
    beep(300);
     cba:	0030      	movs	r0, r6
     cbc:	47a8      	blx	r5
    delay_ms(250);
     cbe:	20fa      	movs	r0, #250	; 0xfa
     cc0:	47a0      	blx	r4
    beep(300);
     cc2:	0030      	movs	r0, r6
     cc4:	47a8      	blx	r5
    delay_ms(80);
     cc6:	2050      	movs	r0, #80	; 0x50
     cc8:	47a0      	blx	r4
    beep(300);
     cca:	0030      	movs	r0, r6
     ccc:	47a8      	blx	r5
    delay_ms(500);
     cce:	20fa      	movs	r0, #250	; 0xfa
     cd0:	0040      	lsls	r0, r0, #1
     cd2:	47a0      	blx	r4
}
     cd4:	bd70      	pop	{r4, r5, r6, pc}
     cd6:	46c0      	nop			; (mov r8, r8)
     cd8:	00000c71 	.word	0x00000c71
     cdc:	00000eed 	.word	0x00000eed

00000ce0 <unpluggedJingle>:

void unpluggedJingle(){
     ce0:	b570      	push	{r4, r5, r6, lr}
            delay_ms(80);
            beep(300);
     ce2:	2696      	movs	r6, #150	; 0x96
            delay_ms(80);
     ce4:	4c0c      	ldr	r4, [pc, #48]	; (d18 <unpluggedJingle+0x38>)
            beep(300);
     ce6:	0076      	lsls	r6, r6, #1
            delay_ms(80);
     ce8:	2050      	movs	r0, #80	; 0x50
     cea:	47a0      	blx	r4
            beep(300);
     cec:	4d0b      	ldr	r5, [pc, #44]	; (d1c <unpluggedJingle+0x3c>)
     cee:	0030      	movs	r0, r6
     cf0:	47a8      	blx	r5
            delay_ms(80);
     cf2:	2050      	movs	r0, #80	; 0x50
     cf4:	47a0      	blx	r4
            beep(300);
     cf6:	0030      	movs	r0, r6
     cf8:	47a8      	blx	r5
            delay_ms(80);
     cfa:	2050      	movs	r0, #80	; 0x50
     cfc:	47a0      	blx	r4
            beep(300);
     cfe:	0030      	movs	r0, r6
     d00:	47a8      	blx	r5
            delay_ms(80);
     d02:	2050      	movs	r0, #80	; 0x50
     d04:	47a0      	blx	r4
    PORT->Group[p.group].OUTCLR.reg = (1<<p.pin);
     d06:	2280      	movs	r2, #128	; 0x80
     d08:	4b05      	ldr	r3, [pc, #20]	; (d20 <unpluggedJingle+0x40>)
     d0a:	0392      	lsls	r2, r2, #14
     d0c:	615a      	str	r2, [r3, #20]
     d0e:	2280      	movs	r2, #128	; 0x80
     d10:	0352      	lsls	r2, r2, #13
     d12:	615a      	str	r2, [r3, #20]
            pinLow(buzzerPin);
            pinLow(LedPin);

}
     d14:	bd70      	pop	{r4, r5, r6, pc}
     d16:	46c0      	nop			; (mov r8, r8)
     d18:	00000eed 	.word	0x00000eed
     d1c:	00000c71 	.word	0x00000c71
     d20:	41004400 	.word	0x41004400

00000d24 <GclkInit>:
static uint32_t cycles_per_us = 48000000UL / 1000000;

void GclkInit() {


    SYSCTRL->INTFLAG.reg = SYSCTRL_INTFLAG_BOD33RDY | SYSCTRL_INTFLAG_BOD33DET |
     d24:	23c2      	movs	r3, #194	; 0xc2
     d26:	4a16      	ldr	r2, [pc, #88]	; (d80 <GclkInit+0x5c>)
     d28:	00db      	lsls	r3, r3, #3
void GclkInit() {
     d2a:	b510      	push	{r4, lr}
    SYSCTRL->INTFLAG.reg = SYSCTRL_INTFLAG_BOD33RDY | SYSCTRL_INTFLAG_BOD33DET |
     d2c:	6093      	str	r3, [r2, #8]
                           SYSCTRL_INTFLAG_DFLLRDY;
    NVMCTRL->CTRLB.reg |= NVMCTRL_CTRLB_RWS_HALF;
     d2e:	2302      	movs	r3, #2
     d30:	4914      	ldr	r1, [pc, #80]	; (d84 <GclkInit+0x60>)
     d32:	6848      	ldr	r0, [r1, #4]
     d34:	4303      	orrs	r3, r0
     d36:	604b      	str	r3, [r1, #4]

#define NVM_DFLL_COARSE_POS    58
#define NVM_DFLL_COARSE_SIZE   6
#define NVM_DFLL_FINE_POS      64
#define NVM_DFLL_FINE_SIZE     10
    uint32_t coarse =( *((uint32_t *)(NVMCTRL_OTP4)
     d38:	4b13      	ldr	r3, [pc, #76]	; (d88 <GclkInit+0x64>)
     d3a:	681b      	ldr	r3, [r3, #0]
     d3c:	0e9b      	lsrs	r3, r3, #26
                         + (NVM_DFLL_COARSE_POS / 32))
                       >> (NVM_DFLL_COARSE_POS % 32))
                     & ((1 << NVM_DFLL_COARSE_SIZE) - 1);
    if (coarse == 0x3f) {
     d3e:	2b3f      	cmp	r3, #63	; 0x3f
     d40:	d100      	bne.n	d44 <GclkInit+0x20>
        coarse = 0x1f;
     d42:	3b20      	subs	r3, #32
    }
    uint32_t fine =( *((uint32_t *)(NVMCTRL_OTP4)
                       + (NVM_DFLL_FINE_POS / 32))
                     >> (NVM_DFLL_FINE_POS % 32))
     d44:	4911      	ldr	r1, [pc, #68]	; (d8c <GclkInit+0x68>)
                   & ((1 << NVM_DFLL_FINE_SIZE) - 1);
    if (fine == 0x3ff) {
     d46:	4812      	ldr	r0, [pc, #72]	; (d90 <GclkInit+0x6c>)
    uint32_t fine =( *((uint32_t *)(NVMCTRL_OTP4)
     d48:	6809      	ldr	r1, [r1, #0]
     d4a:	0589      	lsls	r1, r1, #22
     d4c:	0d89      	lsrs	r1, r1, #22
    if (fine == 0x3ff) {
     d4e:	4281      	cmp	r1, r0
     d50:	d100      	bne.n	d54 <GclkInit+0x30>
        fine = 0x1ff;
     d52:	4910      	ldr	r1, [pc, #64]	; (d94 <GclkInit+0x70>)
    }


    // Disable ONDEMAND mode while writing configurations (errata 9905)
    SYSCTRL->DFLLCTRL.reg = dfll_ctrl_usb & ~SYSCTRL_DFLLCTRL_ONDEMAND;
     d54:	4810      	ldr	r0, [pc, #64]	; (d98 <GclkInit+0x74>)
     d56:	8490      	strh	r0, [r2, #36]	; 0x24
    while((SYSCTRL->PCLKSR.reg & (SYSCTRL_PCLKSR_DFLLRDY)) == 0);
     d58:	2010      	movs	r0, #16
     d5a:	68d4      	ldr	r4, [r2, #12]
     d5c:	4204      	tst	r4, r0
     d5e:	d0fc      	beq.n	d5a <GclkInit+0x36>
    SYSCTRL->DFLLVAL.reg = SYSCTRL_DFLLVAL_COARSE(coarse) | SYSCTRL_DFLLVAL_FINE(fine);
     d60:	029b      	lsls	r3, r3, #10
     d62:	430b      	orrs	r3, r1
     d64:	6293      	str	r3, [r2, #40]	; 0x28


    //Wait and see if the DFLL output is good . . .
    while((SYSCTRL->PCLKSR.reg & (SYSCTRL_PCLKSR_DFLLRDY)) == 0);
     d66:	2310      	movs	r3, #16
     d68:	68d1      	ldr	r1, [r2, #12]
     d6a:	4219      	tst	r1, r3
     d6c:	d0fc      	beq.n	d68 <GclkInit+0x44>


    SYSCTRL->DFLLCTRL.reg = dfll_ctrl_usb;
     d6e:	4b0b      	ldr	r3, [pc, #44]	; (d9c <GclkInit+0x78>)
     d70:	8493      	strh	r3, [r2, #36]	; 0x24


    //For generic clock generator 0, select the DFLL48 Clock as input
    GCLK->GENDIV.reg  = (GCLK_GENDIV_DIV(1)  | GCLK_GENDIV_ID(0));
     d72:	2280      	movs	r2, #128	; 0x80
     d74:	4b0a      	ldr	r3, [pc, #40]	; (da0 <GclkInit+0x7c>)
     d76:	0052      	lsls	r2, r2, #1
     d78:	609a      	str	r2, [r3, #8]
    GCLK->GENCTRL.reg = (GCLK_GENCTRL_ID(0)  | (GCLK_GENCTRL_SRC_DFLL48M) | (GCLK_GENCTRL_GENEN));
     d7a:	4a0a      	ldr	r2, [pc, #40]	; (da4 <GclkInit+0x80>)
     d7c:	605a      	str	r2, [r3, #4]
}
     d7e:	bd10      	pop	{r4, pc}
     d80:	40000800 	.word	0x40000800
     d84:	41004000 	.word	0x41004000
     d88:	00806024 	.word	0x00806024
     d8c:	00806028 	.word	0x00806028
     d90:	000003ff 	.word	0x000003ff
     d94:	000001ff 	.word	0x000001ff
     d98:	00000522 	.word	0x00000522
     d9c:	000005a2 	.word	0x000005a2
     da0:	40000c00 	.word	0x40000c00
     da4:	00010700 	.word	0x00010700

00000da8 <RtcInit>:
        //wait for crystal to warm up
        while((SYSCTRL->PCLKSR.reg & (SYSCTRL_PCLKSR_OSC32KRDY)) == 0);

    */

    SYSCTRL->OSC32K.reg = SYSCTRL_OSC32K_ENABLE |
     da8:	4b25      	ldr	r3, [pc, #148]	; (e40 <RtcInit+0x98>)
     daa:	4a26      	ldr	r2, [pc, #152]	; (e44 <RtcInit+0x9c>)
void RtcInit() {
     dac:	b510      	push	{r4, lr}
    SYSCTRL->OSC32K.reg = SYSCTRL_OSC32K_ENABLE |
     dae:	619a      	str	r2, [r3, #24]
                          SYSCTRL_OSC32K_EN32K |
                          ( 6 << SYSCTRL_OSC32K_STARTUP_Pos);


    SYSCTRL->OSC32K.bit.CALIB =
        ((*(uint32_t *)FUSES_OSC32K_CAL_ADDR >>
     db0:	4a25      	ldr	r2, [pc, #148]	; (e48 <RtcInit+0xa0>)
    SYSCTRL->OSC32K.bit.CALIB =
     db2:	6998      	ldr	r0, [r3, #24]
        ((*(uint32_t *)FUSES_OSC32K_CAL_ADDR >>
     db4:	6812      	ldr	r2, [r2, #0]
    SYSCTRL->OSC32K.bit.CALIB =
     db6:	4c25      	ldr	r4, [pc, #148]	; (e4c <RtcInit+0xa4>)
     db8:	04d2      	lsls	r2, r2, #19
     dba:	0e52      	lsrs	r2, r2, #25
     dbc:	0412      	lsls	r2, r2, #16
          FUSES_OSC32K_CAL_Pos) & 0x7Ful);

    SYSCTRL->OSC32K.reg = SYSCTRL_OSC32K_STARTUP( 0x6u ) | // cf table 15.10 of product datasheet in chapter 15.8.6
     dbe:	4924      	ldr	r1, [pc, #144]	; (e50 <RtcInit+0xa8>)
    SYSCTRL->OSC32K.bit.CALIB =
     dc0:	4020      	ands	r0, r4
     dc2:	4310      	orrs	r0, r2
     dc4:	6198      	str	r0, [r3, #24]
    SYSCTRL->OSC32K.reg = SYSCTRL_OSC32K_STARTUP( 0x6u ) | // cf table 15.10 of product datasheet in chapter 15.8.6
     dc6:	6199      	str	r1, [r3, #24]
                          SYSCTRL_OSC32K_EN32K;
    SYSCTRL->OSC32K.bit.CALIB =
     dc8:	6999      	ldr	r1, [r3, #24]
     dca:	4021      	ands	r1, r4
     dcc:	430a      	orrs	r2, r1
     dce:	619a      	str	r2, [r3, #24]
        ((*(uint32_t *)FUSES_OSC32K_CAL_ADDR >>
          FUSES_OSC32K_CAL_Pos) & 0x7Ful);



    SYSCTRL->OSC32K.bit.ENABLE = 1; // separate call, as described in chapter 15.6.3
     dd0:	2202      	movs	r2, #2
     dd2:	6999      	ldr	r1, [r3, #24]
     dd4:	430a      	orrs	r2, r1
     dd6:	619a      	str	r2, [r3, #24]

    while (  (SYSCTRL->PCLKSR.reg & SYSCTRL_PCLKSR_OSC32KRDY) == 0 ) {
     dd8:	2204      	movs	r2, #4
     dda:	68d9      	ldr	r1, [r3, #12]
     ddc:	4211      	tst	r1, r2
     dde:	d0fc      	beq.n	dda <RtcInit+0x32>





    GCLK->GENDIV.reg = GCLK_GENDIV_ID(2) | GCLK_GENDIV_DIV(1);
     de0:	2281      	movs	r2, #129	; 0x81
     de2:	4b1c      	ldr	r3, [pc, #112]	; (e54 <RtcInit+0xac>)
     de4:	0052      	lsls	r2, r2, #1
     de6:	609a      	str	r2, [r3, #8]

    GCLK->GENCTRL.reg = GCLK_GENCTRL_ID(2) |
     de8:	4a1b      	ldr	r2, [pc, #108]	; (e58 <RtcInit+0xb0>)
     dea:	605a      	str	r2, [r3, #4]
                        GCLK_GENCTRL_SRC(GCLK_GENCTRL_SRC_OSC32K) |
                        GCLK_GENCTRL_IDC |
                        GCLK_GENCTRL_RUNSTDBY |
                        GCLK_GENCTRL_GENEN;
    while (GCLK->STATUS.reg & GCLK_STATUS_SYNCBUSY);
     dec:	785a      	ldrb	r2, [r3, #1]
     dee:	b252      	sxtb	r2, r2
     df0:	2a00      	cmp	r2, #0
     df2:	dbfb      	blt.n	dec <RtcInit+0x44>

// Configure RTC
    GCLK->CLKCTRL.reg = GCLK_CLKCTRL_ID(RTC_GCLK_ID) |
     df4:	4a19      	ldr	r2, [pc, #100]	; (e5c <RtcInit+0xb4>)
     df6:	805a      	strh	r2, [r3, #2]
                        GCLK_CLKCTRL_CLKEN |
                        GCLK_CLKCTRL_GEN(2);

    RTC->MODE1.CTRL.reg = RTC_MODE1_CTRL_MODE_COUNT16;
     df8:	2204      	movs	r2, #4
     dfa:	4b19      	ldr	r3, [pc, #100]	; (e60 <RtcInit+0xb8>)
     dfc:	801a      	strh	r2, [r3, #0]
    while (RTC->MODE1.STATUS.bit.SYNCBUSY);
     dfe:	7a9a      	ldrb	r2, [r3, #10]
     e00:	09d2      	lsrs	r2, r2, #7
     e02:	d1fc      	bne.n	dfe <RtcInit+0x56>

// Prescaler needs to be enabled separately from the mode for some reason
    RTC->MODE1.CTRL.reg |= RTC_MODE1_CTRL_PRESCALER_DIV32;
     e04:	22a0      	movs	r2, #160	; 0xa0
     e06:	8819      	ldrh	r1, [r3, #0]
     e08:	00d2      	lsls	r2, r2, #3
     e0a:	430a      	orrs	r2, r1
     e0c:	801a      	strh	r2, [r3, #0]
    while (RTC->MODE1.STATUS.bit.SYNCBUSY);
     e0e:	7a9a      	ldrb	r2, [r3, #10]
     e10:	09d2      	lsrs	r2, r2, #7
     e12:	d1fc      	bne.n	e0e <RtcInit+0x66>

    RTC->MODE1.PER.reg = 998;
     e14:	4a13      	ldr	r2, [pc, #76]	; (e64 <RtcInit+0xbc>)
     e16:	829a      	strh	r2, [r3, #20]
    while (RTC->MODE1.STATUS.bit.SYNCBUSY);
     e18:	7a9a      	ldrb	r2, [r3, #10]
     e1a:	09d2      	lsrs	r2, r2, #7
     e1c:	d1fc      	bne.n	e18 <RtcInit+0x70>

    RTC->MODE1.READREQ.reg |= RTC_READREQ_RCONT | RTC_READREQ_ADDR(0x10);
     e1e:	8859      	ldrh	r1, [r3, #2]
     e20:	4a11      	ldr	r2, [pc, #68]	; (e68 <RtcInit+0xc0>)
     e22:	430a      	orrs	r2, r1
     e24:	805a      	strh	r2, [r3, #2]

    RTC->MODE1.INTENSET.reg = RTC_MODE1_INTENSET_OVF;
     e26:	2280      	movs	r2, #128	; 0x80
     e28:	71da      	strb	r2, [r3, #7]

    RTC->MODE1.CTRL.bit.ENABLE = 1;
     e2a:	8819      	ldrh	r1, [r3, #0]
     e2c:	3a7e      	subs	r2, #126	; 0x7e
     e2e:	430a      	orrs	r2, r1
     e30:	801a      	strh	r2, [r3, #0]
    while (RTC->MODE1.STATUS.bit.SYNCBUSY);
     e32:	7a9a      	ldrb	r2, [r3, #10]
     e34:	09d2      	lsrs	r2, r2, #7
     e36:	d1fc      	bne.n	e32 <RtcInit+0x8a>
  NVIC->ISER[0] = (1 << ((uint32_t)(IRQn) & 0x1F));
     e38:	4b0c      	ldr	r3, [pc, #48]	; (e6c <RtcInit+0xc4>)
     e3a:	3208      	adds	r2, #8
     e3c:	601a      	str	r2, [r3, #0]

    NVIC_EnableIRQ(RTC_IRQn);
}
     e3e:	bd10      	pop	{r4, pc}
     e40:	40000800 	.word	0x40000800
     e44:	00000606 	.word	0x00000606
     e48:	00806024 	.word	0x00806024
     e4c:	ff80ffff 	.word	0xff80ffff
     e50:	00000604 	.word	0x00000604
     e54:	40000c00 	.word	0x40000c00
     e58:	00230002 	.word	0x00230002
     e5c:	00004204 	.word	0x00004204
     e60:	40001400 	.word	0x40001400
     e64:	000003e6 	.word	0x000003e6
     e68:	00004010 	.word	0x00004010
     e6c:	e000e100 	.word	0xe000e100

00000e70 <gclkEnable>:


void gclkEnable(u32_t id, u32_t src, u32_t div) {
    GCLK->GENDIV.reg = GCLK_GENDIV_ID(id) | GCLK_GENDIV_DIV(div);
     e70:	230f      	movs	r3, #15
     e72:	4003      	ands	r3, r0
     e74:	4808      	ldr	r0, [pc, #32]	; (e98 <gclkEnable+0x28>)
     e76:	0212      	lsls	r2, r2, #8
     e78:	4002      	ands	r2, r0
    GCLK->GENCTRL.reg = GCLK_GENCTRL_ID(id) | GCLK_GENCTRL_GENEN | GCLK_GENCTRL_SRC(src);
     e7a:	20f8      	movs	r0, #248	; 0xf8
     e7c:	0209      	lsls	r1, r1, #8
     e7e:	0140      	lsls	r0, r0, #5
     e80:	4001      	ands	r1, r0
     e82:	2080      	movs	r0, #128	; 0x80
void gclkEnable(u32_t id, u32_t src, u32_t div) {
     e84:	b510      	push	{r4, lr}
    GCLK->GENCTRL.reg = GCLK_GENCTRL_ID(id) | GCLK_GENCTRL_GENEN | GCLK_GENCTRL_SRC(src);
     e86:	0240      	lsls	r0, r0, #9
    GCLK->GENDIV.reg = GCLK_GENDIV_ID(id) | GCLK_GENDIV_DIV(div);
     e88:	4c04      	ldr	r4, [pc, #16]	; (e9c <gclkEnable+0x2c>)
    GCLK->GENCTRL.reg = GCLK_GENCTRL_ID(id) | GCLK_GENCTRL_GENEN | GCLK_GENCTRL_SRC(src);
     e8a:	4308      	orrs	r0, r1
    GCLK->GENDIV.reg = GCLK_GENDIV_ID(id) | GCLK_GENDIV_DIV(div);
     e8c:	431a      	orrs	r2, r3
    GCLK->GENCTRL.reg = GCLK_GENCTRL_ID(id) | GCLK_GENCTRL_GENEN | GCLK_GENCTRL_SRC(src);
     e8e:	4318      	orrs	r0, r3
    GCLK->GENDIV.reg = GCLK_GENDIV_ID(id) | GCLK_GENDIV_DIV(div);
     e90:	60a2      	str	r2, [r4, #8]
    GCLK->GENCTRL.reg = GCLK_GENCTRL_ID(id) | GCLK_GENCTRL_GENEN | GCLK_GENCTRL_SRC(src);
     e92:	6060      	str	r0, [r4, #4]
}
     e94:	bd10      	pop	{r4, pc}
     e96:	46c0      	nop			; (mov r8, r8)
     e98:	00ffff00 	.word	0x00ffff00
     e9c:	40000c00 	.word	0x40000c00

00000ea0 <delayInit>:


void delayInit(void) {
    cycles_per_ms = 48000000UL;
    cycles_per_ms /= 1000;
     ea0:	4b04      	ldr	r3, [pc, #16]	; (eb4 <delayInit+0x14>)
     ea2:	4a05      	ldr	r2, [pc, #20]	; (eb8 <delayInit+0x18>)
     ea4:	601a      	str	r2, [r3, #0]
    cycles_per_us = cycles_per_ms / 1000;
     ea6:	2230      	movs	r2, #48	; 0x30
     ea8:	605a      	str	r2, [r3, #4]

    SysTick->CTRL = SysTick_CTRL_CLKSOURCE_Msk | SysTick_CTRL_ENABLE_Msk;
     eaa:	4b04      	ldr	r3, [pc, #16]	; (ebc <delayInit+0x1c>)
     eac:	3a2b      	subs	r2, #43	; 0x2b
     eae:	601a      	str	r2, [r3, #0]
}
     eb0:	4770      	bx	lr
     eb2:	46c0      	nop			; (mov r8, r8)
     eb4:	20000004 	.word	0x20000004
     eb8:	0000bb80 	.word	0x0000bb80
     ebc:	e000e010 	.word	0xe000e010

00000ec0 <delay_us>:
/**
 * \brief Delay loop to delay at least n number of microseconds
 *
 * \param n  Number of microseconds to wait
 */
void delay_us(uint32_t n) {
     ec0:	b530      	push	{r4, r5, lr}
    const uint32_t n) {
    if (n > 0) {
        SysTick->LOAD = n;
        SysTick->VAL = 0;

        while (!(SysTick->CTRL & SysTick_CTRL_COUNTFLAG_Msk)) {
     ec2:	2480      	movs	r4, #128	; 0x80
        SysTick->VAL = 0;
     ec4:	2100      	movs	r1, #0
    while (n--) {
        /* Devide up to blocks of 10u */
        delay_cycles(cycles_per_us);
     ec6:	4b07      	ldr	r3, [pc, #28]	; (ee4 <delay_us+0x24>)
        while (!(SysTick->CTRL & SysTick_CTRL_COUNTFLAG_Msk)) {
     ec8:	0264      	lsls	r4, r4, #9
     eca:	685a      	ldr	r2, [r3, #4]
        SysTick->LOAD = n;
     ecc:	4b06      	ldr	r3, [pc, #24]	; (ee8 <delay_us+0x28>)
    while (n--) {
     ece:	3801      	subs	r0, #1
     ed0:	d200      	bcs.n	ed4 <delay_us+0x14>
    }
}
     ed2:	bd30      	pop	{r4, r5, pc}
    if (n > 0) {
     ed4:	2a00      	cmp	r2, #0
     ed6:	d0fa      	beq.n	ece <delay_us+0xe>
        SysTick->LOAD = n;
     ed8:	605a      	str	r2, [r3, #4]
        SysTick->VAL = 0;
     eda:	6099      	str	r1, [r3, #8]
        while (!(SysTick->CTRL & SysTick_CTRL_COUNTFLAG_Msk)) {
     edc:	681d      	ldr	r5, [r3, #0]
     ede:	4225      	tst	r5, r4
     ee0:	d0fc      	beq.n	edc <delay_us+0x1c>
     ee2:	e7f4      	b.n	ece <delay_us+0xe>
     ee4:	20000004 	.word	0x20000004
     ee8:	e000e010 	.word	0xe000e010

00000eec <delay_ms>:
/**
 * \brief Delay loop to delay at least n number of milliseconds
 *
 * \param n  Number of milliseconds to wait
 */
void delay_ms(uint32_t n) {
     eec:	b530      	push	{r4, r5, lr}
     eee:	2480      	movs	r4, #128	; 0x80
        SysTick->VAL = 0;
     ef0:	2100      	movs	r1, #0
    while (n--) {
        /* Devide up to blocks of 1ms */
        delay_cycles(cycles_per_ms);
     ef2:	4b07      	ldr	r3, [pc, #28]	; (f10 <delay_ms+0x24>)
        while (!(SysTick->CTRL & SysTick_CTRL_COUNTFLAG_Msk)) {
     ef4:	0264      	lsls	r4, r4, #9
     ef6:	681a      	ldr	r2, [r3, #0]
        SysTick->LOAD = n;
     ef8:	4b06      	ldr	r3, [pc, #24]	; (f14 <delay_ms+0x28>)
    while (n--) {
     efa:	3801      	subs	r0, #1
     efc:	d200      	bcs.n	f00 <delay_ms+0x14>
    }
}
     efe:	bd30      	pop	{r4, r5, pc}
    if (n > 0) {
     f00:	2a00      	cmp	r2, #0
     f02:	d0fa      	beq.n	efa <delay_ms+0xe>
        SysTick->LOAD = n;
     f04:	605a      	str	r2, [r3, #4]
        SysTick->VAL = 0;
     f06:	6099      	str	r1, [r3, #8]
        while (!(SysTick->CTRL & SysTick_CTRL_COUNTFLAG_Msk)) {
     f08:	681d      	ldr	r5, [r3, #0]
     f0a:	4225      	tst	r5, r4
     f0c:	d0fc      	beq.n	f08 <delay_ms+0x1c>
     f0e:	e7f4      	b.n	efa <delay_ms+0xe>
     f10:	20000004 	.word	0x20000004
     f14:	e000e010 	.word	0xe000e010

00000f18 <RTC_Handler>:


volatile uint32_t time_ms = 0;

void RTC_Handler(void) {
    time_ms += 1000;
     f18:	21fa      	movs	r1, #250	; 0xfa
     f1a:	4a04      	ldr	r2, [pc, #16]	; (f2c <RTC_Handler+0x14>)
     f1c:	0089      	lsls	r1, r1, #2
     f1e:	6813      	ldr	r3, [r2, #0]
     f20:	185b      	adds	r3, r3, r1
     f22:	6013      	str	r3, [r2, #0]
    RTC->MODE1.INTFLAG.reg = 0xFF;
     f24:	22ff      	movs	r2, #255	; 0xff
     f26:	4b02      	ldr	r3, [pc, #8]	; (f30 <RTC_Handler+0x18>)
     f28:	721a      	strb	r2, [r3, #8]
}
     f2a:	4770      	bx	lr
     f2c:	200004bc 	.word	0x200004bc
     f30:	40001400 	.word	0x40001400

00000f34 <millis>:

uint32_t millis(void) {
     f34:	b530      	push	{r4, r5, lr}
    uint32_t ms;
    ATOMIC_SECTION_ENTER
     f36:	f3ef 8110 	mrs	r1, PRIMASK
     f3a:	b672      	cpsid	i
    ms = time_ms + RTC->MODE1.COUNT.reg;
     f3c:	4b09      	ldr	r3, [pc, #36]	; (f64 <millis+0x30>)
     f3e:	4c0a      	ldr	r4, [pc, #40]	; (f68 <millis+0x34>)
     f40:	8a18      	ldrh	r0, [r3, #16]
     f42:	6825      	ldr	r5, [r4, #0]
    if (RTC->MODE1.INTFLAG.bit.OVF)
     f44:	7a1a      	ldrb	r2, [r3, #8]
    ms = time_ms + RTC->MODE1.COUNT.reg;
     f46:	b280      	uxth	r0, r0
    if (RTC->MODE1.INTFLAG.bit.OVF)
     f48:	09d2      	lsrs	r2, r2, #7
    ms = time_ms + RTC->MODE1.COUNT.reg;
     f4a:	1940      	adds	r0, r0, r5
    if (RTC->MODE1.INTFLAG.bit.OVF)
     f4c:	2a00      	cmp	r2, #0
     f4e:	d005      	beq.n	f5c <millis+0x28>
        ms = time_ms + RTC->MODE1.COUNT.reg + 1000;
     f50:	22fa      	movs	r2, #250	; 0xfa
     f52:	8a1b      	ldrh	r3, [r3, #16]
     f54:	6820      	ldr	r0, [r4, #0]
     f56:	0092      	lsls	r2, r2, #2
     f58:	1880      	adds	r0, r0, r2
     f5a:	18c0      	adds	r0, r0, r3
    ATOMIC_SECTION_LEAVE
     f5c:	f381 8810 	msr	PRIMASK, r1
    return ms;
}
     f60:	bd30      	pop	{r4, r5, pc}
     f62:	46c0      	nop			; (mov r8, r8)
     f64:	40001400 	.word	0x40001400
     f68:	200004bc 	.word	0x200004bc

00000f6c <TC4Init>:

void TC4Init() {

    GCLK->CLKCTRL.reg = GCLK_CLKCTRL_ID(TC4_GCLK_ID) |
     f6c:	4a0d      	ldr	r2, [pc, #52]	; (fa4 <TC4Init+0x38>)
     f6e:	4b0e      	ldr	r3, [pc, #56]	; (fa8 <TC4Init+0x3c>)
     f70:	805a      	strh	r2, [r3, #2]
                        GCLK_CLKCTRL_CLKEN |
                        GCLK_CLKCTRL_GEN(2);

    PM->APBCMASK.reg |= PM_APBCMASK_TC4;
     f72:	2380      	movs	r3, #128	; 0x80
     f74:	4a0d      	ldr	r2, [pc, #52]	; (fac <TC4Init+0x40>)
     f76:	015b      	lsls	r3, r3, #5
     f78:	6a11      	ldr	r1, [r2, #32]
     f7a:	430b      	orrs	r3, r1
     f7c:	6213      	str	r3, [r2, #32]

    TC4->COUNT8.CTRLA.reg = TC_CTRLA_MODE_COUNT8 |
     f7e:	4b0c      	ldr	r3, [pc, #48]	; (fb0 <TC4Init+0x44>)
     f80:	4a0c      	ldr	r2, [pc, #48]	; (fb4 <TC4Init+0x48>)
     f82:	801a      	strh	r2, [r3, #0]
                            TC_CTRLA_RUNSTDBY |
                            TC_CTRLA_PRESCALER_DIV2;
    TC4->COUNT8.PER.reg = 0x50;
     f84:	2250      	movs	r2, #80	; 0x50
     f86:	751a      	strb	r2, [r3, #20]

    TC4->COUNT8.INTENSET.reg = TC_INTENSET_OVF;
     f88:	3a4f      	subs	r2, #79	; 0x4f
     f8a:	735a      	strb	r2, [r3, #13]

    TC4->COUNT8.EVCTRL.reg = TC_EVCTRL_OVFEO;
     f8c:	32ff      	adds	r2, #255	; 0xff
     f8e:	815a      	strh	r2, [r3, #10]

    TC4->COUNT8.CTRLA.reg |= TC_CTRLA_ENABLE;
     f90:	8819      	ldrh	r1, [r3, #0]
     f92:	3afe      	subs	r2, #254	; 0xfe
     f94:	430a      	orrs	r2, r1
     f96:	801a      	strh	r2, [r3, #0]
     f98:	2280      	movs	r2, #128	; 0x80
     f9a:	4b07      	ldr	r3, [pc, #28]	; (fb8 <TC4Init+0x4c>)
     f9c:	0312      	lsls	r2, r2, #12
     f9e:	601a      	str	r2, [r3, #0]

    NVIC_EnableIRQ(TC4_IRQn);
}
     fa0:	4770      	bx	lr
     fa2:	46c0      	nop			; (mov r8, r8)
     fa4:	0000421c 	.word	0x0000421c
     fa8:	40000c00 	.word	0x40000c00
     fac:	40000400 	.word	0x40000400
     fb0:	42003000 	.word	0x42003000
     fb4:	00000904 	.word	0x00000904
     fb8:	e000e100 	.word	0xe000e100

00000fbc <TC4_Handler>:

void TC4_Handler( void ) {
    TC4->COUNT8.INTFLAG.reg = 0xFF;
     fbc:	22ff      	movs	r2, #255	; 0xff
void TC4_Handler( void ) {
     fbe:	b510      	push	{r4, lr}
    TC4->COUNT8.INTFLAG.reg = 0xFF;
     fc0:	4b02      	ldr	r3, [pc, #8]	; (fcc <TC4_Handler+0x10>)
     fc2:	739a      	strb	r2, [r3, #14]
    //pinToggle(TxPo);
    pullSample();
     fc4:	4b02      	ldr	r3, [pc, #8]	; (fd0 <TC4_Handler+0x14>)
     fc6:	4798      	blx	r3
}
     fc8:	bd10      	pop	{r4, pc}
     fca:	46c0      	nop			; (mov r8, r8)
     fcc:	42003000 	.word	0x42003000
     fd0:	000021f1 	.word	0x000021f1

00000fd4 <TC5Init>:

void TC5Init() {

    GCLK->CLKCTRL.reg = GCLK_CLKCTRL_ID(TC5_GCLK_ID) |
     fd4:	4a0d      	ldr	r2, [pc, #52]	; (100c <TC5Init+0x38>)
     fd6:	4b0e      	ldr	r3, [pc, #56]	; (1010 <TC5Init+0x3c>)
     fd8:	805a      	strh	r2, [r3, #2]
                        GCLK_CLKCTRL_CLKEN |
                        GCLK_CLKCTRL_GEN(2);

    PM->APBCMASK.reg |= PM_APBCMASK_TC5;
     fda:	2380      	movs	r3, #128	; 0x80
     fdc:	4a0d      	ldr	r2, [pc, #52]	; (1014 <TC5Init+0x40>)
     fde:	019b      	lsls	r3, r3, #6
     fe0:	6a11      	ldr	r1, [r2, #32]
     fe2:	430b      	orrs	r3, r1
     fe4:	6213      	str	r3, [r2, #32]

    TC5->COUNT8.CTRLA.reg = TC_CTRLA_MODE_COUNT8 |
     fe6:	4b0c      	ldr	r3, [pc, #48]	; (1018 <TC5Init+0x44>)
     fe8:	4a0c      	ldr	r2, [pc, #48]	; (101c <TC5Init+0x48>)
     fea:	801a      	strh	r2, [r3, #0]
                            TC_CTRLA_PRESCALER_DIV16;

    u16_t logSpeed = 20; //Hz
    u8_t PER_Reg = (long)((32768/16) / logSpeed);

    TC5->COUNT8.PER.reg = PER_Reg;
     fec:	2266      	movs	r2, #102	; 0x66
     fee:	751a      	strb	r2, [r3, #20]

    TC5->COUNT8.INTENSET.reg = TC_INTENSET_OVF;
     ff0:	3a65      	subs	r2, #101	; 0x65
     ff2:	735a      	strb	r2, [r3, #13]

    TC5->COUNT8.EVCTRL.reg = TC_EVCTRL_OVFEO;
     ff4:	32ff      	adds	r2, #255	; 0xff
     ff6:	815a      	strh	r2, [r3, #10]

    TC5->COUNT8.CTRLA.reg |= TC_CTRLA_ENABLE;
     ff8:	8819      	ldrh	r1, [r3, #0]
     ffa:	3afe      	subs	r2, #254	; 0xfe
     ffc:	430a      	orrs	r2, r1
     ffe:	801a      	strh	r2, [r3, #0]
    1000:	2280      	movs	r2, #128	; 0x80
    1002:	4b07      	ldr	r3, [pc, #28]	; (1020 <TC5Init+0x4c>)
    1004:	0352      	lsls	r2, r2, #13
    1006:	601a      	str	r2, [r3, #0]

    NVIC_EnableIRQ(TC5_IRQn);
}
    1008:	4770      	bx	lr
    100a:	46c0      	nop			; (mov r8, r8)
    100c:	0000421c 	.word	0x0000421c
    1010:	40000c00 	.word	0x40000c00
    1014:	40000400 	.word	0x40000400
    1018:	42003400 	.word	0x42003400
    101c:	00000c04 	.word	0x00000c04
    1020:	e000e100 	.word	0xe000e100

00001024 <TC5_Handler>:

void TC5_Handler( void ) {
    TC5->COUNT8.INTFLAG.reg = 0xFF;
    1024:	22ff      	movs	r2, #255	; 0xff
    1026:	4b03      	ldr	r3, [pc, #12]	; (1034 <TC5_Handler+0x10>)
    1028:	739a      	strb	r2, [r3, #14]
    

    writeLog = true;
    102a:	4b03      	ldr	r3, [pc, #12]	; (1038 <TC5_Handler+0x14>)
    102c:	3afe      	subs	r2, #254	; 0xfe
    102e:	701a      	strb	r2, [r3, #0]
}
    1030:	4770      	bx	lr
    1032:	46c0      	nop			; (mov r8, r8)
    1034:	42003400 	.word	0x42003400
    1038:	20000520 	.word	0x20000520

0000103c <flight>:
#include <boardDefines.h>

flightState_t flightState;


void flight() {
    103c:	b570      	push	{r4, r5, r6, lr}


    switch(flightState) {
    103e:	4c5e      	ldr	r4, [pc, #376]	; (11b8 <flight+0x17c>)
    1040:	7820      	ldrb	r0, [r4, #0]
    1042:	280a      	cmp	r0, #10
    1044:	d819      	bhi.n	107a <flight+0x3e>
    1046:	f002 fc67 	bl	3918 <__gnu_thumb1_case_uqi>
    104a:	3106      	.short	0x3106
    104c:	18186142 	.word	0x18186142
    1050:	1818188e 	.word	0x1818188e
    1054:	a3          	.byte	0xa3
    1055:	00          	.byte	0x00
    case flightStatrup:


        updateGround( );
    1056:	4b59      	ldr	r3, [pc, #356]	; (11bc <flight+0x180>)
    1058:	4798      	blx	r3

        //logSensors( );


        if ((millis() - startupTick) > 10000) {
    105a:	4b59      	ldr	r3, [pc, #356]	; (11c0 <flight+0x184>)
    105c:	4798      	blx	r3
    105e:	4b59      	ldr	r3, [pc, #356]	; (11c4 <flight+0x188>)
    1060:	681b      	ldr	r3, [r3, #0]
    1062:	1ac0      	subs	r0, r0, r3
    1064:	4b58      	ldr	r3, [pc, #352]	; (11c8 <flight+0x18c>)
    1066:	4298      	cmp	r0, r3
    1068:	d915      	bls.n	1096 <flight+0x5a>
            findNewFlightStart( );
    106a:	4b58      	ldr	r3, [pc, #352]	; (11cc <flight+0x190>)
    106c:	4798      	blx	r3
            logFlight( );
    106e:	4b58      	ldr	r3, [pc, #352]	; (11d0 <flight+0x194>)
    1070:	4798      	blx	r3
            startupJingle();
    1072:	4b58      	ldr	r3, [pc, #352]	; (11d4 <flight+0x198>)
    1074:	4798      	blx	r3
            flightState = flightTest;
    1076:	230a      	movs	r3, #10
    1078:	7023      	strb	r3, [r4, #0]


        break;
    }

    if (flightState != flightStatrup & flightState != flightIdle & unplugged()) {
    107a:	7823      	ldrb	r3, [r4, #0]
    107c:	2401      	movs	r4, #1
    107e:	429c      	cmp	r4, r3
    1080:	41a4      	sbcs	r4, r4
    1082:	4b55      	ldr	r3, [pc, #340]	; (11d8 <flight+0x19c>)
    1084:	4264      	negs	r4, r4
    1086:	4798      	blx	r3
    1088:	2c00      	cmp	r4, #0
    108a:	d003      	beq.n	1094 <flight+0x58>
    108c:	2800      	cmp	r0, #0
    108e:	d001      	beq.n	1094 <flight+0x58>
        finishFlight();
    1090:	4b52      	ldr	r3, [pc, #328]	; (11dc <flight+0x1a0>)
    1092:	4798      	blx	r3
    }


}
    1094:	bd70      	pop	{r4, r5, r6, pc}
        attemptConnection();
    1096:	4b52      	ldr	r3, [pc, #328]	; (11e0 <flight+0x1a4>)
    1098:	4798      	blx	r3
        if (unplugged()) {
    109a:	4b4f      	ldr	r3, [pc, #316]	; (11d8 <flight+0x19c>)
    109c:	4798      	blx	r3
    109e:	2800      	cmp	r0, #0
    10a0:	d0eb      	beq.n	107a <flight+0x3e>
            flightState = flightIdle;
    10a2:	2301      	movs	r3, #1
    10a4:	7023      	strb	r3, [r4, #0]
            unpluggedJingle();
    10a6:	4b4f      	ldr	r3, [pc, #316]	; (11e4 <flight+0x1a8>)
    10a8:	4798      	blx	r3
    10aa:	e7e6      	b.n	107a <flight+0x3e>
        if (sercom(USART3)->SPI.INTFLAG.bit.RXC == 1) {
    10ac:	4b4e      	ldr	r3, [pc, #312]	; (11e8 <flight+0x1ac>)
    10ae:	7e1b      	ldrb	r3, [r3, #24]
    10b0:	075b      	lsls	r3, r3, #29
    10b2:	d57d      	bpl.n	11b0 <flight+0x174>
            u8_t possibleReset = usartDataIn(USART3);
    10b4:	2003      	movs	r0, #3
    10b6:	4b4d      	ldr	r3, [pc, #308]	; (11ec <flight+0x1b0>)
    10b8:	4798      	blx	r3
            if (possibleReset == 0x52) {
    10ba:	2852      	cmp	r0, #82	; 0x52
    10bc:	d1dd      	bne.n	107a <flight+0x3e>
    This function acts as a special kind of Data Memory Barrier.
    It completes when all explicit memory accesses before this instruction complete.
 */
__attribute__( ( always_inline ) ) __STATIC_INLINE void __DSB(void)
{
  __ASM volatile ("dsb");
    10be:	f3bf 8f4f 	dsb	sy
 */
__STATIC_INLINE void NVIC_SystemReset(void)
{
  __DSB();                                                     /* Ensure all outstanding memory accesses included
                                                                  buffered write are completed before reset */
  SCB->AIRCR  = ((0x5FA << SCB_AIRCR_VECTKEY_Pos)      |
    10c2:	4a4b      	ldr	r2, [pc, #300]	; (11f0 <flight+0x1b4>)
    10c4:	4b4b      	ldr	r3, [pc, #300]	; (11f4 <flight+0x1b8>)
    10c6:	60da      	str	r2, [r3, #12]
    10c8:	f3bf 8f4f 	dsb	sy
    10cc:	e7fe      	b.n	10cc <flight+0x90>
        updateGround();
    10ce:	4b3b      	ldr	r3, [pc, #236]	; (11bc <flight+0x180>)
    10d0:	4798      	blx	r3
        if (writeLog) {
    10d2:	4b49      	ldr	r3, [pc, #292]	; (11f8 <flight+0x1bc>)
    10d4:	781a      	ldrb	r2, [r3, #0]
    10d6:	2a00      	cmp	r2, #0
    10d8:	d005      	beq.n	10e6 <flight+0xaa>
            writeLog = false;
    10da:	2200      	movs	r2, #0
    10dc:	701a      	strb	r2, [r3, #0]
    PORT->Group[p.group].OUTTGL.reg = (1<<p.pin);
    10de:	2280      	movs	r2, #128	; 0x80
    10e0:	4b46      	ldr	r3, [pc, #280]	; (11fc <flight+0x1c0>)
    10e2:	0352      	lsls	r2, r2, #13
    10e4:	61da      	str	r2, [r3, #28]
        if (( velocity > 0.05) && (altitudeAGL() > 5)) {
    10e6:	4946      	ldr	r1, [pc, #280]	; (1200 <flight+0x1c4>)
    10e8:	4a46      	ldr	r2, [pc, #280]	; (1204 <flight+0x1c8>)
    10ea:	4b47      	ldr	r3, [pc, #284]	; (1208 <flight+0x1cc>)
    10ec:	6808      	ldr	r0, [r1, #0]
    10ee:	6849      	ldr	r1, [r1, #4]
    10f0:	4d46      	ldr	r5, [pc, #280]	; (120c <flight+0x1d0>)
    10f2:	47a8      	blx	r5
    10f4:	2800      	cmp	r0, #0
    10f6:	d0c0      	beq.n	107a <flight+0x3e>
    10f8:	4b45      	ldr	r3, [pc, #276]	; (1210 <flight+0x1d4>)
    10fa:	4798      	blx	r3
    10fc:	2805      	cmp	r0, #5
    10fe:	ddbc      	ble.n	107a <flight+0x3e>
            flightState = flightBoost;
    1100:	2303      	movs	r3, #3
            logEvent('L');
    1102:	204c      	movs	r0, #76	; 0x4c
            flightState = flightBoost;
    1104:	7023      	strb	r3, [r4, #0]
            logEvent('L');
    1106:	4b43      	ldr	r3, [pc, #268]	; (1214 <flight+0x1d8>)
    1108:	4798      	blx	r3
    110a:	e7b6      	b.n	107a <flight+0x3e>
        if (writeLog) {
    110c:	4b3a      	ldr	r3, [pc, #232]	; (11f8 <flight+0x1bc>)
    110e:	781a      	ldrb	r2, [r3, #0]
    1110:	2a00      	cmp	r2, #0
    1112:	d015      	beq.n	1140 <flight+0x104>
            writeLog = false;
    1114:	2500      	movs	r5, #0
    1116:	701d      	strb	r5, [r3, #0]
            logSensors( );
    1118:	4b3f      	ldr	r3, [pc, #252]	; (1218 <flight+0x1dc>)
    111a:	4798      	blx	r3
            if (pageReady) {
    111c:	4b3f      	ldr	r3, [pc, #252]	; (121c <flight+0x1e0>)
    111e:	781a      	ldrb	r2, [r3, #0]
    1120:	42aa      	cmp	r2, r5
    1122:	d00d      	beq.n	1140 <flight+0x104>
    1124:	2280      	movs	r2, #128	; 0x80
                pageReady = false;
    1126:	701d      	strb	r5, [r3, #0]
    1128:	4b34      	ldr	r3, [pc, #208]	; (11fc <flight+0x1c0>)
                u8_t bytesWritten = AT25SEWritePage(currentAddress,pageToWrite);
    112a:	4d3d      	ldr	r5, [pc, #244]	; (1220 <flight+0x1e4>)
    112c:	0352      	lsls	r2, r2, #13
    112e:	61da      	str	r2, [r3, #28]
    1130:	493c      	ldr	r1, [pc, #240]	; (1224 <flight+0x1e8>)
    1132:	4b3d      	ldr	r3, [pc, #244]	; (1228 <flight+0x1ec>)
    1134:	6828      	ldr	r0, [r5, #0]
    1136:	4798      	blx	r3
                currentAddress = (currentAddress + 0x100);
    1138:	682b      	ldr	r3, [r5, #0]
    113a:	3301      	adds	r3, #1
    113c:	33ff      	adds	r3, #255	; 0xff
    113e:	602b      	str	r3, [r5, #0]
        if (velocity < 0) {
    1140:	492f      	ldr	r1, [pc, #188]	; (1200 <flight+0x1c4>)
    1142:	2200      	movs	r2, #0
    1144:	6808      	ldr	r0, [r1, #0]
    1146:	6849      	ldr	r1, [r1, #4]
    1148:	2300      	movs	r3, #0
    114a:	4d38      	ldr	r5, [pc, #224]	; (122c <flight+0x1f0>)
    114c:	47a8      	blx	r5
    114e:	2800      	cmp	r0, #0
    1150:	d100      	bne.n	1154 <flight+0x118>
    1152:	e792      	b.n	107a <flight+0x3e>
            flightState = flightDrogue;
    1154:	2306      	movs	r3, #6
            logEvent('A');
    1156:	2041      	movs	r0, #65	; 0x41
            flightState = flightDrogue;
    1158:	7023      	strb	r3, [r4, #0]
            logEvent('A');
    115a:	4b2e      	ldr	r3, [pc, #184]	; (1214 <flight+0x1d8>)
    115c:	4798      	blx	r3
            beep(100);
    115e:	2064      	movs	r0, #100	; 0x64
    1160:	4b33      	ldr	r3, [pc, #204]	; (1230 <flight+0x1f4>)
    1162:	4798      	blx	r3
    1164:	e789      	b.n	107a <flight+0x3e>
        if (pageReady) {
    1166:	4b2d      	ldr	r3, [pc, #180]	; (121c <flight+0x1e0>)
    1168:	781a      	ldrb	r2, [r3, #0]
    116a:	2a00      	cmp	r2, #0
    116c:	d100      	bne.n	1170 <flight+0x134>
    116e:	e784      	b.n	107a <flight+0x3e>
            pageReady = false;
    1170:	2200      	movs	r2, #0
    1172:	701a      	strb	r2, [r3, #0]
    1174:	2280      	movs	r2, #128	; 0x80
    1176:	4b21      	ldr	r3, [pc, #132]	; (11fc <flight+0x1c0>)
                u8_t bytesWritten = AT25SEWritePage(currentAddress,pageToWrite);
    1178:	4d29      	ldr	r5, [pc, #164]	; (1220 <flight+0x1e4>)
    117a:	0352      	lsls	r2, r2, #13
    117c:	61da      	str	r2, [r3, #28]
    117e:	4929      	ldr	r1, [pc, #164]	; (1224 <flight+0x1e8>)
    1180:	4b29      	ldr	r3, [pc, #164]	; (1228 <flight+0x1ec>)
    1182:	6828      	ldr	r0, [r5, #0]
    1184:	4798      	blx	r3
                currentAddress = (currentAddress + 0x100);
    1186:	682b      	ldr	r3, [r5, #0]
    1188:	3301      	adds	r3, #1
    118a:	33ff      	adds	r3, #255	; 0xff
    118c:	602b      	str	r3, [r5, #0]
    118e:	e774      	b.n	107a <flight+0x3e>
        if (writeLog) {
    1190:	4b19      	ldr	r3, [pc, #100]	; (11f8 <flight+0x1bc>)
    1192:	781a      	ldrb	r2, [r3, #0]
    1194:	2a00      	cmp	r2, #0
    1196:	d100      	bne.n	119a <flight+0x15e>
    1198:	e76f      	b.n	107a <flight+0x3e>
            writeLog = false;
    119a:	2500      	movs	r5, #0
    119c:	701d      	strb	r5, [r3, #0]
            logSensors( );
    119e:	4b1e      	ldr	r3, [pc, #120]	; (1218 <flight+0x1dc>)
    11a0:	4798      	blx	r3
            if (pageReady) {
    11a2:	4b1e      	ldr	r3, [pc, #120]	; (121c <flight+0x1e0>)
    11a4:	781a      	ldrb	r2, [r3, #0]
    11a6:	42aa      	cmp	r2, r5
    11a8:	d100      	bne.n	11ac <flight+0x170>
    11aa:	e766      	b.n	107a <flight+0x3e>
                pageReady = false;
    11ac:	701d      	strb	r5, [r3, #0]
    11ae:	e7e1      	b.n	1174 <flight+0x138>
    if (flightState != flightStatrup & flightState != flightIdle & unplugged()) {
    11b0:	4b09      	ldr	r3, [pc, #36]	; (11d8 <flight+0x19c>)
    11b2:	4798      	blx	r3
    11b4:	e76e      	b.n	1094 <flight+0x58>
    11b6:	46c0      	nop			; (mov r8, r8)
    11b8:	20000684 	.word	0x20000684
    11bc:	00001235 	.word	0x00001235
    11c0:	00000f35 	.word	0x00000f35
    11c4:	20000524 	.word	0x20000524
    11c8:	00002710 	.word	0x00002710
    11cc:	0000212d 	.word	0x0000212d
    11d0:	00001e85 	.word	0x00001e85
    11d4:	00000ca9 	.word	0x00000ca9
    11d8:	00000b45 	.word	0x00000b45
    11dc:	00000b69 	.word	0x00000b69
    11e0:	00002655 	.word	0x00002655
    11e4:	00000ce1 	.word	0x00000ce1
    11e8:	42001400 	.word	0x42001400
    11ec:	00002645 	.word	0x00002645
    11f0:	05fa0004 	.word	0x05fa0004
    11f4:	e000ed00 	.word	0xe000ed00
    11f8:	20000520 	.word	0x20000520
    11fc:	41004400 	.word	0x41004400
    1200:	20000690 	.word	0x20000690
    1204:	9999999a 	.word	0x9999999a
    1208:	3fa99999 	.word	0x3fa99999
    120c:	00003981 	.word	0x00003981
    1210:	00000b11 	.word	0x00000b11
    1214:	00001ee1 	.word	0x00001ee1
    1218:	00001f35 	.word	0x00001f35
    121c:	200007b8 	.word	0x200007b8
    1220:	200007bc 	.word	0x200007bc
    1224:	200006b8 	.word	0x200006b8
    1228:	000002c9 	.word	0x000002c9
    122c:	00003959 	.word	0x00003959
    1230:	00000c71 	.word	0x00000c71

00001234 <updateGround>:
#include <util.h>
#include <altimeter.h>

void updateGround(Altimeter *my_altimeter) {
    1234:	b5f7      	push	{r0, r1, r2, r4, r5, r6, r7, lr}

    offsets.gravityOffsetBuffer = offsets.gravityOffsetBuffer * 0.8 + sample.accelZ * 0.2;
    1236:	4c2b      	ldr	r4, [pc, #172]	; (12e4 <updateGround+0xb0>)
    1238:	4d2b      	ldr	r5, [pc, #172]	; (12e8 <updateGround+0xb4>)
    123a:	4a2c      	ldr	r2, [pc, #176]	; (12ec <updateGround+0xb8>)
    123c:	6920      	ldr	r0, [r4, #16]
    123e:	6961      	ldr	r1, [r4, #20]
    1240:	4b2b      	ldr	r3, [pc, #172]	; (12f0 <updateGround+0xbc>)
    1242:	47a8      	blx	r5
    1244:	4b2b      	ldr	r3, [pc, #172]	; (12f4 <updateGround+0xc0>)
    1246:	0006      	movs	r6, r0
    1248:	6a98      	ldr	r0, [r3, #40]	; 0x28
    124a:	4b2b      	ldr	r3, [pc, #172]	; (12f8 <updateGround+0xc4>)
    124c:	000f      	movs	r7, r1
    124e:	4798      	blx	r3
    1250:	4a26      	ldr	r2, [pc, #152]	; (12ec <updateGround+0xb8>)
    1252:	4b2a      	ldr	r3, [pc, #168]	; (12fc <updateGround+0xc8>)
    1254:	47a8      	blx	r5
    1256:	0002      	movs	r2, r0
    1258:	000b      	movs	r3, r1
    125a:	0030      	movs	r0, r6
    125c:	0039      	movs	r1, r7
    125e:	4e28      	ldr	r6, [pc, #160]	; (1300 <updateGround+0xcc>)
    1260:	47b0      	blx	r6
    offsets.groundOffsetBuffer = offsets.groundOffsetBuffer * 0.5 + altitude * 0.5;
    1262:	4e28      	ldr	r6, [pc, #160]	; (1304 <updateGround+0xd0>)
    offsets.gravityOffsetBuffer = offsets.gravityOffsetBuffer * 0.8 + sample.accelZ * 0.2;
    1264:	6120      	str	r0, [r4, #16]
    1266:	6161      	str	r1, [r4, #20]
    offsets.groundOffsetBuffer = offsets.groundOffsetBuffer * 0.5 + altitude * 0.5;
    1268:	69e0      	ldr	r0, [r4, #28]
    126a:	47b0      	blx	r6
    126c:	2200      	movs	r2, #0
    126e:	4b26      	ldr	r3, [pc, #152]	; (1308 <updateGround+0xd4>)
    1270:	47a8      	blx	r5
    1272:	9000      	str	r0, [sp, #0]
    1274:	9101      	str	r1, [sp, #4]
    1276:	4925      	ldr	r1, [pc, #148]	; (130c <updateGround+0xd8>)
    1278:	2200      	movs	r2, #0
    127a:	6808      	ldr	r0, [r1, #0]
    127c:	6849      	ldr	r1, [r1, #4]
    127e:	4b22      	ldr	r3, [pc, #136]	; (1308 <updateGround+0xd4>)
    1280:	47a8      	blx	r5
    1282:	4f1f      	ldr	r7, [pc, #124]	; (1300 <updateGround+0xcc>)
    1284:	0002      	movs	r2, r0
    1286:	000b      	movs	r3, r1
    1288:	9800      	ldr	r0, [sp, #0]
    128a:	9901      	ldr	r1, [sp, #4]
    128c:	47b8      	blx	r7
    128e:	4f20      	ldr	r7, [pc, #128]	; (1310 <updateGround+0xdc>)
    1290:	47b8      	blx	r7
    1292:	61e0      	str	r0, [r4, #28]
    offsets.groundTemperatureBuffer = offsets.groundTemperatureBuffer * 0.8 + sample.temperatureCelcus * 0.2;
    1294:	6a60      	ldr	r0, [r4, #36]	; 0x24
    1296:	47b0      	blx	r6
    1298:	4a14      	ldr	r2, [pc, #80]	; (12ec <updateGround+0xb8>)
    129a:	4b15      	ldr	r3, [pc, #84]	; (12f0 <updateGround+0xbc>)
    129c:	47a8      	blx	r5
    129e:	4b15      	ldr	r3, [pc, #84]	; (12f4 <updateGround+0xc0>)
    12a0:	9000      	str	r0, [sp, #0]
    12a2:	9101      	str	r1, [sp, #4]
    12a4:	6bd8      	ldr	r0, [r3, #60]	; 0x3c
    12a6:	47b0      	blx	r6
    12a8:	4a10      	ldr	r2, [pc, #64]	; (12ec <updateGround+0xb8>)
    12aa:	4b14      	ldr	r3, [pc, #80]	; (12fc <updateGround+0xc8>)
    12ac:	47a8      	blx	r5
    12ae:	4d14      	ldr	r5, [pc, #80]	; (1300 <updateGround+0xcc>)
    12b0:	000b      	movs	r3, r1
    12b2:	0002      	movs	r2, r0
    12b4:	9800      	ldr	r0, [sp, #0]
    12b6:	9901      	ldr	r1, [sp, #4]
    12b8:	47a8      	blx	r5
    12ba:	47b8      	blx	r7

    if ((millis() - offsets.offsetBufferTime) > 2000) {
    12bc:	4d15      	ldr	r5, [pc, #84]	; (1314 <updateGround+0xe0>)
    offsets.groundTemperatureBuffer = offsets.groundTemperatureBuffer * 0.8 + sample.temperatureCelcus * 0.2;
    12be:	6260      	str	r0, [r4, #36]	; 0x24
    if ((millis() - offsets.offsetBufferTime) > 2000) {
    12c0:	47a8      	blx	r5
    12c2:	6823      	ldr	r3, [r4, #0]
    12c4:	1ac0      	subs	r0, r0, r3
    12c6:	23fa      	movs	r3, #250	; 0xfa
    12c8:	00db      	lsls	r3, r3, #3
    12ca:	4298      	cmp	r0, r3
    12cc:	d909      	bls.n	12e2 <updateGround+0xae>
        //recursive filter
        offsets.groundOffset = offsets.groundOffsetBuffer;
    12ce:	69e3      	ldr	r3, [r4, #28]
    12d0:	61a3      	str	r3, [r4, #24]
        offsets.groundTemperature = offsets.groundTemperatureBuffer;
    12d2:	6a63      	ldr	r3, [r4, #36]	; 0x24
    12d4:	6223      	str	r3, [r4, #32]
        offsets.gravityOffset = offsets.gravityOffsetBuffer;
    12d6:	6922      	ldr	r2, [r4, #16]
    12d8:	6963      	ldr	r3, [r4, #20]
    12da:	60a2      	str	r2, [r4, #8]
    12dc:	60e3      	str	r3, [r4, #12]
        offsets.offsetBufferTime = millis();
    12de:	47a8      	blx	r5
    12e0:	6020      	str	r0, [r4, #0]
    }
}
    12e2:	bdf7      	pop	{r0, r1, r2, r4, r5, r6, r7, pc}
    12e4:	200004d0 	.word	0x200004d0
    12e8:	0000510d 	.word	0x0000510d
    12ec:	9999999a 	.word	0x9999999a
    12f0:	3fe99999 	.word	0x3fe99999
    12f4:	200007c8 	.word	0x200007c8
    12f8:	00005dd5 	.word	0x00005dd5
    12fc:	3fc99999 	.word	0x3fc99999
    1300:	00004285 	.word	0x00004285
    1304:	00005d65 	.word	0x00005d65
    1308:	3fe00000 	.word	0x3fe00000
    130c:	20000698 	.word	0x20000698
    1310:	00003aa1 	.word	0x00003aa1
    1314:	00000f35 	.word	0x00000f35

00001318 <computeKalmanGains>:
    /*
     Fill in state transition matrix and its transpose
    */
    phi[0][1]    = dt;
    phi[1][2]    = dt;
    phi[0][2]    = dt*dt/2.0;
    1318:	2208      	movs	r2, #8
    phi[0][1]    = dt;
    131a:	4bdd      	ldr	r3, [pc, #884]	; (1690 <computeKalmanGains+0x378>)
    131c:	48dd      	ldr	r0, [pc, #884]	; (1694 <computeKalmanGains+0x37c>)
    131e:	49de      	ldr	r1, [pc, #888]	; (1698 <computeKalmanGains+0x380>)
void computeKalmanGains() {
    1320:	b5f0      	push	{r4, r5, r6, r7, lr}
    phi[0][1]    = dt;
    1322:	6098      	str	r0, [r3, #8]
    1324:	60d9      	str	r1, [r3, #12]
    phi[1][2]    = dt;
    1326:	6298      	str	r0, [r3, #40]	; 0x28
    1328:	62d9      	str	r1, [r3, #44]	; 0x2c
    phi[0][2]    = dt*dt/2.0;
    132a:	48dc      	ldr	r0, [pc, #880]	; (169c <computeKalmanGains+0x384>)
    132c:	49dc      	ldr	r1, [pc, #880]	; (16a0 <computeKalmanGains+0x388>)
void computeKalmanGains() {
    132e:	b0cd      	sub	sp, #308	; 0x134
    phi[0][2]    = dt*dt/2.0;
    1330:	6118      	str	r0, [r3, #16]
    1332:	6159      	str	r1, [r3, #20]
    1334:	a940      	add	r1, sp, #256	; 0x100
    1336:	1857      	adds	r7, r2, r1



    for( i = 0; i <= 2; i++)
        for( j = 0; j <=1; j++) {
            lastkgain[i][j] = .001;
    1338:	003e      	movs	r6, r7
    133a:	48da      	ldr	r0, [pc, #872]	; (16a4 <computeKalmanGains+0x38c>)
    133c:	49da      	ldr	r1, [pc, #872]	; (16a8 <computeKalmanGains+0x390>)
    133e:	3e08      	subs	r6, #8
    1340:	6030      	str	r0, [r6, #0]
    1342:	6071      	str	r1, [r6, #4]
            kgain[i][j] = 1.0;
    1344:	2108      	movs	r1, #8
    1346:	4249      	negs	r1, r1
    1348:	468c      	mov	ip, r1
    134a:	4ed8      	ldr	r6, [pc, #864]	; (16ac <computeKalmanGains+0x394>)
    134c:	2400      	movs	r4, #0
    134e:	1996      	adds	r6, r2, r6
    1350:	44b4      	add	ip, r6
    1352:	4661      	mov	r1, ip
    1354:	4dd6      	ldr	r5, [pc, #856]	; (16b0 <computeKalmanGains+0x398>)
            lastkgain[i][j] = .001;
    1356:	48d3      	ldr	r0, [pc, #844]	; (16a4 <computeKalmanGains+0x38c>)
            kgain[i][j] = 1.0;
    1358:	600c      	str	r4, [r1, #0]
    135a:	604d      	str	r5, [r1, #4]
            lastkgain[i][j] = .001;
    135c:	49d2      	ldr	r1, [pc, #840]	; (16a8 <computeKalmanGains+0x390>)
    135e:	3210      	adds	r2, #16
    1360:	6038      	str	r0, [r7, #0]
    1362:	6079      	str	r1, [r7, #4]
            kgain[i][j] = 1.0;
    1364:	0020      	movs	r0, r4
    1366:	0029      	movs	r1, r5
    1368:	6030      	str	r0, [r6, #0]
    136a:	6071      	str	r1, [r6, #4]
    for( i = 0; i <= 2; i++)
    136c:	2a38      	cmp	r2, #56	; 0x38
    136e:	d1e1      	bne.n	1334 <computeKalmanGains+0x1c>

    /* Compute the Kalman gain matrix. */
    while(1) {
        /* Propagate state covariance */

        term[0][0] = phi[0][0] * pest[0][0] + phi[0][1] * pest[1][0] + phi[0][2] * pest[2][0];
    1370:	6819      	ldr	r1, [r3, #0]
    1372:	685a      	ldr	r2, [r3, #4]
    1374:	911a      	str	r1, [sp, #104]	; 0x68
    1376:	921b      	str	r2, [sp, #108]	; 0x6c
        term[0][1] = phi[0][0] * pest[0][1] + phi[0][1] * pest[1][1] + phi[0][2] * pest[2][1];
        term[0][2] = phi[0][0] * pest[0][2] + phi[0][1] * pest[1][2] + phi[0][2] * pest[2][2];
        term[1][0] = phi[1][0] * pest[0][0] + phi[1][1] * pest[1][0] + phi[1][2] * pest[2][0];
    1378:	6999      	ldr	r1, [r3, #24]
    137a:	69da      	ldr	r2, [r3, #28]
    137c:	911c      	str	r1, [sp, #112]	; 0x70
    137e:	921d      	str	r2, [sp, #116]	; 0x74
    1380:	6a19      	ldr	r1, [r3, #32]
    1382:	6a5a      	ldr	r2, [r3, #36]	; 0x24
    1384:	911e      	str	r1, [sp, #120]	; 0x78
    1386:	921f      	str	r2, [sp, #124]	; 0x7c
        term[1][1] = phi[1][0] * pest[0][1] + phi[1][1] * pest[1][1] + phi[1][2] * pest[2][1];
        term[1][2] = phi[1][0] * pest[0][2] + phi[1][1] * pest[1][2] + phi[1][2] * pest[2][2];
        term[2][0] = phi[2][0] * pest[0][0] + phi[2][1] * pest[1][0] + phi[2][2] * pest[2][0];
    1388:	6b19      	ldr	r1, [r3, #48]	; 0x30
    138a:	6b5a      	ldr	r2, [r3, #52]	; 0x34
    138c:	9120      	str	r1, [sp, #128]	; 0x80
    138e:	9221      	str	r2, [sp, #132]	; 0x84
    1390:	6b99      	ldr	r1, [r3, #56]	; 0x38
    1392:	6bda      	ldr	r2, [r3, #60]	; 0x3c
    1394:	9122      	str	r1, [sp, #136]	; 0x88
    1396:	9223      	str	r2, [sp, #140]	; 0x8c
    1398:	6c19      	ldr	r1, [r3, #64]	; 0x40
    139a:	6c5a      	ldr	r2, [r3, #68]	; 0x44
    139c:	9124      	str	r1, [sp, #144]	; 0x90
    139e:	9225      	str	r2, [sp, #148]	; 0x94
        pestp[1][2] = term[1][0] * phit[0][2] + term[1][1] * phit[1][2] + term[1][2] * phit[2][2];
        pestp[2][0] = term[2][0] * phit[0][0] + term[2][1] * phit[1][0] + term[2][2] * phit[2][0];
        pestp[2][1] = term[2][0] * phit[0][1] + term[2][1] * phit[1][1] + term[2][2] * phit[2][1];
        pestp[2][2] = term[2][0] * phit[0][2] + term[2][1] * phit[1][2] + term[2][2] * phit[2][2];

        pestp[2][2] = pestp[2][2] + model_variance;
    13a0:	6c99      	ldr	r1, [r3, #72]	; 0x48
    13a2:	6cda      	ldr	r2, [r3, #76]	; 0x4c
    13a4:	913a      	str	r1, [sp, #232]	; 0xe8
    13a6:	923b      	str	r2, [sp, #236]	; 0xec
        /*
          Calculate Kalman Gain
        */
        det = (pestp[0][0]+altitude_variance)*(pestp[2][2] + acceleration_variance) - pestp[2][0] * pestp[0][2];
    13a8:	6d19      	ldr	r1, [r3, #80]	; 0x50
    13aa:	6d5a      	ldr	r2, [r3, #84]	; 0x54
    13ac:	6ddc      	ldr	r4, [r3, #92]	; 0x5c
    13ae:	6d9b      	ldr	r3, [r3, #88]	; 0x58
    13b0:	933e      	str	r3, [sp, #248]	; 0xf8
    13b2:	943f      	str	r4, [sp, #252]	; 0xfc
    13b4:	2300      	movs	r3, #0
    13b6:	4cbf      	ldr	r4, [pc, #764]	; (16b4 <computeKalmanGains+0x39c>)
    13b8:	913c      	str	r1, [sp, #240]	; 0xf0
    13ba:	923d      	str	r2, [sp, #244]	; 0xf4
    13bc:	9302      	str	r3, [sp, #8]
    13be:	9403      	str	r4, [sp, #12]
    13c0:	2300      	movs	r3, #0
    13c2:	2400      	movs	r4, #0
    13c4:	9310      	str	r3, [sp, #64]	; 0x40
    13c6:	9411      	str	r4, [sp, #68]	; 0x44
    13c8:	9300      	str	r3, [sp, #0]
    13ca:	9401      	str	r4, [sp, #4]
    13cc:	9304      	str	r3, [sp, #16]
    13ce:	9405      	str	r4, [sp, #20]
    13d0:	2300      	movs	r3, #0
    13d2:	4cb8      	ldr	r4, [pc, #736]	; (16b4 <computeKalmanGains+0x39c>)
    13d4:	930e      	str	r3, [sp, #56]	; 0x38
    13d6:	940f      	str	r4, [sp, #60]	; 0x3c
    13d8:	2300      	movs	r3, #0
    13da:	2400      	movs	r4, #0
    13dc:	9308      	str	r3, [sp, #32]
    13de:	9409      	str	r4, [sp, #36]	; 0x24
    13e0:	930c      	str	r3, [sp, #48]	; 0x30
    13e2:	940d      	str	r4, [sp, #52]	; 0x34
    13e4:	930a      	str	r3, [sp, #40]	; 0x28
    13e6:	940b      	str	r4, [sp, #44]	; 0x2c
    13e8:	2480      	movs	r4, #128	; 0x80
    13ea:	2300      	movs	r3, #0
    13ec:	05e4      	lsls	r4, r4, #23
    13ee:	9306      	str	r3, [sp, #24]
    13f0:	9407      	str	r4, [sp, #28]
    13f2:	2300      	movs	r3, #0
    13f4:	9338      	str	r3, [sp, #224]	; 0xe0
        term[0][0] = phi[0][0] * pest[0][0] + phi[0][1] * pest[1][0] + phi[0][2] * pest[2][0];
    13f6:	4db0      	ldr	r5, [pc, #704]	; (16b8 <computeKalmanGains+0x3a0>)
    13f8:	9a1a      	ldr	r2, [sp, #104]	; 0x68
    13fa:	9b1b      	ldr	r3, [sp, #108]	; 0x6c
    13fc:	9806      	ldr	r0, [sp, #24]
    13fe:	9907      	ldr	r1, [sp, #28]
    1400:	47a8      	blx	r5
    1402:	4aa4      	ldr	r2, [pc, #656]	; (1694 <computeKalmanGains+0x37c>)
    1404:	0006      	movs	r6, r0
    1406:	000f      	movs	r7, r1
    1408:	9808      	ldr	r0, [sp, #32]
    140a:	9909      	ldr	r1, [sp, #36]	; 0x24
    140c:	4ba2      	ldr	r3, [pc, #648]	; (1698 <computeKalmanGains+0x380>)
    140e:	47a8      	blx	r5
    1410:	4caa      	ldr	r4, [pc, #680]	; (16bc <computeKalmanGains+0x3a4>)
    1412:	0002      	movs	r2, r0
    1414:	000b      	movs	r3, r1
    1416:	0030      	movs	r0, r6
    1418:	0039      	movs	r1, r7
    141a:	47a0      	blx	r4
    141c:	4a9f      	ldr	r2, [pc, #636]	; (169c <computeKalmanGains+0x384>)
    141e:	0006      	movs	r6, r0
    1420:	000f      	movs	r7, r1
    1422:	9800      	ldr	r0, [sp, #0]
    1424:	9901      	ldr	r1, [sp, #4]
    1426:	4b9e      	ldr	r3, [pc, #632]	; (16a0 <computeKalmanGains+0x388>)
    1428:	47a8      	blx	r5
    142a:	0002      	movs	r2, r0
    142c:	000b      	movs	r3, r1
    142e:	0030      	movs	r0, r6
    1430:	0039      	movs	r1, r7
    1432:	47a0      	blx	r4
        term[0][1] = phi[0][0] * pest[0][1] + phi[0][1] * pest[1][1] + phi[0][2] * pest[2][1];
    1434:	9a1a      	ldr	r2, [sp, #104]	; 0x68
    1436:	9b1b      	ldr	r3, [sp, #108]	; 0x6c
        term[0][0] = phi[0][0] * pest[0][0] + phi[0][1] * pest[1][0] + phi[0][2] * pest[2][0];
    1438:	9016      	str	r0, [sp, #88]	; 0x58
    143a:	9117      	str	r1, [sp, #92]	; 0x5c
        term[0][1] = phi[0][0] * pest[0][1] + phi[0][1] * pest[1][1] + phi[0][2] * pest[2][1];
    143c:	980a      	ldr	r0, [sp, #40]	; 0x28
    143e:	990b      	ldr	r1, [sp, #44]	; 0x2c
    1440:	47a8      	blx	r5
    1442:	4a94      	ldr	r2, [pc, #592]	; (1694 <computeKalmanGains+0x37c>)
    1444:	0006      	movs	r6, r0
    1446:	000f      	movs	r7, r1
    1448:	980e      	ldr	r0, [sp, #56]	; 0x38
    144a:	990f      	ldr	r1, [sp, #60]	; 0x3c
    144c:	4b92      	ldr	r3, [pc, #584]	; (1698 <computeKalmanGains+0x380>)
    144e:	47a8      	blx	r5
    1450:	0002      	movs	r2, r0
    1452:	000b      	movs	r3, r1
    1454:	0030      	movs	r0, r6
    1456:	0039      	movs	r1, r7
    1458:	47a0      	blx	r4
    145a:	4a90      	ldr	r2, [pc, #576]	; (169c <computeKalmanGains+0x384>)
    145c:	0006      	movs	r6, r0
    145e:	000f      	movs	r7, r1
    1460:	9810      	ldr	r0, [sp, #64]	; 0x40
    1462:	9911      	ldr	r1, [sp, #68]	; 0x44
    1464:	4b8e      	ldr	r3, [pc, #568]	; (16a0 <computeKalmanGains+0x388>)
    1466:	47a8      	blx	r5
    1468:	0002      	movs	r2, r0
    146a:	000b      	movs	r3, r1
    146c:	0030      	movs	r0, r6
    146e:	0039      	movs	r1, r7
    1470:	47a0      	blx	r4
        term[0][2] = phi[0][0] * pest[0][2] + phi[0][1] * pest[1][2] + phi[0][2] * pest[2][2];
    1472:	9a1a      	ldr	r2, [sp, #104]	; 0x68
    1474:	9b1b      	ldr	r3, [sp, #108]	; 0x6c
        term[0][1] = phi[0][0] * pest[0][1] + phi[0][1] * pest[1][1] + phi[0][2] * pest[2][1];
    1476:	9012      	str	r0, [sp, #72]	; 0x48
    1478:	9113      	str	r1, [sp, #76]	; 0x4c
        term[0][2] = phi[0][0] * pest[0][2] + phi[0][1] * pest[1][2] + phi[0][2] * pest[2][2];
    147a:	980c      	ldr	r0, [sp, #48]	; 0x30
    147c:	990d      	ldr	r1, [sp, #52]	; 0x34
    147e:	47a8      	blx	r5
    1480:	4a84      	ldr	r2, [pc, #528]	; (1694 <computeKalmanGains+0x37c>)
    1482:	0006      	movs	r6, r0
    1484:	000f      	movs	r7, r1
    1486:	9804      	ldr	r0, [sp, #16]
    1488:	9905      	ldr	r1, [sp, #20]
    148a:	4b83      	ldr	r3, [pc, #524]	; (1698 <computeKalmanGains+0x380>)
    148c:	47a8      	blx	r5
    148e:	0002      	movs	r2, r0
    1490:	000b      	movs	r3, r1
    1492:	0030      	movs	r0, r6
    1494:	0039      	movs	r1, r7
    1496:	47a0      	blx	r4
    1498:	4a80      	ldr	r2, [pc, #512]	; (169c <computeKalmanGains+0x384>)
    149a:	0006      	movs	r6, r0
    149c:	000f      	movs	r7, r1
    149e:	9802      	ldr	r0, [sp, #8]
    14a0:	9903      	ldr	r1, [sp, #12]
    14a2:	4b7f      	ldr	r3, [pc, #508]	; (16a0 <computeKalmanGains+0x388>)
    14a4:	47a8      	blx	r5
    14a6:	0002      	movs	r2, r0
    14a8:	000b      	movs	r3, r1
    14aa:	0030      	movs	r0, r6
    14ac:	0039      	movs	r1, r7
    14ae:	47a0      	blx	r4
        term[1][0] = phi[1][0] * pest[0][0] + phi[1][1] * pest[1][0] + phi[1][2] * pest[2][0];
    14b0:	9a1c      	ldr	r2, [sp, #112]	; 0x70
    14b2:	9b1d      	ldr	r3, [sp, #116]	; 0x74
        term[0][2] = phi[0][0] * pest[0][2] + phi[0][1] * pest[1][2] + phi[0][2] * pest[2][2];
    14b4:	9014      	str	r0, [sp, #80]	; 0x50
    14b6:	9115      	str	r1, [sp, #84]	; 0x54
        term[1][0] = phi[1][0] * pest[0][0] + phi[1][1] * pest[1][0] + phi[1][2] * pest[2][0];
    14b8:	9806      	ldr	r0, [sp, #24]
    14ba:	9907      	ldr	r1, [sp, #28]
    14bc:	47a8      	blx	r5
    14be:	9a1e      	ldr	r2, [sp, #120]	; 0x78
    14c0:	9b1f      	ldr	r3, [sp, #124]	; 0x7c
    14c2:	0006      	movs	r6, r0
    14c4:	000f      	movs	r7, r1
    14c6:	9808      	ldr	r0, [sp, #32]
    14c8:	9909      	ldr	r1, [sp, #36]	; 0x24
    14ca:	47a8      	blx	r5
    14cc:	0002      	movs	r2, r0
    14ce:	000b      	movs	r3, r1
    14d0:	0030      	movs	r0, r6
    14d2:	0039      	movs	r1, r7
    14d4:	47a0      	blx	r4
    14d6:	4a6f      	ldr	r2, [pc, #444]	; (1694 <computeKalmanGains+0x37c>)
    14d8:	0006      	movs	r6, r0
    14da:	000f      	movs	r7, r1
    14dc:	9800      	ldr	r0, [sp, #0]
    14de:	9901      	ldr	r1, [sp, #4]
    14e0:	4b6d      	ldr	r3, [pc, #436]	; (1698 <computeKalmanGains+0x380>)
    14e2:	47a8      	blx	r5
    14e4:	0002      	movs	r2, r0
    14e6:	000b      	movs	r3, r1
    14e8:	0030      	movs	r0, r6
    14ea:	0039      	movs	r1, r7
    14ec:	47a0      	blx	r4
        term[1][1] = phi[1][0] * pest[0][1] + phi[1][1] * pest[1][1] + phi[1][2] * pest[2][1];
    14ee:	9a1c      	ldr	r2, [sp, #112]	; 0x70
    14f0:	9b1d      	ldr	r3, [sp, #116]	; 0x74
        term[1][0] = phi[1][0] * pest[0][0] + phi[1][1] * pest[1][0] + phi[1][2] * pest[2][0];
    14f2:	9018      	str	r0, [sp, #96]	; 0x60
    14f4:	9119      	str	r1, [sp, #100]	; 0x64
        term[1][1] = phi[1][0] * pest[0][1] + phi[1][1] * pest[1][1] + phi[1][2] * pest[2][1];
    14f6:	980a      	ldr	r0, [sp, #40]	; 0x28
    14f8:	990b      	ldr	r1, [sp, #44]	; 0x2c
    14fa:	47a8      	blx	r5
    14fc:	9a1e      	ldr	r2, [sp, #120]	; 0x78
    14fe:	9b1f      	ldr	r3, [sp, #124]	; 0x7c
    1500:	0006      	movs	r6, r0
    1502:	000f      	movs	r7, r1
    1504:	980e      	ldr	r0, [sp, #56]	; 0x38
    1506:	990f      	ldr	r1, [sp, #60]	; 0x3c
    1508:	47a8      	blx	r5
    150a:	0002      	movs	r2, r0
    150c:	000b      	movs	r3, r1
    150e:	0030      	movs	r0, r6
    1510:	0039      	movs	r1, r7
    1512:	47a0      	blx	r4
    1514:	4a5f      	ldr	r2, [pc, #380]	; (1694 <computeKalmanGains+0x37c>)
    1516:	0006      	movs	r6, r0
    1518:	000f      	movs	r7, r1
    151a:	9810      	ldr	r0, [sp, #64]	; 0x40
    151c:	9911      	ldr	r1, [sp, #68]	; 0x44
    151e:	4b5e      	ldr	r3, [pc, #376]	; (1698 <computeKalmanGains+0x380>)
    1520:	47a8      	blx	r5
    1522:	0002      	movs	r2, r0
    1524:	000b      	movs	r3, r1
    1526:	0030      	movs	r0, r6
    1528:	0039      	movs	r1, r7
    152a:	47a0      	blx	r4
        term[1][2] = phi[1][0] * pest[0][2] + phi[1][1] * pest[1][2] + phi[1][2] * pest[2][2];
    152c:	9a1c      	ldr	r2, [sp, #112]	; 0x70
    152e:	9b1d      	ldr	r3, [sp, #116]	; 0x74
        term[1][1] = phi[1][0] * pest[0][1] + phi[1][1] * pest[1][1] + phi[1][2] * pest[2][1];
    1530:	9026      	str	r0, [sp, #152]	; 0x98
    1532:	9127      	str	r1, [sp, #156]	; 0x9c
        term[1][2] = phi[1][0] * pest[0][2] + phi[1][1] * pest[1][2] + phi[1][2] * pest[2][2];
    1534:	980c      	ldr	r0, [sp, #48]	; 0x30
    1536:	990d      	ldr	r1, [sp, #52]	; 0x34
    1538:	47a8      	blx	r5
    153a:	9a1e      	ldr	r2, [sp, #120]	; 0x78
    153c:	9b1f      	ldr	r3, [sp, #124]	; 0x7c
    153e:	0006      	movs	r6, r0
    1540:	000f      	movs	r7, r1
    1542:	9804      	ldr	r0, [sp, #16]
    1544:	9905      	ldr	r1, [sp, #20]
    1546:	47a8      	blx	r5
    1548:	0002      	movs	r2, r0
    154a:	000b      	movs	r3, r1
    154c:	0030      	movs	r0, r6
    154e:	0039      	movs	r1, r7
    1550:	47a0      	blx	r4
    1552:	4a50      	ldr	r2, [pc, #320]	; (1694 <computeKalmanGains+0x37c>)
    1554:	0006      	movs	r6, r0
    1556:	000f      	movs	r7, r1
    1558:	9802      	ldr	r0, [sp, #8]
    155a:	9903      	ldr	r1, [sp, #12]
    155c:	4b4e      	ldr	r3, [pc, #312]	; (1698 <computeKalmanGains+0x380>)
    155e:	47a8      	blx	r5
    1560:	0002      	movs	r2, r0
    1562:	000b      	movs	r3, r1
    1564:	0030      	movs	r0, r6
    1566:	0039      	movs	r1, r7
    1568:	47a0      	blx	r4
        term[2][0] = phi[2][0] * pest[0][0] + phi[2][1] * pest[1][0] + phi[2][2] * pest[2][0];
    156a:	9a20      	ldr	r2, [sp, #128]	; 0x80
    156c:	9b21      	ldr	r3, [sp, #132]	; 0x84
        term[1][2] = phi[1][0] * pest[0][2] + phi[1][1] * pest[1][2] + phi[1][2] * pest[2][2];
    156e:	9028      	str	r0, [sp, #160]	; 0xa0
    1570:	9129      	str	r1, [sp, #164]	; 0xa4
        term[2][0] = phi[2][0] * pest[0][0] + phi[2][1] * pest[1][0] + phi[2][2] * pest[2][0];
    1572:	9806      	ldr	r0, [sp, #24]
    1574:	9907      	ldr	r1, [sp, #28]
    1576:	47a8      	blx	r5
    1578:	9a22      	ldr	r2, [sp, #136]	; 0x88
    157a:	9b23      	ldr	r3, [sp, #140]	; 0x8c
    157c:	0006      	movs	r6, r0
    157e:	000f      	movs	r7, r1
    1580:	9808      	ldr	r0, [sp, #32]
    1582:	9909      	ldr	r1, [sp, #36]	; 0x24
    1584:	47a8      	blx	r5
    1586:	0002      	movs	r2, r0
    1588:	000b      	movs	r3, r1
    158a:	0030      	movs	r0, r6
    158c:	0039      	movs	r1, r7
    158e:	47a0      	blx	r4
    1590:	9a24      	ldr	r2, [sp, #144]	; 0x90
    1592:	9b25      	ldr	r3, [sp, #148]	; 0x94
    1594:	0006      	movs	r6, r0
    1596:	000f      	movs	r7, r1
    1598:	9800      	ldr	r0, [sp, #0]
    159a:	9901      	ldr	r1, [sp, #4]
    159c:	47a8      	blx	r5
    159e:	0002      	movs	r2, r0
    15a0:	000b      	movs	r3, r1
    15a2:	0030      	movs	r0, r6
    15a4:	0039      	movs	r1, r7
    15a6:	47a0      	blx	r4
        term[2][1] = phi[2][0] * pest[0][1] + phi[2][1] * pest[1][1] + phi[2][2] * pest[2][1];
    15a8:	9a20      	ldr	r2, [sp, #128]	; 0x80
    15aa:	9b21      	ldr	r3, [sp, #132]	; 0x84
        term[2][0] = phi[2][0] * pest[0][0] + phi[2][1] * pest[1][0] + phi[2][2] * pest[2][0];
    15ac:	902e      	str	r0, [sp, #184]	; 0xb8
    15ae:	912f      	str	r1, [sp, #188]	; 0xbc
        term[2][1] = phi[2][0] * pest[0][1] + phi[2][1] * pest[1][1] + phi[2][2] * pest[2][1];
    15b0:	980a      	ldr	r0, [sp, #40]	; 0x28
    15b2:	990b      	ldr	r1, [sp, #44]	; 0x2c
    15b4:	47a8      	blx	r5
    15b6:	9a22      	ldr	r2, [sp, #136]	; 0x88
    15b8:	9b23      	ldr	r3, [sp, #140]	; 0x8c
    15ba:	0006      	movs	r6, r0
    15bc:	000f      	movs	r7, r1
    15be:	980e      	ldr	r0, [sp, #56]	; 0x38
    15c0:	990f      	ldr	r1, [sp, #60]	; 0x3c
    15c2:	47a8      	blx	r5
    15c4:	0002      	movs	r2, r0
    15c6:	000b      	movs	r3, r1
    15c8:	0030      	movs	r0, r6
    15ca:	0039      	movs	r1, r7
    15cc:	47a0      	blx	r4
    15ce:	9a24      	ldr	r2, [sp, #144]	; 0x90
    15d0:	9b25      	ldr	r3, [sp, #148]	; 0x94
    15d2:	0006      	movs	r6, r0
    15d4:	000f      	movs	r7, r1
    15d6:	9810      	ldr	r0, [sp, #64]	; 0x40
    15d8:	9911      	ldr	r1, [sp, #68]	; 0x44
    15da:	47a8      	blx	r5
    15dc:	0002      	movs	r2, r0
    15de:	000b      	movs	r3, r1
    15e0:	0030      	movs	r0, r6
    15e2:	0039      	movs	r1, r7
    15e4:	47a0      	blx	r4
        term[2][2] = phi[2][0] * pest[0][2] + phi[2][1] * pest[1][2] + phi[2][2] * pest[2][2];
    15e6:	9a20      	ldr	r2, [sp, #128]	; 0x80
    15e8:	9b21      	ldr	r3, [sp, #132]	; 0x84
        term[2][1] = phi[2][0] * pest[0][1] + phi[2][1] * pest[1][1] + phi[2][2] * pest[2][1];
    15ea:	9006      	str	r0, [sp, #24]
    15ec:	9107      	str	r1, [sp, #28]
        term[2][2] = phi[2][0] * pest[0][2] + phi[2][1] * pest[1][2] + phi[2][2] * pest[2][2];
    15ee:	980c      	ldr	r0, [sp, #48]	; 0x30
    15f0:	990d      	ldr	r1, [sp, #52]	; 0x34
    15f2:	47a8      	blx	r5
    15f4:	9a22      	ldr	r2, [sp, #136]	; 0x88
    15f6:	9b23      	ldr	r3, [sp, #140]	; 0x8c
    15f8:	0006      	movs	r6, r0
    15fa:	000f      	movs	r7, r1
    15fc:	9804      	ldr	r0, [sp, #16]
    15fe:	9905      	ldr	r1, [sp, #20]
    1600:	47a8      	blx	r5
    1602:	0002      	movs	r2, r0
    1604:	000b      	movs	r3, r1
    1606:	0030      	movs	r0, r6
    1608:	0039      	movs	r1, r7
    160a:	47a0      	blx	r4
    160c:	9a24      	ldr	r2, [sp, #144]	; 0x90
    160e:	9b25      	ldr	r3, [sp, #148]	; 0x94
    1610:	0006      	movs	r6, r0
    1612:	000f      	movs	r7, r1
    1614:	9802      	ldr	r0, [sp, #8]
    1616:	9903      	ldr	r1, [sp, #12]
    1618:	47a8      	blx	r5
    161a:	0002      	movs	r2, r0
    161c:	000b      	movs	r3, r1
    161e:	0030      	movs	r0, r6
    1620:	0039      	movs	r1, r7
    1622:	47a0      	blx	r4
        pestp[0][0] = term[0][0] * phit[0][0] + term[0][1] * phit[1][0] + term[0][2] * phit[2][0];
    1624:	4a1b      	ldr	r2, [pc, #108]	; (1694 <computeKalmanGains+0x37c>)
        term[2][2] = phi[2][0] * pest[0][2] + phi[2][1] * pest[1][2] + phi[2][2] * pest[2][2];
    1626:	9002      	str	r0, [sp, #8]
    1628:	9103      	str	r1, [sp, #12]
        pestp[0][0] = term[0][0] * phit[0][0] + term[0][1] * phit[1][0] + term[0][2] * phit[2][0];
    162a:	9812      	ldr	r0, [sp, #72]	; 0x48
    162c:	9913      	ldr	r1, [sp, #76]	; 0x4c
    162e:	4b1a      	ldr	r3, [pc, #104]	; (1698 <computeKalmanGains+0x380>)
    1630:	47a8      	blx	r5
    1632:	9a16      	ldr	r2, [sp, #88]	; 0x58
    1634:	9b17      	ldr	r3, [sp, #92]	; 0x5c
    1636:	47a0      	blx	r4
    1638:	4a18      	ldr	r2, [pc, #96]	; (169c <computeKalmanGains+0x384>)
    163a:	0006      	movs	r6, r0
    163c:	000f      	movs	r7, r1
    163e:	9814      	ldr	r0, [sp, #80]	; 0x50
    1640:	9915      	ldr	r1, [sp, #84]	; 0x54
    1642:	4b17      	ldr	r3, [pc, #92]	; (16a0 <computeKalmanGains+0x388>)
    1644:	47a8      	blx	r5
    1646:	0002      	movs	r2, r0
    1648:	000b      	movs	r3, r1
    164a:	0030      	movs	r0, r6
    164c:	0039      	movs	r1, r7
    164e:	47a0      	blx	r4
        pestp[0][1] = term[0][0] * phit[0][1] + term[0][1] * phit[1][1] + term[0][2] * phit[2][1];
    1650:	2200      	movs	r2, #0
        pestp[0][0] = term[0][0] * phit[0][0] + term[0][1] * phit[1][0] + term[0][2] * phit[2][0];
    1652:	9008      	str	r0, [sp, #32]
    1654:	9109      	str	r1, [sp, #36]	; 0x24
        pestp[0][1] = term[0][0] * phit[0][1] + term[0][1] * phit[1][1] + term[0][2] * phit[2][1];
    1656:	9816      	ldr	r0, [sp, #88]	; 0x58
    1658:	9917      	ldr	r1, [sp, #92]	; 0x5c
    165a:	2300      	movs	r3, #0
    165c:	47a8      	blx	r5
    165e:	0006      	movs	r6, r0
    1660:	000f      	movs	r7, r1
    1662:	0002      	movs	r2, r0
    1664:	000b      	movs	r3, r1
    1666:	9812      	ldr	r0, [sp, #72]	; 0x48
    1668:	9913      	ldr	r1, [sp, #76]	; 0x4c
    166a:	47a0      	blx	r4
    166c:	4a09      	ldr	r2, [pc, #36]	; (1694 <computeKalmanGains+0x37c>)
    166e:	9000      	str	r0, [sp, #0]
    1670:	9101      	str	r1, [sp, #4]
    1672:	9814      	ldr	r0, [sp, #80]	; 0x50
    1674:	9915      	ldr	r1, [sp, #84]	; 0x54
    1676:	4b08      	ldr	r3, [pc, #32]	; (1698 <computeKalmanGains+0x380>)
    1678:	47a8      	blx	r5
    167a:	0002      	movs	r2, r0
    167c:	000b      	movs	r3, r1
    167e:	9800      	ldr	r0, [sp, #0]
    1680:	9901      	ldr	r1, [sp, #4]
    1682:	47a0      	blx	r4
        pestp[0][2] = term[0][0] * phit[0][2] + term[0][1] * phit[1][2] + term[0][2] * phit[2][2];
    1684:	2200      	movs	r2, #0
        pestp[0][1] = term[0][0] * phit[0][1] + term[0][1] * phit[1][1] + term[0][2] * phit[2][1];
    1686:	9030      	str	r0, [sp, #192]	; 0xc0
    1688:	9131      	str	r1, [sp, #196]	; 0xc4
        pestp[0][2] = term[0][0] * phit[0][2] + term[0][1] * phit[1][2] + term[0][2] * phit[2][2];
    168a:	9812      	ldr	r0, [sp, #72]	; 0x48
    168c:	9913      	ldr	r1, [sp, #76]	; 0x4c
    168e:	e017      	b.n	16c0 <computeKalmanGains+0x3a8>
    1690:	20000010 	.word	0x20000010
    1694:	47ae147b 	.word	0x47ae147b
    1698:	3f747ae1 	.word	0x3f747ae1
    169c:	eb1c432d 	.word	0xeb1c432d
    16a0:	3eea36e2 	.word	0x3eea36e2
    16a4:	d2f1a9fc 	.word	0xd2f1a9fc
    16a8:	3f50624d 	.word	0x3f50624d
    16ac:	20000650 	.word	0x20000650
    16b0:	3ff00000 	.word	0x3ff00000
    16b4:	40220000 	.word	0x40220000
    16b8:	0000510d 	.word	0x0000510d
    16bc:	00004285 	.word	0x00004285
    16c0:	2300      	movs	r3, #0
    16c2:	47a8      	blx	r5
    16c4:	0032      	movs	r2, r6
    16c6:	003b      	movs	r3, r7
    16c8:	47a0      	blx	r4
    16ca:	9a14      	ldr	r2, [sp, #80]	; 0x50
    16cc:	9b15      	ldr	r3, [sp, #84]	; 0x54
    16ce:	47a0      	blx	r4
        pestp[1][0] = term[1][0] * phit[0][0] + term[1][1] * phit[1][0] + term[1][2] * phit[2][0];
    16d0:	4ad9      	ldr	r2, [pc, #868]	; (1a38 <computeKalmanGains+0x720>)
        pestp[0][2] = term[0][0] * phit[0][2] + term[0][1] * phit[1][2] + term[0][2] * phit[2][2];
    16d2:	9112      	str	r1, [sp, #72]	; 0x48
    16d4:	9004      	str	r0, [sp, #16]
    16d6:	9116      	str	r1, [sp, #88]	; 0x58
        pestp[1][0] = term[1][0] * phit[0][0] + term[1][1] * phit[1][0] + term[1][2] * phit[2][0];
    16d8:	4bd8      	ldr	r3, [pc, #864]	; (1a3c <computeKalmanGains+0x724>)
    16da:	9826      	ldr	r0, [sp, #152]	; 0x98
    16dc:	9927      	ldr	r1, [sp, #156]	; 0x9c
    16de:	47a8      	blx	r5
    16e0:	9a18      	ldr	r2, [sp, #96]	; 0x60
    16e2:	9b19      	ldr	r3, [sp, #100]	; 0x64
    16e4:	47a0      	blx	r4
    16e6:	4ad6      	ldr	r2, [pc, #856]	; (1a40 <computeKalmanGains+0x728>)
    16e8:	0006      	movs	r6, r0
    16ea:	000f      	movs	r7, r1
    16ec:	9828      	ldr	r0, [sp, #160]	; 0xa0
    16ee:	9929      	ldr	r1, [sp, #164]	; 0xa4
    16f0:	4bd4      	ldr	r3, [pc, #848]	; (1a44 <computeKalmanGains+0x72c>)
    16f2:	47a8      	blx	r5
    16f4:	0002      	movs	r2, r0
    16f6:	000b      	movs	r3, r1
    16f8:	0030      	movs	r0, r6
    16fa:	0039      	movs	r1, r7
    16fc:	47a0      	blx	r4
        pestp[1][1] = term[1][0] * phit[0][1] + term[1][1] * phit[1][1] + term[1][2] * phit[2][1];
    16fe:	2200      	movs	r2, #0
        pestp[1][0] = term[1][0] * phit[0][0] + term[1][1] * phit[1][0] + term[1][2] * phit[2][0];
    1700:	902a      	str	r0, [sp, #168]	; 0xa8
    1702:	912b      	str	r1, [sp, #172]	; 0xac
        pestp[1][1] = term[1][0] * phit[0][1] + term[1][1] * phit[1][1] + term[1][2] * phit[2][1];
    1704:	9818      	ldr	r0, [sp, #96]	; 0x60
    1706:	9919      	ldr	r1, [sp, #100]	; 0x64
    1708:	2300      	movs	r3, #0
    170a:	47a8      	blx	r5
        pestp[1][2] = term[1][0] * phit[0][2] + term[1][1] * phit[1][2] + term[1][2] * phit[2][2];
    170c:	2200      	movs	r2, #0
        pestp[1][1] = term[1][0] * phit[0][1] + term[1][1] * phit[1][1] + term[1][2] * phit[2][1];
    170e:	9032      	str	r0, [sp, #200]	; 0xc8
    1710:	9133      	str	r1, [sp, #204]	; 0xcc
        pestp[1][2] = term[1][0] * phit[0][2] + term[1][1] * phit[1][2] + term[1][2] * phit[2][2];
    1712:	9826      	ldr	r0, [sp, #152]	; 0x98
    1714:	9927      	ldr	r1, [sp, #156]	; 0x9c
    1716:	2300      	movs	r3, #0
    1718:	47a8      	blx	r5
    171a:	9a32      	ldr	r2, [sp, #200]	; 0xc8
    171c:	9b33      	ldr	r3, [sp, #204]	; 0xcc
    171e:	47a0      	blx	r4
    1720:	9a28      	ldr	r2, [sp, #160]	; 0xa0
    1722:	9b29      	ldr	r3, [sp, #164]	; 0xa4
    1724:	47a0      	blx	r4
        pestp[2][0] = term[2][0] * phit[0][0] + term[2][1] * phit[1][0] + term[2][2] * phit[2][0];
    1726:	4ac4      	ldr	r2, [pc, #784]	; (1a38 <computeKalmanGains+0x720>)
        pestp[1][2] = term[1][0] * phit[0][2] + term[1][1] * phit[1][2] + term[1][2] * phit[2][2];
    1728:	902c      	str	r0, [sp, #176]	; 0xb0
    172a:	912d      	str	r1, [sp, #180]	; 0xb4
        pestp[2][0] = term[2][0] * phit[0][0] + term[2][1] * phit[1][0] + term[2][2] * phit[2][0];
    172c:	9806      	ldr	r0, [sp, #24]
    172e:	9907      	ldr	r1, [sp, #28]
    1730:	4bc2      	ldr	r3, [pc, #776]	; (1a3c <computeKalmanGains+0x724>)
    1732:	47a8      	blx	r5
    1734:	9a2e      	ldr	r2, [sp, #184]	; 0xb8
    1736:	9b2f      	ldr	r3, [sp, #188]	; 0xbc
    1738:	47a0      	blx	r4
    173a:	4ac1      	ldr	r2, [pc, #772]	; (1a40 <computeKalmanGains+0x728>)
    173c:	0006      	movs	r6, r0
    173e:	000f      	movs	r7, r1
    1740:	9802      	ldr	r0, [sp, #8]
    1742:	9903      	ldr	r1, [sp, #12]
    1744:	4bbf      	ldr	r3, [pc, #764]	; (1a44 <computeKalmanGains+0x72c>)
    1746:	47a8      	blx	r5
    1748:	0002      	movs	r2, r0
    174a:	000b      	movs	r3, r1
    174c:	0030      	movs	r0, r6
    174e:	0039      	movs	r1, r7
    1750:	47a0      	blx	r4
        pestp[2][1] = term[2][0] * phit[0][1] + term[2][1] * phit[1][1] + term[2][2] * phit[2][1];
    1752:	2200      	movs	r2, #0
        pestp[2][0] = term[2][0] * phit[0][0] + term[2][1] * phit[1][0] + term[2][2] * phit[2][0];
    1754:	9000      	str	r0, [sp, #0]
    1756:	9101      	str	r1, [sp, #4]
        pestp[2][1] = term[2][0] * phit[0][1] + term[2][1] * phit[1][1] + term[2][2] * phit[2][1];
    1758:	982e      	ldr	r0, [sp, #184]	; 0xb8
    175a:	992f      	ldr	r1, [sp, #188]	; 0xbc
    175c:	2300      	movs	r3, #0
    175e:	47a8      	blx	r5
    1760:	0006      	movs	r6, r0
    1762:	000f      	movs	r7, r1
    1764:	0002      	movs	r2, r0
    1766:	000b      	movs	r3, r1
    1768:	9806      	ldr	r0, [sp, #24]
    176a:	9907      	ldr	r1, [sp, #28]
    176c:	47a0      	blx	r4
    176e:	4ab2      	ldr	r2, [pc, #712]	; (1a38 <computeKalmanGains+0x720>)
    1770:	900a      	str	r0, [sp, #40]	; 0x28
    1772:	910b      	str	r1, [sp, #44]	; 0x2c
    1774:	9802      	ldr	r0, [sp, #8]
    1776:	9903      	ldr	r1, [sp, #12]
    1778:	4bb0      	ldr	r3, [pc, #704]	; (1a3c <computeKalmanGains+0x724>)
    177a:	47a8      	blx	r5
    177c:	0002      	movs	r2, r0
    177e:	000b      	movs	r3, r1
    1780:	980a      	ldr	r0, [sp, #40]	; 0x28
    1782:	990b      	ldr	r1, [sp, #44]	; 0x2c
    1784:	47a0      	blx	r4
        pestp[2][2] = term[2][0] * phit[0][2] + term[2][1] * phit[1][2] + term[2][2] * phit[2][2];
    1786:	2200      	movs	r2, #0
        pestp[2][1] = term[2][0] * phit[0][1] + term[2][1] * phit[1][1] + term[2][2] * phit[2][1];
    1788:	9010      	str	r0, [sp, #64]	; 0x40
    178a:	9111      	str	r1, [sp, #68]	; 0x44
        pestp[2][2] = term[2][0] * phit[0][2] + term[2][1] * phit[1][2] + term[2][2] * phit[2][2];
    178c:	9806      	ldr	r0, [sp, #24]
    178e:	9907      	ldr	r1, [sp, #28]
    1790:	2300      	movs	r3, #0
    1792:	47a8      	blx	r5
    1794:	0032      	movs	r2, r6
    1796:	003b      	movs	r3, r7
    1798:	47a0      	blx	r4
    179a:	9a02      	ldr	r2, [sp, #8]
    179c:	9b03      	ldr	r3, [sp, #12]
    179e:	47a0      	blx	r4
        pestp[2][2] = pestp[2][2] + model_variance;
    17a0:	9a3a      	ldr	r2, [sp, #232]	; 0xe8
    17a2:	9b3b      	ldr	r3, [sp, #236]	; 0xec
    17a4:	47a0      	blx	r4
        det = (pestp[0][0]+altitude_variance)*(pestp[2][2] + acceleration_variance) - pestp[2][0] * pestp[0][2];
    17a6:	9a3c      	ldr	r2, [sp, #240]	; 0xf0
    17a8:	9b3d      	ldr	r3, [sp, #244]	; 0xf4
        pestp[2][2] = pestp[2][2] + model_variance;
    17aa:	9002      	str	r0, [sp, #8]
    17ac:	9103      	str	r1, [sp, #12]
        det = (pestp[0][0]+altitude_variance)*(pestp[2][2] + acceleration_variance) - pestp[2][0] * pestp[0][2];
    17ae:	9808      	ldr	r0, [sp, #32]
    17b0:	9909      	ldr	r1, [sp, #36]	; 0x24
    17b2:	47a0      	blx	r4
    17b4:	9a3e      	ldr	r2, [sp, #248]	; 0xf8
    17b6:	9b3f      	ldr	r3, [sp, #252]	; 0xfc
    17b8:	900a      	str	r0, [sp, #40]	; 0x28
    17ba:	910b      	str	r1, [sp, #44]	; 0x2c
    17bc:	9802      	ldr	r0, [sp, #8]
    17be:	9903      	ldr	r1, [sp, #12]
    17c0:	47a0      	blx	r4
    17c2:	9a00      	ldr	r2, [sp, #0]
    17c4:	9b01      	ldr	r3, [sp, #4]
    17c6:	900c      	str	r0, [sp, #48]	; 0x30
    17c8:	910d      	str	r1, [sp, #52]	; 0x34
    17ca:	9804      	ldr	r0, [sp, #16]
    17cc:	9916      	ldr	r1, [sp, #88]	; 0x58
    17ce:	47a8      	blx	r5
    17d0:	9a0c      	ldr	r2, [sp, #48]	; 0x30
    17d2:	9b0d      	ldr	r3, [sp, #52]	; 0x34
    17d4:	900e      	str	r0, [sp, #56]	; 0x38
    17d6:	910f      	str	r1, [sp, #60]	; 0x3c
    17d8:	980a      	ldr	r0, [sp, #40]	; 0x28
    17da:	990b      	ldr	r1, [sp, #44]	; 0x2c
    17dc:	47a8      	blx	r5
    17de:	9a0e      	ldr	r2, [sp, #56]	; 0x38
    17e0:	9b0f      	ldr	r3, [sp, #60]	; 0x3c
    17e2:	4e99      	ldr	r6, [pc, #612]	; (1a48 <computeKalmanGains+0x730>)
    17e4:	47b0      	blx	r6


        kgain[0][0] = (pestp[0][0] * (pestp[2][2] + acceleration_variance) - pestp[0][2] * pestp[2][0])/det;
    17e6:	9a0c      	ldr	r2, [sp, #48]	; 0x30
    17e8:	9b0d      	ldr	r3, [sp, #52]	; 0x34
        det = (pestp[0][0]+altitude_variance)*(pestp[2][2] + acceleration_variance) - pestp[2][0] * pestp[0][2];
    17ea:	9006      	str	r0, [sp, #24]
    17ec:	9107      	str	r1, [sp, #28]
        kgain[0][0] = (pestp[0][0] * (pestp[2][2] + acceleration_variance) - pestp[0][2] * pestp[2][0])/det;
    17ee:	9808      	ldr	r0, [sp, #32]
    17f0:	9909      	ldr	r1, [sp, #36]	; 0x24
    17f2:	47a8      	blx	r5
    17f4:	9a0e      	ldr	r2, [sp, #56]	; 0x38
    17f6:	9b0f      	ldr	r3, [sp, #60]	; 0x3c
    17f8:	47b0      	blx	r6
    17fa:	9a06      	ldr	r2, [sp, #24]
    17fc:	9b07      	ldr	r3, [sp, #28]
    17fe:	4e93      	ldr	r6, [pc, #588]	; (1a4c <computeKalmanGains+0x734>)
    1800:	47b0      	blx	r6
    1802:	9034      	str	r0, [sp, #208]	; 0xd0
    1804:	9135      	str	r1, [sp, #212]	; 0xd4
    1806:	9a34      	ldr	r2, [sp, #208]	; 0xd0
    1808:	9b35      	ldr	r3, [sp, #212]	; 0xd4
    180a:	4991      	ldr	r1, [pc, #580]	; (1a50 <computeKalmanGains+0x738>)
    180c:	600a      	str	r2, [r1, #0]
    180e:	604b      	str	r3, [r1, #4]

        kgain[0][1] = (pestp[0][0] * (-pestp[0][2]) + pestp[0][2] * (pestp[0][0] + altitude_variance))/det;
    1810:	9808      	ldr	r0, [sp, #32]
    1812:	9909      	ldr	r1, [sp, #36]	; 0x24
    1814:	2280      	movs	r2, #128	; 0x80
    1816:	0612      	lsls	r2, r2, #24
    1818:	4694      	mov	ip, r2
    181a:	9b12      	ldr	r3, [sp, #72]	; 0x48
    181c:	9a04      	ldr	r2, [sp, #16]
    181e:	4463      	add	r3, ip
    1820:	932e      	str	r3, [sp, #184]	; 0xb8
    1822:	9b2e      	ldr	r3, [sp, #184]	; 0xb8
    1824:	47a8      	blx	r5
    1826:	9a0a      	ldr	r2, [sp, #40]	; 0x28
    1828:	9b0b      	ldr	r3, [sp, #44]	; 0x2c
    182a:	0006      	movs	r6, r0
    182c:	000f      	movs	r7, r1
    182e:	9804      	ldr	r0, [sp, #16]
    1830:	9916      	ldr	r1, [sp, #88]	; 0x58
    1832:	47a8      	blx	r5
    1834:	0002      	movs	r2, r0
    1836:	000b      	movs	r3, r1
    1838:	0030      	movs	r0, r6
    183a:	0039      	movs	r1, r7
    183c:	47a0      	blx	r4
    183e:	9a06      	ldr	r2, [sp, #24]
    1840:	9b07      	ldr	r3, [sp, #28]
    1842:	4e82      	ldr	r6, [pc, #520]	; (1a4c <computeKalmanGains+0x734>)
    1844:	47b0      	blx	r6
    1846:	900e      	str	r0, [sp, #56]	; 0x38
    1848:	910f      	str	r1, [sp, #60]	; 0x3c
    184a:	4981      	ldr	r1, [pc, #516]	; (1a50 <computeKalmanGains+0x738>)
    184c:	9a0e      	ldr	r2, [sp, #56]	; 0x38
    184e:	9b0f      	ldr	r3, [sp, #60]	; 0x3c
    1850:	608a      	str	r2, [r1, #8]
    1852:	60cb      	str	r3, [r1, #12]

        kgain[1][0] = (pestp[1][0] * (pestp[2][2] + acceleration_variance) - pestp[1][2] * pestp[2][0])/det;
    1854:	9a0c      	ldr	r2, [sp, #48]	; 0x30
    1856:	9b0d      	ldr	r3, [sp, #52]	; 0x34
    1858:	982a      	ldr	r0, [sp, #168]	; 0xa8
    185a:	992b      	ldr	r1, [sp, #172]	; 0xac
    185c:	47a8      	blx	r5
    185e:	9a00      	ldr	r2, [sp, #0]
    1860:	9b01      	ldr	r3, [sp, #4]
    1862:	0006      	movs	r6, r0
    1864:	000f      	movs	r7, r1
    1866:	982c      	ldr	r0, [sp, #176]	; 0xb0
    1868:	992d      	ldr	r1, [sp, #180]	; 0xb4
    186a:	47a8      	blx	r5
    186c:	0002      	movs	r2, r0
    186e:	000b      	movs	r3, r1
    1870:	0030      	movs	r0, r6
    1872:	0039      	movs	r1, r7
    1874:	4e74      	ldr	r6, [pc, #464]	; (1a48 <computeKalmanGains+0x730>)
    1876:	47b0      	blx	r6
    1878:	9a06      	ldr	r2, [sp, #24]
    187a:	9b07      	ldr	r3, [sp, #28]
    187c:	4e73      	ldr	r6, [pc, #460]	; (1a4c <computeKalmanGains+0x734>)
    187e:	47b0      	blx	r6
    1880:	0002      	movs	r2, r0
    1882:	000b      	movs	r3, r1
    1884:	9139      	str	r1, [sp, #228]	; 0xe4
    1886:	4972      	ldr	r1, [pc, #456]	; (1a50 <computeKalmanGains+0x738>)
    1888:	9018      	str	r0, [sp, #96]	; 0x60
    188a:	610a      	str	r2, [r1, #16]
    188c:	614b      	str	r3, [r1, #20]

        kgain[1][1] = (pestp[1][0] * (-pestp[0][2]) + pestp[1][2] * (pestp[0][0] + altitude_variance))/det;
    188e:	982a      	ldr	r0, [sp, #168]	; 0xa8
    1890:	992b      	ldr	r1, [sp, #172]	; 0xac
    1892:	9a04      	ldr	r2, [sp, #16]
    1894:	9b2e      	ldr	r3, [sp, #184]	; 0xb8
    1896:	47a8      	blx	r5
    1898:	9a0a      	ldr	r2, [sp, #40]	; 0x28
    189a:	9b0b      	ldr	r3, [sp, #44]	; 0x2c
    189c:	0006      	movs	r6, r0
    189e:	000f      	movs	r7, r1
    18a0:	982c      	ldr	r0, [sp, #176]	; 0xb0
    18a2:	992d      	ldr	r1, [sp, #180]	; 0xb4
    18a4:	47a8      	blx	r5
    18a6:	0002      	movs	r2, r0
    18a8:	000b      	movs	r3, r1
    18aa:	0030      	movs	r0, r6
    18ac:	0039      	movs	r1, r7
    18ae:	47a0      	blx	r4
    18b0:	9a06      	ldr	r2, [sp, #24]
    18b2:	9b07      	ldr	r3, [sp, #28]
    18b4:	4e65      	ldr	r6, [pc, #404]	; (1a4c <computeKalmanGains+0x734>)
    18b6:	47b0      	blx	r6
    18b8:	9012      	str	r0, [sp, #72]	; 0x48
    18ba:	9113      	str	r1, [sp, #76]	; 0x4c
    18bc:	9a12      	ldr	r2, [sp, #72]	; 0x48
    18be:	9b13      	ldr	r3, [sp, #76]	; 0x4c
    18c0:	4963      	ldr	r1, [pc, #396]	; (1a50 <computeKalmanGains+0x738>)
    18c2:	618a      	str	r2, [r1, #24]
    18c4:	61cb      	str	r3, [r1, #28]

        kgain[2][0] = (pestp[2][0] * (pestp[2][2] + acceleration_variance) - pestp[2][2] * pestp[2][0])/det;
    18c6:	9a0c      	ldr	r2, [sp, #48]	; 0x30
    18c8:	9b0d      	ldr	r3, [sp, #52]	; 0x34
    18ca:	9800      	ldr	r0, [sp, #0]
    18cc:	9901      	ldr	r1, [sp, #4]
    18ce:	47a8      	blx	r5
    18d0:	9a02      	ldr	r2, [sp, #8]
    18d2:	9b03      	ldr	r3, [sp, #12]
    18d4:	0006      	movs	r6, r0
    18d6:	000f      	movs	r7, r1
    18d8:	9800      	ldr	r0, [sp, #0]
    18da:	9901      	ldr	r1, [sp, #4]
    18dc:	47a8      	blx	r5
    18de:	0002      	movs	r2, r0
    18e0:	000b      	movs	r3, r1
    18e2:	0030      	movs	r0, r6
    18e4:	0039      	movs	r1, r7
    18e6:	4e58      	ldr	r6, [pc, #352]	; (1a48 <computeKalmanGains+0x730>)
    18e8:	47b0      	blx	r6
    18ea:	9a06      	ldr	r2, [sp, #24]
    18ec:	9b07      	ldr	r3, [sp, #28]
    18ee:	4e57      	ldr	r6, [pc, #348]	; (1a4c <computeKalmanGains+0x734>)
    18f0:	47b0      	blx	r6
    18f2:	9014      	str	r0, [sp, #80]	; 0x50
    18f4:	9115      	str	r1, [sp, #84]	; 0x54
    18f6:	9a14      	ldr	r2, [sp, #80]	; 0x50
    18f8:	9b15      	ldr	r3, [sp, #84]	; 0x54
    18fa:	4955      	ldr	r1, [pc, #340]	; (1a50 <computeKalmanGains+0x738>)
    18fc:	620a      	str	r2, [r1, #32]
    18fe:	624b      	str	r3, [r1, #36]	; 0x24

        kgain[2][1] = (pestp[2][0] * (-pestp[0][2]) + pestp[2][2] * (pestp[0][0] + altitude_variance))/det;
    1900:	9800      	ldr	r0, [sp, #0]
    1902:	9901      	ldr	r1, [sp, #4]
    1904:	9a04      	ldr	r2, [sp, #16]
    1906:	9b2e      	ldr	r3, [sp, #184]	; 0xb8
    1908:	47a8      	blx	r5
    190a:	9a0a      	ldr	r2, [sp, #40]	; 0x28
    190c:	9b0b      	ldr	r3, [sp, #44]	; 0x2c
    190e:	0006      	movs	r6, r0
    1910:	000f      	movs	r7, r1
    1912:	9802      	ldr	r0, [sp, #8]
    1914:	9903      	ldr	r1, [sp, #12]
    1916:	47a8      	blx	r5
    1918:	0002      	movs	r2, r0
    191a:	000b      	movs	r3, r1
    191c:	0030      	movs	r0, r6
    191e:	0039      	movs	r1, r7
    1920:	47a0      	blx	r4
    1922:	9a06      	ldr	r2, [sp, #24]
    1924:	9b07      	ldr	r3, [sp, #28]
    1926:	4e49      	ldr	r6, [pc, #292]	; (1a4c <computeKalmanGains+0x734>)
    1928:	47b0      	blx	r6
    192a:	9036      	str	r0, [sp, #216]	; 0xd8
    192c:	9137      	str	r1, [sp, #220]	; 0xdc
    192e:	9a36      	ldr	r2, [sp, #216]	; 0xd8
    1930:	9b37      	ldr	r3, [sp, #220]	; 0xdc
    1932:	4947      	ldr	r1, [pc, #284]	; (1a50 <computeKalmanGains+0x738>)

        pest[0][0] = pestp[0][0] * (1.0 - kgain[0][0]) - kgain[0][1]*pestp[2][0];
    1934:	4e44      	ldr	r6, [pc, #272]	; (1a48 <computeKalmanGains+0x730>)
        kgain[2][1] = (pestp[2][0] * (-pestp[0][2]) + pestp[2][2] * (pestp[0][0] + altitude_variance))/det;
    1936:	628a      	str	r2, [r1, #40]	; 0x28
    1938:	62cb      	str	r3, [r1, #44]	; 0x2c
        pest[0][0] = pestp[0][0] * (1.0 - kgain[0][0]) - kgain[0][1]*pestp[2][0];
    193a:	9a34      	ldr	r2, [sp, #208]	; 0xd0
    193c:	9b35      	ldr	r3, [sp, #212]	; 0xd4
    193e:	2000      	movs	r0, #0
    1940:	4944      	ldr	r1, [pc, #272]	; (1a54 <computeKalmanGains+0x73c>)
    1942:	47b0      	blx	r6
    1944:	0002      	movs	r2, r0
    1946:	000b      	movs	r3, r1
    1948:	900c      	str	r0, [sp, #48]	; 0x30
    194a:	910d      	str	r1, [sp, #52]	; 0x34
    194c:	9808      	ldr	r0, [sp, #32]
    194e:	9909      	ldr	r1, [sp, #36]	; 0x24
    1950:	47a8      	blx	r5
    1952:	9a0e      	ldr	r2, [sp, #56]	; 0x38
    1954:	9b0f      	ldr	r3, [sp, #60]	; 0x3c
    1956:	0006      	movs	r6, r0
    1958:	000f      	movs	r7, r1
    195a:	9800      	ldr	r0, [sp, #0]
    195c:	9901      	ldr	r1, [sp, #4]
    195e:	47a8      	blx	r5
    1960:	0002      	movs	r2, r0
    1962:	000b      	movs	r3, r1
    1964:	0030      	movs	r0, r6
    1966:	0039      	movs	r1, r7
    1968:	4e37      	ldr	r6, [pc, #220]	; (1a48 <computeKalmanGains+0x730>)
    196a:	47b0      	blx	r6
        pest[0][1] = pestp[0][1] * (1.0 - kgain[0][0]) - kgain[0][1]*pestp[2][1];
    196c:	9a0c      	ldr	r2, [sp, #48]	; 0x30
    196e:	9b0d      	ldr	r3, [sp, #52]	; 0x34
        pest[0][0] = pestp[0][0] * (1.0 - kgain[0][0]) - kgain[0][1]*pestp[2][0];
    1970:	9006      	str	r0, [sp, #24]
    1972:	9107      	str	r1, [sp, #28]
        pest[0][1] = pestp[0][1] * (1.0 - kgain[0][0]) - kgain[0][1]*pestp[2][1];
    1974:	9830      	ldr	r0, [sp, #192]	; 0xc0
    1976:	9931      	ldr	r1, [sp, #196]	; 0xc4
    1978:	47a8      	blx	r5
    197a:	9a0e      	ldr	r2, [sp, #56]	; 0x38
    197c:	9b0f      	ldr	r3, [sp, #60]	; 0x3c
    197e:	0006      	movs	r6, r0
    1980:	000f      	movs	r7, r1
    1982:	9810      	ldr	r0, [sp, #64]	; 0x40
    1984:	9911      	ldr	r1, [sp, #68]	; 0x44
    1986:	47a8      	blx	r5
    1988:	0002      	movs	r2, r0
    198a:	000b      	movs	r3, r1
    198c:	0030      	movs	r0, r6
    198e:	0039      	movs	r1, r7
    1990:	4e2d      	ldr	r6, [pc, #180]	; (1a48 <computeKalmanGains+0x730>)
    1992:	47b0      	blx	r6
        pest[0][2] = pestp[0][2] * (1.0 - kgain[0][0]) - kgain[0][1]*pestp[2][2];
    1994:	9a0c      	ldr	r2, [sp, #48]	; 0x30
    1996:	9b0d      	ldr	r3, [sp, #52]	; 0x34
        pest[0][1] = pestp[0][1] * (1.0 - kgain[0][0]) - kgain[0][1]*pestp[2][1];
    1998:	900a      	str	r0, [sp, #40]	; 0x28
    199a:	910b      	str	r1, [sp, #44]	; 0x2c
        pest[0][2] = pestp[0][2] * (1.0 - kgain[0][0]) - kgain[0][1]*pestp[2][2];
    199c:	9804      	ldr	r0, [sp, #16]
    199e:	9916      	ldr	r1, [sp, #88]	; 0x58
    19a0:	47a8      	blx	r5
    19a2:	9a0e      	ldr	r2, [sp, #56]	; 0x38
    19a4:	9b0f      	ldr	r3, [sp, #60]	; 0x3c
    19a6:	0006      	movs	r6, r0
    19a8:	000f      	movs	r7, r1
    19aa:	9802      	ldr	r0, [sp, #8]
    19ac:	9903      	ldr	r1, [sp, #12]
    19ae:	47a8      	blx	r5
    19b0:	0002      	movs	r2, r0
    19b2:	000b      	movs	r3, r1
    19b4:	0030      	movs	r0, r6
    19b6:	0039      	movs	r1, r7
    19b8:	4e23      	ldr	r6, [pc, #140]	; (1a48 <computeKalmanGains+0x730>)
    19ba:	47b0      	blx	r6
        pest[1][0] = pestp[0][0] * (-kgain[1][0]) + pestp[1][0] - kgain[1][1]*pestp[2][0];
    19bc:	2280      	movs	r2, #128	; 0x80
    19be:	0612      	lsls	r2, r2, #24
    19c0:	4694      	mov	ip, r2
    19c2:	9b39      	ldr	r3, [sp, #228]	; 0xe4
    19c4:	9a18      	ldr	r2, [sp, #96]	; 0x60
    19c6:	4463      	add	r3, ip
    19c8:	932e      	str	r3, [sp, #184]	; 0xb8
    19ca:	9b2e      	ldr	r3, [sp, #184]	; 0xb8
        pest[0][2] = pestp[0][2] * (1.0 - kgain[0][0]) - kgain[0][1]*pestp[2][2];
    19cc:	900c      	str	r0, [sp, #48]	; 0x30
    19ce:	910d      	str	r1, [sp, #52]	; 0x34
        pest[1][0] = pestp[0][0] * (-kgain[1][0]) + pestp[1][0] - kgain[1][1]*pestp[2][0];
    19d0:	9808      	ldr	r0, [sp, #32]
    19d2:	9909      	ldr	r1, [sp, #36]	; 0x24
    19d4:	47a8      	blx	r5
    19d6:	9a2a      	ldr	r2, [sp, #168]	; 0xa8
    19d8:	9b2b      	ldr	r3, [sp, #172]	; 0xac
    19da:	47a0      	blx	r4
    19dc:	9a12      	ldr	r2, [sp, #72]	; 0x48
    19de:	9b13      	ldr	r3, [sp, #76]	; 0x4c
    19e0:	0006      	movs	r6, r0
    19e2:	000f      	movs	r7, r1
    19e4:	9800      	ldr	r0, [sp, #0]
    19e6:	9901      	ldr	r1, [sp, #4]
    19e8:	47a8      	blx	r5
    19ea:	0002      	movs	r2, r0
    19ec:	000b      	movs	r3, r1
    19ee:	0030      	movs	r0, r6
    19f0:	0039      	movs	r1, r7
    19f2:	4e15      	ldr	r6, [pc, #84]	; (1a48 <computeKalmanGains+0x730>)
    19f4:	47b0      	blx	r6
        pestp[1][1] = term[1][0] * phit[0][1] + term[1][1] * phit[1][1] + term[1][2] * phit[2][1];
    19f6:	9a32      	ldr	r2, [sp, #200]	; 0xc8
    19f8:	9b33      	ldr	r3, [sp, #204]	; 0xcc
        pest[1][0] = pestp[0][0] * (-kgain[1][0]) + pestp[1][0] - kgain[1][1]*pestp[2][0];
    19fa:	9008      	str	r0, [sp, #32]
    19fc:	9109      	str	r1, [sp, #36]	; 0x24
        pestp[1][1] = term[1][0] * phit[0][1] + term[1][1] * phit[1][1] + term[1][2] * phit[2][1];
    19fe:	9826      	ldr	r0, [sp, #152]	; 0x98
    1a00:	9927      	ldr	r1, [sp, #156]	; 0x9c
    1a02:	47a0      	blx	r4
    1a04:	4a0c      	ldr	r2, [pc, #48]	; (1a38 <computeKalmanGains+0x720>)
    1a06:	0006      	movs	r6, r0
    1a08:	000f      	movs	r7, r1
    1a0a:	9828      	ldr	r0, [sp, #160]	; 0xa0
    1a0c:	9929      	ldr	r1, [sp, #164]	; 0xa4
    1a0e:	4b0b      	ldr	r3, [pc, #44]	; (1a3c <computeKalmanGains+0x724>)
    1a10:	47a8      	blx	r5
    1a12:	0002      	movs	r2, r0
    1a14:	000b      	movs	r3, r1
    1a16:	0030      	movs	r0, r6
    1a18:	0039      	movs	r1, r7
    1a1a:	47a0      	blx	r4
        pest[1][1] = pestp[0][1] * (-kgain[1][0]) + pestp[1][1] - kgain[1][1]*pestp[2][1];
    1a1c:	9a18      	ldr	r2, [sp, #96]	; 0x60
        pestp[1][1] = term[1][0] * phit[0][1] + term[1][1] * phit[1][1] + term[1][2] * phit[2][1];
    1a1e:	0006      	movs	r6, r0
    1a20:	000f      	movs	r7, r1
        pest[1][1] = pestp[0][1] * (-kgain[1][0]) + pestp[1][1] - kgain[1][1]*pestp[2][1];
    1a22:	9830      	ldr	r0, [sp, #192]	; 0xc0
    1a24:	9931      	ldr	r1, [sp, #196]	; 0xc4
    1a26:	9b2e      	ldr	r3, [sp, #184]	; 0xb8
    1a28:	47a8      	blx	r5
    1a2a:	0002      	movs	r2, r0
    1a2c:	000b      	movs	r3, r1
    1a2e:	0030      	movs	r0, r6
    1a30:	0039      	movs	r1, r7
    1a32:	47a0      	blx	r4
    1a34:	e010      	b.n	1a58 <computeKalmanGains+0x740>
    1a36:	46c0      	nop			; (mov r8, r8)
    1a38:	47ae147b 	.word	0x47ae147b
    1a3c:	3f747ae1 	.word	0x3f747ae1
    1a40:	eb1c432d 	.word	0xeb1c432d
    1a44:	3eea36e2 	.word	0x3eea36e2
    1a48:	0000560d 	.word	0x0000560d
    1a4c:	000048a5 	.word	0x000048a5
    1a50:	20000650 	.word	0x20000650
    1a54:	3ff00000 	.word	0x3ff00000
    1a58:	9a12      	ldr	r2, [sp, #72]	; 0x48
    1a5a:	9b13      	ldr	r3, [sp, #76]	; 0x4c
    1a5c:	0006      	movs	r6, r0
    1a5e:	000f      	movs	r7, r1
    1a60:	9810      	ldr	r0, [sp, #64]	; 0x40
    1a62:	9911      	ldr	r1, [sp, #68]	; 0x44
    1a64:	47a8      	blx	r5
    1a66:	0002      	movs	r2, r0
    1a68:	000b      	movs	r3, r1
    1a6a:	0030      	movs	r0, r6
    1a6c:	0039      	movs	r1, r7
    1a6e:	4e4c      	ldr	r6, [pc, #304]	; (1ba0 <computeKalmanGains+0x888>)
    1a70:	47b0      	blx	r6
        pest[1][2] = pestp[0][2] * (-kgain[1][0]) + pestp[1][2] - kgain[1][1]*pestp[2][2];
    1a72:	9a18      	ldr	r2, [sp, #96]	; 0x60
        pest[1][1] = pestp[0][1] * (-kgain[1][0]) + pestp[1][1] - kgain[1][1]*pestp[2][1];
    1a74:	900e      	str	r0, [sp, #56]	; 0x38
    1a76:	910f      	str	r1, [sp, #60]	; 0x3c
        pest[1][2] = pestp[0][2] * (-kgain[1][0]) + pestp[1][2] - kgain[1][1]*pestp[2][2];
    1a78:	9b2e      	ldr	r3, [sp, #184]	; 0xb8
    1a7a:	9804      	ldr	r0, [sp, #16]
    1a7c:	9916      	ldr	r1, [sp, #88]	; 0x58
    1a7e:	47a8      	blx	r5
    1a80:	9a2c      	ldr	r2, [sp, #176]	; 0xb0
    1a82:	9b2d      	ldr	r3, [sp, #180]	; 0xb4
    1a84:	47a0      	blx	r4
    1a86:	9a12      	ldr	r2, [sp, #72]	; 0x48
    1a88:	9b13      	ldr	r3, [sp, #76]	; 0x4c
    1a8a:	0006      	movs	r6, r0
    1a8c:	000f      	movs	r7, r1
    1a8e:	9802      	ldr	r0, [sp, #8]
    1a90:	9903      	ldr	r1, [sp, #12]
    1a92:	47a8      	blx	r5
    1a94:	4c42      	ldr	r4, [pc, #264]	; (1ba0 <computeKalmanGains+0x888>)
    1a96:	0002      	movs	r2, r0
    1a98:	000b      	movs	r3, r1
    1a9a:	0030      	movs	r0, r6
    1a9c:	0039      	movs	r1, r7
    1a9e:	47a0      	blx	r4
        pest[2][0] = (1.0 - kgain[2][1]) * pestp[2][0] - kgain[2][0] * pestp[2][0];
    1aa0:	9a36      	ldr	r2, [sp, #216]	; 0xd8
    1aa2:	9b37      	ldr	r3, [sp, #220]	; 0xdc
        pest[1][2] = pestp[0][2] * (-kgain[1][0]) + pestp[1][2] - kgain[1][1]*pestp[2][2];
    1aa4:	9004      	str	r0, [sp, #16]
    1aa6:	9105      	str	r1, [sp, #20]
        pest[2][0] = (1.0 - kgain[2][1]) * pestp[2][0] - kgain[2][0] * pestp[2][0];
    1aa8:	2000      	movs	r0, #0
    1aaa:	493e      	ldr	r1, [pc, #248]	; (1ba4 <computeKalmanGains+0x88c>)
    1aac:	47a0      	blx	r4
    1aae:	0002      	movs	r2, r0
    1ab0:	000b      	movs	r3, r1
    1ab2:	9012      	str	r0, [sp, #72]	; 0x48
    1ab4:	9113      	str	r1, [sp, #76]	; 0x4c
    1ab6:	9800      	ldr	r0, [sp, #0]
    1ab8:	9901      	ldr	r1, [sp, #4]
    1aba:	47a8      	blx	r5
    1abc:	9a14      	ldr	r2, [sp, #80]	; 0x50
    1abe:	9b15      	ldr	r3, [sp, #84]	; 0x54
    1ac0:	0006      	movs	r6, r0
    1ac2:	000f      	movs	r7, r1
    1ac4:	9800      	ldr	r0, [sp, #0]
    1ac6:	9901      	ldr	r1, [sp, #4]
    1ac8:	47a8      	blx	r5
    1aca:	0002      	movs	r2, r0
    1acc:	000b      	movs	r3, r1
    1ace:	0030      	movs	r0, r6
    1ad0:	0039      	movs	r1, r7
    1ad2:	47a0      	blx	r4
    1ad4:	9000      	str	r0, [sp, #0]
    1ad6:	9101      	str	r1, [sp, #4]
        pest[2][1] = (1.0 - kgain[2][1]) * pestp[2][1] - kgain[2][0] * pestp[2][1];
    1ad8:	9a12      	ldr	r2, [sp, #72]	; 0x48
    1ada:	9b13      	ldr	r3, [sp, #76]	; 0x4c
    1adc:	9810      	ldr	r0, [sp, #64]	; 0x40
    1ade:	9911      	ldr	r1, [sp, #68]	; 0x44
    1ae0:	47a8      	blx	r5
    1ae2:	9a14      	ldr	r2, [sp, #80]	; 0x50
    1ae4:	9b15      	ldr	r3, [sp, #84]	; 0x54
    1ae6:	0006      	movs	r6, r0
    1ae8:	000f      	movs	r7, r1
    1aea:	9810      	ldr	r0, [sp, #64]	; 0x40
    1aec:	9911      	ldr	r1, [sp, #68]	; 0x44
    1aee:	47a8      	blx	r5
    1af0:	0002      	movs	r2, r0
    1af2:	000b      	movs	r3, r1
    1af4:	0030      	movs	r0, r6
    1af6:	0039      	movs	r1, r7
    1af8:	47a0      	blx	r4
        pest[2][2] = (1.0 - kgain[2][1]) * pestp[2][2] - kgain[2][0] * pestp[2][2];
    1afa:	9a12      	ldr	r2, [sp, #72]	; 0x48
    1afc:	9b13      	ldr	r3, [sp, #76]	; 0x4c
        pest[2][1] = (1.0 - kgain[2][1]) * pestp[2][1] - kgain[2][0] * pestp[2][1];
    1afe:	9010      	str	r0, [sp, #64]	; 0x40
    1b00:	9111      	str	r1, [sp, #68]	; 0x44
        pest[2][2] = (1.0 - kgain[2][1]) * pestp[2][2] - kgain[2][0] * pestp[2][2];
    1b02:	9802      	ldr	r0, [sp, #8]
    1b04:	9903      	ldr	r1, [sp, #12]
    1b06:	47a8      	blx	r5
    1b08:	9a14      	ldr	r2, [sp, #80]	; 0x50
    1b0a:	9b15      	ldr	r3, [sp, #84]	; 0x54
    1b0c:	000f      	movs	r7, r1
    1b0e:	0006      	movs	r6, r0
    1b10:	9802      	ldr	r0, [sp, #8]
    1b12:	9903      	ldr	r1, [sp, #12]
    1b14:	47a8      	blx	r5
    1b16:	000b      	movs	r3, r1
    1b18:	0002      	movs	r2, r0
    1b1a:	0039      	movs	r1, r7
    1b1c:	0030      	movs	r0, r6
    1b1e:	47a0      	blx	r4
         * time through the mill. Because I have noticed very early convergance
         * in a few cases (< 20 iterations) I am delaying this for at least
         * 100 iterations.
         */
        notdone = 0;
        k++;
    1b20:	9b38      	ldr	r3, [sp, #224]	; 0xe0
    1b22:	2510      	movs	r5, #16
    1b24:	3301      	adds	r3, #1
    1b26:	9338      	str	r3, [sp, #224]	; 0xe0
        notdone = 0;
    1b28:	2300      	movs	r3, #0
        pest[2][2] = (1.0 - kgain[2][1]) * pestp[2][2] - kgain[2][0] * pestp[2][2];
    1b2a:	9002      	str	r0, [sp, #8]
    1b2c:	9103      	str	r1, [sp, #12]
        notdone = 0;
    1b2e:	001f      	movs	r7, r3
        for( i = 0; i <= 2; i++)
            for( j = 0; j <= 1; j++) {
                if( (kgain[i][j] - lastkgain[i][j])/lastkgain[i][j] > 0.00001)
    1b30:	4b1d      	ldr	r3, [pc, #116]	; (1ba8 <computeKalmanGains+0x890>)
    1b32:	9426      	str	r4, [sp, #152]	; 0x98
    1b34:	9318      	str	r3, [sp, #96]	; 0x60
    1b36:	002c      	movs	r4, r5
    1b38:	3c10      	subs	r4, #16
    1b3a:	9b18      	ldr	r3, [sp, #96]	; 0x60
    1b3c:	9e26      	ldr	r6, [sp, #152]	; 0x98
    1b3e:	18e3      	adds	r3, r4, r3
    1b40:	681a      	ldr	r2, [r3, #0]
    1b42:	685b      	ldr	r3, [r3, #4]
    1b44:	9212      	str	r2, [sp, #72]	; 0x48
    1b46:	9313      	str	r3, [sp, #76]	; 0x4c
    1b48:	9812      	ldr	r0, [sp, #72]	; 0x48
    1b4a:	9913      	ldr	r1, [sp, #76]	; 0x4c
    1b4c:	aa40      	add	r2, sp, #256	; 0x100
    1b4e:	18a3      	adds	r3, r4, r2
    1b50:	9316      	str	r3, [sp, #88]	; 0x58
    1b52:	681a      	ldr	r2, [r3, #0]
    1b54:	685b      	ldr	r3, [r3, #4]
    1b56:	9214      	str	r2, [sp, #80]	; 0x50
    1b58:	9315      	str	r3, [sp, #84]	; 0x54
    1b5a:	47b0      	blx	r6
    1b5c:	9a14      	ldr	r2, [sp, #80]	; 0x50
    1b5e:	9b15      	ldr	r3, [sp, #84]	; 0x54
    1b60:	4e12      	ldr	r6, [pc, #72]	; (1bac <computeKalmanGains+0x894>)
    1b62:	47b0      	blx	r6
    1b64:	4b12      	ldr	r3, [pc, #72]	; (1bb0 <computeKalmanGains+0x898>)
    1b66:	4a13      	ldr	r2, [pc, #76]	; (1bb4 <computeKalmanGains+0x89c>)
    1b68:	4e13      	ldr	r6, [pc, #76]	; (1bb8 <computeKalmanGains+0x8a0>)
    1b6a:	47b0      	blx	r6
                    notdone++;
    1b6c:	1e43      	subs	r3, r0, #1
    1b6e:	4198      	sbcs	r0, r3
                lastkgain[i][j] = kgain[i][j];
    1b70:	9916      	ldr	r1, [sp, #88]	; 0x58
                    notdone++;
    1b72:	183b      	adds	r3, r7, r0
    1b74:	3408      	adds	r4, #8
    1b76:	001f      	movs	r7, r3
                lastkgain[i][j] = kgain[i][j];
    1b78:	9a12      	ldr	r2, [sp, #72]	; 0x48
    1b7a:	9b13      	ldr	r3, [sp, #76]	; 0x4c
    1b7c:	600a      	str	r2, [r1, #0]
    1b7e:	604b      	str	r3, [r1, #4]
            for( j = 0; j <= 1; j++) {
    1b80:	42a5      	cmp	r5, r4
    1b82:	d1da      	bne.n	1b3a <computeKalmanGains+0x822>
    1b84:	3510      	adds	r5, #16
        for( i = 0; i <= 2; i++)
    1b86:	2d40      	cmp	r5, #64	; 0x40
    1b88:	d1d5      	bne.n	1b36 <computeKalmanGains+0x81e>
            }
        if( notdone || k < 100)
    1b8a:	2f00      	cmp	r7, #0
    1b8c:	d001      	beq.n	1b92 <computeKalmanGains+0x87a>
    1b8e:	f7ff fc32 	bl	13f6 <computeKalmanGains+0xde>
    1b92:	9b38      	ldr	r3, [sp, #224]	; 0xe0
    1b94:	2b63      	cmp	r3, #99	; 0x63
    1b96:	dc01      	bgt.n	1b9c <computeKalmanGains+0x884>
    1b98:	f7ff fc2d 	bl	13f6 <computeKalmanGains+0xde>
            continue;
        else
            break;
    }
}
    1b9c:	b04d      	add	sp, #308	; 0x134
    1b9e:	bdf0      	pop	{r4, r5, r6, r7, pc}
    1ba0:	0000560d 	.word	0x0000560d
    1ba4:	3ff00000 	.word	0x3ff00000
    1ba8:	20000650 	.word	0x20000650
    1bac:	000048a5 	.word	0x000048a5
    1bb0:	3ee4f8b5 	.word	0x3ee4f8b5
    1bb4:	88e368f1 	.word	0x88e368f1
    1bb8:	00003981 	.word	0x00003981

00001bbc <computeKalmanStates>:

void computeKalmanStates() {
    1bbc:	b5f0      	push	{r4, r5, r6, r7, lr}

    double alt_inovation, accel_inovation;


    double acceleration = (sample.accelZ - offsets.gravityOffset) * 32.17417;
    1bbe:	4d7e      	ldr	r5, [pc, #504]	; (1db8 <computeKalmanStates+0x1fc>)
void computeKalmanStates() {
    1bc0:	b08f      	sub	sp, #60	; 0x3c
    double acceleration = (sample.accelZ - offsets.gravityOffset) * 32.17417;
    1bc2:	6aa8      	ldr	r0, [r5, #40]	; 0x28
    1bc4:	4b7d      	ldr	r3, [pc, #500]	; (1dbc <computeKalmanStates+0x200>)
    1bc6:	4798      	blx	r3
    1bc8:	4b7d      	ldr	r3, [pc, #500]	; (1dc0 <computeKalmanStates+0x204>)
    1bca:	4c7e      	ldr	r4, [pc, #504]	; (1dc4 <computeKalmanStates+0x208>)
    1bcc:	689a      	ldr	r2, [r3, #8]
    1bce:	68db      	ldr	r3, [r3, #12]
    1bd0:	47a0      	blx	r4
    1bd2:	4a7d      	ldr	r2, [pc, #500]	; (1dc8 <computeKalmanStates+0x20c>)
    1bd4:	4b7d      	ldr	r3, [pc, #500]	; (1dcc <computeKalmanStates+0x210>)
    1bd6:	4e7e      	ldr	r6, [pc, #504]	; (1dd0 <computeKalmanStates+0x214>)
    1bd8:	47b0      	blx	r6
    double pressure = sample.altitudefeet;
    1bda:	6c2e      	ldr	r6, [r5, #64]	; 0x40
    1bdc:	6c6f      	ldr	r7, [r5, #68]	; 0x44
    double acceleration = (sample.accelZ - offsets.gravityOffset) * 32.17417;
    1bde:	9000      	str	r0, [sp, #0]
    1be0:	9101      	str	r1, [sp, #4]

    if (altitude == 0) {
    1be2:	497c      	ldr	r1, [pc, #496]	; (1dd4 <computeKalmanStates+0x218>)
    1be4:	2200      	movs	r2, #0
    1be6:	6808      	ldr	r0, [r1, #0]
    1be8:	6849      	ldr	r1, [r1, #4]
    1bea:	2300      	movs	r3, #0
    1bec:	4d7a      	ldr	r5, [pc, #488]	; (1dd8 <computeKalmanStates+0x21c>)
    1bee:	47a8      	blx	r5
    1bf0:	2800      	cmp	r0, #0
    1bf2:	d002      	beq.n	1bfa <computeKalmanStates+0x3e>
        altitude = pressure;
    1bf4:	4b77      	ldr	r3, [pc, #476]	; (1dd4 <computeKalmanStates+0x218>)
    1bf6:	601e      	str	r6, [r3, #0]
    1bf8:	605f      	str	r7, [r3, #4]
    }

    /* Compute the innovations */
    alt_inovation = pressure - estp[0];
    1bfa:	4b78      	ldr	r3, [pc, #480]	; (1ddc <computeKalmanStates+0x220>)
    1bfc:	0030      	movs	r0, r6
    1bfe:	681a      	ldr	r2, [r3, #0]
    1c00:	685b      	ldr	r3, [r3, #4]
    1c02:	0039      	movs	r1, r7
    1c04:	47a0      	blx	r4
    accel_inovation = acceleration - estp[2];
    1c06:	4b75      	ldr	r3, [pc, #468]	; (1ddc <computeKalmanStates+0x220>)
    alt_inovation = pressure - estp[0];
    1c08:	9006      	str	r0, [sp, #24]
    1c0a:	9107      	str	r1, [sp, #28]
    accel_inovation = acceleration - estp[2];
    1c0c:	691a      	ldr	r2, [r3, #16]
    1c0e:	695b      	ldr	r3, [r3, #20]
    1c10:	9800      	ldr	r0, [sp, #0]
    1c12:	9901      	ldr	r1, [sp, #4]
    1c14:	47a0      	blx	r4


    /* Propagate state */
    estp[0] = phi[0][0] * altitude + phi[0][1] *velocity + phi[0][2] * accel;
    1c16:	4b6f      	ldr	r3, [pc, #444]	; (1dd4 <computeKalmanStates+0x218>)
    1c18:	4d6d      	ldr	r5, [pc, #436]	; (1dd0 <computeKalmanStates+0x214>)
    1c1a:	685c      	ldr	r4, [r3, #4]
    1c1c:	681b      	ldr	r3, [r3, #0]
    1c1e:	9300      	str	r3, [sp, #0]
    1c20:	9401      	str	r4, [sp, #4]
    1c22:	4b6f      	ldr	r3, [pc, #444]	; (1de0 <computeKalmanStates+0x224>)
    accel_inovation = acceleration - estp[2];
    1c24:	9008      	str	r0, [sp, #32]
    1c26:	9109      	str	r1, [sp, #36]	; 0x24
    estp[0] = phi[0][0] * altitude + phi[0][1] *velocity + phi[0][2] * accel;
    1c28:	685c      	ldr	r4, [r3, #4]
    1c2a:	681b      	ldr	r3, [r3, #0]
    1c2c:	9800      	ldr	r0, [sp, #0]
    1c2e:	9901      	ldr	r1, [sp, #4]
    1c30:	9302      	str	r3, [sp, #8]
    1c32:	9403      	str	r4, [sp, #12]
    1c34:	4b6b      	ldr	r3, [pc, #428]	; (1de4 <computeKalmanStates+0x228>)
    1c36:	685c      	ldr	r4, [r3, #4]
    1c38:	681b      	ldr	r3, [r3, #0]
    1c3a:	9304      	str	r3, [sp, #16]
    1c3c:	9405      	str	r4, [sp, #20]
    1c3e:	4c6a      	ldr	r4, [pc, #424]	; (1de8 <computeKalmanStates+0x22c>)
    1c40:	6822      	ldr	r2, [r4, #0]
    1c42:	6863      	ldr	r3, [r4, #4]
    1c44:	47a8      	blx	r5
    1c46:	68a2      	ldr	r2, [r4, #8]
    1c48:	68e3      	ldr	r3, [r4, #12]
    1c4a:	0006      	movs	r6, r0
    1c4c:	000f      	movs	r7, r1
    1c4e:	9802      	ldr	r0, [sp, #8]
    1c50:	9903      	ldr	r1, [sp, #12]
    1c52:	47a8      	blx	r5
    1c54:	0002      	movs	r2, r0
    1c56:	000b      	movs	r3, r1
    1c58:	0030      	movs	r0, r6
    1c5a:	0039      	movs	r1, r7
    1c5c:	4e63      	ldr	r6, [pc, #396]	; (1dec <computeKalmanStates+0x230>)
    1c5e:	47b0      	blx	r6
    1c60:	6922      	ldr	r2, [r4, #16]
    1c62:	6963      	ldr	r3, [r4, #20]
    1c64:	0006      	movs	r6, r0
    1c66:	000f      	movs	r7, r1
    1c68:	9804      	ldr	r0, [sp, #16]
    1c6a:	9905      	ldr	r1, [sp, #20]
    1c6c:	47a8      	blx	r5
    1c6e:	0002      	movs	r2, r0
    1c70:	000b      	movs	r3, r1
    1c72:	0030      	movs	r0, r6
    1c74:	0039      	movs	r1, r7
    1c76:	4e5d      	ldr	r6, [pc, #372]	; (1dec <computeKalmanStates+0x230>)
    1c78:	47b0      	blx	r6
    1c7a:	900a      	str	r0, [sp, #40]	; 0x28
    1c7c:	910b      	str	r1, [sp, #44]	; 0x2c
    1c7e:	9a0a      	ldr	r2, [sp, #40]	; 0x28
    1c80:	9b0b      	ldr	r3, [sp, #44]	; 0x2c
    1c82:	4956      	ldr	r1, [pc, #344]	; (1ddc <computeKalmanStates+0x220>)
    1c84:	600a      	str	r2, [r1, #0]
    1c86:	604b      	str	r3, [r1, #4]
    estp[1] = phi[1][0] * altitude + phi[1][1] * velocity + phi[1][2] * accel;
    1c88:	69a2      	ldr	r2, [r4, #24]
    1c8a:	69e3      	ldr	r3, [r4, #28]
    1c8c:	9800      	ldr	r0, [sp, #0]
    1c8e:	9901      	ldr	r1, [sp, #4]
    1c90:	47a8      	blx	r5
    1c92:	6a22      	ldr	r2, [r4, #32]
    1c94:	6a63      	ldr	r3, [r4, #36]	; 0x24
    1c96:	0006      	movs	r6, r0
    1c98:	000f      	movs	r7, r1
    1c9a:	9802      	ldr	r0, [sp, #8]
    1c9c:	9903      	ldr	r1, [sp, #12]
    1c9e:	47a8      	blx	r5
    1ca0:	0002      	movs	r2, r0
    1ca2:	000b      	movs	r3, r1
    1ca4:	0030      	movs	r0, r6
    1ca6:	0039      	movs	r1, r7
    1ca8:	4e50      	ldr	r6, [pc, #320]	; (1dec <computeKalmanStates+0x230>)
    1caa:	47b0      	blx	r6
    1cac:	6aa2      	ldr	r2, [r4, #40]	; 0x28
    1cae:	6ae3      	ldr	r3, [r4, #44]	; 0x2c
    1cb0:	0006      	movs	r6, r0
    1cb2:	000f      	movs	r7, r1
    1cb4:	9804      	ldr	r0, [sp, #16]
    1cb6:	9905      	ldr	r1, [sp, #20]
    1cb8:	47a8      	blx	r5
    1cba:	0002      	movs	r2, r0
    1cbc:	000b      	movs	r3, r1
    1cbe:	0030      	movs	r0, r6
    1cc0:	0039      	movs	r1, r7
    1cc2:	4e4a      	ldr	r6, [pc, #296]	; (1dec <computeKalmanStates+0x230>)
    1cc4:	47b0      	blx	r6
    1cc6:	900c      	str	r0, [sp, #48]	; 0x30
    1cc8:	910d      	str	r1, [sp, #52]	; 0x34
    1cca:	9a0c      	ldr	r2, [sp, #48]	; 0x30
    1ccc:	9b0d      	ldr	r3, [sp, #52]	; 0x34
    1cce:	4943      	ldr	r1, [pc, #268]	; (1ddc <computeKalmanStates+0x220>)
    1cd0:	608a      	str	r2, [r1, #8]
    1cd2:	60cb      	str	r3, [r1, #12]
    estp[2] = phi[2][0] * altitude + phi[2][1] * velocity + phi[2][2] * accel;
    1cd4:	6b22      	ldr	r2, [r4, #48]	; 0x30
    1cd6:	6b63      	ldr	r3, [r4, #52]	; 0x34
    1cd8:	9800      	ldr	r0, [sp, #0]
    1cda:	9901      	ldr	r1, [sp, #4]
    1cdc:	47a8      	blx	r5
    1cde:	6ba2      	ldr	r2, [r4, #56]	; 0x38
    1ce0:	6be3      	ldr	r3, [r4, #60]	; 0x3c
    1ce2:	0006      	movs	r6, r0
    1ce4:	000f      	movs	r7, r1
    1ce6:	9802      	ldr	r0, [sp, #8]
    1ce8:	9903      	ldr	r1, [sp, #12]
    1cea:	47a8      	blx	r5
    1cec:	0002      	movs	r2, r0
    1cee:	000b      	movs	r3, r1
    1cf0:	0030      	movs	r0, r6
    1cf2:	0039      	movs	r1, r7
    1cf4:	4e3d      	ldr	r6, [pc, #244]	; (1dec <computeKalmanStates+0x230>)
    1cf6:	47b0      	blx	r6
    1cf8:	6c22      	ldr	r2, [r4, #64]	; 0x40
    1cfa:	6c63      	ldr	r3, [r4, #68]	; 0x44
    1cfc:	0006      	movs	r6, r0
    1cfe:	000f      	movs	r7, r1
    1d00:	9804      	ldr	r0, [sp, #16]
    1d02:	9905      	ldr	r1, [sp, #20]
    1d04:	47a8      	blx	r5
    1d06:	4c39      	ldr	r4, [pc, #228]	; (1dec <computeKalmanStates+0x230>)
    1d08:	0002      	movs	r2, r0
    1d0a:	000b      	movs	r3, r1
    1d0c:	0030      	movs	r0, r6
    1d0e:	0039      	movs	r1, r7
    1d10:	47a0      	blx	r4
    1d12:	0003      	movs	r3, r0
    1d14:	000c      	movs	r4, r1
    1d16:	4a31      	ldr	r2, [pc, #196]	; (1ddc <computeKalmanStates+0x220>)
    1d18:	9000      	str	r0, [sp, #0]
    1d1a:	9101      	str	r1, [sp, #4]
    1d1c:	6113      	str	r3, [r2, #16]
    1d1e:	6154      	str	r4, [r2, #20]

    /*
    Update state
    */
    altitude = estp[0] + kgain[0][0] * alt_inovation + kgain[0][1] * accel_inovation;
    1d20:	4c33      	ldr	r4, [pc, #204]	; (1df0 <computeKalmanStates+0x234>)
    1d22:	6822      	ldr	r2, [r4, #0]
    1d24:	6863      	ldr	r3, [r4, #4]
    1d26:	9806      	ldr	r0, [sp, #24]
    1d28:	9907      	ldr	r1, [sp, #28]
    1d2a:	47a8      	blx	r5
    1d2c:	9a0a      	ldr	r2, [sp, #40]	; 0x28
    1d2e:	9b0b      	ldr	r3, [sp, #44]	; 0x2c
    1d30:	4e2e      	ldr	r6, [pc, #184]	; (1dec <computeKalmanStates+0x230>)
    1d32:	47b0      	blx	r6
    1d34:	68a2      	ldr	r2, [r4, #8]
    1d36:	68e3      	ldr	r3, [r4, #12]
    1d38:	0006      	movs	r6, r0
    1d3a:	000f      	movs	r7, r1
    1d3c:	9808      	ldr	r0, [sp, #32]
    1d3e:	9909      	ldr	r1, [sp, #36]	; 0x24
    1d40:	47a8      	blx	r5
    1d42:	0002      	movs	r2, r0
    1d44:	000b      	movs	r3, r1
    1d46:	0030      	movs	r0, r6
    1d48:	0039      	movs	r1, r7
    1d4a:	4e28      	ldr	r6, [pc, #160]	; (1dec <computeKalmanStates+0x230>)
    1d4c:	47b0      	blx	r6
    1d4e:	4b21      	ldr	r3, [pc, #132]	; (1dd4 <computeKalmanStates+0x218>)
    1d50:	6018      	str	r0, [r3, #0]
    1d52:	6059      	str	r1, [r3, #4]
    velocity = estp[1] + kgain[1][0] * alt_inovation + kgain[1][1] * accel_inovation;
    1d54:	6922      	ldr	r2, [r4, #16]
    1d56:	6963      	ldr	r3, [r4, #20]
    1d58:	9806      	ldr	r0, [sp, #24]
    1d5a:	9907      	ldr	r1, [sp, #28]
    1d5c:	47a8      	blx	r5
    1d5e:	9a0c      	ldr	r2, [sp, #48]	; 0x30
    1d60:	9b0d      	ldr	r3, [sp, #52]	; 0x34
    1d62:	47b0      	blx	r6
    1d64:	69a2      	ldr	r2, [r4, #24]
    1d66:	69e3      	ldr	r3, [r4, #28]
    1d68:	0006      	movs	r6, r0
    1d6a:	000f      	movs	r7, r1
    1d6c:	9808      	ldr	r0, [sp, #32]
    1d6e:	9909      	ldr	r1, [sp, #36]	; 0x24
    1d70:	47a8      	blx	r5
    1d72:	0002      	movs	r2, r0
    1d74:	000b      	movs	r3, r1
    1d76:	0030      	movs	r0, r6
    1d78:	0039      	movs	r1, r7
    1d7a:	4e1c      	ldr	r6, [pc, #112]	; (1dec <computeKalmanStates+0x230>)
    1d7c:	47b0      	blx	r6
    1d7e:	4b18      	ldr	r3, [pc, #96]	; (1de0 <computeKalmanStates+0x224>)
    1d80:	6018      	str	r0, [r3, #0]
    1d82:	6059      	str	r1, [r3, #4]
    accel =    estp[2] + kgain[2][0] * alt_inovation + kgain[2][1] * accel_inovation;
    1d84:	6a22      	ldr	r2, [r4, #32]
    1d86:	6a63      	ldr	r3, [r4, #36]	; 0x24
    1d88:	9806      	ldr	r0, [sp, #24]
    1d8a:	9907      	ldr	r1, [sp, #28]
    1d8c:	47a8      	blx	r5
    1d8e:	9a00      	ldr	r2, [sp, #0]
    1d90:	9b01      	ldr	r3, [sp, #4]
    1d92:	47b0      	blx	r6
    1d94:	6aa2      	ldr	r2, [r4, #40]	; 0x28
    1d96:	6ae3      	ldr	r3, [r4, #44]	; 0x2c
    1d98:	0006      	movs	r6, r0
    1d9a:	000f      	movs	r7, r1
    1d9c:	9808      	ldr	r0, [sp, #32]
    1d9e:	9909      	ldr	r1, [sp, #36]	; 0x24
    1da0:	47a8      	blx	r5
    1da2:	4c12      	ldr	r4, [pc, #72]	; (1dec <computeKalmanStates+0x230>)
    1da4:	0002      	movs	r2, r0
    1da6:	000b      	movs	r3, r1
    1da8:	0030      	movs	r0, r6
    1daa:	0039      	movs	r1, r7
    1dac:	47a0      	blx	r4
    1dae:	4b0d      	ldr	r3, [pc, #52]	; (1de4 <computeKalmanStates+0x228>)
    1db0:	6018      	str	r0, [r3, #0]
    1db2:	6059      	str	r1, [r3, #4]

}
    1db4:	b00f      	add	sp, #60	; 0x3c
    1db6:	bdf0      	pop	{r4, r5, r6, r7, pc}
    1db8:	200007c8 	.word	0x200007c8
    1dbc:	00005dd5 	.word	0x00005dd5
    1dc0:	200004d0 	.word	0x200004d0
    1dc4:	0000560d 	.word	0x0000560d
    1dc8:	33daf8df 	.word	0x33daf8df
    1dcc:	4040164b 	.word	0x4040164b
    1dd0:	0000510d 	.word	0x0000510d
    1dd4:	20000698 	.word	0x20000698
    1dd8:	0000394d 	.word	0x0000394d
    1ddc:	200006a0 	.word	0x200006a0
    1de0:	20000690 	.word	0x20000690
    1de4:	20000688 	.word	0x20000688
    1de8:	20000010 	.word	0x20000010
    1dec:	00004285 	.word	0x00004285
    1df0:	20000650 	.word	0x20000650

00001df4 <makePage>:
u8_t pageLocation;

bool pageReady;


void makePage(u8_t bytesToWrite, u8_t* data) {
    1df4:	b5f0      	push	{r4, r5, r6, r7, lr}


    u8_t location = pageLocation;
    1df6:	4a1f      	ldr	r2, [pc, #124]	; (1e74 <makePage+0x80>)
    1df8:	7814      	ldrb	r4, [r2, #0]
    u8_t bytesWritten = 0;

    if ((location + bytesToWrite) > 0xFF) {
    1dfa:	1903      	adds	r3, r0, r4
    1dfc:	2bff      	cmp	r3, #255	; 0xff
    1dfe:	dc0c      	bgt.n	1e1a <makePage+0x26>
    1e00:	2300      	movs	r3, #0
        }
        pageReady = true;

    } else {
        for (u16_t dataByte = 0; dataByte <= bytesToWrite; ++dataByte) {
            pageBuffer[(dataByte + location)] = data[dataByte];
    1e02:	4d1d      	ldr	r5, [pc, #116]	; (1e78 <makePage+0x84>)
        for (u16_t dataByte = 0; dataByte <= bytesToWrite; ++dataByte) {
    1e04:	b280      	uxth	r0, r0
            pageBuffer[(dataByte + location)] = data[dataByte];
    1e06:	1965      	adds	r5, r4, r5
        for (u16_t dataByte = 0; dataByte <= bytesToWrite; ++dataByte) {
    1e08:	b29e      	uxth	r6, r3
    1e0a:	42b0      	cmp	r0, r6
    1e0c:	d322      	bcc.n	1e54 <makePage+0x60>
            pageBuffer[(dataByte + location)] = data[dataByte];
    1e0e:	5cce      	ldrb	r6, [r1, r3]
    1e10:	54ee      	strb	r6, [r5, r3]
            bytesWritten++;
            pageLocation = location + dataByte;
    1e12:	18e6      	adds	r6, r4, r3
    1e14:	7016      	strb	r6, [r2, #0]
    1e16:	3301      	adds	r3, #1
    1e18:	e7f6      	b.n	1e08 <makePage+0x14>
    1e1a:	2300      	movs	r3, #0
    1e1c:	4d16      	ldr	r5, [pc, #88]	; (1e78 <makePage+0x84>)
    1e1e:	b2de      	uxtb	r6, r3
    1e20:	46b4      	mov	ip, r6
        for (u16_t dataByte = 0; (dataByte + location) <= 0xFF; ++dataByte) {
    1e22:	191e      	adds	r6, r3, r4
    1e24:	2eff      	cmp	r6, #255	; 0xff
    1e26:	dd16      	ble.n	1e56 <makePage+0x62>
        pageLocation = 0x00;
    1e28:	2300      	movs	r3, #0
            pageToWrite[i] = pageBuffer[i];
    1e2a:	4f14      	ldr	r7, [pc, #80]	; (1e7c <makePage+0x88>)
        pageLocation = 0x00;
    1e2c:	7013      	strb	r3, [r2, #0]
            pageToWrite[i] = pageBuffer[i];
    1e2e:	18ec      	adds	r4, r5, r3
    1e30:	7826      	ldrb	r6, [r4, #0]
    1e32:	54fe      	strb	r6, [r7, r3]
            pageBuffer[i] = 0;
    1e34:	2600      	movs	r6, #0
    1e36:	7026      	strb	r6, [r4, #0]
        for(u16_t i = 0; i <= 0xFF; ++i) {
    1e38:	2480      	movs	r4, #128	; 0x80
    1e3a:	3301      	adds	r3, #1
    1e3c:	0064      	lsls	r4, r4, #1
    1e3e:	42a3      	cmp	r3, r4
    1e40:	d1f5      	bne.n	1e2e <makePage+0x3a>
    1e42:	4663      	mov	r3, ip
    1e44:	2500      	movs	r5, #0
            pageBuffer[dataByte] = data[bytesWritten];
    1e46:	4f0c      	ldr	r7, [pc, #48]	; (1e78 <makePage+0x84>)
    1e48:	1c6c      	adds	r4, r5, #1
        for (u16_t dataByte = 0; bytesWritten < bytesToWrite; ++dataByte) {
    1e4a:	4283      	cmp	r3, r0
    1e4c:	d308      	bcc.n	1e60 <makePage+0x6c>
        pageReady = true;
    1e4e:	2201      	movs	r2, #1
    1e50:	4b0b      	ldr	r3, [pc, #44]	; (1e80 <makePage+0x8c>)
    1e52:	701a      	strb	r2, [r3, #0]
        }
    }
}
    1e54:	bdf0      	pop	{r4, r5, r6, r7, pc}
            pageBuffer[(dataByte + location)] = data[dataByte];
    1e56:	5ccf      	ldrb	r7, [r1, r3]
        for (u16_t dataByte = 0; (dataByte + location) <= 0xFF; ++dataByte) {
    1e58:	3301      	adds	r3, #1
            pageBuffer[(dataByte + location)] = data[dataByte];
    1e5a:	55af      	strb	r7, [r5, r6]
        for (u16_t dataByte = 0; (dataByte + location) <= 0xFF; ++dataByte) {
    1e5c:	b29b      	uxth	r3, r3
    1e5e:	e7de      	b.n	1e1e <makePage+0x2a>
            pageBuffer[dataByte] = data[bytesWritten];
    1e60:	4666      	mov	r6, ip
    1e62:	1936      	adds	r6, r6, r4
    1e64:	3e01      	subs	r6, #1
    1e66:	5d8e      	ldrb	r6, [r1, r6]
            bytesWritten++;
    1e68:	3301      	adds	r3, #1
            pageBuffer[dataByte] = data[bytesWritten];
    1e6a:	557e      	strb	r6, [r7, r5]
            bytesWritten++;
    1e6c:	b2db      	uxtb	r3, r3
            pageLocation = dataByte + 1;
    1e6e:	7014      	strb	r4, [r2, #0]
    1e70:	0025      	movs	r5, r4
    1e72:	e7e9      	b.n	1e48 <makePage+0x54>
    1e74:	200007c4 	.word	0x200007c4
    1e78:	20000539 	.word	0x20000539
    1e7c:	200006b8 	.word	0x200006b8
    1e80:	200007b8 	.word	0x200007b8

00001e84 <logFlight>:


void logFlight() {
    1e84:	b51f      	push	{r0, r1, r2, r3, r4, lr}

    u8_t bytesToSend = 16;
    u8_t dataToSend[16];

    dataToSend[0] = FLIGHT_LOG;
    1e86:	2346      	movs	r3, #70	; 0x46
    1e88:	466a      	mov	r2, sp
    1e8a:	7013      	strb	r3, [r2, #0]
    dataToSend[1] = 0;
    1e8c:	2300      	movs	r3, #0

    dataToSend[2] = offsets.offsetBufferTime >> 0;
    1e8e:	4669      	mov	r1, sp
    dataToSend[3] = offsets.offsetBufferTime >> 8;
    1e90:	4668      	mov	r0, sp
    dataToSend[1] = 0;
    1e92:	7053      	strb	r3, [r2, #1]
    dataToSend[2] = offsets.offsetBufferTime >> 0;
    1e94:	4a10      	ldr	r2, [pc, #64]	; (1ed8 <logFlight+0x54>)
    1e96:	6813      	ldr	r3, [r2, #0]
    1e98:	708b      	strb	r3, [r1, #2]
    dataToSend[3] = offsets.offsetBufferTime >> 8;
    1e9a:	0a19      	lsrs	r1, r3, #8
    1e9c:	70c1      	strb	r1, [r0, #3]
    dataToSend[4] = offsets.offsetBufferTime >> 16;
    1e9e:	0c19      	lsrs	r1, r3, #16
    dataToSend[5] = offsets.offsetBufferTime >> 24;
    1ea0:	0e1b      	lsrs	r3, r3, #24
    1ea2:	7143      	strb	r3, [r0, #5]

    dataToSend[6] = offsets.groundOffset >> 0;
    1ea4:	6993      	ldr	r3, [r2, #24]
    dataToSend[4] = offsets.offsetBufferTime >> 16;
    1ea6:	7101      	strb	r1, [r0, #4]
    dataToSend[7] = offsets.groundOffset >> 8;
    1ea8:	0a19      	lsrs	r1, r3, #8
    dataToSend[6] = offsets.groundOffset >> 0;
    1eaa:	7183      	strb	r3, [r0, #6]
    dataToSend[7] = offsets.groundOffset >> 8;
    1eac:	71c1      	strb	r1, [r0, #7]
    dataToSend[8] = offsets.groundOffset >> 16;
    1eae:	0c19      	lsrs	r1, r3, #16
    dataToSend[9] = offsets.groundOffset >> 24;
    1eb0:	0e1b      	lsrs	r3, r3, #24
    1eb2:	7243      	strb	r3, [r0, #9]

    dataToSend[10] = offsets.groundTemperature >> 0;
    1eb4:	6a13      	ldr	r3, [r2, #32]
    dataToSend[8] = offsets.groundOffset >> 16;
    1eb6:	7201      	strb	r1, [r0, #8]
    dataToSend[11] = offsets.groundTemperature >> 8;
    1eb8:	0a1a      	lsrs	r2, r3, #8
    dataToSend[10] = offsets.groundTemperature >> 0;
    1eba:	7283      	strb	r3, [r0, #10]
    dataToSend[11] = offsets.groundTemperature >> 8;
    1ebc:	72c2      	strb	r2, [r0, #11]
    dataToSend[12] = offsets.groundTemperature >> 16;
    1ebe:	0c1a      	lsrs	r2, r3, #16
    dataToSend[13] = offsets.groundTemperature >> 24;
    1ec0:	0e1b      	lsrs	r3, r3, #24
    1ec2:	7343      	strb	r3, [r0, #13]

    //dataToSend[14] = accel >> 0;
    dataToSend[15] = 0xfe;
    1ec4:	23fe      	movs	r3, #254	; 0xfe
    dataToSend[12] = offsets.groundTemperature >> 16;
    1ec6:	7302      	strb	r2, [r0, #12]
    dataToSend[15] = 0xfe;
    1ec8:	73c3      	strb	r3, [r0, #15]
    dataToSend[9] = offsets.groundOffset >> 24;
    1eca:	4669      	mov	r1, sp

    makePage(bytesToSend, dataToSend);
    1ecc:	2010      	movs	r0, #16
    1ece:	4b03      	ldr	r3, [pc, #12]	; (1edc <logFlight+0x58>)
    1ed0:	4798      	blx	r3
}
    1ed2:	b005      	add	sp, #20
    1ed4:	bd00      	pop	{pc}
    1ed6:	46c0      	nop			; (mov r8, r8)
    1ed8:	200004d0 	.word	0x200004d0
    1edc:	00001df5 	.word	0x00001df5

00001ee0 <logEvent>:

void logEvent(u8_t eventType) {
    1ee0:	b57f      	push	{r0, r1, r2, r3, r4, r5, r6, lr}

    u8_t bytesToSend = 12;
    u8_t dataToSend[12];

    dataToSend[0] = EVENT_LOG;
    1ee2:	2345      	movs	r3, #69	; 0x45
    dataToSend[1] = eventType;
    dataToSend[2] = sample.sampleTick >> 0;
    1ee4:	4d10      	ldr	r5, [pc, #64]	; (1f28 <logEvent+0x48>)
    dataToSend[0] = EVENT_LOG;
    1ee6:	ac01      	add	r4, sp, #4
    1ee8:	7023      	strb	r3, [r4, #0]
    dataToSend[2] = sample.sampleTick >> 0;
    1eea:	686b      	ldr	r3, [r5, #4]
    dataToSend[3] = sample.sampleTick >> 8;
    dataToSend[4] = sample.sampleTick >> 16;
    dataToSend[5] = sample.sampleTick >> 24;

    dataToSend[6] = altitudeAGL() >> 0;
    1eec:	4e0f      	ldr	r6, [pc, #60]	; (1f2c <logEvent+0x4c>)
    dataToSend[3] = sample.sampleTick >> 8;
    1eee:	0a1a      	lsrs	r2, r3, #8
    dataToSend[2] = sample.sampleTick >> 0;
    1ef0:	70a3      	strb	r3, [r4, #2]
    dataToSend[3] = sample.sampleTick >> 8;
    1ef2:	70e2      	strb	r2, [r4, #3]
    dataToSend[4] = sample.sampleTick >> 16;
    1ef4:	0c1a      	lsrs	r2, r3, #16
    dataToSend[5] = sample.sampleTick >> 24;
    1ef6:	0e1b      	lsrs	r3, r3, #24
    dataToSend[4] = sample.sampleTick >> 16;
    1ef8:	7122      	strb	r2, [r4, #4]
    dataToSend[5] = sample.sampleTick >> 24;
    1efa:	7163      	strb	r3, [r4, #5]
    dataToSend[1] = eventType;
    1efc:	7060      	strb	r0, [r4, #1]
    dataToSend[6] = altitudeAGL() >> 0;
    1efe:	47b0      	blx	r6
    1f00:	71a0      	strb	r0, [r4, #6]
    dataToSend[7] = altitudeAGL() >> 8;
    1f02:	47b0      	blx	r6
    1f04:	1200      	asrs	r0, r0, #8
    1f06:	71e0      	strb	r0, [r4, #7]
    dataToSend[8] = altitudeAGL() >> 16;
    1f08:	47b0      	blx	r6
    1f0a:	1400      	asrs	r0, r0, #16
    1f0c:	7220      	strb	r0, [r4, #8]
    dataToSend[9] = altitudeAGL() >> 24;
    1f0e:	47b0      	blx	r6
    1f10:	1600      	asrs	r0, r0, #24
    1f12:	7260      	strb	r0, [r4, #9]

    dataToSend[10] = sample.voltage.batV >> 0;
    1f14:	892b      	ldrh	r3, [r5, #8]
    dataToSend[11] = sample.voltage.batV >> 8;

    makePage(bytesToSend, dataToSend);
    1f16:	0021      	movs	r1, r4
    dataToSend[10] = sample.voltage.batV >> 0;
    1f18:	72a3      	strb	r3, [r4, #10]
    dataToSend[11] = sample.voltage.batV >> 8;
    1f1a:	0a1b      	lsrs	r3, r3, #8
    1f1c:	72e3      	strb	r3, [r4, #11]
    makePage(bytesToSend, dataToSend);
    1f1e:	200c      	movs	r0, #12
    1f20:	4b03      	ldr	r3, [pc, #12]	; (1f30 <logEvent+0x50>)
    1f22:	4798      	blx	r3

}
    1f24:	bd7f      	pop	{r0, r1, r2, r3, r4, r5, r6, pc}
    1f26:	46c0      	nop			; (mov r8, r8)
    1f28:	200007c8 	.word	0x200007c8
    1f2c:	00000b11 	.word	0x00000b11
    1f30:	00001df5 	.word	0x00001df5

00001f34 <logSensors>:
void logSensors() {

    u8_t bytesToSend = 24;
    u8_t dataToSend[24];

    dataToSend[0] = SENSOR_LOG;
    1f34:	2353      	movs	r3, #83	; 0x53
void logSensors() {
    1f36:	b5f0      	push	{r4, r5, r6, r7, lr}
    1f38:	b08b      	sub	sp, #44	; 0x2c
    dataToSend[0] = SENSOR_LOG;
    1f3a:	ac04      	add	r4, sp, #16
    1f3c:	7023      	strb	r3, [r4, #0]

    dataToSend[1] = sample.sampleTick >> 0;
    1f3e:	4b3f      	ldr	r3, [pc, #252]	; (203c <STACK_SIZE+0x3c>)
    dataToSend[2] = sample.sampleTick >> 8;
    dataToSend[3] = sample.sampleTick >> 16;
    dataToSend[4] = sample.sampleTick >> 24;

    dataToSend[5] = altitudeAGL() >> 0;
    1f40:	4e3f      	ldr	r6, [pc, #252]	; (2040 <STACK_SIZE+0x40>)
    dataToSend[1] = sample.sampleTick >> 0;
    1f42:	685b      	ldr	r3, [r3, #4]
    dataToSend[2] = sample.sampleTick >> 8;
    1f44:	0a1a      	lsrs	r2, r3, #8
    dataToSend[1] = sample.sampleTick >> 0;
    1f46:	7063      	strb	r3, [r4, #1]
    dataToSend[2] = sample.sampleTick >> 8;
    1f48:	70a2      	strb	r2, [r4, #2]
    dataToSend[3] = sample.sampleTick >> 16;
    1f4a:	0c1a      	lsrs	r2, r3, #16
    dataToSend[4] = sample.sampleTick >> 24;
    1f4c:	0e1b      	lsrs	r3, r3, #24
    dataToSend[3] = sample.sampleTick >> 16;
    1f4e:	70e2      	strb	r2, [r4, #3]
    dataToSend[4] = sample.sampleTick >> 24;
    1f50:	7123      	strb	r3, [r4, #4]
    dataToSend[5] = altitudeAGL() >> 0;
    1f52:	47b0      	blx	r6
    1f54:	7160      	strb	r0, [r4, #5]
    dataToSend[6] = altitudeAGL() >> 8;
    1f56:	47b0      	blx	r6
    1f58:	1200      	asrs	r0, r0, #8
    1f5a:	71a0      	strb	r0, [r4, #6]
    dataToSend[7] = altitudeAGL() >> 16;
    1f5c:	47b0      	blx	r6
    1f5e:	1400      	asrs	r0, r0, #16
    1f60:	71e0      	strb	r0, [r4, #7]
    dataToSend[8] = altitudeAGL() >> 24;
    1f62:	47b0      	blx	r6

    volatile float fractionalAccel = accel - (int16_t)(accel);
    1f64:	4b37      	ldr	r3, [pc, #220]	; (2044 <STACK_SIZE+0x44>)
    dataToSend[8] = altitudeAGL() >> 24;
    1f66:	1600      	asrs	r0, r0, #24
    volatile float fractionalAccel = accel - (int16_t)(accel);
    1f68:	681e      	ldr	r6, [r3, #0]
    1f6a:	685f      	ldr	r7, [r3, #4]
    dataToSend[8] = altitudeAGL() >> 24;
    1f6c:	7220      	strb	r0, [r4, #8]
    volatile float fractionalAccel = accel - (int16_t)(accel);
    1f6e:	0039      	movs	r1, r7
    1f70:	4b35      	ldr	r3, [pc, #212]	; (2048 <STACK_SIZE+0x48>)
    1f72:	0030      	movs	r0, r6
    1f74:	4798      	blx	r3
    1f76:	b203      	sxth	r3, r0
    1f78:	001d      	movs	r5, r3
    1f7a:	0018      	movs	r0, r3
    1f7c:	4b33      	ldr	r3, [pc, #204]	; (204c <STACK_SIZE+0x4c>)
    1f7e:	4798      	blx	r3
    1f80:	0002      	movs	r2, r0
    1f82:	000b      	movs	r3, r1
    1f84:	0030      	movs	r0, r6
    1f86:	0039      	movs	r1, r7
    1f88:	4e31      	ldr	r6, [pc, #196]	; (2050 <STACK_SIZE+0x50>)
    1f8a:	47b0      	blx	r6
    1f8c:	4b31      	ldr	r3, [pc, #196]	; (2054 <STACK_SIZE+0x54>)
    1f8e:	4798      	blx	r3
    1f90:	9003      	str	r0, [sp, #12]
    volatile int16_t fractAccelPart = fractionalAccel * 1000;
    1f92:	9803      	ldr	r0, [sp, #12]
    1f94:	4b30      	ldr	r3, [pc, #192]	; (2058 <STACK_SIZE+0x58>)
    1f96:	4931      	ldr	r1, [pc, #196]	; (205c <STACK_SIZE+0x5c>)
    1f98:	4798      	blx	r3
    1f9a:	4e31      	ldr	r6, [pc, #196]	; (2060 <STACK_SIZE+0x60>)
    1f9c:	47b0      	blx	r6
    1f9e:	ab02      	add	r3, sp, #8
    1fa0:	b200      	sxth	r0, r0
    1fa2:	8058      	strh	r0, [r3, #2]

    dataToSend[9] = (int16_t)(accel) >> 0;
    dataToSend[10] = (int16_t)(accel) >> 8;
    dataToSend[11] = fractAccelPart >> 0;
    1fa4:	885a      	ldrh	r2, [r3, #2]
    volatile int16_t fractAccelPart = fractionalAccel * 1000;
    1fa6:	3302      	adds	r3, #2
    dataToSend[12] = fractAccelPart >> 8;
    1fa8:	881b      	ldrh	r3, [r3, #0]
    dataToSend[10] = (int16_t)(accel) >> 8;
    1faa:	1228      	asrs	r0, r5, #8
    dataToSend[12] = fractAccelPart >> 8;
    1fac:	0a1b      	lsrs	r3, r3, #8
    1fae:	7323      	strb	r3, [r4, #12]


     float fractionalVelocity = velocity - (int16_t)(velocity);
    1fb0:	4b2c      	ldr	r3, [pc, #176]	; (2064 <STACK_SIZE+0x64>)
    dataToSend[9] = (int16_t)(accel) >> 0;
    1fb2:	7265      	strb	r5, [r4, #9]
    dataToSend[10] = (int16_t)(accel) >> 8;
    1fb4:	72a0      	strb	r0, [r4, #10]
    dataToSend[11] = fractAccelPart >> 0;
    1fb6:	72e2      	strb	r2, [r4, #11]
     float fractionalVelocity = velocity - (int16_t)(velocity);
    1fb8:	681a      	ldr	r2, [r3, #0]
    1fba:	685b      	ldr	r3, [r3, #4]
    1fbc:	9200      	str	r2, [sp, #0]
    1fbe:	9301      	str	r3, [sp, #4]
    1fc0:	0010      	movs	r0, r2
    1fc2:	0019      	movs	r1, r3
    1fc4:	4b20      	ldr	r3, [pc, #128]	; (2048 <STACK_SIZE+0x48>)
    1fc6:	4798      	blx	r3
    1fc8:	b207      	sxth	r7, r0
    1fca:	4b20      	ldr	r3, [pc, #128]	; (204c <STACK_SIZE+0x4c>)
    1fcc:	0038      	movs	r0, r7
    1fce:	4798      	blx	r3
    1fd0:	4d1f      	ldr	r5, [pc, #124]	; (2050 <STACK_SIZE+0x50>)
    1fd2:	0002      	movs	r2, r0
    1fd4:	000b      	movs	r3, r1
    1fd6:	9800      	ldr	r0, [sp, #0]
    1fd8:	9901      	ldr	r1, [sp, #4]
    1fda:	47a8      	blx	r5
    1fdc:	4b1d      	ldr	r3, [pc, #116]	; (2054 <STACK_SIZE+0x54>)
    1fde:	4798      	blx	r3
     int16_t fractVelocityPart = fractionalVelocity * 1000;
    1fe0:	4b1d      	ldr	r3, [pc, #116]	; (2058 <STACK_SIZE+0x58>)
    1fe2:	491e      	ldr	r1, [pc, #120]	; (205c <STACK_SIZE+0x5c>)
    1fe4:	4798      	blx	r3
    1fe6:	47b0      	blx	r6

    dataToSend[13] = (int16_t)(velocity) >> 0;
    1fe8:	7367      	strb	r7, [r4, #13]
     int16_t fractVelocityPart = fractionalVelocity * 1000;
    1fea:	b203      	sxth	r3, r0
    dataToSend[14] = (int16_t)(velocity) >> 8;
    1fec:	123f      	asrs	r7, r7, #8
    1fee:	73a7      	strb	r7, [r4, #14]
    dataToSend[15] = fractVelocityPart >> 0;
    1ff0:	73e3      	strb	r3, [r4, #15]
    dataToSend[16] = fractVelocityPart >> 8;
    1ff2:	121b      	asrs	r3, r3, #8
    1ff4:	7423      	strb	r3, [r4, #16]

//     if ( ((fractVelocityPart < 0) & ((int16_t)(velocity) > 0)) | ((fractVelocityPart > 0) & ((int16_t)(velocity) < 0)) ) {
//         beep(200);
//     }

    dataToSend[17] = (u32_t)sample.altitudefeet >> 0;
    1ff6:	4b11      	ldr	r3, [pc, #68]	; (203c <STACK_SIZE+0x3c>)
    1ff8:	6c18      	ldr	r0, [r3, #64]	; 0x40
    1ffa:	6c59      	ldr	r1, [r3, #68]	; 0x44
    1ffc:	4b1a      	ldr	r3, [pc, #104]	; (2068 <STACK_SIZE+0x68>)
    1ffe:	4798      	blx	r3
    dataToSend[18] = (u32_t)sample.altitudefeet >> 8;
    2000:	0a03      	lsrs	r3, r0, #8
    2002:	74a3      	strb	r3, [r4, #18]
    dataToSend[19] = (u32_t)sample.altitudefeet >> 16;
    2004:	0c03      	lsrs	r3, r0, #16
    2006:	74e3      	strb	r3, [r4, #19]
    dataToSend[20] = (u32_t)sample.altitudefeet >> 24;

    float fractionalAccelraw = sample.accelZ - (int16_t)(sample.accelZ);
    2008:	4b0c      	ldr	r3, [pc, #48]	; (203c <STACK_SIZE+0x3c>)
    dataToSend[17] = (u32_t)sample.altitudefeet >> 0;
    200a:	7460      	strb	r0, [r4, #17]
    float fractionalAccelraw = sample.accelZ - (int16_t)(sample.accelZ);
    200c:	6a9d      	ldr	r5, [r3, #40]	; 0x28
    dataToSend[20] = (u32_t)sample.altitudefeet >> 24;
    200e:	0e00      	lsrs	r0, r0, #24
    2010:	7520      	strb	r0, [r4, #20]
    float fractionalAccelraw = sample.accelZ - (int16_t)(sample.accelZ);
    2012:	1c28      	adds	r0, r5, #0
    2014:	47b0      	blx	r6
    2016:	b200      	sxth	r0, r0
    u8_t fractAccelRawPart = fractionalAccelraw;

    dataToSend[21] = (int16_t)(sample.accelZ) >> 0;
    dataToSend[22] = (int16_t)(sample.accelZ) >> 8;
    2018:	1203      	asrs	r3, r0, #8
    201a:	75a3      	strb	r3, [r4, #22]
    dataToSend[21] = (int16_t)(sample.accelZ) >> 0;
    201c:	7560      	strb	r0, [r4, #21]
    float fractionalAccelraw = sample.accelZ - (int16_t)(sample.accelZ);
    201e:	4b13      	ldr	r3, [pc, #76]	; (206c <STACK_SIZE+0x6c>)
    2020:	4798      	blx	r3
    2022:	4b13      	ldr	r3, [pc, #76]	; (2070 <STACK_SIZE+0x70>)
    2024:	1c01      	adds	r1, r0, #0
    2026:	1c28      	adds	r0, r5, #0
    2028:	4798      	blx	r3
    u8_t fractAccelRawPart = fractionalAccelraw;
    202a:	4b12      	ldr	r3, [pc, #72]	; (2074 <STACK_SIZE+0x74>)
    202c:	4798      	blx	r3
     dataToSend[22] = 0xfd;
     dataToSend[23] = 0xfe;

     */

    makePage(bytesToSend, dataToSend);
    202e:	0021      	movs	r1, r4
    dataToSend[23] = fractAccelRawPart;
    2030:	75e0      	strb	r0, [r4, #23]
    makePage(bytesToSend, dataToSend);
    2032:	4b11      	ldr	r3, [pc, #68]	; (2078 <STACK_SIZE+0x78>)
    2034:	2018      	movs	r0, #24
    2036:	4798      	blx	r3
}
    2038:	b00b      	add	sp, #44	; 0x2c
    203a:	bdf0      	pop	{r4, r5, r6, r7, pc}
    203c:	200007c8 	.word	0x200007c8
    2040:	00000b11 	.word	0x00000b11
    2044:	20000688 	.word	0x20000688
    2048:	00005c79 	.word	0x00005c79
    204c:	00005ce1 	.word	0x00005ce1
    2050:	0000560d 	.word	0x0000560d
    2054:	00005e79 	.word	0x00005e79
    2058:	00003c2d 	.word	0x00003c2d
    205c:	447a0000 	.word	0x447a0000
    2060:	000041a5 	.word	0x000041a5
    2064:	20000690 	.word	0x20000690
    2068:	00003aa1 	.word	0x00003aa1
    206c:	000041e5 	.word	0x000041e5
    2070:	00003e6d 	.word	0x00003e6d
    2074:	00003a71 	.word	0x00003a71
    2078:	00001df5 	.word	0x00001df5

0000207c <getFlightStartAddress>:



u32_t getFlightStartAddress(u8_t flightToFind) {
    207c:	b513      	push	{r0, r1, r4, lr}
    207e:	0003      	movs	r3, r0

    u8_t addressToCheck[3];

    u16_t flightAddressLoc = FLIGHTZEROSTART + (flightToFind * 0x06);
    2080:	2006      	movs	r0, #6
    2082:	4358      	muls	r0, r3

    AT25SEreadSample(flightAddressLoc, 0x03, addressToCheck);
    2084:	ac01      	add	r4, sp, #4
    2086:	3001      	adds	r0, #1
    2088:	30ff      	adds	r0, #255	; 0xff
    208a:	0022      	movs	r2, r4
    208c:	2103      	movs	r1, #3
    208e:	4b05      	ldr	r3, [pc, #20]	; (20a4 <getFlightStartAddress+0x28>)
    2090:	4798      	blx	r3

    u32_t flightStartAddress = addressToCheck[0] << 0 | addressToCheck[1] << 8 | addressToCheck[2] << 16;
    2092:	7860      	ldrb	r0, [r4, #1]
    2094:	78a3      	ldrb	r3, [r4, #2]
    2096:	0200      	lsls	r0, r0, #8
    2098:	041b      	lsls	r3, r3, #16
    209a:	4318      	orrs	r0, r3
    209c:	7823      	ldrb	r3, [r4, #0]
    209e:	4318      	orrs	r0, r3

    return flightStartAddress;
}
    20a0:	bd16      	pop	{r1, r2, r4, pc}
    20a2:	46c0      	nop			; (mov r8, r8)
    20a4:	0000033d 	.word	0x0000033d

000020a8 <FindFlightEndingAddress>:

u32_t FindFlightEndingAddress(u8_t findThisFlightsEnd) {
    20a8:	b513      	push	{r0, r1, r4, lr}
    20aa:	0003      	movs	r3, r0

    u8_t addressToCheck[3];

    u16_t flightAddressLoc = FLIGHTZEROEND + (findThisFlightsEnd * 0x06);
    20ac:	2006      	movs	r0, #6
    20ae:	4358      	muls	r0, r3

    AT25SEreadSample(flightAddressLoc, 0x03, addressToCheck);
    20b0:	ac01      	add	r4, sp, #4
    20b2:	3004      	adds	r0, #4
    20b4:	30ff      	adds	r0, #255	; 0xff
    20b6:	0022      	movs	r2, r4
    20b8:	2103      	movs	r1, #3
    20ba:	4b05      	ldr	r3, [pc, #20]	; (20d0 <FindFlightEndingAddress+0x28>)
    20bc:	4798      	blx	r3

    u32_t flightEndAddress = addressToCheck[0] << 0 | addressToCheck[1] << 8 | addressToCheck[2] << 16;
    20be:	7860      	ldrb	r0, [r4, #1]
    20c0:	78a3      	ldrb	r3, [r4, #2]
    20c2:	0200      	lsls	r0, r0, #8
    20c4:	041b      	lsls	r3, r3, #16
    20c6:	4318      	orrs	r0, r3
    20c8:	7823      	ldrb	r3, [r4, #0]
    20ca:	4318      	orrs	r0, r3

    return flightEndAddress;
}
    20cc:	bd16      	pop	{r1, r2, r4, pc}
    20ce:	46c0      	nop			; (mov r8, r8)
    20d0:	0000033d 	.word	0x0000033d

000020d4 <isFlightLogged>:

bool isFlightLogged(u8_t flightNumbToCheck) {
    20d4:	b510      	push	{r4, lr}

    u32_t possibleStart = getFlightStartAddress(flightNumbToCheck);
    20d6:	4b04      	ldr	r3, [pc, #16]	; (20e8 <isFlightLogged+0x14>)
    20d8:	4798      	blx	r3

    if (possibleStart == 0xFFFFFF) {
    20da:	4b04      	ldr	r3, [pc, #16]	; (20ec <isFlightLogged+0x18>)
    20dc:	18c0      	adds	r0, r0, r3
    20de:	1e43      	subs	r3, r0, #1
    20e0:	4198      	sbcs	r0, r3
    20e2:	b2c0      	uxtb	r0, r0
        return false;
    } else {
        return true;
    }
}
    20e4:	bd10      	pop	{r4, pc}
    20e6:	46c0      	nop			; (mov r8, r8)
    20e8:	0000207d 	.word	0x0000207d
    20ec:	ff000001 	.word	0xff000001

000020f0 <writeFlightEndAddress>:



void writeFlightEndAddress() {
    20f0:	b507      	push	{r0, r1, r2, lr}

    u32_t endingAddress = currentAddress;
    20f2:	4b0a      	ldr	r3, [pc, #40]	; (211c <writeFlightEndAddress+0x2c>)

    u8_t address[3] = {endingAddress >> 0, endingAddress >> 8, endingAddress >> 16};
    20f4:	aa01      	add	r2, sp, #4
    u32_t endingAddress = currentAddress;
    20f6:	681b      	ldr	r3, [r3, #0]
    u8_t address[3] = {endingAddress >> 0, endingAddress >> 8, endingAddress >> 16};
    20f8:	7013      	strb	r3, [r2, #0]
    20fa:	0a19      	lsrs	r1, r3, #8
    20fc:	0c1b      	lsrs	r3, r3, #16
    20fe:	7093      	strb	r3, [r2, #2]

    u16_t flightAddressLoc = FLIGHTZEROEND + (flightNumb * 0x06);
    2100:	4b07      	ldr	r3, [pc, #28]	; (2120 <writeFlightEndAddress+0x30>)
    u8_t address[3] = {endingAddress >> 0, endingAddress >> 8, endingAddress >> 16};
    2102:	7051      	strb	r1, [r2, #1]
    u16_t flightAddressLoc = FLIGHTZEROEND + (flightNumb * 0x06);
    2104:	7818      	ldrb	r0, [r3, #0]
    2106:	2306      	movs	r3, #6
    2108:	4358      	muls	r0, r3
    AT25SFWriteBytes(flightAddressLoc, 3, address);
    210a:	3004      	adds	r0, #4
    210c:	30ff      	adds	r0, #255	; 0xff
    210e:	2103      	movs	r1, #3
    2110:	4b04      	ldr	r3, [pc, #16]	; (2124 <writeFlightEndAddress+0x34>)
    2112:	4798      	blx	r3
    delay_ms(10);
    2114:	200a      	movs	r0, #10
    2116:	4b04      	ldr	r3, [pc, #16]	; (2128 <writeFlightEndAddress+0x38>)
    2118:	4798      	blx	r3

}
    211a:	bd07      	pop	{r0, r1, r2, pc}
    211c:	200007bc 	.word	0x200007bc
    2120:	20000521 	.word	0x20000521
    2124:	00000251 	.word	0x00000251
    2128:	00000eed 	.word	0x00000eed

0000212c <findNewFlightStart>:




void findNewFlightStart() {
    212c:	b5f7      	push	{r0, r1, r2, r4, r5, r6, r7, lr}

    for (u8_t flightNumbToCheck = 0; flightNumbToCheck < 20; ++flightNumbToCheck) {
    212e:	2400      	movs	r4, #0

        if (!isFlightLogged(flightNumbToCheck)) {
    2130:	0020      	movs	r0, r4
    2132:	4b24      	ldr	r3, [pc, #144]	; (21c4 <findNewFlightStart+0x98>)
    2134:	4798      	blx	r3
    2136:	2800      	cmp	r0, #0
    2138:	d13e      	bne.n	21b8 <findNewFlightStart+0x8c>
    213a:	4f23      	ldr	r7, [pc, #140]	; (21c8 <findNewFlightStart+0x9c>)
    213c:	ad01      	add	r5, sp, #4

            if (flightNumbToCheck > 0) {
    213e:	2c00      	cmp	r4, #0
    2140:	d020      	beq.n	2184 <findNewFlightStart+0x58>


                u32_t startAddress = FindFlightEndingAddress(flightNumbToCheck - 1);
    2142:	1e60      	subs	r0, r4, #1
    2144:	4b21      	ldr	r3, [pc, #132]	; (21cc <findNewFlightStart+0xa0>)
    2146:	b2c0      	uxtb	r0, r0
    2148:	4798      	blx	r3
                delay_ms(5);
    214a:	4b21      	ldr	r3, [pc, #132]	; (21d0 <findNewFlightStart+0xa4>)
                u32_t startAddress = FindFlightEndingAddress(flightNumbToCheck - 1);
    214c:	0006      	movs	r6, r0
                delay_ms(5);
    214e:	2005      	movs	r0, #5
    2150:	4798      	blx	r3

                currentAddress = startAddress;

                u8_t address[3] = {startAddress >> 0, startAddress >> 8, startAddress >> 16};

                u16_t flightAddressLoc = FLIGHTZEROSTART + (flightNumbToCheck * 0x06);
    2152:	2006      	movs	r0, #6
    2154:	4360      	muls	r0, r4
                u8_t address[3] = {startAddress >> 0, startAddress >> 8, startAddress >> 16};
    2156:	0a33      	lsrs	r3, r6, #8
                AT25SFWriteBytes(flightAddressLoc, 3, address);
    2158:	3001      	adds	r0, #1
                currentAddress = startAddress;
    215a:	603e      	str	r6, [r7, #0]
                u8_t address[3] = {startAddress >> 0, startAddress >> 8, startAddress >> 16};
    215c:	702e      	strb	r6, [r5, #0]
    215e:	706b      	strb	r3, [r5, #1]
    2160:	0c36      	lsrs	r6, r6, #16
                AT25SFWriteBytes(flightAddressLoc, 3, address);
    2162:	30ff      	adds	r0, #255	; 0xff
    2164:	002a      	movs	r2, r5
    2166:	2103      	movs	r1, #3
    2168:	4b1a      	ldr	r3, [pc, #104]	; (21d4 <findNewFlightStart+0xa8>)
                u8_t address[3] = {startAddress >> 0, startAddress >> 8, startAddress >> 16};
    216a:	70ae      	strb	r6, [r5, #2]
                AT25SFWriteBytes(flightAddressLoc, 3, address);
    216c:	4798      	blx	r3
                beep(1500);
            }
            flightNumb = flightNumbToCheck;

            while (flightNumbToCheck > 0) {
                beep(500);
    216e:	25fa      	movs	r5, #250	; 0xfa
            flightNumb = flightNumbToCheck;
    2170:	4b19      	ldr	r3, [pc, #100]	; (21d8 <findNewFlightStart+0xac>)
                beep(500);
    2172:	006d      	lsls	r5, r5, #1
            flightNumb = flightNumbToCheck;
    2174:	701c      	strb	r4, [r3, #0]
            while (flightNumbToCheck > 0) {
    2176:	2c00      	cmp	r4, #0
    2178:	d115      	bne.n	21a6 <findNewFlightStart+0x7a>
                delay_ms(500);
                --flightNumbToCheck;
            }
            delay_ms(500);
    217a:	20fa      	movs	r0, #250	; 0xfa
    217c:	4b14      	ldr	r3, [pc, #80]	; (21d0 <findNewFlightStart+0xa4>)
    217e:	0040      	lsls	r0, r0, #1
    2180:	4798      	blx	r3
            break;
        }
    }
}
    2182:	bdf7      	pop	{r0, r1, r2, r4, r5, r6, r7, pc}
                u8_t address[3] = {0x00,0x10,0x00};
    2184:	2310      	movs	r3, #16
                AT25SFWriteBytes(FLIGHTZEROSTART, 3, address);
    2186:	2080      	movs	r0, #128	; 0x80
                u8_t address[3] = {0x00,0x10,0x00};
    2188:	706b      	strb	r3, [r5, #1]
                AT25SFWriteBytes(FLIGHTZEROSTART, 3, address);
    218a:	002a      	movs	r2, r5
    218c:	2103      	movs	r1, #3
    218e:	0040      	lsls	r0, r0, #1
    2190:	4b10      	ldr	r3, [pc, #64]	; (21d4 <findNewFlightStart+0xa8>)
                u8_t address[3] = {0x00,0x10,0x00};
    2192:	702c      	strb	r4, [r5, #0]
    2194:	70ac      	strb	r4, [r5, #2]
                AT25SFWriteBytes(FLIGHTZEROSTART, 3, address);
    2196:	4798      	blx	r3
                currentAddress = 0x001000;
    2198:	2380      	movs	r3, #128	; 0x80
    219a:	015b      	lsls	r3, r3, #5
    219c:	603b      	str	r3, [r7, #0]
                beep(1500);
    219e:	480f      	ldr	r0, [pc, #60]	; (21dc <findNewFlightStart+0xb0>)
    21a0:	4b0f      	ldr	r3, [pc, #60]	; (21e0 <findNewFlightStart+0xb4>)
    21a2:	4798      	blx	r3
    21a4:	e7e3      	b.n	216e <findNewFlightStart+0x42>
                beep(500);
    21a6:	0028      	movs	r0, r5
    21a8:	4b0d      	ldr	r3, [pc, #52]	; (21e0 <findNewFlightStart+0xb4>)
    21aa:	4798      	blx	r3
                --flightNumbToCheck;
    21ac:	3c01      	subs	r4, #1
                delay_ms(500);
    21ae:	0028      	movs	r0, r5
    21b0:	4b07      	ldr	r3, [pc, #28]	; (21d0 <findNewFlightStart+0xa4>)
    21b2:	4798      	blx	r3
                --flightNumbToCheck;
    21b4:	b2e4      	uxtb	r4, r4
    21b6:	e7de      	b.n	2176 <findNewFlightStart+0x4a>
    for (u8_t flightNumbToCheck = 0; flightNumbToCheck < 20; ++flightNumbToCheck) {
    21b8:	3401      	adds	r4, #1
    21ba:	b2e4      	uxtb	r4, r4
    21bc:	2c14      	cmp	r4, #20
    21be:	d1b7      	bne.n	2130 <findNewFlightStart+0x4>
    21c0:	e7df      	b.n	2182 <findNewFlightStart+0x56>
    21c2:	46c0      	nop			; (mov r8, r8)
    21c4:	000020d5 	.word	0x000020d5
    21c8:	200007bc 	.word	0x200007bc
    21cc:	000020a9 	.word	0x000020a9
    21d0:	00000eed 	.word	0x00000eed
    21d4:	00000251 	.word	0x00000251
    21d8:	20000521 	.word	0x20000521
    21dc:	000005dc 	.word	0x000005dc
    21e0:	00000c71 	.word	0x00000c71

000021e4 <takeSample>:
#include <util.h>
#include <boardDefines.h>
#include <MS5803.h>

bool takeSample() {
    return SampleBool;
    21e4:	4b01      	ldr	r3, [pc, #4]	; (21ec <takeSample+0x8>)
    21e6:	7818      	ldrb	r0, [r3, #0]
}
    21e8:	4770      	bx	lr
    21ea:	46c0      	nop			; (mov r8, r8)
    21ec:	20000538 	.word	0x20000538

000021f0 <pullSample>:

void pullSample() {
    SampleBool = true;
    21f0:	2201      	movs	r2, #1
    21f2:	4b01      	ldr	r3, [pc, #4]	; (21f8 <pullSample+0x8>)
    21f4:	701a      	strb	r2, [r3, #0]
}
    21f6:	4770      	bx	lr
    21f8:	20000538 	.word	0x20000538

000021fc <sampleTick>:
}

sample_t sample;

void sampleTick() {
    SampleBool = false;
    21fc:	2200      	movs	r2, #0
void sampleTick() {
    21fe:	b5f0      	push	{r4, r5, r6, r7, lr}
    SampleBool = false;
    2200:	4ba7      	ldr	r3, [pc, #668]	; (24a0 <sampleTick+0x2a4>)
void sampleTick() {
    2202:	b087      	sub	sp, #28

    // take last samples time to discover Dt before setting new time
    sample.tickDelta = millis() - sample.sampleTick;
    2204:	4da7      	ldr	r5, [pc, #668]	; (24a4 <sampleTick+0x2a8>)
    SampleBool = false;
    2206:	701a      	strb	r2, [r3, #0]
    sample.tickDelta = millis() - sample.sampleTick;
    2208:	47a8      	blx	r5
    220a:	4ca7      	ldr	r4, [pc, #668]	; (24a8 <sampleTick+0x2ac>)
    220c:	6863      	ldr	r3, [r4, #4]
    220e:	1ac0      	subs	r0, r0, r3
    2210:	8020      	strh	r0, [r4, #0]
    sample.sampleTick = millis();
    2212:	47a8      	blx	r5
    altimeter.flightTime = sample.sampleTick - offsets.StartupTick;
    2214:	4ba5      	ldr	r3, [pc, #660]	; (24ac <sampleTick+0x2b0>)

    sample.voltage.batV = adc_read(senseBatPin);
    2216:	4ea6      	ldr	r6, [pc, #664]	; (24b0 <sampleTick+0x2b4>)
    altimeter.flightTime = sample.sampleTick - offsets.StartupTick;
    2218:	6a9b      	ldr	r3, [r3, #40]	; 0x28
    sample.sampleTick = millis();
    221a:	6060      	str	r0, [r4, #4]
    altimeter.flightTime = sample.sampleTick - offsets.StartupTick;
    221c:	1ac0      	subs	r0, r0, r3
    221e:	4ba5      	ldr	r3, [pc, #660]	; (24b4 <sampleTick+0x2b8>)
    sample.voltage.batV = adc_read(senseBatPin);
    2220:	4da5      	ldr	r5, [pc, #660]	; (24b8 <sampleTick+0x2bc>)
    altimeter.flightTime = sample.sampleTick - offsets.StartupTick;
    2222:	6098      	str	r0, [r3, #8]
    sample.voltage.batV = adc_read(senseBatPin);
    2224:	7873      	ldrb	r3, [r6, #1]
    2226:	7830      	ldrb	r0, [r6, #0]
    2228:	021b      	lsls	r3, r3, #8
    222a:	4303      	orrs	r3, r0
    222c:	78b0      	ldrb	r0, [r6, #2]
    222e:	7931      	ldrb	r1, [r6, #4]
    2230:	0400      	lsls	r0, r0, #16
    2232:	4303      	orrs	r3, r0
    2234:	78f0      	ldrb	r0, [r6, #3]
    2236:	0600      	lsls	r0, r0, #24
    2238:	4318      	orrs	r0, r3
    223a:	47a8      	blx	r5
    sample.voltage.batFloat = sample.voltage.batV * 0.0019;
    223c:	4b9f      	ldr	r3, [pc, #636]	; (24bc <sampleTick+0x2c0>)
    sample.voltage.batV = adc_read(senseBatPin);
    223e:	8120      	strh	r0, [r4, #8]
    sample.voltage.batFloat = sample.voltage.batV * 0.0019;
    2240:	4798      	blx	r3
    2242:	4a9f      	ldr	r2, [pc, #636]	; (24c0 <sampleTick+0x2c4>)
    2244:	4f9f      	ldr	r7, [pc, #636]	; (24c4 <sampleTick+0x2c8>)
    2246:	4ba0      	ldr	r3, [pc, #640]	; (24c8 <sampleTick+0x2cc>)
    2248:	47b8      	blx	r7
    224a:	4ba0      	ldr	r3, [pc, #640]	; (24cc <sampleTick+0x2d0>)
    224c:	4798      	blx	r3

    sample.voltage.senseA = adc_read(senseAPin);
    224e:	79b3      	ldrb	r3, [r6, #6]
    sample.voltage.batFloat = sample.voltage.batV * 0.0019;
    2250:	60e0      	str	r0, [r4, #12]
    sample.voltage.senseA = adc_read(senseAPin);
    2252:	7970      	ldrb	r0, [r6, #5]
    2254:	021b      	lsls	r3, r3, #8
    2256:	4303      	orrs	r3, r0
    2258:	79f0      	ldrb	r0, [r6, #7]
    225a:	7a71      	ldrb	r1, [r6, #9]
    225c:	0400      	lsls	r0, r0, #16
    225e:	4303      	orrs	r3, r0
    2260:	7a30      	ldrb	r0, [r6, #8]
    PORT->Group[p.group].OUTCLR.reg = (1<<p.pin);
    2262:	2780      	movs	r7, #128	; 0x80
    2264:	0600      	lsls	r0, r0, #24
    2266:	4318      	orrs	r0, r3
    2268:	47a8      	blx	r5
    sample.voltage.senseB = adc_read(senseBPin);
    226a:	7af3      	ldrb	r3, [r6, #11]
    sample.voltage.senseA = adc_read(senseAPin);
    226c:	8220      	strh	r0, [r4, #16]
    sample.voltage.senseB = adc_read(senseBPin);
    226e:	7ab0      	ldrb	r0, [r6, #10]
    2270:	021b      	lsls	r3, r3, #8
    2272:	4303      	orrs	r3, r0
    2274:	7b30      	ldrb	r0, [r6, #12]
    2276:	7bb1      	ldrb	r1, [r6, #14]
    2278:	0400      	lsls	r0, r0, #16
    227a:	4303      	orrs	r3, r0
    227c:	7b70      	ldrb	r0, [r6, #13]
    227e:	01ff      	lsls	r7, r7, #7
    2280:	0600      	lsls	r0, r0, #24
    2282:	4318      	orrs	r0, r3
    2284:	47a8      	blx	r5
    sample.voltage.senseC = adc_read(senseCPin);
    2286:	7c33      	ldrb	r3, [r6, #16]
    sample.voltage.senseB = adc_read(senseBPin);
    2288:	8260      	strh	r0, [r4, #18]
    sample.voltage.senseC = adc_read(senseCPin);
    228a:	7bf0      	ldrb	r0, [r6, #15]
    228c:	021b      	lsls	r3, r3, #8
    228e:	4303      	orrs	r3, r0
    2290:	7c70      	ldrb	r0, [r6, #17]
    2292:	7cf1      	ldrb	r1, [r6, #19]
    2294:	0400      	lsls	r0, r0, #16
    2296:	4303      	orrs	r3, r0
    2298:	7cb0      	ldrb	r0, [r6, #18]
    229a:	0600      	lsls	r0, r0, #24
    229c:	4318      	orrs	r0, r3
    229e:	47a8      	blx	r5
    sample.voltage.senseD = adc_read(senseDPin);
    22a0:	7d73      	ldrb	r3, [r6, #21]
    sample.voltage.senseC = adc_read(senseCPin);
    22a2:	82a0      	strh	r0, [r4, #20]
    sample.voltage.senseD = adc_read(senseDPin);
    22a4:	7d30      	ldrb	r0, [r6, #20]
    22a6:	021b      	lsls	r3, r3, #8
    22a8:	4303      	orrs	r3, r0
    22aa:	7db0      	ldrb	r0, [r6, #22]
    22ac:	7e31      	ldrb	r1, [r6, #24]
    22ae:	0400      	lsls	r0, r0, #16
    22b0:	4303      	orrs	r3, r0
    22b2:	7df0      	ldrb	r0, [r6, #23]
    22b4:	0600      	lsls	r0, r0, #24
    22b6:	4318      	orrs	r0, r3
    22b8:	47a8      	blx	r5

    sample.analogRaw = adc_read(analogAccelPin);
    22ba:	0032      	movs	r2, r6
    22bc:	7eb3      	ldrb	r3, [r6, #26]
    sample.voltage.senseD = adc_read(senseDPin);
    22be:	82e0      	strh	r0, [r4, #22]
    sample.analogRaw = adc_read(analogAccelPin);
    22c0:	7e70      	ldrb	r0, [r6, #25]
    22c2:	021b      	lsls	r3, r3, #8
    22c4:	4303      	orrs	r3, r0
    22c6:	7ef0      	ldrb	r0, [r6, #27]
    22c8:	7f51      	ldrb	r1, [r2, #29]
    22ca:	0400      	lsls	r0, r0, #16
    22cc:	4303      	orrs	r3, r0
    22ce:	7f30      	ldrb	r0, [r6, #28]
    22d0:	26ff      	movs	r6, #255	; 0xff
    22d2:	0600      	lsls	r0, r0, #24
    22d4:	4318      	orrs	r0, r3
    22d6:	47a8      	blx	r5
    sample.analogAccel = (sample.analogRaw - 3900) * -0.0154;
    22d8:	4b7d      	ldr	r3, [pc, #500]	; (24d0 <sampleTick+0x2d4>)
    sample.analogRaw = adc_read(analogAccelPin);
    22da:	8320      	strh	r0, [r4, #24]
    sample.analogAccel = (sample.analogRaw - 3900) * -0.0154;
    22dc:	18c0      	adds	r0, r0, r3
    22de:	4b77      	ldr	r3, [pc, #476]	; (24bc <sampleTick+0x2c0>)
    22e0:	4798      	blx	r3
    22e2:	4a7c      	ldr	r2, [pc, #496]	; (24d4 <sampleTick+0x2d8>)
    22e4:	4d77      	ldr	r5, [pc, #476]	; (24c4 <sampleTick+0x2c8>)
    22e6:	4b7c      	ldr	r3, [pc, #496]	; (24d8 <sampleTick+0x2dc>)
    22e8:	47a8      	blx	r5
    22ea:	4b78      	ldr	r3, [pc, #480]	; (24cc <sampleTick+0x2d0>)
    22ec:	4798      	blx	r3
    22ee:	4b7b      	ldr	r3, [pc, #492]	; (24dc <sampleTick+0x2e0>)

    uint8_t dummy_Tx = 0xFF;
    uint8_t dummy_rx;

    pinLow(cs_baro);
    dummy_rx = spiDataTransfer(SPI2, 0x50);
    22f0:	4d7b      	ldr	r5, [pc, #492]	; (24e0 <sampleTick+0x2e4>)
    22f2:	2150      	movs	r1, #80	; 0x50
    sample.analogAccel = (sample.analogRaw - 3900) * -0.0154;
    22f4:	61e0      	str	r0, [r4, #28]
    22f6:	615f      	str	r7, [r3, #20]
    dummy_rx = spiDataTransfer(SPI2, 0x50);
    22f8:	2002      	movs	r0, #2
    22fa:	47a8      	blx	r5
    pinHigh(cs_baro);
    delay_us(600);
    22fc:	2096      	movs	r0, #150	; 0x96
    PORT->Group[p.group].OUTSET.reg = (1<<p.pin);
    22fe:	4b77      	ldr	r3, [pc, #476]	; (24dc <sampleTick+0x2e0>)
    2300:	0080      	lsls	r0, r0, #2
    2302:	619f      	str	r7, [r3, #24]
    2304:	4b77      	ldr	r3, [pc, #476]	; (24e4 <sampleTick+0x2e8>)
    2306:	4798      	blx	r3
    uint32_t tempRaw = readMS5803AdcResults();
    2308:	4b77      	ldr	r3, [pc, #476]	; (24e8 <sampleTick+0x2ec>)
    230a:	4798      	blx	r3
    PORT->Group[p.group].OUTCLR.reg = (1<<p.pin);
    230c:	4b73      	ldr	r3, [pc, #460]	; (24dc <sampleTick+0x2e0>)
    230e:	9001      	str	r0, [sp, #4]

    pinLow(cs_baro);
    dummy_rx = spiDataTransfer(SPI2, 0x40);
    2310:	2140      	movs	r1, #64	; 0x40
    2312:	615f      	str	r7, [r3, #20]
    2314:	2002      	movs	r0, #2
    2316:	47a8      	blx	r5
    2318:	2280      	movs	r2, #128	; 0x80
    PORT->Group[p.group].OUTSET.reg = (1<<p.pin);
    231a:	4b70      	ldr	r3, [pc, #448]	; (24dc <sampleTick+0x2e0>)
    PORT->Group[p.group].OUTCLR.reg = (1<<p.pin);
    231c:	00d2      	lsls	r2, r2, #3
    PORT->Group[p.group].OUTSET.reg = (1<<p.pin);
    231e:	619f      	str	r7, [r3, #24]
    PORT->Group[p.group].OUTCLR.reg = (1<<p.pin);
    2320:	4b72      	ldr	r3, [pc, #456]	; (24ec <sampleTick+0x2f0>)

    u8_t byteOne;
    u8_t byteTwo;
// Accel data
    pinLow(cs_accel);
    dummy_rx = spiDataTransfer(SPI0, BMI055_X_ACC_LSB | BMI055_READ_REG);
    2322:	2182      	movs	r1, #130	; 0x82
    2324:	601a      	str	r2, [r3, #0]
    2326:	2000      	movs	r0, #0
    2328:	47a8      	blx	r5
    byteOne = spiDataTransfer(SPI0,dummy_Tx);
    232a:	0031      	movs	r1, r6
    232c:	2000      	movs	r0, #0
    232e:	47a8      	blx	r5
    byteTwo = spiDataTransfer(SPI0,dummy_Tx);
    2330:	0031      	movs	r1, r6
    byteOne = spiDataTransfer(SPI0,dummy_Tx);
    2332:	0007      	movs	r7, r0
    byteTwo = spiDataTransfer(SPI0,dummy_Tx);
    2334:	2000      	movs	r0, #0
    2336:	47a8      	blx	r5

}

int16_t twosComp(u8_t byteOne, u8_t byteTwo) {

    u16_t comp = byteOne | (byteTwo << 8);
    2338:	0200      	lsls	r0, r0, #8
    233a:	4307      	orrs	r7, r0
    233c:	b23b      	sxth	r3, r7
    byteOne = spiDataTransfer(SPI0,dummy_Tx);
    233e:	0031      	movs	r1, r6
    2340:	2000      	movs	r0, #0
    u16_t comp = byteOne | (byteTwo << 8);
    2342:	9303      	str	r3, [sp, #12]
    byteOne = spiDataTransfer(SPI0,dummy_Tx);
    2344:	47a8      	blx	r5
    byteTwo = spiDataTransfer(SPI0,dummy_Tx);
    2346:	0031      	movs	r1, r6
    byteOne = spiDataTransfer(SPI0,dummy_Tx);
    2348:	0007      	movs	r7, r0
    byteTwo = spiDataTransfer(SPI0,dummy_Tx);
    234a:	2000      	movs	r0, #0
    234c:	47a8      	blx	r5
    u16_t comp = byteOne | (byteTwo << 8);
    234e:	0200      	lsls	r0, r0, #8
    2350:	4307      	orrs	r7, r0
    2352:	b23b      	sxth	r3, r7
    byteOne = spiDataTransfer(SPI0,dummy_Tx);
    2354:	0031      	movs	r1, r6
    2356:	2000      	movs	r0, #0
    u16_t comp = byteOne | (byteTwo << 8);
    2358:	9302      	str	r3, [sp, #8]
    byteOne = spiDataTransfer(SPI0,dummy_Tx);
    235a:	47a8      	blx	r5
    byteTwo = spiDataTransfer(SPI0,dummy_Tx);
    235c:	0031      	movs	r1, r6
    byteOne = spiDataTransfer(SPI0,dummy_Tx);
    235e:	9004      	str	r0, [sp, #16]
    byteTwo = spiDataTransfer(SPI0,dummy_Tx);
    2360:	2000      	movs	r0, #0
    2362:	47a8      	blx	r5
    PORT->Group[p.group].OUTSET.reg = (1<<p.pin);
    2364:	2280      	movs	r2, #128	; 0x80
    2366:	4b62      	ldr	r3, [pc, #392]	; (24f0 <sampleTick+0x2f4>)
    2368:	00d2      	lsls	r2, r2, #3
    236a:	9005      	str	r0, [sp, #20]
    236c:	601a      	str	r2, [r3, #0]
    sample.accelX =  accelXint * BMI055_ACCEL_16G_DIV;
    236e:	9b03      	ldr	r3, [sp, #12]
    2370:	1118      	asrs	r0, r3, #4
    2372:	4b52      	ldr	r3, [pc, #328]	; (24bc <sampleTick+0x2c0>)
    2374:	4798      	blx	r3
    2376:	23fe      	movs	r3, #254	; 0xfe
    2378:	2200      	movs	r2, #0
    237a:	4f52      	ldr	r7, [pc, #328]	; (24c4 <sampleTick+0x2c8>)
    237c:	059b      	lsls	r3, r3, #22
    237e:	47b8      	blx	r7
    2380:	4b52      	ldr	r3, [pc, #328]	; (24cc <sampleTick+0x2d0>)
    2382:	4798      	blx	r3
    sample.accelY =  accelYint * BMI055_ACCEL_16G_DIV;
    2384:	9b02      	ldr	r3, [sp, #8]
    sample.accelX =  accelXint * BMI055_ACCEL_16G_DIV;
    2386:	6220      	str	r0, [r4, #32]
    sample.accelY =  accelYint * BMI055_ACCEL_16G_DIV;
    2388:	1118      	asrs	r0, r3, #4
    238a:	4b4c      	ldr	r3, [pc, #304]	; (24bc <sampleTick+0x2c0>)
    238c:	4798      	blx	r3
    238e:	23fe      	movs	r3, #254	; 0xfe
    2390:	2200      	movs	r2, #0
    2392:	059b      	lsls	r3, r3, #22
    2394:	47b8      	blx	r7
    2396:	4b4d      	ldr	r3, [pc, #308]	; (24cc <sampleTick+0x2d0>)
    2398:	4798      	blx	r3
    u16_t comp = byteOne | (byteTwo << 8);
    239a:	9b05      	ldr	r3, [sp, #20]
    sample.accelY =  accelYint * BMI055_ACCEL_16G_DIV;
    239c:	6260      	str	r0, [r4, #36]	; 0x24
    u16_t comp = byteOne | (byteTwo << 8);
    239e:	021f      	lsls	r7, r3, #8
    23a0:	9b04      	ldr	r3, [sp, #16]
    23a2:	431f      	orrs	r7, r3
    accelZint =  accelZint >> 4;
    23a4:	b238      	sxth	r0, r7
    sample.accelZ = -accelZint * BMI055_ACCEL_16G_DIV;
    23a6:	1100      	asrs	r0, r0, #4
    23a8:	4b44      	ldr	r3, [pc, #272]	; (24bc <sampleTick+0x2c0>)
    23aa:	4240      	negs	r0, r0
    23ac:	4798      	blx	r3
    23ae:	23fe      	movs	r3, #254	; 0xfe
    23b0:	2200      	movs	r2, #0
    23b2:	4f44      	ldr	r7, [pc, #272]	; (24c4 <sampleTick+0x2c8>)
    23b4:	059b      	lsls	r3, r3, #22
    23b6:	47b8      	blx	r7
    23b8:	4b44      	ldr	r3, [pc, #272]	; (24cc <sampleTick+0x2d0>)
    23ba:	4798      	blx	r3
    PORT->Group[p.group].OUTCLR.reg = (1<<p.pin);
    23bc:	2280      	movs	r2, #128	; 0x80
    23be:	4b47      	ldr	r3, [pc, #284]	; (24dc <sampleTick+0x2e0>)
    23c0:	00d2      	lsls	r2, r2, #3
    23c2:	62a0      	str	r0, [r4, #40]	; 0x28
    dummy_rx = spiDataTransfer(SPI0, BMI055_X_GYRO_LSB | BMI055_READ_REG);
    23c4:	2182      	movs	r1, #130	; 0x82
    23c6:	615a      	str	r2, [r3, #20]
    23c8:	2000      	movs	r0, #0
    23ca:	47a8      	blx	r5
    byteOne = spiDataTransfer(SPI0,dummy_Tx);
    23cc:	0031      	movs	r1, r6
    23ce:	2000      	movs	r0, #0
    23d0:	47a8      	blx	r5
    byteTwo = spiDataTransfer(SPI0,dummy_Tx);
    23d2:	0031      	movs	r1, r6
    byteOne = spiDataTransfer(SPI0,dummy_Tx);
    23d4:	0007      	movs	r7, r0
    byteTwo = spiDataTransfer(SPI0,dummy_Tx);
    23d6:	2000      	movs	r0, #0
    23d8:	47a8      	blx	r5
    u16_t comp = byteOne | (byteTwo << 8);
    23da:	0200      	lsls	r0, r0, #8
    23dc:	4307      	orrs	r7, r0
    23de:	b23b      	sxth	r3, r7
    byteOne = spiDataTransfer(SPI0,dummy_Tx);
    23e0:	0031      	movs	r1, r6
    23e2:	2000      	movs	r0, #0
    u16_t comp = byteOne | (byteTwo << 8);
    23e4:	9302      	str	r3, [sp, #8]
    byteOne = spiDataTransfer(SPI0,dummy_Tx);
    23e6:	47a8      	blx	r5
    byteTwo = spiDataTransfer(SPI0,dummy_Tx);
    23e8:	0031      	movs	r1, r6
    byteOne = spiDataTransfer(SPI0,dummy_Tx);
    23ea:	0007      	movs	r7, r0
    byteTwo = spiDataTransfer(SPI0,dummy_Tx);
    23ec:	2000      	movs	r0, #0
    23ee:	47a8      	blx	r5
    u16_t comp = byteOne | (byteTwo << 8);
    23f0:	0200      	lsls	r0, r0, #8
    byteOne = spiDataTransfer(SPI0,dummy_Tx);
    23f2:	0031      	movs	r1, r6
    u16_t comp = byteOne | (byteTwo << 8);
    23f4:	4307      	orrs	r7, r0
    byteOne = spiDataTransfer(SPI0,dummy_Tx);
    23f6:	2000      	movs	r0, #0
    23f8:	47a8      	blx	r5
    byteTwo = spiDataTransfer(SPI0,dummy_Tx);
    23fa:	0031      	movs	r1, r6
    byteOne = spiDataTransfer(SPI0,dummy_Tx);
    23fc:	9003      	str	r0, [sp, #12]
    byteTwo = spiDataTransfer(SPI0,dummy_Tx);
    23fe:	2000      	movs	r0, #0
    2400:	47a8      	blx	r5
    PORT->Group[p.group].OUTSET.reg = (1<<p.pin);
    2402:	2280      	movs	r2, #128	; 0x80
    2404:	4b35      	ldr	r3, [pc, #212]	; (24dc <sampleTick+0x2e0>)
    2406:	00d2      	lsls	r2, r2, #3
    2408:	619a      	str	r2, [r3, #24]
    sample.gyroX =  gyroXint * BMI055_GYRO_2000DS_DIV;
    240a:	9b02      	ldr	r3, [sp, #8]
    byteTwo = spiDataTransfer(SPI0,dummy_Tx);
    240c:	0005      	movs	r5, r0
    sample.gyroX =  gyroXint * BMI055_GYRO_2000DS_DIV;
    240e:	1118      	asrs	r0, r3, #4
    2410:	4b2a      	ldr	r3, [pc, #168]	; (24bc <sampleTick+0x2c0>)
    2412:	4798      	blx	r3
    2414:	23fe      	movs	r3, #254	; 0xfe
    2416:	4e2b      	ldr	r6, [pc, #172]	; (24c4 <sampleTick+0x2c8>)
    2418:	2200      	movs	r2, #0
    241a:	059b      	lsls	r3, r3, #22
    241c:	47b0      	blx	r6
    241e:	4b2b      	ldr	r3, [pc, #172]	; (24cc <sampleTick+0x2d0>)
    2420:	4798      	blx	r3
    u16_t comp = byteOne | (byteTwo << 8);
    2422:	b23f      	sxth	r7, r7
    sample.gyroY =  gyroYint * BMI055_GYRO_2000DS_DIV;
    2424:	4b25      	ldr	r3, [pc, #148]	; (24bc <sampleTick+0x2c0>)
    sample.gyroX =  gyroXint * BMI055_GYRO_2000DS_DIV;
    2426:	62e0      	str	r0, [r4, #44]	; 0x2c
    sample.gyroY =  gyroYint * BMI055_GYRO_2000DS_DIV;
    2428:	1138      	asrs	r0, r7, #4
    242a:	4798      	blx	r3
    242c:	23fe      	movs	r3, #254	; 0xfe
    242e:	2200      	movs	r2, #0
    2430:	059b      	lsls	r3, r3, #22
    2432:	47b0      	blx	r6
    2434:	4b25      	ldr	r3, [pc, #148]	; (24cc <sampleTick+0x2d0>)
    2436:	4798      	blx	r3
    u16_t comp = byteOne | (byteTwo << 8);
    2438:	9b03      	ldr	r3, [sp, #12]
    sample.gyroY =  gyroYint * BMI055_GYRO_2000DS_DIV;
    243a:	6320      	str	r0, [r4, #48]	; 0x30
    u16_t comp = byteOne | (byteTwo << 8);
    243c:	0228      	lsls	r0, r5, #8
    243e:	4318      	orrs	r0, r3
    gyroZint = gyroZint >> 4;
    2440:	b200      	sxth	r0, r0
    sample.gyroZ =  gyroZint * BMI055_GYRO_2000DS_DIV;
    2442:	4b1e      	ldr	r3, [pc, #120]	; (24bc <sampleTick+0x2c0>)
    2444:	1100      	asrs	r0, r0, #4
    2446:	4798      	blx	r3
    2448:	23fe      	movs	r3, #254	; 0xfe
    244a:	2200      	movs	r2, #0
    244c:	059b      	lsls	r3, r3, #22
    244e:	47b0      	blx	r6
    2450:	4b1e      	ldr	r3, [pc, #120]	; (24cc <sampleTick+0x2d0>)
    2452:	4798      	blx	r3
    2454:	6360      	str	r0, [r4, #52]	; 0x34
    delay_us(400);
    2456:	20c8      	movs	r0, #200	; 0xc8
    2458:	4b22      	ldr	r3, [pc, #136]	; (24e4 <sampleTick+0x2e8>)
    245a:	0040      	lsls	r0, r0, #1
    245c:	4798      	blx	r3
    u32_t PressureRaw = readMS5803AdcResults();
    245e:	4b22      	ldr	r3, [pc, #136]	; (24e8 <sampleTick+0x2ec>)
    2460:	4798      	blx	r3
    ConvertPressureTemperature(PressureRaw, tempRaw, &sample.temperatureCelcus, &sample.pressureMbar);
    2462:	4a24      	ldr	r2, [pc, #144]	; (24f4 <sampleTick+0x2f8>)
    2464:	4b24      	ldr	r3, [pc, #144]	; (24f8 <sampleTick+0x2fc>)
    2466:	9901      	ldr	r1, [sp, #4]
    2468:	4e24      	ldr	r6, [pc, #144]	; (24fc <sampleTick+0x300>)
    u32_t PressureRaw = readMS5803AdcResults();
    246a:	0005      	movs	r5, r0
    ConvertPressureTemperature(PressureRaw, tempRaw, &sample.temperatureCelcus, &sample.pressureMbar);
    246c:	47b0      	blx	r6
    sample.altitudefeet = paToFeetNOAA(sample.pressureMbar);
    246e:	4b24      	ldr	r3, [pc, #144]	; (2500 <sampleTick+0x304>)
    2470:	6ba0      	ldr	r0, [r4, #56]	; 0x38
    2472:	4798      	blx	r3
    if ( (PressureRaw < 10) | (tempRaw < 10)) {
    2474:	2300      	movs	r3, #0
    2476:	2209      	movs	r2, #9
    sample.altitudefeet = paToFeetNOAA(sample.pressureMbar);
    2478:	6420      	str	r0, [r4, #64]	; 0x40
    247a:	6461      	str	r1, [r4, #68]	; 0x44
    if ( (PressureRaw < 10) | (tempRaw < 10)) {
    247c:	0019      	movs	r1, r3
    247e:	42aa      	cmp	r2, r5
    2480:	415b      	adcs	r3, r3
    2482:	b2db      	uxtb	r3, r3
    2484:	428b      	cmp	r3, r1
    2486:	d105      	bne.n	2494 <sampleTick+0x298>
    2488:	9901      	ldr	r1, [sp, #4]
    248a:	428a      	cmp	r2, r1
    248c:	415b      	adcs	r3, r3
    248e:	b2db      	uxtb	r3, r3
    2490:	2b00      	cmp	r3, #0
    2492:	d003      	beq.n	249c <sampleTick+0x2a0>
        beep(400);
    2494:	20c8      	movs	r0, #200	; 0xc8
    2496:	4b1b      	ldr	r3, [pc, #108]	; (2504 <sampleTick+0x308>)
    2498:	0040      	lsls	r0, r0, #1
    249a:	4798      	blx	r3
}
    249c:	b007      	add	sp, #28
    249e:	bdf0      	pop	{r4, r5, r6, r7, pc}
    24a0:	20000538 	.word	0x20000538
    24a4:	00000f35 	.word	0x00000f35
    24a8:	200007c8 	.word	0x200007c8
    24ac:	200004d0 	.word	0x200004d0
    24b0:	00006264 	.word	0x00006264
    24b4:	20000528 	.word	0x20000528
    24b8:	00000c05 	.word	0x00000c05
    24bc:	00005ce1 	.word	0x00005ce1
    24c0:	77318fc5 	.word	0x77318fc5
    24c4:	0000510d 	.word	0x0000510d
    24c8:	3f5f212d 	.word	0x3f5f212d
    24cc:	00005e79 	.word	0x00005e79
    24d0:	fffff0c4 	.word	0xfffff0c4
    24d4:	02de00d2 	.word	0x02de00d2
    24d8:	bf8f8a09 	.word	0xbf8f8a09
    24dc:	41004400 	.word	0x41004400
    24e0:	00002615 	.word	0x00002615
    24e4:	00000ec1 	.word	0x00000ec1
    24e8:	00000419 	.word	0x00000419
    24ec:	41004494 	.word	0x41004494
    24f0:	41004498 	.word	0x41004498
    24f4:	20000804 	.word	0x20000804
    24f8:	20000800 	.word	0x20000800
    24fc:	00000459 	.word	0x00000459
    2500:	00000501 	.word	0x00000501
    2504:	00000c71 	.word	0x00000c71

00002508 <sercomClockEnable>:
#include <util.h>

void sercomClockEnable(SercomId id, uint32_t clock_channel, u8_t divider) {
    2508:	b570      	push	{r4, r5, r6, lr}
    250a:	0005      	movs	r5, r0
    // prevent this clock write from changing any other clocks
    PM->APBCMASK.reg |= 1 << (PM_APBCMASK_SERCOM0_Pos + id);
    250c:	2301      	movs	r3, #1
    250e:	1cae      	adds	r6, r5, #2
    2510:	40b3      	lsls	r3, r6
void sercomClockEnable(SercomId id, uint32_t clock_channel, u8_t divider) {
    2512:	000c      	movs	r4, r1
    PM->APBCMASK.reg |= 1 << (PM_APBCMASK_SERCOM0_Pos + id);
    2514:	490b      	ldr	r1, [pc, #44]	; (2544 <sercomClockEnable+0x3c>)
    2516:	6a08      	ldr	r0, [r1, #32]
    2518:	4303      	orrs	r3, r0
    251a:	620b      	str	r3, [r1, #32]


    if (clock_channel != 0) {
    251c:	2c00      	cmp	r4, #0
    251e:	d003      	beq.n	2528 <sercomClockEnable+0x20>
        // clock generators 3-8 have 8 division factor bits - DIV[7:0]
        gclkEnable(clock_channel, GCLK_SOURCE_DFLL48M, divider);
    2520:	2107      	movs	r1, #7
    2522:	0020      	movs	r0, r4
    2524:	4b08      	ldr	r3, [pc, #32]	; (2548 <sercomClockEnable+0x40>)
    2526:	4798      	blx	r3
    }


    // attach clock
    GCLK->CLKCTRL.reg = GCLK_CLKCTRL_CLKEN |
                        GCLK_CLKCTRL_GEN(clock_channel) |
    2528:	23f0      	movs	r3, #240	; 0xf0
    252a:	0224      	lsls	r4, r4, #8
    252c:	011b      	lsls	r3, r3, #4
    252e:	401c      	ands	r4, r3
    2530:	2380      	movs	r3, #128	; 0x80
    2532:	01db      	lsls	r3, r3, #7
    2534:	431c      	orrs	r4, r3
                        GCLK_CLKCTRL_ID(SERCOM0_GCLK_ID_CORE + id);
    2536:	233f      	movs	r3, #63	; 0x3f
    2538:	3514      	adds	r5, #20
    253a:	401d      	ands	r5, r3
    GCLK->CLKCTRL.reg = GCLK_CLKCTRL_CLKEN |
    253c:	4b03      	ldr	r3, [pc, #12]	; (254c <sercomClockEnable+0x44>)
                        GCLK_CLKCTRL_GEN(clock_channel) |
    253e:	4325      	orrs	r5, r4
    GCLK->CLKCTRL.reg = GCLK_CLKCTRL_CLKEN |
    2540:	805d      	strh	r5, [r3, #2]
}
    2542:	bd70      	pop	{r4, r5, r6, pc}
    2544:	40000400 	.word	0x40000400
    2548:	00000e71 	.word	0x00000e71
    254c:	40000c00 	.word	0x40000c00

00002550 <sercomReset>:
    return (Sercom*) (0x42000800U + id * 1024);
    2550:	4b04      	ldr	r3, [pc, #16]	; (2564 <sercomReset+0x14>)
    2552:	0280      	lsls	r0, r0, #10
    2554:	18c0      	adds	r0, r0, r3


void sercomReset(SercomId id) {
    sercom(id)->SPI.CTRLA.reg = SERCOM_SPI_CTRLA_SWRST;
    2556:	2301      	movs	r3, #1
    2558:	6003      	str	r3, [r0, #0]
    while(sercom(id)->SPI.CTRLA.reg & SERCOM_SPI_CTRLA_SWRST);
    255a:	6802      	ldr	r2, [r0, #0]
    255c:	421a      	tst	r2, r3
    255e:	d1fc      	bne.n	255a <sercomReset+0xa>
}
    2560:	4770      	bx	lr
    2562:	46c0      	nop			; (mov r8, r8)
    2564:	42000800 	.word	0x42000800

00002568 <sercomSpiMasterInit>:
          | (cpol ? SERCOM_SPI_CTRLA_CPOL : 0)
          | (cpha ? SERCOM_SPI_CTRLA_CPHA : 0);
}


void sercomSpiMasterInit(SercomId id, u32_t dipo, u32_t dopo, bool cpol, bool cpha, u8_t baud) {
    2568:	b5f7      	push	{r0, r1, r2, r4, r5, r6, r7, lr}
    256a:	0004      	movs	r4, r0
    256c:	9300      	str	r3, [sp, #0]
    256e:	ab08      	add	r3, sp, #32
    2570:	781b      	ldrb	r3, [r3, #0]
    2572:	0016      	movs	r6, r2
    2574:	9301      	str	r3, [sp, #4]
    2576:	ab09      	add	r3, sp, #36	; 0x24
    2578:	781f      	ldrb	r7, [r3, #0]

    sercomReset(id);
    257a:	4b12      	ldr	r3, [pc, #72]	; (25c4 <sercomSpiMasterInit+0x5c>)
void sercomSpiMasterInit(SercomId id, u32_t dipo, u32_t dopo, bool cpol, bool cpha, u8_t baud) {
    257c:	000d      	movs	r5, r1
    sercomReset(id);
    257e:	4798      	blx	r3
    2580:	4b11      	ldr	r3, [pc, #68]	; (25c8 <sercomSpiMasterInit+0x60>)
    2582:	02a4      	lsls	r4, r4, #10
    2584:	18e4      	adds	r4, r4, r3

    sercom(id)->SPI.CTRLB.reg
        = SERCOM_SPI_CTRLB_RXEN;
    2586:	2380      	movs	r3, #128	; 0x80
    2588:	029b      	lsls	r3, r3, #10
    258a:	6063      	str	r3, [r4, #4]
    sercom(id)->SPI.BAUD.reg = baud;

    sercom(id)->SPI.CTRLA.reg
        = SERCOM_SPI_CTRLA_ENABLE
          | SERCOM_SPI_CTRLA_MODE_SPI_MASTER
          | SERCOM_SPI_CTRLA_DIPO(dipo)
    258c:	23c0      	movs	r3, #192	; 0xc0
    258e:	052d      	lsls	r5, r5, #20
    2590:	039b      	lsls	r3, r3, #14
    2592:	401d      	ands	r5, r3
          | SERCOM_SPI_CTRLA_DOPO(dopo)
    2594:	23c0      	movs	r3, #192	; 0xc0
    2596:	0436      	lsls	r6, r6, #16
    2598:	029b      	lsls	r3, r3, #10
    259a:	401e      	ands	r6, r3
    259c:	230e      	movs	r3, #14
    259e:	431e      	orrs	r6, r3
          | (cpol ? SERCOM_SPI_CTRLA_CPOL : 0)
    25a0:	9b00      	ldr	r3, [sp, #0]
    25a2:	4335      	orrs	r5, r6
    25a4:	1e5a      	subs	r2, r3, #1
    25a6:	4193      	sbcs	r3, r2
          | (cpha ? SERCOM_SPI_CTRLA_CPHA : 0);
    25a8:	9a01      	ldr	r2, [sp, #4]
          | (cpol ? SERCOM_SPI_CTRLA_CPOL : 0)
    25aa:	075b      	lsls	r3, r3, #29
          | (cpha ? SERCOM_SPI_CTRLA_CPHA : 0);
    25ac:	1e51      	subs	r1, r2, #1
    25ae:	418a      	sbcs	r2, r1
    25b0:	431d      	orrs	r5, r3
    25b2:	0712      	lsls	r2, r2, #28
    25b4:	4315      	orrs	r5, r2
    sercom(id)->SPI.BAUD.reg = baud;
    25b6:	7327      	strb	r7, [r4, #12]
        = SERCOM_SPI_CTRLA_ENABLE
    25b8:	6025      	str	r5, [r4, #0]
        };
    }
}

static inline void SPI_sync(SercomId id) {
    while  (sercom(id)->SPI.SYNCBUSY.bit.CTRLB);
    25ba:	69e3      	ldr	r3, [r4, #28]
    25bc:	075b      	lsls	r3, r3, #29
    25be:	d4fc      	bmi.n	25ba <sercomSpiMasterInit+0x52>

    SPI_sync(id);
}
    25c0:	bdf7      	pop	{r0, r1, r2, r4, r5, r6, r7, pc}
    25c2:	46c0      	nop			; (mov r8, r8)
    25c4:	00002551 	.word	0x00002551
    25c8:	42000800 	.word	0x42000800

000025cc <sercomUartInit>:




void sercomUartInit(SercomId id, u32_t rxpo, u32_t txpo, int32_t fBAUD) {
    25cc:	b570      	push	{r4, r5, r6, lr}
    25ce:	0006      	movs	r6, r0

    //float BAUD = 65536*(1-(16*(115200/(48000000/8))));


    sercomReset(id);
    25d0:	4b0c      	ldr	r3, [pc, #48]	; (2604 <sercomUartInit+0x38>)
void sercomUartInit(SercomId id, u32_t rxpo, u32_t txpo, int32_t fBAUD) {
    25d2:	000d      	movs	r5, r1
    25d4:	0014      	movs	r4, r2
    sercomReset(id);
    25d6:	4798      	blx	r3
    return (Sercom*) (0x42000800U + id * 1024);
    25d8:	4b0b      	ldr	r3, [pc, #44]	; (2608 <sercomUartInit+0x3c>)
    25da:	02b0      	lsls	r0, r6, #10
    25dc:	18c0      	adds	r0, r0, r3
    sercom(id)->USART.CTRLA.reg = SERCOM_USART_CTRLA_MODE_USART_INT_CLK;
    25de:	2304      	movs	r3, #4
    sercom(id)->USART.CTRLA.reg
        = SERCOM_USART_CTRLA_ENABLE
          | SERCOM_USART_CTRLA_MODE_USART_INT_CLK
          | SERCOM_SPI_CTRLA_DORD
          | SERCOM_USART_CTRLA_TXPO(txpo)
          | SERCOM_USART_CTRLA_RXPO(rxpo);
    25e0:	22c0      	movs	r2, #192	; 0xc0
    sercom(id)->USART.CTRLA.reg = SERCOM_USART_CTRLA_MODE_USART_INT_CLK;
    25e2:	6003      	str	r3, [r0, #0]
    sercom(id)->USART.BAUD.reg = 45403;
    25e4:	4b09      	ldr	r3, [pc, #36]	; (260c <sercomUartInit+0x40>)
          | SERCOM_USART_CTRLA_RXPO(rxpo);
    25e6:	0392      	lsls	r2, r2, #14
    sercom(id)->USART.BAUD.reg = 45403;
    25e8:	8183      	strh	r3, [r0, #12]
        = SERCOM_USART_CTRLB_RXEN
    25ea:	23c0      	movs	r3, #192	; 0xc0
          | SERCOM_USART_CTRLA_RXPO(rxpo);
    25ec:	052d      	lsls	r5, r5, #20
    25ee:	4015      	ands	r5, r2
    25f0:	4a07      	ldr	r2, [pc, #28]	; (2610 <sercomUartInit+0x44>)
        = SERCOM_USART_CTRLB_RXEN
    25f2:	029b      	lsls	r3, r3, #10
          | SERCOM_USART_CTRLA_TXPO(txpo)
    25f4:	0424      	lsls	r4, r4, #16
          | SERCOM_USART_CTRLA_RXPO(rxpo);
    25f6:	432a      	orrs	r2, r5
          | SERCOM_USART_CTRLA_TXPO(txpo)
    25f8:	401c      	ands	r4, r3
          | SERCOM_USART_CTRLA_RXPO(rxpo);
    25fa:	4322      	orrs	r2, r4
        = SERCOM_USART_CTRLB_RXEN
    25fc:	6043      	str	r3, [r0, #4]
        = SERCOM_USART_CTRLA_ENABLE
    25fe:	6002      	str	r2, [r0, #0]
}
    2600:	bd70      	pop	{r4, r5, r6, pc}
    2602:	46c0      	nop			; (mov r8, r8)
    2604:	00002551 	.word	0x00002551
    2608:	42000800 	.word	0x42000800
    260c:	ffffb15b 	.word	0xffffb15b
    2610:	40000006 	.word	0x40000006

00002614 <spiDataTransfer>:
    2614:	4b04      	ldr	r3, [pc, #16]	; (2628 <spiDataTransfer+0x14>)
    2616:	0280      	lsls	r0, r0, #10
    2618:	18c0      	adds	r0, r0, r3

u8_t spiDataTransfer(SercomId id, u8_t data) {
    sercom(id)->SPI.DATA.reg = data;
    261a:	6281      	str	r1, [r0, #40]	; 0x28
    while(sercom(id)->SPI.INTFLAG.bit.RXC == 0);
    261c:	7e03      	ldrb	r3, [r0, #24]
    261e:	075b      	lsls	r3, r3, #29
    2620:	d5fc      	bpl.n	261c <spiDataTransfer+0x8>
    return sercom(id)->SPI.DATA.reg;
    2622:	6a80      	ldr	r0, [r0, #40]	; 0x28
    2624:	b2c0      	uxtb	r0, r0
}
    2626:	4770      	bx	lr
    2628:	42000800 	.word	0x42000800

0000262c <usartDataOut>:
    262c:	4b04      	ldr	r3, [pc, #16]	; (2640 <usartDataOut+0x14>)
    262e:	0280      	lsls	r0, r0, #10
    2630:	18c0      	adds	r0, r0, r3
    while(sercom(id)->SPI.INTFLAG.bit.DRE == 0);
    return sercom(id)->SPI.DATA.reg;
}

void usartDataOut(SercomId id, u8_t data) {
    sercom(id)->USART.DATA.reg = data;
    2632:	b289      	uxth	r1, r1
    2634:	8501      	strh	r1, [r0, #40]	; 0x28
    while(sercom(id)->USART.INTFLAG.bit.DRE == 0);
    2636:	7e03      	ldrb	r3, [r0, #24]
    2638:	07db      	lsls	r3, r3, #31
    263a:	d5fc      	bpl.n	2636 <usartDataOut+0xa>
}
    263c:	4770      	bx	lr
    263e:	46c0      	nop			; (mov r8, r8)
    2640:	42000800 	.word	0x42000800

00002644 <usartDataIn>:
    2644:	4b02      	ldr	r3, [pc, #8]	; (2650 <usartDataIn+0xc>)
    2646:	0280      	lsls	r0, r0, #10
    2648:	18c0      	adds	r0, r0, r3

u8_t usartDataIn(SercomId id) {
    return sercom(id)->USART.DATA.reg;
    264a:	8d00      	ldrh	r0, [r0, #40]	; 0x28
    264c:	b2c0      	uxtb	r0, r0
}
    264e:	4770      	bx	lr
    2650:	42000800 	.word	0x42000800

00002654 <attemptConnection>:
#include <util.h>
#include <boardDefines.h>


void attemptConnection() {
    2654:	b5f8      	push	{r3, r4, r5, r6, r7, lr}

    if (USARTconnectionAvaliable()) {
    2656:	4b2f      	ldr	r3, [pc, #188]	; (2714 <attemptConnection+0xc0>)
    2658:	4798      	blx	r3
    265a:	2800      	cmp	r0, #0
    265c:	d049      	beq.n	26f2 <attemptConnection+0x9e>

        flightState = flightIdle;
    265e:	2201      	movs	r2, #1
    2660:	4b2d      	ldr	r3, [pc, #180]	; (2718 <attemptConnection+0xc4>)
    2662:	701a      	strb	r2, [r3, #0]

        //wait for user to tell us what they want
        while(sercom(USART3)->SPI.INTFLAG.bit.RXC == 0);
    2664:	4b2d      	ldr	r3, [pc, #180]	; (271c <attemptConnection+0xc8>)
    2666:	001f      	movs	r7, r3
    2668:	7e1a      	ldrb	r2, [r3, #24]
    266a:	0752      	lsls	r2, r2, #29
    266c:	d5fc      	bpl.n	2668 <attemptConnection+0x14>
        u8_t option = usartDataIn(USART3);
    266e:	2003      	movs	r0, #3
    2670:	4d2b      	ldr	r5, [pc, #172]	; (2720 <attemptConnection+0xcc>)
    2672:	47a8      	blx	r5
    2674:	0004      	movs	r4, r0

        //user wants to read flight logs
        if (option == 0x4C) {
    2676:	284c      	cmp	r0, #76	; 0x4c
    2678:	d13c      	bne.n	26f4 <attemptConnection+0xa0>
    267a:	2400      	movs	r4, #0

            //send list of available flight logs
            for (u8_t flightLog = 0; flightLog < 11; ++flightLog) {

                if (isFlightLogged(flightLog)) {
    267c:	0020      	movs	r0, r4
    267e:	4b29      	ldr	r3, [pc, #164]	; (2724 <attemptConnection+0xd0>)
    2680:	4798      	blx	r3
    2682:	2800      	cmp	r0, #0
    2684:	d005      	beq.n	2692 <attemptConnection+0x3e>

                    usartDataOut(USART3, flightLog + 0x30);
    2686:	0021      	movs	r1, r4
    2688:	3130      	adds	r1, #48	; 0x30
    268a:	b2c9      	uxtb	r1, r1
    268c:	2003      	movs	r0, #3
    268e:	4b26      	ldr	r3, [pc, #152]	; (2728 <attemptConnection+0xd4>)
    2690:	4798      	blx	r3
            for (u8_t flightLog = 0; flightLog < 11; ++flightLog) {
    2692:	3401      	adds	r4, #1
    2694:	b2e4      	uxtb	r4, r4
    2696:	2c0b      	cmp	r4, #11
    2698:	d1f0      	bne.n	267c <attemptConnection+0x28>
                }
            }
            //done sending flight numbers
            usartDataOut(USART3, 0x0F);
    269a:	210f      	movs	r1, #15
    269c:	2003      	movs	r0, #3
    269e:	4e22      	ldr	r6, [pc, #136]	; (2728 <attemptConnection+0xd4>)
    26a0:	47b0      	blx	r6

            //wait for user to pick which flight to read
            while(sercom(USART3)->SPI.INTFLAG.bit.RXC == 0);
    26a2:	7e3b      	ldrb	r3, [r7, #24]
    26a4:	075b      	lsls	r3, r3, #29
    26a6:	d5fc      	bpl.n	26a2 <attemptConnection+0x4e>
            u8_t flightToRead = usartDataIn(USART3) - 0x30;
    26a8:	2003      	movs	r0, #3
    26aa:	47a8      	blx	r5
    26ac:	3830      	subs	r0, #48	; 0x30
    26ae:	b2c4      	uxtb	r4, r0


            u32_t flightStartAddress = getFlightStartAddress(flightToRead);
    26b0:	0020      	movs	r0, r4
    26b2:	4b1e      	ldr	r3, [pc, #120]	; (272c <attemptConnection+0xd8>)
    26b4:	4798      	blx	r3
            u32_t flightEndAddress = FindFlightEndingAddress(flightToRead) - 0x100;
    26b6:	4b1e      	ldr	r3, [pc, #120]	; (2730 <attemptConnection+0xdc>)
            u32_t flightStartAddress = getFlightStartAddress(flightToRead);
    26b8:	0007      	movs	r7, r0
            u32_t flightEndAddress = FindFlightEndingAddress(flightToRead) - 0x100;
    26ba:	0020      	movs	r0, r4
    26bc:	4798      	blx	r3
    26be:	1e45      	subs	r5, r0, #1
    26c0:	3dff      	subs	r5, #255	; 0xff

            //inform of page numbers
            u16_t pagesToSend = (flightEndAddress  - flightStartAddress) >> 8;
    26c2:	1bec      	subs	r4, r5, r7
    26c4:	0a24      	lsrs	r4, r4, #8
            usartDataOut(USART3, pagesToSend >> 0);
    26c6:	b2e1      	uxtb	r1, r4
    26c8:	2003      	movs	r0, #3
    26ca:	47b0      	blx	r6
            usartDataOut(USART3, pagesToSend >> 8);
    26cc:	b2a1      	uxth	r1, r4
    26ce:	0a09      	lsrs	r1, r1, #8
    26d0:	2003      	movs	r0, #3
    26d2:	47b0      	blx	r6

            //send flight end address for % full
            usartDataOut(USART3, flightEndAddress >> 0);
    26d4:	b2e9      	uxtb	r1, r5
    26d6:	2003      	movs	r0, #3
    26d8:	47b0      	blx	r6
            usartDataOut(USART3, flightEndAddress >> 8);
    26da:	0a29      	lsrs	r1, r5, #8
    26dc:	b2c9      	uxtb	r1, r1
    26de:	2003      	movs	r0, #3
    26e0:	47b0      	blx	r6
            usartDataOut(USART3, flightEndAddress >> 16);
    26e2:	0c29      	lsrs	r1, r5, #16
    26e4:	b2c9      	uxtb	r1, r1
    26e6:	2003      	movs	r0, #3
    26e8:	47b0      	blx	r6

            //USART out the flights pages
            sendTheasePagesToComputer(flightStartAddress, flightEndAddress);
    26ea:	0029      	movs	r1, r5
    26ec:	0038      	movs	r0, r7
    26ee:	4b11      	ldr	r3, [pc, #68]	; (2734 <attemptConnection+0xe0>)
    26f0:	4798      	blx	r3


        }
    }

}
    26f2:	bdf8      	pop	{r3, r4, r5, r6, r7, pc}
        if (option == 0x45) { // 'E'
    26f4:	2845      	cmp	r0, #69	; 0x45
    26f6:	d1fc      	bne.n	26f2 <attemptConnection+0x9e>
            AT25SFChipErase();
    26f8:	4b0f      	ldr	r3, [pc, #60]	; (2738 <attemptConnection+0xe4>)
    26fa:	4798      	blx	r3
            AT25SFHoldTillReady();
    26fc:	4b0f      	ldr	r3, [pc, #60]	; (273c <attemptConnection+0xe8>)
    26fe:	4798      	blx	r3
            usartDataOut(USART3, 'E');
    2700:	0021      	movs	r1, r4
    2702:	2003      	movs	r0, #3
    2704:	4b08      	ldr	r3, [pc, #32]	; (2728 <attemptConnection+0xd4>)
    2706:	4798      	blx	r3
            beep(400);
    2708:	20c8      	movs	r0, #200	; 0xc8
    270a:	4b0d      	ldr	r3, [pc, #52]	; (2740 <attemptConnection+0xec>)
    270c:	0040      	lsls	r0, r0, #1
    270e:	4798      	blx	r3
}
    2710:	e7ef      	b.n	26f2 <attemptConnection+0x9e>
    2712:	46c0      	nop			; (mov r8, r8)
    2714:	00000a95 	.word	0x00000a95
    2718:	20000684 	.word	0x20000684
    271c:	42001400 	.word	0x42001400
    2720:	00002645 	.word	0x00002645
    2724:	000020d5 	.word	0x000020d5
    2728:	0000262d 	.word	0x0000262d
    272c:	0000207d 	.word	0x0000207d
    2730:	000020a9 	.word	0x000020a9
    2734:	00000ac9 	.word	0x00000ac9
    2738:	0000021d 	.word	0x0000021d
    273c:	000001e5 	.word	0x000001e5
    2740:	00000c71 	.word	0x00000c71

00002744 <pow>:
    2744:	b5f0      	push	{r4, r5, r6, r7, lr}
    2746:	4657      	mov	r7, sl
    2748:	464e      	mov	r6, r9
    274a:	46de      	mov	lr, fp
    274c:	4645      	mov	r5, r8
    274e:	b5e0      	push	{r5, r6, r7, lr}
    2750:	b08f      	sub	sp, #60	; 0x3c
    2752:	001d      	movs	r5, r3
    2754:	0006      	movs	r6, r0
    2756:	000f      	movs	r7, r1
    2758:	0014      	movs	r4, r2
    275a:	f000 f99f 	bl	2a9c <__ieee754_pow>
    275e:	4bc7      	ldr	r3, [pc, #796]	; (2a7c <pow+0x338>)
    2760:	9000      	str	r0, [sp, #0]
    2762:	9101      	str	r1, [sp, #4]
    2764:	469a      	mov	sl, r3
    2766:	781b      	ldrb	r3, [r3, #0]
    2768:	b25b      	sxtb	r3, r3
    276a:	4699      	mov	r9, r3
    276c:	3301      	adds	r3, #1
    276e:	d03e      	beq.n	27ee <pow+0xaa>
    2770:	0022      	movs	r2, r4
    2772:	002b      	movs	r3, r5
    2774:	0020      	movs	r0, r4
    2776:	0029      	movs	r1, r5
    2778:	f003 fa5e 	bl	5c38 <__aeabi_dcmpun>
    277c:	4683      	mov	fp, r0
    277e:	2800      	cmp	r0, #0
    2780:	d135      	bne.n	27ee <pow+0xaa>
    2782:	0032      	movs	r2, r6
    2784:	003b      	movs	r3, r7
    2786:	0030      	movs	r0, r6
    2788:	0039      	movs	r1, r7
    278a:	f003 fa55 	bl	5c38 <__aeabi_dcmpun>
    278e:	2200      	movs	r2, #0
    2790:	9003      	str	r0, [sp, #12]
    2792:	2800      	cmp	r0, #0
    2794:	d000      	beq.n	2798 <pow+0x54>
    2796:	e0b6      	b.n	2906 <pow+0x1c2>
    2798:	2300      	movs	r3, #0
    279a:	0030      	movs	r0, r6
    279c:	0039      	movs	r1, r7
    279e:	f001 f8d5 	bl	394c <__aeabi_dcmpeq>
    27a2:	2800      	cmp	r0, #0
    27a4:	d02c      	beq.n	2800 <pow+0xbc>
    27a6:	2200      	movs	r2, #0
    27a8:	2300      	movs	r3, #0
    27aa:	0020      	movs	r0, r4
    27ac:	0029      	movs	r1, r5
    27ae:	f001 f8cd 	bl	394c <__aeabi_dcmpeq>
    27b2:	4683      	mov	fp, r0
    27b4:	2800      	cmp	r0, #0
    27b6:	d100      	bne.n	27ba <pow+0x76>
    27b8:	e077      	b.n	28aa <pow+0x166>
    27ba:	ab04      	add	r3, sp, #16
    27bc:	4698      	mov	r8, r3
    27be:	2301      	movs	r3, #1
    27c0:	4642      	mov	r2, r8
    27c2:	9304      	str	r3, [sp, #16]
    27c4:	4bae      	ldr	r3, [pc, #696]	; (2a80 <pow+0x33c>)
    27c6:	6053      	str	r3, [r2, #4]
    27c8:	4643      	mov	r3, r8
    27ca:	9a03      	ldr	r2, [sp, #12]
    27cc:	611c      	str	r4, [r3, #16]
    27ce:	615d      	str	r5, [r3, #20]
    27d0:	621a      	str	r2, [r3, #32]
    27d2:	609e      	str	r6, [r3, #8]
    27d4:	60df      	str	r7, [r3, #12]
    27d6:	4642      	mov	r2, r8
    27d8:	2300      	movs	r3, #0
    27da:	2400      	movs	r4, #0
    27dc:	6193      	str	r3, [r2, #24]
    27de:	61d4      	str	r4, [r2, #28]
    27e0:	464b      	mov	r3, r9
    27e2:	2b00      	cmp	r3, #0
    27e4:	d04d      	beq.n	2882 <pow+0x13e>
    27e6:	2300      	movs	r3, #0
    27e8:	4ca6      	ldr	r4, [pc, #664]	; (2a84 <pow+0x340>)
    27ea:	9300      	str	r3, [sp, #0]
    27ec:	9401      	str	r4, [sp, #4]
    27ee:	9800      	ldr	r0, [sp, #0]
    27f0:	9901      	ldr	r1, [sp, #4]
    27f2:	b00f      	add	sp, #60	; 0x3c
    27f4:	bc3c      	pop	{r2, r3, r4, r5}
    27f6:	4690      	mov	r8, r2
    27f8:	4699      	mov	r9, r3
    27fa:	46a2      	mov	sl, r4
    27fc:	46ab      	mov	fp, r5
    27fe:	bdf0      	pop	{r4, r5, r6, r7, pc}
    2800:	9800      	ldr	r0, [sp, #0]
    2802:	9901      	ldr	r1, [sp, #4]
    2804:	f000 ff64 	bl	36d0 <finite>
    2808:	4681      	mov	r9, r0
    280a:	2800      	cmp	r0, #0
    280c:	d100      	bne.n	2810 <pow+0xcc>
    280e:	e09b      	b.n	2948 <pow+0x204>
    2810:	9800      	ldr	r0, [sp, #0]
    2812:	9901      	ldr	r1, [sp, #4]
    2814:	2200      	movs	r2, #0
    2816:	2300      	movs	r3, #0
    2818:	f001 f898 	bl	394c <__aeabi_dcmpeq>
    281c:	2800      	cmp	r0, #0
    281e:	d0e6      	beq.n	27ee <pow+0xaa>
    2820:	0030      	movs	r0, r6
    2822:	0039      	movs	r1, r7
    2824:	f000 ff54 	bl	36d0 <finite>
    2828:	2800      	cmp	r0, #0
    282a:	d0e0      	beq.n	27ee <pow+0xaa>
    282c:	0020      	movs	r0, r4
    282e:	0029      	movs	r1, r5
    2830:	f000 ff4e 	bl	36d0 <finite>
    2834:	2800      	cmp	r0, #0
    2836:	d0da      	beq.n	27ee <pow+0xaa>
    2838:	ab04      	add	r3, sp, #16
    283a:	4698      	mov	r8, r3
    283c:	2304      	movs	r3, #4
    283e:	4642      	mov	r2, r8
    2840:	9304      	str	r3, [sp, #16]
    2842:	4b8f      	ldr	r3, [pc, #572]	; (2a80 <pow+0x33c>)
    2844:	6114      	str	r4, [r2, #16]
    2846:	6155      	str	r5, [r2, #20]
    2848:	6053      	str	r3, [r2, #4]
    284a:	2300      	movs	r3, #0
    284c:	2400      	movs	r4, #0
    284e:	6213      	str	r3, [r2, #32]
    2850:	2300      	movs	r3, #0
    2852:	6193      	str	r3, [r2, #24]
    2854:	61d4      	str	r4, [r2, #28]
    2856:	4653      	mov	r3, sl
    2858:	781b      	ldrb	r3, [r3, #0]
    285a:	6096      	str	r6, [r2, #8]
    285c:	60d7      	str	r7, [r2, #12]
    285e:	b25b      	sxtb	r3, r3
    2860:	2b02      	cmp	r3, #2
    2862:	d004      	beq.n	286e <pow+0x12a>
    2864:	4640      	mov	r0, r8
    2866:	f000 ff3d 	bl	36e4 <matherr>
    286a:	2800      	cmp	r0, #0
    286c:	d10e      	bne.n	288c <pow+0x148>
    286e:	f003 fc37 	bl	60e0 <__errno>
    2872:	2322      	movs	r3, #34	; 0x22
    2874:	6003      	str	r3, [r0, #0]
    2876:	e009      	b.n	288c <pow+0x148>
    2878:	4642      	mov	r2, r8
    287a:	2300      	movs	r3, #0
    287c:	2400      	movs	r4, #0
    287e:	6193      	str	r3, [r2, #24]
    2880:	61d4      	str	r4, [r2, #28]
    2882:	4640      	mov	r0, r8
    2884:	f000 ff2e 	bl	36e4 <matherr>
    2888:	2800      	cmp	r0, #0
    288a:	d037      	beq.n	28fc <pow+0x1b8>
    288c:	4643      	mov	r3, r8
    288e:	6a1b      	ldr	r3, [r3, #32]
    2890:	2b00      	cmp	r3, #0
    2892:	d004      	beq.n	289e <pow+0x15a>
    2894:	f003 fc24 	bl	60e0 <__errno>
    2898:	4643      	mov	r3, r8
    289a:	6a1b      	ldr	r3, [r3, #32]
    289c:	6003      	str	r3, [r0, #0]
    289e:	4643      	mov	r3, r8
    28a0:	69dc      	ldr	r4, [r3, #28]
    28a2:	699b      	ldr	r3, [r3, #24]
    28a4:	9300      	str	r3, [sp, #0]
    28a6:	9401      	str	r4, [sp, #4]
    28a8:	e7a1      	b.n	27ee <pow+0xaa>
    28aa:	0020      	movs	r0, r4
    28ac:	0029      	movs	r1, r5
    28ae:	f000 ff0f 	bl	36d0 <finite>
    28b2:	2800      	cmp	r0, #0
    28b4:	d09b      	beq.n	27ee <pow+0xaa>
    28b6:	2200      	movs	r2, #0
    28b8:	2300      	movs	r3, #0
    28ba:	0020      	movs	r0, r4
    28bc:	0029      	movs	r1, r5
    28be:	f001 f84b 	bl	3958 <__aeabi_dcmplt>
    28c2:	2800      	cmp	r0, #0
    28c4:	d100      	bne.n	28c8 <pow+0x184>
    28c6:	e792      	b.n	27ee <pow+0xaa>
    28c8:	ab04      	add	r3, sp, #16
    28ca:	4698      	mov	r8, r3
    28cc:	2301      	movs	r3, #1
    28ce:	4642      	mov	r2, r8
    28d0:	9304      	str	r3, [sp, #16]
    28d2:	4b6b      	ldr	r3, [pc, #428]	; (2a80 <pow+0x33c>)
    28d4:	6053      	str	r3, [r2, #4]
    28d6:	4643      	mov	r3, r8
    28d8:	465a      	mov	r2, fp
    28da:	609e      	str	r6, [r3, #8]
    28dc:	60df      	str	r7, [r3, #12]
    28de:	621a      	str	r2, [r3, #32]
    28e0:	611c      	str	r4, [r3, #16]
    28e2:	615d      	str	r5, [r3, #20]
    28e4:	4653      	mov	r3, sl
    28e6:	781b      	ldrb	r3, [r3, #0]
    28e8:	b25b      	sxtb	r3, r3
    28ea:	2b00      	cmp	r3, #0
    28ec:	d0c4      	beq.n	2878 <pow+0x134>
    28ee:	2000      	movs	r0, #0
    28f0:	4642      	mov	r2, r8
    28f2:	4965      	ldr	r1, [pc, #404]	; (2a88 <pow+0x344>)
    28f4:	6190      	str	r0, [r2, #24]
    28f6:	61d1      	str	r1, [r2, #28]
    28f8:	2b02      	cmp	r3, #2
    28fa:	d1c2      	bne.n	2882 <pow+0x13e>
    28fc:	f003 fbf0 	bl	60e0 <__errno>
    2900:	2321      	movs	r3, #33	; 0x21
    2902:	6003      	str	r3, [r0, #0]
    2904:	e7c2      	b.n	288c <pow+0x148>
    2906:	2300      	movs	r3, #0
    2908:	0020      	movs	r0, r4
    290a:	0029      	movs	r1, r5
    290c:	f001 f81e 	bl	394c <__aeabi_dcmpeq>
    2910:	2800      	cmp	r0, #0
    2912:	d100      	bne.n	2916 <pow+0x1d2>
    2914:	e76b      	b.n	27ee <pow+0xaa>
    2916:	ab04      	add	r3, sp, #16
    2918:	4698      	mov	r8, r3
    291a:	2301      	movs	r3, #1
    291c:	4642      	mov	r2, r8
    291e:	9304      	str	r3, [sp, #16]
    2920:	4b57      	ldr	r3, [pc, #348]	; (2a80 <pow+0x33c>)
    2922:	4641      	mov	r1, r8
    2924:	6053      	str	r3, [r2, #4]
    2926:	4643      	mov	r3, r8
    2928:	465a      	mov	r2, fp
    292a:	621a      	str	r2, [r3, #32]
    292c:	2200      	movs	r2, #0
    292e:	609e      	str	r6, [r3, #8]
    2930:	60df      	str	r7, [r3, #12]
    2932:	611c      	str	r4, [r3, #16]
    2934:	615d      	str	r5, [r3, #20]
    2936:	4b53      	ldr	r3, [pc, #332]	; (2a84 <pow+0x340>)
    2938:	618a      	str	r2, [r1, #24]
    293a:	61cb      	str	r3, [r1, #28]
    293c:	9200      	str	r2, [sp, #0]
    293e:	9301      	str	r3, [sp, #4]
    2940:	464b      	mov	r3, r9
    2942:	2b02      	cmp	r3, #2
    2944:	d19d      	bne.n	2882 <pow+0x13e>
    2946:	e752      	b.n	27ee <pow+0xaa>
    2948:	0030      	movs	r0, r6
    294a:	0039      	movs	r1, r7
    294c:	f000 fec0 	bl	36d0 <finite>
    2950:	2800      	cmp	r0, #0
    2952:	d100      	bne.n	2956 <pow+0x212>
    2954:	e75c      	b.n	2810 <pow+0xcc>
    2956:	0020      	movs	r0, r4
    2958:	0029      	movs	r1, r5
    295a:	f000 feb9 	bl	36d0 <finite>
    295e:	2800      	cmp	r0, #0
    2960:	d100      	bne.n	2964 <pow+0x220>
    2962:	e755      	b.n	2810 <pow+0xcc>
    2964:	9800      	ldr	r0, [sp, #0]
    2966:	9901      	ldr	r1, [sp, #4]
    2968:	000b      	movs	r3, r1
    296a:	0002      	movs	r2, r0
    296c:	f003 f964 	bl	5c38 <__aeabi_dcmpun>
    2970:	ab04      	add	r3, sp, #16
    2972:	4698      	mov	r8, r3
    2974:	2800      	cmp	r0, #0
    2976:	d161      	bne.n	2a3c <pow+0x2f8>
    2978:	2303      	movs	r3, #3
    297a:	4642      	mov	r2, r8
    297c:	9304      	str	r3, [sp, #16]
    297e:	4b40      	ldr	r3, [pc, #256]	; (2a80 <pow+0x33c>)
    2980:	6210      	str	r0, [r2, #32]
    2982:	6053      	str	r3, [r2, #4]
    2984:	4653      	mov	r3, sl
    2986:	781b      	ldrb	r3, [r3, #0]
    2988:	6096      	str	r6, [r2, #8]
    298a:	60d7      	str	r7, [r2, #12]
    298c:	b25b      	sxtb	r3, r3
    298e:	6114      	str	r4, [r2, #16]
    2990:	6155      	str	r5, [r2, #20]
    2992:	4699      	mov	r9, r3
    2994:	2b00      	cmp	r3, #0
    2996:	d12f      	bne.n	29f8 <pow+0x2b4>
    2998:	22e0      	movs	r2, #224	; 0xe0
    299a:	4641      	mov	r1, r8
    299c:	4b3b      	ldr	r3, [pc, #236]	; (2a8c <pow+0x348>)
    299e:	0612      	lsls	r2, r2, #24
    29a0:	618a      	str	r2, [r1, #24]
    29a2:	61cb      	str	r3, [r1, #28]
    29a4:	0030      	movs	r0, r6
    29a6:	2200      	movs	r2, #0
    29a8:	2300      	movs	r3, #0
    29aa:	0039      	movs	r1, r7
    29ac:	f000 ffd4 	bl	3958 <__aeabi_dcmplt>
    29b0:	2800      	cmp	r0, #0
    29b2:	d100      	bne.n	29b6 <pow+0x272>
    29b4:	e756      	b.n	2864 <pow+0x120>
    29b6:	2200      	movs	r2, #0
    29b8:	4b35      	ldr	r3, [pc, #212]	; (2a90 <pow+0x34c>)
    29ba:	0020      	movs	r0, r4
    29bc:	0029      	movs	r1, r5
    29be:	f002 fba5 	bl	510c <__aeabi_dmul>
    29c2:	0004      	movs	r4, r0
    29c4:	000d      	movs	r5, r1
    29c6:	f000 fe95 	bl	36f4 <rint>
    29ca:	0002      	movs	r2, r0
    29cc:	000b      	movs	r3, r1
    29ce:	0020      	movs	r0, r4
    29d0:	0029      	movs	r1, r5
    29d2:	f000 ffbb 	bl	394c <__aeabi_dcmpeq>
    29d6:	2800      	cmp	r0, #0
    29d8:	d105      	bne.n	29e6 <pow+0x2a2>
    29da:	22e0      	movs	r2, #224	; 0xe0
    29dc:	4b2d      	ldr	r3, [pc, #180]	; (2a94 <pow+0x350>)
    29de:	0612      	lsls	r2, r2, #24
    29e0:	4641      	mov	r1, r8
    29e2:	618a      	str	r2, [r1, #24]
    29e4:	61cb      	str	r3, [r1, #28]
    29e6:	4653      	mov	r3, sl
    29e8:	781b      	ldrb	r3, [r3, #0]
    29ea:	b25b      	sxtb	r3, r3
    29ec:	4699      	mov	r9, r3
    29ee:	464b      	mov	r3, r9
    29f0:	2b02      	cmp	r3, #2
    29f2:	d000      	beq.n	29f6 <pow+0x2b2>
    29f4:	e736      	b.n	2864 <pow+0x120>
    29f6:	e73a      	b.n	286e <pow+0x12a>
    29f8:	2200      	movs	r2, #0
    29fa:	4641      	mov	r1, r8
    29fc:	4b26      	ldr	r3, [pc, #152]	; (2a98 <pow+0x354>)
    29fe:	0030      	movs	r0, r6
    2a00:	618a      	str	r2, [r1, #24]
    2a02:	61cb      	str	r3, [r1, #28]
    2a04:	2200      	movs	r2, #0
    2a06:	2300      	movs	r3, #0
    2a08:	0039      	movs	r1, r7
    2a0a:	f000 ffa5 	bl	3958 <__aeabi_dcmplt>
    2a0e:	2800      	cmp	r0, #0
    2a10:	d0ed      	beq.n	29ee <pow+0x2aa>
    2a12:	2200      	movs	r2, #0
    2a14:	4b1e      	ldr	r3, [pc, #120]	; (2a90 <pow+0x34c>)
    2a16:	0020      	movs	r0, r4
    2a18:	0029      	movs	r1, r5
    2a1a:	f002 fb77 	bl	510c <__aeabi_dmul>
    2a1e:	0004      	movs	r4, r0
    2a20:	000d      	movs	r5, r1
    2a22:	f000 fe67 	bl	36f4 <rint>
    2a26:	0002      	movs	r2, r0
    2a28:	000b      	movs	r3, r1
    2a2a:	0020      	movs	r0, r4
    2a2c:	0029      	movs	r1, r5
    2a2e:	f000 ff8d 	bl	394c <__aeabi_dcmpeq>
    2a32:	2800      	cmp	r0, #0
    2a34:	d1d7      	bne.n	29e6 <pow+0x2a2>
    2a36:	2200      	movs	r2, #0
    2a38:	4b13      	ldr	r3, [pc, #76]	; (2a88 <pow+0x344>)
    2a3a:	e7d1      	b.n	29e0 <pow+0x29c>
    2a3c:	2301      	movs	r3, #1
    2a3e:	4642      	mov	r2, r8
    2a40:	9304      	str	r3, [sp, #16]
    2a42:	4b0f      	ldr	r3, [pc, #60]	; (2a80 <pow+0x33c>)
    2a44:	6053      	str	r3, [r2, #4]
    2a46:	4643      	mov	r3, r8
    2a48:	464a      	mov	r2, r9
    2a4a:	611c      	str	r4, [r3, #16]
    2a4c:	615d      	str	r5, [r3, #20]
    2a4e:	621a      	str	r2, [r3, #32]
    2a50:	609e      	str	r6, [r3, #8]
    2a52:	60df      	str	r7, [r3, #12]
    2a54:	2400      	movs	r4, #0
    2a56:	4653      	mov	r3, sl
    2a58:	571c      	ldrsb	r4, [r3, r4]
    2a5a:	2c00      	cmp	r4, #0
    2a5c:	d100      	bne.n	2a60 <pow+0x31c>
    2a5e:	e70b      	b.n	2878 <pow+0x134>
    2a60:	2300      	movs	r3, #0
    2a62:	2200      	movs	r2, #0
    2a64:	0019      	movs	r1, r3
    2a66:	0010      	movs	r0, r2
    2a68:	f001 ff1c 	bl	48a4 <__aeabi_ddiv>
    2a6c:	4643      	mov	r3, r8
    2a6e:	6198      	str	r0, [r3, #24]
    2a70:	61d9      	str	r1, [r3, #28]
    2a72:	2c02      	cmp	r4, #2
    2a74:	d100      	bne.n	2a78 <pow+0x334>
    2a76:	e741      	b.n	28fc <pow+0x1b8>
    2a78:	e703      	b.n	2882 <pow+0x13e>
    2a7a:	46c0      	nop			; (mov r8, r8)
    2a7c:	20000070 	.word	0x20000070
    2a80:	00006284 	.word	0x00006284
    2a84:	3ff00000 	.word	0x3ff00000
    2a88:	fff00000 	.word	0xfff00000
    2a8c:	47efffff 	.word	0x47efffff
    2a90:	3fe00000 	.word	0x3fe00000
    2a94:	c7efffff 	.word	0xc7efffff
    2a98:	7ff00000 	.word	0x7ff00000

00002a9c <__ieee754_pow>:
    2a9c:	b5f0      	push	{r4, r5, r6, r7, lr}
    2a9e:	4657      	mov	r7, sl
    2aa0:	464e      	mov	r6, r9
    2aa2:	4645      	mov	r5, r8
    2aa4:	46de      	mov	lr, fp
    2aa6:	001c      	movs	r4, r3
    2aa8:	0013      	movs	r3, r2
    2aaa:	b5e0      	push	{r5, r6, r7, lr}
    2aac:	0065      	lsls	r5, r4, #1
    2aae:	b091      	sub	sp, #68	; 0x44
    2ab0:	086d      	lsrs	r5, r5, #1
    2ab2:	9300      	str	r3, [sp, #0]
    2ab4:	9401      	str	r4, [sp, #4]
    2ab6:	0007      	movs	r7, r0
    2ab8:	000e      	movs	r6, r1
    2aba:	4680      	mov	r8, r0
    2abc:	4689      	mov	r9, r1
    2abe:	46a2      	mov	sl, r4
    2ac0:	432b      	orrs	r3, r5
    2ac2:	d031      	beq.n	2b28 <__ieee754_pow+0x8c>
    2ac4:	4b67      	ldr	r3, [pc, #412]	; (2c64 <__ieee754_pow+0x1c8>)
    2ac6:	0074      	lsls	r4, r6, #1
    2ac8:	0864      	lsrs	r4, r4, #1
    2aca:	429c      	cmp	r4, r3
    2acc:	dc27      	bgt.n	2b1e <__ieee754_pow+0x82>
    2ace:	d024      	beq.n	2b1a <__ieee754_pow+0x7e>
    2ad0:	429d      	cmp	r5, r3
    2ad2:	dc24      	bgt.n	2b1e <__ieee754_pow+0x82>
    2ad4:	4b63      	ldr	r3, [pc, #396]	; (2c64 <__ieee754_pow+0x1c8>)
    2ad6:	429d      	cmp	r5, r3
    2ad8:	d100      	bne.n	2adc <__ieee754_pow+0x40>
    2ada:	e081      	b.n	2be0 <__ieee754_pow+0x144>
    2adc:	2300      	movs	r3, #0
    2ade:	469b      	mov	fp, r3
    2ae0:	464b      	mov	r3, r9
    2ae2:	2b00      	cmp	r3, #0
    2ae4:	da00      	bge.n	2ae8 <__ieee754_pow+0x4c>
    2ae6:	e07f      	b.n	2be8 <__ieee754_pow+0x14c>
    2ae8:	2a00      	cmp	r2, #0
    2aea:	d12c      	bne.n	2b46 <__ieee754_pow+0xaa>
    2aec:	4b5d      	ldr	r3, [pc, #372]	; (2c64 <__ieee754_pow+0x1c8>)
    2aee:	429d      	cmp	r5, r3
    2af0:	d100      	bne.n	2af4 <__ieee754_pow+0x58>
    2af2:	e097      	b.n	2c24 <__ieee754_pow+0x188>
    2af4:	4b5c      	ldr	r3, [pc, #368]	; (2c68 <__ieee754_pow+0x1cc>)
    2af6:	429d      	cmp	r5, r3
    2af8:	d066      	beq.n	2bc8 <__ieee754_pow+0x12c>
    2afa:	2380      	movs	r3, #128	; 0x80
    2afc:	05db      	lsls	r3, r3, #23
    2afe:	459a      	cmp	sl, r3
    2b00:	d100      	bne.n	2b04 <__ieee754_pow+0x68>
    2b02:	e3b9      	b.n	3278 <__ieee754_pow+0x7dc>
    2b04:	4b59      	ldr	r3, [pc, #356]	; (2c6c <__ieee754_pow+0x1d0>)
    2b06:	459a      	cmp	sl, r3
    2b08:	d11d      	bne.n	2b46 <__ieee754_pow+0xaa>
    2b0a:	464b      	mov	r3, r9
    2b0c:	2b00      	cmp	r3, #0
    2b0e:	db1a      	blt.n	2b46 <__ieee754_pow+0xaa>
    2b10:	0038      	movs	r0, r7
    2b12:	0031      	movs	r1, r6
    2b14:	f000 fcf8 	bl	3508 <__ieee754_sqrt>
    2b18:	e008      	b.n	2b2c <__ieee754_pow+0x90>
    2b1a:	2800      	cmp	r0, #0
    2b1c:	d00d      	beq.n	2b3a <__ieee754_pow+0x9e>
    2b1e:	4b54      	ldr	r3, [pc, #336]	; (2c70 <__ieee754_pow+0x1d4>)
    2b20:	469c      	mov	ip, r3
    2b22:	4464      	add	r4, ip
    2b24:	4327      	orrs	r7, r4
    2b26:	d10a      	bne.n	2b3e <__ieee754_pow+0xa2>
    2b28:	2000      	movs	r0, #0
    2b2a:	494f      	ldr	r1, [pc, #316]	; (2c68 <__ieee754_pow+0x1cc>)
    2b2c:	b011      	add	sp, #68	; 0x44
    2b2e:	bc3c      	pop	{r2, r3, r4, r5}
    2b30:	4690      	mov	r8, r2
    2b32:	4699      	mov	r9, r3
    2b34:	46a2      	mov	sl, r4
    2b36:	46ab      	mov	fp, r5
    2b38:	bdf0      	pop	{r4, r5, r6, r7, pc}
    2b3a:	42a5      	cmp	r5, r4
    2b3c:	ddca      	ble.n	2ad4 <__ieee754_pow+0x38>
    2b3e:	484d      	ldr	r0, [pc, #308]	; (2c74 <__ieee754_pow+0x1d8>)
    2b40:	f000 fdd2 	bl	36e8 <nan>
    2b44:	e7f2      	b.n	2b2c <__ieee754_pow+0x90>
    2b46:	0038      	movs	r0, r7
    2b48:	0031      	movs	r1, r6
    2b4a:	f000 fdbd 	bl	36c8 <fabs>
    2b4e:	4643      	mov	r3, r8
    2b50:	2b00      	cmp	r3, #0
    2b52:	d11d      	bne.n	2b90 <__ieee754_pow+0xf4>
    2b54:	2c00      	cmp	r4, #0
    2b56:	d004      	beq.n	2b62 <__ieee754_pow+0xc6>
    2b58:	4a43      	ldr	r2, [pc, #268]	; (2c68 <__ieee754_pow+0x1cc>)
    2b5a:	00b3      	lsls	r3, r6, #2
    2b5c:	089b      	lsrs	r3, r3, #2
    2b5e:	4293      	cmp	r3, r2
    2b60:	d116      	bne.n	2b90 <__ieee754_pow+0xf4>
    2b62:	4653      	mov	r3, sl
    2b64:	2b00      	cmp	r3, #0
    2b66:	da00      	bge.n	2b6a <__ieee754_pow+0xce>
    2b68:	e3c5      	b.n	32f6 <__ieee754_pow+0x85a>
    2b6a:	464b      	mov	r3, r9
    2b6c:	2b00      	cmp	r3, #0
    2b6e:	dadd      	bge.n	2b2c <__ieee754_pow+0x90>
    2b70:	4b3f      	ldr	r3, [pc, #252]	; (2c70 <__ieee754_pow+0x1d4>)
    2b72:	469c      	mov	ip, r3
    2b74:	465b      	mov	r3, fp
    2b76:	4464      	add	r4, ip
    2b78:	431c      	orrs	r4, r3
    2b7a:	d101      	bne.n	2b80 <__ieee754_pow+0xe4>
    2b7c:	f000 fc53 	bl	3426 <__ieee754_pow+0x98a>
    2b80:	465b      	mov	r3, fp
    2b82:	2b01      	cmp	r3, #1
    2b84:	d1d2      	bne.n	2b2c <__ieee754_pow+0x90>
    2b86:	2480      	movs	r4, #128	; 0x80
    2b88:	0624      	lsls	r4, r4, #24
    2b8a:	190b      	adds	r3, r1, r4
    2b8c:	0019      	movs	r1, r3
    2b8e:	e7cd      	b.n	2b2c <__ieee754_pow+0x90>
    2b90:	0ff3      	lsrs	r3, r6, #31
    2b92:	3b01      	subs	r3, #1
    2b94:	4698      	mov	r8, r3
    2b96:	465b      	mov	r3, fp
    2b98:	4642      	mov	r2, r8
    2b9a:	4313      	orrs	r3, r2
    2b9c:	d057      	beq.n	2c4e <__ieee754_pow+0x1b2>
    2b9e:	4b36      	ldr	r3, [pc, #216]	; (2c78 <__ieee754_pow+0x1dc>)
    2ba0:	429d      	cmp	r5, r3
    2ba2:	dd77      	ble.n	2c94 <__ieee754_pow+0x1f8>
    2ba4:	4b35      	ldr	r3, [pc, #212]	; (2c7c <__ieee754_pow+0x1e0>)
    2ba6:	429d      	cmp	r5, r3
    2ba8:	dc00      	bgt.n	2bac <__ieee754_pow+0x110>
    2baa:	e3b1      	b.n	3310 <__ieee754_pow+0x874>
    2bac:	4b34      	ldr	r3, [pc, #208]	; (2c80 <__ieee754_pow+0x1e4>)
    2bae:	429c      	cmp	r4, r3
    2bb0:	dc00      	bgt.n	2bb4 <__ieee754_pow+0x118>
    2bb2:	e3a8      	b.n	3306 <__ieee754_pow+0x86a>
    2bb4:	4653      	mov	r3, sl
    2bb6:	2b00      	cmp	r3, #0
    2bb8:	dd43      	ble.n	2c42 <__ieee754_pow+0x1a6>
    2bba:	4a32      	ldr	r2, [pc, #200]	; (2c84 <__ieee754_pow+0x1e8>)
    2bbc:	4b32      	ldr	r3, [pc, #200]	; (2c88 <__ieee754_pow+0x1ec>)
    2bbe:	0010      	movs	r0, r2
    2bc0:	0019      	movs	r1, r3
    2bc2:	f002 faa3 	bl	510c <__aeabi_dmul>
    2bc6:	e7b1      	b.n	2b2c <__ieee754_pow+0x90>
    2bc8:	4653      	mov	r3, sl
    2bca:	0038      	movs	r0, r7
    2bcc:	0031      	movs	r1, r6
    2bce:	2b00      	cmp	r3, #0
    2bd0:	daac      	bge.n	2b2c <__ieee754_pow+0x90>
    2bd2:	003a      	movs	r2, r7
    2bd4:	0033      	movs	r3, r6
    2bd6:	2000      	movs	r0, #0
    2bd8:	4923      	ldr	r1, [pc, #140]	; (2c68 <__ieee754_pow+0x1cc>)
    2bda:	f001 fe63 	bl	48a4 <__aeabi_ddiv>
    2bde:	e7a5      	b.n	2b2c <__ieee754_pow+0x90>
    2be0:	2a00      	cmp	r2, #0
    2be2:	d100      	bne.n	2be6 <__ieee754_pow+0x14a>
    2be4:	e77a      	b.n	2adc <__ieee754_pow+0x40>
    2be6:	e79a      	b.n	2b1e <__ieee754_pow+0x82>
    2be8:	4b28      	ldr	r3, [pc, #160]	; (2c8c <__ieee754_pow+0x1f0>)
    2bea:	429d      	cmp	r5, r3
    2bec:	dc2c      	bgt.n	2c48 <__ieee754_pow+0x1ac>
    2bee:	4b24      	ldr	r3, [pc, #144]	; (2c80 <__ieee754_pow+0x1e4>)
    2bf0:	429d      	cmp	r5, r3
    2bf2:	dc00      	bgt.n	2bf6 <__ieee754_pow+0x15a>
    2bf4:	e778      	b.n	2ae8 <__ieee754_pow+0x4c>
    2bf6:	4926      	ldr	r1, [pc, #152]	; (2c90 <__ieee754_pow+0x1f4>)
    2bf8:	152b      	asrs	r3, r5, #20
    2bfa:	468c      	mov	ip, r1
    2bfc:	4463      	add	r3, ip
    2bfe:	2b14      	cmp	r3, #20
    2c00:	dc01      	bgt.n	2c06 <__ieee754_pow+0x16a>
    2c02:	f000 fbf3 	bl	33ec <__ieee754_pow+0x950>
    2c06:	2134      	movs	r1, #52	; 0x34
    2c08:	1acb      	subs	r3, r1, r3
    2c0a:	9900      	ldr	r1, [sp, #0]
    2c0c:	40d9      	lsrs	r1, r3
    2c0e:	0008      	movs	r0, r1
    2c10:	4098      	lsls	r0, r3
    2c12:	4282      	cmp	r2, r0
    2c14:	d000      	beq.n	2c18 <__ieee754_pow+0x17c>
    2c16:	e767      	b.n	2ae8 <__ieee754_pow+0x4c>
    2c18:	2301      	movs	r3, #1
    2c1a:	4019      	ands	r1, r3
    2c1c:	3301      	adds	r3, #1
    2c1e:	1a5b      	subs	r3, r3, r1
    2c20:	469b      	mov	fp, r3
    2c22:	e761      	b.n	2ae8 <__ieee754_pow+0x4c>
    2c24:	4b12      	ldr	r3, [pc, #72]	; (2c70 <__ieee754_pow+0x1d4>)
    2c26:	18e3      	adds	r3, r4, r3
    2c28:	431f      	orrs	r7, r3
    2c2a:	d100      	bne.n	2c2e <__ieee754_pow+0x192>
    2c2c:	e77c      	b.n	2b28 <__ieee754_pow+0x8c>
    2c2e:	4b14      	ldr	r3, [pc, #80]	; (2c80 <__ieee754_pow+0x1e4>)
    2c30:	429c      	cmp	r4, r3
    2c32:	dc00      	bgt.n	2c36 <__ieee754_pow+0x19a>
    2c34:	e327      	b.n	3286 <__ieee754_pow+0x7ea>
    2c36:	9800      	ldr	r0, [sp, #0]
    2c38:	9901      	ldr	r1, [sp, #4]
    2c3a:	4653      	mov	r3, sl
    2c3c:	2b00      	cmp	r3, #0
    2c3e:	db00      	blt.n	2c42 <__ieee754_pow+0x1a6>
    2c40:	e774      	b.n	2b2c <__ieee754_pow+0x90>
    2c42:	2000      	movs	r0, #0
    2c44:	2100      	movs	r1, #0
    2c46:	e771      	b.n	2b2c <__ieee754_pow+0x90>
    2c48:	2302      	movs	r3, #2
    2c4a:	469b      	mov	fp, r3
    2c4c:	e74c      	b.n	2ae8 <__ieee754_pow+0x4c>
    2c4e:	003a      	movs	r2, r7
    2c50:	0033      	movs	r3, r6
    2c52:	0038      	movs	r0, r7
    2c54:	0031      	movs	r1, r6
    2c56:	f002 fcd9 	bl	560c <__aeabi_dsub>
    2c5a:	0002      	movs	r2, r0
    2c5c:	000b      	movs	r3, r1
    2c5e:	f001 fe21 	bl	48a4 <__aeabi_ddiv>
    2c62:	e763      	b.n	2b2c <__ieee754_pow+0x90>
    2c64:	7ff00000 	.word	0x7ff00000
    2c68:	3ff00000 	.word	0x3ff00000
    2c6c:	3fe00000 	.word	0x3fe00000
    2c70:	c0100000 	.word	0xc0100000
    2c74:	00006288 	.word	0x00006288
    2c78:	41e00000 	.word	0x41e00000
    2c7c:	43f00000 	.word	0x43f00000
    2c80:	3fefffff 	.word	0x3fefffff
    2c84:	8800759c 	.word	0x8800759c
    2c88:	7e37e43c 	.word	0x7e37e43c
    2c8c:	433fffff 	.word	0x433fffff
    2c90:	fffffc01 	.word	0xfffffc01
    2c94:	4be9      	ldr	r3, [pc, #932]	; (303c <__ieee754_pow+0x5a0>)
    2c96:	2200      	movs	r2, #0
    2c98:	429c      	cmp	r4, r3
    2c9a:	dc06      	bgt.n	2caa <__ieee754_pow+0x20e>
    2c9c:	2200      	movs	r2, #0
    2c9e:	4be8      	ldr	r3, [pc, #928]	; (3040 <__ieee754_pow+0x5a4>)
    2ca0:	f002 fa34 	bl	510c <__aeabi_dmul>
    2ca4:	2235      	movs	r2, #53	; 0x35
    2ca6:	000c      	movs	r4, r1
    2ca8:	4252      	negs	r2, r2
    2caa:	4de6      	ldr	r5, [pc, #920]	; (3044 <__ieee754_pow+0x5a8>)
    2cac:	1523      	asrs	r3, r4, #20
    2cae:	46ac      	mov	ip, r5
    2cb0:	4463      	add	r3, ip
    2cb2:	4699      	mov	r9, r3
    2cb4:	0324      	lsls	r4, r4, #12
    2cb6:	4de4      	ldr	r5, [pc, #912]	; (3048 <__ieee754_pow+0x5ac>)
    2cb8:	4be4      	ldr	r3, [pc, #912]	; (304c <__ieee754_pow+0x5b0>)
    2cba:	0b24      	lsrs	r4, r4, #12
    2cbc:	4491      	add	r9, r2
    2cbe:	4325      	orrs	r5, r4
    2cc0:	429c      	cmp	r4, r3
    2cc2:	dd09      	ble.n	2cd8 <__ieee754_pow+0x23c>
    2cc4:	4be2      	ldr	r3, [pc, #904]	; (3050 <__ieee754_pow+0x5b4>)
    2cc6:	429c      	cmp	r4, r3
    2cc8:	dc00      	bgt.n	2ccc <__ieee754_pow+0x230>
    2cca:	e3b6      	b.n	343a <__ieee754_pow+0x99e>
    2ccc:	2301      	movs	r3, #1
    2cce:	469c      	mov	ip, r3
    2cd0:	4be0      	ldr	r3, [pc, #896]	; (3054 <__ieee754_pow+0x5b8>)
    2cd2:	44e1      	add	r9, ip
    2cd4:	469c      	mov	ip, r3
    2cd6:	4465      	add	r5, ip
    2cd8:	2300      	movs	r3, #0
    2cda:	2400      	movs	r4, #0
    2cdc:	2200      	movs	r2, #0
    2cde:	9308      	str	r3, [sp, #32]
    2ce0:	9409      	str	r4, [sp, #36]	; 0x24
    2ce2:	930c      	str	r3, [sp, #48]	; 0x30
    2ce4:	940d      	str	r4, [sp, #52]	; 0x34
    2ce6:	2400      	movs	r4, #0
    2ce8:	4bd7      	ldr	r3, [pc, #860]	; (3048 <__ieee754_pow+0x5ac>)
    2cea:	9206      	str	r2, [sp, #24]
    2cec:	9307      	str	r3, [sp, #28]
    2cee:	9a06      	ldr	r2, [sp, #24]
    2cf0:	9b07      	ldr	r3, [sp, #28]
    2cf2:	0029      	movs	r1, r5
    2cf4:	900a      	str	r0, [sp, #40]	; 0x28
    2cf6:	910b      	str	r1, [sp, #44]	; 0x2c
    2cf8:	f002 fc88 	bl	560c <__aeabi_dsub>
    2cfc:	9a06      	ldr	r2, [sp, #24]
    2cfe:	9b07      	ldr	r3, [sp, #28]
    2d00:	0006      	movs	r6, r0
    2d02:	000f      	movs	r7, r1
    2d04:	980a      	ldr	r0, [sp, #40]	; 0x28
    2d06:	990b      	ldr	r1, [sp, #44]	; 0x2c
    2d08:	f001 fabc 	bl	4284 <__aeabi_dadd>
    2d0c:	0002      	movs	r2, r0
    2d0e:	000b      	movs	r3, r1
    2d10:	2000      	movs	r0, #0
    2d12:	49cd      	ldr	r1, [pc, #820]	; (3048 <__ieee754_pow+0x5ac>)
    2d14:	f001 fdc6 	bl	48a4 <__aeabi_ddiv>
    2d18:	000a      	movs	r2, r1
    2d1a:	0001      	movs	r1, r0
    2d1c:	0013      	movs	r3, r2
    2d1e:	910e      	str	r1, [sp, #56]	; 0x38
    2d20:	920f      	str	r2, [sp, #60]	; 0x3c
    2d22:	0002      	movs	r2, r0
    2d24:	0039      	movs	r1, r7
    2d26:	0030      	movs	r0, r6
    2d28:	f002 f9f0 	bl	510c <__aeabi_dmul>
    2d2c:	000a      	movs	r2, r1
    2d2e:	0001      	movs	r1, r0
    2d30:	2080      	movs	r0, #128	; 0x80
    2d32:	9104      	str	r1, [sp, #16]
    2d34:	9205      	str	r2, [sp, #20]
    2d36:	0013      	movs	r3, r2
    2d38:	2200      	movs	r2, #0
    2d3a:	1069      	asrs	r1, r5, #1
    2d3c:	2580      	movs	r5, #128	; 0x80
    2d3e:	0300      	lsls	r0, r0, #12
    2d40:	4684      	mov	ip, r0
    2d42:	9202      	str	r2, [sp, #8]
    2d44:	9303      	str	r3, [sp, #12]
    2d46:	2200      	movs	r2, #0
    2d48:	05ad      	lsls	r5, r5, #22
    2d4a:	430d      	orrs	r5, r1
    2d4c:	4465      	add	r5, ip
    2d4e:	192b      	adds	r3, r5, r4
    2d50:	9802      	ldr	r0, [sp, #8]
    2d52:	9903      	ldr	r1, [sp, #12]
    2d54:	0014      	movs	r4, r2
    2d56:	001d      	movs	r5, r3
    2d58:	f002 f9d8 	bl	510c <__aeabi_dmul>
    2d5c:	0002      	movs	r2, r0
    2d5e:	000b      	movs	r3, r1
    2d60:	0030      	movs	r0, r6
    2d62:	0039      	movs	r1, r7
    2d64:	f002 fc52 	bl	560c <__aeabi_dsub>
    2d68:	9a06      	ldr	r2, [sp, #24]
    2d6a:	9b07      	ldr	r3, [sp, #28]
    2d6c:	0006      	movs	r6, r0
    2d6e:	000f      	movs	r7, r1
    2d70:	0020      	movs	r0, r4
    2d72:	0029      	movs	r1, r5
    2d74:	f002 fc4a 	bl	560c <__aeabi_dsub>
    2d78:	0002      	movs	r2, r0
    2d7a:	000b      	movs	r3, r1
    2d7c:	980a      	ldr	r0, [sp, #40]	; 0x28
    2d7e:	990b      	ldr	r1, [sp, #44]	; 0x2c
    2d80:	f002 fc44 	bl	560c <__aeabi_dsub>
    2d84:	9a02      	ldr	r2, [sp, #8]
    2d86:	9b03      	ldr	r3, [sp, #12]
    2d88:	f002 f9c0 	bl	510c <__aeabi_dmul>
    2d8c:	0002      	movs	r2, r0
    2d8e:	000b      	movs	r3, r1
    2d90:	0030      	movs	r0, r6
    2d92:	0039      	movs	r1, r7
    2d94:	f002 fc3a 	bl	560c <__aeabi_dsub>
    2d98:	9a0e      	ldr	r2, [sp, #56]	; 0x38
    2d9a:	9b0f      	ldr	r3, [sp, #60]	; 0x3c
    2d9c:	f002 f9b6 	bl	510c <__aeabi_dmul>
    2da0:	9d04      	ldr	r5, [sp, #16]
    2da2:	9e05      	ldr	r6, [sp, #20]
    2da4:	9006      	str	r0, [sp, #24]
    2da6:	9107      	str	r1, [sp, #28]
    2da8:	002a      	movs	r2, r5
    2daa:	0033      	movs	r3, r6
    2dac:	0028      	movs	r0, r5
    2dae:	0031      	movs	r1, r6
    2db0:	f002 f9ac 	bl	510c <__aeabi_dmul>
    2db4:	0006      	movs	r6, r0
    2db6:	000f      	movs	r7, r1
    2db8:	4aa7      	ldr	r2, [pc, #668]	; (3058 <__ieee754_pow+0x5bc>)
    2dba:	4ba8      	ldr	r3, [pc, #672]	; (305c <__ieee754_pow+0x5c0>)
    2dbc:	f002 f9a6 	bl	510c <__aeabi_dmul>
    2dc0:	4aa7      	ldr	r2, [pc, #668]	; (3060 <__ieee754_pow+0x5c4>)
    2dc2:	4ba8      	ldr	r3, [pc, #672]	; (3064 <__ieee754_pow+0x5c8>)
    2dc4:	f001 fa5e 	bl	4284 <__aeabi_dadd>
    2dc8:	0032      	movs	r2, r6
    2dca:	003b      	movs	r3, r7
    2dcc:	f002 f99e 	bl	510c <__aeabi_dmul>
    2dd0:	4aa5      	ldr	r2, [pc, #660]	; (3068 <__ieee754_pow+0x5cc>)
    2dd2:	4ba6      	ldr	r3, [pc, #664]	; (306c <__ieee754_pow+0x5d0>)
    2dd4:	f001 fa56 	bl	4284 <__aeabi_dadd>
    2dd8:	0032      	movs	r2, r6
    2dda:	003b      	movs	r3, r7
    2ddc:	f002 f996 	bl	510c <__aeabi_dmul>
    2de0:	4aa3      	ldr	r2, [pc, #652]	; (3070 <__ieee754_pow+0x5d4>)
    2de2:	4ba4      	ldr	r3, [pc, #656]	; (3074 <__ieee754_pow+0x5d8>)
    2de4:	f001 fa4e 	bl	4284 <__aeabi_dadd>
    2de8:	0032      	movs	r2, r6
    2dea:	003b      	movs	r3, r7
    2dec:	f002 f98e 	bl	510c <__aeabi_dmul>
    2df0:	4aa1      	ldr	r2, [pc, #644]	; (3078 <__ieee754_pow+0x5dc>)
    2df2:	4ba2      	ldr	r3, [pc, #648]	; (307c <__ieee754_pow+0x5e0>)
    2df4:	f001 fa46 	bl	4284 <__aeabi_dadd>
    2df8:	0032      	movs	r2, r6
    2dfa:	003b      	movs	r3, r7
    2dfc:	f002 f986 	bl	510c <__aeabi_dmul>
    2e00:	4a9f      	ldr	r2, [pc, #636]	; (3080 <__ieee754_pow+0x5e4>)
    2e02:	4ba0      	ldr	r3, [pc, #640]	; (3084 <__ieee754_pow+0x5e8>)
    2e04:	f001 fa3e 	bl	4284 <__aeabi_dadd>
    2e08:	0032      	movs	r2, r6
    2e0a:	0004      	movs	r4, r0
    2e0c:	000d      	movs	r5, r1
    2e0e:	003b      	movs	r3, r7
    2e10:	0030      	movs	r0, r6
    2e12:	0039      	movs	r1, r7
    2e14:	f002 f97a 	bl	510c <__aeabi_dmul>
    2e18:	0002      	movs	r2, r0
    2e1a:	000b      	movs	r3, r1
    2e1c:	0020      	movs	r0, r4
    2e1e:	0029      	movs	r1, r5
    2e20:	f002 f974 	bl	510c <__aeabi_dmul>
    2e24:	9e02      	ldr	r6, [sp, #8]
    2e26:	9f03      	ldr	r7, [sp, #12]
    2e28:	0004      	movs	r4, r0
    2e2a:	000d      	movs	r5, r1
    2e2c:	9804      	ldr	r0, [sp, #16]
    2e2e:	9905      	ldr	r1, [sp, #20]
    2e30:	0032      	movs	r2, r6
    2e32:	003b      	movs	r3, r7
    2e34:	f001 fa26 	bl	4284 <__aeabi_dadd>
    2e38:	9a06      	ldr	r2, [sp, #24]
    2e3a:	9b07      	ldr	r3, [sp, #28]
    2e3c:	f002 f966 	bl	510c <__aeabi_dmul>
    2e40:	0022      	movs	r2, r4
    2e42:	002b      	movs	r3, r5
    2e44:	f001 fa1e 	bl	4284 <__aeabi_dadd>
    2e48:	0032      	movs	r2, r6
    2e4a:	900a      	str	r0, [sp, #40]	; 0x28
    2e4c:	910b      	str	r1, [sp, #44]	; 0x2c
    2e4e:	003b      	movs	r3, r7
    2e50:	0030      	movs	r0, r6
    2e52:	0039      	movs	r1, r7
    2e54:	9602      	str	r6, [sp, #8]
    2e56:	9703      	str	r7, [sp, #12]
    2e58:	f002 f958 	bl	510c <__aeabi_dmul>
    2e5c:	2200      	movs	r2, #0
    2e5e:	4b8a      	ldr	r3, [pc, #552]	; (3088 <__ieee754_pow+0x5ec>)
    2e60:	0004      	movs	r4, r0
    2e62:	000d      	movs	r5, r1
    2e64:	f001 fa0e 	bl	4284 <__aeabi_dadd>
    2e68:	9a0a      	ldr	r2, [sp, #40]	; 0x28
    2e6a:	9b0b      	ldr	r3, [sp, #44]	; 0x2c
    2e6c:	f001 fa0a 	bl	4284 <__aeabi_dadd>
    2e70:	2600      	movs	r6, #0
    2e72:	000f      	movs	r7, r1
    2e74:	0032      	movs	r2, r6
    2e76:	000b      	movs	r3, r1
    2e78:	9802      	ldr	r0, [sp, #8]
    2e7a:	9903      	ldr	r1, [sp, #12]
    2e7c:	f002 f946 	bl	510c <__aeabi_dmul>
    2e80:	2200      	movs	r2, #0
    2e82:	9002      	str	r0, [sp, #8]
    2e84:	9103      	str	r1, [sp, #12]
    2e86:	4b80      	ldr	r3, [pc, #512]	; (3088 <__ieee754_pow+0x5ec>)
    2e88:	0030      	movs	r0, r6
    2e8a:	0039      	movs	r1, r7
    2e8c:	f002 fbbe 	bl	560c <__aeabi_dsub>
    2e90:	0022      	movs	r2, r4
    2e92:	002b      	movs	r3, r5
    2e94:	f002 fbba 	bl	560c <__aeabi_dsub>
    2e98:	0002      	movs	r2, r0
    2e9a:	000b      	movs	r3, r1
    2e9c:	980a      	ldr	r0, [sp, #40]	; 0x28
    2e9e:	990b      	ldr	r1, [sp, #44]	; 0x2c
    2ea0:	f002 fbb4 	bl	560c <__aeabi_dsub>
    2ea4:	9a04      	ldr	r2, [sp, #16]
    2ea6:	9b05      	ldr	r3, [sp, #20]
    2ea8:	f002 f930 	bl	510c <__aeabi_dmul>
    2eac:	0032      	movs	r2, r6
    2eae:	0004      	movs	r4, r0
    2eb0:	000d      	movs	r5, r1
    2eb2:	9806      	ldr	r0, [sp, #24]
    2eb4:	9907      	ldr	r1, [sp, #28]
    2eb6:	003b      	movs	r3, r7
    2eb8:	f002 f928 	bl	510c <__aeabi_dmul>
    2ebc:	0002      	movs	r2, r0
    2ebe:	000b      	movs	r3, r1
    2ec0:	0020      	movs	r0, r4
    2ec2:	0029      	movs	r1, r5
    2ec4:	f001 f9de 	bl	4284 <__aeabi_dadd>
    2ec8:	0004      	movs	r4, r0
    2eca:	000d      	movs	r5, r1
    2ecc:	0002      	movs	r2, r0
    2ece:	000b      	movs	r3, r1
    2ed0:	9802      	ldr	r0, [sp, #8]
    2ed2:	9903      	ldr	r1, [sp, #12]
    2ed4:	f001 f9d6 	bl	4284 <__aeabi_dadd>
    2ed8:	2600      	movs	r6, #0
    2eda:	22e0      	movs	r2, #224	; 0xe0
    2edc:	4b6b      	ldr	r3, [pc, #428]	; (308c <__ieee754_pow+0x5f0>)
    2ede:	0612      	lsls	r2, r2, #24
    2ee0:	0030      	movs	r0, r6
    2ee2:	000f      	movs	r7, r1
    2ee4:	f002 f912 	bl	510c <__aeabi_dmul>
    2ee8:	9a02      	ldr	r2, [sp, #8]
    2eea:	9b03      	ldr	r3, [sp, #12]
    2eec:	9004      	str	r0, [sp, #16]
    2eee:	9105      	str	r1, [sp, #20]
    2ef0:	0030      	movs	r0, r6
    2ef2:	0039      	movs	r1, r7
    2ef4:	f002 fb8a 	bl	560c <__aeabi_dsub>
    2ef8:	0002      	movs	r2, r0
    2efa:	000b      	movs	r3, r1
    2efc:	0020      	movs	r0, r4
    2efe:	0029      	movs	r1, r5
    2f00:	f002 fb84 	bl	560c <__aeabi_dsub>
    2f04:	4a62      	ldr	r2, [pc, #392]	; (3090 <__ieee754_pow+0x5f4>)
    2f06:	4b61      	ldr	r3, [pc, #388]	; (308c <__ieee754_pow+0x5f0>)
    2f08:	f002 f900 	bl	510c <__aeabi_dmul>
    2f0c:	4a61      	ldr	r2, [pc, #388]	; (3094 <__ieee754_pow+0x5f8>)
    2f0e:	0004      	movs	r4, r0
    2f10:	000d      	movs	r5, r1
    2f12:	4b61      	ldr	r3, [pc, #388]	; (3098 <__ieee754_pow+0x5fc>)
    2f14:	0030      	movs	r0, r6
    2f16:	0039      	movs	r1, r7
    2f18:	f002 f8f8 	bl	510c <__aeabi_dmul>
    2f1c:	0002      	movs	r2, r0
    2f1e:	000b      	movs	r3, r1
    2f20:	0020      	movs	r0, r4
    2f22:	0029      	movs	r1, r5
    2f24:	f001 f9ae 	bl	4284 <__aeabi_dadd>
    2f28:	9a0c      	ldr	r2, [sp, #48]	; 0x30
    2f2a:	9b0d      	ldr	r3, [sp, #52]	; 0x34
    2f2c:	f001 f9aa 	bl	4284 <__aeabi_dadd>
    2f30:	0006      	movs	r6, r0
    2f32:	4648      	mov	r0, r9
    2f34:	000f      	movs	r7, r1
    2f36:	f002 fed3 	bl	5ce0 <__aeabi_i2d>
    2f3a:	0004      	movs	r4, r0
    2f3c:	000d      	movs	r5, r1
    2f3e:	9804      	ldr	r0, [sp, #16]
    2f40:	9905      	ldr	r1, [sp, #20]
    2f42:	0032      	movs	r2, r6
    2f44:	003b      	movs	r3, r7
    2f46:	f001 f99d 	bl	4284 <__aeabi_dadd>
    2f4a:	9a08      	ldr	r2, [sp, #32]
    2f4c:	9b09      	ldr	r3, [sp, #36]	; 0x24
    2f4e:	f001 f999 	bl	4284 <__aeabi_dadd>
    2f52:	0022      	movs	r2, r4
    2f54:	002b      	movs	r3, r5
    2f56:	f001 f995 	bl	4284 <__aeabi_dadd>
    2f5a:	2000      	movs	r0, #0
    2f5c:	0022      	movs	r2, r4
    2f5e:	002b      	movs	r3, r5
    2f60:	9002      	str	r0, [sp, #8]
    2f62:	9103      	str	r1, [sp, #12]
    2f64:	f002 fb52 	bl	560c <__aeabi_dsub>
    2f68:	9a08      	ldr	r2, [sp, #32]
    2f6a:	9b09      	ldr	r3, [sp, #36]	; 0x24
    2f6c:	f002 fb4e 	bl	560c <__aeabi_dsub>
    2f70:	9a04      	ldr	r2, [sp, #16]
    2f72:	9b05      	ldr	r3, [sp, #20]
    2f74:	f002 fb4a 	bl	560c <__aeabi_dsub>
    2f78:	0002      	movs	r2, r0
    2f7a:	000b      	movs	r3, r1
    2f7c:	0030      	movs	r0, r6
    2f7e:	0039      	movs	r1, r7
    2f80:	f002 fb44 	bl	560c <__aeabi_dsub>
    2f84:	9004      	str	r0, [sp, #16]
    2f86:	9105      	str	r1, [sp, #20]
    2f88:	465b      	mov	r3, fp
    2f8a:	4642      	mov	r2, r8
    2f8c:	3b01      	subs	r3, #1
    2f8e:	4313      	orrs	r3, r2
    2f90:	d100      	bne.n	2f94 <__ieee754_pow+0x4f8>
    2f92:	e1ab      	b.n	32ec <__ieee754_pow+0x850>
    2f94:	2300      	movs	r3, #0
    2f96:	4c2c      	ldr	r4, [pc, #176]	; (3048 <__ieee754_pow+0x5ac>)
    2f98:	9306      	str	r3, [sp, #24]
    2f9a:	9407      	str	r4, [sp, #28]
    2f9c:	9800      	ldr	r0, [sp, #0]
    2f9e:	9901      	ldr	r1, [sp, #4]
    2fa0:	2600      	movs	r6, #0
    2fa2:	000b      	movs	r3, r1
    2fa4:	0032      	movs	r2, r6
    2fa6:	000f      	movs	r7, r1
    2fa8:	f002 fb30 	bl	560c <__aeabi_dsub>
    2fac:	9a02      	ldr	r2, [sp, #8]
    2fae:	9b03      	ldr	r3, [sp, #12]
    2fb0:	f002 f8ac 	bl	510c <__aeabi_dmul>
    2fb4:	9a00      	ldr	r2, [sp, #0]
    2fb6:	9b01      	ldr	r3, [sp, #4]
    2fb8:	0004      	movs	r4, r0
    2fba:	000d      	movs	r5, r1
    2fbc:	9804      	ldr	r0, [sp, #16]
    2fbe:	9905      	ldr	r1, [sp, #20]
    2fc0:	f002 f8a4 	bl	510c <__aeabi_dmul>
    2fc4:	0002      	movs	r2, r0
    2fc6:	000b      	movs	r3, r1
    2fc8:	0020      	movs	r0, r4
    2fca:	0029      	movs	r1, r5
    2fcc:	f001 f95a 	bl	4284 <__aeabi_dadd>
    2fd0:	0004      	movs	r4, r0
    2fd2:	000d      	movs	r5, r1
    2fd4:	9802      	ldr	r0, [sp, #8]
    2fd6:	9903      	ldr	r1, [sp, #12]
    2fd8:	0032      	movs	r2, r6
    2fda:	003b      	movs	r3, r7
    2fdc:	9400      	str	r4, [sp, #0]
    2fde:	9501      	str	r5, [sp, #4]
    2fe0:	f002 f894 	bl	510c <__aeabi_dmul>
    2fe4:	0002      	movs	r2, r0
    2fe6:	000b      	movs	r3, r1
    2fe8:	0006      	movs	r6, r0
    2fea:	000f      	movs	r7, r1
    2fec:	0020      	movs	r0, r4
    2fee:	0029      	movs	r1, r5
    2ff0:	f001 f948 	bl	4284 <__aeabi_dadd>
    2ff4:	4b29      	ldr	r3, [pc, #164]	; (309c <__ieee754_pow+0x600>)
    2ff6:	0004      	movs	r4, r0
    2ff8:	000d      	movs	r5, r1
    2ffa:	0002      	movs	r2, r0
    2ffc:	468b      	mov	fp, r1
    2ffe:	4299      	cmp	r1, r3
    3000:	dc00      	bgt.n	3004 <__ieee754_pow+0x568>
    3002:	e14f      	b.n	32a4 <__ieee754_pow+0x808>
    3004:	4b26      	ldr	r3, [pc, #152]	; (30a0 <__ieee754_pow+0x604>)
    3006:	18cb      	adds	r3, r1, r3
    3008:	4303      	orrs	r3, r0
    300a:	d000      	beq.n	300e <__ieee754_pow+0x572>
    300c:	e1e2      	b.n	33d4 <__ieee754_pow+0x938>
    300e:	9800      	ldr	r0, [sp, #0]
    3010:	9901      	ldr	r1, [sp, #4]
    3012:	4a24      	ldr	r2, [pc, #144]	; (30a4 <__ieee754_pow+0x608>)
    3014:	4b24      	ldr	r3, [pc, #144]	; (30a8 <__ieee754_pow+0x60c>)
    3016:	f001 f935 	bl	4284 <__aeabi_dadd>
    301a:	0032      	movs	r2, r6
    301c:	9002      	str	r0, [sp, #8]
    301e:	9103      	str	r1, [sp, #12]
    3020:	003b      	movs	r3, r7
    3022:	0020      	movs	r0, r4
    3024:	0029      	movs	r1, r5
    3026:	f002 faf1 	bl	560c <__aeabi_dsub>
    302a:	0002      	movs	r2, r0
    302c:	000b      	movs	r3, r1
    302e:	9802      	ldr	r0, [sp, #8]
    3030:	9903      	ldr	r1, [sp, #12]
    3032:	f000 fca5 	bl	3980 <__aeabi_dcmpgt>
    3036:	46aa      	mov	sl, r5
    3038:	e038      	b.n	30ac <__ieee754_pow+0x610>
    303a:	46c0      	nop			; (mov r8, r8)
    303c:	000fffff 	.word	0x000fffff
    3040:	43400000 	.word	0x43400000
    3044:	fffffc01 	.word	0xfffffc01
    3048:	3ff00000 	.word	0x3ff00000
    304c:	0003988e 	.word	0x0003988e
    3050:	000bb679 	.word	0x000bb679
    3054:	fff00000 	.word	0xfff00000
    3058:	4a454eef 	.word	0x4a454eef
    305c:	3fca7e28 	.word	0x3fca7e28
    3060:	93c9db65 	.word	0x93c9db65
    3064:	3fcd864a 	.word	0x3fcd864a
    3068:	a91d4101 	.word	0xa91d4101
    306c:	3fd17460 	.word	0x3fd17460
    3070:	518f264d 	.word	0x518f264d
    3074:	3fd55555 	.word	0x3fd55555
    3078:	db6fabff 	.word	0xdb6fabff
    307c:	3fdb6db6 	.word	0x3fdb6db6
    3080:	33333303 	.word	0x33333303
    3084:	3fe33333 	.word	0x3fe33333
    3088:	40080000 	.word	0x40080000
    308c:	3feec709 	.word	0x3feec709
    3090:	dc3a03fd 	.word	0xdc3a03fd
    3094:	145b01f5 	.word	0x145b01f5
    3098:	be3e2fe0 	.word	0xbe3e2fe0
    309c:	408fffff 	.word	0x408fffff
    30a0:	bf700000 	.word	0xbf700000
    30a4:	652b82fe 	.word	0x652b82fe
    30a8:	3c971547 	.word	0x3c971547
    30ac:	2800      	cmp	r0, #0
    30ae:	d000      	beq.n	30b2 <__ieee754_pow+0x616>
    30b0:	e190      	b.n	33d4 <__ieee754_pow+0x938>
    30b2:	4aec      	ldr	r2, [pc, #944]	; (3464 <__ieee754_pow+0x9c8>)
    30b4:	4653      	mov	r3, sl
    30b6:	4694      	mov	ip, r2
    30b8:	2280      	movs	r2, #128	; 0x80
    30ba:	0352      	lsls	r2, r2, #13
    30bc:	0011      	movs	r1, r2
    30be:	151b      	asrs	r3, r3, #20
    30c0:	4463      	add	r3, ip
    30c2:	4119      	asrs	r1, r3
    30c4:	000b      	movs	r3, r1
    30c6:	4690      	mov	r8, r2
    30c8:	4ae7      	ldr	r2, [pc, #924]	; (3468 <__ieee754_pow+0x9cc>)
    30ca:	445b      	add	r3, fp
    30cc:	4694      	mov	ip, r2
    30ce:	005c      	lsls	r4, r3, #1
    30d0:	0d64      	lsrs	r4, r4, #21
    30d2:	4de6      	ldr	r5, [pc, #920]	; (346c <__ieee754_pow+0x9d0>)
    30d4:	4464      	add	r4, ip
    30d6:	4125      	asrs	r5, r4
    30d8:	001a      	movs	r2, r3
    30da:	43aa      	bics	r2, r5
    30dc:	0011      	movs	r1, r2
    30de:	4642      	mov	r2, r8
    30e0:	031b      	lsls	r3, r3, #12
    30e2:	0b1b      	lsrs	r3, r3, #12
    30e4:	4313      	orrs	r3, r2
    30e6:	2214      	movs	r2, #20
    30e8:	1b14      	subs	r4, r2, r4
    30ea:	4123      	asrs	r3, r4
    30ec:	4699      	mov	r9, r3
    30ee:	465b      	mov	r3, fp
    30f0:	2000      	movs	r0, #0
    30f2:	2b00      	cmp	r3, #0
    30f4:	da00      	bge.n	30f8 <__ieee754_pow+0x65c>
    30f6:	e1b0      	b.n	345a <__ieee754_pow+0x9be>
    30f8:	0002      	movs	r2, r0
    30fa:	000b      	movs	r3, r1
    30fc:	0030      	movs	r0, r6
    30fe:	0039      	movs	r1, r7
    3100:	f002 fa84 	bl	560c <__aeabi_dsub>
    3104:	000b      	movs	r3, r1
    3106:	0002      	movs	r2, r0
    3108:	0006      	movs	r6, r0
    310a:	000f      	movs	r7, r1
    310c:	9800      	ldr	r0, [sp, #0]
    310e:	9901      	ldr	r1, [sp, #4]
    3110:	f001 f8b8 	bl	4284 <__aeabi_dadd>
    3114:	464b      	mov	r3, r9
    3116:	051b      	lsls	r3, r3, #20
    3118:	000d      	movs	r5, r1
    311a:	4698      	mov	r8, r3
    311c:	2400      	movs	r4, #0
    311e:	2200      	movs	r2, #0
    3120:	4bd3      	ldr	r3, [pc, #844]	; (3470 <__ieee754_pow+0x9d4>)
    3122:	0020      	movs	r0, r4
    3124:	0029      	movs	r1, r5
    3126:	f001 fff1 	bl	510c <__aeabi_dmul>
    312a:	0032      	movs	r2, r6
    312c:	9002      	str	r0, [sp, #8]
    312e:	9103      	str	r1, [sp, #12]
    3130:	003b      	movs	r3, r7
    3132:	0020      	movs	r0, r4
    3134:	0029      	movs	r1, r5
    3136:	f002 fa69 	bl	560c <__aeabi_dsub>
    313a:	0002      	movs	r2, r0
    313c:	000b      	movs	r3, r1
    313e:	9800      	ldr	r0, [sp, #0]
    3140:	9901      	ldr	r1, [sp, #4]
    3142:	f002 fa63 	bl	560c <__aeabi_dsub>
    3146:	4acb      	ldr	r2, [pc, #812]	; (3474 <__ieee754_pow+0x9d8>)
    3148:	4bcb      	ldr	r3, [pc, #812]	; (3478 <__ieee754_pow+0x9dc>)
    314a:	f001 ffdf 	bl	510c <__aeabi_dmul>
    314e:	4acb      	ldr	r2, [pc, #812]	; (347c <__ieee754_pow+0x9e0>)
    3150:	0006      	movs	r6, r0
    3152:	000f      	movs	r7, r1
    3154:	4bca      	ldr	r3, [pc, #808]	; (3480 <__ieee754_pow+0x9e4>)
    3156:	0020      	movs	r0, r4
    3158:	0029      	movs	r1, r5
    315a:	f001 ffd7 	bl	510c <__aeabi_dmul>
    315e:	0002      	movs	r2, r0
    3160:	000b      	movs	r3, r1
    3162:	0030      	movs	r0, r6
    3164:	0039      	movs	r1, r7
    3166:	f001 f88d 	bl	4284 <__aeabi_dadd>
    316a:	0004      	movs	r4, r0
    316c:	000d      	movs	r5, r1
    316e:	0002      	movs	r2, r0
    3170:	000b      	movs	r3, r1
    3172:	9802      	ldr	r0, [sp, #8]
    3174:	9903      	ldr	r1, [sp, #12]
    3176:	f001 f885 	bl	4284 <__aeabi_dadd>
    317a:	9a02      	ldr	r2, [sp, #8]
    317c:	9b03      	ldr	r3, [sp, #12]
    317e:	0006      	movs	r6, r0
    3180:	000f      	movs	r7, r1
    3182:	f002 fa43 	bl	560c <__aeabi_dsub>
    3186:	0002      	movs	r2, r0
    3188:	000b      	movs	r3, r1
    318a:	0020      	movs	r0, r4
    318c:	0029      	movs	r1, r5
    318e:	f002 fa3d 	bl	560c <__aeabi_dsub>
    3192:	0032      	movs	r2, r6
    3194:	9000      	str	r0, [sp, #0]
    3196:	9101      	str	r1, [sp, #4]
    3198:	003b      	movs	r3, r7
    319a:	0030      	movs	r0, r6
    319c:	0039      	movs	r1, r7
    319e:	f001 ffb5 	bl	510c <__aeabi_dmul>
    31a2:	0004      	movs	r4, r0
    31a4:	000d      	movs	r5, r1
    31a6:	4ab7      	ldr	r2, [pc, #732]	; (3484 <__ieee754_pow+0x9e8>)
    31a8:	4bb7      	ldr	r3, [pc, #732]	; (3488 <__ieee754_pow+0x9ec>)
    31aa:	f001 ffaf 	bl	510c <__aeabi_dmul>
    31ae:	4ab7      	ldr	r2, [pc, #732]	; (348c <__ieee754_pow+0x9f0>)
    31b0:	4bb7      	ldr	r3, [pc, #732]	; (3490 <__ieee754_pow+0x9f4>)
    31b2:	f002 fa2b 	bl	560c <__aeabi_dsub>
    31b6:	0022      	movs	r2, r4
    31b8:	002b      	movs	r3, r5
    31ba:	f001 ffa7 	bl	510c <__aeabi_dmul>
    31be:	4ab5      	ldr	r2, [pc, #724]	; (3494 <__ieee754_pow+0x9f8>)
    31c0:	4bb5      	ldr	r3, [pc, #724]	; (3498 <__ieee754_pow+0x9fc>)
    31c2:	f001 f85f 	bl	4284 <__aeabi_dadd>
    31c6:	0022      	movs	r2, r4
    31c8:	002b      	movs	r3, r5
    31ca:	f001 ff9f 	bl	510c <__aeabi_dmul>
    31ce:	4ab3      	ldr	r2, [pc, #716]	; (349c <__ieee754_pow+0xa00>)
    31d0:	4bb3      	ldr	r3, [pc, #716]	; (34a0 <__ieee754_pow+0xa04>)
    31d2:	f002 fa1b 	bl	560c <__aeabi_dsub>
    31d6:	0022      	movs	r2, r4
    31d8:	002b      	movs	r3, r5
    31da:	f001 ff97 	bl	510c <__aeabi_dmul>
    31de:	4ab1      	ldr	r2, [pc, #708]	; (34a4 <__ieee754_pow+0xa08>)
    31e0:	4bb1      	ldr	r3, [pc, #708]	; (34a8 <__ieee754_pow+0xa0c>)
    31e2:	f001 f84f 	bl	4284 <__aeabi_dadd>
    31e6:	0022      	movs	r2, r4
    31e8:	002b      	movs	r3, r5
    31ea:	f001 ff8f 	bl	510c <__aeabi_dmul>
    31ee:	0002      	movs	r2, r0
    31f0:	000b      	movs	r3, r1
    31f2:	0030      	movs	r0, r6
    31f4:	0039      	movs	r1, r7
    31f6:	f002 fa09 	bl	560c <__aeabi_dsub>
    31fa:	0004      	movs	r4, r0
    31fc:	000d      	movs	r5, r1
    31fe:	0002      	movs	r2, r0
    3200:	000b      	movs	r3, r1
    3202:	0030      	movs	r0, r6
    3204:	0039      	movs	r1, r7
    3206:	f001 ff81 	bl	510c <__aeabi_dmul>
    320a:	2380      	movs	r3, #128	; 0x80
    320c:	9002      	str	r0, [sp, #8]
    320e:	9103      	str	r1, [sp, #12]
    3210:	2200      	movs	r2, #0
    3212:	05db      	lsls	r3, r3, #23
    3214:	0020      	movs	r0, r4
    3216:	0029      	movs	r1, r5
    3218:	f002 f9f8 	bl	560c <__aeabi_dsub>
    321c:	0002      	movs	r2, r0
    321e:	000b      	movs	r3, r1
    3220:	9802      	ldr	r0, [sp, #8]
    3222:	9903      	ldr	r1, [sp, #12]
    3224:	f001 fb3e 	bl	48a4 <__aeabi_ddiv>
    3228:	9a00      	ldr	r2, [sp, #0]
    322a:	9b01      	ldr	r3, [sp, #4]
    322c:	0004      	movs	r4, r0
    322e:	000d      	movs	r5, r1
    3230:	0030      	movs	r0, r6
    3232:	0039      	movs	r1, r7
    3234:	f001 ff6a 	bl	510c <__aeabi_dmul>
    3238:	9a00      	ldr	r2, [sp, #0]
    323a:	9b01      	ldr	r3, [sp, #4]
    323c:	f001 f822 	bl	4284 <__aeabi_dadd>
    3240:	0002      	movs	r2, r0
    3242:	000b      	movs	r3, r1
    3244:	0020      	movs	r0, r4
    3246:	0029      	movs	r1, r5
    3248:	f002 f9e0 	bl	560c <__aeabi_dsub>
    324c:	0032      	movs	r2, r6
    324e:	003b      	movs	r3, r7
    3250:	f002 f9dc 	bl	560c <__aeabi_dsub>
    3254:	0002      	movs	r2, r0
    3256:	000b      	movs	r3, r1
    3258:	2000      	movs	r0, #0
    325a:	4994      	ldr	r1, [pc, #592]	; (34ac <__ieee754_pow+0xa10>)
    325c:	f002 f9d6 	bl	560c <__aeabi_dsub>
    3260:	4643      	mov	r3, r8
    3262:	185b      	adds	r3, r3, r1
    3264:	151a      	asrs	r2, r3, #20
    3266:	2a00      	cmp	r2, #0
    3268:	dc00      	bgt.n	326c <__ieee754_pow+0x7d0>
    326a:	e149      	b.n	3500 <__ieee754_pow+0xa64>
    326c:	0019      	movs	r1, r3
    326e:	9a06      	ldr	r2, [sp, #24]
    3270:	9b07      	ldr	r3, [sp, #28]
    3272:	f001 ff4b 	bl	510c <__aeabi_dmul>
    3276:	e459      	b.n	2b2c <__ieee754_pow+0x90>
    3278:	003a      	movs	r2, r7
    327a:	0033      	movs	r3, r6
    327c:	0038      	movs	r0, r7
    327e:	0031      	movs	r1, r6
    3280:	f001 ff44 	bl	510c <__aeabi_dmul>
    3284:	e452      	b.n	2b2c <__ieee754_pow+0x90>
    3286:	4653      	mov	r3, sl
    3288:	2b00      	cmp	r3, #0
    328a:	db00      	blt.n	328e <__ieee754_pow+0x7f2>
    328c:	e4d9      	b.n	2c42 <__ieee754_pow+0x1a6>
    328e:	9c00      	ldr	r4, [sp, #0]
    3290:	9d01      	ldr	r5, [sp, #4]
    3292:	2280      	movs	r2, #128	; 0x80
    3294:	0612      	lsls	r2, r2, #24
    3296:	002b      	movs	r3, r5
    3298:	4694      	mov	ip, r2
    329a:	4463      	add	r3, ip
    329c:	0020      	movs	r0, r4
    329e:	0019      	movs	r1, r3
    32a0:	f7ff fc44 	bl	2b2c <__ieee754_pow+0x90>
    32a4:	004b      	lsls	r3, r1, #1
    32a6:	085b      	lsrs	r3, r3, #1
    32a8:	469a      	mov	sl, r3
    32aa:	4b81      	ldr	r3, [pc, #516]	; (34b0 <__ieee754_pow+0xa14>)
    32ac:	459a      	cmp	sl, r3
    32ae:	dc00      	bgt.n	32b2 <__ieee754_pow+0x816>
    32b0:	e0b1      	b.n	3416 <__ieee754_pow+0x97a>
    32b2:	4b80      	ldr	r3, [pc, #512]	; (34b4 <__ieee754_pow+0xa18>)
    32b4:	445b      	add	r3, fp
    32b6:	431a      	orrs	r2, r3
    32b8:	d10c      	bne.n	32d4 <__ieee754_pow+0x838>
    32ba:	0032      	movs	r2, r6
    32bc:	003b      	movs	r3, r7
    32be:	f002 f9a5 	bl	560c <__aeabi_dsub>
    32c2:	0002      	movs	r2, r0
    32c4:	000b      	movs	r3, r1
    32c6:	9800      	ldr	r0, [sp, #0]
    32c8:	9901      	ldr	r1, [sp, #4]
    32ca:	f000 fb4f 	bl	396c <__aeabi_dcmple>
    32ce:	2800      	cmp	r0, #0
    32d0:	d100      	bne.n	32d4 <__ieee754_pow+0x838>
    32d2:	e6ee      	b.n	30b2 <__ieee754_pow+0x616>
    32d4:	9806      	ldr	r0, [sp, #24]
    32d6:	9907      	ldr	r1, [sp, #28]
    32d8:	4a77      	ldr	r2, [pc, #476]	; (34b8 <__ieee754_pow+0xa1c>)
    32da:	4b78      	ldr	r3, [pc, #480]	; (34bc <__ieee754_pow+0xa20>)
    32dc:	f001 ff16 	bl	510c <__aeabi_dmul>
    32e0:	4a75      	ldr	r2, [pc, #468]	; (34b8 <__ieee754_pow+0xa1c>)
    32e2:	4b76      	ldr	r3, [pc, #472]	; (34bc <__ieee754_pow+0xa20>)
    32e4:	f001 ff12 	bl	510c <__aeabi_dmul>
    32e8:	f7ff fc20 	bl	2b2c <__ieee754_pow+0x90>
    32ec:	2300      	movs	r3, #0
    32ee:	4c74      	ldr	r4, [pc, #464]	; (34c0 <__ieee754_pow+0xa24>)
    32f0:	9306      	str	r3, [sp, #24]
    32f2:	9407      	str	r4, [sp, #28]
    32f4:	e652      	b.n	2f9c <__ieee754_pow+0x500>
    32f6:	0002      	movs	r2, r0
    32f8:	000b      	movs	r3, r1
    32fa:	2000      	movs	r0, #0
    32fc:	496b      	ldr	r1, [pc, #428]	; (34ac <__ieee754_pow+0xa10>)
    32fe:	f001 fad1 	bl	48a4 <__aeabi_ddiv>
    3302:	f7ff fc32 	bl	2b6a <__ieee754_pow+0xce>
    3306:	4653      	mov	r3, sl
    3308:	2b00      	cmp	r3, #0
    330a:	db00      	blt.n	330e <__ieee754_pow+0x872>
    330c:	e499      	b.n	2c42 <__ieee754_pow+0x1a6>
    330e:	e454      	b.n	2bba <__ieee754_pow+0x11e>
    3310:	4b6c      	ldr	r3, [pc, #432]	; (34c4 <__ieee754_pow+0xa28>)
    3312:	429c      	cmp	r4, r3
    3314:	ddf7      	ble.n	3306 <__ieee754_pow+0x86a>
    3316:	4b65      	ldr	r3, [pc, #404]	; (34ac <__ieee754_pow+0xa10>)
    3318:	429c      	cmp	r4, r3
    331a:	dd00      	ble.n	331e <__ieee754_pow+0x882>
    331c:	e44a      	b.n	2bb4 <__ieee754_pow+0x118>
    331e:	2200      	movs	r2, #0
    3320:	4b62      	ldr	r3, [pc, #392]	; (34ac <__ieee754_pow+0xa10>)
    3322:	f002 f973 	bl	560c <__aeabi_dsub>
    3326:	22c0      	movs	r2, #192	; 0xc0
    3328:	4b67      	ldr	r3, [pc, #412]	; (34c8 <__ieee754_pow+0xa2c>)
    332a:	05d2      	lsls	r2, r2, #23
    332c:	0004      	movs	r4, r0
    332e:	000d      	movs	r5, r1
    3330:	f001 feec 	bl	510c <__aeabi_dmul>
    3334:	4a65      	ldr	r2, [pc, #404]	; (34cc <__ieee754_pow+0xa30>)
    3336:	0006      	movs	r6, r0
    3338:	000f      	movs	r7, r1
    333a:	4b65      	ldr	r3, [pc, #404]	; (34d0 <__ieee754_pow+0xa34>)
    333c:	0020      	movs	r0, r4
    333e:	0029      	movs	r1, r5
    3340:	f001 fee4 	bl	510c <__aeabi_dmul>
    3344:	2200      	movs	r2, #0
    3346:	9002      	str	r0, [sp, #8]
    3348:	9103      	str	r1, [sp, #12]
    334a:	4b62      	ldr	r3, [pc, #392]	; (34d4 <__ieee754_pow+0xa38>)
    334c:	0020      	movs	r0, r4
    334e:	0029      	movs	r1, r5
    3350:	f001 fedc 	bl	510c <__aeabi_dmul>
    3354:	0002      	movs	r2, r0
    3356:	000b      	movs	r3, r1
    3358:	485f      	ldr	r0, [pc, #380]	; (34d8 <__ieee754_pow+0xa3c>)
    335a:	4960      	ldr	r1, [pc, #384]	; (34dc <__ieee754_pow+0xa40>)
    335c:	f002 f956 	bl	560c <__aeabi_dsub>
    3360:	0022      	movs	r2, r4
    3362:	002b      	movs	r3, r5
    3364:	f001 fed2 	bl	510c <__aeabi_dmul>
    3368:	0002      	movs	r2, r0
    336a:	000b      	movs	r3, r1
    336c:	2000      	movs	r0, #0
    336e:	495c      	ldr	r1, [pc, #368]	; (34e0 <__ieee754_pow+0xa44>)
    3370:	f002 f94c 	bl	560c <__aeabi_dsub>
    3374:	0022      	movs	r2, r4
    3376:	9004      	str	r0, [sp, #16]
    3378:	9105      	str	r1, [sp, #20]
    337a:	002b      	movs	r3, r5
    337c:	0020      	movs	r0, r4
    337e:	0029      	movs	r1, r5
    3380:	f001 fec4 	bl	510c <__aeabi_dmul>
    3384:	0002      	movs	r2, r0
    3386:	000b      	movs	r3, r1
    3388:	9804      	ldr	r0, [sp, #16]
    338a:	9905      	ldr	r1, [sp, #20]
    338c:	f001 febe 	bl	510c <__aeabi_dmul>
    3390:	4a54      	ldr	r2, [pc, #336]	; (34e4 <__ieee754_pow+0xa48>)
    3392:	4b4d      	ldr	r3, [pc, #308]	; (34c8 <__ieee754_pow+0xa2c>)
    3394:	f001 feba 	bl	510c <__aeabi_dmul>
    3398:	0002      	movs	r2, r0
    339a:	000b      	movs	r3, r1
    339c:	9802      	ldr	r0, [sp, #8]
    339e:	9903      	ldr	r1, [sp, #12]
    33a0:	f002 f934 	bl	560c <__aeabi_dsub>
    33a4:	0002      	movs	r2, r0
    33a6:	000b      	movs	r3, r1
    33a8:	0004      	movs	r4, r0
    33aa:	000d      	movs	r5, r1
    33ac:	0030      	movs	r0, r6
    33ae:	0039      	movs	r1, r7
    33b0:	f000 ff68 	bl	4284 <__aeabi_dadd>
    33b4:	2000      	movs	r0, #0
    33b6:	0032      	movs	r2, r6
    33b8:	003b      	movs	r3, r7
    33ba:	9002      	str	r0, [sp, #8]
    33bc:	9103      	str	r1, [sp, #12]
    33be:	f002 f925 	bl	560c <__aeabi_dsub>
    33c2:	0002      	movs	r2, r0
    33c4:	000b      	movs	r3, r1
    33c6:	0020      	movs	r0, r4
    33c8:	0029      	movs	r1, r5
    33ca:	f002 f91f 	bl	560c <__aeabi_dsub>
    33ce:	9004      	str	r0, [sp, #16]
    33d0:	9105      	str	r1, [sp, #20]
    33d2:	e5d9      	b.n	2f88 <__ieee754_pow+0x4ec>
    33d4:	4a44      	ldr	r2, [pc, #272]	; (34e8 <__ieee754_pow+0xa4c>)
    33d6:	4b45      	ldr	r3, [pc, #276]	; (34ec <__ieee754_pow+0xa50>)
    33d8:	9806      	ldr	r0, [sp, #24]
    33da:	9907      	ldr	r1, [sp, #28]
    33dc:	f001 fe96 	bl	510c <__aeabi_dmul>
    33e0:	4a41      	ldr	r2, [pc, #260]	; (34e8 <__ieee754_pow+0xa4c>)
    33e2:	4b42      	ldr	r3, [pc, #264]	; (34ec <__ieee754_pow+0xa50>)
    33e4:	f001 fe92 	bl	510c <__aeabi_dmul>
    33e8:	f7ff fba0 	bl	2b2c <__ieee754_pow+0x90>
    33ec:	2a00      	cmp	r2, #0
    33ee:	d001      	beq.n	33f4 <__ieee754_pow+0x958>
    33f0:	f7ff fba9 	bl	2b46 <__ieee754_pow+0xaa>
    33f4:	3214      	adds	r2, #20
    33f6:	1ad3      	subs	r3, r2, r3
    33f8:	002a      	movs	r2, r5
    33fa:	411a      	asrs	r2, r3
    33fc:	0011      	movs	r1, r2
    33fe:	4099      	lsls	r1, r3
    3400:	428d      	cmp	r5, r1
    3402:	d001      	beq.n	3408 <__ieee754_pow+0x96c>
    3404:	f7ff fb76 	bl	2af4 <__ieee754_pow+0x58>
    3408:	2301      	movs	r3, #1
    340a:	401a      	ands	r2, r3
    340c:	18db      	adds	r3, r3, r3
    340e:	1a9b      	subs	r3, r3, r2
    3410:	469b      	mov	fp, r3
    3412:	f7ff fb6f 	bl	2af4 <__ieee754_pow+0x58>
    3416:	2200      	movs	r2, #0
    3418:	4b31      	ldr	r3, [pc, #196]	; (34e0 <__ieee754_pow+0xa44>)
    341a:	4690      	mov	r8, r2
    341c:	4691      	mov	r9, r2
    341e:	459a      	cmp	sl, r3
    3420:	dc00      	bgt.n	3424 <__ieee754_pow+0x988>
    3422:	e67b      	b.n	311c <__ieee754_pow+0x680>
    3424:	e645      	b.n	30b2 <__ieee754_pow+0x616>
    3426:	0002      	movs	r2, r0
    3428:	000b      	movs	r3, r1
    342a:	f002 f8ef 	bl	560c <__aeabi_dsub>
    342e:	0002      	movs	r2, r0
    3430:	000b      	movs	r3, r1
    3432:	f001 fa37 	bl	48a4 <__aeabi_ddiv>
    3436:	f7ff fb79 	bl	2b2c <__ieee754_pow+0x90>
    343a:	2380      	movs	r3, #128	; 0x80
    343c:	4c2c      	ldr	r4, [pc, #176]	; (34f0 <__ieee754_pow+0xa54>)
    343e:	05db      	lsls	r3, r3, #23
    3440:	9308      	str	r3, [sp, #32]
    3442:	9409      	str	r4, [sp, #36]	; 0x24
    3444:	4b2b      	ldr	r3, [pc, #172]	; (34f4 <__ieee754_pow+0xa58>)
    3446:	4c2c      	ldr	r4, [pc, #176]	; (34f8 <__ieee754_pow+0xa5c>)
    3448:	2200      	movs	r2, #0
    344a:	930c      	str	r3, [sp, #48]	; 0x30
    344c:	940d      	str	r4, [sp, #52]	; 0x34
    344e:	2480      	movs	r4, #128	; 0x80
    3450:	4b2a      	ldr	r3, [pc, #168]	; (34fc <__ieee754_pow+0xa60>)
    3452:	02e4      	lsls	r4, r4, #11
    3454:	9206      	str	r2, [sp, #24]
    3456:	9307      	str	r3, [sp, #28]
    3458:	e449      	b.n	2cee <__ieee754_pow+0x252>
    345a:	464b      	mov	r3, r9
    345c:	425b      	negs	r3, r3
    345e:	4699      	mov	r9, r3
    3460:	e64a      	b.n	30f8 <__ieee754_pow+0x65c>
    3462:	46c0      	nop			; (mov r8, r8)
    3464:	fffffc02 	.word	0xfffffc02
    3468:	fffffc01 	.word	0xfffffc01
    346c:	000fffff 	.word	0x000fffff
    3470:	3fe62e43 	.word	0x3fe62e43
    3474:	fefa39ef 	.word	0xfefa39ef
    3478:	3fe62e42 	.word	0x3fe62e42
    347c:	0ca86c39 	.word	0x0ca86c39
    3480:	be205c61 	.word	0xbe205c61
    3484:	72bea4d0 	.word	0x72bea4d0
    3488:	3e663769 	.word	0x3e663769
    348c:	c5d26bf1 	.word	0xc5d26bf1
    3490:	3ebbbd41 	.word	0x3ebbbd41
    3494:	af25de2c 	.word	0xaf25de2c
    3498:	3f11566a 	.word	0x3f11566a
    349c:	16bebd93 	.word	0x16bebd93
    34a0:	3f66c16c 	.word	0x3f66c16c
    34a4:	5555553e 	.word	0x5555553e
    34a8:	3fc55555 	.word	0x3fc55555
    34ac:	3ff00000 	.word	0x3ff00000
    34b0:	4090cbff 	.word	0x4090cbff
    34b4:	3f6f3400 	.word	0x3f6f3400
    34b8:	c2f8f359 	.word	0xc2f8f359
    34bc:	01a56e1f 	.word	0x01a56e1f
    34c0:	bff00000 	.word	0xbff00000
    34c4:	3feffffe 	.word	0x3feffffe
    34c8:	3ff71547 	.word	0x3ff71547
    34cc:	f85ddf44 	.word	0xf85ddf44
    34d0:	3e54ae0b 	.word	0x3e54ae0b
    34d4:	3fd00000 	.word	0x3fd00000
    34d8:	55555555 	.word	0x55555555
    34dc:	3fd55555 	.word	0x3fd55555
    34e0:	3fe00000 	.word	0x3fe00000
    34e4:	652b82fe 	.word	0x652b82fe
    34e8:	8800759c 	.word	0x8800759c
    34ec:	7e37e43c 	.word	0x7e37e43c
    34f0:	3fe2b803 	.word	0x3fe2b803
    34f4:	43cfd006 	.word	0x43cfd006
    34f8:	3e4cfdeb 	.word	0x3e4cfdeb
    34fc:	3ff80000 	.word	0x3ff80000
    3500:	464a      	mov	r2, r9
    3502:	f000 f999 	bl	3838 <scalbn>
    3506:	e6b2      	b.n	326e <__ieee754_pow+0x7d2>

00003508 <__ieee754_sqrt>:
    3508:	4b6c      	ldr	r3, [pc, #432]	; (36bc <__ieee754_sqrt+0x1b4>)
    350a:	b5f0      	push	{r4, r5, r6, r7, lr}
    350c:	000a      	movs	r2, r1
    350e:	4646      	mov	r6, r8
    3510:	000d      	movs	r5, r1
    3512:	46d6      	mov	lr, sl
    3514:	464f      	mov	r7, r9
    3516:	0019      	movs	r1, r3
    3518:	b5c0      	push	{r6, r7, lr}
    351a:	0004      	movs	r4, r0
    351c:	0006      	movs	r6, r0
    351e:	4029      	ands	r1, r5
    3520:	4299      	cmp	r1, r3
    3522:	d100      	bne.n	3526 <__ieee754_sqrt+0x1e>
    3524:	e0a7      	b.n	3676 <__ieee754_sqrt+0x16e>
    3526:	2d00      	cmp	r5, #0
    3528:	dc00      	bgt.n	352c <__ieee754_sqrt+0x24>
    352a:	e081      	b.n	3630 <__ieee754_sqrt+0x128>
    352c:	152f      	asrs	r7, r5, #20
    352e:	d100      	bne.n	3532 <__ieee754_sqrt+0x2a>
    3530:	e08e      	b.n	3650 <__ieee754_sqrt+0x148>
    3532:	4b63      	ldr	r3, [pc, #396]	; (36c0 <__ieee754_sqrt+0x1b8>)
    3534:	0312      	lsls	r2, r2, #12
    3536:	469c      	mov	ip, r3
    3538:	2380      	movs	r3, #128	; 0x80
    353a:	0b12      	lsrs	r2, r2, #12
    353c:	035b      	lsls	r3, r3, #13
    353e:	4467      	add	r7, ip
    3540:	431a      	orrs	r2, r3
    3542:	07fb      	lsls	r3, r7, #31
    3544:	d468      	bmi.n	3618 <__ieee754_sqrt+0x110>
    3546:	107b      	asrs	r3, r7, #1
    3548:	469c      	mov	ip, r3
    354a:	0fe3      	lsrs	r3, r4, #31
    354c:	189b      	adds	r3, r3, r2
    354e:	189b      	adds	r3, r3, r2
    3550:	2280      	movs	r2, #128	; 0x80
    3552:	2116      	movs	r1, #22
    3554:	2600      	movs	r6, #0
    3556:	2500      	movs	r5, #0
    3558:	0064      	lsls	r4, r4, #1
    355a:	0392      	lsls	r2, r2, #14
    355c:	18a8      	adds	r0, r5, r2
    355e:	4298      	cmp	r0, r3
    3560:	dc02      	bgt.n	3568 <__ieee754_sqrt+0x60>
    3562:	1885      	adds	r5, r0, r2
    3564:	1a1b      	subs	r3, r3, r0
    3566:	18b6      	adds	r6, r6, r2
    3568:	0fe0      	lsrs	r0, r4, #31
    356a:	005b      	lsls	r3, r3, #1
    356c:	3901      	subs	r1, #1
    356e:	181b      	adds	r3, r3, r0
    3570:	0064      	lsls	r4, r4, #1
    3572:	0852      	lsrs	r2, r2, #1
    3574:	2900      	cmp	r1, #0
    3576:	d1f1      	bne.n	355c <__ieee754_sqrt+0x54>
    3578:	2200      	movs	r2, #0
    357a:	4692      	mov	sl, r2
    357c:	4690      	mov	r8, r2
    357e:	2280      	movs	r2, #128	; 0x80
    3580:	2020      	movs	r0, #32
    3582:	0612      	lsls	r2, r2, #24
    3584:	e009      	b.n	359a <__ieee754_sqrt+0x92>
    3586:	42ab      	cmp	r3, r5
    3588:	d038      	beq.n	35fc <__ieee754_sqrt+0xf4>
    358a:	0fe1      	lsrs	r1, r4, #31
    358c:	18c9      	adds	r1, r1, r3
    358e:	3801      	subs	r0, #1
    3590:	18cb      	adds	r3, r1, r3
    3592:	0064      	lsls	r4, r4, #1
    3594:	0852      	lsrs	r2, r2, #1
    3596:	2800      	cmp	r0, #0
    3598:	d018      	beq.n	35cc <__ieee754_sqrt+0xc4>
    359a:	4641      	mov	r1, r8
    359c:	1851      	adds	r1, r2, r1
    359e:	42ab      	cmp	r3, r5
    35a0:	ddf1      	ble.n	3586 <__ieee754_sqrt+0x7e>
    35a2:	188f      	adds	r7, r1, r2
    35a4:	46b8      	mov	r8, r7
    35a6:	46a9      	mov	r9, r5
    35a8:	2900      	cmp	r1, #0
    35aa:	db30      	blt.n	360e <__ieee754_sqrt+0x106>
    35ac:	1b5b      	subs	r3, r3, r5
    35ae:	428c      	cmp	r4, r1
    35b0:	41ad      	sbcs	r5, r5
    35b2:	426d      	negs	r5, r5
    35b4:	1b5b      	subs	r3, r3, r5
    35b6:	1a64      	subs	r4, r4, r1
    35b8:	0fe1      	lsrs	r1, r4, #31
    35ba:	18c9      	adds	r1, r1, r3
    35bc:	3801      	subs	r0, #1
    35be:	4492      	add	sl, r2
    35c0:	464d      	mov	r5, r9
    35c2:	18cb      	adds	r3, r1, r3
    35c4:	0064      	lsls	r4, r4, #1
    35c6:	0852      	lsrs	r2, r2, #1
    35c8:	2800      	cmp	r0, #0
    35ca:	d1e6      	bne.n	359a <__ieee754_sqrt+0x92>
    35cc:	4323      	orrs	r3, r4
    35ce:	d128      	bne.n	3622 <__ieee754_sqrt+0x11a>
    35d0:	4653      	mov	r3, sl
    35d2:	085b      	lsrs	r3, r3, #1
    35d4:	493b      	ldr	r1, [pc, #236]	; (36c4 <__ieee754_sqrt+0x1bc>)
    35d6:	1072      	asrs	r2, r6, #1
    35d8:	4688      	mov	r8, r1
    35da:	4442      	add	r2, r8
    35dc:	07f1      	lsls	r1, r6, #31
    35de:	d502      	bpl.n	35e6 <__ieee754_sqrt+0xde>
    35e0:	2180      	movs	r1, #128	; 0x80
    35e2:	0609      	lsls	r1, r1, #24
    35e4:	430b      	orrs	r3, r1
    35e6:	4661      	mov	r1, ip
    35e8:	001e      	movs	r6, r3
    35ea:	050f      	lsls	r7, r1, #20
    35ec:	18bd      	adds	r5, r7, r2
    35ee:	0030      	movs	r0, r6
    35f0:	0029      	movs	r1, r5
    35f2:	bc1c      	pop	{r2, r3, r4}
    35f4:	4690      	mov	r8, r2
    35f6:	4699      	mov	r9, r3
    35f8:	46a2      	mov	sl, r4
    35fa:	bdf0      	pop	{r4, r5, r6, r7, pc}
    35fc:	42a1      	cmp	r1, r4
    35fe:	d8c4      	bhi.n	358a <__ieee754_sqrt+0x82>
    3600:	188f      	adds	r7, r1, r2
    3602:	46b8      	mov	r8, r7
    3604:	2900      	cmp	r1, #0
    3606:	db42      	blt.n	368e <__ieee754_sqrt+0x186>
    3608:	4699      	mov	r9, r3
    360a:	2300      	movs	r3, #0
    360c:	e7d3      	b.n	35b6 <__ieee754_sqrt+0xae>
    360e:	2f00      	cmp	r7, #0
    3610:	db2f      	blt.n	3672 <__ieee754_sqrt+0x16a>
    3612:	1c6f      	adds	r7, r5, #1
    3614:	46b9      	mov	r9, r7
    3616:	e7c9      	b.n	35ac <__ieee754_sqrt+0xa4>
    3618:	0fe1      	lsrs	r1, r4, #31
    361a:	0052      	lsls	r2, r2, #1
    361c:	188a      	adds	r2, r1, r2
    361e:	0064      	lsls	r4, r4, #1
    3620:	e791      	b.n	3546 <__ieee754_sqrt+0x3e>
    3622:	4653      	mov	r3, sl
    3624:	3301      	adds	r3, #1
    3626:	d035      	beq.n	3694 <__ieee754_sqrt+0x18c>
    3628:	4653      	mov	r3, sl
    362a:	3301      	adds	r3, #1
    362c:	085b      	lsrs	r3, r3, #1
    362e:	e7d1      	b.n	35d4 <__ieee754_sqrt+0xcc>
    3630:	006b      	lsls	r3, r5, #1
    3632:	085b      	lsrs	r3, r3, #1
    3634:	4303      	orrs	r3, r0
    3636:	d0da      	beq.n	35ee <__ieee754_sqrt+0xe6>
    3638:	2700      	movs	r7, #0
    363a:	2d00      	cmp	r5, #0
    363c:	d132      	bne.n	36a4 <__ieee754_sqrt+0x19c>
    363e:	0ae2      	lsrs	r2, r4, #11
    3640:	3f15      	subs	r7, #21
    3642:	0564      	lsls	r4, r4, #21
    3644:	2a00      	cmp	r2, #0
    3646:	d0fa      	beq.n	363e <__ieee754_sqrt+0x136>
    3648:	2380      	movs	r3, #128	; 0x80
    364a:	035b      	lsls	r3, r3, #13
    364c:	421a      	tst	r2, r3
    364e:	d124      	bne.n	369a <__ieee754_sqrt+0x192>
    3650:	2080      	movs	r0, #128	; 0x80
    3652:	2300      	movs	r3, #0
    3654:	0340      	lsls	r0, r0, #13
    3656:	e000      	b.n	365a <__ieee754_sqrt+0x152>
    3658:	000b      	movs	r3, r1
    365a:	0052      	lsls	r2, r2, #1
    365c:	1c59      	adds	r1, r3, #1
    365e:	4202      	tst	r2, r0
    3660:	d0fa      	beq.n	3658 <__ieee754_sqrt+0x150>
    3662:	2020      	movs	r0, #32
    3664:	1a40      	subs	r0, r0, r1
    3666:	1aff      	subs	r7, r7, r3
    3668:	0023      	movs	r3, r4
    366a:	40c3      	lsrs	r3, r0
    366c:	408c      	lsls	r4, r1
    366e:	431a      	orrs	r2, r3
    3670:	e75f      	b.n	3532 <__ieee754_sqrt+0x2a>
    3672:	46a9      	mov	r9, r5
    3674:	e79a      	b.n	35ac <__ieee754_sqrt+0xa4>
    3676:	002b      	movs	r3, r5
    3678:	0002      	movs	r2, r0
    367a:	0029      	movs	r1, r5
    367c:	f001 fd46 	bl	510c <__aeabi_dmul>
    3680:	0032      	movs	r2, r6
    3682:	002b      	movs	r3, r5
    3684:	f000 fdfe 	bl	4284 <__aeabi_dadd>
    3688:	0006      	movs	r6, r0
    368a:	000d      	movs	r5, r1
    368c:	e7af      	b.n	35ee <__ieee754_sqrt+0xe6>
    368e:	2f00      	cmp	r7, #0
    3690:	dabf      	bge.n	3612 <__ieee754_sqrt+0x10a>
    3692:	e7b9      	b.n	3608 <__ieee754_sqrt+0x100>
    3694:	3601      	adds	r6, #1
    3696:	2300      	movs	r3, #0
    3698:	e79c      	b.n	35d4 <__ieee754_sqrt+0xcc>
    369a:	2301      	movs	r3, #1
    369c:	2100      	movs	r1, #0
    369e:	2020      	movs	r0, #32
    36a0:	425b      	negs	r3, r3
    36a2:	e7e0      	b.n	3666 <__ieee754_sqrt+0x15e>
    36a4:	002b      	movs	r3, r5
    36a6:	0002      	movs	r2, r0
    36a8:	0029      	movs	r1, r5
    36aa:	f001 ffaf 	bl	560c <__aeabi_dsub>
    36ae:	0002      	movs	r2, r0
    36b0:	000b      	movs	r3, r1
    36b2:	f001 f8f7 	bl	48a4 <__aeabi_ddiv>
    36b6:	0006      	movs	r6, r0
    36b8:	000d      	movs	r5, r1
    36ba:	e798      	b.n	35ee <__ieee754_sqrt+0xe6>
    36bc:	7ff00000 	.word	0x7ff00000
    36c0:	fffffc01 	.word	0xfffffc01
    36c4:	3fe00000 	.word	0x3fe00000

000036c8 <fabs>:
    36c8:	0049      	lsls	r1, r1, #1
    36ca:	084b      	lsrs	r3, r1, #1
    36cc:	0019      	movs	r1, r3
    36ce:	4770      	bx	lr

000036d0 <finite>:
    36d0:	4b03      	ldr	r3, [pc, #12]	; (36e0 <finite+0x10>)
    36d2:	0048      	lsls	r0, r1, #1
    36d4:	469c      	mov	ip, r3
    36d6:	0840      	lsrs	r0, r0, #1
    36d8:	4460      	add	r0, ip
    36da:	0fc0      	lsrs	r0, r0, #31
    36dc:	4770      	bx	lr
    36de:	46c0      	nop			; (mov r8, r8)
    36e0:	80100000 	.word	0x80100000

000036e4 <matherr>:
    36e4:	2000      	movs	r0, #0
    36e6:	4770      	bx	lr

000036e8 <nan>:
    36e8:	2000      	movs	r0, #0
    36ea:	4901      	ldr	r1, [pc, #4]	; (36f0 <nan+0x8>)
    36ec:	4770      	bx	lr
    36ee:	46c0      	nop			; (mov r8, r8)
    36f0:	7ff80000 	.word	0x7ff80000

000036f4 <rint>:
    36f4:	b5f0      	push	{r4, r5, r6, r7, lr}
    36f6:	46c6      	mov	lr, r8
    36f8:	b500      	push	{lr}
    36fa:	0fcb      	lsrs	r3, r1, #31
    36fc:	4698      	mov	r8, r3
    36fe:	4c4a      	ldr	r4, [pc, #296]	; (3828 <rint+0x134>)
    3700:	004b      	lsls	r3, r1, #1
    3702:	0d5b      	lsrs	r3, r3, #21
    3704:	191e      	adds	r6, r3, r4
    3706:	b082      	sub	sp, #8
    3708:	0007      	movs	r7, r0
    370a:	000a      	movs	r2, r1
    370c:	2e13      	cmp	r6, #19
    370e:	dc35      	bgt.n	377c <rint+0x88>
    3710:	2e00      	cmp	r6, #0
    3712:	db57      	blt.n	37c4 <rint+0xd0>
    3714:	4b45      	ldr	r3, [pc, #276]	; (382c <rint+0x138>)
    3716:	0004      	movs	r4, r0
    3718:	4133      	asrs	r3, r6
    371a:	001f      	movs	r7, r3
    371c:	400f      	ands	r7, r1
    371e:	4307      	orrs	r7, r0
    3720:	000d      	movs	r5, r1
    3722:	2f00      	cmp	r7, #0
    3724:	d024      	beq.n	3770 <rint+0x7c>
    3726:	085b      	lsrs	r3, r3, #1
    3728:	001c      	movs	r4, r3
    372a:	400c      	ands	r4, r1
    372c:	4320      	orrs	r0, r4
    372e:	2700      	movs	r7, #0
    3730:	2800      	cmp	r0, #0
    3732:	d007      	beq.n	3744 <rint+0x50>
    3734:	2e13      	cmp	r6, #19
    3736:	d100      	bne.n	373a <rint+0x46>
    3738:	e073      	b.n	3822 <rint+0x12e>
    373a:	2280      	movs	r2, #128	; 0x80
    373c:	02d2      	lsls	r2, r2, #11
    373e:	4132      	asrs	r2, r6
    3740:	4399      	bics	r1, r3
    3742:	430a      	orrs	r2, r1
    3744:	4643      	mov	r3, r8
    3746:	00de      	lsls	r6, r3, #3
    3748:	4b39      	ldr	r3, [pc, #228]	; (3830 <rint+0x13c>)
    374a:	0011      	movs	r1, r2
    374c:	199e      	adds	r6, r3, r6
    374e:	6834      	ldr	r4, [r6, #0]
    3750:	6875      	ldr	r5, [r6, #4]
    3752:	0038      	movs	r0, r7
    3754:	0022      	movs	r2, r4
    3756:	002b      	movs	r3, r5
    3758:	f000 fd94 	bl	4284 <__aeabi_dadd>
    375c:	9000      	str	r0, [sp, #0]
    375e:	9101      	str	r1, [sp, #4]
    3760:	9800      	ldr	r0, [sp, #0]
    3762:	9901      	ldr	r1, [sp, #4]
    3764:	0022      	movs	r2, r4
    3766:	002b      	movs	r3, r5
    3768:	f001 ff50 	bl	560c <__aeabi_dsub>
    376c:	0004      	movs	r4, r0
    376e:	000d      	movs	r5, r1
    3770:	0020      	movs	r0, r4
    3772:	0029      	movs	r1, r5
    3774:	b002      	add	sp, #8
    3776:	bc04      	pop	{r2}
    3778:	4690      	mov	r8, r2
    377a:	bdf0      	pop	{r4, r5, r6, r7, pc}
    377c:	2e33      	cmp	r6, #51	; 0x33
    377e:	dd0c      	ble.n	379a <rint+0xa6>
    3780:	2380      	movs	r3, #128	; 0x80
    3782:	0004      	movs	r4, r0
    3784:	00db      	lsls	r3, r3, #3
    3786:	000d      	movs	r5, r1
    3788:	429e      	cmp	r6, r3
    378a:	d1f1      	bne.n	3770 <rint+0x7c>
    378c:	0002      	movs	r2, r0
    378e:	000b      	movs	r3, r1
    3790:	f000 fd78 	bl	4284 <__aeabi_dadd>
    3794:	0004      	movs	r4, r0
    3796:	000d      	movs	r5, r1
    3798:	e7ea      	b.n	3770 <rint+0x7c>
    379a:	4c26      	ldr	r4, [pc, #152]	; (3834 <rint+0x140>)
    379c:	000d      	movs	r5, r1
    379e:	46a4      	mov	ip, r4
    37a0:	2401      	movs	r4, #1
    37a2:	4463      	add	r3, ip
    37a4:	4264      	negs	r4, r4
    37a6:	40dc      	lsrs	r4, r3
    37a8:	46a4      	mov	ip, r4
    37aa:	4661      	mov	r1, ip
    37ac:	0004      	movs	r4, r0
    37ae:	4201      	tst	r1, r0
    37b0:	d0de      	beq.n	3770 <rint+0x7c>
    37b2:	0849      	lsrs	r1, r1, #1
    37b4:	4201      	tst	r1, r0
    37b6:	d0c5      	beq.n	3744 <rint+0x50>
    37b8:	2780      	movs	r7, #128	; 0x80
    37ba:	05ff      	lsls	r7, r7, #23
    37bc:	411f      	asrs	r7, r3
    37be:	4388      	bics	r0, r1
    37c0:	4307      	orrs	r7, r0
    37c2:	e7bf      	b.n	3744 <rint+0x50>
    37c4:	004b      	lsls	r3, r1, #1
    37c6:	085b      	lsrs	r3, r3, #1
    37c8:	4303      	orrs	r3, r0
    37ca:	0004      	movs	r4, r0
    37cc:	000d      	movs	r5, r1
    37ce:	2b00      	cmp	r3, #0
    37d0:	d0ce      	beq.n	3770 <rint+0x7c>
    37d2:	030b      	lsls	r3, r1, #12
    37d4:	0b1b      	lsrs	r3, r3, #12
    37d6:	4303      	orrs	r3, r0
    37d8:	001a      	movs	r2, r3
    37da:	425b      	negs	r3, r3
    37dc:	4313      	orrs	r3, r2
    37de:	2280      	movs	r2, #128	; 0x80
    37e0:	0b1b      	lsrs	r3, r3, #12
    37e2:	0312      	lsls	r2, r2, #12
    37e4:	4013      	ands	r3, r2
    37e6:	0c4a      	lsrs	r2, r1, #17
    37e8:	0452      	lsls	r2, r2, #17
    37ea:	4313      	orrs	r3, r2
    37ec:	0019      	movs	r1, r3
    37ee:	4643      	mov	r3, r8
    37f0:	00da      	lsls	r2, r3, #3
    37f2:	4b0f      	ldr	r3, [pc, #60]	; (3830 <rint+0x13c>)
    37f4:	189b      	adds	r3, r3, r2
    37f6:	681c      	ldr	r4, [r3, #0]
    37f8:	685d      	ldr	r5, [r3, #4]
    37fa:	0022      	movs	r2, r4
    37fc:	002b      	movs	r3, r5
    37fe:	f000 fd41 	bl	4284 <__aeabi_dadd>
    3802:	9000      	str	r0, [sp, #0]
    3804:	9101      	str	r1, [sp, #4]
    3806:	9800      	ldr	r0, [sp, #0]
    3808:	9901      	ldr	r1, [sp, #4]
    380a:	0022      	movs	r2, r4
    380c:	002b      	movs	r3, r5
    380e:	f001 fefd 	bl	560c <__aeabi_dsub>
    3812:	4642      	mov	r2, r8
    3814:	004b      	lsls	r3, r1, #1
    3816:	085b      	lsrs	r3, r3, #1
    3818:	07d6      	lsls	r6, r2, #31
    381a:	4333      	orrs	r3, r6
    381c:	0004      	movs	r4, r0
    381e:	001d      	movs	r5, r3
    3820:	e7a6      	b.n	3770 <rint+0x7c>
    3822:	2780      	movs	r7, #128	; 0x80
    3824:	063f      	lsls	r7, r7, #24
    3826:	e788      	b.n	373a <rint+0x46>
    3828:	fffffc01 	.word	0xfffffc01
    382c:	000fffff 	.word	0x000fffff
    3830:	00006290 	.word	0x00006290
    3834:	fffffbed 	.word	0xfffffbed

00003838 <scalbn>:
    3838:	004b      	lsls	r3, r1, #1
    383a:	b570      	push	{r4, r5, r6, lr}
    383c:	0d5b      	lsrs	r3, r3, #21
    383e:	0014      	movs	r4, r2
    3840:	000a      	movs	r2, r1
    3842:	2b00      	cmp	r3, #0
    3844:	d11a      	bne.n	387c <scalbn+0x44>
    3846:	004b      	lsls	r3, r1, #1
    3848:	085b      	lsrs	r3, r3, #1
    384a:	4303      	orrs	r3, r0
    384c:	d015      	beq.n	387a <scalbn+0x42>
    384e:	2200      	movs	r2, #0
    3850:	4b22      	ldr	r3, [pc, #136]	; (38dc <scalbn+0xa4>)
    3852:	f001 fc5b 	bl	510c <__aeabi_dmul>
    3856:	4b22      	ldr	r3, [pc, #136]	; (38e0 <scalbn+0xa8>)
    3858:	000a      	movs	r2, r1
    385a:	429c      	cmp	r4, r3
    385c:	db22      	blt.n	38a4 <scalbn+0x6c>
    385e:	004b      	lsls	r3, r1, #1
    3860:	0d5b      	lsrs	r3, r3, #21
    3862:	3b36      	subs	r3, #54	; 0x36
    3864:	4d1f      	ldr	r5, [pc, #124]	; (38e4 <scalbn+0xac>)
    3866:	18e3      	adds	r3, r4, r3
    3868:	42ab      	cmp	r3, r5
    386a:	dc20      	bgt.n	38ae <scalbn+0x76>
    386c:	2b00      	cmp	r3, #0
    386e:	dd0d      	ble.n	388c <scalbn+0x54>
    3870:	4c1d      	ldr	r4, [pc, #116]	; (38e8 <scalbn+0xb0>)
    3872:	051b      	lsls	r3, r3, #20
    3874:	4022      	ands	r2, r4
    3876:	431a      	orrs	r2, r3
    3878:	0011      	movs	r1, r2
    387a:	bd70      	pop	{r4, r5, r6, pc}
    387c:	4d1b      	ldr	r5, [pc, #108]	; (38ec <scalbn+0xb4>)
    387e:	42ab      	cmp	r3, r5
    3880:	d1f0      	bne.n	3864 <scalbn+0x2c>
    3882:	0002      	movs	r2, r0
    3884:	000b      	movs	r3, r1
    3886:	f000 fcfd 	bl	4284 <__aeabi_dadd>
    388a:	e7f6      	b.n	387a <scalbn+0x42>
    388c:	001d      	movs	r5, r3
    388e:	3535      	adds	r5, #53	; 0x35
    3890:	da18      	bge.n	38c4 <scalbn+0x8c>
    3892:	4b17      	ldr	r3, [pc, #92]	; (38f0 <scalbn+0xb8>)
    3894:	0002      	movs	r2, r0
    3896:	429c      	cmp	r4, r3
    3898:	dc0a      	bgt.n	38b0 <scalbn+0x78>
    389a:	000b      	movs	r3, r1
    389c:	4815      	ldr	r0, [pc, #84]	; (38f4 <scalbn+0xbc>)
    389e:	4916      	ldr	r1, [pc, #88]	; (38f8 <scalbn+0xc0>)
    38a0:	f000 f832 	bl	3908 <copysign>
    38a4:	4a13      	ldr	r2, [pc, #76]	; (38f4 <scalbn+0xbc>)
    38a6:	4b14      	ldr	r3, [pc, #80]	; (38f8 <scalbn+0xc0>)
    38a8:	f001 fc30 	bl	510c <__aeabi_dmul>
    38ac:	e7e5      	b.n	387a <scalbn+0x42>
    38ae:	0002      	movs	r2, r0
    38b0:	000b      	movs	r3, r1
    38b2:	4812      	ldr	r0, [pc, #72]	; (38fc <scalbn+0xc4>)
    38b4:	4912      	ldr	r1, [pc, #72]	; (3900 <scalbn+0xc8>)
    38b6:	f000 f827 	bl	3908 <copysign>
    38ba:	4a10      	ldr	r2, [pc, #64]	; (38fc <scalbn+0xc4>)
    38bc:	4b10      	ldr	r3, [pc, #64]	; (3900 <scalbn+0xc8>)
    38be:	f001 fc25 	bl	510c <__aeabi_dmul>
    38c2:	e7da      	b.n	387a <scalbn+0x42>
    38c4:	4c08      	ldr	r4, [pc, #32]	; (38e8 <scalbn+0xb0>)
    38c6:	3336      	adds	r3, #54	; 0x36
    38c8:	4022      	ands	r2, r4
    38ca:	051b      	lsls	r3, r3, #20
    38cc:	4313      	orrs	r3, r2
    38ce:	0019      	movs	r1, r3
    38d0:	2200      	movs	r2, #0
    38d2:	4b0c      	ldr	r3, [pc, #48]	; (3904 <scalbn+0xcc>)
    38d4:	f001 fc1a 	bl	510c <__aeabi_dmul>
    38d8:	e7cf      	b.n	387a <scalbn+0x42>
    38da:	46c0      	nop			; (mov r8, r8)
    38dc:	43500000 	.word	0x43500000
    38e0:	ffff3cb0 	.word	0xffff3cb0
    38e4:	000007fe 	.word	0x000007fe
    38e8:	800fffff 	.word	0x800fffff
    38ec:	000007ff 	.word	0x000007ff
    38f0:	0000c350 	.word	0x0000c350
    38f4:	c2f8f359 	.word	0xc2f8f359
    38f8:	01a56e1f 	.word	0x01a56e1f
    38fc:	8800759c 	.word	0x8800759c
    3900:	7e37e43c 	.word	0x7e37e43c
    3904:	3c900000 	.word	0x3c900000

00003908 <copysign>:
    3908:	b530      	push	{r4, r5, lr}
    390a:	004a      	lsls	r2, r1, #1
    390c:	0fdb      	lsrs	r3, r3, #31
    390e:	07db      	lsls	r3, r3, #31
    3910:	0852      	lsrs	r2, r2, #1
    3912:	431a      	orrs	r2, r3
    3914:	0011      	movs	r1, r2
    3916:	bd30      	pop	{r4, r5, pc}

00003918 <__gnu_thumb1_case_uqi>:
    3918:	b402      	push	{r1}
    391a:	4671      	mov	r1, lr
    391c:	0849      	lsrs	r1, r1, #1
    391e:	0049      	lsls	r1, r1, #1
    3920:	5c09      	ldrb	r1, [r1, r0]
    3922:	0049      	lsls	r1, r1, #1
    3924:	448e      	add	lr, r1
    3926:	bc02      	pop	{r1}
    3928:	4770      	bx	lr
    392a:	46c0      	nop			; (mov r8, r8)

0000392c <__aeabi_cdrcmple>:
    392c:	4684      	mov	ip, r0
    392e:	1c10      	adds	r0, r2, #0
    3930:	4662      	mov	r2, ip
    3932:	468c      	mov	ip, r1
    3934:	1c19      	adds	r1, r3, #0
    3936:	4663      	mov	r3, ip
    3938:	e000      	b.n	393c <__aeabi_cdcmpeq>
    393a:	46c0      	nop			; (mov r8, r8)

0000393c <__aeabi_cdcmpeq>:
    393c:	b51f      	push	{r0, r1, r2, r3, r4, lr}
    393e:	f001 fb83 	bl	5048 <__ledf2>
    3942:	2800      	cmp	r0, #0
    3944:	d401      	bmi.n	394a <__aeabi_cdcmpeq+0xe>
    3946:	2100      	movs	r1, #0
    3948:	42c8      	cmn	r0, r1
    394a:	bd1f      	pop	{r0, r1, r2, r3, r4, pc}

0000394c <__aeabi_dcmpeq>:
    394c:	b510      	push	{r4, lr}
    394e:	f001 fadd 	bl	4f0c <__eqdf2>
    3952:	4240      	negs	r0, r0
    3954:	3001      	adds	r0, #1
    3956:	bd10      	pop	{r4, pc}

00003958 <__aeabi_dcmplt>:
    3958:	b510      	push	{r4, lr}
    395a:	f001 fb75 	bl	5048 <__ledf2>
    395e:	2800      	cmp	r0, #0
    3960:	db01      	blt.n	3966 <__aeabi_dcmplt+0xe>
    3962:	2000      	movs	r0, #0
    3964:	bd10      	pop	{r4, pc}
    3966:	2001      	movs	r0, #1
    3968:	bd10      	pop	{r4, pc}
    396a:	46c0      	nop			; (mov r8, r8)

0000396c <__aeabi_dcmple>:
    396c:	b510      	push	{r4, lr}
    396e:	f001 fb6b 	bl	5048 <__ledf2>
    3972:	2800      	cmp	r0, #0
    3974:	dd01      	ble.n	397a <__aeabi_dcmple+0xe>
    3976:	2000      	movs	r0, #0
    3978:	bd10      	pop	{r4, pc}
    397a:	2001      	movs	r0, #1
    397c:	bd10      	pop	{r4, pc}
    397e:	46c0      	nop			; (mov r8, r8)

00003980 <__aeabi_dcmpgt>:
    3980:	b510      	push	{r4, lr}
    3982:	f001 fafd 	bl	4f80 <__gedf2>
    3986:	2800      	cmp	r0, #0
    3988:	dc01      	bgt.n	398e <__aeabi_dcmpgt+0xe>
    398a:	2000      	movs	r0, #0
    398c:	bd10      	pop	{r4, pc}
    398e:	2001      	movs	r0, #1
    3990:	bd10      	pop	{r4, pc}
    3992:	46c0      	nop			; (mov r8, r8)

00003994 <__aeabi_dcmpge>:
    3994:	b510      	push	{r4, lr}
    3996:	f001 faf3 	bl	4f80 <__gedf2>
    399a:	2800      	cmp	r0, #0
    399c:	da01      	bge.n	39a2 <__aeabi_dcmpge+0xe>
    399e:	2000      	movs	r0, #0
    39a0:	bd10      	pop	{r4, pc}
    39a2:	2001      	movs	r0, #1
    39a4:	bd10      	pop	{r4, pc}
    39a6:	46c0      	nop			; (mov r8, r8)

000039a8 <__aeabi_cfrcmple>:
    39a8:	4684      	mov	ip, r0
    39aa:	1c08      	adds	r0, r1, #0
    39ac:	4661      	mov	r1, ip
    39ae:	e7ff      	b.n	39b0 <__aeabi_cfcmpeq>

000039b0 <__aeabi_cfcmpeq>:
    39b0:	b51f      	push	{r0, r1, r2, r3, r4, lr}
    39b2:	f000 f8f9 	bl	3ba8 <__lesf2>
    39b6:	2800      	cmp	r0, #0
    39b8:	d401      	bmi.n	39be <__aeabi_cfcmpeq+0xe>
    39ba:	2100      	movs	r1, #0
    39bc:	42c8      	cmn	r0, r1
    39be:	bd1f      	pop	{r0, r1, r2, r3, r4, pc}

000039c0 <__aeabi_fcmpeq>:
    39c0:	b510      	push	{r4, lr}
    39c2:	f000 f88b 	bl	3adc <__eqsf2>
    39c6:	4240      	negs	r0, r0
    39c8:	3001      	adds	r0, #1
    39ca:	bd10      	pop	{r4, pc}

000039cc <__aeabi_fcmplt>:
    39cc:	b510      	push	{r4, lr}
    39ce:	f000 f8eb 	bl	3ba8 <__lesf2>
    39d2:	2800      	cmp	r0, #0
    39d4:	db01      	blt.n	39da <__aeabi_fcmplt+0xe>
    39d6:	2000      	movs	r0, #0
    39d8:	bd10      	pop	{r4, pc}
    39da:	2001      	movs	r0, #1
    39dc:	bd10      	pop	{r4, pc}
    39de:	46c0      	nop			; (mov r8, r8)

000039e0 <__aeabi_fcmple>:
    39e0:	b510      	push	{r4, lr}
    39e2:	f000 f8e1 	bl	3ba8 <__lesf2>
    39e6:	2800      	cmp	r0, #0
    39e8:	dd01      	ble.n	39ee <__aeabi_fcmple+0xe>
    39ea:	2000      	movs	r0, #0
    39ec:	bd10      	pop	{r4, pc}
    39ee:	2001      	movs	r0, #1
    39f0:	bd10      	pop	{r4, pc}
    39f2:	46c0      	nop			; (mov r8, r8)

000039f4 <__aeabi_fcmpgt>:
    39f4:	b510      	push	{r4, lr}
    39f6:	f000 f897 	bl	3b28 <__gesf2>
    39fa:	2800      	cmp	r0, #0
    39fc:	dc01      	bgt.n	3a02 <__aeabi_fcmpgt+0xe>
    39fe:	2000      	movs	r0, #0
    3a00:	bd10      	pop	{r4, pc}
    3a02:	2001      	movs	r0, #1
    3a04:	bd10      	pop	{r4, pc}
    3a06:	46c0      	nop			; (mov r8, r8)

00003a08 <__aeabi_fcmpge>:
    3a08:	b510      	push	{r4, lr}
    3a0a:	f000 f88d 	bl	3b28 <__gesf2>
    3a0e:	2800      	cmp	r0, #0
    3a10:	da01      	bge.n	3a16 <__aeabi_fcmpge+0xe>
    3a12:	2000      	movs	r0, #0
    3a14:	bd10      	pop	{r4, pc}
    3a16:	2001      	movs	r0, #1
    3a18:	bd10      	pop	{r4, pc}
    3a1a:	46c0      	nop			; (mov r8, r8)

00003a1c <__aeabi_lmul>:
    3a1c:	b5f0      	push	{r4, r5, r6, r7, lr}
    3a1e:	46ce      	mov	lr, r9
    3a20:	4647      	mov	r7, r8
    3a22:	0415      	lsls	r5, r2, #16
    3a24:	0c2d      	lsrs	r5, r5, #16
    3a26:	002e      	movs	r6, r5
    3a28:	b580      	push	{r7, lr}
    3a2a:	0407      	lsls	r7, r0, #16
    3a2c:	0c14      	lsrs	r4, r2, #16
    3a2e:	0c3f      	lsrs	r7, r7, #16
    3a30:	4699      	mov	r9, r3
    3a32:	0c03      	lsrs	r3, r0, #16
    3a34:	437e      	muls	r6, r7
    3a36:	435d      	muls	r5, r3
    3a38:	4367      	muls	r7, r4
    3a3a:	4363      	muls	r3, r4
    3a3c:	197f      	adds	r7, r7, r5
    3a3e:	0c34      	lsrs	r4, r6, #16
    3a40:	19e4      	adds	r4, r4, r7
    3a42:	469c      	mov	ip, r3
    3a44:	42a5      	cmp	r5, r4
    3a46:	d903      	bls.n	3a50 <__aeabi_lmul+0x34>
    3a48:	2380      	movs	r3, #128	; 0x80
    3a4a:	025b      	lsls	r3, r3, #9
    3a4c:	4698      	mov	r8, r3
    3a4e:	44c4      	add	ip, r8
    3a50:	464b      	mov	r3, r9
    3a52:	4351      	muls	r1, r2
    3a54:	4343      	muls	r3, r0
    3a56:	0436      	lsls	r6, r6, #16
    3a58:	0c36      	lsrs	r6, r6, #16
    3a5a:	0c25      	lsrs	r5, r4, #16
    3a5c:	0424      	lsls	r4, r4, #16
    3a5e:	4465      	add	r5, ip
    3a60:	19a4      	adds	r4, r4, r6
    3a62:	1859      	adds	r1, r3, r1
    3a64:	1949      	adds	r1, r1, r5
    3a66:	0020      	movs	r0, r4
    3a68:	bc0c      	pop	{r2, r3}
    3a6a:	4690      	mov	r8, r2
    3a6c:	4699      	mov	r9, r3
    3a6e:	bdf0      	pop	{r4, r5, r6, r7, pc}

00003a70 <__aeabi_f2uiz>:
    3a70:	219e      	movs	r1, #158	; 0x9e
    3a72:	b510      	push	{r4, lr}
    3a74:	05c9      	lsls	r1, r1, #23
    3a76:	1c04      	adds	r4, r0, #0
    3a78:	f7ff ffc6 	bl	3a08 <__aeabi_fcmpge>
    3a7c:	2800      	cmp	r0, #0
    3a7e:	d103      	bne.n	3a88 <__aeabi_f2uiz+0x18>
    3a80:	1c20      	adds	r0, r4, #0
    3a82:	f000 fb8f 	bl	41a4 <__aeabi_f2iz>
    3a86:	bd10      	pop	{r4, pc}
    3a88:	219e      	movs	r1, #158	; 0x9e
    3a8a:	1c20      	adds	r0, r4, #0
    3a8c:	05c9      	lsls	r1, r1, #23
    3a8e:	f000 f9ed 	bl	3e6c <__aeabi_fsub>
    3a92:	f000 fb87 	bl	41a4 <__aeabi_f2iz>
    3a96:	2380      	movs	r3, #128	; 0x80
    3a98:	061b      	lsls	r3, r3, #24
    3a9a:	469c      	mov	ip, r3
    3a9c:	4460      	add	r0, ip
    3a9e:	e7f2      	b.n	3a86 <__aeabi_f2uiz+0x16>

00003aa0 <__aeabi_d2uiz>:
    3aa0:	b570      	push	{r4, r5, r6, lr}
    3aa2:	2200      	movs	r2, #0
    3aa4:	4b0c      	ldr	r3, [pc, #48]	; (3ad8 <__aeabi_d2uiz+0x38>)
    3aa6:	0004      	movs	r4, r0
    3aa8:	000d      	movs	r5, r1
    3aaa:	f7ff ff73 	bl	3994 <__aeabi_dcmpge>
    3aae:	2800      	cmp	r0, #0
    3ab0:	d104      	bne.n	3abc <__aeabi_d2uiz+0x1c>
    3ab2:	0020      	movs	r0, r4
    3ab4:	0029      	movs	r1, r5
    3ab6:	f002 f8df 	bl	5c78 <__aeabi_d2iz>
    3aba:	bd70      	pop	{r4, r5, r6, pc}
    3abc:	4b06      	ldr	r3, [pc, #24]	; (3ad8 <__aeabi_d2uiz+0x38>)
    3abe:	2200      	movs	r2, #0
    3ac0:	0020      	movs	r0, r4
    3ac2:	0029      	movs	r1, r5
    3ac4:	f001 fda2 	bl	560c <__aeabi_dsub>
    3ac8:	f002 f8d6 	bl	5c78 <__aeabi_d2iz>
    3acc:	2380      	movs	r3, #128	; 0x80
    3ace:	061b      	lsls	r3, r3, #24
    3ad0:	469c      	mov	ip, r3
    3ad2:	4460      	add	r0, ip
    3ad4:	e7f1      	b.n	3aba <__aeabi_d2uiz+0x1a>
    3ad6:	46c0      	nop			; (mov r8, r8)
    3ad8:	41e00000 	.word	0x41e00000

00003adc <__eqsf2>:
    3adc:	b570      	push	{r4, r5, r6, lr}
    3ade:	0042      	lsls	r2, r0, #1
    3ae0:	0245      	lsls	r5, r0, #9
    3ae2:	024e      	lsls	r6, r1, #9
    3ae4:	004c      	lsls	r4, r1, #1
    3ae6:	0fc3      	lsrs	r3, r0, #31
    3ae8:	0a6d      	lsrs	r5, r5, #9
    3aea:	0e12      	lsrs	r2, r2, #24
    3aec:	0a76      	lsrs	r6, r6, #9
    3aee:	0e24      	lsrs	r4, r4, #24
    3af0:	0fc9      	lsrs	r1, r1, #31
    3af2:	2001      	movs	r0, #1
    3af4:	2aff      	cmp	r2, #255	; 0xff
    3af6:	d006      	beq.n	3b06 <__eqsf2+0x2a>
    3af8:	2cff      	cmp	r4, #255	; 0xff
    3afa:	d003      	beq.n	3b04 <__eqsf2+0x28>
    3afc:	42a2      	cmp	r2, r4
    3afe:	d101      	bne.n	3b04 <__eqsf2+0x28>
    3b00:	42b5      	cmp	r5, r6
    3b02:	d006      	beq.n	3b12 <__eqsf2+0x36>
    3b04:	bd70      	pop	{r4, r5, r6, pc}
    3b06:	2d00      	cmp	r5, #0
    3b08:	d1fc      	bne.n	3b04 <__eqsf2+0x28>
    3b0a:	2cff      	cmp	r4, #255	; 0xff
    3b0c:	d1fa      	bne.n	3b04 <__eqsf2+0x28>
    3b0e:	2e00      	cmp	r6, #0
    3b10:	d1f8      	bne.n	3b04 <__eqsf2+0x28>
    3b12:	428b      	cmp	r3, r1
    3b14:	d006      	beq.n	3b24 <__eqsf2+0x48>
    3b16:	2001      	movs	r0, #1
    3b18:	2a00      	cmp	r2, #0
    3b1a:	d1f3      	bne.n	3b04 <__eqsf2+0x28>
    3b1c:	0028      	movs	r0, r5
    3b1e:	1e45      	subs	r5, r0, #1
    3b20:	41a8      	sbcs	r0, r5
    3b22:	e7ef      	b.n	3b04 <__eqsf2+0x28>
    3b24:	2000      	movs	r0, #0
    3b26:	e7ed      	b.n	3b04 <__eqsf2+0x28>

00003b28 <__gesf2>:
    3b28:	b5f0      	push	{r4, r5, r6, r7, lr}
    3b2a:	0042      	lsls	r2, r0, #1
    3b2c:	0245      	lsls	r5, r0, #9
    3b2e:	024c      	lsls	r4, r1, #9
    3b30:	0fc3      	lsrs	r3, r0, #31
    3b32:	0048      	lsls	r0, r1, #1
    3b34:	0a6d      	lsrs	r5, r5, #9
    3b36:	0e12      	lsrs	r2, r2, #24
    3b38:	0a64      	lsrs	r4, r4, #9
    3b3a:	0e00      	lsrs	r0, r0, #24
    3b3c:	0fc9      	lsrs	r1, r1, #31
    3b3e:	2aff      	cmp	r2, #255	; 0xff
    3b40:	d01e      	beq.n	3b80 <__gesf2+0x58>
    3b42:	28ff      	cmp	r0, #255	; 0xff
    3b44:	d021      	beq.n	3b8a <__gesf2+0x62>
    3b46:	2a00      	cmp	r2, #0
    3b48:	d10a      	bne.n	3b60 <__gesf2+0x38>
    3b4a:	426e      	negs	r6, r5
    3b4c:	416e      	adcs	r6, r5
    3b4e:	b2f6      	uxtb	r6, r6
    3b50:	2800      	cmp	r0, #0
    3b52:	d10f      	bne.n	3b74 <__gesf2+0x4c>
    3b54:	2c00      	cmp	r4, #0
    3b56:	d10d      	bne.n	3b74 <__gesf2+0x4c>
    3b58:	2000      	movs	r0, #0
    3b5a:	2d00      	cmp	r5, #0
    3b5c:	d009      	beq.n	3b72 <__gesf2+0x4a>
    3b5e:	e005      	b.n	3b6c <__gesf2+0x44>
    3b60:	2800      	cmp	r0, #0
    3b62:	d101      	bne.n	3b68 <__gesf2+0x40>
    3b64:	2c00      	cmp	r4, #0
    3b66:	d001      	beq.n	3b6c <__gesf2+0x44>
    3b68:	428b      	cmp	r3, r1
    3b6a:	d011      	beq.n	3b90 <__gesf2+0x68>
    3b6c:	2101      	movs	r1, #1
    3b6e:	4258      	negs	r0, r3
    3b70:	4308      	orrs	r0, r1
    3b72:	bdf0      	pop	{r4, r5, r6, r7, pc}
    3b74:	2e00      	cmp	r6, #0
    3b76:	d0f7      	beq.n	3b68 <__gesf2+0x40>
    3b78:	2001      	movs	r0, #1
    3b7a:	3901      	subs	r1, #1
    3b7c:	4308      	orrs	r0, r1
    3b7e:	e7f8      	b.n	3b72 <__gesf2+0x4a>
    3b80:	2d00      	cmp	r5, #0
    3b82:	d0de      	beq.n	3b42 <__gesf2+0x1a>
    3b84:	2002      	movs	r0, #2
    3b86:	4240      	negs	r0, r0
    3b88:	e7f3      	b.n	3b72 <__gesf2+0x4a>
    3b8a:	2c00      	cmp	r4, #0
    3b8c:	d0db      	beq.n	3b46 <__gesf2+0x1e>
    3b8e:	e7f9      	b.n	3b84 <__gesf2+0x5c>
    3b90:	4282      	cmp	r2, r0
    3b92:	dceb      	bgt.n	3b6c <__gesf2+0x44>
    3b94:	db04      	blt.n	3ba0 <__gesf2+0x78>
    3b96:	42a5      	cmp	r5, r4
    3b98:	d8e8      	bhi.n	3b6c <__gesf2+0x44>
    3b9a:	2000      	movs	r0, #0
    3b9c:	42a5      	cmp	r5, r4
    3b9e:	d2e8      	bcs.n	3b72 <__gesf2+0x4a>
    3ba0:	2101      	movs	r1, #1
    3ba2:	1e58      	subs	r0, r3, #1
    3ba4:	4308      	orrs	r0, r1
    3ba6:	e7e4      	b.n	3b72 <__gesf2+0x4a>

00003ba8 <__lesf2>:
    3ba8:	b5f0      	push	{r4, r5, r6, r7, lr}
    3baa:	0042      	lsls	r2, r0, #1
    3bac:	024d      	lsls	r5, r1, #9
    3bae:	004c      	lsls	r4, r1, #1
    3bb0:	0246      	lsls	r6, r0, #9
    3bb2:	0a76      	lsrs	r6, r6, #9
    3bb4:	0e12      	lsrs	r2, r2, #24
    3bb6:	0fc3      	lsrs	r3, r0, #31
    3bb8:	0a6d      	lsrs	r5, r5, #9
    3bba:	0e24      	lsrs	r4, r4, #24
    3bbc:	0fc9      	lsrs	r1, r1, #31
    3bbe:	2aff      	cmp	r2, #255	; 0xff
    3bc0:	d016      	beq.n	3bf0 <__lesf2+0x48>
    3bc2:	2cff      	cmp	r4, #255	; 0xff
    3bc4:	d018      	beq.n	3bf8 <__lesf2+0x50>
    3bc6:	2a00      	cmp	r2, #0
    3bc8:	d10a      	bne.n	3be0 <__lesf2+0x38>
    3bca:	4270      	negs	r0, r6
    3bcc:	4170      	adcs	r0, r6
    3bce:	b2c0      	uxtb	r0, r0
    3bd0:	2c00      	cmp	r4, #0
    3bd2:	d015      	beq.n	3c00 <__lesf2+0x58>
    3bd4:	2800      	cmp	r0, #0
    3bd6:	d005      	beq.n	3be4 <__lesf2+0x3c>
    3bd8:	2001      	movs	r0, #1
    3bda:	3901      	subs	r1, #1
    3bdc:	4308      	orrs	r0, r1
    3bde:	bdf0      	pop	{r4, r5, r6, r7, pc}
    3be0:	2c00      	cmp	r4, #0
    3be2:	d013      	beq.n	3c0c <__lesf2+0x64>
    3be4:	4299      	cmp	r1, r3
    3be6:	d014      	beq.n	3c12 <__lesf2+0x6a>
    3be8:	2001      	movs	r0, #1
    3bea:	425b      	negs	r3, r3
    3bec:	4318      	orrs	r0, r3
    3bee:	e7f6      	b.n	3bde <__lesf2+0x36>
    3bf0:	2002      	movs	r0, #2
    3bf2:	2e00      	cmp	r6, #0
    3bf4:	d1f3      	bne.n	3bde <__lesf2+0x36>
    3bf6:	e7e4      	b.n	3bc2 <__lesf2+0x1a>
    3bf8:	2002      	movs	r0, #2
    3bfa:	2d00      	cmp	r5, #0
    3bfc:	d1ef      	bne.n	3bde <__lesf2+0x36>
    3bfe:	e7e2      	b.n	3bc6 <__lesf2+0x1e>
    3c00:	2d00      	cmp	r5, #0
    3c02:	d1e7      	bne.n	3bd4 <__lesf2+0x2c>
    3c04:	2000      	movs	r0, #0
    3c06:	2e00      	cmp	r6, #0
    3c08:	d0e9      	beq.n	3bde <__lesf2+0x36>
    3c0a:	e7ed      	b.n	3be8 <__lesf2+0x40>
    3c0c:	2d00      	cmp	r5, #0
    3c0e:	d1e9      	bne.n	3be4 <__lesf2+0x3c>
    3c10:	e7ea      	b.n	3be8 <__lesf2+0x40>
    3c12:	42a2      	cmp	r2, r4
    3c14:	dc06      	bgt.n	3c24 <__lesf2+0x7c>
    3c16:	dbdf      	blt.n	3bd8 <__lesf2+0x30>
    3c18:	42ae      	cmp	r6, r5
    3c1a:	d803      	bhi.n	3c24 <__lesf2+0x7c>
    3c1c:	2000      	movs	r0, #0
    3c1e:	42ae      	cmp	r6, r5
    3c20:	d3da      	bcc.n	3bd8 <__lesf2+0x30>
    3c22:	e7dc      	b.n	3bde <__lesf2+0x36>
    3c24:	2001      	movs	r0, #1
    3c26:	4249      	negs	r1, r1
    3c28:	4308      	orrs	r0, r1
    3c2a:	e7d8      	b.n	3bde <__lesf2+0x36>

00003c2c <__aeabi_fmul>:
    3c2c:	b5f8      	push	{r3, r4, r5, r6, r7, lr}
    3c2e:	4657      	mov	r7, sl
    3c30:	464e      	mov	r6, r9
    3c32:	4645      	mov	r5, r8
    3c34:	46de      	mov	lr, fp
    3c36:	b5e0      	push	{r5, r6, r7, lr}
    3c38:	0247      	lsls	r7, r0, #9
    3c3a:	0046      	lsls	r6, r0, #1
    3c3c:	4688      	mov	r8, r1
    3c3e:	0a7f      	lsrs	r7, r7, #9
    3c40:	0e36      	lsrs	r6, r6, #24
    3c42:	0fc4      	lsrs	r4, r0, #31
    3c44:	2e00      	cmp	r6, #0
    3c46:	d047      	beq.n	3cd8 <__aeabi_fmul+0xac>
    3c48:	2eff      	cmp	r6, #255	; 0xff
    3c4a:	d024      	beq.n	3c96 <__aeabi_fmul+0x6a>
    3c4c:	00fb      	lsls	r3, r7, #3
    3c4e:	2780      	movs	r7, #128	; 0x80
    3c50:	04ff      	lsls	r7, r7, #19
    3c52:	431f      	orrs	r7, r3
    3c54:	2300      	movs	r3, #0
    3c56:	4699      	mov	r9, r3
    3c58:	469a      	mov	sl, r3
    3c5a:	3e7f      	subs	r6, #127	; 0x7f
    3c5c:	4643      	mov	r3, r8
    3c5e:	025d      	lsls	r5, r3, #9
    3c60:	0058      	lsls	r0, r3, #1
    3c62:	0fdb      	lsrs	r3, r3, #31
    3c64:	0a6d      	lsrs	r5, r5, #9
    3c66:	0e00      	lsrs	r0, r0, #24
    3c68:	4698      	mov	r8, r3
    3c6a:	d043      	beq.n	3cf4 <__aeabi_fmul+0xc8>
    3c6c:	28ff      	cmp	r0, #255	; 0xff
    3c6e:	d03b      	beq.n	3ce8 <__aeabi_fmul+0xbc>
    3c70:	00eb      	lsls	r3, r5, #3
    3c72:	2580      	movs	r5, #128	; 0x80
    3c74:	2200      	movs	r2, #0
    3c76:	04ed      	lsls	r5, r5, #19
    3c78:	431d      	orrs	r5, r3
    3c7a:	387f      	subs	r0, #127	; 0x7f
    3c7c:	1836      	adds	r6, r6, r0
    3c7e:	1c73      	adds	r3, r6, #1
    3c80:	4641      	mov	r1, r8
    3c82:	469b      	mov	fp, r3
    3c84:	464b      	mov	r3, r9
    3c86:	4061      	eors	r1, r4
    3c88:	4313      	orrs	r3, r2
    3c8a:	2b0f      	cmp	r3, #15
    3c8c:	d864      	bhi.n	3d58 <__aeabi_fmul+0x12c>
    3c8e:	4875      	ldr	r0, [pc, #468]	; (3e64 <__aeabi_fmul+0x238>)
    3c90:	009b      	lsls	r3, r3, #2
    3c92:	58c3      	ldr	r3, [r0, r3]
    3c94:	469f      	mov	pc, r3
    3c96:	2f00      	cmp	r7, #0
    3c98:	d142      	bne.n	3d20 <__aeabi_fmul+0xf4>
    3c9a:	2308      	movs	r3, #8
    3c9c:	4699      	mov	r9, r3
    3c9e:	3b06      	subs	r3, #6
    3ca0:	26ff      	movs	r6, #255	; 0xff
    3ca2:	469a      	mov	sl, r3
    3ca4:	e7da      	b.n	3c5c <__aeabi_fmul+0x30>
    3ca6:	4641      	mov	r1, r8
    3ca8:	2a02      	cmp	r2, #2
    3caa:	d028      	beq.n	3cfe <__aeabi_fmul+0xd2>
    3cac:	2a03      	cmp	r2, #3
    3cae:	d100      	bne.n	3cb2 <__aeabi_fmul+0x86>
    3cb0:	e0ce      	b.n	3e50 <__aeabi_fmul+0x224>
    3cb2:	2a01      	cmp	r2, #1
    3cb4:	d000      	beq.n	3cb8 <__aeabi_fmul+0x8c>
    3cb6:	e0ac      	b.n	3e12 <__aeabi_fmul+0x1e6>
    3cb8:	4011      	ands	r1, r2
    3cba:	2000      	movs	r0, #0
    3cbc:	2200      	movs	r2, #0
    3cbe:	b2cc      	uxtb	r4, r1
    3cc0:	0240      	lsls	r0, r0, #9
    3cc2:	05d2      	lsls	r2, r2, #23
    3cc4:	0a40      	lsrs	r0, r0, #9
    3cc6:	07e4      	lsls	r4, r4, #31
    3cc8:	4310      	orrs	r0, r2
    3cca:	4320      	orrs	r0, r4
    3ccc:	bc3c      	pop	{r2, r3, r4, r5}
    3cce:	4690      	mov	r8, r2
    3cd0:	4699      	mov	r9, r3
    3cd2:	46a2      	mov	sl, r4
    3cd4:	46ab      	mov	fp, r5
    3cd6:	bdf8      	pop	{r3, r4, r5, r6, r7, pc}
    3cd8:	2f00      	cmp	r7, #0
    3cda:	d115      	bne.n	3d08 <__aeabi_fmul+0xdc>
    3cdc:	2304      	movs	r3, #4
    3cde:	4699      	mov	r9, r3
    3ce0:	3b03      	subs	r3, #3
    3ce2:	2600      	movs	r6, #0
    3ce4:	469a      	mov	sl, r3
    3ce6:	e7b9      	b.n	3c5c <__aeabi_fmul+0x30>
    3ce8:	20ff      	movs	r0, #255	; 0xff
    3cea:	2202      	movs	r2, #2
    3cec:	2d00      	cmp	r5, #0
    3cee:	d0c5      	beq.n	3c7c <__aeabi_fmul+0x50>
    3cf0:	2203      	movs	r2, #3
    3cf2:	e7c3      	b.n	3c7c <__aeabi_fmul+0x50>
    3cf4:	2d00      	cmp	r5, #0
    3cf6:	d119      	bne.n	3d2c <__aeabi_fmul+0x100>
    3cf8:	2000      	movs	r0, #0
    3cfa:	2201      	movs	r2, #1
    3cfc:	e7be      	b.n	3c7c <__aeabi_fmul+0x50>
    3cfe:	2401      	movs	r4, #1
    3d00:	22ff      	movs	r2, #255	; 0xff
    3d02:	400c      	ands	r4, r1
    3d04:	2000      	movs	r0, #0
    3d06:	e7db      	b.n	3cc0 <__aeabi_fmul+0x94>
    3d08:	0038      	movs	r0, r7
    3d0a:	f002 f9cb 	bl	60a4 <__clzsi2>
    3d0e:	2676      	movs	r6, #118	; 0x76
    3d10:	1f43      	subs	r3, r0, #5
    3d12:	409f      	lsls	r7, r3
    3d14:	2300      	movs	r3, #0
    3d16:	4276      	negs	r6, r6
    3d18:	1a36      	subs	r6, r6, r0
    3d1a:	4699      	mov	r9, r3
    3d1c:	469a      	mov	sl, r3
    3d1e:	e79d      	b.n	3c5c <__aeabi_fmul+0x30>
    3d20:	230c      	movs	r3, #12
    3d22:	4699      	mov	r9, r3
    3d24:	3b09      	subs	r3, #9
    3d26:	26ff      	movs	r6, #255	; 0xff
    3d28:	469a      	mov	sl, r3
    3d2a:	e797      	b.n	3c5c <__aeabi_fmul+0x30>
    3d2c:	0028      	movs	r0, r5
    3d2e:	f002 f9b9 	bl	60a4 <__clzsi2>
    3d32:	1f43      	subs	r3, r0, #5
    3d34:	409d      	lsls	r5, r3
    3d36:	2376      	movs	r3, #118	; 0x76
    3d38:	425b      	negs	r3, r3
    3d3a:	1a18      	subs	r0, r3, r0
    3d3c:	2200      	movs	r2, #0
    3d3e:	e79d      	b.n	3c7c <__aeabi_fmul+0x50>
    3d40:	2080      	movs	r0, #128	; 0x80
    3d42:	2400      	movs	r4, #0
    3d44:	03c0      	lsls	r0, r0, #15
    3d46:	22ff      	movs	r2, #255	; 0xff
    3d48:	e7ba      	b.n	3cc0 <__aeabi_fmul+0x94>
    3d4a:	003d      	movs	r5, r7
    3d4c:	4652      	mov	r2, sl
    3d4e:	e7ab      	b.n	3ca8 <__aeabi_fmul+0x7c>
    3d50:	003d      	movs	r5, r7
    3d52:	0021      	movs	r1, r4
    3d54:	4652      	mov	r2, sl
    3d56:	e7a7      	b.n	3ca8 <__aeabi_fmul+0x7c>
    3d58:	0c3b      	lsrs	r3, r7, #16
    3d5a:	469c      	mov	ip, r3
    3d5c:	042a      	lsls	r2, r5, #16
    3d5e:	0c12      	lsrs	r2, r2, #16
    3d60:	0c2b      	lsrs	r3, r5, #16
    3d62:	0014      	movs	r4, r2
    3d64:	4660      	mov	r0, ip
    3d66:	4665      	mov	r5, ip
    3d68:	043f      	lsls	r7, r7, #16
    3d6a:	0c3f      	lsrs	r7, r7, #16
    3d6c:	437c      	muls	r4, r7
    3d6e:	4342      	muls	r2, r0
    3d70:	435d      	muls	r5, r3
    3d72:	437b      	muls	r3, r7
    3d74:	0c27      	lsrs	r7, r4, #16
    3d76:	189b      	adds	r3, r3, r2
    3d78:	18ff      	adds	r7, r7, r3
    3d7a:	42ba      	cmp	r2, r7
    3d7c:	d903      	bls.n	3d86 <__aeabi_fmul+0x15a>
    3d7e:	2380      	movs	r3, #128	; 0x80
    3d80:	025b      	lsls	r3, r3, #9
    3d82:	469c      	mov	ip, r3
    3d84:	4465      	add	r5, ip
    3d86:	0424      	lsls	r4, r4, #16
    3d88:	043a      	lsls	r2, r7, #16
    3d8a:	0c24      	lsrs	r4, r4, #16
    3d8c:	1912      	adds	r2, r2, r4
    3d8e:	0193      	lsls	r3, r2, #6
    3d90:	1e5c      	subs	r4, r3, #1
    3d92:	41a3      	sbcs	r3, r4
    3d94:	0c3f      	lsrs	r7, r7, #16
    3d96:	0e92      	lsrs	r2, r2, #26
    3d98:	197d      	adds	r5, r7, r5
    3d9a:	431a      	orrs	r2, r3
    3d9c:	01ad      	lsls	r5, r5, #6
    3d9e:	4315      	orrs	r5, r2
    3da0:	012b      	lsls	r3, r5, #4
    3da2:	d504      	bpl.n	3dae <__aeabi_fmul+0x182>
    3da4:	2301      	movs	r3, #1
    3da6:	465e      	mov	r6, fp
    3da8:	086a      	lsrs	r2, r5, #1
    3daa:	401d      	ands	r5, r3
    3dac:	4315      	orrs	r5, r2
    3dae:	0032      	movs	r2, r6
    3db0:	327f      	adds	r2, #127	; 0x7f
    3db2:	2a00      	cmp	r2, #0
    3db4:	dd25      	ble.n	3e02 <__aeabi_fmul+0x1d6>
    3db6:	076b      	lsls	r3, r5, #29
    3db8:	d004      	beq.n	3dc4 <__aeabi_fmul+0x198>
    3dba:	230f      	movs	r3, #15
    3dbc:	402b      	ands	r3, r5
    3dbe:	2b04      	cmp	r3, #4
    3dc0:	d000      	beq.n	3dc4 <__aeabi_fmul+0x198>
    3dc2:	3504      	adds	r5, #4
    3dc4:	012b      	lsls	r3, r5, #4
    3dc6:	d503      	bpl.n	3dd0 <__aeabi_fmul+0x1a4>
    3dc8:	0032      	movs	r2, r6
    3dca:	4b27      	ldr	r3, [pc, #156]	; (3e68 <__aeabi_fmul+0x23c>)
    3dcc:	3280      	adds	r2, #128	; 0x80
    3dce:	401d      	ands	r5, r3
    3dd0:	2afe      	cmp	r2, #254	; 0xfe
    3dd2:	dc94      	bgt.n	3cfe <__aeabi_fmul+0xd2>
    3dd4:	2401      	movs	r4, #1
    3dd6:	01a8      	lsls	r0, r5, #6
    3dd8:	0a40      	lsrs	r0, r0, #9
    3dda:	b2d2      	uxtb	r2, r2
    3ddc:	400c      	ands	r4, r1
    3dde:	e76f      	b.n	3cc0 <__aeabi_fmul+0x94>
    3de0:	2080      	movs	r0, #128	; 0x80
    3de2:	03c0      	lsls	r0, r0, #15
    3de4:	4207      	tst	r7, r0
    3de6:	d007      	beq.n	3df8 <__aeabi_fmul+0x1cc>
    3de8:	4205      	tst	r5, r0
    3dea:	d105      	bne.n	3df8 <__aeabi_fmul+0x1cc>
    3dec:	4328      	orrs	r0, r5
    3dee:	0240      	lsls	r0, r0, #9
    3df0:	0a40      	lsrs	r0, r0, #9
    3df2:	4644      	mov	r4, r8
    3df4:	22ff      	movs	r2, #255	; 0xff
    3df6:	e763      	b.n	3cc0 <__aeabi_fmul+0x94>
    3df8:	4338      	orrs	r0, r7
    3dfa:	0240      	lsls	r0, r0, #9
    3dfc:	0a40      	lsrs	r0, r0, #9
    3dfe:	22ff      	movs	r2, #255	; 0xff
    3e00:	e75e      	b.n	3cc0 <__aeabi_fmul+0x94>
    3e02:	2401      	movs	r4, #1
    3e04:	1aa3      	subs	r3, r4, r2
    3e06:	2b1b      	cmp	r3, #27
    3e08:	dd05      	ble.n	3e16 <__aeabi_fmul+0x1ea>
    3e0a:	400c      	ands	r4, r1
    3e0c:	2200      	movs	r2, #0
    3e0e:	2000      	movs	r0, #0
    3e10:	e756      	b.n	3cc0 <__aeabi_fmul+0x94>
    3e12:	465e      	mov	r6, fp
    3e14:	e7cb      	b.n	3dae <__aeabi_fmul+0x182>
    3e16:	002a      	movs	r2, r5
    3e18:	2020      	movs	r0, #32
    3e1a:	40da      	lsrs	r2, r3
    3e1c:	1ac3      	subs	r3, r0, r3
    3e1e:	409d      	lsls	r5, r3
    3e20:	002b      	movs	r3, r5
    3e22:	1e5d      	subs	r5, r3, #1
    3e24:	41ab      	sbcs	r3, r5
    3e26:	4313      	orrs	r3, r2
    3e28:	075a      	lsls	r2, r3, #29
    3e2a:	d004      	beq.n	3e36 <__aeabi_fmul+0x20a>
    3e2c:	220f      	movs	r2, #15
    3e2e:	401a      	ands	r2, r3
    3e30:	2a04      	cmp	r2, #4
    3e32:	d000      	beq.n	3e36 <__aeabi_fmul+0x20a>
    3e34:	3304      	adds	r3, #4
    3e36:	015a      	lsls	r2, r3, #5
    3e38:	d504      	bpl.n	3e44 <__aeabi_fmul+0x218>
    3e3a:	2401      	movs	r4, #1
    3e3c:	2201      	movs	r2, #1
    3e3e:	400c      	ands	r4, r1
    3e40:	2000      	movs	r0, #0
    3e42:	e73d      	b.n	3cc0 <__aeabi_fmul+0x94>
    3e44:	2401      	movs	r4, #1
    3e46:	019b      	lsls	r3, r3, #6
    3e48:	0a58      	lsrs	r0, r3, #9
    3e4a:	400c      	ands	r4, r1
    3e4c:	2200      	movs	r2, #0
    3e4e:	e737      	b.n	3cc0 <__aeabi_fmul+0x94>
    3e50:	2080      	movs	r0, #128	; 0x80
    3e52:	2401      	movs	r4, #1
    3e54:	03c0      	lsls	r0, r0, #15
    3e56:	4328      	orrs	r0, r5
    3e58:	0240      	lsls	r0, r0, #9
    3e5a:	0a40      	lsrs	r0, r0, #9
    3e5c:	400c      	ands	r4, r1
    3e5e:	22ff      	movs	r2, #255	; 0xff
    3e60:	e72e      	b.n	3cc0 <__aeabi_fmul+0x94>
    3e62:	46c0      	nop			; (mov r8, r8)
    3e64:	000062a0 	.word	0x000062a0
    3e68:	f7ffffff 	.word	0xf7ffffff

00003e6c <__aeabi_fsub>:
    3e6c:	b5f0      	push	{r4, r5, r6, r7, lr}
    3e6e:	464f      	mov	r7, r9
    3e70:	46d6      	mov	lr, sl
    3e72:	4646      	mov	r6, r8
    3e74:	0044      	lsls	r4, r0, #1
    3e76:	b5c0      	push	{r6, r7, lr}
    3e78:	0fc2      	lsrs	r2, r0, #31
    3e7a:	0247      	lsls	r7, r0, #9
    3e7c:	0248      	lsls	r0, r1, #9
    3e7e:	0a40      	lsrs	r0, r0, #9
    3e80:	4684      	mov	ip, r0
    3e82:	4666      	mov	r6, ip
    3e84:	0a7b      	lsrs	r3, r7, #9
    3e86:	0048      	lsls	r0, r1, #1
    3e88:	0fc9      	lsrs	r1, r1, #31
    3e8a:	469a      	mov	sl, r3
    3e8c:	0e24      	lsrs	r4, r4, #24
    3e8e:	0015      	movs	r5, r2
    3e90:	00db      	lsls	r3, r3, #3
    3e92:	0e00      	lsrs	r0, r0, #24
    3e94:	4689      	mov	r9, r1
    3e96:	00f6      	lsls	r6, r6, #3
    3e98:	28ff      	cmp	r0, #255	; 0xff
    3e9a:	d100      	bne.n	3e9e <__aeabi_fsub+0x32>
    3e9c:	e08f      	b.n	3fbe <__aeabi_fsub+0x152>
    3e9e:	2101      	movs	r1, #1
    3ea0:	464f      	mov	r7, r9
    3ea2:	404f      	eors	r7, r1
    3ea4:	0039      	movs	r1, r7
    3ea6:	4291      	cmp	r1, r2
    3ea8:	d066      	beq.n	3f78 <__aeabi_fsub+0x10c>
    3eaa:	1a22      	subs	r2, r4, r0
    3eac:	2a00      	cmp	r2, #0
    3eae:	dc00      	bgt.n	3eb2 <__aeabi_fsub+0x46>
    3eb0:	e09d      	b.n	3fee <__aeabi_fsub+0x182>
    3eb2:	2800      	cmp	r0, #0
    3eb4:	d13d      	bne.n	3f32 <__aeabi_fsub+0xc6>
    3eb6:	2e00      	cmp	r6, #0
    3eb8:	d100      	bne.n	3ebc <__aeabi_fsub+0x50>
    3eba:	e08b      	b.n	3fd4 <__aeabi_fsub+0x168>
    3ebc:	1e51      	subs	r1, r2, #1
    3ebe:	2900      	cmp	r1, #0
    3ec0:	d000      	beq.n	3ec4 <__aeabi_fsub+0x58>
    3ec2:	e0b5      	b.n	4030 <__aeabi_fsub+0x1c4>
    3ec4:	2401      	movs	r4, #1
    3ec6:	1b9b      	subs	r3, r3, r6
    3ec8:	015a      	lsls	r2, r3, #5
    3eca:	d544      	bpl.n	3f56 <__aeabi_fsub+0xea>
    3ecc:	019b      	lsls	r3, r3, #6
    3ece:	099f      	lsrs	r7, r3, #6
    3ed0:	0038      	movs	r0, r7
    3ed2:	f002 f8e7 	bl	60a4 <__clzsi2>
    3ed6:	3805      	subs	r0, #5
    3ed8:	4087      	lsls	r7, r0
    3eda:	4284      	cmp	r4, r0
    3edc:	dd00      	ble.n	3ee0 <__aeabi_fsub+0x74>
    3ede:	e096      	b.n	400e <__aeabi_fsub+0x1a2>
    3ee0:	1b04      	subs	r4, r0, r4
    3ee2:	003a      	movs	r2, r7
    3ee4:	2020      	movs	r0, #32
    3ee6:	3401      	adds	r4, #1
    3ee8:	40e2      	lsrs	r2, r4
    3eea:	1b04      	subs	r4, r0, r4
    3eec:	40a7      	lsls	r7, r4
    3eee:	003b      	movs	r3, r7
    3ef0:	1e5f      	subs	r7, r3, #1
    3ef2:	41bb      	sbcs	r3, r7
    3ef4:	2400      	movs	r4, #0
    3ef6:	4313      	orrs	r3, r2
    3ef8:	075a      	lsls	r2, r3, #29
    3efa:	d004      	beq.n	3f06 <__aeabi_fsub+0x9a>
    3efc:	220f      	movs	r2, #15
    3efe:	401a      	ands	r2, r3
    3f00:	2a04      	cmp	r2, #4
    3f02:	d000      	beq.n	3f06 <__aeabi_fsub+0x9a>
    3f04:	3304      	adds	r3, #4
    3f06:	015a      	lsls	r2, r3, #5
    3f08:	d527      	bpl.n	3f5a <__aeabi_fsub+0xee>
    3f0a:	3401      	adds	r4, #1
    3f0c:	2cff      	cmp	r4, #255	; 0xff
    3f0e:	d100      	bne.n	3f12 <__aeabi_fsub+0xa6>
    3f10:	e079      	b.n	4006 <__aeabi_fsub+0x19a>
    3f12:	2201      	movs	r2, #1
    3f14:	019b      	lsls	r3, r3, #6
    3f16:	0a5b      	lsrs	r3, r3, #9
    3f18:	b2e4      	uxtb	r4, r4
    3f1a:	402a      	ands	r2, r5
    3f1c:	025b      	lsls	r3, r3, #9
    3f1e:	05e4      	lsls	r4, r4, #23
    3f20:	0a58      	lsrs	r0, r3, #9
    3f22:	07d2      	lsls	r2, r2, #31
    3f24:	4320      	orrs	r0, r4
    3f26:	4310      	orrs	r0, r2
    3f28:	bc1c      	pop	{r2, r3, r4}
    3f2a:	4690      	mov	r8, r2
    3f2c:	4699      	mov	r9, r3
    3f2e:	46a2      	mov	sl, r4
    3f30:	bdf0      	pop	{r4, r5, r6, r7, pc}
    3f32:	2cff      	cmp	r4, #255	; 0xff
    3f34:	d0e0      	beq.n	3ef8 <__aeabi_fsub+0x8c>
    3f36:	2180      	movs	r1, #128	; 0x80
    3f38:	04c9      	lsls	r1, r1, #19
    3f3a:	430e      	orrs	r6, r1
    3f3c:	2a1b      	cmp	r2, #27
    3f3e:	dc7b      	bgt.n	4038 <__aeabi_fsub+0x1cc>
    3f40:	0031      	movs	r1, r6
    3f42:	2020      	movs	r0, #32
    3f44:	40d1      	lsrs	r1, r2
    3f46:	1a82      	subs	r2, r0, r2
    3f48:	4096      	lsls	r6, r2
    3f4a:	1e72      	subs	r2, r6, #1
    3f4c:	4196      	sbcs	r6, r2
    3f4e:	430e      	orrs	r6, r1
    3f50:	1b9b      	subs	r3, r3, r6
    3f52:	015a      	lsls	r2, r3, #5
    3f54:	d4ba      	bmi.n	3ecc <__aeabi_fsub+0x60>
    3f56:	075a      	lsls	r2, r3, #29
    3f58:	d1d0      	bne.n	3efc <__aeabi_fsub+0x90>
    3f5a:	2201      	movs	r2, #1
    3f5c:	08df      	lsrs	r7, r3, #3
    3f5e:	402a      	ands	r2, r5
    3f60:	2cff      	cmp	r4, #255	; 0xff
    3f62:	d133      	bne.n	3fcc <__aeabi_fsub+0x160>
    3f64:	2f00      	cmp	r7, #0
    3f66:	d100      	bne.n	3f6a <__aeabi_fsub+0xfe>
    3f68:	e0a8      	b.n	40bc <__aeabi_fsub+0x250>
    3f6a:	2380      	movs	r3, #128	; 0x80
    3f6c:	03db      	lsls	r3, r3, #15
    3f6e:	433b      	orrs	r3, r7
    3f70:	025b      	lsls	r3, r3, #9
    3f72:	0a5b      	lsrs	r3, r3, #9
    3f74:	24ff      	movs	r4, #255	; 0xff
    3f76:	e7d1      	b.n	3f1c <__aeabi_fsub+0xb0>
    3f78:	1a21      	subs	r1, r4, r0
    3f7a:	2900      	cmp	r1, #0
    3f7c:	dd4c      	ble.n	4018 <__aeabi_fsub+0x1ac>
    3f7e:	2800      	cmp	r0, #0
    3f80:	d02a      	beq.n	3fd8 <__aeabi_fsub+0x16c>
    3f82:	2cff      	cmp	r4, #255	; 0xff
    3f84:	d0b8      	beq.n	3ef8 <__aeabi_fsub+0x8c>
    3f86:	2080      	movs	r0, #128	; 0x80
    3f88:	04c0      	lsls	r0, r0, #19
    3f8a:	4306      	orrs	r6, r0
    3f8c:	291b      	cmp	r1, #27
    3f8e:	dd00      	ble.n	3f92 <__aeabi_fsub+0x126>
    3f90:	e0af      	b.n	40f2 <__aeabi_fsub+0x286>
    3f92:	0030      	movs	r0, r6
    3f94:	2720      	movs	r7, #32
    3f96:	40c8      	lsrs	r0, r1
    3f98:	1a79      	subs	r1, r7, r1
    3f9a:	408e      	lsls	r6, r1
    3f9c:	1e71      	subs	r1, r6, #1
    3f9e:	418e      	sbcs	r6, r1
    3fa0:	4306      	orrs	r6, r0
    3fa2:	199b      	adds	r3, r3, r6
    3fa4:	0159      	lsls	r1, r3, #5
    3fa6:	d5d6      	bpl.n	3f56 <__aeabi_fsub+0xea>
    3fa8:	3401      	adds	r4, #1
    3faa:	2cff      	cmp	r4, #255	; 0xff
    3fac:	d100      	bne.n	3fb0 <__aeabi_fsub+0x144>
    3fae:	e085      	b.n	40bc <__aeabi_fsub+0x250>
    3fb0:	2201      	movs	r2, #1
    3fb2:	497a      	ldr	r1, [pc, #488]	; (419c <__aeabi_fsub+0x330>)
    3fb4:	401a      	ands	r2, r3
    3fb6:	085b      	lsrs	r3, r3, #1
    3fb8:	400b      	ands	r3, r1
    3fba:	4313      	orrs	r3, r2
    3fbc:	e79c      	b.n	3ef8 <__aeabi_fsub+0x8c>
    3fbe:	2e00      	cmp	r6, #0
    3fc0:	d000      	beq.n	3fc4 <__aeabi_fsub+0x158>
    3fc2:	e770      	b.n	3ea6 <__aeabi_fsub+0x3a>
    3fc4:	e76b      	b.n	3e9e <__aeabi_fsub+0x32>
    3fc6:	1e3b      	subs	r3, r7, #0
    3fc8:	d1c5      	bne.n	3f56 <__aeabi_fsub+0xea>
    3fca:	2200      	movs	r2, #0
    3fcc:	027b      	lsls	r3, r7, #9
    3fce:	0a5b      	lsrs	r3, r3, #9
    3fd0:	b2e4      	uxtb	r4, r4
    3fd2:	e7a3      	b.n	3f1c <__aeabi_fsub+0xb0>
    3fd4:	0014      	movs	r4, r2
    3fd6:	e78f      	b.n	3ef8 <__aeabi_fsub+0x8c>
    3fd8:	2e00      	cmp	r6, #0
    3fda:	d04d      	beq.n	4078 <__aeabi_fsub+0x20c>
    3fdc:	1e48      	subs	r0, r1, #1
    3fde:	2800      	cmp	r0, #0
    3fe0:	d157      	bne.n	4092 <__aeabi_fsub+0x226>
    3fe2:	199b      	adds	r3, r3, r6
    3fe4:	2401      	movs	r4, #1
    3fe6:	015a      	lsls	r2, r3, #5
    3fe8:	d5b5      	bpl.n	3f56 <__aeabi_fsub+0xea>
    3fea:	2402      	movs	r4, #2
    3fec:	e7e0      	b.n	3fb0 <__aeabi_fsub+0x144>
    3fee:	2a00      	cmp	r2, #0
    3ff0:	d125      	bne.n	403e <__aeabi_fsub+0x1d2>
    3ff2:	1c62      	adds	r2, r4, #1
    3ff4:	b2d2      	uxtb	r2, r2
    3ff6:	2a01      	cmp	r2, #1
    3ff8:	dd72      	ble.n	40e0 <__aeabi_fsub+0x274>
    3ffa:	1b9f      	subs	r7, r3, r6
    3ffc:	017a      	lsls	r2, r7, #5
    3ffe:	d535      	bpl.n	406c <__aeabi_fsub+0x200>
    4000:	1af7      	subs	r7, r6, r3
    4002:	000d      	movs	r5, r1
    4004:	e764      	b.n	3ed0 <__aeabi_fsub+0x64>
    4006:	2201      	movs	r2, #1
    4008:	2300      	movs	r3, #0
    400a:	402a      	ands	r2, r5
    400c:	e786      	b.n	3f1c <__aeabi_fsub+0xb0>
    400e:	003b      	movs	r3, r7
    4010:	4a63      	ldr	r2, [pc, #396]	; (41a0 <__aeabi_fsub+0x334>)
    4012:	1a24      	subs	r4, r4, r0
    4014:	4013      	ands	r3, r2
    4016:	e76f      	b.n	3ef8 <__aeabi_fsub+0x8c>
    4018:	2900      	cmp	r1, #0
    401a:	d16c      	bne.n	40f6 <__aeabi_fsub+0x28a>
    401c:	1c61      	adds	r1, r4, #1
    401e:	b2c8      	uxtb	r0, r1
    4020:	2801      	cmp	r0, #1
    4022:	dd4e      	ble.n	40c2 <__aeabi_fsub+0x256>
    4024:	29ff      	cmp	r1, #255	; 0xff
    4026:	d049      	beq.n	40bc <__aeabi_fsub+0x250>
    4028:	199b      	adds	r3, r3, r6
    402a:	085b      	lsrs	r3, r3, #1
    402c:	000c      	movs	r4, r1
    402e:	e763      	b.n	3ef8 <__aeabi_fsub+0x8c>
    4030:	2aff      	cmp	r2, #255	; 0xff
    4032:	d041      	beq.n	40b8 <__aeabi_fsub+0x24c>
    4034:	000a      	movs	r2, r1
    4036:	e781      	b.n	3f3c <__aeabi_fsub+0xd0>
    4038:	2601      	movs	r6, #1
    403a:	1b9b      	subs	r3, r3, r6
    403c:	e789      	b.n	3f52 <__aeabi_fsub+0xe6>
    403e:	2c00      	cmp	r4, #0
    4040:	d01c      	beq.n	407c <__aeabi_fsub+0x210>
    4042:	28ff      	cmp	r0, #255	; 0xff
    4044:	d021      	beq.n	408a <__aeabi_fsub+0x21e>
    4046:	2480      	movs	r4, #128	; 0x80
    4048:	04e4      	lsls	r4, r4, #19
    404a:	4252      	negs	r2, r2
    404c:	4323      	orrs	r3, r4
    404e:	2a1b      	cmp	r2, #27
    4050:	dd00      	ble.n	4054 <__aeabi_fsub+0x1e8>
    4052:	e096      	b.n	4182 <__aeabi_fsub+0x316>
    4054:	001c      	movs	r4, r3
    4056:	2520      	movs	r5, #32
    4058:	40d4      	lsrs	r4, r2
    405a:	1aaa      	subs	r2, r5, r2
    405c:	4093      	lsls	r3, r2
    405e:	1e5a      	subs	r2, r3, #1
    4060:	4193      	sbcs	r3, r2
    4062:	4323      	orrs	r3, r4
    4064:	1af3      	subs	r3, r6, r3
    4066:	0004      	movs	r4, r0
    4068:	000d      	movs	r5, r1
    406a:	e72d      	b.n	3ec8 <__aeabi_fsub+0x5c>
    406c:	2f00      	cmp	r7, #0
    406e:	d000      	beq.n	4072 <__aeabi_fsub+0x206>
    4070:	e72e      	b.n	3ed0 <__aeabi_fsub+0x64>
    4072:	2200      	movs	r2, #0
    4074:	2400      	movs	r4, #0
    4076:	e7a9      	b.n	3fcc <__aeabi_fsub+0x160>
    4078:	000c      	movs	r4, r1
    407a:	e73d      	b.n	3ef8 <__aeabi_fsub+0x8c>
    407c:	2b00      	cmp	r3, #0
    407e:	d058      	beq.n	4132 <__aeabi_fsub+0x2c6>
    4080:	43d2      	mvns	r2, r2
    4082:	2a00      	cmp	r2, #0
    4084:	d0ee      	beq.n	4064 <__aeabi_fsub+0x1f8>
    4086:	28ff      	cmp	r0, #255	; 0xff
    4088:	d1e1      	bne.n	404e <__aeabi_fsub+0x1e2>
    408a:	0033      	movs	r3, r6
    408c:	24ff      	movs	r4, #255	; 0xff
    408e:	000d      	movs	r5, r1
    4090:	e732      	b.n	3ef8 <__aeabi_fsub+0x8c>
    4092:	29ff      	cmp	r1, #255	; 0xff
    4094:	d010      	beq.n	40b8 <__aeabi_fsub+0x24c>
    4096:	0001      	movs	r1, r0
    4098:	e778      	b.n	3f8c <__aeabi_fsub+0x120>
    409a:	2b00      	cmp	r3, #0
    409c:	d06e      	beq.n	417c <__aeabi_fsub+0x310>
    409e:	24ff      	movs	r4, #255	; 0xff
    40a0:	2e00      	cmp	r6, #0
    40a2:	d100      	bne.n	40a6 <__aeabi_fsub+0x23a>
    40a4:	e728      	b.n	3ef8 <__aeabi_fsub+0x8c>
    40a6:	2280      	movs	r2, #128	; 0x80
    40a8:	4651      	mov	r1, sl
    40aa:	03d2      	lsls	r2, r2, #15
    40ac:	4211      	tst	r1, r2
    40ae:	d003      	beq.n	40b8 <__aeabi_fsub+0x24c>
    40b0:	4661      	mov	r1, ip
    40b2:	4211      	tst	r1, r2
    40b4:	d100      	bne.n	40b8 <__aeabi_fsub+0x24c>
    40b6:	0033      	movs	r3, r6
    40b8:	24ff      	movs	r4, #255	; 0xff
    40ba:	e71d      	b.n	3ef8 <__aeabi_fsub+0x8c>
    40bc:	24ff      	movs	r4, #255	; 0xff
    40be:	2300      	movs	r3, #0
    40c0:	e72c      	b.n	3f1c <__aeabi_fsub+0xb0>
    40c2:	2c00      	cmp	r4, #0
    40c4:	d1e9      	bne.n	409a <__aeabi_fsub+0x22e>
    40c6:	2b00      	cmp	r3, #0
    40c8:	d063      	beq.n	4192 <__aeabi_fsub+0x326>
    40ca:	2e00      	cmp	r6, #0
    40cc:	d100      	bne.n	40d0 <__aeabi_fsub+0x264>
    40ce:	e713      	b.n	3ef8 <__aeabi_fsub+0x8c>
    40d0:	199b      	adds	r3, r3, r6
    40d2:	015a      	lsls	r2, r3, #5
    40d4:	d400      	bmi.n	40d8 <__aeabi_fsub+0x26c>
    40d6:	e73e      	b.n	3f56 <__aeabi_fsub+0xea>
    40d8:	4a31      	ldr	r2, [pc, #196]	; (41a0 <__aeabi_fsub+0x334>)
    40da:	000c      	movs	r4, r1
    40dc:	4013      	ands	r3, r2
    40de:	e70b      	b.n	3ef8 <__aeabi_fsub+0x8c>
    40e0:	2c00      	cmp	r4, #0
    40e2:	d11e      	bne.n	4122 <__aeabi_fsub+0x2b6>
    40e4:	2b00      	cmp	r3, #0
    40e6:	d12f      	bne.n	4148 <__aeabi_fsub+0x2dc>
    40e8:	2e00      	cmp	r6, #0
    40ea:	d04f      	beq.n	418c <__aeabi_fsub+0x320>
    40ec:	0033      	movs	r3, r6
    40ee:	000d      	movs	r5, r1
    40f0:	e702      	b.n	3ef8 <__aeabi_fsub+0x8c>
    40f2:	2601      	movs	r6, #1
    40f4:	e755      	b.n	3fa2 <__aeabi_fsub+0x136>
    40f6:	2c00      	cmp	r4, #0
    40f8:	d11f      	bne.n	413a <__aeabi_fsub+0x2ce>
    40fa:	2b00      	cmp	r3, #0
    40fc:	d043      	beq.n	4186 <__aeabi_fsub+0x31a>
    40fe:	43c9      	mvns	r1, r1
    4100:	2900      	cmp	r1, #0
    4102:	d00b      	beq.n	411c <__aeabi_fsub+0x2b0>
    4104:	28ff      	cmp	r0, #255	; 0xff
    4106:	d039      	beq.n	417c <__aeabi_fsub+0x310>
    4108:	291b      	cmp	r1, #27
    410a:	dc44      	bgt.n	4196 <__aeabi_fsub+0x32a>
    410c:	001c      	movs	r4, r3
    410e:	2720      	movs	r7, #32
    4110:	40cc      	lsrs	r4, r1
    4112:	1a79      	subs	r1, r7, r1
    4114:	408b      	lsls	r3, r1
    4116:	1e59      	subs	r1, r3, #1
    4118:	418b      	sbcs	r3, r1
    411a:	4323      	orrs	r3, r4
    411c:	199b      	adds	r3, r3, r6
    411e:	0004      	movs	r4, r0
    4120:	e740      	b.n	3fa4 <__aeabi_fsub+0x138>
    4122:	2b00      	cmp	r3, #0
    4124:	d11a      	bne.n	415c <__aeabi_fsub+0x2f0>
    4126:	2e00      	cmp	r6, #0
    4128:	d124      	bne.n	4174 <__aeabi_fsub+0x308>
    412a:	2780      	movs	r7, #128	; 0x80
    412c:	2200      	movs	r2, #0
    412e:	03ff      	lsls	r7, r7, #15
    4130:	e71b      	b.n	3f6a <__aeabi_fsub+0xfe>
    4132:	0033      	movs	r3, r6
    4134:	0004      	movs	r4, r0
    4136:	000d      	movs	r5, r1
    4138:	e6de      	b.n	3ef8 <__aeabi_fsub+0x8c>
    413a:	28ff      	cmp	r0, #255	; 0xff
    413c:	d01e      	beq.n	417c <__aeabi_fsub+0x310>
    413e:	2480      	movs	r4, #128	; 0x80
    4140:	04e4      	lsls	r4, r4, #19
    4142:	4249      	negs	r1, r1
    4144:	4323      	orrs	r3, r4
    4146:	e7df      	b.n	4108 <__aeabi_fsub+0x29c>
    4148:	2e00      	cmp	r6, #0
    414a:	d100      	bne.n	414e <__aeabi_fsub+0x2e2>
    414c:	e6d4      	b.n	3ef8 <__aeabi_fsub+0x8c>
    414e:	1b9f      	subs	r7, r3, r6
    4150:	017a      	lsls	r2, r7, #5
    4152:	d400      	bmi.n	4156 <__aeabi_fsub+0x2ea>
    4154:	e737      	b.n	3fc6 <__aeabi_fsub+0x15a>
    4156:	1af3      	subs	r3, r6, r3
    4158:	000d      	movs	r5, r1
    415a:	e6cd      	b.n	3ef8 <__aeabi_fsub+0x8c>
    415c:	24ff      	movs	r4, #255	; 0xff
    415e:	2e00      	cmp	r6, #0
    4160:	d100      	bne.n	4164 <__aeabi_fsub+0x2f8>
    4162:	e6c9      	b.n	3ef8 <__aeabi_fsub+0x8c>
    4164:	2280      	movs	r2, #128	; 0x80
    4166:	4650      	mov	r0, sl
    4168:	03d2      	lsls	r2, r2, #15
    416a:	4210      	tst	r0, r2
    416c:	d0a4      	beq.n	40b8 <__aeabi_fsub+0x24c>
    416e:	4660      	mov	r0, ip
    4170:	4210      	tst	r0, r2
    4172:	d1a1      	bne.n	40b8 <__aeabi_fsub+0x24c>
    4174:	0033      	movs	r3, r6
    4176:	000d      	movs	r5, r1
    4178:	24ff      	movs	r4, #255	; 0xff
    417a:	e6bd      	b.n	3ef8 <__aeabi_fsub+0x8c>
    417c:	0033      	movs	r3, r6
    417e:	24ff      	movs	r4, #255	; 0xff
    4180:	e6ba      	b.n	3ef8 <__aeabi_fsub+0x8c>
    4182:	2301      	movs	r3, #1
    4184:	e76e      	b.n	4064 <__aeabi_fsub+0x1f8>
    4186:	0033      	movs	r3, r6
    4188:	0004      	movs	r4, r0
    418a:	e6b5      	b.n	3ef8 <__aeabi_fsub+0x8c>
    418c:	2700      	movs	r7, #0
    418e:	2200      	movs	r2, #0
    4190:	e71c      	b.n	3fcc <__aeabi_fsub+0x160>
    4192:	0033      	movs	r3, r6
    4194:	e6b0      	b.n	3ef8 <__aeabi_fsub+0x8c>
    4196:	2301      	movs	r3, #1
    4198:	e7c0      	b.n	411c <__aeabi_fsub+0x2b0>
    419a:	46c0      	nop			; (mov r8, r8)
    419c:	7dffffff 	.word	0x7dffffff
    41a0:	fbffffff 	.word	0xfbffffff

000041a4 <__aeabi_f2iz>:
    41a4:	0241      	lsls	r1, r0, #9
    41a6:	0043      	lsls	r3, r0, #1
    41a8:	0fc2      	lsrs	r2, r0, #31
    41aa:	0a49      	lsrs	r1, r1, #9
    41ac:	0e1b      	lsrs	r3, r3, #24
    41ae:	2000      	movs	r0, #0
    41b0:	2b7e      	cmp	r3, #126	; 0x7e
    41b2:	dd0d      	ble.n	41d0 <__aeabi_f2iz+0x2c>
    41b4:	2b9d      	cmp	r3, #157	; 0x9d
    41b6:	dc0c      	bgt.n	41d2 <__aeabi_f2iz+0x2e>
    41b8:	2080      	movs	r0, #128	; 0x80
    41ba:	0400      	lsls	r0, r0, #16
    41bc:	4301      	orrs	r1, r0
    41be:	2b95      	cmp	r3, #149	; 0x95
    41c0:	dc0a      	bgt.n	41d8 <__aeabi_f2iz+0x34>
    41c2:	2096      	movs	r0, #150	; 0x96
    41c4:	1ac3      	subs	r3, r0, r3
    41c6:	40d9      	lsrs	r1, r3
    41c8:	4248      	negs	r0, r1
    41ca:	2a00      	cmp	r2, #0
    41cc:	d100      	bne.n	41d0 <__aeabi_f2iz+0x2c>
    41ce:	0008      	movs	r0, r1
    41d0:	4770      	bx	lr
    41d2:	4b03      	ldr	r3, [pc, #12]	; (41e0 <__aeabi_f2iz+0x3c>)
    41d4:	18d0      	adds	r0, r2, r3
    41d6:	e7fb      	b.n	41d0 <__aeabi_f2iz+0x2c>
    41d8:	3b96      	subs	r3, #150	; 0x96
    41da:	4099      	lsls	r1, r3
    41dc:	e7f4      	b.n	41c8 <__aeabi_f2iz+0x24>
    41de:	46c0      	nop			; (mov r8, r8)
    41e0:	7fffffff 	.word	0x7fffffff

000041e4 <__aeabi_i2f>:
    41e4:	b570      	push	{r4, r5, r6, lr}
    41e6:	2800      	cmp	r0, #0
    41e8:	d030      	beq.n	424c <__aeabi_i2f+0x68>
    41ea:	17c3      	asrs	r3, r0, #31
    41ec:	18c4      	adds	r4, r0, r3
    41ee:	405c      	eors	r4, r3
    41f0:	0fc5      	lsrs	r5, r0, #31
    41f2:	0020      	movs	r0, r4
    41f4:	f001 ff56 	bl	60a4 <__clzsi2>
    41f8:	239e      	movs	r3, #158	; 0x9e
    41fa:	1a1b      	subs	r3, r3, r0
    41fc:	2b96      	cmp	r3, #150	; 0x96
    41fe:	dc0d      	bgt.n	421c <__aeabi_i2f+0x38>
    4200:	2296      	movs	r2, #150	; 0x96
    4202:	1ad2      	subs	r2, r2, r3
    4204:	4094      	lsls	r4, r2
    4206:	002a      	movs	r2, r5
    4208:	0264      	lsls	r4, r4, #9
    420a:	0a64      	lsrs	r4, r4, #9
    420c:	b2db      	uxtb	r3, r3
    420e:	0264      	lsls	r4, r4, #9
    4210:	05db      	lsls	r3, r3, #23
    4212:	0a60      	lsrs	r0, r4, #9
    4214:	07d2      	lsls	r2, r2, #31
    4216:	4318      	orrs	r0, r3
    4218:	4310      	orrs	r0, r2
    421a:	bd70      	pop	{r4, r5, r6, pc}
    421c:	2b99      	cmp	r3, #153	; 0x99
    421e:	dc19      	bgt.n	4254 <__aeabi_i2f+0x70>
    4220:	2299      	movs	r2, #153	; 0x99
    4222:	1ad2      	subs	r2, r2, r3
    4224:	2a00      	cmp	r2, #0
    4226:	dd29      	ble.n	427c <__aeabi_i2f+0x98>
    4228:	4094      	lsls	r4, r2
    422a:	0022      	movs	r2, r4
    422c:	4c14      	ldr	r4, [pc, #80]	; (4280 <__aeabi_i2f+0x9c>)
    422e:	4014      	ands	r4, r2
    4230:	0751      	lsls	r1, r2, #29
    4232:	d004      	beq.n	423e <__aeabi_i2f+0x5a>
    4234:	210f      	movs	r1, #15
    4236:	400a      	ands	r2, r1
    4238:	2a04      	cmp	r2, #4
    423a:	d000      	beq.n	423e <__aeabi_i2f+0x5a>
    423c:	3404      	adds	r4, #4
    423e:	0162      	lsls	r2, r4, #5
    4240:	d413      	bmi.n	426a <__aeabi_i2f+0x86>
    4242:	01a4      	lsls	r4, r4, #6
    4244:	0a64      	lsrs	r4, r4, #9
    4246:	b2db      	uxtb	r3, r3
    4248:	002a      	movs	r2, r5
    424a:	e7e0      	b.n	420e <__aeabi_i2f+0x2a>
    424c:	2200      	movs	r2, #0
    424e:	2300      	movs	r3, #0
    4250:	2400      	movs	r4, #0
    4252:	e7dc      	b.n	420e <__aeabi_i2f+0x2a>
    4254:	2205      	movs	r2, #5
    4256:	0021      	movs	r1, r4
    4258:	1a12      	subs	r2, r2, r0
    425a:	40d1      	lsrs	r1, r2
    425c:	22b9      	movs	r2, #185	; 0xb9
    425e:	1ad2      	subs	r2, r2, r3
    4260:	4094      	lsls	r4, r2
    4262:	1e62      	subs	r2, r4, #1
    4264:	4194      	sbcs	r4, r2
    4266:	430c      	orrs	r4, r1
    4268:	e7da      	b.n	4220 <__aeabi_i2f+0x3c>
    426a:	4b05      	ldr	r3, [pc, #20]	; (4280 <__aeabi_i2f+0x9c>)
    426c:	002a      	movs	r2, r5
    426e:	401c      	ands	r4, r3
    4270:	239f      	movs	r3, #159	; 0x9f
    4272:	01a4      	lsls	r4, r4, #6
    4274:	1a1b      	subs	r3, r3, r0
    4276:	0a64      	lsrs	r4, r4, #9
    4278:	b2db      	uxtb	r3, r3
    427a:	e7c8      	b.n	420e <__aeabi_i2f+0x2a>
    427c:	0022      	movs	r2, r4
    427e:	e7d5      	b.n	422c <__aeabi_i2f+0x48>
    4280:	fbffffff 	.word	0xfbffffff

00004284 <__aeabi_dadd>:
    4284:	b5f8      	push	{r3, r4, r5, r6, r7, lr}
    4286:	4645      	mov	r5, r8
    4288:	46de      	mov	lr, fp
    428a:	4657      	mov	r7, sl
    428c:	464e      	mov	r6, r9
    428e:	030c      	lsls	r4, r1, #12
    4290:	b5e0      	push	{r5, r6, r7, lr}
    4292:	004e      	lsls	r6, r1, #1
    4294:	0fc9      	lsrs	r1, r1, #31
    4296:	4688      	mov	r8, r1
    4298:	000d      	movs	r5, r1
    429a:	0a61      	lsrs	r1, r4, #9
    429c:	0f44      	lsrs	r4, r0, #29
    429e:	430c      	orrs	r4, r1
    42a0:	00c7      	lsls	r7, r0, #3
    42a2:	0319      	lsls	r1, r3, #12
    42a4:	0058      	lsls	r0, r3, #1
    42a6:	0fdb      	lsrs	r3, r3, #31
    42a8:	469b      	mov	fp, r3
    42aa:	0a4b      	lsrs	r3, r1, #9
    42ac:	0f51      	lsrs	r1, r2, #29
    42ae:	430b      	orrs	r3, r1
    42b0:	0d76      	lsrs	r6, r6, #21
    42b2:	0d40      	lsrs	r0, r0, #21
    42b4:	0019      	movs	r1, r3
    42b6:	00d2      	lsls	r2, r2, #3
    42b8:	45d8      	cmp	r8, fp
    42ba:	d100      	bne.n	42be <__aeabi_dadd+0x3a>
    42bc:	e0ae      	b.n	441c <__aeabi_dadd+0x198>
    42be:	1a35      	subs	r5, r6, r0
    42c0:	2d00      	cmp	r5, #0
    42c2:	dc00      	bgt.n	42c6 <__aeabi_dadd+0x42>
    42c4:	e0f6      	b.n	44b4 <__aeabi_dadd+0x230>
    42c6:	2800      	cmp	r0, #0
    42c8:	d10f      	bne.n	42ea <__aeabi_dadd+0x66>
    42ca:	4313      	orrs	r3, r2
    42cc:	d100      	bne.n	42d0 <__aeabi_dadd+0x4c>
    42ce:	e0db      	b.n	4488 <__aeabi_dadd+0x204>
    42d0:	1e6b      	subs	r3, r5, #1
    42d2:	2b00      	cmp	r3, #0
    42d4:	d000      	beq.n	42d8 <__aeabi_dadd+0x54>
    42d6:	e137      	b.n	4548 <__aeabi_dadd+0x2c4>
    42d8:	1aba      	subs	r2, r7, r2
    42da:	4297      	cmp	r7, r2
    42dc:	41bf      	sbcs	r7, r7
    42de:	1a64      	subs	r4, r4, r1
    42e0:	427f      	negs	r7, r7
    42e2:	1be4      	subs	r4, r4, r7
    42e4:	2601      	movs	r6, #1
    42e6:	0017      	movs	r7, r2
    42e8:	e024      	b.n	4334 <__aeabi_dadd+0xb0>
    42ea:	4bc6      	ldr	r3, [pc, #792]	; (4604 <__aeabi_dadd+0x380>)
    42ec:	429e      	cmp	r6, r3
    42ee:	d04d      	beq.n	438c <__aeabi_dadd+0x108>
    42f0:	2380      	movs	r3, #128	; 0x80
    42f2:	041b      	lsls	r3, r3, #16
    42f4:	4319      	orrs	r1, r3
    42f6:	2d38      	cmp	r5, #56	; 0x38
    42f8:	dd00      	ble.n	42fc <__aeabi_dadd+0x78>
    42fa:	e107      	b.n	450c <__aeabi_dadd+0x288>
    42fc:	2d1f      	cmp	r5, #31
    42fe:	dd00      	ble.n	4302 <__aeabi_dadd+0x7e>
    4300:	e138      	b.n	4574 <__aeabi_dadd+0x2f0>
    4302:	2020      	movs	r0, #32
    4304:	1b43      	subs	r3, r0, r5
    4306:	469a      	mov	sl, r3
    4308:	000b      	movs	r3, r1
    430a:	4650      	mov	r0, sl
    430c:	4083      	lsls	r3, r0
    430e:	4699      	mov	r9, r3
    4310:	0013      	movs	r3, r2
    4312:	4648      	mov	r0, r9
    4314:	40eb      	lsrs	r3, r5
    4316:	4318      	orrs	r0, r3
    4318:	0003      	movs	r3, r0
    431a:	4650      	mov	r0, sl
    431c:	4082      	lsls	r2, r0
    431e:	1e50      	subs	r0, r2, #1
    4320:	4182      	sbcs	r2, r0
    4322:	40e9      	lsrs	r1, r5
    4324:	431a      	orrs	r2, r3
    4326:	1aba      	subs	r2, r7, r2
    4328:	1a61      	subs	r1, r4, r1
    432a:	4297      	cmp	r7, r2
    432c:	41a4      	sbcs	r4, r4
    432e:	0017      	movs	r7, r2
    4330:	4264      	negs	r4, r4
    4332:	1b0c      	subs	r4, r1, r4
    4334:	0223      	lsls	r3, r4, #8
    4336:	d562      	bpl.n	43fe <__aeabi_dadd+0x17a>
    4338:	0264      	lsls	r4, r4, #9
    433a:	0a65      	lsrs	r5, r4, #9
    433c:	2d00      	cmp	r5, #0
    433e:	d100      	bne.n	4342 <__aeabi_dadd+0xbe>
    4340:	e0df      	b.n	4502 <__aeabi_dadd+0x27e>
    4342:	0028      	movs	r0, r5
    4344:	f001 feae 	bl	60a4 <__clzsi2>
    4348:	0003      	movs	r3, r0
    434a:	3b08      	subs	r3, #8
    434c:	2b1f      	cmp	r3, #31
    434e:	dd00      	ble.n	4352 <__aeabi_dadd+0xce>
    4350:	e0d2      	b.n	44f8 <__aeabi_dadd+0x274>
    4352:	2220      	movs	r2, #32
    4354:	003c      	movs	r4, r7
    4356:	1ad2      	subs	r2, r2, r3
    4358:	409d      	lsls	r5, r3
    435a:	40d4      	lsrs	r4, r2
    435c:	409f      	lsls	r7, r3
    435e:	4325      	orrs	r5, r4
    4360:	429e      	cmp	r6, r3
    4362:	dd00      	ble.n	4366 <__aeabi_dadd+0xe2>
    4364:	e0c4      	b.n	44f0 <__aeabi_dadd+0x26c>
    4366:	1b9e      	subs	r6, r3, r6
    4368:	1c73      	adds	r3, r6, #1
    436a:	2b1f      	cmp	r3, #31
    436c:	dd00      	ble.n	4370 <__aeabi_dadd+0xec>
    436e:	e0f1      	b.n	4554 <__aeabi_dadd+0x2d0>
    4370:	2220      	movs	r2, #32
    4372:	0038      	movs	r0, r7
    4374:	0029      	movs	r1, r5
    4376:	1ad2      	subs	r2, r2, r3
    4378:	40d8      	lsrs	r0, r3
    437a:	4091      	lsls	r1, r2
    437c:	4097      	lsls	r7, r2
    437e:	002c      	movs	r4, r5
    4380:	4301      	orrs	r1, r0
    4382:	1e78      	subs	r0, r7, #1
    4384:	4187      	sbcs	r7, r0
    4386:	40dc      	lsrs	r4, r3
    4388:	2600      	movs	r6, #0
    438a:	430f      	orrs	r7, r1
    438c:	077b      	lsls	r3, r7, #29
    438e:	d009      	beq.n	43a4 <__aeabi_dadd+0x120>
    4390:	230f      	movs	r3, #15
    4392:	403b      	ands	r3, r7
    4394:	2b04      	cmp	r3, #4
    4396:	d005      	beq.n	43a4 <__aeabi_dadd+0x120>
    4398:	1d3b      	adds	r3, r7, #4
    439a:	42bb      	cmp	r3, r7
    439c:	41bf      	sbcs	r7, r7
    439e:	427f      	negs	r7, r7
    43a0:	19e4      	adds	r4, r4, r7
    43a2:	001f      	movs	r7, r3
    43a4:	0223      	lsls	r3, r4, #8
    43a6:	d52c      	bpl.n	4402 <__aeabi_dadd+0x17e>
    43a8:	4b96      	ldr	r3, [pc, #600]	; (4604 <__aeabi_dadd+0x380>)
    43aa:	3601      	adds	r6, #1
    43ac:	429e      	cmp	r6, r3
    43ae:	d100      	bne.n	43b2 <__aeabi_dadd+0x12e>
    43b0:	e09a      	b.n	44e8 <__aeabi_dadd+0x264>
    43b2:	4645      	mov	r5, r8
    43b4:	4b94      	ldr	r3, [pc, #592]	; (4608 <__aeabi_dadd+0x384>)
    43b6:	08ff      	lsrs	r7, r7, #3
    43b8:	401c      	ands	r4, r3
    43ba:	0760      	lsls	r0, r4, #29
    43bc:	0576      	lsls	r6, r6, #21
    43be:	0264      	lsls	r4, r4, #9
    43c0:	4307      	orrs	r7, r0
    43c2:	0b24      	lsrs	r4, r4, #12
    43c4:	0d76      	lsrs	r6, r6, #21
    43c6:	2100      	movs	r1, #0
    43c8:	0324      	lsls	r4, r4, #12
    43ca:	0b23      	lsrs	r3, r4, #12
    43cc:	0d0c      	lsrs	r4, r1, #20
    43ce:	4a8f      	ldr	r2, [pc, #572]	; (460c <__aeabi_dadd+0x388>)
    43d0:	0524      	lsls	r4, r4, #20
    43d2:	431c      	orrs	r4, r3
    43d4:	4014      	ands	r4, r2
    43d6:	0533      	lsls	r3, r6, #20
    43d8:	4323      	orrs	r3, r4
    43da:	005b      	lsls	r3, r3, #1
    43dc:	07ed      	lsls	r5, r5, #31
    43de:	085b      	lsrs	r3, r3, #1
    43e0:	432b      	orrs	r3, r5
    43e2:	0038      	movs	r0, r7
    43e4:	0019      	movs	r1, r3
    43e6:	bc3c      	pop	{r2, r3, r4, r5}
    43e8:	4690      	mov	r8, r2
    43ea:	4699      	mov	r9, r3
    43ec:	46a2      	mov	sl, r4
    43ee:	46ab      	mov	fp, r5
    43f0:	bdf8      	pop	{r3, r4, r5, r6, r7, pc}
    43f2:	4664      	mov	r4, ip
    43f4:	4304      	orrs	r4, r0
    43f6:	d100      	bne.n	43fa <__aeabi_dadd+0x176>
    43f8:	e211      	b.n	481e <__aeabi_dadd+0x59a>
    43fa:	0004      	movs	r4, r0
    43fc:	4667      	mov	r7, ip
    43fe:	077b      	lsls	r3, r7, #29
    4400:	d1c6      	bne.n	4390 <__aeabi_dadd+0x10c>
    4402:	4645      	mov	r5, r8
    4404:	0760      	lsls	r0, r4, #29
    4406:	08ff      	lsrs	r7, r7, #3
    4408:	4307      	orrs	r7, r0
    440a:	08e4      	lsrs	r4, r4, #3
    440c:	4b7d      	ldr	r3, [pc, #500]	; (4604 <__aeabi_dadd+0x380>)
    440e:	429e      	cmp	r6, r3
    4410:	d030      	beq.n	4474 <__aeabi_dadd+0x1f0>
    4412:	0324      	lsls	r4, r4, #12
    4414:	0576      	lsls	r6, r6, #21
    4416:	0b24      	lsrs	r4, r4, #12
    4418:	0d76      	lsrs	r6, r6, #21
    441a:	e7d4      	b.n	43c6 <__aeabi_dadd+0x142>
    441c:	1a33      	subs	r3, r6, r0
    441e:	469a      	mov	sl, r3
    4420:	2b00      	cmp	r3, #0
    4422:	dd78      	ble.n	4516 <__aeabi_dadd+0x292>
    4424:	2800      	cmp	r0, #0
    4426:	d031      	beq.n	448c <__aeabi_dadd+0x208>
    4428:	4876      	ldr	r0, [pc, #472]	; (4604 <__aeabi_dadd+0x380>)
    442a:	4286      	cmp	r6, r0
    442c:	d0ae      	beq.n	438c <__aeabi_dadd+0x108>
    442e:	2080      	movs	r0, #128	; 0x80
    4430:	0400      	lsls	r0, r0, #16
    4432:	4301      	orrs	r1, r0
    4434:	4653      	mov	r3, sl
    4436:	2b38      	cmp	r3, #56	; 0x38
    4438:	dc00      	bgt.n	443c <__aeabi_dadd+0x1b8>
    443a:	e0e9      	b.n	4610 <__aeabi_dadd+0x38c>
    443c:	430a      	orrs	r2, r1
    443e:	1e51      	subs	r1, r2, #1
    4440:	418a      	sbcs	r2, r1
    4442:	2100      	movs	r1, #0
    4444:	19d2      	adds	r2, r2, r7
    4446:	42ba      	cmp	r2, r7
    4448:	41bf      	sbcs	r7, r7
    444a:	1909      	adds	r1, r1, r4
    444c:	427c      	negs	r4, r7
    444e:	0017      	movs	r7, r2
    4450:	190c      	adds	r4, r1, r4
    4452:	0223      	lsls	r3, r4, #8
    4454:	d5d3      	bpl.n	43fe <__aeabi_dadd+0x17a>
    4456:	4b6b      	ldr	r3, [pc, #428]	; (4604 <__aeabi_dadd+0x380>)
    4458:	3601      	adds	r6, #1
    445a:	429e      	cmp	r6, r3
    445c:	d100      	bne.n	4460 <__aeabi_dadd+0x1dc>
    445e:	e13a      	b.n	46d6 <__aeabi_dadd+0x452>
    4460:	2001      	movs	r0, #1
    4462:	4b69      	ldr	r3, [pc, #420]	; (4608 <__aeabi_dadd+0x384>)
    4464:	401c      	ands	r4, r3
    4466:	087b      	lsrs	r3, r7, #1
    4468:	4007      	ands	r7, r0
    446a:	431f      	orrs	r7, r3
    446c:	07e0      	lsls	r0, r4, #31
    446e:	4307      	orrs	r7, r0
    4470:	0864      	lsrs	r4, r4, #1
    4472:	e78b      	b.n	438c <__aeabi_dadd+0x108>
    4474:	0023      	movs	r3, r4
    4476:	433b      	orrs	r3, r7
    4478:	d100      	bne.n	447c <__aeabi_dadd+0x1f8>
    447a:	e1cb      	b.n	4814 <__aeabi_dadd+0x590>
    447c:	2280      	movs	r2, #128	; 0x80
    447e:	0312      	lsls	r2, r2, #12
    4480:	4314      	orrs	r4, r2
    4482:	0324      	lsls	r4, r4, #12
    4484:	0b24      	lsrs	r4, r4, #12
    4486:	e79e      	b.n	43c6 <__aeabi_dadd+0x142>
    4488:	002e      	movs	r6, r5
    448a:	e77f      	b.n	438c <__aeabi_dadd+0x108>
    448c:	0008      	movs	r0, r1
    448e:	4310      	orrs	r0, r2
    4490:	d100      	bne.n	4494 <__aeabi_dadd+0x210>
    4492:	e0b4      	b.n	45fe <__aeabi_dadd+0x37a>
    4494:	1e58      	subs	r0, r3, #1
    4496:	2800      	cmp	r0, #0
    4498:	d000      	beq.n	449c <__aeabi_dadd+0x218>
    449a:	e0de      	b.n	465a <__aeabi_dadd+0x3d6>
    449c:	18ba      	adds	r2, r7, r2
    449e:	42ba      	cmp	r2, r7
    44a0:	419b      	sbcs	r3, r3
    44a2:	1864      	adds	r4, r4, r1
    44a4:	425b      	negs	r3, r3
    44a6:	18e4      	adds	r4, r4, r3
    44a8:	0017      	movs	r7, r2
    44aa:	2601      	movs	r6, #1
    44ac:	0223      	lsls	r3, r4, #8
    44ae:	d5a6      	bpl.n	43fe <__aeabi_dadd+0x17a>
    44b0:	2602      	movs	r6, #2
    44b2:	e7d5      	b.n	4460 <__aeabi_dadd+0x1dc>
    44b4:	2d00      	cmp	r5, #0
    44b6:	d16e      	bne.n	4596 <__aeabi_dadd+0x312>
    44b8:	1c70      	adds	r0, r6, #1
    44ba:	0540      	lsls	r0, r0, #21
    44bc:	0d40      	lsrs	r0, r0, #21
    44be:	2801      	cmp	r0, #1
    44c0:	dc00      	bgt.n	44c4 <__aeabi_dadd+0x240>
    44c2:	e0f9      	b.n	46b8 <__aeabi_dadd+0x434>
    44c4:	1ab8      	subs	r0, r7, r2
    44c6:	4684      	mov	ip, r0
    44c8:	4287      	cmp	r7, r0
    44ca:	4180      	sbcs	r0, r0
    44cc:	1ae5      	subs	r5, r4, r3
    44ce:	4240      	negs	r0, r0
    44d0:	1a2d      	subs	r5, r5, r0
    44d2:	0228      	lsls	r0, r5, #8
    44d4:	d400      	bmi.n	44d8 <__aeabi_dadd+0x254>
    44d6:	e089      	b.n	45ec <__aeabi_dadd+0x368>
    44d8:	1bd7      	subs	r7, r2, r7
    44da:	42ba      	cmp	r2, r7
    44dc:	4192      	sbcs	r2, r2
    44de:	1b1c      	subs	r4, r3, r4
    44e0:	4252      	negs	r2, r2
    44e2:	1aa5      	subs	r5, r4, r2
    44e4:	46d8      	mov	r8, fp
    44e6:	e729      	b.n	433c <__aeabi_dadd+0xb8>
    44e8:	4645      	mov	r5, r8
    44ea:	2400      	movs	r4, #0
    44ec:	2700      	movs	r7, #0
    44ee:	e76a      	b.n	43c6 <__aeabi_dadd+0x142>
    44f0:	4c45      	ldr	r4, [pc, #276]	; (4608 <__aeabi_dadd+0x384>)
    44f2:	1af6      	subs	r6, r6, r3
    44f4:	402c      	ands	r4, r5
    44f6:	e749      	b.n	438c <__aeabi_dadd+0x108>
    44f8:	003d      	movs	r5, r7
    44fa:	3828      	subs	r0, #40	; 0x28
    44fc:	4085      	lsls	r5, r0
    44fe:	2700      	movs	r7, #0
    4500:	e72e      	b.n	4360 <__aeabi_dadd+0xdc>
    4502:	0038      	movs	r0, r7
    4504:	f001 fdce 	bl	60a4 <__clzsi2>
    4508:	3020      	adds	r0, #32
    450a:	e71d      	b.n	4348 <__aeabi_dadd+0xc4>
    450c:	430a      	orrs	r2, r1
    450e:	1e51      	subs	r1, r2, #1
    4510:	418a      	sbcs	r2, r1
    4512:	2100      	movs	r1, #0
    4514:	e707      	b.n	4326 <__aeabi_dadd+0xa2>
    4516:	2b00      	cmp	r3, #0
    4518:	d000      	beq.n	451c <__aeabi_dadd+0x298>
    451a:	e0f3      	b.n	4704 <__aeabi_dadd+0x480>
    451c:	1c70      	adds	r0, r6, #1
    451e:	0543      	lsls	r3, r0, #21
    4520:	0d5b      	lsrs	r3, r3, #21
    4522:	2b01      	cmp	r3, #1
    4524:	dc00      	bgt.n	4528 <__aeabi_dadd+0x2a4>
    4526:	e0ad      	b.n	4684 <__aeabi_dadd+0x400>
    4528:	4b36      	ldr	r3, [pc, #216]	; (4604 <__aeabi_dadd+0x380>)
    452a:	4298      	cmp	r0, r3
    452c:	d100      	bne.n	4530 <__aeabi_dadd+0x2ac>
    452e:	e0d1      	b.n	46d4 <__aeabi_dadd+0x450>
    4530:	18ba      	adds	r2, r7, r2
    4532:	42ba      	cmp	r2, r7
    4534:	41bf      	sbcs	r7, r7
    4536:	1864      	adds	r4, r4, r1
    4538:	427f      	negs	r7, r7
    453a:	19e4      	adds	r4, r4, r7
    453c:	07e7      	lsls	r7, r4, #31
    453e:	0852      	lsrs	r2, r2, #1
    4540:	4317      	orrs	r7, r2
    4542:	0864      	lsrs	r4, r4, #1
    4544:	0006      	movs	r6, r0
    4546:	e721      	b.n	438c <__aeabi_dadd+0x108>
    4548:	482e      	ldr	r0, [pc, #184]	; (4604 <__aeabi_dadd+0x380>)
    454a:	4285      	cmp	r5, r0
    454c:	d100      	bne.n	4550 <__aeabi_dadd+0x2cc>
    454e:	e093      	b.n	4678 <__aeabi_dadd+0x3f4>
    4550:	001d      	movs	r5, r3
    4552:	e6d0      	b.n	42f6 <__aeabi_dadd+0x72>
    4554:	0029      	movs	r1, r5
    4556:	3e1f      	subs	r6, #31
    4558:	40f1      	lsrs	r1, r6
    455a:	2b20      	cmp	r3, #32
    455c:	d100      	bne.n	4560 <__aeabi_dadd+0x2dc>
    455e:	e08d      	b.n	467c <__aeabi_dadd+0x3f8>
    4560:	2240      	movs	r2, #64	; 0x40
    4562:	1ad3      	subs	r3, r2, r3
    4564:	409d      	lsls	r5, r3
    4566:	432f      	orrs	r7, r5
    4568:	1e7d      	subs	r5, r7, #1
    456a:	41af      	sbcs	r7, r5
    456c:	2400      	movs	r4, #0
    456e:	430f      	orrs	r7, r1
    4570:	2600      	movs	r6, #0
    4572:	e744      	b.n	43fe <__aeabi_dadd+0x17a>
    4574:	002b      	movs	r3, r5
    4576:	0008      	movs	r0, r1
    4578:	3b20      	subs	r3, #32
    457a:	40d8      	lsrs	r0, r3
    457c:	0003      	movs	r3, r0
    457e:	2d20      	cmp	r5, #32
    4580:	d100      	bne.n	4584 <__aeabi_dadd+0x300>
    4582:	e07d      	b.n	4680 <__aeabi_dadd+0x3fc>
    4584:	2040      	movs	r0, #64	; 0x40
    4586:	1b45      	subs	r5, r0, r5
    4588:	40a9      	lsls	r1, r5
    458a:	430a      	orrs	r2, r1
    458c:	1e51      	subs	r1, r2, #1
    458e:	418a      	sbcs	r2, r1
    4590:	2100      	movs	r1, #0
    4592:	431a      	orrs	r2, r3
    4594:	e6c7      	b.n	4326 <__aeabi_dadd+0xa2>
    4596:	2e00      	cmp	r6, #0
    4598:	d050      	beq.n	463c <__aeabi_dadd+0x3b8>
    459a:	4e1a      	ldr	r6, [pc, #104]	; (4604 <__aeabi_dadd+0x380>)
    459c:	42b0      	cmp	r0, r6
    459e:	d057      	beq.n	4650 <__aeabi_dadd+0x3cc>
    45a0:	2680      	movs	r6, #128	; 0x80
    45a2:	426b      	negs	r3, r5
    45a4:	4699      	mov	r9, r3
    45a6:	0436      	lsls	r6, r6, #16
    45a8:	4334      	orrs	r4, r6
    45aa:	464b      	mov	r3, r9
    45ac:	2b38      	cmp	r3, #56	; 0x38
    45ae:	dd00      	ble.n	45b2 <__aeabi_dadd+0x32e>
    45b0:	e0d6      	b.n	4760 <__aeabi_dadd+0x4dc>
    45b2:	2b1f      	cmp	r3, #31
    45b4:	dd00      	ble.n	45b8 <__aeabi_dadd+0x334>
    45b6:	e135      	b.n	4824 <__aeabi_dadd+0x5a0>
    45b8:	2620      	movs	r6, #32
    45ba:	1af5      	subs	r5, r6, r3
    45bc:	0026      	movs	r6, r4
    45be:	40ae      	lsls	r6, r5
    45c0:	46b2      	mov	sl, r6
    45c2:	003e      	movs	r6, r7
    45c4:	40de      	lsrs	r6, r3
    45c6:	46ac      	mov	ip, r5
    45c8:	0035      	movs	r5, r6
    45ca:	4656      	mov	r6, sl
    45cc:	432e      	orrs	r6, r5
    45ce:	4665      	mov	r5, ip
    45d0:	40af      	lsls	r7, r5
    45d2:	1e7d      	subs	r5, r7, #1
    45d4:	41af      	sbcs	r7, r5
    45d6:	40dc      	lsrs	r4, r3
    45d8:	4337      	orrs	r7, r6
    45da:	1bd7      	subs	r7, r2, r7
    45dc:	42ba      	cmp	r2, r7
    45de:	4192      	sbcs	r2, r2
    45e0:	1b0c      	subs	r4, r1, r4
    45e2:	4252      	negs	r2, r2
    45e4:	1aa4      	subs	r4, r4, r2
    45e6:	0006      	movs	r6, r0
    45e8:	46d8      	mov	r8, fp
    45ea:	e6a3      	b.n	4334 <__aeabi_dadd+0xb0>
    45ec:	4664      	mov	r4, ip
    45ee:	4667      	mov	r7, ip
    45f0:	432c      	orrs	r4, r5
    45f2:	d000      	beq.n	45f6 <__aeabi_dadd+0x372>
    45f4:	e6a2      	b.n	433c <__aeabi_dadd+0xb8>
    45f6:	2500      	movs	r5, #0
    45f8:	2600      	movs	r6, #0
    45fa:	2700      	movs	r7, #0
    45fc:	e706      	b.n	440c <__aeabi_dadd+0x188>
    45fe:	001e      	movs	r6, r3
    4600:	e6c4      	b.n	438c <__aeabi_dadd+0x108>
    4602:	46c0      	nop			; (mov r8, r8)
    4604:	000007ff 	.word	0x000007ff
    4608:	ff7fffff 	.word	0xff7fffff
    460c:	800fffff 	.word	0x800fffff
    4610:	2b1f      	cmp	r3, #31
    4612:	dc63      	bgt.n	46dc <__aeabi_dadd+0x458>
    4614:	2020      	movs	r0, #32
    4616:	1ac3      	subs	r3, r0, r3
    4618:	0008      	movs	r0, r1
    461a:	4098      	lsls	r0, r3
    461c:	469c      	mov	ip, r3
    461e:	4683      	mov	fp, r0
    4620:	4653      	mov	r3, sl
    4622:	0010      	movs	r0, r2
    4624:	40d8      	lsrs	r0, r3
    4626:	0003      	movs	r3, r0
    4628:	4658      	mov	r0, fp
    462a:	4318      	orrs	r0, r3
    462c:	4663      	mov	r3, ip
    462e:	409a      	lsls	r2, r3
    4630:	1e53      	subs	r3, r2, #1
    4632:	419a      	sbcs	r2, r3
    4634:	4653      	mov	r3, sl
    4636:	4302      	orrs	r2, r0
    4638:	40d9      	lsrs	r1, r3
    463a:	e703      	b.n	4444 <__aeabi_dadd+0x1c0>
    463c:	0026      	movs	r6, r4
    463e:	433e      	orrs	r6, r7
    4640:	d006      	beq.n	4650 <__aeabi_dadd+0x3cc>
    4642:	43eb      	mvns	r3, r5
    4644:	4699      	mov	r9, r3
    4646:	2b00      	cmp	r3, #0
    4648:	d0c7      	beq.n	45da <__aeabi_dadd+0x356>
    464a:	4e94      	ldr	r6, [pc, #592]	; (489c <__aeabi_dadd+0x618>)
    464c:	42b0      	cmp	r0, r6
    464e:	d1ac      	bne.n	45aa <__aeabi_dadd+0x326>
    4650:	000c      	movs	r4, r1
    4652:	0017      	movs	r7, r2
    4654:	0006      	movs	r6, r0
    4656:	46d8      	mov	r8, fp
    4658:	e698      	b.n	438c <__aeabi_dadd+0x108>
    465a:	4b90      	ldr	r3, [pc, #576]	; (489c <__aeabi_dadd+0x618>)
    465c:	459a      	cmp	sl, r3
    465e:	d00b      	beq.n	4678 <__aeabi_dadd+0x3f4>
    4660:	4682      	mov	sl, r0
    4662:	e6e7      	b.n	4434 <__aeabi_dadd+0x1b0>
    4664:	2800      	cmp	r0, #0
    4666:	d000      	beq.n	466a <__aeabi_dadd+0x3e6>
    4668:	e09e      	b.n	47a8 <__aeabi_dadd+0x524>
    466a:	0018      	movs	r0, r3
    466c:	4310      	orrs	r0, r2
    466e:	d100      	bne.n	4672 <__aeabi_dadd+0x3ee>
    4670:	e0e9      	b.n	4846 <__aeabi_dadd+0x5c2>
    4672:	001c      	movs	r4, r3
    4674:	0017      	movs	r7, r2
    4676:	46d8      	mov	r8, fp
    4678:	4e88      	ldr	r6, [pc, #544]	; (489c <__aeabi_dadd+0x618>)
    467a:	e687      	b.n	438c <__aeabi_dadd+0x108>
    467c:	2500      	movs	r5, #0
    467e:	e772      	b.n	4566 <__aeabi_dadd+0x2e2>
    4680:	2100      	movs	r1, #0
    4682:	e782      	b.n	458a <__aeabi_dadd+0x306>
    4684:	0023      	movs	r3, r4
    4686:	433b      	orrs	r3, r7
    4688:	2e00      	cmp	r6, #0
    468a:	d000      	beq.n	468e <__aeabi_dadd+0x40a>
    468c:	e0ab      	b.n	47e6 <__aeabi_dadd+0x562>
    468e:	2b00      	cmp	r3, #0
    4690:	d100      	bne.n	4694 <__aeabi_dadd+0x410>
    4692:	e0e7      	b.n	4864 <__aeabi_dadd+0x5e0>
    4694:	000b      	movs	r3, r1
    4696:	4313      	orrs	r3, r2
    4698:	d100      	bne.n	469c <__aeabi_dadd+0x418>
    469a:	e677      	b.n	438c <__aeabi_dadd+0x108>
    469c:	18ba      	adds	r2, r7, r2
    469e:	42ba      	cmp	r2, r7
    46a0:	41bf      	sbcs	r7, r7
    46a2:	1864      	adds	r4, r4, r1
    46a4:	427f      	negs	r7, r7
    46a6:	19e4      	adds	r4, r4, r7
    46a8:	0223      	lsls	r3, r4, #8
    46aa:	d400      	bmi.n	46ae <__aeabi_dadd+0x42a>
    46ac:	e0f2      	b.n	4894 <__aeabi_dadd+0x610>
    46ae:	4b7c      	ldr	r3, [pc, #496]	; (48a0 <__aeabi_dadd+0x61c>)
    46b0:	0017      	movs	r7, r2
    46b2:	401c      	ands	r4, r3
    46b4:	0006      	movs	r6, r0
    46b6:	e669      	b.n	438c <__aeabi_dadd+0x108>
    46b8:	0020      	movs	r0, r4
    46ba:	4338      	orrs	r0, r7
    46bc:	2e00      	cmp	r6, #0
    46be:	d1d1      	bne.n	4664 <__aeabi_dadd+0x3e0>
    46c0:	2800      	cmp	r0, #0
    46c2:	d15b      	bne.n	477c <__aeabi_dadd+0x4f8>
    46c4:	001c      	movs	r4, r3
    46c6:	4314      	orrs	r4, r2
    46c8:	d100      	bne.n	46cc <__aeabi_dadd+0x448>
    46ca:	e0a8      	b.n	481e <__aeabi_dadd+0x59a>
    46cc:	001c      	movs	r4, r3
    46ce:	0017      	movs	r7, r2
    46d0:	46d8      	mov	r8, fp
    46d2:	e65b      	b.n	438c <__aeabi_dadd+0x108>
    46d4:	0006      	movs	r6, r0
    46d6:	2400      	movs	r4, #0
    46d8:	2700      	movs	r7, #0
    46da:	e697      	b.n	440c <__aeabi_dadd+0x188>
    46dc:	4650      	mov	r0, sl
    46de:	000b      	movs	r3, r1
    46e0:	3820      	subs	r0, #32
    46e2:	40c3      	lsrs	r3, r0
    46e4:	4699      	mov	r9, r3
    46e6:	4653      	mov	r3, sl
    46e8:	2b20      	cmp	r3, #32
    46ea:	d100      	bne.n	46ee <__aeabi_dadd+0x46a>
    46ec:	e095      	b.n	481a <__aeabi_dadd+0x596>
    46ee:	2340      	movs	r3, #64	; 0x40
    46f0:	4650      	mov	r0, sl
    46f2:	1a1b      	subs	r3, r3, r0
    46f4:	4099      	lsls	r1, r3
    46f6:	430a      	orrs	r2, r1
    46f8:	1e51      	subs	r1, r2, #1
    46fa:	418a      	sbcs	r2, r1
    46fc:	464b      	mov	r3, r9
    46fe:	2100      	movs	r1, #0
    4700:	431a      	orrs	r2, r3
    4702:	e69f      	b.n	4444 <__aeabi_dadd+0x1c0>
    4704:	2e00      	cmp	r6, #0
    4706:	d130      	bne.n	476a <__aeabi_dadd+0x4e6>
    4708:	0026      	movs	r6, r4
    470a:	433e      	orrs	r6, r7
    470c:	d067      	beq.n	47de <__aeabi_dadd+0x55a>
    470e:	43db      	mvns	r3, r3
    4710:	469a      	mov	sl, r3
    4712:	2b00      	cmp	r3, #0
    4714:	d01c      	beq.n	4750 <__aeabi_dadd+0x4cc>
    4716:	4e61      	ldr	r6, [pc, #388]	; (489c <__aeabi_dadd+0x618>)
    4718:	42b0      	cmp	r0, r6
    471a:	d060      	beq.n	47de <__aeabi_dadd+0x55a>
    471c:	4653      	mov	r3, sl
    471e:	2b38      	cmp	r3, #56	; 0x38
    4720:	dd00      	ble.n	4724 <__aeabi_dadd+0x4a0>
    4722:	e096      	b.n	4852 <__aeabi_dadd+0x5ce>
    4724:	2b1f      	cmp	r3, #31
    4726:	dd00      	ble.n	472a <__aeabi_dadd+0x4a6>
    4728:	e09f      	b.n	486a <__aeabi_dadd+0x5e6>
    472a:	2620      	movs	r6, #32
    472c:	1af3      	subs	r3, r6, r3
    472e:	0026      	movs	r6, r4
    4730:	409e      	lsls	r6, r3
    4732:	469c      	mov	ip, r3
    4734:	46b3      	mov	fp, r6
    4736:	4653      	mov	r3, sl
    4738:	003e      	movs	r6, r7
    473a:	40de      	lsrs	r6, r3
    473c:	0033      	movs	r3, r6
    473e:	465e      	mov	r6, fp
    4740:	431e      	orrs	r6, r3
    4742:	4663      	mov	r3, ip
    4744:	409f      	lsls	r7, r3
    4746:	1e7b      	subs	r3, r7, #1
    4748:	419f      	sbcs	r7, r3
    474a:	4653      	mov	r3, sl
    474c:	40dc      	lsrs	r4, r3
    474e:	4337      	orrs	r7, r6
    4750:	18bf      	adds	r7, r7, r2
    4752:	4297      	cmp	r7, r2
    4754:	4192      	sbcs	r2, r2
    4756:	1864      	adds	r4, r4, r1
    4758:	4252      	negs	r2, r2
    475a:	18a4      	adds	r4, r4, r2
    475c:	0006      	movs	r6, r0
    475e:	e678      	b.n	4452 <__aeabi_dadd+0x1ce>
    4760:	4327      	orrs	r7, r4
    4762:	1e7c      	subs	r4, r7, #1
    4764:	41a7      	sbcs	r7, r4
    4766:	2400      	movs	r4, #0
    4768:	e737      	b.n	45da <__aeabi_dadd+0x356>
    476a:	4e4c      	ldr	r6, [pc, #304]	; (489c <__aeabi_dadd+0x618>)
    476c:	42b0      	cmp	r0, r6
    476e:	d036      	beq.n	47de <__aeabi_dadd+0x55a>
    4770:	2680      	movs	r6, #128	; 0x80
    4772:	425b      	negs	r3, r3
    4774:	0436      	lsls	r6, r6, #16
    4776:	469a      	mov	sl, r3
    4778:	4334      	orrs	r4, r6
    477a:	e7cf      	b.n	471c <__aeabi_dadd+0x498>
    477c:	0018      	movs	r0, r3
    477e:	4310      	orrs	r0, r2
    4780:	d100      	bne.n	4784 <__aeabi_dadd+0x500>
    4782:	e603      	b.n	438c <__aeabi_dadd+0x108>
    4784:	1ab8      	subs	r0, r7, r2
    4786:	4684      	mov	ip, r0
    4788:	4567      	cmp	r7, ip
    478a:	41ad      	sbcs	r5, r5
    478c:	1ae0      	subs	r0, r4, r3
    478e:	426d      	negs	r5, r5
    4790:	1b40      	subs	r0, r0, r5
    4792:	0205      	lsls	r5, r0, #8
    4794:	d400      	bmi.n	4798 <__aeabi_dadd+0x514>
    4796:	e62c      	b.n	43f2 <__aeabi_dadd+0x16e>
    4798:	1bd7      	subs	r7, r2, r7
    479a:	42ba      	cmp	r2, r7
    479c:	4192      	sbcs	r2, r2
    479e:	1b1c      	subs	r4, r3, r4
    47a0:	4252      	negs	r2, r2
    47a2:	1aa4      	subs	r4, r4, r2
    47a4:	46d8      	mov	r8, fp
    47a6:	e5f1      	b.n	438c <__aeabi_dadd+0x108>
    47a8:	0018      	movs	r0, r3
    47aa:	4310      	orrs	r0, r2
    47ac:	d100      	bne.n	47b0 <__aeabi_dadd+0x52c>
    47ae:	e763      	b.n	4678 <__aeabi_dadd+0x3f4>
    47b0:	08f8      	lsrs	r0, r7, #3
    47b2:	0767      	lsls	r7, r4, #29
    47b4:	4307      	orrs	r7, r0
    47b6:	2080      	movs	r0, #128	; 0x80
    47b8:	08e4      	lsrs	r4, r4, #3
    47ba:	0300      	lsls	r0, r0, #12
    47bc:	4204      	tst	r4, r0
    47be:	d008      	beq.n	47d2 <__aeabi_dadd+0x54e>
    47c0:	08dd      	lsrs	r5, r3, #3
    47c2:	4205      	tst	r5, r0
    47c4:	d105      	bne.n	47d2 <__aeabi_dadd+0x54e>
    47c6:	08d2      	lsrs	r2, r2, #3
    47c8:	0759      	lsls	r1, r3, #29
    47ca:	4311      	orrs	r1, r2
    47cc:	000f      	movs	r7, r1
    47ce:	002c      	movs	r4, r5
    47d0:	46d8      	mov	r8, fp
    47d2:	0f7b      	lsrs	r3, r7, #29
    47d4:	00e4      	lsls	r4, r4, #3
    47d6:	431c      	orrs	r4, r3
    47d8:	00ff      	lsls	r7, r7, #3
    47da:	4e30      	ldr	r6, [pc, #192]	; (489c <__aeabi_dadd+0x618>)
    47dc:	e5d6      	b.n	438c <__aeabi_dadd+0x108>
    47de:	000c      	movs	r4, r1
    47e0:	0017      	movs	r7, r2
    47e2:	0006      	movs	r6, r0
    47e4:	e5d2      	b.n	438c <__aeabi_dadd+0x108>
    47e6:	2b00      	cmp	r3, #0
    47e8:	d038      	beq.n	485c <__aeabi_dadd+0x5d8>
    47ea:	000b      	movs	r3, r1
    47ec:	4313      	orrs	r3, r2
    47ee:	d100      	bne.n	47f2 <__aeabi_dadd+0x56e>
    47f0:	e742      	b.n	4678 <__aeabi_dadd+0x3f4>
    47f2:	08f8      	lsrs	r0, r7, #3
    47f4:	0767      	lsls	r7, r4, #29
    47f6:	4307      	orrs	r7, r0
    47f8:	2080      	movs	r0, #128	; 0x80
    47fa:	08e4      	lsrs	r4, r4, #3
    47fc:	0300      	lsls	r0, r0, #12
    47fe:	4204      	tst	r4, r0
    4800:	d0e7      	beq.n	47d2 <__aeabi_dadd+0x54e>
    4802:	08cb      	lsrs	r3, r1, #3
    4804:	4203      	tst	r3, r0
    4806:	d1e4      	bne.n	47d2 <__aeabi_dadd+0x54e>
    4808:	08d2      	lsrs	r2, r2, #3
    480a:	0749      	lsls	r1, r1, #29
    480c:	4311      	orrs	r1, r2
    480e:	000f      	movs	r7, r1
    4810:	001c      	movs	r4, r3
    4812:	e7de      	b.n	47d2 <__aeabi_dadd+0x54e>
    4814:	2700      	movs	r7, #0
    4816:	2400      	movs	r4, #0
    4818:	e5d5      	b.n	43c6 <__aeabi_dadd+0x142>
    481a:	2100      	movs	r1, #0
    481c:	e76b      	b.n	46f6 <__aeabi_dadd+0x472>
    481e:	2500      	movs	r5, #0
    4820:	2700      	movs	r7, #0
    4822:	e5f3      	b.n	440c <__aeabi_dadd+0x188>
    4824:	464e      	mov	r6, r9
    4826:	0025      	movs	r5, r4
    4828:	3e20      	subs	r6, #32
    482a:	40f5      	lsrs	r5, r6
    482c:	464b      	mov	r3, r9
    482e:	002e      	movs	r6, r5
    4830:	2b20      	cmp	r3, #32
    4832:	d02d      	beq.n	4890 <__aeabi_dadd+0x60c>
    4834:	2540      	movs	r5, #64	; 0x40
    4836:	1aed      	subs	r5, r5, r3
    4838:	40ac      	lsls	r4, r5
    483a:	4327      	orrs	r7, r4
    483c:	1e7c      	subs	r4, r7, #1
    483e:	41a7      	sbcs	r7, r4
    4840:	2400      	movs	r4, #0
    4842:	4337      	orrs	r7, r6
    4844:	e6c9      	b.n	45da <__aeabi_dadd+0x356>
    4846:	2480      	movs	r4, #128	; 0x80
    4848:	2500      	movs	r5, #0
    484a:	0324      	lsls	r4, r4, #12
    484c:	4e13      	ldr	r6, [pc, #76]	; (489c <__aeabi_dadd+0x618>)
    484e:	2700      	movs	r7, #0
    4850:	e5dc      	b.n	440c <__aeabi_dadd+0x188>
    4852:	4327      	orrs	r7, r4
    4854:	1e7c      	subs	r4, r7, #1
    4856:	41a7      	sbcs	r7, r4
    4858:	2400      	movs	r4, #0
    485a:	e779      	b.n	4750 <__aeabi_dadd+0x4cc>
    485c:	000c      	movs	r4, r1
    485e:	0017      	movs	r7, r2
    4860:	4e0e      	ldr	r6, [pc, #56]	; (489c <__aeabi_dadd+0x618>)
    4862:	e593      	b.n	438c <__aeabi_dadd+0x108>
    4864:	000c      	movs	r4, r1
    4866:	0017      	movs	r7, r2
    4868:	e590      	b.n	438c <__aeabi_dadd+0x108>
    486a:	4656      	mov	r6, sl
    486c:	0023      	movs	r3, r4
    486e:	3e20      	subs	r6, #32
    4870:	40f3      	lsrs	r3, r6
    4872:	4699      	mov	r9, r3
    4874:	4653      	mov	r3, sl
    4876:	2b20      	cmp	r3, #32
    4878:	d00e      	beq.n	4898 <__aeabi_dadd+0x614>
    487a:	2340      	movs	r3, #64	; 0x40
    487c:	4656      	mov	r6, sl
    487e:	1b9b      	subs	r3, r3, r6
    4880:	409c      	lsls	r4, r3
    4882:	4327      	orrs	r7, r4
    4884:	1e7c      	subs	r4, r7, #1
    4886:	41a7      	sbcs	r7, r4
    4888:	464b      	mov	r3, r9
    488a:	2400      	movs	r4, #0
    488c:	431f      	orrs	r7, r3
    488e:	e75f      	b.n	4750 <__aeabi_dadd+0x4cc>
    4890:	2400      	movs	r4, #0
    4892:	e7d2      	b.n	483a <__aeabi_dadd+0x5b6>
    4894:	0017      	movs	r7, r2
    4896:	e5b2      	b.n	43fe <__aeabi_dadd+0x17a>
    4898:	2400      	movs	r4, #0
    489a:	e7f2      	b.n	4882 <__aeabi_dadd+0x5fe>
    489c:	000007ff 	.word	0x000007ff
    48a0:	ff7fffff 	.word	0xff7fffff

000048a4 <__aeabi_ddiv>:
    48a4:	b5f0      	push	{r4, r5, r6, r7, lr}
    48a6:	4657      	mov	r7, sl
    48a8:	4645      	mov	r5, r8
    48aa:	46de      	mov	lr, fp
    48ac:	464e      	mov	r6, r9
    48ae:	b5e0      	push	{r5, r6, r7, lr}
    48b0:	004c      	lsls	r4, r1, #1
    48b2:	030e      	lsls	r6, r1, #12
    48b4:	b087      	sub	sp, #28
    48b6:	4683      	mov	fp, r0
    48b8:	4692      	mov	sl, r2
    48ba:	001d      	movs	r5, r3
    48bc:	4680      	mov	r8, r0
    48be:	0b36      	lsrs	r6, r6, #12
    48c0:	0d64      	lsrs	r4, r4, #21
    48c2:	0fcf      	lsrs	r7, r1, #31
    48c4:	2c00      	cmp	r4, #0
    48c6:	d04f      	beq.n	4968 <__aeabi_ddiv+0xc4>
    48c8:	4b6f      	ldr	r3, [pc, #444]	; (4a88 <__aeabi_ddiv+0x1e4>)
    48ca:	429c      	cmp	r4, r3
    48cc:	d035      	beq.n	493a <__aeabi_ddiv+0x96>
    48ce:	2380      	movs	r3, #128	; 0x80
    48d0:	0f42      	lsrs	r2, r0, #29
    48d2:	041b      	lsls	r3, r3, #16
    48d4:	00f6      	lsls	r6, r6, #3
    48d6:	4313      	orrs	r3, r2
    48d8:	4333      	orrs	r3, r6
    48da:	4699      	mov	r9, r3
    48dc:	00c3      	lsls	r3, r0, #3
    48de:	4698      	mov	r8, r3
    48e0:	4b6a      	ldr	r3, [pc, #424]	; (4a8c <__aeabi_ddiv+0x1e8>)
    48e2:	2600      	movs	r6, #0
    48e4:	469c      	mov	ip, r3
    48e6:	2300      	movs	r3, #0
    48e8:	4464      	add	r4, ip
    48ea:	9303      	str	r3, [sp, #12]
    48ec:	032b      	lsls	r3, r5, #12
    48ee:	0b1b      	lsrs	r3, r3, #12
    48f0:	469b      	mov	fp, r3
    48f2:	006b      	lsls	r3, r5, #1
    48f4:	0fed      	lsrs	r5, r5, #31
    48f6:	4650      	mov	r0, sl
    48f8:	0d5b      	lsrs	r3, r3, #21
    48fa:	9501      	str	r5, [sp, #4]
    48fc:	d05e      	beq.n	49bc <__aeabi_ddiv+0x118>
    48fe:	4a62      	ldr	r2, [pc, #392]	; (4a88 <__aeabi_ddiv+0x1e4>)
    4900:	4293      	cmp	r3, r2
    4902:	d053      	beq.n	49ac <__aeabi_ddiv+0x108>
    4904:	465a      	mov	r2, fp
    4906:	00d1      	lsls	r1, r2, #3
    4908:	2280      	movs	r2, #128	; 0x80
    490a:	0f40      	lsrs	r0, r0, #29
    490c:	0412      	lsls	r2, r2, #16
    490e:	4302      	orrs	r2, r0
    4910:	430a      	orrs	r2, r1
    4912:	4693      	mov	fp, r2
    4914:	4652      	mov	r2, sl
    4916:	00d1      	lsls	r1, r2, #3
    4918:	4a5c      	ldr	r2, [pc, #368]	; (4a8c <__aeabi_ddiv+0x1e8>)
    491a:	4694      	mov	ip, r2
    491c:	2200      	movs	r2, #0
    491e:	4463      	add	r3, ip
    4920:	0038      	movs	r0, r7
    4922:	4068      	eors	r0, r5
    4924:	4684      	mov	ip, r0
    4926:	9002      	str	r0, [sp, #8]
    4928:	1ae4      	subs	r4, r4, r3
    492a:	4316      	orrs	r6, r2
    492c:	2e0f      	cmp	r6, #15
    492e:	d900      	bls.n	4932 <__aeabi_ddiv+0x8e>
    4930:	e0b4      	b.n	4a9c <__aeabi_ddiv+0x1f8>
    4932:	4b57      	ldr	r3, [pc, #348]	; (4a90 <__aeabi_ddiv+0x1ec>)
    4934:	00b6      	lsls	r6, r6, #2
    4936:	599b      	ldr	r3, [r3, r6]
    4938:	469f      	mov	pc, r3
    493a:	0003      	movs	r3, r0
    493c:	4333      	orrs	r3, r6
    493e:	4699      	mov	r9, r3
    4940:	d16c      	bne.n	4a1c <__aeabi_ddiv+0x178>
    4942:	2300      	movs	r3, #0
    4944:	4698      	mov	r8, r3
    4946:	3302      	adds	r3, #2
    4948:	2608      	movs	r6, #8
    494a:	9303      	str	r3, [sp, #12]
    494c:	e7ce      	b.n	48ec <__aeabi_ddiv+0x48>
    494e:	46cb      	mov	fp, r9
    4950:	4641      	mov	r1, r8
    4952:	9a03      	ldr	r2, [sp, #12]
    4954:	9701      	str	r7, [sp, #4]
    4956:	2a02      	cmp	r2, #2
    4958:	d165      	bne.n	4a26 <__aeabi_ddiv+0x182>
    495a:	9b01      	ldr	r3, [sp, #4]
    495c:	4c4a      	ldr	r4, [pc, #296]	; (4a88 <__aeabi_ddiv+0x1e4>)
    495e:	469c      	mov	ip, r3
    4960:	2300      	movs	r3, #0
    4962:	2200      	movs	r2, #0
    4964:	4698      	mov	r8, r3
    4966:	e06b      	b.n	4a40 <__aeabi_ddiv+0x19c>
    4968:	0003      	movs	r3, r0
    496a:	4333      	orrs	r3, r6
    496c:	4699      	mov	r9, r3
    496e:	d04e      	beq.n	4a0e <__aeabi_ddiv+0x16a>
    4970:	2e00      	cmp	r6, #0
    4972:	d100      	bne.n	4976 <__aeabi_ddiv+0xd2>
    4974:	e1bc      	b.n	4cf0 <__aeabi_ddiv+0x44c>
    4976:	0030      	movs	r0, r6
    4978:	f001 fb94 	bl	60a4 <__clzsi2>
    497c:	0003      	movs	r3, r0
    497e:	3b0b      	subs	r3, #11
    4980:	2b1c      	cmp	r3, #28
    4982:	dd00      	ble.n	4986 <__aeabi_ddiv+0xe2>
    4984:	e1ac      	b.n	4ce0 <__aeabi_ddiv+0x43c>
    4986:	221d      	movs	r2, #29
    4988:	1ad3      	subs	r3, r2, r3
    498a:	465a      	mov	r2, fp
    498c:	0001      	movs	r1, r0
    498e:	40da      	lsrs	r2, r3
    4990:	3908      	subs	r1, #8
    4992:	408e      	lsls	r6, r1
    4994:	0013      	movs	r3, r2
    4996:	4333      	orrs	r3, r6
    4998:	4699      	mov	r9, r3
    499a:	465b      	mov	r3, fp
    499c:	408b      	lsls	r3, r1
    499e:	4698      	mov	r8, r3
    49a0:	2300      	movs	r3, #0
    49a2:	4c3c      	ldr	r4, [pc, #240]	; (4a94 <__aeabi_ddiv+0x1f0>)
    49a4:	2600      	movs	r6, #0
    49a6:	1a24      	subs	r4, r4, r0
    49a8:	9303      	str	r3, [sp, #12]
    49aa:	e79f      	b.n	48ec <__aeabi_ddiv+0x48>
    49ac:	4651      	mov	r1, sl
    49ae:	465a      	mov	r2, fp
    49b0:	4311      	orrs	r1, r2
    49b2:	d129      	bne.n	4a08 <__aeabi_ddiv+0x164>
    49b4:	2200      	movs	r2, #0
    49b6:	4693      	mov	fp, r2
    49b8:	3202      	adds	r2, #2
    49ba:	e7b1      	b.n	4920 <__aeabi_ddiv+0x7c>
    49bc:	4659      	mov	r1, fp
    49be:	4301      	orrs	r1, r0
    49c0:	d01e      	beq.n	4a00 <__aeabi_ddiv+0x15c>
    49c2:	465b      	mov	r3, fp
    49c4:	2b00      	cmp	r3, #0
    49c6:	d100      	bne.n	49ca <__aeabi_ddiv+0x126>
    49c8:	e19e      	b.n	4d08 <__aeabi_ddiv+0x464>
    49ca:	4658      	mov	r0, fp
    49cc:	f001 fb6a 	bl	60a4 <__clzsi2>
    49d0:	0003      	movs	r3, r0
    49d2:	3b0b      	subs	r3, #11
    49d4:	2b1c      	cmp	r3, #28
    49d6:	dd00      	ble.n	49da <__aeabi_ddiv+0x136>
    49d8:	e18f      	b.n	4cfa <__aeabi_ddiv+0x456>
    49da:	0002      	movs	r2, r0
    49dc:	4659      	mov	r1, fp
    49de:	3a08      	subs	r2, #8
    49e0:	4091      	lsls	r1, r2
    49e2:	468b      	mov	fp, r1
    49e4:	211d      	movs	r1, #29
    49e6:	1acb      	subs	r3, r1, r3
    49e8:	4651      	mov	r1, sl
    49ea:	40d9      	lsrs	r1, r3
    49ec:	000b      	movs	r3, r1
    49ee:	4659      	mov	r1, fp
    49f0:	430b      	orrs	r3, r1
    49f2:	4651      	mov	r1, sl
    49f4:	469b      	mov	fp, r3
    49f6:	4091      	lsls	r1, r2
    49f8:	4b26      	ldr	r3, [pc, #152]	; (4a94 <__aeabi_ddiv+0x1f0>)
    49fa:	2200      	movs	r2, #0
    49fc:	1a1b      	subs	r3, r3, r0
    49fe:	e78f      	b.n	4920 <__aeabi_ddiv+0x7c>
    4a00:	2300      	movs	r3, #0
    4a02:	2201      	movs	r2, #1
    4a04:	469b      	mov	fp, r3
    4a06:	e78b      	b.n	4920 <__aeabi_ddiv+0x7c>
    4a08:	4651      	mov	r1, sl
    4a0a:	2203      	movs	r2, #3
    4a0c:	e788      	b.n	4920 <__aeabi_ddiv+0x7c>
    4a0e:	2300      	movs	r3, #0
    4a10:	4698      	mov	r8, r3
    4a12:	3301      	adds	r3, #1
    4a14:	2604      	movs	r6, #4
    4a16:	2400      	movs	r4, #0
    4a18:	9303      	str	r3, [sp, #12]
    4a1a:	e767      	b.n	48ec <__aeabi_ddiv+0x48>
    4a1c:	2303      	movs	r3, #3
    4a1e:	46b1      	mov	r9, r6
    4a20:	9303      	str	r3, [sp, #12]
    4a22:	260c      	movs	r6, #12
    4a24:	e762      	b.n	48ec <__aeabi_ddiv+0x48>
    4a26:	2a03      	cmp	r2, #3
    4a28:	d100      	bne.n	4a2c <__aeabi_ddiv+0x188>
    4a2a:	e25c      	b.n	4ee6 <__aeabi_ddiv+0x642>
    4a2c:	9b01      	ldr	r3, [sp, #4]
    4a2e:	2a01      	cmp	r2, #1
    4a30:	d000      	beq.n	4a34 <__aeabi_ddiv+0x190>
    4a32:	e1e4      	b.n	4dfe <__aeabi_ddiv+0x55a>
    4a34:	4013      	ands	r3, r2
    4a36:	469c      	mov	ip, r3
    4a38:	2300      	movs	r3, #0
    4a3a:	2400      	movs	r4, #0
    4a3c:	2200      	movs	r2, #0
    4a3e:	4698      	mov	r8, r3
    4a40:	2100      	movs	r1, #0
    4a42:	0312      	lsls	r2, r2, #12
    4a44:	0b13      	lsrs	r3, r2, #12
    4a46:	0d0a      	lsrs	r2, r1, #20
    4a48:	0512      	lsls	r2, r2, #20
    4a4a:	431a      	orrs	r2, r3
    4a4c:	0523      	lsls	r3, r4, #20
    4a4e:	4c12      	ldr	r4, [pc, #72]	; (4a98 <__aeabi_ddiv+0x1f4>)
    4a50:	4640      	mov	r0, r8
    4a52:	4022      	ands	r2, r4
    4a54:	4313      	orrs	r3, r2
    4a56:	4662      	mov	r2, ip
    4a58:	005b      	lsls	r3, r3, #1
    4a5a:	07d2      	lsls	r2, r2, #31
    4a5c:	085b      	lsrs	r3, r3, #1
    4a5e:	4313      	orrs	r3, r2
    4a60:	0019      	movs	r1, r3
    4a62:	b007      	add	sp, #28
    4a64:	bc3c      	pop	{r2, r3, r4, r5}
    4a66:	4690      	mov	r8, r2
    4a68:	4699      	mov	r9, r3
    4a6a:	46a2      	mov	sl, r4
    4a6c:	46ab      	mov	fp, r5
    4a6e:	bdf0      	pop	{r4, r5, r6, r7, pc}
    4a70:	2300      	movs	r3, #0
    4a72:	2280      	movs	r2, #128	; 0x80
    4a74:	469c      	mov	ip, r3
    4a76:	0312      	lsls	r2, r2, #12
    4a78:	4698      	mov	r8, r3
    4a7a:	4c03      	ldr	r4, [pc, #12]	; (4a88 <__aeabi_ddiv+0x1e4>)
    4a7c:	e7e0      	b.n	4a40 <__aeabi_ddiv+0x19c>
    4a7e:	2300      	movs	r3, #0
    4a80:	4c01      	ldr	r4, [pc, #4]	; (4a88 <__aeabi_ddiv+0x1e4>)
    4a82:	2200      	movs	r2, #0
    4a84:	4698      	mov	r8, r3
    4a86:	e7db      	b.n	4a40 <__aeabi_ddiv+0x19c>
    4a88:	000007ff 	.word	0x000007ff
    4a8c:	fffffc01 	.word	0xfffffc01
    4a90:	000062e0 	.word	0x000062e0
    4a94:	fffffc0d 	.word	0xfffffc0d
    4a98:	800fffff 	.word	0x800fffff
    4a9c:	45d9      	cmp	r9, fp
    4a9e:	d900      	bls.n	4aa2 <__aeabi_ddiv+0x1fe>
    4aa0:	e139      	b.n	4d16 <__aeabi_ddiv+0x472>
    4aa2:	d100      	bne.n	4aa6 <__aeabi_ddiv+0x202>
    4aa4:	e134      	b.n	4d10 <__aeabi_ddiv+0x46c>
    4aa6:	2300      	movs	r3, #0
    4aa8:	4646      	mov	r6, r8
    4aaa:	464d      	mov	r5, r9
    4aac:	469a      	mov	sl, r3
    4aae:	3c01      	subs	r4, #1
    4ab0:	465b      	mov	r3, fp
    4ab2:	0e0a      	lsrs	r2, r1, #24
    4ab4:	021b      	lsls	r3, r3, #8
    4ab6:	431a      	orrs	r2, r3
    4ab8:	020b      	lsls	r3, r1, #8
    4aba:	0c17      	lsrs	r7, r2, #16
    4abc:	9303      	str	r3, [sp, #12]
    4abe:	0413      	lsls	r3, r2, #16
    4ac0:	0c1b      	lsrs	r3, r3, #16
    4ac2:	0039      	movs	r1, r7
    4ac4:	0028      	movs	r0, r5
    4ac6:	4690      	mov	r8, r2
    4ac8:	9301      	str	r3, [sp, #4]
    4aca:	f001 fa5f 	bl	5f8c <__udivsi3>
    4ace:	0002      	movs	r2, r0
    4ad0:	9b01      	ldr	r3, [sp, #4]
    4ad2:	4683      	mov	fp, r0
    4ad4:	435a      	muls	r2, r3
    4ad6:	0028      	movs	r0, r5
    4ad8:	0039      	movs	r1, r7
    4ada:	4691      	mov	r9, r2
    4adc:	f001 fadc 	bl	6098 <__aeabi_uidivmod>
    4ae0:	0c35      	lsrs	r5, r6, #16
    4ae2:	0409      	lsls	r1, r1, #16
    4ae4:	430d      	orrs	r5, r1
    4ae6:	45a9      	cmp	r9, r5
    4ae8:	d90d      	bls.n	4b06 <__aeabi_ddiv+0x262>
    4aea:	465b      	mov	r3, fp
    4aec:	4445      	add	r5, r8
    4aee:	3b01      	subs	r3, #1
    4af0:	45a8      	cmp	r8, r5
    4af2:	d900      	bls.n	4af6 <__aeabi_ddiv+0x252>
    4af4:	e13a      	b.n	4d6c <__aeabi_ddiv+0x4c8>
    4af6:	45a9      	cmp	r9, r5
    4af8:	d800      	bhi.n	4afc <__aeabi_ddiv+0x258>
    4afa:	e137      	b.n	4d6c <__aeabi_ddiv+0x4c8>
    4afc:	2302      	movs	r3, #2
    4afe:	425b      	negs	r3, r3
    4b00:	469c      	mov	ip, r3
    4b02:	4445      	add	r5, r8
    4b04:	44e3      	add	fp, ip
    4b06:	464b      	mov	r3, r9
    4b08:	1aeb      	subs	r3, r5, r3
    4b0a:	0039      	movs	r1, r7
    4b0c:	0018      	movs	r0, r3
    4b0e:	9304      	str	r3, [sp, #16]
    4b10:	f001 fa3c 	bl	5f8c <__udivsi3>
    4b14:	9b01      	ldr	r3, [sp, #4]
    4b16:	0005      	movs	r5, r0
    4b18:	4343      	muls	r3, r0
    4b1a:	0039      	movs	r1, r7
    4b1c:	9804      	ldr	r0, [sp, #16]
    4b1e:	4699      	mov	r9, r3
    4b20:	f001 faba 	bl	6098 <__aeabi_uidivmod>
    4b24:	0433      	lsls	r3, r6, #16
    4b26:	0409      	lsls	r1, r1, #16
    4b28:	0c1b      	lsrs	r3, r3, #16
    4b2a:	430b      	orrs	r3, r1
    4b2c:	4599      	cmp	r9, r3
    4b2e:	d909      	bls.n	4b44 <__aeabi_ddiv+0x2a0>
    4b30:	4443      	add	r3, r8
    4b32:	1e6a      	subs	r2, r5, #1
    4b34:	4598      	cmp	r8, r3
    4b36:	d900      	bls.n	4b3a <__aeabi_ddiv+0x296>
    4b38:	e11a      	b.n	4d70 <__aeabi_ddiv+0x4cc>
    4b3a:	4599      	cmp	r9, r3
    4b3c:	d800      	bhi.n	4b40 <__aeabi_ddiv+0x29c>
    4b3e:	e117      	b.n	4d70 <__aeabi_ddiv+0x4cc>
    4b40:	3d02      	subs	r5, #2
    4b42:	4443      	add	r3, r8
    4b44:	464a      	mov	r2, r9
    4b46:	1a9b      	subs	r3, r3, r2
    4b48:	465a      	mov	r2, fp
    4b4a:	0412      	lsls	r2, r2, #16
    4b4c:	432a      	orrs	r2, r5
    4b4e:	9903      	ldr	r1, [sp, #12]
    4b50:	4693      	mov	fp, r2
    4b52:	0c10      	lsrs	r0, r2, #16
    4b54:	0c0a      	lsrs	r2, r1, #16
    4b56:	4691      	mov	r9, r2
    4b58:	0409      	lsls	r1, r1, #16
    4b5a:	465a      	mov	r2, fp
    4b5c:	0c09      	lsrs	r1, r1, #16
    4b5e:	464e      	mov	r6, r9
    4b60:	000d      	movs	r5, r1
    4b62:	0412      	lsls	r2, r2, #16
    4b64:	0c12      	lsrs	r2, r2, #16
    4b66:	4345      	muls	r5, r0
    4b68:	9105      	str	r1, [sp, #20]
    4b6a:	4351      	muls	r1, r2
    4b6c:	4372      	muls	r2, r6
    4b6e:	4370      	muls	r0, r6
    4b70:	1952      	adds	r2, r2, r5
    4b72:	0c0e      	lsrs	r6, r1, #16
    4b74:	18b2      	adds	r2, r6, r2
    4b76:	4295      	cmp	r5, r2
    4b78:	d903      	bls.n	4b82 <__aeabi_ddiv+0x2de>
    4b7a:	2580      	movs	r5, #128	; 0x80
    4b7c:	026d      	lsls	r5, r5, #9
    4b7e:	46ac      	mov	ip, r5
    4b80:	4460      	add	r0, ip
    4b82:	0c15      	lsrs	r5, r2, #16
    4b84:	0409      	lsls	r1, r1, #16
    4b86:	0412      	lsls	r2, r2, #16
    4b88:	0c09      	lsrs	r1, r1, #16
    4b8a:	1828      	adds	r0, r5, r0
    4b8c:	1852      	adds	r2, r2, r1
    4b8e:	4283      	cmp	r3, r0
    4b90:	d200      	bcs.n	4b94 <__aeabi_ddiv+0x2f0>
    4b92:	e0ce      	b.n	4d32 <__aeabi_ddiv+0x48e>
    4b94:	d100      	bne.n	4b98 <__aeabi_ddiv+0x2f4>
    4b96:	e0c8      	b.n	4d2a <__aeabi_ddiv+0x486>
    4b98:	1a1d      	subs	r5, r3, r0
    4b9a:	4653      	mov	r3, sl
    4b9c:	1a9e      	subs	r6, r3, r2
    4b9e:	45b2      	cmp	sl, r6
    4ba0:	4192      	sbcs	r2, r2
    4ba2:	4252      	negs	r2, r2
    4ba4:	1aab      	subs	r3, r5, r2
    4ba6:	469a      	mov	sl, r3
    4ba8:	4598      	cmp	r8, r3
    4baa:	d100      	bne.n	4bae <__aeabi_ddiv+0x30a>
    4bac:	e117      	b.n	4dde <__aeabi_ddiv+0x53a>
    4bae:	0039      	movs	r1, r7
    4bb0:	0018      	movs	r0, r3
    4bb2:	f001 f9eb 	bl	5f8c <__udivsi3>
    4bb6:	9b01      	ldr	r3, [sp, #4]
    4bb8:	0005      	movs	r5, r0
    4bba:	4343      	muls	r3, r0
    4bbc:	0039      	movs	r1, r7
    4bbe:	4650      	mov	r0, sl
    4bc0:	9304      	str	r3, [sp, #16]
    4bc2:	f001 fa69 	bl	6098 <__aeabi_uidivmod>
    4bc6:	9804      	ldr	r0, [sp, #16]
    4bc8:	040b      	lsls	r3, r1, #16
    4bca:	0c31      	lsrs	r1, r6, #16
    4bcc:	4319      	orrs	r1, r3
    4bce:	4288      	cmp	r0, r1
    4bd0:	d909      	bls.n	4be6 <__aeabi_ddiv+0x342>
    4bd2:	4441      	add	r1, r8
    4bd4:	1e6b      	subs	r3, r5, #1
    4bd6:	4588      	cmp	r8, r1
    4bd8:	d900      	bls.n	4bdc <__aeabi_ddiv+0x338>
    4bda:	e107      	b.n	4dec <__aeabi_ddiv+0x548>
    4bdc:	4288      	cmp	r0, r1
    4bde:	d800      	bhi.n	4be2 <__aeabi_ddiv+0x33e>
    4be0:	e104      	b.n	4dec <__aeabi_ddiv+0x548>
    4be2:	3d02      	subs	r5, #2
    4be4:	4441      	add	r1, r8
    4be6:	9b04      	ldr	r3, [sp, #16]
    4be8:	1acb      	subs	r3, r1, r3
    4bea:	0018      	movs	r0, r3
    4bec:	0039      	movs	r1, r7
    4bee:	9304      	str	r3, [sp, #16]
    4bf0:	f001 f9cc 	bl	5f8c <__udivsi3>
    4bf4:	9b01      	ldr	r3, [sp, #4]
    4bf6:	4682      	mov	sl, r0
    4bf8:	4343      	muls	r3, r0
    4bfa:	0039      	movs	r1, r7
    4bfc:	9804      	ldr	r0, [sp, #16]
    4bfe:	9301      	str	r3, [sp, #4]
    4c00:	f001 fa4a 	bl	6098 <__aeabi_uidivmod>
    4c04:	9801      	ldr	r0, [sp, #4]
    4c06:	040b      	lsls	r3, r1, #16
    4c08:	0431      	lsls	r1, r6, #16
    4c0a:	0c09      	lsrs	r1, r1, #16
    4c0c:	4319      	orrs	r1, r3
    4c0e:	4288      	cmp	r0, r1
    4c10:	d90d      	bls.n	4c2e <__aeabi_ddiv+0x38a>
    4c12:	4653      	mov	r3, sl
    4c14:	4441      	add	r1, r8
    4c16:	3b01      	subs	r3, #1
    4c18:	4588      	cmp	r8, r1
    4c1a:	d900      	bls.n	4c1e <__aeabi_ddiv+0x37a>
    4c1c:	e0e8      	b.n	4df0 <__aeabi_ddiv+0x54c>
    4c1e:	4288      	cmp	r0, r1
    4c20:	d800      	bhi.n	4c24 <__aeabi_ddiv+0x380>
    4c22:	e0e5      	b.n	4df0 <__aeabi_ddiv+0x54c>
    4c24:	2302      	movs	r3, #2
    4c26:	425b      	negs	r3, r3
    4c28:	469c      	mov	ip, r3
    4c2a:	4441      	add	r1, r8
    4c2c:	44e2      	add	sl, ip
    4c2e:	9b01      	ldr	r3, [sp, #4]
    4c30:	042d      	lsls	r5, r5, #16
    4c32:	1ace      	subs	r6, r1, r3
    4c34:	4651      	mov	r1, sl
    4c36:	4329      	orrs	r1, r5
    4c38:	9d05      	ldr	r5, [sp, #20]
    4c3a:	464f      	mov	r7, r9
    4c3c:	002a      	movs	r2, r5
    4c3e:	040b      	lsls	r3, r1, #16
    4c40:	0c08      	lsrs	r0, r1, #16
    4c42:	0c1b      	lsrs	r3, r3, #16
    4c44:	435a      	muls	r2, r3
    4c46:	4345      	muls	r5, r0
    4c48:	437b      	muls	r3, r7
    4c4a:	4378      	muls	r0, r7
    4c4c:	195b      	adds	r3, r3, r5
    4c4e:	0c17      	lsrs	r7, r2, #16
    4c50:	18fb      	adds	r3, r7, r3
    4c52:	429d      	cmp	r5, r3
    4c54:	d903      	bls.n	4c5e <__aeabi_ddiv+0x3ba>
    4c56:	2580      	movs	r5, #128	; 0x80
    4c58:	026d      	lsls	r5, r5, #9
    4c5a:	46ac      	mov	ip, r5
    4c5c:	4460      	add	r0, ip
    4c5e:	0c1d      	lsrs	r5, r3, #16
    4c60:	0412      	lsls	r2, r2, #16
    4c62:	041b      	lsls	r3, r3, #16
    4c64:	0c12      	lsrs	r2, r2, #16
    4c66:	1828      	adds	r0, r5, r0
    4c68:	189b      	adds	r3, r3, r2
    4c6a:	4286      	cmp	r6, r0
    4c6c:	d200      	bcs.n	4c70 <__aeabi_ddiv+0x3cc>
    4c6e:	e093      	b.n	4d98 <__aeabi_ddiv+0x4f4>
    4c70:	d100      	bne.n	4c74 <__aeabi_ddiv+0x3d0>
    4c72:	e08e      	b.n	4d92 <__aeabi_ddiv+0x4ee>
    4c74:	2301      	movs	r3, #1
    4c76:	4319      	orrs	r1, r3
    4c78:	4ba0      	ldr	r3, [pc, #640]	; (4efc <__aeabi_ddiv+0x658>)
    4c7a:	18e3      	adds	r3, r4, r3
    4c7c:	2b00      	cmp	r3, #0
    4c7e:	dc00      	bgt.n	4c82 <__aeabi_ddiv+0x3de>
    4c80:	e099      	b.n	4db6 <__aeabi_ddiv+0x512>
    4c82:	074a      	lsls	r2, r1, #29
    4c84:	d000      	beq.n	4c88 <__aeabi_ddiv+0x3e4>
    4c86:	e09e      	b.n	4dc6 <__aeabi_ddiv+0x522>
    4c88:	465a      	mov	r2, fp
    4c8a:	01d2      	lsls	r2, r2, #7
    4c8c:	d506      	bpl.n	4c9c <__aeabi_ddiv+0x3f8>
    4c8e:	465a      	mov	r2, fp
    4c90:	4b9b      	ldr	r3, [pc, #620]	; (4f00 <__aeabi_ddiv+0x65c>)
    4c92:	401a      	ands	r2, r3
    4c94:	2380      	movs	r3, #128	; 0x80
    4c96:	4693      	mov	fp, r2
    4c98:	00db      	lsls	r3, r3, #3
    4c9a:	18e3      	adds	r3, r4, r3
    4c9c:	4a99      	ldr	r2, [pc, #612]	; (4f04 <__aeabi_ddiv+0x660>)
    4c9e:	4293      	cmp	r3, r2
    4ca0:	dd68      	ble.n	4d74 <__aeabi_ddiv+0x4d0>
    4ca2:	2301      	movs	r3, #1
    4ca4:	9a02      	ldr	r2, [sp, #8]
    4ca6:	4c98      	ldr	r4, [pc, #608]	; (4f08 <__aeabi_ddiv+0x664>)
    4ca8:	401a      	ands	r2, r3
    4caa:	2300      	movs	r3, #0
    4cac:	4694      	mov	ip, r2
    4cae:	4698      	mov	r8, r3
    4cb0:	2200      	movs	r2, #0
    4cb2:	e6c5      	b.n	4a40 <__aeabi_ddiv+0x19c>
    4cb4:	2280      	movs	r2, #128	; 0x80
    4cb6:	464b      	mov	r3, r9
    4cb8:	0312      	lsls	r2, r2, #12
    4cba:	4213      	tst	r3, r2
    4cbc:	d00a      	beq.n	4cd4 <__aeabi_ddiv+0x430>
    4cbe:	465b      	mov	r3, fp
    4cc0:	4213      	tst	r3, r2
    4cc2:	d106      	bne.n	4cd2 <__aeabi_ddiv+0x42e>
    4cc4:	431a      	orrs	r2, r3
    4cc6:	0312      	lsls	r2, r2, #12
    4cc8:	0b12      	lsrs	r2, r2, #12
    4cca:	46ac      	mov	ip, r5
    4ccc:	4688      	mov	r8, r1
    4cce:	4c8e      	ldr	r4, [pc, #568]	; (4f08 <__aeabi_ddiv+0x664>)
    4cd0:	e6b6      	b.n	4a40 <__aeabi_ddiv+0x19c>
    4cd2:	464b      	mov	r3, r9
    4cd4:	431a      	orrs	r2, r3
    4cd6:	0312      	lsls	r2, r2, #12
    4cd8:	0b12      	lsrs	r2, r2, #12
    4cda:	46bc      	mov	ip, r7
    4cdc:	4c8a      	ldr	r4, [pc, #552]	; (4f08 <__aeabi_ddiv+0x664>)
    4cde:	e6af      	b.n	4a40 <__aeabi_ddiv+0x19c>
    4ce0:	0003      	movs	r3, r0
    4ce2:	465a      	mov	r2, fp
    4ce4:	3b28      	subs	r3, #40	; 0x28
    4ce6:	409a      	lsls	r2, r3
    4ce8:	2300      	movs	r3, #0
    4cea:	4691      	mov	r9, r2
    4cec:	4698      	mov	r8, r3
    4cee:	e657      	b.n	49a0 <__aeabi_ddiv+0xfc>
    4cf0:	4658      	mov	r0, fp
    4cf2:	f001 f9d7 	bl	60a4 <__clzsi2>
    4cf6:	3020      	adds	r0, #32
    4cf8:	e640      	b.n	497c <__aeabi_ddiv+0xd8>
    4cfa:	0003      	movs	r3, r0
    4cfc:	4652      	mov	r2, sl
    4cfe:	3b28      	subs	r3, #40	; 0x28
    4d00:	409a      	lsls	r2, r3
    4d02:	2100      	movs	r1, #0
    4d04:	4693      	mov	fp, r2
    4d06:	e677      	b.n	49f8 <__aeabi_ddiv+0x154>
    4d08:	f001 f9cc 	bl	60a4 <__clzsi2>
    4d0c:	3020      	adds	r0, #32
    4d0e:	e65f      	b.n	49d0 <__aeabi_ddiv+0x12c>
    4d10:	4588      	cmp	r8, r1
    4d12:	d200      	bcs.n	4d16 <__aeabi_ddiv+0x472>
    4d14:	e6c7      	b.n	4aa6 <__aeabi_ddiv+0x202>
    4d16:	464b      	mov	r3, r9
    4d18:	07de      	lsls	r6, r3, #31
    4d1a:	085d      	lsrs	r5, r3, #1
    4d1c:	4643      	mov	r3, r8
    4d1e:	085b      	lsrs	r3, r3, #1
    4d20:	431e      	orrs	r6, r3
    4d22:	4643      	mov	r3, r8
    4d24:	07db      	lsls	r3, r3, #31
    4d26:	469a      	mov	sl, r3
    4d28:	e6c2      	b.n	4ab0 <__aeabi_ddiv+0x20c>
    4d2a:	2500      	movs	r5, #0
    4d2c:	4592      	cmp	sl, r2
    4d2e:	d300      	bcc.n	4d32 <__aeabi_ddiv+0x48e>
    4d30:	e733      	b.n	4b9a <__aeabi_ddiv+0x2f6>
    4d32:	9e03      	ldr	r6, [sp, #12]
    4d34:	4659      	mov	r1, fp
    4d36:	46b4      	mov	ip, r6
    4d38:	44e2      	add	sl, ip
    4d3a:	45b2      	cmp	sl, r6
    4d3c:	41ad      	sbcs	r5, r5
    4d3e:	426d      	negs	r5, r5
    4d40:	4445      	add	r5, r8
    4d42:	18eb      	adds	r3, r5, r3
    4d44:	3901      	subs	r1, #1
    4d46:	4598      	cmp	r8, r3
    4d48:	d207      	bcs.n	4d5a <__aeabi_ddiv+0x4b6>
    4d4a:	4298      	cmp	r0, r3
    4d4c:	d900      	bls.n	4d50 <__aeabi_ddiv+0x4ac>
    4d4e:	e07f      	b.n	4e50 <__aeabi_ddiv+0x5ac>
    4d50:	d100      	bne.n	4d54 <__aeabi_ddiv+0x4b0>
    4d52:	e0bc      	b.n	4ece <__aeabi_ddiv+0x62a>
    4d54:	1a1d      	subs	r5, r3, r0
    4d56:	468b      	mov	fp, r1
    4d58:	e71f      	b.n	4b9a <__aeabi_ddiv+0x2f6>
    4d5a:	4598      	cmp	r8, r3
    4d5c:	d1fa      	bne.n	4d54 <__aeabi_ddiv+0x4b0>
    4d5e:	9d03      	ldr	r5, [sp, #12]
    4d60:	4555      	cmp	r5, sl
    4d62:	d9f2      	bls.n	4d4a <__aeabi_ddiv+0x4a6>
    4d64:	4643      	mov	r3, r8
    4d66:	468b      	mov	fp, r1
    4d68:	1a1d      	subs	r5, r3, r0
    4d6a:	e716      	b.n	4b9a <__aeabi_ddiv+0x2f6>
    4d6c:	469b      	mov	fp, r3
    4d6e:	e6ca      	b.n	4b06 <__aeabi_ddiv+0x262>
    4d70:	0015      	movs	r5, r2
    4d72:	e6e7      	b.n	4b44 <__aeabi_ddiv+0x2a0>
    4d74:	465a      	mov	r2, fp
    4d76:	08c9      	lsrs	r1, r1, #3
    4d78:	0752      	lsls	r2, r2, #29
    4d7a:	430a      	orrs	r2, r1
    4d7c:	055b      	lsls	r3, r3, #21
    4d7e:	4690      	mov	r8, r2
    4d80:	0d5c      	lsrs	r4, r3, #21
    4d82:	465a      	mov	r2, fp
    4d84:	2301      	movs	r3, #1
    4d86:	9902      	ldr	r1, [sp, #8]
    4d88:	0252      	lsls	r2, r2, #9
    4d8a:	4019      	ands	r1, r3
    4d8c:	0b12      	lsrs	r2, r2, #12
    4d8e:	468c      	mov	ip, r1
    4d90:	e656      	b.n	4a40 <__aeabi_ddiv+0x19c>
    4d92:	2b00      	cmp	r3, #0
    4d94:	d100      	bne.n	4d98 <__aeabi_ddiv+0x4f4>
    4d96:	e76f      	b.n	4c78 <__aeabi_ddiv+0x3d4>
    4d98:	4446      	add	r6, r8
    4d9a:	1e4a      	subs	r2, r1, #1
    4d9c:	45b0      	cmp	r8, r6
    4d9e:	d929      	bls.n	4df4 <__aeabi_ddiv+0x550>
    4da0:	0011      	movs	r1, r2
    4da2:	4286      	cmp	r6, r0
    4da4:	d000      	beq.n	4da8 <__aeabi_ddiv+0x504>
    4da6:	e765      	b.n	4c74 <__aeabi_ddiv+0x3d0>
    4da8:	9a03      	ldr	r2, [sp, #12]
    4daa:	4293      	cmp	r3, r2
    4dac:	d000      	beq.n	4db0 <__aeabi_ddiv+0x50c>
    4dae:	e761      	b.n	4c74 <__aeabi_ddiv+0x3d0>
    4db0:	e762      	b.n	4c78 <__aeabi_ddiv+0x3d4>
    4db2:	2101      	movs	r1, #1
    4db4:	4249      	negs	r1, r1
    4db6:	2001      	movs	r0, #1
    4db8:	1ac2      	subs	r2, r0, r3
    4dba:	2a38      	cmp	r2, #56	; 0x38
    4dbc:	dd21      	ble.n	4e02 <__aeabi_ddiv+0x55e>
    4dbe:	9b02      	ldr	r3, [sp, #8]
    4dc0:	4003      	ands	r3, r0
    4dc2:	469c      	mov	ip, r3
    4dc4:	e638      	b.n	4a38 <__aeabi_ddiv+0x194>
    4dc6:	220f      	movs	r2, #15
    4dc8:	400a      	ands	r2, r1
    4dca:	2a04      	cmp	r2, #4
    4dcc:	d100      	bne.n	4dd0 <__aeabi_ddiv+0x52c>
    4dce:	e75b      	b.n	4c88 <__aeabi_ddiv+0x3e4>
    4dd0:	000a      	movs	r2, r1
    4dd2:	1d11      	adds	r1, r2, #4
    4dd4:	4291      	cmp	r1, r2
    4dd6:	4192      	sbcs	r2, r2
    4dd8:	4252      	negs	r2, r2
    4dda:	4493      	add	fp, r2
    4ddc:	e754      	b.n	4c88 <__aeabi_ddiv+0x3e4>
    4dde:	4b47      	ldr	r3, [pc, #284]	; (4efc <__aeabi_ddiv+0x658>)
    4de0:	18e3      	adds	r3, r4, r3
    4de2:	2b00      	cmp	r3, #0
    4de4:	dde5      	ble.n	4db2 <__aeabi_ddiv+0x50e>
    4de6:	2201      	movs	r2, #1
    4de8:	4252      	negs	r2, r2
    4dea:	e7f2      	b.n	4dd2 <__aeabi_ddiv+0x52e>
    4dec:	001d      	movs	r5, r3
    4dee:	e6fa      	b.n	4be6 <__aeabi_ddiv+0x342>
    4df0:	469a      	mov	sl, r3
    4df2:	e71c      	b.n	4c2e <__aeabi_ddiv+0x38a>
    4df4:	42b0      	cmp	r0, r6
    4df6:	d839      	bhi.n	4e6c <__aeabi_ddiv+0x5c8>
    4df8:	d06e      	beq.n	4ed8 <__aeabi_ddiv+0x634>
    4dfa:	0011      	movs	r1, r2
    4dfc:	e73a      	b.n	4c74 <__aeabi_ddiv+0x3d0>
    4dfe:	9302      	str	r3, [sp, #8]
    4e00:	e73a      	b.n	4c78 <__aeabi_ddiv+0x3d4>
    4e02:	2a1f      	cmp	r2, #31
    4e04:	dc3c      	bgt.n	4e80 <__aeabi_ddiv+0x5dc>
    4e06:	2320      	movs	r3, #32
    4e08:	1a9b      	subs	r3, r3, r2
    4e0a:	000c      	movs	r4, r1
    4e0c:	4658      	mov	r0, fp
    4e0e:	4099      	lsls	r1, r3
    4e10:	4098      	lsls	r0, r3
    4e12:	1e4b      	subs	r3, r1, #1
    4e14:	4199      	sbcs	r1, r3
    4e16:	465b      	mov	r3, fp
    4e18:	40d4      	lsrs	r4, r2
    4e1a:	40d3      	lsrs	r3, r2
    4e1c:	4320      	orrs	r0, r4
    4e1e:	4308      	orrs	r0, r1
    4e20:	001a      	movs	r2, r3
    4e22:	0743      	lsls	r3, r0, #29
    4e24:	d009      	beq.n	4e3a <__aeabi_ddiv+0x596>
    4e26:	230f      	movs	r3, #15
    4e28:	4003      	ands	r3, r0
    4e2a:	2b04      	cmp	r3, #4
    4e2c:	d005      	beq.n	4e3a <__aeabi_ddiv+0x596>
    4e2e:	0001      	movs	r1, r0
    4e30:	1d08      	adds	r0, r1, #4
    4e32:	4288      	cmp	r0, r1
    4e34:	419b      	sbcs	r3, r3
    4e36:	425b      	negs	r3, r3
    4e38:	18d2      	adds	r2, r2, r3
    4e3a:	0213      	lsls	r3, r2, #8
    4e3c:	d53a      	bpl.n	4eb4 <__aeabi_ddiv+0x610>
    4e3e:	2301      	movs	r3, #1
    4e40:	9a02      	ldr	r2, [sp, #8]
    4e42:	2401      	movs	r4, #1
    4e44:	401a      	ands	r2, r3
    4e46:	2300      	movs	r3, #0
    4e48:	4694      	mov	ip, r2
    4e4a:	4698      	mov	r8, r3
    4e4c:	2200      	movs	r2, #0
    4e4e:	e5f7      	b.n	4a40 <__aeabi_ddiv+0x19c>
    4e50:	2102      	movs	r1, #2
    4e52:	4249      	negs	r1, r1
    4e54:	468c      	mov	ip, r1
    4e56:	9d03      	ldr	r5, [sp, #12]
    4e58:	44e3      	add	fp, ip
    4e5a:	46ac      	mov	ip, r5
    4e5c:	44e2      	add	sl, ip
    4e5e:	45aa      	cmp	sl, r5
    4e60:	41ad      	sbcs	r5, r5
    4e62:	426d      	negs	r5, r5
    4e64:	4445      	add	r5, r8
    4e66:	18ed      	adds	r5, r5, r3
    4e68:	1a2d      	subs	r5, r5, r0
    4e6a:	e696      	b.n	4b9a <__aeabi_ddiv+0x2f6>
    4e6c:	1e8a      	subs	r2, r1, #2
    4e6e:	9903      	ldr	r1, [sp, #12]
    4e70:	004d      	lsls	r5, r1, #1
    4e72:	428d      	cmp	r5, r1
    4e74:	4189      	sbcs	r1, r1
    4e76:	4249      	negs	r1, r1
    4e78:	4441      	add	r1, r8
    4e7a:	1876      	adds	r6, r6, r1
    4e7c:	9503      	str	r5, [sp, #12]
    4e7e:	e78f      	b.n	4da0 <__aeabi_ddiv+0x4fc>
    4e80:	201f      	movs	r0, #31
    4e82:	4240      	negs	r0, r0
    4e84:	1ac3      	subs	r3, r0, r3
    4e86:	4658      	mov	r0, fp
    4e88:	40d8      	lsrs	r0, r3
    4e8a:	0003      	movs	r3, r0
    4e8c:	2a20      	cmp	r2, #32
    4e8e:	d028      	beq.n	4ee2 <__aeabi_ddiv+0x63e>
    4e90:	2040      	movs	r0, #64	; 0x40
    4e92:	465d      	mov	r5, fp
    4e94:	1a82      	subs	r2, r0, r2
    4e96:	4095      	lsls	r5, r2
    4e98:	4329      	orrs	r1, r5
    4e9a:	1e4a      	subs	r2, r1, #1
    4e9c:	4191      	sbcs	r1, r2
    4e9e:	4319      	orrs	r1, r3
    4ea0:	2307      	movs	r3, #7
    4ea2:	2200      	movs	r2, #0
    4ea4:	400b      	ands	r3, r1
    4ea6:	d009      	beq.n	4ebc <__aeabi_ddiv+0x618>
    4ea8:	230f      	movs	r3, #15
    4eaa:	2200      	movs	r2, #0
    4eac:	400b      	ands	r3, r1
    4eae:	0008      	movs	r0, r1
    4eb0:	2b04      	cmp	r3, #4
    4eb2:	d1bd      	bne.n	4e30 <__aeabi_ddiv+0x58c>
    4eb4:	0001      	movs	r1, r0
    4eb6:	0753      	lsls	r3, r2, #29
    4eb8:	0252      	lsls	r2, r2, #9
    4eba:	0b12      	lsrs	r2, r2, #12
    4ebc:	08c9      	lsrs	r1, r1, #3
    4ebe:	4319      	orrs	r1, r3
    4ec0:	2301      	movs	r3, #1
    4ec2:	4688      	mov	r8, r1
    4ec4:	9902      	ldr	r1, [sp, #8]
    4ec6:	2400      	movs	r4, #0
    4ec8:	4019      	ands	r1, r3
    4eca:	468c      	mov	ip, r1
    4ecc:	e5b8      	b.n	4a40 <__aeabi_ddiv+0x19c>
    4ece:	4552      	cmp	r2, sl
    4ed0:	d8be      	bhi.n	4e50 <__aeabi_ddiv+0x5ac>
    4ed2:	468b      	mov	fp, r1
    4ed4:	2500      	movs	r5, #0
    4ed6:	e660      	b.n	4b9a <__aeabi_ddiv+0x2f6>
    4ed8:	9d03      	ldr	r5, [sp, #12]
    4eda:	429d      	cmp	r5, r3
    4edc:	d3c6      	bcc.n	4e6c <__aeabi_ddiv+0x5c8>
    4ede:	0011      	movs	r1, r2
    4ee0:	e762      	b.n	4da8 <__aeabi_ddiv+0x504>
    4ee2:	2500      	movs	r5, #0
    4ee4:	e7d8      	b.n	4e98 <__aeabi_ddiv+0x5f4>
    4ee6:	2280      	movs	r2, #128	; 0x80
    4ee8:	465b      	mov	r3, fp
    4eea:	0312      	lsls	r2, r2, #12
    4eec:	431a      	orrs	r2, r3
    4eee:	9b01      	ldr	r3, [sp, #4]
    4ef0:	0312      	lsls	r2, r2, #12
    4ef2:	0b12      	lsrs	r2, r2, #12
    4ef4:	469c      	mov	ip, r3
    4ef6:	4688      	mov	r8, r1
    4ef8:	4c03      	ldr	r4, [pc, #12]	; (4f08 <__aeabi_ddiv+0x664>)
    4efa:	e5a1      	b.n	4a40 <__aeabi_ddiv+0x19c>
    4efc:	000003ff 	.word	0x000003ff
    4f00:	feffffff 	.word	0xfeffffff
    4f04:	000007fe 	.word	0x000007fe
    4f08:	000007ff 	.word	0x000007ff

00004f0c <__eqdf2>:
    4f0c:	b5f0      	push	{r4, r5, r6, r7, lr}
    4f0e:	464f      	mov	r7, r9
    4f10:	4646      	mov	r6, r8
    4f12:	46d6      	mov	lr, sl
    4f14:	005c      	lsls	r4, r3, #1
    4f16:	b5c0      	push	{r6, r7, lr}
    4f18:	031f      	lsls	r7, r3, #12
    4f1a:	0fdb      	lsrs	r3, r3, #31
    4f1c:	469a      	mov	sl, r3
    4f1e:	4b17      	ldr	r3, [pc, #92]	; (4f7c <__eqdf2+0x70>)
    4f20:	030e      	lsls	r6, r1, #12
    4f22:	004d      	lsls	r5, r1, #1
    4f24:	4684      	mov	ip, r0
    4f26:	4680      	mov	r8, r0
    4f28:	0b36      	lsrs	r6, r6, #12
    4f2a:	0d6d      	lsrs	r5, r5, #21
    4f2c:	0fc9      	lsrs	r1, r1, #31
    4f2e:	4691      	mov	r9, r2
    4f30:	0b3f      	lsrs	r7, r7, #12
    4f32:	0d64      	lsrs	r4, r4, #21
    4f34:	2001      	movs	r0, #1
    4f36:	429d      	cmp	r5, r3
    4f38:	d008      	beq.n	4f4c <__eqdf2+0x40>
    4f3a:	429c      	cmp	r4, r3
    4f3c:	d001      	beq.n	4f42 <__eqdf2+0x36>
    4f3e:	42a5      	cmp	r5, r4
    4f40:	d00b      	beq.n	4f5a <__eqdf2+0x4e>
    4f42:	bc1c      	pop	{r2, r3, r4}
    4f44:	4690      	mov	r8, r2
    4f46:	4699      	mov	r9, r3
    4f48:	46a2      	mov	sl, r4
    4f4a:	bdf0      	pop	{r4, r5, r6, r7, pc}
    4f4c:	4663      	mov	r3, ip
    4f4e:	4333      	orrs	r3, r6
    4f50:	d1f7      	bne.n	4f42 <__eqdf2+0x36>
    4f52:	42ac      	cmp	r4, r5
    4f54:	d1f5      	bne.n	4f42 <__eqdf2+0x36>
    4f56:	433a      	orrs	r2, r7
    4f58:	d1f3      	bne.n	4f42 <__eqdf2+0x36>
    4f5a:	2001      	movs	r0, #1
    4f5c:	42be      	cmp	r6, r7
    4f5e:	d1f0      	bne.n	4f42 <__eqdf2+0x36>
    4f60:	45c8      	cmp	r8, r9
    4f62:	d1ee      	bne.n	4f42 <__eqdf2+0x36>
    4f64:	4551      	cmp	r1, sl
    4f66:	d007      	beq.n	4f78 <__eqdf2+0x6c>
    4f68:	2d00      	cmp	r5, #0
    4f6a:	d1ea      	bne.n	4f42 <__eqdf2+0x36>
    4f6c:	4663      	mov	r3, ip
    4f6e:	431e      	orrs	r6, r3
    4f70:	0030      	movs	r0, r6
    4f72:	1e46      	subs	r6, r0, #1
    4f74:	41b0      	sbcs	r0, r6
    4f76:	e7e4      	b.n	4f42 <__eqdf2+0x36>
    4f78:	2000      	movs	r0, #0
    4f7a:	e7e2      	b.n	4f42 <__eqdf2+0x36>
    4f7c:	000007ff 	.word	0x000007ff

00004f80 <__gedf2>:
    4f80:	b5f0      	push	{r4, r5, r6, r7, lr}
    4f82:	4645      	mov	r5, r8
    4f84:	46de      	mov	lr, fp
    4f86:	4657      	mov	r7, sl
    4f88:	464e      	mov	r6, r9
    4f8a:	b5e0      	push	{r5, r6, r7, lr}
    4f8c:	031f      	lsls	r7, r3, #12
    4f8e:	0b3d      	lsrs	r5, r7, #12
    4f90:	4f2c      	ldr	r7, [pc, #176]	; (5044 <__gedf2+0xc4>)
    4f92:	030e      	lsls	r6, r1, #12
    4f94:	004c      	lsls	r4, r1, #1
    4f96:	46ab      	mov	fp, r5
    4f98:	005d      	lsls	r5, r3, #1
    4f9a:	4684      	mov	ip, r0
    4f9c:	0b36      	lsrs	r6, r6, #12
    4f9e:	0d64      	lsrs	r4, r4, #21
    4fa0:	0fc9      	lsrs	r1, r1, #31
    4fa2:	4690      	mov	r8, r2
    4fa4:	0d6d      	lsrs	r5, r5, #21
    4fa6:	0fdb      	lsrs	r3, r3, #31
    4fa8:	42bc      	cmp	r4, r7
    4faa:	d02a      	beq.n	5002 <__gedf2+0x82>
    4fac:	4f25      	ldr	r7, [pc, #148]	; (5044 <__gedf2+0xc4>)
    4fae:	42bd      	cmp	r5, r7
    4fb0:	d02d      	beq.n	500e <__gedf2+0x8e>
    4fb2:	2c00      	cmp	r4, #0
    4fb4:	d10f      	bne.n	4fd6 <__gedf2+0x56>
    4fb6:	4330      	orrs	r0, r6
    4fb8:	0007      	movs	r7, r0
    4fba:	4681      	mov	r9, r0
    4fbc:	4278      	negs	r0, r7
    4fbe:	4178      	adcs	r0, r7
    4fc0:	b2c0      	uxtb	r0, r0
    4fc2:	2d00      	cmp	r5, #0
    4fc4:	d117      	bne.n	4ff6 <__gedf2+0x76>
    4fc6:	465f      	mov	r7, fp
    4fc8:	433a      	orrs	r2, r7
    4fca:	d114      	bne.n	4ff6 <__gedf2+0x76>
    4fcc:	464b      	mov	r3, r9
    4fce:	2000      	movs	r0, #0
    4fd0:	2b00      	cmp	r3, #0
    4fd2:	d00a      	beq.n	4fea <__gedf2+0x6a>
    4fd4:	e006      	b.n	4fe4 <__gedf2+0x64>
    4fd6:	2d00      	cmp	r5, #0
    4fd8:	d102      	bne.n	4fe0 <__gedf2+0x60>
    4fda:	4658      	mov	r0, fp
    4fdc:	4302      	orrs	r2, r0
    4fde:	d001      	beq.n	4fe4 <__gedf2+0x64>
    4fe0:	4299      	cmp	r1, r3
    4fe2:	d018      	beq.n	5016 <__gedf2+0x96>
    4fe4:	4248      	negs	r0, r1
    4fe6:	2101      	movs	r1, #1
    4fe8:	4308      	orrs	r0, r1
    4fea:	bc3c      	pop	{r2, r3, r4, r5}
    4fec:	4690      	mov	r8, r2
    4fee:	4699      	mov	r9, r3
    4ff0:	46a2      	mov	sl, r4
    4ff2:	46ab      	mov	fp, r5
    4ff4:	bdf0      	pop	{r4, r5, r6, r7, pc}
    4ff6:	2800      	cmp	r0, #0
    4ff8:	d0f2      	beq.n	4fe0 <__gedf2+0x60>
    4ffa:	2001      	movs	r0, #1
    4ffc:	3b01      	subs	r3, #1
    4ffe:	4318      	orrs	r0, r3
    5000:	e7f3      	b.n	4fea <__gedf2+0x6a>
    5002:	0037      	movs	r7, r6
    5004:	4307      	orrs	r7, r0
    5006:	d0d1      	beq.n	4fac <__gedf2+0x2c>
    5008:	2002      	movs	r0, #2
    500a:	4240      	negs	r0, r0
    500c:	e7ed      	b.n	4fea <__gedf2+0x6a>
    500e:	465f      	mov	r7, fp
    5010:	4317      	orrs	r7, r2
    5012:	d0ce      	beq.n	4fb2 <__gedf2+0x32>
    5014:	e7f8      	b.n	5008 <__gedf2+0x88>
    5016:	42ac      	cmp	r4, r5
    5018:	dce4      	bgt.n	4fe4 <__gedf2+0x64>
    501a:	da03      	bge.n	5024 <__gedf2+0xa4>
    501c:	1e48      	subs	r0, r1, #1
    501e:	2101      	movs	r1, #1
    5020:	4308      	orrs	r0, r1
    5022:	e7e2      	b.n	4fea <__gedf2+0x6a>
    5024:	455e      	cmp	r6, fp
    5026:	d8dd      	bhi.n	4fe4 <__gedf2+0x64>
    5028:	d006      	beq.n	5038 <__gedf2+0xb8>
    502a:	2000      	movs	r0, #0
    502c:	455e      	cmp	r6, fp
    502e:	d2dc      	bcs.n	4fea <__gedf2+0x6a>
    5030:	2301      	movs	r3, #1
    5032:	1e48      	subs	r0, r1, #1
    5034:	4318      	orrs	r0, r3
    5036:	e7d8      	b.n	4fea <__gedf2+0x6a>
    5038:	45c4      	cmp	ip, r8
    503a:	d8d3      	bhi.n	4fe4 <__gedf2+0x64>
    503c:	2000      	movs	r0, #0
    503e:	45c4      	cmp	ip, r8
    5040:	d3f6      	bcc.n	5030 <__gedf2+0xb0>
    5042:	e7d2      	b.n	4fea <__gedf2+0x6a>
    5044:	000007ff 	.word	0x000007ff

00005048 <__ledf2>:
    5048:	b5f0      	push	{r4, r5, r6, r7, lr}
    504a:	464e      	mov	r6, r9
    504c:	4645      	mov	r5, r8
    504e:	46de      	mov	lr, fp
    5050:	4657      	mov	r7, sl
    5052:	005c      	lsls	r4, r3, #1
    5054:	b5e0      	push	{r5, r6, r7, lr}
    5056:	031f      	lsls	r7, r3, #12
    5058:	0fdb      	lsrs	r3, r3, #31
    505a:	4699      	mov	r9, r3
    505c:	4b2a      	ldr	r3, [pc, #168]	; (5108 <__ledf2+0xc0>)
    505e:	030e      	lsls	r6, r1, #12
    5060:	004d      	lsls	r5, r1, #1
    5062:	0fc9      	lsrs	r1, r1, #31
    5064:	4684      	mov	ip, r0
    5066:	0b36      	lsrs	r6, r6, #12
    5068:	0d6d      	lsrs	r5, r5, #21
    506a:	468b      	mov	fp, r1
    506c:	4690      	mov	r8, r2
    506e:	0b3f      	lsrs	r7, r7, #12
    5070:	0d64      	lsrs	r4, r4, #21
    5072:	429d      	cmp	r5, r3
    5074:	d020      	beq.n	50b8 <__ledf2+0x70>
    5076:	4b24      	ldr	r3, [pc, #144]	; (5108 <__ledf2+0xc0>)
    5078:	429c      	cmp	r4, r3
    507a:	d022      	beq.n	50c2 <__ledf2+0x7a>
    507c:	2d00      	cmp	r5, #0
    507e:	d112      	bne.n	50a6 <__ledf2+0x5e>
    5080:	4330      	orrs	r0, r6
    5082:	4243      	negs	r3, r0
    5084:	4143      	adcs	r3, r0
    5086:	b2db      	uxtb	r3, r3
    5088:	2c00      	cmp	r4, #0
    508a:	d01f      	beq.n	50cc <__ledf2+0x84>
    508c:	2b00      	cmp	r3, #0
    508e:	d00c      	beq.n	50aa <__ledf2+0x62>
    5090:	464b      	mov	r3, r9
    5092:	2001      	movs	r0, #1
    5094:	3b01      	subs	r3, #1
    5096:	4303      	orrs	r3, r0
    5098:	0018      	movs	r0, r3
    509a:	bc3c      	pop	{r2, r3, r4, r5}
    509c:	4690      	mov	r8, r2
    509e:	4699      	mov	r9, r3
    50a0:	46a2      	mov	sl, r4
    50a2:	46ab      	mov	fp, r5
    50a4:	bdf0      	pop	{r4, r5, r6, r7, pc}
    50a6:	2c00      	cmp	r4, #0
    50a8:	d016      	beq.n	50d8 <__ledf2+0x90>
    50aa:	45cb      	cmp	fp, r9
    50ac:	d017      	beq.n	50de <__ledf2+0x96>
    50ae:	465b      	mov	r3, fp
    50b0:	4259      	negs	r1, r3
    50b2:	2301      	movs	r3, #1
    50b4:	430b      	orrs	r3, r1
    50b6:	e7ef      	b.n	5098 <__ledf2+0x50>
    50b8:	0031      	movs	r1, r6
    50ba:	2302      	movs	r3, #2
    50bc:	4301      	orrs	r1, r0
    50be:	d1eb      	bne.n	5098 <__ledf2+0x50>
    50c0:	e7d9      	b.n	5076 <__ledf2+0x2e>
    50c2:	0039      	movs	r1, r7
    50c4:	2302      	movs	r3, #2
    50c6:	4311      	orrs	r1, r2
    50c8:	d1e6      	bne.n	5098 <__ledf2+0x50>
    50ca:	e7d7      	b.n	507c <__ledf2+0x34>
    50cc:	433a      	orrs	r2, r7
    50ce:	d1dd      	bne.n	508c <__ledf2+0x44>
    50d0:	2300      	movs	r3, #0
    50d2:	2800      	cmp	r0, #0
    50d4:	d0e0      	beq.n	5098 <__ledf2+0x50>
    50d6:	e7ea      	b.n	50ae <__ledf2+0x66>
    50d8:	433a      	orrs	r2, r7
    50da:	d1e6      	bne.n	50aa <__ledf2+0x62>
    50dc:	e7e7      	b.n	50ae <__ledf2+0x66>
    50de:	42a5      	cmp	r5, r4
    50e0:	dce5      	bgt.n	50ae <__ledf2+0x66>
    50e2:	db05      	blt.n	50f0 <__ledf2+0xa8>
    50e4:	42be      	cmp	r6, r7
    50e6:	d8e2      	bhi.n	50ae <__ledf2+0x66>
    50e8:	d007      	beq.n	50fa <__ledf2+0xb2>
    50ea:	2300      	movs	r3, #0
    50ec:	42be      	cmp	r6, r7
    50ee:	d2d3      	bcs.n	5098 <__ledf2+0x50>
    50f0:	4659      	mov	r1, fp
    50f2:	2301      	movs	r3, #1
    50f4:	3901      	subs	r1, #1
    50f6:	430b      	orrs	r3, r1
    50f8:	e7ce      	b.n	5098 <__ledf2+0x50>
    50fa:	45c4      	cmp	ip, r8
    50fc:	d8d7      	bhi.n	50ae <__ledf2+0x66>
    50fe:	2300      	movs	r3, #0
    5100:	45c4      	cmp	ip, r8
    5102:	d3f5      	bcc.n	50f0 <__ledf2+0xa8>
    5104:	e7c8      	b.n	5098 <__ledf2+0x50>
    5106:	46c0      	nop			; (mov r8, r8)
    5108:	000007ff 	.word	0x000007ff

0000510c <__aeabi_dmul>:
    510c:	b5f0      	push	{r4, r5, r6, r7, lr}
    510e:	4657      	mov	r7, sl
    5110:	4645      	mov	r5, r8
    5112:	46de      	mov	lr, fp
    5114:	464e      	mov	r6, r9
    5116:	b5e0      	push	{r5, r6, r7, lr}
    5118:	030c      	lsls	r4, r1, #12
    511a:	4698      	mov	r8, r3
    511c:	004e      	lsls	r6, r1, #1
    511e:	0b23      	lsrs	r3, r4, #12
    5120:	b087      	sub	sp, #28
    5122:	0007      	movs	r7, r0
    5124:	4692      	mov	sl, r2
    5126:	469b      	mov	fp, r3
    5128:	0d76      	lsrs	r6, r6, #21
    512a:	0fcd      	lsrs	r5, r1, #31
    512c:	2e00      	cmp	r6, #0
    512e:	d06b      	beq.n	5208 <__aeabi_dmul+0xfc>
    5130:	4b6d      	ldr	r3, [pc, #436]	; (52e8 <__aeabi_dmul+0x1dc>)
    5132:	429e      	cmp	r6, r3
    5134:	d035      	beq.n	51a2 <__aeabi_dmul+0x96>
    5136:	2480      	movs	r4, #128	; 0x80
    5138:	465b      	mov	r3, fp
    513a:	0f42      	lsrs	r2, r0, #29
    513c:	0424      	lsls	r4, r4, #16
    513e:	00db      	lsls	r3, r3, #3
    5140:	4314      	orrs	r4, r2
    5142:	431c      	orrs	r4, r3
    5144:	00c3      	lsls	r3, r0, #3
    5146:	4699      	mov	r9, r3
    5148:	4b68      	ldr	r3, [pc, #416]	; (52ec <__aeabi_dmul+0x1e0>)
    514a:	46a3      	mov	fp, r4
    514c:	469c      	mov	ip, r3
    514e:	2300      	movs	r3, #0
    5150:	2700      	movs	r7, #0
    5152:	4466      	add	r6, ip
    5154:	9302      	str	r3, [sp, #8]
    5156:	4643      	mov	r3, r8
    5158:	031c      	lsls	r4, r3, #12
    515a:	005a      	lsls	r2, r3, #1
    515c:	0fdb      	lsrs	r3, r3, #31
    515e:	4650      	mov	r0, sl
    5160:	0b24      	lsrs	r4, r4, #12
    5162:	0d52      	lsrs	r2, r2, #21
    5164:	4698      	mov	r8, r3
    5166:	d100      	bne.n	516a <__aeabi_dmul+0x5e>
    5168:	e076      	b.n	5258 <__aeabi_dmul+0x14c>
    516a:	4b5f      	ldr	r3, [pc, #380]	; (52e8 <__aeabi_dmul+0x1dc>)
    516c:	429a      	cmp	r2, r3
    516e:	d06d      	beq.n	524c <__aeabi_dmul+0x140>
    5170:	2380      	movs	r3, #128	; 0x80
    5172:	0f41      	lsrs	r1, r0, #29
    5174:	041b      	lsls	r3, r3, #16
    5176:	430b      	orrs	r3, r1
    5178:	495c      	ldr	r1, [pc, #368]	; (52ec <__aeabi_dmul+0x1e0>)
    517a:	00e4      	lsls	r4, r4, #3
    517c:	468c      	mov	ip, r1
    517e:	431c      	orrs	r4, r3
    5180:	00c3      	lsls	r3, r0, #3
    5182:	2000      	movs	r0, #0
    5184:	4462      	add	r2, ip
    5186:	4641      	mov	r1, r8
    5188:	18b6      	adds	r6, r6, r2
    518a:	4069      	eors	r1, r5
    518c:	1c72      	adds	r2, r6, #1
    518e:	9101      	str	r1, [sp, #4]
    5190:	4694      	mov	ip, r2
    5192:	4307      	orrs	r7, r0
    5194:	2f0f      	cmp	r7, #15
    5196:	d900      	bls.n	519a <__aeabi_dmul+0x8e>
    5198:	e0b0      	b.n	52fc <__aeabi_dmul+0x1f0>
    519a:	4a55      	ldr	r2, [pc, #340]	; (52f0 <__aeabi_dmul+0x1e4>)
    519c:	00bf      	lsls	r7, r7, #2
    519e:	59d2      	ldr	r2, [r2, r7]
    51a0:	4697      	mov	pc, r2
    51a2:	465b      	mov	r3, fp
    51a4:	4303      	orrs	r3, r0
    51a6:	4699      	mov	r9, r3
    51a8:	d000      	beq.n	51ac <__aeabi_dmul+0xa0>
    51aa:	e087      	b.n	52bc <__aeabi_dmul+0x1b0>
    51ac:	2300      	movs	r3, #0
    51ae:	469b      	mov	fp, r3
    51b0:	3302      	adds	r3, #2
    51b2:	2708      	movs	r7, #8
    51b4:	9302      	str	r3, [sp, #8]
    51b6:	e7ce      	b.n	5156 <__aeabi_dmul+0x4a>
    51b8:	4642      	mov	r2, r8
    51ba:	9201      	str	r2, [sp, #4]
    51bc:	2802      	cmp	r0, #2
    51be:	d067      	beq.n	5290 <__aeabi_dmul+0x184>
    51c0:	2803      	cmp	r0, #3
    51c2:	d100      	bne.n	51c6 <__aeabi_dmul+0xba>
    51c4:	e20e      	b.n	55e4 <__aeabi_dmul+0x4d8>
    51c6:	2801      	cmp	r0, #1
    51c8:	d000      	beq.n	51cc <__aeabi_dmul+0xc0>
    51ca:	e162      	b.n	5492 <__aeabi_dmul+0x386>
    51cc:	2300      	movs	r3, #0
    51ce:	2400      	movs	r4, #0
    51d0:	2200      	movs	r2, #0
    51d2:	4699      	mov	r9, r3
    51d4:	9901      	ldr	r1, [sp, #4]
    51d6:	4001      	ands	r1, r0
    51d8:	b2cd      	uxtb	r5, r1
    51da:	2100      	movs	r1, #0
    51dc:	0312      	lsls	r2, r2, #12
    51de:	0d0b      	lsrs	r3, r1, #20
    51e0:	0b12      	lsrs	r2, r2, #12
    51e2:	051b      	lsls	r3, r3, #20
    51e4:	4313      	orrs	r3, r2
    51e6:	4a43      	ldr	r2, [pc, #268]	; (52f4 <__aeabi_dmul+0x1e8>)
    51e8:	0524      	lsls	r4, r4, #20
    51ea:	4013      	ands	r3, r2
    51ec:	431c      	orrs	r4, r3
    51ee:	0064      	lsls	r4, r4, #1
    51f0:	07ed      	lsls	r5, r5, #31
    51f2:	0864      	lsrs	r4, r4, #1
    51f4:	432c      	orrs	r4, r5
    51f6:	4648      	mov	r0, r9
    51f8:	0021      	movs	r1, r4
    51fa:	b007      	add	sp, #28
    51fc:	bc3c      	pop	{r2, r3, r4, r5}
    51fe:	4690      	mov	r8, r2
    5200:	4699      	mov	r9, r3
    5202:	46a2      	mov	sl, r4
    5204:	46ab      	mov	fp, r5
    5206:	bdf0      	pop	{r4, r5, r6, r7, pc}
    5208:	4303      	orrs	r3, r0
    520a:	4699      	mov	r9, r3
    520c:	d04f      	beq.n	52ae <__aeabi_dmul+0x1a2>
    520e:	465b      	mov	r3, fp
    5210:	2b00      	cmp	r3, #0
    5212:	d100      	bne.n	5216 <__aeabi_dmul+0x10a>
    5214:	e189      	b.n	552a <__aeabi_dmul+0x41e>
    5216:	4658      	mov	r0, fp
    5218:	f000 ff44 	bl	60a4 <__clzsi2>
    521c:	0003      	movs	r3, r0
    521e:	3b0b      	subs	r3, #11
    5220:	2b1c      	cmp	r3, #28
    5222:	dd00      	ble.n	5226 <__aeabi_dmul+0x11a>
    5224:	e17a      	b.n	551c <__aeabi_dmul+0x410>
    5226:	221d      	movs	r2, #29
    5228:	1ad3      	subs	r3, r2, r3
    522a:	003a      	movs	r2, r7
    522c:	0001      	movs	r1, r0
    522e:	465c      	mov	r4, fp
    5230:	40da      	lsrs	r2, r3
    5232:	3908      	subs	r1, #8
    5234:	408c      	lsls	r4, r1
    5236:	0013      	movs	r3, r2
    5238:	408f      	lsls	r7, r1
    523a:	4323      	orrs	r3, r4
    523c:	469b      	mov	fp, r3
    523e:	46b9      	mov	r9, r7
    5240:	2300      	movs	r3, #0
    5242:	4e2d      	ldr	r6, [pc, #180]	; (52f8 <__aeabi_dmul+0x1ec>)
    5244:	2700      	movs	r7, #0
    5246:	1a36      	subs	r6, r6, r0
    5248:	9302      	str	r3, [sp, #8]
    524a:	e784      	b.n	5156 <__aeabi_dmul+0x4a>
    524c:	4653      	mov	r3, sl
    524e:	4323      	orrs	r3, r4
    5250:	d12a      	bne.n	52a8 <__aeabi_dmul+0x19c>
    5252:	2400      	movs	r4, #0
    5254:	2002      	movs	r0, #2
    5256:	e796      	b.n	5186 <__aeabi_dmul+0x7a>
    5258:	4653      	mov	r3, sl
    525a:	4323      	orrs	r3, r4
    525c:	d020      	beq.n	52a0 <__aeabi_dmul+0x194>
    525e:	2c00      	cmp	r4, #0
    5260:	d100      	bne.n	5264 <__aeabi_dmul+0x158>
    5262:	e157      	b.n	5514 <__aeabi_dmul+0x408>
    5264:	0020      	movs	r0, r4
    5266:	f000 ff1d 	bl	60a4 <__clzsi2>
    526a:	0003      	movs	r3, r0
    526c:	3b0b      	subs	r3, #11
    526e:	2b1c      	cmp	r3, #28
    5270:	dd00      	ble.n	5274 <__aeabi_dmul+0x168>
    5272:	e149      	b.n	5508 <__aeabi_dmul+0x3fc>
    5274:	211d      	movs	r1, #29
    5276:	1acb      	subs	r3, r1, r3
    5278:	4651      	mov	r1, sl
    527a:	0002      	movs	r2, r0
    527c:	40d9      	lsrs	r1, r3
    527e:	4653      	mov	r3, sl
    5280:	3a08      	subs	r2, #8
    5282:	4094      	lsls	r4, r2
    5284:	4093      	lsls	r3, r2
    5286:	430c      	orrs	r4, r1
    5288:	4a1b      	ldr	r2, [pc, #108]	; (52f8 <__aeabi_dmul+0x1ec>)
    528a:	1a12      	subs	r2, r2, r0
    528c:	2000      	movs	r0, #0
    528e:	e77a      	b.n	5186 <__aeabi_dmul+0x7a>
    5290:	2501      	movs	r5, #1
    5292:	9b01      	ldr	r3, [sp, #4]
    5294:	4c14      	ldr	r4, [pc, #80]	; (52e8 <__aeabi_dmul+0x1dc>)
    5296:	401d      	ands	r5, r3
    5298:	2300      	movs	r3, #0
    529a:	2200      	movs	r2, #0
    529c:	4699      	mov	r9, r3
    529e:	e79c      	b.n	51da <__aeabi_dmul+0xce>
    52a0:	2400      	movs	r4, #0
    52a2:	2200      	movs	r2, #0
    52a4:	2001      	movs	r0, #1
    52a6:	e76e      	b.n	5186 <__aeabi_dmul+0x7a>
    52a8:	4653      	mov	r3, sl
    52aa:	2003      	movs	r0, #3
    52ac:	e76b      	b.n	5186 <__aeabi_dmul+0x7a>
    52ae:	2300      	movs	r3, #0
    52b0:	469b      	mov	fp, r3
    52b2:	3301      	adds	r3, #1
    52b4:	2704      	movs	r7, #4
    52b6:	2600      	movs	r6, #0
    52b8:	9302      	str	r3, [sp, #8]
    52ba:	e74c      	b.n	5156 <__aeabi_dmul+0x4a>
    52bc:	2303      	movs	r3, #3
    52be:	4681      	mov	r9, r0
    52c0:	270c      	movs	r7, #12
    52c2:	9302      	str	r3, [sp, #8]
    52c4:	e747      	b.n	5156 <__aeabi_dmul+0x4a>
    52c6:	2280      	movs	r2, #128	; 0x80
    52c8:	2300      	movs	r3, #0
    52ca:	2500      	movs	r5, #0
    52cc:	0312      	lsls	r2, r2, #12
    52ce:	4699      	mov	r9, r3
    52d0:	4c05      	ldr	r4, [pc, #20]	; (52e8 <__aeabi_dmul+0x1dc>)
    52d2:	e782      	b.n	51da <__aeabi_dmul+0xce>
    52d4:	465c      	mov	r4, fp
    52d6:	464b      	mov	r3, r9
    52d8:	9802      	ldr	r0, [sp, #8]
    52da:	e76f      	b.n	51bc <__aeabi_dmul+0xb0>
    52dc:	465c      	mov	r4, fp
    52de:	464b      	mov	r3, r9
    52e0:	9501      	str	r5, [sp, #4]
    52e2:	9802      	ldr	r0, [sp, #8]
    52e4:	e76a      	b.n	51bc <__aeabi_dmul+0xb0>
    52e6:	46c0      	nop			; (mov r8, r8)
    52e8:	000007ff 	.word	0x000007ff
    52ec:	fffffc01 	.word	0xfffffc01
    52f0:	00006320 	.word	0x00006320
    52f4:	800fffff 	.word	0x800fffff
    52f8:	fffffc0d 	.word	0xfffffc0d
    52fc:	464a      	mov	r2, r9
    52fe:	4649      	mov	r1, r9
    5300:	0c17      	lsrs	r7, r2, #16
    5302:	0c1a      	lsrs	r2, r3, #16
    5304:	041b      	lsls	r3, r3, #16
    5306:	0c1b      	lsrs	r3, r3, #16
    5308:	0408      	lsls	r0, r1, #16
    530a:	0019      	movs	r1, r3
    530c:	0c00      	lsrs	r0, r0, #16
    530e:	4341      	muls	r1, r0
    5310:	0015      	movs	r5, r2
    5312:	4688      	mov	r8, r1
    5314:	0019      	movs	r1, r3
    5316:	437d      	muls	r5, r7
    5318:	4379      	muls	r1, r7
    531a:	9503      	str	r5, [sp, #12]
    531c:	4689      	mov	r9, r1
    531e:	0029      	movs	r1, r5
    5320:	0015      	movs	r5, r2
    5322:	4345      	muls	r5, r0
    5324:	444d      	add	r5, r9
    5326:	9502      	str	r5, [sp, #8]
    5328:	4645      	mov	r5, r8
    532a:	0c2d      	lsrs	r5, r5, #16
    532c:	46aa      	mov	sl, r5
    532e:	9d02      	ldr	r5, [sp, #8]
    5330:	4455      	add	r5, sl
    5332:	45a9      	cmp	r9, r5
    5334:	d906      	bls.n	5344 <__aeabi_dmul+0x238>
    5336:	468a      	mov	sl, r1
    5338:	2180      	movs	r1, #128	; 0x80
    533a:	0249      	lsls	r1, r1, #9
    533c:	4689      	mov	r9, r1
    533e:	44ca      	add	sl, r9
    5340:	4651      	mov	r1, sl
    5342:	9103      	str	r1, [sp, #12]
    5344:	0c29      	lsrs	r1, r5, #16
    5346:	9104      	str	r1, [sp, #16]
    5348:	4641      	mov	r1, r8
    534a:	0409      	lsls	r1, r1, #16
    534c:	042d      	lsls	r5, r5, #16
    534e:	0c09      	lsrs	r1, r1, #16
    5350:	4688      	mov	r8, r1
    5352:	0029      	movs	r1, r5
    5354:	0c25      	lsrs	r5, r4, #16
    5356:	0424      	lsls	r4, r4, #16
    5358:	4441      	add	r1, r8
    535a:	0c24      	lsrs	r4, r4, #16
    535c:	9105      	str	r1, [sp, #20]
    535e:	0021      	movs	r1, r4
    5360:	4341      	muls	r1, r0
    5362:	4688      	mov	r8, r1
    5364:	0021      	movs	r1, r4
    5366:	4379      	muls	r1, r7
    5368:	468a      	mov	sl, r1
    536a:	4368      	muls	r0, r5
    536c:	4641      	mov	r1, r8
    536e:	4450      	add	r0, sl
    5370:	4681      	mov	r9, r0
    5372:	0c08      	lsrs	r0, r1, #16
    5374:	4448      	add	r0, r9
    5376:	436f      	muls	r7, r5
    5378:	4582      	cmp	sl, r0
    537a:	d903      	bls.n	5384 <__aeabi_dmul+0x278>
    537c:	2180      	movs	r1, #128	; 0x80
    537e:	0249      	lsls	r1, r1, #9
    5380:	4689      	mov	r9, r1
    5382:	444f      	add	r7, r9
    5384:	0c01      	lsrs	r1, r0, #16
    5386:	4689      	mov	r9, r1
    5388:	0039      	movs	r1, r7
    538a:	4449      	add	r1, r9
    538c:	9102      	str	r1, [sp, #8]
    538e:	4641      	mov	r1, r8
    5390:	040f      	lsls	r7, r1, #16
    5392:	9904      	ldr	r1, [sp, #16]
    5394:	0c3f      	lsrs	r7, r7, #16
    5396:	4688      	mov	r8, r1
    5398:	0400      	lsls	r0, r0, #16
    539a:	19c0      	adds	r0, r0, r7
    539c:	4480      	add	r8, r0
    539e:	4641      	mov	r1, r8
    53a0:	9104      	str	r1, [sp, #16]
    53a2:	4659      	mov	r1, fp
    53a4:	0c0f      	lsrs	r7, r1, #16
    53a6:	0409      	lsls	r1, r1, #16
    53a8:	0c09      	lsrs	r1, r1, #16
    53aa:	4688      	mov	r8, r1
    53ac:	4359      	muls	r1, r3
    53ae:	468a      	mov	sl, r1
    53b0:	0039      	movs	r1, r7
    53b2:	4351      	muls	r1, r2
    53b4:	4689      	mov	r9, r1
    53b6:	4641      	mov	r1, r8
    53b8:	434a      	muls	r2, r1
    53ba:	4651      	mov	r1, sl
    53bc:	0c09      	lsrs	r1, r1, #16
    53be:	468b      	mov	fp, r1
    53c0:	437b      	muls	r3, r7
    53c2:	18d2      	adds	r2, r2, r3
    53c4:	445a      	add	r2, fp
    53c6:	4293      	cmp	r3, r2
    53c8:	d903      	bls.n	53d2 <__aeabi_dmul+0x2c6>
    53ca:	2380      	movs	r3, #128	; 0x80
    53cc:	025b      	lsls	r3, r3, #9
    53ce:	469b      	mov	fp, r3
    53d0:	44d9      	add	r9, fp
    53d2:	4651      	mov	r1, sl
    53d4:	0409      	lsls	r1, r1, #16
    53d6:	0c09      	lsrs	r1, r1, #16
    53d8:	468a      	mov	sl, r1
    53da:	4641      	mov	r1, r8
    53dc:	4361      	muls	r1, r4
    53de:	437c      	muls	r4, r7
    53e0:	0c13      	lsrs	r3, r2, #16
    53e2:	0412      	lsls	r2, r2, #16
    53e4:	444b      	add	r3, r9
    53e6:	4452      	add	r2, sl
    53e8:	46a1      	mov	r9, r4
    53ea:	468a      	mov	sl, r1
    53ec:	003c      	movs	r4, r7
    53ee:	4641      	mov	r1, r8
    53f0:	436c      	muls	r4, r5
    53f2:	434d      	muls	r5, r1
    53f4:	4651      	mov	r1, sl
    53f6:	444d      	add	r5, r9
    53f8:	0c0f      	lsrs	r7, r1, #16
    53fa:	197d      	adds	r5, r7, r5
    53fc:	45a9      	cmp	r9, r5
    53fe:	d903      	bls.n	5408 <__aeabi_dmul+0x2fc>
    5400:	2180      	movs	r1, #128	; 0x80
    5402:	0249      	lsls	r1, r1, #9
    5404:	4688      	mov	r8, r1
    5406:	4444      	add	r4, r8
    5408:	9f04      	ldr	r7, [sp, #16]
    540a:	9903      	ldr	r1, [sp, #12]
    540c:	46b8      	mov	r8, r7
    540e:	4441      	add	r1, r8
    5410:	468b      	mov	fp, r1
    5412:	4583      	cmp	fp, r0
    5414:	4180      	sbcs	r0, r0
    5416:	4241      	negs	r1, r0
    5418:	4688      	mov	r8, r1
    541a:	4651      	mov	r1, sl
    541c:	0408      	lsls	r0, r1, #16
    541e:	042f      	lsls	r7, r5, #16
    5420:	0c00      	lsrs	r0, r0, #16
    5422:	183f      	adds	r7, r7, r0
    5424:	4658      	mov	r0, fp
    5426:	9902      	ldr	r1, [sp, #8]
    5428:	1810      	adds	r0, r2, r0
    542a:	4689      	mov	r9, r1
    542c:	4290      	cmp	r0, r2
    542e:	4192      	sbcs	r2, r2
    5430:	444f      	add	r7, r9
    5432:	46ba      	mov	sl, r7
    5434:	4252      	negs	r2, r2
    5436:	4699      	mov	r9, r3
    5438:	4693      	mov	fp, r2
    543a:	44c2      	add	sl, r8
    543c:	44d1      	add	r9, sl
    543e:	44cb      	add	fp, r9
    5440:	428f      	cmp	r7, r1
    5442:	41bf      	sbcs	r7, r7
    5444:	45c2      	cmp	sl, r8
    5446:	4189      	sbcs	r1, r1
    5448:	4599      	cmp	r9, r3
    544a:	419b      	sbcs	r3, r3
    544c:	4593      	cmp	fp, r2
    544e:	4192      	sbcs	r2, r2
    5450:	427f      	negs	r7, r7
    5452:	4249      	negs	r1, r1
    5454:	0c2d      	lsrs	r5, r5, #16
    5456:	4252      	negs	r2, r2
    5458:	430f      	orrs	r7, r1
    545a:	425b      	negs	r3, r3
    545c:	4313      	orrs	r3, r2
    545e:	197f      	adds	r7, r7, r5
    5460:	18ff      	adds	r7, r7, r3
    5462:	465b      	mov	r3, fp
    5464:	193c      	adds	r4, r7, r4
    5466:	0ddb      	lsrs	r3, r3, #23
    5468:	9a05      	ldr	r2, [sp, #20]
    546a:	0264      	lsls	r4, r4, #9
    546c:	431c      	orrs	r4, r3
    546e:	0243      	lsls	r3, r0, #9
    5470:	4313      	orrs	r3, r2
    5472:	1e5d      	subs	r5, r3, #1
    5474:	41ab      	sbcs	r3, r5
    5476:	465a      	mov	r2, fp
    5478:	0dc0      	lsrs	r0, r0, #23
    547a:	4303      	orrs	r3, r0
    547c:	0252      	lsls	r2, r2, #9
    547e:	4313      	orrs	r3, r2
    5480:	01e2      	lsls	r2, r4, #7
    5482:	d556      	bpl.n	5532 <__aeabi_dmul+0x426>
    5484:	2001      	movs	r0, #1
    5486:	085a      	lsrs	r2, r3, #1
    5488:	4003      	ands	r3, r0
    548a:	4313      	orrs	r3, r2
    548c:	07e2      	lsls	r2, r4, #31
    548e:	4313      	orrs	r3, r2
    5490:	0864      	lsrs	r4, r4, #1
    5492:	485a      	ldr	r0, [pc, #360]	; (55fc <__aeabi_dmul+0x4f0>)
    5494:	4460      	add	r0, ip
    5496:	2800      	cmp	r0, #0
    5498:	dd4d      	ble.n	5536 <__aeabi_dmul+0x42a>
    549a:	075a      	lsls	r2, r3, #29
    549c:	d009      	beq.n	54b2 <__aeabi_dmul+0x3a6>
    549e:	220f      	movs	r2, #15
    54a0:	401a      	ands	r2, r3
    54a2:	2a04      	cmp	r2, #4
    54a4:	d005      	beq.n	54b2 <__aeabi_dmul+0x3a6>
    54a6:	1d1a      	adds	r2, r3, #4
    54a8:	429a      	cmp	r2, r3
    54aa:	419b      	sbcs	r3, r3
    54ac:	425b      	negs	r3, r3
    54ae:	18e4      	adds	r4, r4, r3
    54b0:	0013      	movs	r3, r2
    54b2:	01e2      	lsls	r2, r4, #7
    54b4:	d504      	bpl.n	54c0 <__aeabi_dmul+0x3b4>
    54b6:	2080      	movs	r0, #128	; 0x80
    54b8:	4a51      	ldr	r2, [pc, #324]	; (5600 <__aeabi_dmul+0x4f4>)
    54ba:	00c0      	lsls	r0, r0, #3
    54bc:	4014      	ands	r4, r2
    54be:	4460      	add	r0, ip
    54c0:	4a50      	ldr	r2, [pc, #320]	; (5604 <__aeabi_dmul+0x4f8>)
    54c2:	4290      	cmp	r0, r2
    54c4:	dd00      	ble.n	54c8 <__aeabi_dmul+0x3bc>
    54c6:	e6e3      	b.n	5290 <__aeabi_dmul+0x184>
    54c8:	2501      	movs	r5, #1
    54ca:	08db      	lsrs	r3, r3, #3
    54cc:	0762      	lsls	r2, r4, #29
    54ce:	431a      	orrs	r2, r3
    54d0:	0264      	lsls	r4, r4, #9
    54d2:	9b01      	ldr	r3, [sp, #4]
    54d4:	4691      	mov	r9, r2
    54d6:	0b22      	lsrs	r2, r4, #12
    54d8:	0544      	lsls	r4, r0, #21
    54da:	0d64      	lsrs	r4, r4, #21
    54dc:	401d      	ands	r5, r3
    54de:	e67c      	b.n	51da <__aeabi_dmul+0xce>
    54e0:	2280      	movs	r2, #128	; 0x80
    54e2:	4659      	mov	r1, fp
    54e4:	0312      	lsls	r2, r2, #12
    54e6:	4211      	tst	r1, r2
    54e8:	d008      	beq.n	54fc <__aeabi_dmul+0x3f0>
    54ea:	4214      	tst	r4, r2
    54ec:	d106      	bne.n	54fc <__aeabi_dmul+0x3f0>
    54ee:	4322      	orrs	r2, r4
    54f0:	0312      	lsls	r2, r2, #12
    54f2:	0b12      	lsrs	r2, r2, #12
    54f4:	4645      	mov	r5, r8
    54f6:	4699      	mov	r9, r3
    54f8:	4c43      	ldr	r4, [pc, #268]	; (5608 <__aeabi_dmul+0x4fc>)
    54fa:	e66e      	b.n	51da <__aeabi_dmul+0xce>
    54fc:	465b      	mov	r3, fp
    54fe:	431a      	orrs	r2, r3
    5500:	0312      	lsls	r2, r2, #12
    5502:	0b12      	lsrs	r2, r2, #12
    5504:	4c40      	ldr	r4, [pc, #256]	; (5608 <__aeabi_dmul+0x4fc>)
    5506:	e668      	b.n	51da <__aeabi_dmul+0xce>
    5508:	0003      	movs	r3, r0
    550a:	4654      	mov	r4, sl
    550c:	3b28      	subs	r3, #40	; 0x28
    550e:	409c      	lsls	r4, r3
    5510:	2300      	movs	r3, #0
    5512:	e6b9      	b.n	5288 <__aeabi_dmul+0x17c>
    5514:	f000 fdc6 	bl	60a4 <__clzsi2>
    5518:	3020      	adds	r0, #32
    551a:	e6a6      	b.n	526a <__aeabi_dmul+0x15e>
    551c:	0003      	movs	r3, r0
    551e:	3b28      	subs	r3, #40	; 0x28
    5520:	409f      	lsls	r7, r3
    5522:	2300      	movs	r3, #0
    5524:	46bb      	mov	fp, r7
    5526:	4699      	mov	r9, r3
    5528:	e68a      	b.n	5240 <__aeabi_dmul+0x134>
    552a:	f000 fdbb 	bl	60a4 <__clzsi2>
    552e:	3020      	adds	r0, #32
    5530:	e674      	b.n	521c <__aeabi_dmul+0x110>
    5532:	46b4      	mov	ip, r6
    5534:	e7ad      	b.n	5492 <__aeabi_dmul+0x386>
    5536:	2501      	movs	r5, #1
    5538:	1a2a      	subs	r2, r5, r0
    553a:	2a38      	cmp	r2, #56	; 0x38
    553c:	dd06      	ble.n	554c <__aeabi_dmul+0x440>
    553e:	9b01      	ldr	r3, [sp, #4]
    5540:	2400      	movs	r4, #0
    5542:	401d      	ands	r5, r3
    5544:	2300      	movs	r3, #0
    5546:	2200      	movs	r2, #0
    5548:	4699      	mov	r9, r3
    554a:	e646      	b.n	51da <__aeabi_dmul+0xce>
    554c:	2a1f      	cmp	r2, #31
    554e:	dc21      	bgt.n	5594 <__aeabi_dmul+0x488>
    5550:	2520      	movs	r5, #32
    5552:	0020      	movs	r0, r4
    5554:	1aad      	subs	r5, r5, r2
    5556:	001e      	movs	r6, r3
    5558:	40ab      	lsls	r3, r5
    555a:	40a8      	lsls	r0, r5
    555c:	40d6      	lsrs	r6, r2
    555e:	1e5d      	subs	r5, r3, #1
    5560:	41ab      	sbcs	r3, r5
    5562:	4330      	orrs	r0, r6
    5564:	4318      	orrs	r0, r3
    5566:	40d4      	lsrs	r4, r2
    5568:	0743      	lsls	r3, r0, #29
    556a:	d009      	beq.n	5580 <__aeabi_dmul+0x474>
    556c:	230f      	movs	r3, #15
    556e:	4003      	ands	r3, r0
    5570:	2b04      	cmp	r3, #4
    5572:	d005      	beq.n	5580 <__aeabi_dmul+0x474>
    5574:	0003      	movs	r3, r0
    5576:	1d18      	adds	r0, r3, #4
    5578:	4298      	cmp	r0, r3
    557a:	419b      	sbcs	r3, r3
    557c:	425b      	negs	r3, r3
    557e:	18e4      	adds	r4, r4, r3
    5580:	0223      	lsls	r3, r4, #8
    5582:	d521      	bpl.n	55c8 <__aeabi_dmul+0x4bc>
    5584:	2501      	movs	r5, #1
    5586:	9b01      	ldr	r3, [sp, #4]
    5588:	2401      	movs	r4, #1
    558a:	401d      	ands	r5, r3
    558c:	2300      	movs	r3, #0
    558e:	2200      	movs	r2, #0
    5590:	4699      	mov	r9, r3
    5592:	e622      	b.n	51da <__aeabi_dmul+0xce>
    5594:	251f      	movs	r5, #31
    5596:	0021      	movs	r1, r4
    5598:	426d      	negs	r5, r5
    559a:	1a28      	subs	r0, r5, r0
    559c:	40c1      	lsrs	r1, r0
    559e:	0008      	movs	r0, r1
    55a0:	2a20      	cmp	r2, #32
    55a2:	d01d      	beq.n	55e0 <__aeabi_dmul+0x4d4>
    55a4:	355f      	adds	r5, #95	; 0x5f
    55a6:	1aaa      	subs	r2, r5, r2
    55a8:	4094      	lsls	r4, r2
    55aa:	4323      	orrs	r3, r4
    55ac:	1e5c      	subs	r4, r3, #1
    55ae:	41a3      	sbcs	r3, r4
    55b0:	2507      	movs	r5, #7
    55b2:	4303      	orrs	r3, r0
    55b4:	401d      	ands	r5, r3
    55b6:	2200      	movs	r2, #0
    55b8:	2d00      	cmp	r5, #0
    55ba:	d009      	beq.n	55d0 <__aeabi_dmul+0x4c4>
    55bc:	220f      	movs	r2, #15
    55be:	2400      	movs	r4, #0
    55c0:	401a      	ands	r2, r3
    55c2:	0018      	movs	r0, r3
    55c4:	2a04      	cmp	r2, #4
    55c6:	d1d6      	bne.n	5576 <__aeabi_dmul+0x46a>
    55c8:	0003      	movs	r3, r0
    55ca:	0765      	lsls	r5, r4, #29
    55cc:	0264      	lsls	r4, r4, #9
    55ce:	0b22      	lsrs	r2, r4, #12
    55d0:	08db      	lsrs	r3, r3, #3
    55d2:	432b      	orrs	r3, r5
    55d4:	2501      	movs	r5, #1
    55d6:	4699      	mov	r9, r3
    55d8:	9b01      	ldr	r3, [sp, #4]
    55da:	2400      	movs	r4, #0
    55dc:	401d      	ands	r5, r3
    55de:	e5fc      	b.n	51da <__aeabi_dmul+0xce>
    55e0:	2400      	movs	r4, #0
    55e2:	e7e2      	b.n	55aa <__aeabi_dmul+0x49e>
    55e4:	2280      	movs	r2, #128	; 0x80
    55e6:	2501      	movs	r5, #1
    55e8:	0312      	lsls	r2, r2, #12
    55ea:	4322      	orrs	r2, r4
    55ec:	9901      	ldr	r1, [sp, #4]
    55ee:	0312      	lsls	r2, r2, #12
    55f0:	0b12      	lsrs	r2, r2, #12
    55f2:	400d      	ands	r5, r1
    55f4:	4699      	mov	r9, r3
    55f6:	4c04      	ldr	r4, [pc, #16]	; (5608 <__aeabi_dmul+0x4fc>)
    55f8:	e5ef      	b.n	51da <__aeabi_dmul+0xce>
    55fa:	46c0      	nop			; (mov r8, r8)
    55fc:	000003ff 	.word	0x000003ff
    5600:	feffffff 	.word	0xfeffffff
    5604:	000007fe 	.word	0x000007fe
    5608:	000007ff 	.word	0x000007ff

0000560c <__aeabi_dsub>:
    560c:	b5f0      	push	{r4, r5, r6, r7, lr}
    560e:	4646      	mov	r6, r8
    5610:	46d6      	mov	lr, sl
    5612:	464f      	mov	r7, r9
    5614:	030c      	lsls	r4, r1, #12
    5616:	b5c0      	push	{r6, r7, lr}
    5618:	0fcd      	lsrs	r5, r1, #31
    561a:	004e      	lsls	r6, r1, #1
    561c:	0a61      	lsrs	r1, r4, #9
    561e:	0f44      	lsrs	r4, r0, #29
    5620:	430c      	orrs	r4, r1
    5622:	00c1      	lsls	r1, r0, #3
    5624:	0058      	lsls	r0, r3, #1
    5626:	0d40      	lsrs	r0, r0, #21
    5628:	4684      	mov	ip, r0
    562a:	468a      	mov	sl, r1
    562c:	000f      	movs	r7, r1
    562e:	0319      	lsls	r1, r3, #12
    5630:	0f50      	lsrs	r0, r2, #29
    5632:	0a49      	lsrs	r1, r1, #9
    5634:	4301      	orrs	r1, r0
    5636:	48c6      	ldr	r0, [pc, #792]	; (5950 <__aeabi_dsub+0x344>)
    5638:	0d76      	lsrs	r6, r6, #21
    563a:	46a8      	mov	r8, r5
    563c:	0fdb      	lsrs	r3, r3, #31
    563e:	00d2      	lsls	r2, r2, #3
    5640:	4584      	cmp	ip, r0
    5642:	d100      	bne.n	5646 <__aeabi_dsub+0x3a>
    5644:	e0d8      	b.n	57f8 <__aeabi_dsub+0x1ec>
    5646:	2001      	movs	r0, #1
    5648:	4043      	eors	r3, r0
    564a:	42ab      	cmp	r3, r5
    564c:	d100      	bne.n	5650 <__aeabi_dsub+0x44>
    564e:	e0a6      	b.n	579e <__aeabi_dsub+0x192>
    5650:	4660      	mov	r0, ip
    5652:	1a35      	subs	r5, r6, r0
    5654:	2d00      	cmp	r5, #0
    5656:	dc00      	bgt.n	565a <__aeabi_dsub+0x4e>
    5658:	e105      	b.n	5866 <__aeabi_dsub+0x25a>
    565a:	2800      	cmp	r0, #0
    565c:	d110      	bne.n	5680 <__aeabi_dsub+0x74>
    565e:	000b      	movs	r3, r1
    5660:	4313      	orrs	r3, r2
    5662:	d100      	bne.n	5666 <__aeabi_dsub+0x5a>
    5664:	e0d7      	b.n	5816 <__aeabi_dsub+0x20a>
    5666:	1e6b      	subs	r3, r5, #1
    5668:	2b00      	cmp	r3, #0
    566a:	d000      	beq.n	566e <__aeabi_dsub+0x62>
    566c:	e14b      	b.n	5906 <__aeabi_dsub+0x2fa>
    566e:	4653      	mov	r3, sl
    5670:	1a9f      	subs	r7, r3, r2
    5672:	45ba      	cmp	sl, r7
    5674:	4180      	sbcs	r0, r0
    5676:	1a64      	subs	r4, r4, r1
    5678:	4240      	negs	r0, r0
    567a:	1a24      	subs	r4, r4, r0
    567c:	2601      	movs	r6, #1
    567e:	e01e      	b.n	56be <__aeabi_dsub+0xb2>
    5680:	4bb3      	ldr	r3, [pc, #716]	; (5950 <__aeabi_dsub+0x344>)
    5682:	429e      	cmp	r6, r3
    5684:	d048      	beq.n	5718 <__aeabi_dsub+0x10c>
    5686:	2380      	movs	r3, #128	; 0x80
    5688:	041b      	lsls	r3, r3, #16
    568a:	4319      	orrs	r1, r3
    568c:	2d38      	cmp	r5, #56	; 0x38
    568e:	dd00      	ble.n	5692 <__aeabi_dsub+0x86>
    5690:	e119      	b.n	58c6 <__aeabi_dsub+0x2ba>
    5692:	2d1f      	cmp	r5, #31
    5694:	dd00      	ble.n	5698 <__aeabi_dsub+0x8c>
    5696:	e14c      	b.n	5932 <__aeabi_dsub+0x326>
    5698:	2320      	movs	r3, #32
    569a:	000f      	movs	r7, r1
    569c:	1b5b      	subs	r3, r3, r5
    569e:	0010      	movs	r0, r2
    56a0:	409a      	lsls	r2, r3
    56a2:	409f      	lsls	r7, r3
    56a4:	40e8      	lsrs	r0, r5
    56a6:	1e53      	subs	r3, r2, #1
    56a8:	419a      	sbcs	r2, r3
    56aa:	40e9      	lsrs	r1, r5
    56ac:	4307      	orrs	r7, r0
    56ae:	4317      	orrs	r7, r2
    56b0:	4653      	mov	r3, sl
    56b2:	1bdf      	subs	r7, r3, r7
    56b4:	1a61      	subs	r1, r4, r1
    56b6:	45ba      	cmp	sl, r7
    56b8:	41a4      	sbcs	r4, r4
    56ba:	4264      	negs	r4, r4
    56bc:	1b0c      	subs	r4, r1, r4
    56be:	0223      	lsls	r3, r4, #8
    56c0:	d400      	bmi.n	56c4 <__aeabi_dsub+0xb8>
    56c2:	e0c5      	b.n	5850 <__aeabi_dsub+0x244>
    56c4:	0264      	lsls	r4, r4, #9
    56c6:	0a65      	lsrs	r5, r4, #9
    56c8:	2d00      	cmp	r5, #0
    56ca:	d100      	bne.n	56ce <__aeabi_dsub+0xc2>
    56cc:	e0f6      	b.n	58bc <__aeabi_dsub+0x2b0>
    56ce:	0028      	movs	r0, r5
    56d0:	f000 fce8 	bl	60a4 <__clzsi2>
    56d4:	0003      	movs	r3, r0
    56d6:	3b08      	subs	r3, #8
    56d8:	2b1f      	cmp	r3, #31
    56da:	dd00      	ble.n	56de <__aeabi_dsub+0xd2>
    56dc:	e0e9      	b.n	58b2 <__aeabi_dsub+0x2a6>
    56de:	2220      	movs	r2, #32
    56e0:	003c      	movs	r4, r7
    56e2:	1ad2      	subs	r2, r2, r3
    56e4:	409d      	lsls	r5, r3
    56e6:	40d4      	lsrs	r4, r2
    56e8:	409f      	lsls	r7, r3
    56ea:	4325      	orrs	r5, r4
    56ec:	429e      	cmp	r6, r3
    56ee:	dd00      	ble.n	56f2 <__aeabi_dsub+0xe6>
    56f0:	e0db      	b.n	58aa <__aeabi_dsub+0x29e>
    56f2:	1b9e      	subs	r6, r3, r6
    56f4:	1c73      	adds	r3, r6, #1
    56f6:	2b1f      	cmp	r3, #31
    56f8:	dd00      	ble.n	56fc <__aeabi_dsub+0xf0>
    56fa:	e10a      	b.n	5912 <__aeabi_dsub+0x306>
    56fc:	2220      	movs	r2, #32
    56fe:	0038      	movs	r0, r7
    5700:	1ad2      	subs	r2, r2, r3
    5702:	0029      	movs	r1, r5
    5704:	4097      	lsls	r7, r2
    5706:	002c      	movs	r4, r5
    5708:	4091      	lsls	r1, r2
    570a:	40d8      	lsrs	r0, r3
    570c:	1e7a      	subs	r2, r7, #1
    570e:	4197      	sbcs	r7, r2
    5710:	40dc      	lsrs	r4, r3
    5712:	2600      	movs	r6, #0
    5714:	4301      	orrs	r1, r0
    5716:	430f      	orrs	r7, r1
    5718:	077b      	lsls	r3, r7, #29
    571a:	d009      	beq.n	5730 <__aeabi_dsub+0x124>
    571c:	230f      	movs	r3, #15
    571e:	403b      	ands	r3, r7
    5720:	2b04      	cmp	r3, #4
    5722:	d005      	beq.n	5730 <__aeabi_dsub+0x124>
    5724:	1d3b      	adds	r3, r7, #4
    5726:	42bb      	cmp	r3, r7
    5728:	41bf      	sbcs	r7, r7
    572a:	427f      	negs	r7, r7
    572c:	19e4      	adds	r4, r4, r7
    572e:	001f      	movs	r7, r3
    5730:	0223      	lsls	r3, r4, #8
    5732:	d525      	bpl.n	5780 <__aeabi_dsub+0x174>
    5734:	4b86      	ldr	r3, [pc, #536]	; (5950 <__aeabi_dsub+0x344>)
    5736:	3601      	adds	r6, #1
    5738:	429e      	cmp	r6, r3
    573a:	d100      	bne.n	573e <__aeabi_dsub+0x132>
    573c:	e0af      	b.n	589e <__aeabi_dsub+0x292>
    573e:	4b85      	ldr	r3, [pc, #532]	; (5954 <__aeabi_dsub+0x348>)
    5740:	2501      	movs	r5, #1
    5742:	401c      	ands	r4, r3
    5744:	4643      	mov	r3, r8
    5746:	0762      	lsls	r2, r4, #29
    5748:	08ff      	lsrs	r7, r7, #3
    574a:	0264      	lsls	r4, r4, #9
    574c:	0576      	lsls	r6, r6, #21
    574e:	4317      	orrs	r7, r2
    5750:	0b24      	lsrs	r4, r4, #12
    5752:	0d76      	lsrs	r6, r6, #21
    5754:	401d      	ands	r5, r3
    5756:	2100      	movs	r1, #0
    5758:	0324      	lsls	r4, r4, #12
    575a:	0b23      	lsrs	r3, r4, #12
    575c:	0d0c      	lsrs	r4, r1, #20
    575e:	4a7e      	ldr	r2, [pc, #504]	; (5958 <__aeabi_dsub+0x34c>)
    5760:	0524      	lsls	r4, r4, #20
    5762:	431c      	orrs	r4, r3
    5764:	4014      	ands	r4, r2
    5766:	0533      	lsls	r3, r6, #20
    5768:	4323      	orrs	r3, r4
    576a:	005b      	lsls	r3, r3, #1
    576c:	07ed      	lsls	r5, r5, #31
    576e:	085b      	lsrs	r3, r3, #1
    5770:	432b      	orrs	r3, r5
    5772:	0038      	movs	r0, r7
    5774:	0019      	movs	r1, r3
    5776:	bc1c      	pop	{r2, r3, r4}
    5778:	4690      	mov	r8, r2
    577a:	4699      	mov	r9, r3
    577c:	46a2      	mov	sl, r4
    577e:	bdf0      	pop	{r4, r5, r6, r7, pc}
    5780:	2501      	movs	r5, #1
    5782:	4643      	mov	r3, r8
    5784:	0762      	lsls	r2, r4, #29
    5786:	08ff      	lsrs	r7, r7, #3
    5788:	4317      	orrs	r7, r2
    578a:	08e4      	lsrs	r4, r4, #3
    578c:	401d      	ands	r5, r3
    578e:	4b70      	ldr	r3, [pc, #448]	; (5950 <__aeabi_dsub+0x344>)
    5790:	429e      	cmp	r6, r3
    5792:	d036      	beq.n	5802 <__aeabi_dsub+0x1f6>
    5794:	0324      	lsls	r4, r4, #12
    5796:	0576      	lsls	r6, r6, #21
    5798:	0b24      	lsrs	r4, r4, #12
    579a:	0d76      	lsrs	r6, r6, #21
    579c:	e7db      	b.n	5756 <__aeabi_dsub+0x14a>
    579e:	4663      	mov	r3, ip
    57a0:	1af3      	subs	r3, r6, r3
    57a2:	2b00      	cmp	r3, #0
    57a4:	dc00      	bgt.n	57a8 <__aeabi_dsub+0x19c>
    57a6:	e094      	b.n	58d2 <__aeabi_dsub+0x2c6>
    57a8:	4660      	mov	r0, ip
    57aa:	2800      	cmp	r0, #0
    57ac:	d035      	beq.n	581a <__aeabi_dsub+0x20e>
    57ae:	4868      	ldr	r0, [pc, #416]	; (5950 <__aeabi_dsub+0x344>)
    57b0:	4286      	cmp	r6, r0
    57b2:	d0b1      	beq.n	5718 <__aeabi_dsub+0x10c>
    57b4:	2780      	movs	r7, #128	; 0x80
    57b6:	043f      	lsls	r7, r7, #16
    57b8:	4339      	orrs	r1, r7
    57ba:	2b38      	cmp	r3, #56	; 0x38
    57bc:	dc00      	bgt.n	57c0 <__aeabi_dsub+0x1b4>
    57be:	e0fd      	b.n	59bc <__aeabi_dsub+0x3b0>
    57c0:	430a      	orrs	r2, r1
    57c2:	0017      	movs	r7, r2
    57c4:	2100      	movs	r1, #0
    57c6:	1e7a      	subs	r2, r7, #1
    57c8:	4197      	sbcs	r7, r2
    57ca:	4457      	add	r7, sl
    57cc:	4557      	cmp	r7, sl
    57ce:	4180      	sbcs	r0, r0
    57d0:	1909      	adds	r1, r1, r4
    57d2:	4244      	negs	r4, r0
    57d4:	190c      	adds	r4, r1, r4
    57d6:	0223      	lsls	r3, r4, #8
    57d8:	d53a      	bpl.n	5850 <__aeabi_dsub+0x244>
    57da:	4b5d      	ldr	r3, [pc, #372]	; (5950 <__aeabi_dsub+0x344>)
    57dc:	3601      	adds	r6, #1
    57de:	429e      	cmp	r6, r3
    57e0:	d100      	bne.n	57e4 <__aeabi_dsub+0x1d8>
    57e2:	e14b      	b.n	5a7c <__aeabi_dsub+0x470>
    57e4:	2201      	movs	r2, #1
    57e6:	4b5b      	ldr	r3, [pc, #364]	; (5954 <__aeabi_dsub+0x348>)
    57e8:	401c      	ands	r4, r3
    57ea:	087b      	lsrs	r3, r7, #1
    57ec:	4017      	ands	r7, r2
    57ee:	431f      	orrs	r7, r3
    57f0:	07e2      	lsls	r2, r4, #31
    57f2:	4317      	orrs	r7, r2
    57f4:	0864      	lsrs	r4, r4, #1
    57f6:	e78f      	b.n	5718 <__aeabi_dsub+0x10c>
    57f8:	0008      	movs	r0, r1
    57fa:	4310      	orrs	r0, r2
    57fc:	d000      	beq.n	5800 <__aeabi_dsub+0x1f4>
    57fe:	e724      	b.n	564a <__aeabi_dsub+0x3e>
    5800:	e721      	b.n	5646 <__aeabi_dsub+0x3a>
    5802:	0023      	movs	r3, r4
    5804:	433b      	orrs	r3, r7
    5806:	d100      	bne.n	580a <__aeabi_dsub+0x1fe>
    5808:	e1b9      	b.n	5b7e <__aeabi_dsub+0x572>
    580a:	2280      	movs	r2, #128	; 0x80
    580c:	0312      	lsls	r2, r2, #12
    580e:	4314      	orrs	r4, r2
    5810:	0324      	lsls	r4, r4, #12
    5812:	0b24      	lsrs	r4, r4, #12
    5814:	e79f      	b.n	5756 <__aeabi_dsub+0x14a>
    5816:	002e      	movs	r6, r5
    5818:	e77e      	b.n	5718 <__aeabi_dsub+0x10c>
    581a:	0008      	movs	r0, r1
    581c:	4310      	orrs	r0, r2
    581e:	d100      	bne.n	5822 <__aeabi_dsub+0x216>
    5820:	e0ca      	b.n	59b8 <__aeabi_dsub+0x3ac>
    5822:	1e58      	subs	r0, r3, #1
    5824:	4684      	mov	ip, r0
    5826:	2800      	cmp	r0, #0
    5828:	d000      	beq.n	582c <__aeabi_dsub+0x220>
    582a:	e0e7      	b.n	59fc <__aeabi_dsub+0x3f0>
    582c:	4452      	add	r2, sl
    582e:	4552      	cmp	r2, sl
    5830:	4180      	sbcs	r0, r0
    5832:	1864      	adds	r4, r4, r1
    5834:	4240      	negs	r0, r0
    5836:	1824      	adds	r4, r4, r0
    5838:	0017      	movs	r7, r2
    583a:	2601      	movs	r6, #1
    583c:	0223      	lsls	r3, r4, #8
    583e:	d507      	bpl.n	5850 <__aeabi_dsub+0x244>
    5840:	2602      	movs	r6, #2
    5842:	e7cf      	b.n	57e4 <__aeabi_dsub+0x1d8>
    5844:	4664      	mov	r4, ip
    5846:	432c      	orrs	r4, r5
    5848:	d100      	bne.n	584c <__aeabi_dsub+0x240>
    584a:	e1b3      	b.n	5bb4 <__aeabi_dsub+0x5a8>
    584c:	002c      	movs	r4, r5
    584e:	4667      	mov	r7, ip
    5850:	077b      	lsls	r3, r7, #29
    5852:	d000      	beq.n	5856 <__aeabi_dsub+0x24a>
    5854:	e762      	b.n	571c <__aeabi_dsub+0x110>
    5856:	0763      	lsls	r3, r4, #29
    5858:	08ff      	lsrs	r7, r7, #3
    585a:	431f      	orrs	r7, r3
    585c:	2501      	movs	r5, #1
    585e:	4643      	mov	r3, r8
    5860:	08e4      	lsrs	r4, r4, #3
    5862:	401d      	ands	r5, r3
    5864:	e793      	b.n	578e <__aeabi_dsub+0x182>
    5866:	2d00      	cmp	r5, #0
    5868:	d178      	bne.n	595c <__aeabi_dsub+0x350>
    586a:	1c75      	adds	r5, r6, #1
    586c:	056d      	lsls	r5, r5, #21
    586e:	0d6d      	lsrs	r5, r5, #21
    5870:	2d01      	cmp	r5, #1
    5872:	dc00      	bgt.n	5876 <__aeabi_dsub+0x26a>
    5874:	e0f2      	b.n	5a5c <__aeabi_dsub+0x450>
    5876:	4650      	mov	r0, sl
    5878:	1a80      	subs	r0, r0, r2
    587a:	4582      	cmp	sl, r0
    587c:	41bf      	sbcs	r7, r7
    587e:	1a65      	subs	r5, r4, r1
    5880:	427f      	negs	r7, r7
    5882:	1bed      	subs	r5, r5, r7
    5884:	4684      	mov	ip, r0
    5886:	0228      	lsls	r0, r5, #8
    5888:	d400      	bmi.n	588c <__aeabi_dsub+0x280>
    588a:	e08c      	b.n	59a6 <__aeabi_dsub+0x39a>
    588c:	4650      	mov	r0, sl
    588e:	1a17      	subs	r7, r2, r0
    5890:	42ba      	cmp	r2, r7
    5892:	4192      	sbcs	r2, r2
    5894:	1b0c      	subs	r4, r1, r4
    5896:	4255      	negs	r5, r2
    5898:	1b65      	subs	r5, r4, r5
    589a:	4698      	mov	r8, r3
    589c:	e714      	b.n	56c8 <__aeabi_dsub+0xbc>
    589e:	2501      	movs	r5, #1
    58a0:	4643      	mov	r3, r8
    58a2:	2400      	movs	r4, #0
    58a4:	401d      	ands	r5, r3
    58a6:	2700      	movs	r7, #0
    58a8:	e755      	b.n	5756 <__aeabi_dsub+0x14a>
    58aa:	4c2a      	ldr	r4, [pc, #168]	; (5954 <__aeabi_dsub+0x348>)
    58ac:	1af6      	subs	r6, r6, r3
    58ae:	402c      	ands	r4, r5
    58b0:	e732      	b.n	5718 <__aeabi_dsub+0x10c>
    58b2:	003d      	movs	r5, r7
    58b4:	3828      	subs	r0, #40	; 0x28
    58b6:	4085      	lsls	r5, r0
    58b8:	2700      	movs	r7, #0
    58ba:	e717      	b.n	56ec <__aeabi_dsub+0xe0>
    58bc:	0038      	movs	r0, r7
    58be:	f000 fbf1 	bl	60a4 <__clzsi2>
    58c2:	3020      	adds	r0, #32
    58c4:	e706      	b.n	56d4 <__aeabi_dsub+0xc8>
    58c6:	430a      	orrs	r2, r1
    58c8:	0017      	movs	r7, r2
    58ca:	2100      	movs	r1, #0
    58cc:	1e7a      	subs	r2, r7, #1
    58ce:	4197      	sbcs	r7, r2
    58d0:	e6ee      	b.n	56b0 <__aeabi_dsub+0xa4>
    58d2:	2b00      	cmp	r3, #0
    58d4:	d000      	beq.n	58d8 <__aeabi_dsub+0x2cc>
    58d6:	e0e5      	b.n	5aa4 <__aeabi_dsub+0x498>
    58d8:	1c73      	adds	r3, r6, #1
    58da:	469c      	mov	ip, r3
    58dc:	055b      	lsls	r3, r3, #21
    58de:	0d5b      	lsrs	r3, r3, #21
    58e0:	2b01      	cmp	r3, #1
    58e2:	dc00      	bgt.n	58e6 <__aeabi_dsub+0x2da>
    58e4:	e09f      	b.n	5a26 <__aeabi_dsub+0x41a>
    58e6:	4b1a      	ldr	r3, [pc, #104]	; (5950 <__aeabi_dsub+0x344>)
    58e8:	459c      	cmp	ip, r3
    58ea:	d100      	bne.n	58ee <__aeabi_dsub+0x2e2>
    58ec:	e0c5      	b.n	5a7a <__aeabi_dsub+0x46e>
    58ee:	4452      	add	r2, sl
    58f0:	4552      	cmp	r2, sl
    58f2:	4180      	sbcs	r0, r0
    58f4:	1864      	adds	r4, r4, r1
    58f6:	4240      	negs	r0, r0
    58f8:	1824      	adds	r4, r4, r0
    58fa:	07e7      	lsls	r7, r4, #31
    58fc:	0852      	lsrs	r2, r2, #1
    58fe:	4317      	orrs	r7, r2
    5900:	0864      	lsrs	r4, r4, #1
    5902:	4666      	mov	r6, ip
    5904:	e708      	b.n	5718 <__aeabi_dsub+0x10c>
    5906:	4812      	ldr	r0, [pc, #72]	; (5950 <__aeabi_dsub+0x344>)
    5908:	4285      	cmp	r5, r0
    590a:	d100      	bne.n	590e <__aeabi_dsub+0x302>
    590c:	e085      	b.n	5a1a <__aeabi_dsub+0x40e>
    590e:	001d      	movs	r5, r3
    5910:	e6bc      	b.n	568c <__aeabi_dsub+0x80>
    5912:	0029      	movs	r1, r5
    5914:	3e1f      	subs	r6, #31
    5916:	40f1      	lsrs	r1, r6
    5918:	2b20      	cmp	r3, #32
    591a:	d100      	bne.n	591e <__aeabi_dsub+0x312>
    591c:	e07f      	b.n	5a1e <__aeabi_dsub+0x412>
    591e:	2240      	movs	r2, #64	; 0x40
    5920:	1ad3      	subs	r3, r2, r3
    5922:	409d      	lsls	r5, r3
    5924:	432f      	orrs	r7, r5
    5926:	1e7d      	subs	r5, r7, #1
    5928:	41af      	sbcs	r7, r5
    592a:	2400      	movs	r4, #0
    592c:	430f      	orrs	r7, r1
    592e:	2600      	movs	r6, #0
    5930:	e78e      	b.n	5850 <__aeabi_dsub+0x244>
    5932:	002b      	movs	r3, r5
    5934:	000f      	movs	r7, r1
    5936:	3b20      	subs	r3, #32
    5938:	40df      	lsrs	r7, r3
    593a:	2d20      	cmp	r5, #32
    593c:	d071      	beq.n	5a22 <__aeabi_dsub+0x416>
    593e:	2340      	movs	r3, #64	; 0x40
    5940:	1b5d      	subs	r5, r3, r5
    5942:	40a9      	lsls	r1, r5
    5944:	430a      	orrs	r2, r1
    5946:	1e51      	subs	r1, r2, #1
    5948:	418a      	sbcs	r2, r1
    594a:	2100      	movs	r1, #0
    594c:	4317      	orrs	r7, r2
    594e:	e6af      	b.n	56b0 <__aeabi_dsub+0xa4>
    5950:	000007ff 	.word	0x000007ff
    5954:	ff7fffff 	.word	0xff7fffff
    5958:	800fffff 	.word	0x800fffff
    595c:	2e00      	cmp	r6, #0
    595e:	d03e      	beq.n	59de <__aeabi_dsub+0x3d2>
    5960:	4eb3      	ldr	r6, [pc, #716]	; (5c30 <__aeabi_dsub+0x624>)
    5962:	45b4      	cmp	ip, r6
    5964:	d045      	beq.n	59f2 <__aeabi_dsub+0x3e6>
    5966:	2680      	movs	r6, #128	; 0x80
    5968:	0436      	lsls	r6, r6, #16
    596a:	426d      	negs	r5, r5
    596c:	4334      	orrs	r4, r6
    596e:	2d38      	cmp	r5, #56	; 0x38
    5970:	dd00      	ble.n	5974 <__aeabi_dsub+0x368>
    5972:	e0a8      	b.n	5ac6 <__aeabi_dsub+0x4ba>
    5974:	2d1f      	cmp	r5, #31
    5976:	dd00      	ble.n	597a <__aeabi_dsub+0x36e>
    5978:	e11f      	b.n	5bba <__aeabi_dsub+0x5ae>
    597a:	2620      	movs	r6, #32
    597c:	0027      	movs	r7, r4
    597e:	4650      	mov	r0, sl
    5980:	1b76      	subs	r6, r6, r5
    5982:	40b7      	lsls	r7, r6
    5984:	40e8      	lsrs	r0, r5
    5986:	4307      	orrs	r7, r0
    5988:	4650      	mov	r0, sl
    598a:	40b0      	lsls	r0, r6
    598c:	1e46      	subs	r6, r0, #1
    598e:	41b0      	sbcs	r0, r6
    5990:	40ec      	lsrs	r4, r5
    5992:	4338      	orrs	r0, r7
    5994:	1a17      	subs	r7, r2, r0
    5996:	42ba      	cmp	r2, r7
    5998:	4192      	sbcs	r2, r2
    599a:	1b0c      	subs	r4, r1, r4
    599c:	4252      	negs	r2, r2
    599e:	1aa4      	subs	r4, r4, r2
    59a0:	4666      	mov	r6, ip
    59a2:	4698      	mov	r8, r3
    59a4:	e68b      	b.n	56be <__aeabi_dsub+0xb2>
    59a6:	4664      	mov	r4, ip
    59a8:	4667      	mov	r7, ip
    59aa:	432c      	orrs	r4, r5
    59ac:	d000      	beq.n	59b0 <__aeabi_dsub+0x3a4>
    59ae:	e68b      	b.n	56c8 <__aeabi_dsub+0xbc>
    59b0:	2500      	movs	r5, #0
    59b2:	2600      	movs	r6, #0
    59b4:	2700      	movs	r7, #0
    59b6:	e6ea      	b.n	578e <__aeabi_dsub+0x182>
    59b8:	001e      	movs	r6, r3
    59ba:	e6ad      	b.n	5718 <__aeabi_dsub+0x10c>
    59bc:	2b1f      	cmp	r3, #31
    59be:	dc60      	bgt.n	5a82 <__aeabi_dsub+0x476>
    59c0:	2720      	movs	r7, #32
    59c2:	1af8      	subs	r0, r7, r3
    59c4:	000f      	movs	r7, r1
    59c6:	4684      	mov	ip, r0
    59c8:	4087      	lsls	r7, r0
    59ca:	0010      	movs	r0, r2
    59cc:	40d8      	lsrs	r0, r3
    59ce:	4307      	orrs	r7, r0
    59d0:	4660      	mov	r0, ip
    59d2:	4082      	lsls	r2, r0
    59d4:	1e50      	subs	r0, r2, #1
    59d6:	4182      	sbcs	r2, r0
    59d8:	40d9      	lsrs	r1, r3
    59da:	4317      	orrs	r7, r2
    59dc:	e6f5      	b.n	57ca <__aeabi_dsub+0x1be>
    59de:	0026      	movs	r6, r4
    59e0:	4650      	mov	r0, sl
    59e2:	4306      	orrs	r6, r0
    59e4:	d005      	beq.n	59f2 <__aeabi_dsub+0x3e6>
    59e6:	43ed      	mvns	r5, r5
    59e8:	2d00      	cmp	r5, #0
    59ea:	d0d3      	beq.n	5994 <__aeabi_dsub+0x388>
    59ec:	4e90      	ldr	r6, [pc, #576]	; (5c30 <__aeabi_dsub+0x624>)
    59ee:	45b4      	cmp	ip, r6
    59f0:	d1bd      	bne.n	596e <__aeabi_dsub+0x362>
    59f2:	000c      	movs	r4, r1
    59f4:	0017      	movs	r7, r2
    59f6:	4666      	mov	r6, ip
    59f8:	4698      	mov	r8, r3
    59fa:	e68d      	b.n	5718 <__aeabi_dsub+0x10c>
    59fc:	488c      	ldr	r0, [pc, #560]	; (5c30 <__aeabi_dsub+0x624>)
    59fe:	4283      	cmp	r3, r0
    5a00:	d00b      	beq.n	5a1a <__aeabi_dsub+0x40e>
    5a02:	4663      	mov	r3, ip
    5a04:	e6d9      	b.n	57ba <__aeabi_dsub+0x1ae>
    5a06:	2d00      	cmp	r5, #0
    5a08:	d000      	beq.n	5a0c <__aeabi_dsub+0x400>
    5a0a:	e096      	b.n	5b3a <__aeabi_dsub+0x52e>
    5a0c:	0008      	movs	r0, r1
    5a0e:	4310      	orrs	r0, r2
    5a10:	d100      	bne.n	5a14 <__aeabi_dsub+0x408>
    5a12:	e0e2      	b.n	5bda <__aeabi_dsub+0x5ce>
    5a14:	000c      	movs	r4, r1
    5a16:	0017      	movs	r7, r2
    5a18:	4698      	mov	r8, r3
    5a1a:	4e85      	ldr	r6, [pc, #532]	; (5c30 <__aeabi_dsub+0x624>)
    5a1c:	e67c      	b.n	5718 <__aeabi_dsub+0x10c>
    5a1e:	2500      	movs	r5, #0
    5a20:	e780      	b.n	5924 <__aeabi_dsub+0x318>
    5a22:	2100      	movs	r1, #0
    5a24:	e78e      	b.n	5944 <__aeabi_dsub+0x338>
    5a26:	0023      	movs	r3, r4
    5a28:	4650      	mov	r0, sl
    5a2a:	4303      	orrs	r3, r0
    5a2c:	2e00      	cmp	r6, #0
    5a2e:	d000      	beq.n	5a32 <__aeabi_dsub+0x426>
    5a30:	e0a8      	b.n	5b84 <__aeabi_dsub+0x578>
    5a32:	2b00      	cmp	r3, #0
    5a34:	d100      	bne.n	5a38 <__aeabi_dsub+0x42c>
    5a36:	e0de      	b.n	5bf6 <__aeabi_dsub+0x5ea>
    5a38:	000b      	movs	r3, r1
    5a3a:	4313      	orrs	r3, r2
    5a3c:	d100      	bne.n	5a40 <__aeabi_dsub+0x434>
    5a3e:	e66b      	b.n	5718 <__aeabi_dsub+0x10c>
    5a40:	4452      	add	r2, sl
    5a42:	4552      	cmp	r2, sl
    5a44:	4180      	sbcs	r0, r0
    5a46:	1864      	adds	r4, r4, r1
    5a48:	4240      	negs	r0, r0
    5a4a:	1824      	adds	r4, r4, r0
    5a4c:	0017      	movs	r7, r2
    5a4e:	0223      	lsls	r3, r4, #8
    5a50:	d400      	bmi.n	5a54 <__aeabi_dsub+0x448>
    5a52:	e6fd      	b.n	5850 <__aeabi_dsub+0x244>
    5a54:	4b77      	ldr	r3, [pc, #476]	; (5c34 <__aeabi_dsub+0x628>)
    5a56:	4666      	mov	r6, ip
    5a58:	401c      	ands	r4, r3
    5a5a:	e65d      	b.n	5718 <__aeabi_dsub+0x10c>
    5a5c:	0025      	movs	r5, r4
    5a5e:	4650      	mov	r0, sl
    5a60:	4305      	orrs	r5, r0
    5a62:	2e00      	cmp	r6, #0
    5a64:	d1cf      	bne.n	5a06 <__aeabi_dsub+0x3fa>
    5a66:	2d00      	cmp	r5, #0
    5a68:	d14f      	bne.n	5b0a <__aeabi_dsub+0x4fe>
    5a6a:	000c      	movs	r4, r1
    5a6c:	4314      	orrs	r4, r2
    5a6e:	d100      	bne.n	5a72 <__aeabi_dsub+0x466>
    5a70:	e0a0      	b.n	5bb4 <__aeabi_dsub+0x5a8>
    5a72:	000c      	movs	r4, r1
    5a74:	0017      	movs	r7, r2
    5a76:	4698      	mov	r8, r3
    5a78:	e64e      	b.n	5718 <__aeabi_dsub+0x10c>
    5a7a:	4666      	mov	r6, ip
    5a7c:	2400      	movs	r4, #0
    5a7e:	2700      	movs	r7, #0
    5a80:	e685      	b.n	578e <__aeabi_dsub+0x182>
    5a82:	001f      	movs	r7, r3
    5a84:	0008      	movs	r0, r1
    5a86:	3f20      	subs	r7, #32
    5a88:	40f8      	lsrs	r0, r7
    5a8a:	0007      	movs	r7, r0
    5a8c:	2b20      	cmp	r3, #32
    5a8e:	d100      	bne.n	5a92 <__aeabi_dsub+0x486>
    5a90:	e08e      	b.n	5bb0 <__aeabi_dsub+0x5a4>
    5a92:	2040      	movs	r0, #64	; 0x40
    5a94:	1ac3      	subs	r3, r0, r3
    5a96:	4099      	lsls	r1, r3
    5a98:	430a      	orrs	r2, r1
    5a9a:	1e51      	subs	r1, r2, #1
    5a9c:	418a      	sbcs	r2, r1
    5a9e:	2100      	movs	r1, #0
    5aa0:	4317      	orrs	r7, r2
    5aa2:	e692      	b.n	57ca <__aeabi_dsub+0x1be>
    5aa4:	2e00      	cmp	r6, #0
    5aa6:	d114      	bne.n	5ad2 <__aeabi_dsub+0x4c6>
    5aa8:	0026      	movs	r6, r4
    5aaa:	4650      	mov	r0, sl
    5aac:	4306      	orrs	r6, r0
    5aae:	d062      	beq.n	5b76 <__aeabi_dsub+0x56a>
    5ab0:	43db      	mvns	r3, r3
    5ab2:	2b00      	cmp	r3, #0
    5ab4:	d15c      	bne.n	5b70 <__aeabi_dsub+0x564>
    5ab6:	1887      	adds	r7, r0, r2
    5ab8:	4297      	cmp	r7, r2
    5aba:	4192      	sbcs	r2, r2
    5abc:	1864      	adds	r4, r4, r1
    5abe:	4252      	negs	r2, r2
    5ac0:	18a4      	adds	r4, r4, r2
    5ac2:	4666      	mov	r6, ip
    5ac4:	e687      	b.n	57d6 <__aeabi_dsub+0x1ca>
    5ac6:	4650      	mov	r0, sl
    5ac8:	4320      	orrs	r0, r4
    5aca:	1e44      	subs	r4, r0, #1
    5acc:	41a0      	sbcs	r0, r4
    5ace:	2400      	movs	r4, #0
    5ad0:	e760      	b.n	5994 <__aeabi_dsub+0x388>
    5ad2:	4e57      	ldr	r6, [pc, #348]	; (5c30 <__aeabi_dsub+0x624>)
    5ad4:	45b4      	cmp	ip, r6
    5ad6:	d04e      	beq.n	5b76 <__aeabi_dsub+0x56a>
    5ad8:	2680      	movs	r6, #128	; 0x80
    5ada:	0436      	lsls	r6, r6, #16
    5adc:	425b      	negs	r3, r3
    5ade:	4334      	orrs	r4, r6
    5ae0:	2b38      	cmp	r3, #56	; 0x38
    5ae2:	dd00      	ble.n	5ae6 <__aeabi_dsub+0x4da>
    5ae4:	e07f      	b.n	5be6 <__aeabi_dsub+0x5da>
    5ae6:	2b1f      	cmp	r3, #31
    5ae8:	dd00      	ble.n	5aec <__aeabi_dsub+0x4e0>
    5aea:	e08b      	b.n	5c04 <__aeabi_dsub+0x5f8>
    5aec:	2620      	movs	r6, #32
    5aee:	0027      	movs	r7, r4
    5af0:	4650      	mov	r0, sl
    5af2:	1af6      	subs	r6, r6, r3
    5af4:	40b7      	lsls	r7, r6
    5af6:	40d8      	lsrs	r0, r3
    5af8:	4307      	orrs	r7, r0
    5afa:	4650      	mov	r0, sl
    5afc:	40b0      	lsls	r0, r6
    5afe:	1e46      	subs	r6, r0, #1
    5b00:	41b0      	sbcs	r0, r6
    5b02:	4307      	orrs	r7, r0
    5b04:	40dc      	lsrs	r4, r3
    5b06:	18bf      	adds	r7, r7, r2
    5b08:	e7d6      	b.n	5ab8 <__aeabi_dsub+0x4ac>
    5b0a:	000d      	movs	r5, r1
    5b0c:	4315      	orrs	r5, r2
    5b0e:	d100      	bne.n	5b12 <__aeabi_dsub+0x506>
    5b10:	e602      	b.n	5718 <__aeabi_dsub+0x10c>
    5b12:	4650      	mov	r0, sl
    5b14:	1a80      	subs	r0, r0, r2
    5b16:	4582      	cmp	sl, r0
    5b18:	41bf      	sbcs	r7, r7
    5b1a:	1a65      	subs	r5, r4, r1
    5b1c:	427f      	negs	r7, r7
    5b1e:	1bed      	subs	r5, r5, r7
    5b20:	4684      	mov	ip, r0
    5b22:	0228      	lsls	r0, r5, #8
    5b24:	d400      	bmi.n	5b28 <__aeabi_dsub+0x51c>
    5b26:	e68d      	b.n	5844 <__aeabi_dsub+0x238>
    5b28:	4650      	mov	r0, sl
    5b2a:	1a17      	subs	r7, r2, r0
    5b2c:	42ba      	cmp	r2, r7
    5b2e:	4192      	sbcs	r2, r2
    5b30:	1b0c      	subs	r4, r1, r4
    5b32:	4252      	negs	r2, r2
    5b34:	1aa4      	subs	r4, r4, r2
    5b36:	4698      	mov	r8, r3
    5b38:	e5ee      	b.n	5718 <__aeabi_dsub+0x10c>
    5b3a:	000d      	movs	r5, r1
    5b3c:	4315      	orrs	r5, r2
    5b3e:	d100      	bne.n	5b42 <__aeabi_dsub+0x536>
    5b40:	e76b      	b.n	5a1a <__aeabi_dsub+0x40e>
    5b42:	4650      	mov	r0, sl
    5b44:	0767      	lsls	r7, r4, #29
    5b46:	08c0      	lsrs	r0, r0, #3
    5b48:	4307      	orrs	r7, r0
    5b4a:	2080      	movs	r0, #128	; 0x80
    5b4c:	08e4      	lsrs	r4, r4, #3
    5b4e:	0300      	lsls	r0, r0, #12
    5b50:	4204      	tst	r4, r0
    5b52:	d007      	beq.n	5b64 <__aeabi_dsub+0x558>
    5b54:	08cd      	lsrs	r5, r1, #3
    5b56:	4205      	tst	r5, r0
    5b58:	d104      	bne.n	5b64 <__aeabi_dsub+0x558>
    5b5a:	002c      	movs	r4, r5
    5b5c:	4698      	mov	r8, r3
    5b5e:	08d7      	lsrs	r7, r2, #3
    5b60:	0749      	lsls	r1, r1, #29
    5b62:	430f      	orrs	r7, r1
    5b64:	0f7b      	lsrs	r3, r7, #29
    5b66:	00e4      	lsls	r4, r4, #3
    5b68:	431c      	orrs	r4, r3
    5b6a:	00ff      	lsls	r7, r7, #3
    5b6c:	4e30      	ldr	r6, [pc, #192]	; (5c30 <__aeabi_dsub+0x624>)
    5b6e:	e5d3      	b.n	5718 <__aeabi_dsub+0x10c>
    5b70:	4e2f      	ldr	r6, [pc, #188]	; (5c30 <__aeabi_dsub+0x624>)
    5b72:	45b4      	cmp	ip, r6
    5b74:	d1b4      	bne.n	5ae0 <__aeabi_dsub+0x4d4>
    5b76:	000c      	movs	r4, r1
    5b78:	0017      	movs	r7, r2
    5b7a:	4666      	mov	r6, ip
    5b7c:	e5cc      	b.n	5718 <__aeabi_dsub+0x10c>
    5b7e:	2700      	movs	r7, #0
    5b80:	2400      	movs	r4, #0
    5b82:	e5e8      	b.n	5756 <__aeabi_dsub+0x14a>
    5b84:	2b00      	cmp	r3, #0
    5b86:	d039      	beq.n	5bfc <__aeabi_dsub+0x5f0>
    5b88:	000b      	movs	r3, r1
    5b8a:	4313      	orrs	r3, r2
    5b8c:	d100      	bne.n	5b90 <__aeabi_dsub+0x584>
    5b8e:	e744      	b.n	5a1a <__aeabi_dsub+0x40e>
    5b90:	08c0      	lsrs	r0, r0, #3
    5b92:	0767      	lsls	r7, r4, #29
    5b94:	4307      	orrs	r7, r0
    5b96:	2080      	movs	r0, #128	; 0x80
    5b98:	08e4      	lsrs	r4, r4, #3
    5b9a:	0300      	lsls	r0, r0, #12
    5b9c:	4204      	tst	r4, r0
    5b9e:	d0e1      	beq.n	5b64 <__aeabi_dsub+0x558>
    5ba0:	08cb      	lsrs	r3, r1, #3
    5ba2:	4203      	tst	r3, r0
    5ba4:	d1de      	bne.n	5b64 <__aeabi_dsub+0x558>
    5ba6:	08d7      	lsrs	r7, r2, #3
    5ba8:	0749      	lsls	r1, r1, #29
    5baa:	430f      	orrs	r7, r1
    5bac:	001c      	movs	r4, r3
    5bae:	e7d9      	b.n	5b64 <__aeabi_dsub+0x558>
    5bb0:	2100      	movs	r1, #0
    5bb2:	e771      	b.n	5a98 <__aeabi_dsub+0x48c>
    5bb4:	2500      	movs	r5, #0
    5bb6:	2700      	movs	r7, #0
    5bb8:	e5e9      	b.n	578e <__aeabi_dsub+0x182>
    5bba:	002e      	movs	r6, r5
    5bbc:	0027      	movs	r7, r4
    5bbe:	3e20      	subs	r6, #32
    5bc0:	40f7      	lsrs	r7, r6
    5bc2:	2d20      	cmp	r5, #32
    5bc4:	d02f      	beq.n	5c26 <__aeabi_dsub+0x61a>
    5bc6:	2640      	movs	r6, #64	; 0x40
    5bc8:	1b75      	subs	r5, r6, r5
    5bca:	40ac      	lsls	r4, r5
    5bcc:	4650      	mov	r0, sl
    5bce:	4320      	orrs	r0, r4
    5bd0:	1e44      	subs	r4, r0, #1
    5bd2:	41a0      	sbcs	r0, r4
    5bd4:	2400      	movs	r4, #0
    5bd6:	4338      	orrs	r0, r7
    5bd8:	e6dc      	b.n	5994 <__aeabi_dsub+0x388>
    5bda:	2480      	movs	r4, #128	; 0x80
    5bdc:	2500      	movs	r5, #0
    5bde:	0324      	lsls	r4, r4, #12
    5be0:	4e13      	ldr	r6, [pc, #76]	; (5c30 <__aeabi_dsub+0x624>)
    5be2:	2700      	movs	r7, #0
    5be4:	e5d3      	b.n	578e <__aeabi_dsub+0x182>
    5be6:	4650      	mov	r0, sl
    5be8:	4320      	orrs	r0, r4
    5bea:	0007      	movs	r7, r0
    5bec:	1e78      	subs	r0, r7, #1
    5bee:	4187      	sbcs	r7, r0
    5bf0:	2400      	movs	r4, #0
    5bf2:	18bf      	adds	r7, r7, r2
    5bf4:	e760      	b.n	5ab8 <__aeabi_dsub+0x4ac>
    5bf6:	000c      	movs	r4, r1
    5bf8:	0017      	movs	r7, r2
    5bfa:	e58d      	b.n	5718 <__aeabi_dsub+0x10c>
    5bfc:	000c      	movs	r4, r1
    5bfe:	0017      	movs	r7, r2
    5c00:	4e0b      	ldr	r6, [pc, #44]	; (5c30 <__aeabi_dsub+0x624>)
    5c02:	e589      	b.n	5718 <__aeabi_dsub+0x10c>
    5c04:	001e      	movs	r6, r3
    5c06:	0027      	movs	r7, r4
    5c08:	3e20      	subs	r6, #32
    5c0a:	40f7      	lsrs	r7, r6
    5c0c:	2b20      	cmp	r3, #32
    5c0e:	d00c      	beq.n	5c2a <__aeabi_dsub+0x61e>
    5c10:	2640      	movs	r6, #64	; 0x40
    5c12:	1af3      	subs	r3, r6, r3
    5c14:	409c      	lsls	r4, r3
    5c16:	4650      	mov	r0, sl
    5c18:	4320      	orrs	r0, r4
    5c1a:	1e44      	subs	r4, r0, #1
    5c1c:	41a0      	sbcs	r0, r4
    5c1e:	4307      	orrs	r7, r0
    5c20:	2400      	movs	r4, #0
    5c22:	18bf      	adds	r7, r7, r2
    5c24:	e748      	b.n	5ab8 <__aeabi_dsub+0x4ac>
    5c26:	2400      	movs	r4, #0
    5c28:	e7d0      	b.n	5bcc <__aeabi_dsub+0x5c0>
    5c2a:	2400      	movs	r4, #0
    5c2c:	e7f3      	b.n	5c16 <__aeabi_dsub+0x60a>
    5c2e:	46c0      	nop			; (mov r8, r8)
    5c30:	000007ff 	.word	0x000007ff
    5c34:	ff7fffff 	.word	0xff7fffff

00005c38 <__aeabi_dcmpun>:
    5c38:	b570      	push	{r4, r5, r6, lr}
    5c3a:	4e0e      	ldr	r6, [pc, #56]	; (5c74 <__aeabi_dcmpun+0x3c>)
    5c3c:	030d      	lsls	r5, r1, #12
    5c3e:	031c      	lsls	r4, r3, #12
    5c40:	0049      	lsls	r1, r1, #1
    5c42:	005b      	lsls	r3, r3, #1
    5c44:	0b2d      	lsrs	r5, r5, #12
    5c46:	0d49      	lsrs	r1, r1, #21
    5c48:	0b24      	lsrs	r4, r4, #12
    5c4a:	0d5b      	lsrs	r3, r3, #21
    5c4c:	42b1      	cmp	r1, r6
    5c4e:	d004      	beq.n	5c5a <__aeabi_dcmpun+0x22>
    5c50:	4908      	ldr	r1, [pc, #32]	; (5c74 <__aeabi_dcmpun+0x3c>)
    5c52:	2000      	movs	r0, #0
    5c54:	428b      	cmp	r3, r1
    5c56:	d008      	beq.n	5c6a <__aeabi_dcmpun+0x32>
    5c58:	bd70      	pop	{r4, r5, r6, pc}
    5c5a:	4305      	orrs	r5, r0
    5c5c:	2001      	movs	r0, #1
    5c5e:	2d00      	cmp	r5, #0
    5c60:	d1fa      	bne.n	5c58 <__aeabi_dcmpun+0x20>
    5c62:	4904      	ldr	r1, [pc, #16]	; (5c74 <__aeabi_dcmpun+0x3c>)
    5c64:	2000      	movs	r0, #0
    5c66:	428b      	cmp	r3, r1
    5c68:	d1f6      	bne.n	5c58 <__aeabi_dcmpun+0x20>
    5c6a:	4314      	orrs	r4, r2
    5c6c:	0020      	movs	r0, r4
    5c6e:	1e44      	subs	r4, r0, #1
    5c70:	41a0      	sbcs	r0, r4
    5c72:	e7f1      	b.n	5c58 <__aeabi_dcmpun+0x20>
    5c74:	000007ff 	.word	0x000007ff

00005c78 <__aeabi_d2iz>:
    5c78:	b530      	push	{r4, r5, lr}
    5c7a:	4d13      	ldr	r5, [pc, #76]	; (5cc8 <__aeabi_d2iz+0x50>)
    5c7c:	030a      	lsls	r2, r1, #12
    5c7e:	004b      	lsls	r3, r1, #1
    5c80:	0b12      	lsrs	r2, r2, #12
    5c82:	0d5b      	lsrs	r3, r3, #21
    5c84:	0fc9      	lsrs	r1, r1, #31
    5c86:	2400      	movs	r4, #0
    5c88:	42ab      	cmp	r3, r5
    5c8a:	dd10      	ble.n	5cae <__aeabi_d2iz+0x36>
    5c8c:	4c0f      	ldr	r4, [pc, #60]	; (5ccc <__aeabi_d2iz+0x54>)
    5c8e:	42a3      	cmp	r3, r4
    5c90:	dc0f      	bgt.n	5cb2 <__aeabi_d2iz+0x3a>
    5c92:	2480      	movs	r4, #128	; 0x80
    5c94:	4d0e      	ldr	r5, [pc, #56]	; (5cd0 <__aeabi_d2iz+0x58>)
    5c96:	0364      	lsls	r4, r4, #13
    5c98:	4322      	orrs	r2, r4
    5c9a:	1aed      	subs	r5, r5, r3
    5c9c:	2d1f      	cmp	r5, #31
    5c9e:	dd0b      	ble.n	5cb8 <__aeabi_d2iz+0x40>
    5ca0:	480c      	ldr	r0, [pc, #48]	; (5cd4 <__aeabi_d2iz+0x5c>)
    5ca2:	1ac3      	subs	r3, r0, r3
    5ca4:	40da      	lsrs	r2, r3
    5ca6:	4254      	negs	r4, r2
    5ca8:	2900      	cmp	r1, #0
    5caa:	d100      	bne.n	5cae <__aeabi_d2iz+0x36>
    5cac:	0014      	movs	r4, r2
    5cae:	0020      	movs	r0, r4
    5cb0:	bd30      	pop	{r4, r5, pc}
    5cb2:	4b09      	ldr	r3, [pc, #36]	; (5cd8 <__aeabi_d2iz+0x60>)
    5cb4:	18cc      	adds	r4, r1, r3
    5cb6:	e7fa      	b.n	5cae <__aeabi_d2iz+0x36>
    5cb8:	4c08      	ldr	r4, [pc, #32]	; (5cdc <__aeabi_d2iz+0x64>)
    5cba:	40e8      	lsrs	r0, r5
    5cbc:	46a4      	mov	ip, r4
    5cbe:	4463      	add	r3, ip
    5cc0:	409a      	lsls	r2, r3
    5cc2:	4302      	orrs	r2, r0
    5cc4:	e7ef      	b.n	5ca6 <__aeabi_d2iz+0x2e>
    5cc6:	46c0      	nop			; (mov r8, r8)
    5cc8:	000003fe 	.word	0x000003fe
    5ccc:	0000041d 	.word	0x0000041d
    5cd0:	00000433 	.word	0x00000433
    5cd4:	00000413 	.word	0x00000413
    5cd8:	7fffffff 	.word	0x7fffffff
    5cdc:	fffffbed 	.word	0xfffffbed

00005ce0 <__aeabi_i2d>:
    5ce0:	b570      	push	{r4, r5, r6, lr}
    5ce2:	2800      	cmp	r0, #0
    5ce4:	d030      	beq.n	5d48 <__aeabi_i2d+0x68>
    5ce6:	17c3      	asrs	r3, r0, #31
    5ce8:	18c4      	adds	r4, r0, r3
    5cea:	405c      	eors	r4, r3
    5cec:	0fc5      	lsrs	r5, r0, #31
    5cee:	0020      	movs	r0, r4
    5cf0:	f000 f9d8 	bl	60a4 <__clzsi2>
    5cf4:	4b17      	ldr	r3, [pc, #92]	; (5d54 <__aeabi_i2d+0x74>)
    5cf6:	4a18      	ldr	r2, [pc, #96]	; (5d58 <__aeabi_i2d+0x78>)
    5cf8:	1a1b      	subs	r3, r3, r0
    5cfa:	1ad2      	subs	r2, r2, r3
    5cfc:	2a1f      	cmp	r2, #31
    5cfe:	dd18      	ble.n	5d32 <__aeabi_i2d+0x52>
    5d00:	4a16      	ldr	r2, [pc, #88]	; (5d5c <__aeabi_i2d+0x7c>)
    5d02:	1ad2      	subs	r2, r2, r3
    5d04:	4094      	lsls	r4, r2
    5d06:	2200      	movs	r2, #0
    5d08:	0324      	lsls	r4, r4, #12
    5d0a:	055b      	lsls	r3, r3, #21
    5d0c:	0b24      	lsrs	r4, r4, #12
    5d0e:	0d5b      	lsrs	r3, r3, #21
    5d10:	2100      	movs	r1, #0
    5d12:	0010      	movs	r0, r2
    5d14:	0324      	lsls	r4, r4, #12
    5d16:	0d0a      	lsrs	r2, r1, #20
    5d18:	0b24      	lsrs	r4, r4, #12
    5d1a:	0512      	lsls	r2, r2, #20
    5d1c:	4322      	orrs	r2, r4
    5d1e:	4c10      	ldr	r4, [pc, #64]	; (5d60 <__aeabi_i2d+0x80>)
    5d20:	051b      	lsls	r3, r3, #20
    5d22:	4022      	ands	r2, r4
    5d24:	4313      	orrs	r3, r2
    5d26:	005b      	lsls	r3, r3, #1
    5d28:	07ed      	lsls	r5, r5, #31
    5d2a:	085b      	lsrs	r3, r3, #1
    5d2c:	432b      	orrs	r3, r5
    5d2e:	0019      	movs	r1, r3
    5d30:	bd70      	pop	{r4, r5, r6, pc}
    5d32:	0021      	movs	r1, r4
    5d34:	4091      	lsls	r1, r2
    5d36:	000a      	movs	r2, r1
    5d38:	210b      	movs	r1, #11
    5d3a:	1a08      	subs	r0, r1, r0
    5d3c:	40c4      	lsrs	r4, r0
    5d3e:	055b      	lsls	r3, r3, #21
    5d40:	0324      	lsls	r4, r4, #12
    5d42:	0b24      	lsrs	r4, r4, #12
    5d44:	0d5b      	lsrs	r3, r3, #21
    5d46:	e7e3      	b.n	5d10 <__aeabi_i2d+0x30>
    5d48:	2500      	movs	r5, #0
    5d4a:	2300      	movs	r3, #0
    5d4c:	2400      	movs	r4, #0
    5d4e:	2200      	movs	r2, #0
    5d50:	e7de      	b.n	5d10 <__aeabi_i2d+0x30>
    5d52:	46c0      	nop			; (mov r8, r8)
    5d54:	0000041e 	.word	0x0000041e
    5d58:	00000433 	.word	0x00000433
    5d5c:	00000413 	.word	0x00000413
    5d60:	800fffff 	.word	0x800fffff

00005d64 <__aeabi_ui2d>:
    5d64:	b510      	push	{r4, lr}
    5d66:	1e04      	subs	r4, r0, #0
    5d68:	d028      	beq.n	5dbc <__aeabi_ui2d+0x58>
    5d6a:	f000 f99b 	bl	60a4 <__clzsi2>
    5d6e:	4b15      	ldr	r3, [pc, #84]	; (5dc4 <__aeabi_ui2d+0x60>)
    5d70:	4a15      	ldr	r2, [pc, #84]	; (5dc8 <__aeabi_ui2d+0x64>)
    5d72:	1a1b      	subs	r3, r3, r0
    5d74:	1ad2      	subs	r2, r2, r3
    5d76:	2a1f      	cmp	r2, #31
    5d78:	dd15      	ble.n	5da6 <__aeabi_ui2d+0x42>
    5d7a:	4a14      	ldr	r2, [pc, #80]	; (5dcc <__aeabi_ui2d+0x68>)
    5d7c:	1ad2      	subs	r2, r2, r3
    5d7e:	4094      	lsls	r4, r2
    5d80:	2200      	movs	r2, #0
    5d82:	0324      	lsls	r4, r4, #12
    5d84:	055b      	lsls	r3, r3, #21
    5d86:	0b24      	lsrs	r4, r4, #12
    5d88:	0d5b      	lsrs	r3, r3, #21
    5d8a:	2100      	movs	r1, #0
    5d8c:	0010      	movs	r0, r2
    5d8e:	0324      	lsls	r4, r4, #12
    5d90:	0d0a      	lsrs	r2, r1, #20
    5d92:	0b24      	lsrs	r4, r4, #12
    5d94:	0512      	lsls	r2, r2, #20
    5d96:	4322      	orrs	r2, r4
    5d98:	4c0d      	ldr	r4, [pc, #52]	; (5dd0 <__aeabi_ui2d+0x6c>)
    5d9a:	051b      	lsls	r3, r3, #20
    5d9c:	4022      	ands	r2, r4
    5d9e:	4313      	orrs	r3, r2
    5da0:	005b      	lsls	r3, r3, #1
    5da2:	0859      	lsrs	r1, r3, #1
    5da4:	bd10      	pop	{r4, pc}
    5da6:	0021      	movs	r1, r4
    5da8:	4091      	lsls	r1, r2
    5daa:	000a      	movs	r2, r1
    5dac:	210b      	movs	r1, #11
    5dae:	1a08      	subs	r0, r1, r0
    5db0:	40c4      	lsrs	r4, r0
    5db2:	055b      	lsls	r3, r3, #21
    5db4:	0324      	lsls	r4, r4, #12
    5db6:	0b24      	lsrs	r4, r4, #12
    5db8:	0d5b      	lsrs	r3, r3, #21
    5dba:	e7e6      	b.n	5d8a <__aeabi_ui2d+0x26>
    5dbc:	2300      	movs	r3, #0
    5dbe:	2400      	movs	r4, #0
    5dc0:	2200      	movs	r2, #0
    5dc2:	e7e2      	b.n	5d8a <__aeabi_ui2d+0x26>
    5dc4:	0000041e 	.word	0x0000041e
    5dc8:	00000433 	.word	0x00000433
    5dcc:	00000413 	.word	0x00000413
    5dd0:	800fffff 	.word	0x800fffff

00005dd4 <__aeabi_f2d>:
    5dd4:	0041      	lsls	r1, r0, #1
    5dd6:	0e09      	lsrs	r1, r1, #24
    5dd8:	1c4b      	adds	r3, r1, #1
    5dda:	b570      	push	{r4, r5, r6, lr}
    5ddc:	b2db      	uxtb	r3, r3
    5dde:	0246      	lsls	r6, r0, #9
    5de0:	0a75      	lsrs	r5, r6, #9
    5de2:	0fc4      	lsrs	r4, r0, #31
    5de4:	2b01      	cmp	r3, #1
    5de6:	dd14      	ble.n	5e12 <__aeabi_f2d+0x3e>
    5de8:	23e0      	movs	r3, #224	; 0xe0
    5dea:	009b      	lsls	r3, r3, #2
    5dec:	076d      	lsls	r5, r5, #29
    5dee:	0b36      	lsrs	r6, r6, #12
    5df0:	18cb      	adds	r3, r1, r3
    5df2:	2100      	movs	r1, #0
    5df4:	0d0a      	lsrs	r2, r1, #20
    5df6:	0028      	movs	r0, r5
    5df8:	0512      	lsls	r2, r2, #20
    5dfa:	4d1c      	ldr	r5, [pc, #112]	; (5e6c <__aeabi_f2d+0x98>)
    5dfc:	4332      	orrs	r2, r6
    5dfe:	055b      	lsls	r3, r3, #21
    5e00:	402a      	ands	r2, r5
    5e02:	085b      	lsrs	r3, r3, #1
    5e04:	4313      	orrs	r3, r2
    5e06:	005b      	lsls	r3, r3, #1
    5e08:	07e4      	lsls	r4, r4, #31
    5e0a:	085b      	lsrs	r3, r3, #1
    5e0c:	4323      	orrs	r3, r4
    5e0e:	0019      	movs	r1, r3
    5e10:	bd70      	pop	{r4, r5, r6, pc}
    5e12:	2900      	cmp	r1, #0
    5e14:	d114      	bne.n	5e40 <__aeabi_f2d+0x6c>
    5e16:	2d00      	cmp	r5, #0
    5e18:	d01e      	beq.n	5e58 <__aeabi_f2d+0x84>
    5e1a:	0028      	movs	r0, r5
    5e1c:	f000 f942 	bl	60a4 <__clzsi2>
    5e20:	280a      	cmp	r0, #10
    5e22:	dc1c      	bgt.n	5e5e <__aeabi_f2d+0x8a>
    5e24:	230b      	movs	r3, #11
    5e26:	002a      	movs	r2, r5
    5e28:	1a1b      	subs	r3, r3, r0
    5e2a:	40da      	lsrs	r2, r3
    5e2c:	0003      	movs	r3, r0
    5e2e:	3315      	adds	r3, #21
    5e30:	409d      	lsls	r5, r3
    5e32:	4b0f      	ldr	r3, [pc, #60]	; (5e70 <__aeabi_f2d+0x9c>)
    5e34:	0312      	lsls	r2, r2, #12
    5e36:	1a1b      	subs	r3, r3, r0
    5e38:	055b      	lsls	r3, r3, #21
    5e3a:	0b16      	lsrs	r6, r2, #12
    5e3c:	0d5b      	lsrs	r3, r3, #21
    5e3e:	e7d8      	b.n	5df2 <__aeabi_f2d+0x1e>
    5e40:	2d00      	cmp	r5, #0
    5e42:	d006      	beq.n	5e52 <__aeabi_f2d+0x7e>
    5e44:	0b32      	lsrs	r2, r6, #12
    5e46:	2680      	movs	r6, #128	; 0x80
    5e48:	0336      	lsls	r6, r6, #12
    5e4a:	076d      	lsls	r5, r5, #29
    5e4c:	4316      	orrs	r6, r2
    5e4e:	4b09      	ldr	r3, [pc, #36]	; (5e74 <__aeabi_f2d+0xa0>)
    5e50:	e7cf      	b.n	5df2 <__aeabi_f2d+0x1e>
    5e52:	4b08      	ldr	r3, [pc, #32]	; (5e74 <__aeabi_f2d+0xa0>)
    5e54:	2600      	movs	r6, #0
    5e56:	e7cc      	b.n	5df2 <__aeabi_f2d+0x1e>
    5e58:	2300      	movs	r3, #0
    5e5a:	2600      	movs	r6, #0
    5e5c:	e7c9      	b.n	5df2 <__aeabi_f2d+0x1e>
    5e5e:	0003      	movs	r3, r0
    5e60:	002a      	movs	r2, r5
    5e62:	3b0b      	subs	r3, #11
    5e64:	409a      	lsls	r2, r3
    5e66:	2500      	movs	r5, #0
    5e68:	e7e3      	b.n	5e32 <__aeabi_f2d+0x5e>
    5e6a:	46c0      	nop			; (mov r8, r8)
    5e6c:	800fffff 	.word	0x800fffff
    5e70:	00000389 	.word	0x00000389
    5e74:	000007ff 	.word	0x000007ff

00005e78 <__aeabi_d2f>:
    5e78:	b5f0      	push	{r4, r5, r6, r7, lr}
    5e7a:	004c      	lsls	r4, r1, #1
    5e7c:	0d64      	lsrs	r4, r4, #21
    5e7e:	030b      	lsls	r3, r1, #12
    5e80:	1c62      	adds	r2, r4, #1
    5e82:	0f45      	lsrs	r5, r0, #29
    5e84:	0a5b      	lsrs	r3, r3, #9
    5e86:	0552      	lsls	r2, r2, #21
    5e88:	432b      	orrs	r3, r5
    5e8a:	0fc9      	lsrs	r1, r1, #31
    5e8c:	00c5      	lsls	r5, r0, #3
    5e8e:	0d52      	lsrs	r2, r2, #21
    5e90:	2a01      	cmp	r2, #1
    5e92:	dd28      	ble.n	5ee6 <__aeabi_d2f+0x6e>
    5e94:	4a3a      	ldr	r2, [pc, #232]	; (5f80 <__aeabi_d2f+0x108>)
    5e96:	18a6      	adds	r6, r4, r2
    5e98:	2efe      	cmp	r6, #254	; 0xfe
    5e9a:	dc1b      	bgt.n	5ed4 <__aeabi_d2f+0x5c>
    5e9c:	2e00      	cmp	r6, #0
    5e9e:	dd3e      	ble.n	5f1e <__aeabi_d2f+0xa6>
    5ea0:	0180      	lsls	r0, r0, #6
    5ea2:	0002      	movs	r2, r0
    5ea4:	1e50      	subs	r0, r2, #1
    5ea6:	4182      	sbcs	r2, r0
    5ea8:	0f6d      	lsrs	r5, r5, #29
    5eaa:	432a      	orrs	r2, r5
    5eac:	00db      	lsls	r3, r3, #3
    5eae:	4313      	orrs	r3, r2
    5eb0:	075a      	lsls	r2, r3, #29
    5eb2:	d004      	beq.n	5ebe <__aeabi_d2f+0x46>
    5eb4:	220f      	movs	r2, #15
    5eb6:	401a      	ands	r2, r3
    5eb8:	2a04      	cmp	r2, #4
    5eba:	d000      	beq.n	5ebe <__aeabi_d2f+0x46>
    5ebc:	3304      	adds	r3, #4
    5ebe:	2280      	movs	r2, #128	; 0x80
    5ec0:	04d2      	lsls	r2, r2, #19
    5ec2:	401a      	ands	r2, r3
    5ec4:	d05a      	beq.n	5f7c <__aeabi_d2f+0x104>
    5ec6:	3601      	adds	r6, #1
    5ec8:	2eff      	cmp	r6, #255	; 0xff
    5eca:	d003      	beq.n	5ed4 <__aeabi_d2f+0x5c>
    5ecc:	019b      	lsls	r3, r3, #6
    5ece:	0a5b      	lsrs	r3, r3, #9
    5ed0:	b2f4      	uxtb	r4, r6
    5ed2:	e001      	b.n	5ed8 <__aeabi_d2f+0x60>
    5ed4:	24ff      	movs	r4, #255	; 0xff
    5ed6:	2300      	movs	r3, #0
    5ed8:	0258      	lsls	r0, r3, #9
    5eda:	05e4      	lsls	r4, r4, #23
    5edc:	0a40      	lsrs	r0, r0, #9
    5ede:	07c9      	lsls	r1, r1, #31
    5ee0:	4320      	orrs	r0, r4
    5ee2:	4308      	orrs	r0, r1
    5ee4:	bdf0      	pop	{r4, r5, r6, r7, pc}
    5ee6:	2c00      	cmp	r4, #0
    5ee8:	d007      	beq.n	5efa <__aeabi_d2f+0x82>
    5eea:	431d      	orrs	r5, r3
    5eec:	d0f2      	beq.n	5ed4 <__aeabi_d2f+0x5c>
    5eee:	2080      	movs	r0, #128	; 0x80
    5ef0:	00db      	lsls	r3, r3, #3
    5ef2:	0480      	lsls	r0, r0, #18
    5ef4:	4303      	orrs	r3, r0
    5ef6:	26ff      	movs	r6, #255	; 0xff
    5ef8:	e7da      	b.n	5eb0 <__aeabi_d2f+0x38>
    5efa:	432b      	orrs	r3, r5
    5efc:	d003      	beq.n	5f06 <__aeabi_d2f+0x8e>
    5efe:	2305      	movs	r3, #5
    5f00:	08db      	lsrs	r3, r3, #3
    5f02:	2cff      	cmp	r4, #255	; 0xff
    5f04:	d003      	beq.n	5f0e <__aeabi_d2f+0x96>
    5f06:	025b      	lsls	r3, r3, #9
    5f08:	0a5b      	lsrs	r3, r3, #9
    5f0a:	b2e4      	uxtb	r4, r4
    5f0c:	e7e4      	b.n	5ed8 <__aeabi_d2f+0x60>
    5f0e:	2b00      	cmp	r3, #0
    5f10:	d032      	beq.n	5f78 <__aeabi_d2f+0x100>
    5f12:	2080      	movs	r0, #128	; 0x80
    5f14:	03c0      	lsls	r0, r0, #15
    5f16:	4303      	orrs	r3, r0
    5f18:	025b      	lsls	r3, r3, #9
    5f1a:	0a5b      	lsrs	r3, r3, #9
    5f1c:	e7dc      	b.n	5ed8 <__aeabi_d2f+0x60>
    5f1e:	0032      	movs	r2, r6
    5f20:	3217      	adds	r2, #23
    5f22:	db14      	blt.n	5f4e <__aeabi_d2f+0xd6>
    5f24:	2280      	movs	r2, #128	; 0x80
    5f26:	271e      	movs	r7, #30
    5f28:	0412      	lsls	r2, r2, #16
    5f2a:	4313      	orrs	r3, r2
    5f2c:	1bbf      	subs	r7, r7, r6
    5f2e:	2f1f      	cmp	r7, #31
    5f30:	dc0f      	bgt.n	5f52 <__aeabi_d2f+0xda>
    5f32:	4a14      	ldr	r2, [pc, #80]	; (5f84 <__aeabi_d2f+0x10c>)
    5f34:	4694      	mov	ip, r2
    5f36:	4464      	add	r4, ip
    5f38:	002a      	movs	r2, r5
    5f3a:	40a5      	lsls	r5, r4
    5f3c:	002e      	movs	r6, r5
    5f3e:	40a3      	lsls	r3, r4
    5f40:	1e75      	subs	r5, r6, #1
    5f42:	41ae      	sbcs	r6, r5
    5f44:	40fa      	lsrs	r2, r7
    5f46:	4333      	orrs	r3, r6
    5f48:	4313      	orrs	r3, r2
    5f4a:	2600      	movs	r6, #0
    5f4c:	e7b0      	b.n	5eb0 <__aeabi_d2f+0x38>
    5f4e:	2400      	movs	r4, #0
    5f50:	e7d5      	b.n	5efe <__aeabi_d2f+0x86>
    5f52:	2202      	movs	r2, #2
    5f54:	4252      	negs	r2, r2
    5f56:	1b96      	subs	r6, r2, r6
    5f58:	001a      	movs	r2, r3
    5f5a:	40f2      	lsrs	r2, r6
    5f5c:	2f20      	cmp	r7, #32
    5f5e:	d009      	beq.n	5f74 <__aeabi_d2f+0xfc>
    5f60:	4809      	ldr	r0, [pc, #36]	; (5f88 <__aeabi_d2f+0x110>)
    5f62:	4684      	mov	ip, r0
    5f64:	4464      	add	r4, ip
    5f66:	40a3      	lsls	r3, r4
    5f68:	432b      	orrs	r3, r5
    5f6a:	1e5d      	subs	r5, r3, #1
    5f6c:	41ab      	sbcs	r3, r5
    5f6e:	2600      	movs	r6, #0
    5f70:	4313      	orrs	r3, r2
    5f72:	e79d      	b.n	5eb0 <__aeabi_d2f+0x38>
    5f74:	2300      	movs	r3, #0
    5f76:	e7f7      	b.n	5f68 <__aeabi_d2f+0xf0>
    5f78:	2300      	movs	r3, #0
    5f7a:	e7ad      	b.n	5ed8 <__aeabi_d2f+0x60>
    5f7c:	0034      	movs	r4, r6
    5f7e:	e7bf      	b.n	5f00 <__aeabi_d2f+0x88>
    5f80:	fffffc80 	.word	0xfffffc80
    5f84:	fffffc82 	.word	0xfffffc82
    5f88:	fffffca2 	.word	0xfffffca2

00005f8c <__udivsi3>:
    5f8c:	2200      	movs	r2, #0
    5f8e:	0843      	lsrs	r3, r0, #1
    5f90:	428b      	cmp	r3, r1
    5f92:	d374      	bcc.n	607e <__udivsi3+0xf2>
    5f94:	0903      	lsrs	r3, r0, #4
    5f96:	428b      	cmp	r3, r1
    5f98:	d35f      	bcc.n	605a <__udivsi3+0xce>
    5f9a:	0a03      	lsrs	r3, r0, #8
    5f9c:	428b      	cmp	r3, r1
    5f9e:	d344      	bcc.n	602a <__udivsi3+0x9e>
    5fa0:	0b03      	lsrs	r3, r0, #12
    5fa2:	428b      	cmp	r3, r1
    5fa4:	d328      	bcc.n	5ff8 <__udivsi3+0x6c>
    5fa6:	0c03      	lsrs	r3, r0, #16
    5fa8:	428b      	cmp	r3, r1
    5faa:	d30d      	bcc.n	5fc8 <__udivsi3+0x3c>
    5fac:	22ff      	movs	r2, #255	; 0xff
    5fae:	0209      	lsls	r1, r1, #8
    5fb0:	ba12      	rev	r2, r2
    5fb2:	0c03      	lsrs	r3, r0, #16
    5fb4:	428b      	cmp	r3, r1
    5fb6:	d302      	bcc.n	5fbe <__udivsi3+0x32>
    5fb8:	1212      	asrs	r2, r2, #8
    5fba:	0209      	lsls	r1, r1, #8
    5fbc:	d065      	beq.n	608a <__udivsi3+0xfe>
    5fbe:	0b03      	lsrs	r3, r0, #12
    5fc0:	428b      	cmp	r3, r1
    5fc2:	d319      	bcc.n	5ff8 <__udivsi3+0x6c>
    5fc4:	e000      	b.n	5fc8 <__udivsi3+0x3c>
    5fc6:	0a09      	lsrs	r1, r1, #8
    5fc8:	0bc3      	lsrs	r3, r0, #15
    5fca:	428b      	cmp	r3, r1
    5fcc:	d301      	bcc.n	5fd2 <__udivsi3+0x46>
    5fce:	03cb      	lsls	r3, r1, #15
    5fd0:	1ac0      	subs	r0, r0, r3
    5fd2:	4152      	adcs	r2, r2
    5fd4:	0b83      	lsrs	r3, r0, #14
    5fd6:	428b      	cmp	r3, r1
    5fd8:	d301      	bcc.n	5fde <__udivsi3+0x52>
    5fda:	038b      	lsls	r3, r1, #14
    5fdc:	1ac0      	subs	r0, r0, r3
    5fde:	4152      	adcs	r2, r2
    5fe0:	0b43      	lsrs	r3, r0, #13
    5fe2:	428b      	cmp	r3, r1
    5fe4:	d301      	bcc.n	5fea <__udivsi3+0x5e>
    5fe6:	034b      	lsls	r3, r1, #13
    5fe8:	1ac0      	subs	r0, r0, r3
    5fea:	4152      	adcs	r2, r2
    5fec:	0b03      	lsrs	r3, r0, #12
    5fee:	428b      	cmp	r3, r1
    5ff0:	d301      	bcc.n	5ff6 <__udivsi3+0x6a>
    5ff2:	030b      	lsls	r3, r1, #12
    5ff4:	1ac0      	subs	r0, r0, r3
    5ff6:	4152      	adcs	r2, r2
    5ff8:	0ac3      	lsrs	r3, r0, #11
    5ffa:	428b      	cmp	r3, r1
    5ffc:	d301      	bcc.n	6002 <__udivsi3+0x76>
    5ffe:	02cb      	lsls	r3, r1, #11
    6000:	1ac0      	subs	r0, r0, r3
    6002:	4152      	adcs	r2, r2
    6004:	0a83      	lsrs	r3, r0, #10
    6006:	428b      	cmp	r3, r1
    6008:	d301      	bcc.n	600e <__udivsi3+0x82>
    600a:	028b      	lsls	r3, r1, #10
    600c:	1ac0      	subs	r0, r0, r3
    600e:	4152      	adcs	r2, r2
    6010:	0a43      	lsrs	r3, r0, #9
    6012:	428b      	cmp	r3, r1
    6014:	d301      	bcc.n	601a <__udivsi3+0x8e>
    6016:	024b      	lsls	r3, r1, #9
    6018:	1ac0      	subs	r0, r0, r3
    601a:	4152      	adcs	r2, r2
    601c:	0a03      	lsrs	r3, r0, #8
    601e:	428b      	cmp	r3, r1
    6020:	d301      	bcc.n	6026 <__udivsi3+0x9a>
    6022:	020b      	lsls	r3, r1, #8
    6024:	1ac0      	subs	r0, r0, r3
    6026:	4152      	adcs	r2, r2
    6028:	d2cd      	bcs.n	5fc6 <__udivsi3+0x3a>
    602a:	09c3      	lsrs	r3, r0, #7
    602c:	428b      	cmp	r3, r1
    602e:	d301      	bcc.n	6034 <__udivsi3+0xa8>
    6030:	01cb      	lsls	r3, r1, #7
    6032:	1ac0      	subs	r0, r0, r3
    6034:	4152      	adcs	r2, r2
    6036:	0983      	lsrs	r3, r0, #6
    6038:	428b      	cmp	r3, r1
    603a:	d301      	bcc.n	6040 <__udivsi3+0xb4>
    603c:	018b      	lsls	r3, r1, #6
    603e:	1ac0      	subs	r0, r0, r3
    6040:	4152      	adcs	r2, r2
    6042:	0943      	lsrs	r3, r0, #5
    6044:	428b      	cmp	r3, r1
    6046:	d301      	bcc.n	604c <__udivsi3+0xc0>
    6048:	014b      	lsls	r3, r1, #5
    604a:	1ac0      	subs	r0, r0, r3
    604c:	4152      	adcs	r2, r2
    604e:	0903      	lsrs	r3, r0, #4
    6050:	428b      	cmp	r3, r1
    6052:	d301      	bcc.n	6058 <__udivsi3+0xcc>
    6054:	010b      	lsls	r3, r1, #4
    6056:	1ac0      	subs	r0, r0, r3
    6058:	4152      	adcs	r2, r2
    605a:	08c3      	lsrs	r3, r0, #3
    605c:	428b      	cmp	r3, r1
    605e:	d301      	bcc.n	6064 <__udivsi3+0xd8>
    6060:	00cb      	lsls	r3, r1, #3
    6062:	1ac0      	subs	r0, r0, r3
    6064:	4152      	adcs	r2, r2
    6066:	0883      	lsrs	r3, r0, #2
    6068:	428b      	cmp	r3, r1
    606a:	d301      	bcc.n	6070 <__udivsi3+0xe4>
    606c:	008b      	lsls	r3, r1, #2
    606e:	1ac0      	subs	r0, r0, r3
    6070:	4152      	adcs	r2, r2
    6072:	0843      	lsrs	r3, r0, #1
    6074:	428b      	cmp	r3, r1
    6076:	d301      	bcc.n	607c <__udivsi3+0xf0>
    6078:	004b      	lsls	r3, r1, #1
    607a:	1ac0      	subs	r0, r0, r3
    607c:	4152      	adcs	r2, r2
    607e:	1a41      	subs	r1, r0, r1
    6080:	d200      	bcs.n	6084 <__udivsi3+0xf8>
    6082:	4601      	mov	r1, r0
    6084:	4152      	adcs	r2, r2
    6086:	4610      	mov	r0, r2
    6088:	4770      	bx	lr
    608a:	e7ff      	b.n	608c <__udivsi3+0x100>
    608c:	b501      	push	{r0, lr}
    608e:	2000      	movs	r0, #0
    6090:	f000 f806 	bl	60a0 <__aeabi_idiv0>
    6094:	bd02      	pop	{r1, pc}
    6096:	46c0      	nop			; (mov r8, r8)

00006098 <__aeabi_uidivmod>:
    6098:	2900      	cmp	r1, #0
    609a:	d0f7      	beq.n	608c <__udivsi3+0x100>
    609c:	e776      	b.n	5f8c <__udivsi3>
    609e:	4770      	bx	lr

000060a0 <__aeabi_idiv0>:
    60a0:	4770      	bx	lr
    60a2:	46c0      	nop			; (mov r8, r8)

000060a4 <__clzsi2>:
    60a4:	211c      	movs	r1, #28
    60a6:	2301      	movs	r3, #1
    60a8:	041b      	lsls	r3, r3, #16
    60aa:	4298      	cmp	r0, r3
    60ac:	d301      	bcc.n	60b2 <__clzsi2+0xe>
    60ae:	0c00      	lsrs	r0, r0, #16
    60b0:	3910      	subs	r1, #16
    60b2:	0a1b      	lsrs	r3, r3, #8
    60b4:	4298      	cmp	r0, r3
    60b6:	d301      	bcc.n	60bc <__clzsi2+0x18>
    60b8:	0a00      	lsrs	r0, r0, #8
    60ba:	3908      	subs	r1, #8
    60bc:	091b      	lsrs	r3, r3, #4
    60be:	4298      	cmp	r0, r3
    60c0:	d301      	bcc.n	60c6 <__clzsi2+0x22>
    60c2:	0900      	lsrs	r0, r0, #4
    60c4:	3904      	subs	r1, #4
    60c6:	a202      	add	r2, pc, #8	; (adr r2, 60d0 <__clzsi2+0x2c>)
    60c8:	5c10      	ldrb	r0, [r2, r0]
    60ca:	1840      	adds	r0, r0, r1
    60cc:	4770      	bx	lr
    60ce:	46c0      	nop			; (mov r8, r8)
    60d0:	02020304 	.word	0x02020304
    60d4:	01010101 	.word	0x01010101
	...

000060e0 <__errno>:
    60e0:	4b01      	ldr	r3, [pc, #4]	; (60e8 <__errno+0x8>)
    60e2:	6818      	ldr	r0, [r3, #0]
    60e4:	4770      	bx	lr
    60e6:	46c0      	nop			; (mov r8, r8)
    60e8:	20000074 	.word	0x20000074

000060ec <__libc_init_array>:
    60ec:	b570      	push	{r4, r5, r6, lr}
    60ee:	4e0d      	ldr	r6, [pc, #52]	; (6124 <__libc_init_array+0x38>)
    60f0:	4d0d      	ldr	r5, [pc, #52]	; (6128 <__libc_init_array+0x3c>)
    60f2:	2400      	movs	r4, #0
    60f4:	1bad      	subs	r5, r5, r6
    60f6:	10ad      	asrs	r5, r5, #2
    60f8:	d005      	beq.n	6106 <__libc_init_array+0x1a>
    60fa:	00a3      	lsls	r3, r4, #2
    60fc:	58f3      	ldr	r3, [r6, r3]
    60fe:	3401      	adds	r4, #1
    6100:	4798      	blx	r3
    6102:	42a5      	cmp	r5, r4
    6104:	d1f9      	bne.n	60fa <__libc_init_array+0xe>
    6106:	f000 f92d 	bl	6364 <_init>
    610a:	4e08      	ldr	r6, [pc, #32]	; (612c <__libc_init_array+0x40>)
    610c:	4d08      	ldr	r5, [pc, #32]	; (6130 <__libc_init_array+0x44>)
    610e:	2400      	movs	r4, #0
    6110:	1bad      	subs	r5, r5, r6
    6112:	10ad      	asrs	r5, r5, #2
    6114:	d005      	beq.n	6122 <__libc_init_array+0x36>
    6116:	00a3      	lsls	r3, r4, #2
    6118:	58f3      	ldr	r3, [r6, r3]
    611a:	3401      	adds	r4, #1
    611c:	4798      	blx	r3
    611e:	42a5      	cmp	r5, r4
    6120:	d1f9      	bne.n	6116 <__libc_init_array+0x2a>
    6122:	bd70      	pop	{r4, r5, r6, pc}
    6124:	00006370 	.word	0x00006370
    6128:	00006370 	.word	0x00006370
    612c:	00006370 	.word	0x00006370
    6130:	00006378 	.word	0x00006378

00006134 <register_fini>:
    6134:	4b03      	ldr	r3, [pc, #12]	; (6144 <register_fini+0x10>)
    6136:	b510      	push	{r4, lr}
    6138:	2b00      	cmp	r3, #0
    613a:	d002      	beq.n	6142 <register_fini+0xe>
    613c:	4802      	ldr	r0, [pc, #8]	; (6148 <register_fini+0x14>)
    613e:	f000 f805 	bl	614c <atexit>
    6142:	bd10      	pop	{r4, pc}
    6144:	00000000 	.word	0x00000000
    6148:	0000615d 	.word	0x0000615d

0000614c <atexit>:
    614c:	b510      	push	{r4, lr}
    614e:	0001      	movs	r1, r0
    6150:	2300      	movs	r3, #0
    6152:	2200      	movs	r2, #0
    6154:	2000      	movs	r0, #0
    6156:	f000 f81b 	bl	6190 <__register_exitproc>
    615a:	bd10      	pop	{r4, pc}

0000615c <__libc_fini_array>:
    615c:	b570      	push	{r4, r5, r6, lr}
    615e:	4b09      	ldr	r3, [pc, #36]	; (6184 <__libc_fini_array+0x28>)
    6160:	4c09      	ldr	r4, [pc, #36]	; (6188 <__libc_fini_array+0x2c>)
    6162:	1ae4      	subs	r4, r4, r3
    6164:	10a4      	asrs	r4, r4, #2
    6166:	d009      	beq.n	617c <__libc_fini_array+0x20>
    6168:	4a08      	ldr	r2, [pc, #32]	; (618c <__libc_fini_array+0x30>)
    616a:	18a5      	adds	r5, r4, r2
    616c:	00ad      	lsls	r5, r5, #2
    616e:	18ed      	adds	r5, r5, r3
    6170:	682b      	ldr	r3, [r5, #0]
    6172:	3c01      	subs	r4, #1
    6174:	4798      	blx	r3
    6176:	3d04      	subs	r5, #4
    6178:	2c00      	cmp	r4, #0
    617a:	d1f9      	bne.n	6170 <__libc_fini_array+0x14>
    617c:	f000 f8fc 	bl	6378 <_fini>
    6180:	bd70      	pop	{r4, r5, r6, pc}
    6182:	46c0      	nop			; (mov r8, r8)
    6184:	00006384 	.word	0x00006384
    6188:	00006388 	.word	0x00006388
    618c:	3fffffff 	.word	0x3fffffff

00006190 <__register_exitproc>:
    6190:	b5f8      	push	{r3, r4, r5, r6, r7, lr}
    6192:	46de      	mov	lr, fp
    6194:	469b      	mov	fp, r3
    6196:	4b31      	ldr	r3, [pc, #196]	; (625c <__register_exitproc+0xcc>)
    6198:	4645      	mov	r5, r8
    619a:	681c      	ldr	r4, [r3, #0]
    619c:	23a4      	movs	r3, #164	; 0xa4
    619e:	464e      	mov	r6, r9
    61a0:	4657      	mov	r7, sl
    61a2:	005b      	lsls	r3, r3, #1
    61a4:	b5e0      	push	{r5, r6, r7, lr}
    61a6:	0005      	movs	r5, r0
    61a8:	58e0      	ldr	r0, [r4, r3]
    61aa:	000e      	movs	r6, r1
    61ac:	4690      	mov	r8, r2
    61ae:	2800      	cmp	r0, #0
    61b0:	d04b      	beq.n	624a <__register_exitproc+0xba>
    61b2:	6843      	ldr	r3, [r0, #4]
    61b4:	2b1f      	cmp	r3, #31
    61b6:	dc0d      	bgt.n	61d4 <__register_exitproc+0x44>
    61b8:	1c5c      	adds	r4, r3, #1
    61ba:	2d00      	cmp	r5, #0
    61bc:	d121      	bne.n	6202 <__register_exitproc+0x72>
    61be:	3302      	adds	r3, #2
    61c0:	009b      	lsls	r3, r3, #2
    61c2:	6044      	str	r4, [r0, #4]
    61c4:	501e      	str	r6, [r3, r0]
    61c6:	2000      	movs	r0, #0
    61c8:	bc3c      	pop	{r2, r3, r4, r5}
    61ca:	4690      	mov	r8, r2
    61cc:	4699      	mov	r9, r3
    61ce:	46a2      	mov	sl, r4
    61d0:	46ab      	mov	fp, r5
    61d2:	bdf8      	pop	{r3, r4, r5, r6, r7, pc}
    61d4:	4b22      	ldr	r3, [pc, #136]	; (6260 <__register_exitproc+0xd0>)
    61d6:	2b00      	cmp	r3, #0
    61d8:	d03c      	beq.n	6254 <__register_exitproc+0xc4>
    61da:	20c8      	movs	r0, #200	; 0xc8
    61dc:	0040      	lsls	r0, r0, #1
    61de:	e000      	b.n	61e2 <__register_exitproc+0x52>
    61e0:	bf00      	nop
    61e2:	2800      	cmp	r0, #0
    61e4:	d036      	beq.n	6254 <__register_exitproc+0xc4>
    61e6:	22a4      	movs	r2, #164	; 0xa4
    61e8:	2300      	movs	r3, #0
    61ea:	0052      	lsls	r2, r2, #1
    61ec:	58a1      	ldr	r1, [r4, r2]
    61ee:	6043      	str	r3, [r0, #4]
    61f0:	6001      	str	r1, [r0, #0]
    61f2:	50a0      	str	r0, [r4, r2]
    61f4:	3240      	adds	r2, #64	; 0x40
    61f6:	5083      	str	r3, [r0, r2]
    61f8:	3204      	adds	r2, #4
    61fa:	5083      	str	r3, [r0, r2]
    61fc:	2401      	movs	r4, #1
    61fe:	2d00      	cmp	r5, #0
    6200:	d0dd      	beq.n	61be <__register_exitproc+0x2e>
    6202:	009a      	lsls	r2, r3, #2
    6204:	4691      	mov	r9, r2
    6206:	4481      	add	r9, r0
    6208:	4642      	mov	r2, r8
    620a:	2188      	movs	r1, #136	; 0x88
    620c:	464f      	mov	r7, r9
    620e:	507a      	str	r2, [r7, r1]
    6210:	22c4      	movs	r2, #196	; 0xc4
    6212:	0052      	lsls	r2, r2, #1
    6214:	4690      	mov	r8, r2
    6216:	4480      	add	r8, r0
    6218:	4642      	mov	r2, r8
    621a:	3987      	subs	r1, #135	; 0x87
    621c:	4099      	lsls	r1, r3
    621e:	6812      	ldr	r2, [r2, #0]
    6220:	468a      	mov	sl, r1
    6222:	430a      	orrs	r2, r1
    6224:	4694      	mov	ip, r2
    6226:	4642      	mov	r2, r8
    6228:	4661      	mov	r1, ip
    622a:	6011      	str	r1, [r2, #0]
    622c:	2284      	movs	r2, #132	; 0x84
    622e:	4649      	mov	r1, r9
    6230:	465f      	mov	r7, fp
    6232:	0052      	lsls	r2, r2, #1
    6234:	508f      	str	r7, [r1, r2]
    6236:	2d02      	cmp	r5, #2
    6238:	d1c1      	bne.n	61be <__register_exitproc+0x2e>
    623a:	0002      	movs	r2, r0
    623c:	4655      	mov	r5, sl
    623e:	328d      	adds	r2, #141	; 0x8d
    6240:	32ff      	adds	r2, #255	; 0xff
    6242:	6811      	ldr	r1, [r2, #0]
    6244:	430d      	orrs	r5, r1
    6246:	6015      	str	r5, [r2, #0]
    6248:	e7b9      	b.n	61be <__register_exitproc+0x2e>
    624a:	0020      	movs	r0, r4
    624c:	304d      	adds	r0, #77	; 0x4d
    624e:	30ff      	adds	r0, #255	; 0xff
    6250:	50e0      	str	r0, [r4, r3]
    6252:	e7ae      	b.n	61b2 <__register_exitproc+0x22>
    6254:	2001      	movs	r0, #1
    6256:	4240      	negs	r0, r0
    6258:	e7b6      	b.n	61c8 <__register_exitproc+0x38>
    625a:	46c0      	nop			; (mov r8, r8)
    625c:	00006360 	.word	0x00006360
    6260:	00000000 	.word	0x00000000

00006264 <senseBatPin>:
    6264:	06000000 01000106                                .....

00006269 <senseAPin>:
    6269:	03010001 0100010b                                .....

0000626e <senseBPin>:
    626e:	02010001 0000010a                                .....

00006273 <senseCPin>:
    6273:	03000001 00000101                                .....

00006278 <senseDPin>:
    6278:	02000001 00000000                                .....

0000627d <analogAccelPin>:
    627d:	07000000 70000007 0000776f 00000000     .......pow......
    628d:	00000000                                         ...

00006290 <TWO52>:
    6290:	00000000 43300000 00000000 c3300000     ......0C......0.
    62a0:	00003d58 00003ca8 00003ca8 00003ca6     X=...<...<...<..
    62b0:	00003d4a 00003d4a 00003d40 00003ca6     J=..J=..@=...<..
    62c0:	00003d4a 00003d40 00003d4a 00003ca6     J=..@=..J=...<..
    62d0:	00003d50 00003d50 00003d50 00003de0     P=..P=..P=...=..
    62e0:	00004a9c 00004a7e 00004a38 00004956     .J..~J..8J..VI..
    62f0:	00004a38 00004a70 00004a38 00004956     8J..pJ..8J..VI..
    6300:	00004a7e 00004a7e 00004a70 00004956     ~J..~J..pJ..VI..
    6310:	0000494e 0000494e 0000494e 00004cb4     NI..NI..NI...L..
    6320:	000052fc 000051bc 000051bc 000051b8     .R...Q...Q...Q..
    6330:	000052d4 000052d4 000052c6 000051b8     .R...R...R...Q..
    6340:	000052d4 000052c6 000052d4 000051b8     .R...R...R...Q..
    6350:	000052dc 000052dc 000052dc 000054e0     .R...R...R...T..

00006360 <_global_impure_ptr>:
    6360:	20000078                                x.. 

00006364 <_init>:
    6364:	b5f8      	push	{r3, r4, r5, r6, r7, lr}
    6366:	46c0      	nop			; (mov r8, r8)
    6368:	bcf8      	pop	{r3, r4, r5, r6, r7}
    636a:	bc08      	pop	{r3}
    636c:	469e      	mov	lr, r3
    636e:	4770      	bx	lr

00006370 <__init_array_start>:
    6370:	00006135 	.word	0x00006135

00006374 <__frame_dummy_init_array_entry>:
    6374:	000000dd                                ....

00006378 <_fini>:
    6378:	b5f8      	push	{r3, r4, r5, r6, r7, lr}
    637a:	46c0      	nop			; (mov r8, r8)
    637c:	bcf8      	pop	{r3, r4, r5, r6, r7}
    637e:	bc08      	pop	{r3}
    6380:	469e      	mov	lr, r3
    6382:	4770      	bx	lr

00006384 <__fini_array_start>:
    6384:	000000b5 	.word	0x000000b5
