
Track'em V0.1.elf:     file format elf32-littlearm

Sections:
Idx Name          Size      VMA       LMA       File off  Algn
  0 .text         000016cc  00000000  00000000  00010000  2**2
                  CONTENTS, ALLOC, LOAD, READONLY, CODE
  1 .relocate     00000448  20000000  000016cc  00020000  2**3
                  CONTENTS, ALLOC, LOAD, DATA
  2 .bss          00000074  20000448  00001b14  00020448  2**2
                  ALLOC
  3 .stack        00000404  200004bc  00001b88  00020448  2**0
                  ALLOC
  4 .ARM.attributes 00000028  00000000  00000000  00020448  2**0
                  CONTENTS, READONLY
  5 .comment      00000059  00000000  00000000  00020470  2**0
                  CONTENTS, READONLY
  6 .debug_frame  000001bc  00000000  00000000  000204cc  2**2
                  CONTENTS, READONLY, DEBUGGING

Disassembly of section .text:

00000000 <_sfixed>:
       0:	200008c0 	.word	0x200008c0
       4:	000000f1 	.word	0x000000f1
       8:	000000ed 	.word	0x000000ed
       c:	000000ed 	.word	0x000000ed
	...
      2c:	000000ed 	.word	0x000000ed
	...
      38:	000000ed 	.word	0x000000ed
      3c:	000000ed 	.word	0x000000ed
      40:	000000ed 	.word	0x000000ed
      44:	000000ed 	.word	0x000000ed
      48:	000000ed 	.word	0x000000ed
      4c:	00000ebd 	.word	0x00000ebd
      50:	000000ed 	.word	0x000000ed
      54:	000000ed 	.word	0x000000ed
      58:	000000ed 	.word	0x000000ed
      5c:	000000ed 	.word	0x000000ed
      60:	000000ed 	.word	0x000000ed
      64:	000000ed 	.word	0x000000ed
      68:	000000ed 	.word	0x000000ed
      6c:	00000000 	.word	0x00000000
      70:	000000ed 	.word	0x000000ed
      74:	00000f25 	.word	0x00000f25
      78:	000000ed 	.word	0x000000ed
      7c:	000000ed 	.word	0x000000ed
      80:	000000ed 	.word	0x000000ed
      84:	000000ed 	.word	0x000000ed
      88:	000000ed 	.word	0x000000ed

0000008c <__do_global_dtors_aux>:
      8c:	b510      	push	{r4, lr}
      8e:	4c06      	ldr	r4, [pc, #24]	; (a8 <__do_global_dtors_aux+0x1c>)
      90:	7823      	ldrb	r3, [r4, #0]
      92:	2b00      	cmp	r3, #0
      94:	d107      	bne.n	a6 <__do_global_dtors_aux+0x1a>
      96:	4b05      	ldr	r3, [pc, #20]	; (ac <__do_global_dtors_aux+0x20>)
      98:	2b00      	cmp	r3, #0
      9a:	d002      	beq.n	a2 <__do_global_dtors_aux+0x16>
      9c:	4804      	ldr	r0, [pc, #16]	; (b0 <__do_global_dtors_aux+0x24>)
      9e:	e000      	b.n	a2 <__do_global_dtors_aux+0x16>
      a0:	bf00      	nop
      a2:	2301      	movs	r3, #1
      a4:	7023      	strb	r3, [r4, #0]
      a6:	bd10      	pop	{r4, pc}
      a8:	20000448 	.word	0x20000448
      ac:	00000000 	.word	0x00000000
      b0:	000016cc 	.word	0x000016cc

000000b4 <frame_dummy>:
      b4:	4b08      	ldr	r3, [pc, #32]	; (d8 <frame_dummy+0x24>)
      b6:	b510      	push	{r4, lr}
      b8:	2b00      	cmp	r3, #0
      ba:	d003      	beq.n	c4 <frame_dummy+0x10>
      bc:	4907      	ldr	r1, [pc, #28]	; (dc <frame_dummy+0x28>)
      be:	4808      	ldr	r0, [pc, #32]	; (e0 <frame_dummy+0x2c>)
      c0:	e000      	b.n	c4 <frame_dummy+0x10>
      c2:	bf00      	nop
      c4:	4807      	ldr	r0, [pc, #28]	; (e4 <frame_dummy+0x30>)
      c6:	6803      	ldr	r3, [r0, #0]
      c8:	2b00      	cmp	r3, #0
      ca:	d100      	bne.n	ce <frame_dummy+0x1a>
      cc:	bd10      	pop	{r4, pc}
      ce:	4b06      	ldr	r3, [pc, #24]	; (e8 <frame_dummy+0x34>)
      d0:	2b00      	cmp	r3, #0
      d2:	d0fb      	beq.n	cc <frame_dummy+0x18>
      d4:	4798      	blx	r3
      d6:	e7f9      	b.n	cc <frame_dummy+0x18>
      d8:	00000000 	.word	0x00000000
      dc:	2000044c 	.word	0x2000044c
      e0:	000016cc 	.word	0x000016cc
      e4:	000016cc 	.word	0x000016cc
      e8:	00000000 	.word	0x00000000

000000ec <Dummy_Handler>:
      ec:	e7fe      	b.n	ec <Dummy_Handler>
	...

000000f0 <Reset_Handler>:
      f0:	4821      	ldr	r0, [pc, #132]	; (178 <Reset_Handler+0x88>)
      f2:	4922      	ldr	r1, [pc, #136]	; (17c <Reset_Handler+0x8c>)
      f4:	b570      	push	{r4, r5, r6, lr}
      f6:	4288      	cmp	r0, r1
      f8:	d002      	beq.n	100 <Reset_Handler+0x10>
      fa:	2300      	movs	r3, #0
      fc:	4c20      	ldr	r4, [pc, #128]	; (180 <Reset_Handler+0x90>)
      fe:	e003      	b.n	108 <Reset_Handler+0x18>
     100:	4b20      	ldr	r3, [pc, #128]	; (184 <Reset_Handler+0x94>)
     102:	4a21      	ldr	r2, [pc, #132]	; (188 <Reset_Handler+0x98>)
     104:	2100      	movs	r1, #0
     106:	e006      	b.n	116 <Reset_Handler+0x26>
     108:	18ca      	adds	r2, r1, r3
     10a:	42a2      	cmp	r2, r4
     10c:	d2f8      	bcs.n	100 <Reset_Handler+0x10>
     10e:	58c5      	ldr	r5, [r0, r3]
     110:	3304      	adds	r3, #4
     112:	6015      	str	r5, [r2, #0]
     114:	e7f8      	b.n	108 <Reset_Handler+0x18>
     116:	4293      	cmp	r3, r2
     118:	d201      	bcs.n	11e <Reset_Handler+0x2e>
     11a:	c302      	stmia	r3!, {r1}
     11c:	e7fb      	b.n	116 <Reset_Handler+0x26>
     11e:	21ff      	movs	r1, #255	; 0xff
     120:	2402      	movs	r4, #2
     122:	2503      	movs	r5, #3
     124:	4b19      	ldr	r3, [pc, #100]	; (18c <Reset_Handler+0x9c>)
     126:	4a1a      	ldr	r2, [pc, #104]	; (190 <Reset_Handler+0xa0>)
     128:	438b      	bics	r3, r1
     12a:	260c      	movs	r6, #12
     12c:	6093      	str	r3, [r2, #8]
     12e:	2208      	movs	r2, #8
     130:	4b18      	ldr	r3, [pc, #96]	; (194 <Reset_Handler+0xa4>)
     132:	4919      	ldr	r1, [pc, #100]	; (198 <Reset_Handler+0xa8>)
     134:	625c      	str	r4, [r3, #36]	; 0x24
     136:	78cb      	ldrb	r3, [r1, #3]
     138:	43ab      	bics	r3, r5
     13a:	4323      	orrs	r3, r4
     13c:	70cb      	strb	r3, [r1, #3]
     13e:	78cb      	ldrb	r3, [r1, #3]
     140:	43b3      	bics	r3, r6
     142:	4313      	orrs	r3, r2
     144:	70cb      	strb	r3, [r1, #3]
     146:	2130      	movs	r1, #48	; 0x30
     148:	4b14      	ldr	r3, [pc, #80]	; (19c <Reset_Handler+0xac>)
     14a:	7b98      	ldrb	r0, [r3, #14]
     14c:	4388      	bics	r0, r1
     14e:	3910      	subs	r1, #16
     150:	4308      	orrs	r0, r1
     152:	7398      	strb	r0, [r3, #14]
     154:	7b99      	ldrb	r1, [r3, #14]
     156:	43b1      	bics	r1, r6
     158:	4311      	orrs	r1, r2
     15a:	7399      	strb	r1, [r3, #14]
     15c:	2180      	movs	r1, #128	; 0x80
     15e:	7b9a      	ldrb	r2, [r3, #14]
     160:	43aa      	bics	r2, r5
     162:	4322      	orrs	r2, r4
     164:	739a      	strb	r2, [r3, #14]
     166:	4a0e      	ldr	r2, [pc, #56]	; (1a0 <Reset_Handler+0xb0>)
     168:	6853      	ldr	r3, [r2, #4]
     16a:	430b      	orrs	r3, r1
     16c:	6053      	str	r3, [r2, #4]
     16e:	4b0d      	ldr	r3, [pc, #52]	; (1a4 <Reset_Handler+0xb4>)
     170:	4798      	blx	r3
     172:	4b0d      	ldr	r3, [pc, #52]	; (1a8 <Reset_Handler+0xb8>)
     174:	4798      	blx	r3
     176:	e7fe      	b.n	176 <Reset_Handler+0x86>
     178:	000016cc 	.word	0x000016cc
     17c:	20000000 	.word	0x20000000
     180:	20000448 	.word	0x20000448
     184:	20000448 	.word	0x20000448
     188:	200004bc 	.word	0x200004bc
     18c:	00000000 	.word	0x00000000
     190:	e000ed00 	.word	0xe000ed00
     194:	410070fc 	.word	0x410070fc
     198:	41005000 	.word	0x41005000
     19c:	41004800 	.word	0x41004800
     1a0:	41004000 	.word	0x41004000
     1a4:	000012b1 	.word	0x000012b1
     1a8:	0000035d 	.word	0x0000035d

000001ac <SystemInit>:
     1ac:	4a01      	ldr	r2, [pc, #4]	; (1b4 <SystemInit+0x8>)
     1ae:	4b02      	ldr	r3, [pc, #8]	; (1b8 <SystemInit+0xc>)
     1b0:	601a      	str	r2, [r3, #0]
     1b2:	4770      	bx	lr
     1b4:	000f4240 	.word	0x000f4240
     1b8:	20000000 	.word	0x20000000

000001bc <init>:
     1bc:	211e      	movs	r1, #30
     1be:	b5f8      	push	{r3, r4, r5, r6, r7, lr}
     1c0:	2502      	movs	r5, #2
     1c2:	4a50      	ldr	r2, [pc, #320]	; (304 <init+0x148>)
     1c4:	2401      	movs	r4, #1
     1c6:	6853      	ldr	r3, [r2, #4]
     1c8:	438b      	bics	r3, r1
     1ca:	432b      	orrs	r3, r5
     1cc:	6053      	str	r3, [r2, #4]
     1ce:	4a4e      	ldr	r2, [pc, #312]	; (308 <init+0x14c>)
     1d0:	3916      	subs	r1, #22
     1d2:	6993      	ldr	r3, [r2, #24]
     1d4:	430b      	orrs	r3, r1
     1d6:	6193      	str	r3, [r2, #24]
     1d8:	4b4c      	ldr	r3, [pc, #304]	; (30c <init+0x150>)
     1da:	4798      	blx	r3
     1dc:	4b4c      	ldr	r3, [pc, #304]	; (310 <init+0x154>)
     1de:	4798      	blx	r3
     1e0:	4b4c      	ldr	r3, [pc, #304]	; (314 <init+0x158>)
     1e2:	4798      	blx	r3
     1e4:	4b4c      	ldr	r3, [pc, #304]	; (318 <init+0x15c>)
     1e6:	4798      	blx	r3
     1e8:	2240      	movs	r2, #64	; 0x40
     1ea:	21c1      	movs	r1, #193	; 0xc1
     1ec:	4b4b      	ldr	r3, [pc, #300]	; (31c <init+0x160>)
     1ee:	0089      	lsls	r1, r1, #2
     1f0:	601a      	str	r2, [r3, #0]
     1f2:	5858      	ldr	r0, [r3, r1]
     1f4:	4a4a      	ldr	r2, [pc, #296]	; (320 <init+0x164>)
     1f6:	4002      	ands	r2, r0
     1f8:	505a      	str	r2, [r3, r1]
     1fa:	4b4a      	ldr	r3, [pc, #296]	; (324 <init+0x168>)
     1fc:	001f      	movs	r7, r3
     1fe:	374e      	adds	r7, #78	; 0x4e
     200:	783a      	ldrb	r2, [r7, #0]
     202:	0019      	movs	r1, r3
     204:	43a2      	bics	r2, r4
     206:	703a      	strb	r2, [r7, #0]
     208:	2280      	movs	r2, #128	; 0x80
     20a:	01d2      	lsls	r2, r2, #7
     20c:	609a      	str	r2, [r3, #8]
     20e:	314f      	adds	r1, #79	; 0x4f
     210:	780a      	ldrb	r2, [r1, #0]
     212:	001e      	movs	r6, r3
     214:	43a2      	bics	r2, r4
     216:	700a      	strb	r2, [r1, #0]
     218:	780a      	ldrb	r2, [r1, #0]
     21a:	3637      	adds	r6, #55	; 0x37
     21c:	432a      	orrs	r2, r5
     21e:	700a      	strb	r2, [r1, #0]
     220:	2280      	movs	r2, #128	; 0x80
     222:	0212      	lsls	r2, r2, #8
     224:	605a      	str	r2, [r3, #4]
     226:	220f      	movs	r2, #15
     228:	7830      	ldrb	r0, [r6, #0]
     22a:	4390      	bics	r0, r2
     22c:	4328      	orrs	r0, r5
     22e:	7030      	strb	r0, [r6, #0]
     230:	7838      	ldrb	r0, [r7, #0]
     232:	4320      	orrs	r0, r4
     234:	7038      	strb	r0, [r7, #0]
     236:	2720      	movs	r7, #32
     238:	7830      	ldrb	r0, [r6, #0]
     23a:	46bc      	mov	ip, r7
     23c:	4010      	ands	r0, r2
     23e:	4338      	orrs	r0, r7
     240:	001f      	movs	r7, r3
     242:	7030      	strb	r0, [r6, #0]
     244:	7808      	ldrb	r0, [r1, #0]
     246:	3758      	adds	r7, #88	; 0x58
     248:	4320      	orrs	r0, r4
     24a:	7008      	strb	r0, [r1, #0]
     24c:	7839      	ldrb	r1, [r7, #0]
     24e:	43a1      	bics	r1, r4
     250:	7039      	strb	r1, [r7, #0]
     252:	2180      	movs	r1, #128	; 0x80
     254:	0449      	lsls	r1, r1, #17
     256:	6099      	str	r1, [r3, #8]
     258:	0019      	movs	r1, r3
     25a:	3159      	adds	r1, #89	; 0x59
     25c:	7808      	ldrb	r0, [r1, #0]
     25e:	3911      	subs	r1, #17
     260:	43a0      	bics	r0, r4
     262:	7448      	strb	r0, [r1, #17]
     264:	7c48      	ldrb	r0, [r1, #17]
     266:	4328      	orrs	r0, r5
     268:	7448      	strb	r0, [r1, #17]
     26a:	2080      	movs	r0, #128	; 0x80
     26c:	0480      	lsls	r0, r0, #18
     26e:	6058      	str	r0, [r3, #4]
     270:	7970      	ldrb	r0, [r6, #5]
     272:	4390      	bics	r0, r2
     274:	4328      	orrs	r0, r5
     276:	7170      	strb	r0, [r6, #5]
     278:	7838      	ldrb	r0, [r7, #0]
     27a:	4320      	orrs	r0, r4
     27c:	7038      	strb	r0, [r7, #0]
     27e:	7970      	ldrb	r0, [r6, #5]
     280:	4002      	ands	r2, r0
     282:	4660      	mov	r0, ip
     284:	4302      	orrs	r2, r0
     286:	7172      	strb	r2, [r6, #5]
     288:	7c4a      	ldrb	r2, [r1, #17]
     28a:	4f27      	ldr	r7, [pc, #156]	; (328 <init+0x16c>)
     28c:	4322      	orrs	r2, r4
     28e:	744a      	strb	r2, [r1, #17]
     290:	780a      	ldrb	r2, [r1, #0]
     292:	43a2      	bics	r2, r4
     294:	700a      	strb	r2, [r1, #0]
     296:	2280      	movs	r2, #128	; 0x80
     298:	0052      	lsls	r2, r2, #1
     29a:	609a      	str	r2, [r3, #8]
     29c:	784a      	ldrb	r2, [r1, #1]
     29e:	43a2      	bics	r2, r4
     2a0:	704a      	strb	r2, [r1, #1]
     2a2:	2280      	movs	r2, #128	; 0x80
     2a4:	0092      	lsls	r2, r2, #2
     2a6:	609a      	str	r2, [r3, #8]
     2a8:	001a      	movs	r2, r3
     2aa:	3245      	adds	r2, #69	; 0x45
     2ac:	7811      	ldrb	r1, [r2, #0]
     2ae:	43a1      	bics	r1, r4
     2b0:	7011      	strb	r1, [r2, #0]
     2b2:	7811      	ldrb	r1, [r2, #0]
     2b4:	430d      	orrs	r5, r1
     2b6:	0019      	movs	r1, r3
     2b8:	7015      	strb	r5, [r2, #0]
     2ba:	2504      	movs	r5, #4
     2bc:	6058      	str	r0, [r3, #4]
     2be:	3142      	adds	r1, #66	; 0x42
     2c0:	780a      	ldrb	r2, [r1, #0]
     2c2:	2000      	movs	r0, #0
     2c4:	43a2      	bics	r2, r4
     2c6:	700a      	strb	r2, [r1, #0]
     2c8:	609d      	str	r5, [r3, #8]
     2ca:	619d      	str	r5, [r3, #24]
     2cc:	788a      	ldrb	r2, [r1, #2]
     2ce:	43a2      	bics	r2, r4
     2d0:	708a      	strb	r2, [r1, #2]
     2d2:	2210      	movs	r2, #16
     2d4:	0029      	movs	r1, r5
     2d6:	609a      	str	r2, [r3, #8]
     2d8:	619a      	str	r2, [r3, #24]
     2da:	3a08      	subs	r2, #8
     2dc:	47b8      	blx	r7
     2de:	2200      	movs	r2, #0
     2e0:	4e12      	ldr	r6, [pc, #72]	; (32c <init+0x170>)
     2e2:	4b13      	ldr	r3, [pc, #76]	; (330 <init+0x174>)
     2e4:	0021      	movs	r1, r4
     2e6:	0010      	movs	r0, r2
     2e8:	47b0      	blx	r6
     2ea:	0029      	movs	r1, r5
     2ec:	0020      	movs	r0, r4
     2ee:	2208      	movs	r2, #8
     2f0:	47b8      	blx	r7
     2f2:	0022      	movs	r2, r4
     2f4:	2103      	movs	r1, #3
     2f6:	0020      	movs	r0, r4
     2f8:	4b0e      	ldr	r3, [pc, #56]	; (334 <init+0x178>)
     2fa:	47b0      	blx	r6
     2fc:	4b0e      	ldr	r3, [pc, #56]	; (338 <init+0x17c>)
     2fe:	4798      	blx	r3
     300:	bdf8      	pop	{r3, r4, r5, r6, r7, pc}
     302:	46c0      	nop			; (mov r8, r8)
     304:	41004000 	.word	0x41004000
     308:	40000400 	.word	0x40000400
     30c:	000001ad 	.word	0x000001ad
     310:	00000cbd 	.word	0x00000cbd
     314:	00000d3d 	.word	0x00000d3d
     318:	00000e3d 	.word	0x00000e3d
     31c:	e000e100 	.word	0xe000e100
     320:	ff00ffff 	.word	0xff00ffff
     324:	41004400 	.word	0x41004400
     328:	000011e1 	.word	0x000011e1
     32c:	00001245 	.word	0x00001245
     330:	0000f974 	.word	0x0000f974
     334:	0000b15b 	.word	0x0000b15b
     338:	00000ed9 	.word	0x00000ed9

0000033c <SendUSART>:
     33c:	b570      	push	{r4, r5, r6, lr}
     33e:	0006      	movs	r6, r0
     340:	000d      	movs	r5, r1
     342:	2400      	movs	r4, #0
     344:	42ac      	cmp	r4, r5
     346:	da06      	bge.n	356 <SendUSART+0x1a>
     348:	5d31      	ldrb	r1, [r6, r4]
     34a:	2001      	movs	r0, #1
     34c:	4b02      	ldr	r3, [pc, #8]	; (358 <SendUSART+0x1c>)
     34e:	3401      	adds	r4, #1
     350:	4798      	blx	r3
     352:	b2e4      	uxtb	r4, r4
     354:	e7f6      	b.n	344 <SendUSART+0x8>
     356:	bd70      	pop	{r4, r5, r6, pc}
     358:	00001289 	.word	0x00001289

0000035c <main>:
     35c:	b5f0      	push	{r4, r5, r6, r7, lr}
     35e:	4b3d      	ldr	r3, [pc, #244]	; (454 <STACK_SIZE+0x54>)
     360:	b097      	sub	sp, #92	; 0x5c
     362:	4798      	blx	r3
     364:	2204      	movs	r2, #4
     366:	4b3c      	ldr	r3, [pc, #240]	; (458 <STACK_SIZE+0x58>)
     368:	4e3c      	ldr	r6, [pc, #240]	; (45c <STACK_SIZE+0x5c>)
     36a:	615a      	str	r2, [r3, #20]
     36c:	239f      	movs	r3, #159	; 0x9f
     36e:	9300      	str	r3, [sp, #0]
     370:	7873      	ldrb	r3, [r6, #1]
     372:	7830      	ldrb	r0, [r6, #0]
     374:	78b2      	ldrb	r2, [r6, #2]
     376:	021b      	lsls	r3, r3, #8
     378:	4303      	orrs	r3, r0
     37a:	0412      	lsls	r2, r2, #16
     37c:	0019      	movs	r1, r3
     37e:	0013      	movs	r3, r2
     380:	430b      	orrs	r3, r1
     382:	79b1      	ldrb	r1, [r6, #6]
     384:	7977      	ldrb	r7, [r6, #5]
     386:	79f4      	ldrb	r4, [r6, #7]
     388:	0209      	lsls	r1, r1, #8
     38a:	4339      	orrs	r1, r7
     38c:	0424      	lsls	r4, r4, #16
     38e:	0008      	movs	r0, r1
     390:	0021      	movs	r1, r4
     392:	7a34      	ldrb	r4, [r6, #8]
     394:	78f2      	ldrb	r2, [r6, #3]
     396:	7a75      	ldrb	r5, [r6, #9]
     398:	4301      	orrs	r1, r0
     39a:	0624      	lsls	r4, r4, #24
     39c:	430c      	orrs	r4, r1
     39e:	0612      	lsls	r2, r2, #24
     3a0:	431a      	orrs	r2, r3
     3a2:	0020      	movs	r0, r4
     3a4:	7933      	ldrb	r3, [r6, #4]
     3a6:	0029      	movs	r1, r5
     3a8:	4f2d      	ldr	r7, [pc, #180]	; (460 <STACK_SIZE+0x60>)
     3aa:	47b8      	blx	r7
     3ac:	7af3      	ldrb	r3, [r6, #11]
     3ae:	7ab1      	ldrb	r1, [r6, #10]
     3b0:	021b      	lsls	r3, r3, #8
     3b2:	430b      	orrs	r3, r1
     3b4:	001a      	movs	r2, r3
     3b6:	7b33      	ldrb	r3, [r6, #12]
     3b8:	7bb7      	ldrb	r7, [r6, #14]
     3ba:	041b      	lsls	r3, r3, #16
     3bc:	4313      	orrs	r3, r2
     3be:	7b72      	ldrb	r2, [r6, #13]
     3c0:	0029      	movs	r1, r5
     3c2:	0612      	lsls	r2, r2, #24
     3c4:	431a      	orrs	r2, r3
     3c6:	4e27      	ldr	r6, [pc, #156]	; (464 <STACK_SIZE+0x64>)
     3c8:	003b      	movs	r3, r7
     3ca:	0020      	movs	r0, r4
     3cc:	9213      	str	r2, [sp, #76]	; 0x4c
     3ce:	47b0      	blx	r6
     3d0:	9a13      	ldr	r2, [sp, #76]	; 0x4c
     3d2:	003b      	movs	r3, r7
     3d4:	0029      	movs	r1, r5
     3d6:	0020      	movs	r0, r4
     3d8:	47b0      	blx	r6
     3da:	0029      	movs	r1, r5
     3dc:	9a13      	ldr	r2, [sp, #76]	; 0x4c
     3de:	003b      	movs	r3, r7
     3e0:	0020      	movs	r0, r4
     3e2:	47b0      	blx	r6
     3e4:	2204      	movs	r2, #4
     3e6:	4b1c      	ldr	r3, [pc, #112]	; (458 <STACK_SIZE+0x58>)
     3e8:	619a      	str	r2, [r3, #24]
     3ea:	4b1f      	ldr	r3, [pc, #124]	; (468 <STACK_SIZE+0x68>)
     3ec:	4798      	blx	r3
     3ee:	2064      	movs	r0, #100	; 0x64
     3f0:	4b1e      	ldr	r3, [pc, #120]	; (46c <STACK_SIZE+0x6c>)
     3f2:	4798      	blx	r3
     3f4:	2031      	movs	r0, #49	; 0x31
     3f6:	4b1e      	ldr	r3, [pc, #120]	; (470 <STACK_SIZE+0x70>)
     3f8:	4798      	blx	r3
     3fa:	4b1e      	ldr	r3, [pc, #120]	; (474 <STACK_SIZE+0x74>)
     3fc:	4798      	blx	r3
     3fe:	4c1e      	ldr	r4, [pc, #120]	; (478 <STACK_SIZE+0x78>)
     400:	7863      	ldrb	r3, [r4, #1]
     402:	2b00      	cmp	r3, #0
     404:	d0f9      	beq.n	3fa <main+0x9e>
     406:	7823      	ldrb	r3, [r4, #0]
     408:	2b00      	cmp	r3, #0
     40a:	d0f6      	beq.n	3fa <main+0x9e>
     40c:	2300      	movs	r3, #0
     40e:	0021      	movs	r1, r4
     410:	7063      	strb	r3, [r4, #1]
     412:	7023      	strb	r3, [r4, #0]
     414:	3110      	adds	r1, #16
     416:	2244      	movs	r2, #68	; 0x44
     418:	4b18      	ldr	r3, [pc, #96]	; (47c <STACK_SIZE+0x7c>)
     41a:	4668      	mov	r0, sp
     41c:	4798      	blx	r3
     41e:	cc0f      	ldmia	r4!, {r0, r1, r2, r3}
     420:	4c17      	ldr	r4, [pc, #92]	; (480 <STACK_SIZE+0x80>)
     422:	47a0      	blx	r4
     424:	2118      	movs	r1, #24
     426:	4b17      	ldr	r3, [pc, #92]	; (484 <STACK_SIZE+0x84>)
     428:	4817      	ldr	r0, [pc, #92]	; (488 <STACK_SIZE+0x88>)
     42a:	244f      	movs	r4, #79	; 0x4f
     42c:	4798      	blx	r3
     42e:	ab02      	add	r3, sp, #8
     430:	18e4      	adds	r4, r4, r3
     432:	7020      	strb	r0, [r4, #0]
     434:	4b15      	ldr	r3, [pc, #84]	; (48c <STACK_SIZE+0x8c>)
     436:	20f5      	movs	r0, #245	; 0xf5
     438:	4798      	blx	r3
     43a:	7823      	ldrb	r3, [r4, #0]
     43c:	4c14      	ldr	r4, [pc, #80]	; (490 <STACK_SIZE+0x90>)
     43e:	2b00      	cmp	r3, #0
     440:	d100      	bne.n	444 <STACK_SIZE+0x44>
     442:	4c14      	ldr	r4, [pc, #80]	; (494 <STACK_SIZE+0x94>)
     444:	0020      	movs	r0, r4
     446:	4b14      	ldr	r3, [pc, #80]	; (498 <STACK_SIZE+0x98>)
     448:	4798      	blx	r3
     44a:	4b14      	ldr	r3, [pc, #80]	; (49c <STACK_SIZE+0x9c>)
     44c:	0001      	movs	r1, r0
     44e:	0020      	movs	r0, r4
     450:	4798      	blx	r3
     452:	e7d2      	b.n	3fa <main+0x9e>
     454:	000001bd 	.word	0x000001bd
     458:	41004400 	.word	0x41004400
     45c:	0000165c 	.word	0x0000165c
     460:	000004a1 	.word	0x000004a1
     464:	0000050d 	.word	0x0000050d
     468:	00000c31 	.word	0x00000c31
     46c:	00000e8d 	.word	0x00000e8d
     470:	00000561 	.word	0x00000561
     474:	00001029 	.word	0x00001029
     478:	20000468 	.word	0x20000468
     47c:	000012f9 	.word	0x000012f9
     480:	00000f51 	.word	0x00000f51
     484:	00000855 	.word	0x00000855
     488:	20000004 	.word	0x20000004
     48c:	0000068d 	.word	0x0000068d
     490:	0000166b 	.word	0x0000166b
     494:	00001670 	.word	0x00001670
     498:	00001451 	.word	0x00001451
     49c:	0000033d 	.word	0x0000033d

000004a0 <byteOut>:
     4a0:	0c01      	lsrs	r1, r0, #16
     4a2:	0c13      	lsrs	r3, r2, #16
     4a4:	b5f0      	push	{r4, r5, r6, r7, lr}
     4a6:	b2cd      	uxtb	r5, r1
     4a8:	b2d9      	uxtb	r1, r3
     4aa:	2301      	movs	r3, #1
     4ac:	001e      	movs	r6, r3
     4ae:	0e12      	lsrs	r2, r2, #24
     4b0:	4093      	lsls	r3, r2
     4b2:	0e00      	lsrs	r0, r0, #24
     4b4:	4086      	lsls	r6, r0
     4b6:	001a      	movs	r2, r3
     4b8:	2308      	movs	r3, #8
     4ba:	0030      	movs	r0, r6
     4bc:	4e11      	ldr	r6, [pc, #68]	; (504 <byteOut+0x64>)
     4be:	01c9      	lsls	r1, r1, #7
     4c0:	b087      	sub	sp, #28
     4c2:	198f      	adds	r7, r1, r6
     4c4:	4e10      	ldr	r6, [pc, #64]	; (508 <byteOut+0x68>)
     4c6:	ac0c      	add	r4, sp, #48	; 0x30
     4c8:	01ed      	lsls	r5, r5, #7
     4ca:	19ae      	adds	r6, r5, r6
     4cc:	7824      	ldrb	r4, [r4, #0]
     4ce:	9601      	str	r6, [sp, #4]
     4d0:	4e0c      	ldr	r6, [pc, #48]	; (504 <byteOut+0x64>)
     4d2:	46b4      	mov	ip, r6
     4d4:	44ac      	add	ip, r5
     4d6:	4666      	mov	r6, ip
     4d8:	6030      	str	r0, [r6, #0]
     4da:	b266      	sxtb	r6, r4
     4dc:	2e00      	cmp	r6, #0
     4de:	da05      	bge.n	4ec <byteOut+0x4c>
     4e0:	4e09      	ldr	r6, [pc, #36]	; (508 <byteOut+0x68>)
     4e2:	46b4      	mov	ip, r6
     4e4:	448c      	add	ip, r1
     4e6:	4666      	mov	r6, ip
     4e8:	6032      	str	r2, [r6, #0]
     4ea:	e000      	b.n	4ee <byteOut+0x4e>
     4ec:	603a      	str	r2, [r7, #0]
     4ee:	9e01      	ldr	r6, [sp, #4]
     4f0:	3b01      	subs	r3, #1
     4f2:	0064      	lsls	r4, r4, #1
     4f4:	b2db      	uxtb	r3, r3
     4f6:	6030      	str	r0, [r6, #0]
     4f8:	b2e4      	uxtb	r4, r4
     4fa:	2b00      	cmp	r3, #0
     4fc:	d1e8      	bne.n	4d0 <byteOut+0x30>
     4fe:	b007      	add	sp, #28
     500:	bdf0      	pop	{r4, r5, r6, r7, pc}
     502:	46c0      	nop			; (mov r8, r8)
     504:	41004414 	.word	0x41004414
     508:	41004418 	.word	0x41004418

0000050c <byteIn>:
     50c:	b5f0      	push	{r4, r5, r6, r7, lr}
     50e:	2501      	movs	r5, #1
     510:	b085      	sub	sp, #20
     512:	9103      	str	r1, [sp, #12]
     514:	0011      	movs	r1, r2
     516:	0c06      	lsrs	r6, r0, #16
     518:	9301      	str	r3, [sp, #4]
     51a:	b2f3      	uxtb	r3, r6
     51c:	002e      	movs	r6, r5
     51e:	0e09      	lsrs	r1, r1, #24
     520:	0c14      	lsrs	r4, r2, #16
     522:	9002      	str	r0, [sp, #8]
     524:	9200      	str	r2, [sp, #0]
     526:	408d      	lsls	r5, r1
     528:	0e02      	lsrs	r2, r0, #24
     52a:	2108      	movs	r1, #8
     52c:	2000      	movs	r0, #0
     52e:	4096      	lsls	r6, r2
     530:	b2e2      	uxtb	r2, r4
     532:	4c0a      	ldr	r4, [pc, #40]	; (55c <byteIn+0x50>)
     534:	01db      	lsls	r3, r3, #7
     536:	01d2      	lsls	r2, r2, #7
     538:	191b      	adds	r3, r3, r4
     53a:	1912      	adds	r2, r2, r4
     53c:	615e      	str	r6, [r3, #20]
     53e:	6a14      	ldr	r4, [r2, #32]
     540:	0040      	lsls	r0, r0, #1
     542:	402c      	ands	r4, r5
     544:	1e67      	subs	r7, r4, #1
     546:	41bc      	sbcs	r4, r7
     548:	3901      	subs	r1, #1
     54a:	4304      	orrs	r4, r0
     54c:	b2c9      	uxtb	r1, r1
     54e:	b2e0      	uxtb	r0, r4
     550:	619e      	str	r6, [r3, #24]
     552:	2900      	cmp	r1, #0
     554:	d1f2      	bne.n	53c <byteIn+0x30>
     556:	b005      	add	sp, #20
     558:	bdf0      	pop	{r4, r5, r6, r7, pc}
     55a:	46c0      	nop			; (mov r8, r8)
     55c:	41004400 	.word	0x41004400

00000560 <CC1101_cmd_strobe>:
     560:	2210      	movs	r2, #16
     562:	4b15      	ldr	r3, [pc, #84]	; (5b8 <CC1101_cmd_strobe+0x58>)
     564:	b573      	push	{r0, r1, r4, r5, r6, lr}
     566:	615a      	str	r2, [r3, #20]
     568:	1892      	adds	r2, r2, r2
     56a:	6a19      	ldr	r1, [r3, #32]
     56c:	4211      	tst	r1, r2
     56e:	d1fc      	bne.n	56a <CC1101_cmd_strobe+0xa>
     570:	4912      	ldr	r1, [pc, #72]	; (5bc <CC1101_cmd_strobe+0x5c>)
     572:	9000      	str	r0, [sp, #0]
     574:	784b      	ldrb	r3, [r1, #1]
     576:	780c      	ldrb	r4, [r1, #0]
     578:	788a      	ldrb	r2, [r1, #2]
     57a:	021b      	lsls	r3, r3, #8
     57c:	4323      	orrs	r3, r4
     57e:	0412      	lsls	r2, r2, #16
     580:	0018      	movs	r0, r3
     582:	0013      	movs	r3, r2
     584:	78ca      	ldrb	r2, [r1, #3]
     586:	4303      	orrs	r3, r0
     588:	0612      	lsls	r2, r2, #24
     58a:	1d4e      	adds	r6, r1, #5
     58c:	794d      	ldrb	r5, [r1, #5]
     58e:	431a      	orrs	r2, r3
     590:	790b      	ldrb	r3, [r1, #4]
     592:	7989      	ldrb	r1, [r1, #6]
     594:	78b0      	ldrb	r0, [r6, #2]
     596:	0209      	lsls	r1, r1, #8
     598:	4329      	orrs	r1, r5
     59a:	0400      	lsls	r0, r0, #16
     59c:	000c      	movs	r4, r1
     59e:	0001      	movs	r1, r0
     5a0:	78f0      	ldrb	r0, [r6, #3]
     5a2:	4321      	orrs	r1, r4
     5a4:	0600      	lsls	r0, r0, #24
     5a6:	4308      	orrs	r0, r1
     5a8:	4c05      	ldr	r4, [pc, #20]	; (5c0 <CC1101_cmd_strobe+0x60>)
     5aa:	7931      	ldrb	r1, [r6, #4]
     5ac:	47a0      	blx	r4
     5ae:	2210      	movs	r2, #16
     5b0:	4b01      	ldr	r3, [pc, #4]	; (5b8 <CC1101_cmd_strobe+0x58>)
     5b2:	619a      	str	r2, [r3, #24]
     5b4:	bd73      	pop	{r0, r1, r4, r5, r6, pc}
     5b6:	46c0      	nop			; (mov r8, r8)
     5b8:	41004400 	.word	0x41004400
     5bc:	00001676 	.word	0x00001676
     5c0:	000004a1 	.word	0x000004a1

000005c4 <CC1101_set_RX_state>:
     5c4:	2210      	movs	r2, #16
     5c6:	4b15      	ldr	r3, [pc, #84]	; (61c <CC1101_set_RX_state+0x58>)
     5c8:	b573      	push	{r0, r1, r4, r5, r6, lr}
     5ca:	615a      	str	r2, [r3, #20]
     5cc:	1892      	adds	r2, r2, r2
     5ce:	6a19      	ldr	r1, [r3, #32]
     5d0:	4211      	tst	r1, r2
     5d2:	d1fc      	bne.n	5ce <CC1101_set_RX_state+0xa>
     5d4:	2334      	movs	r3, #52	; 0x34
     5d6:	4912      	ldr	r1, [pc, #72]	; (620 <CC1101_set_RX_state+0x5c>)
     5d8:	9300      	str	r3, [sp, #0]
     5da:	784b      	ldrb	r3, [r1, #1]
     5dc:	780c      	ldrb	r4, [r1, #0]
     5de:	788a      	ldrb	r2, [r1, #2]
     5e0:	021b      	lsls	r3, r3, #8
     5e2:	4323      	orrs	r3, r4
     5e4:	0412      	lsls	r2, r2, #16
     5e6:	0018      	movs	r0, r3
     5e8:	0013      	movs	r3, r2
     5ea:	78ca      	ldrb	r2, [r1, #3]
     5ec:	4303      	orrs	r3, r0
     5ee:	0612      	lsls	r2, r2, #24
     5f0:	1d4e      	adds	r6, r1, #5
     5f2:	794d      	ldrb	r5, [r1, #5]
     5f4:	431a      	orrs	r2, r3
     5f6:	790b      	ldrb	r3, [r1, #4]
     5f8:	7989      	ldrb	r1, [r1, #6]
     5fa:	78b0      	ldrb	r0, [r6, #2]
     5fc:	0209      	lsls	r1, r1, #8
     5fe:	4329      	orrs	r1, r5
     600:	0400      	lsls	r0, r0, #16
     602:	000c      	movs	r4, r1
     604:	0001      	movs	r1, r0
     606:	78f0      	ldrb	r0, [r6, #3]
     608:	4321      	orrs	r1, r4
     60a:	0600      	lsls	r0, r0, #24
     60c:	4308      	orrs	r0, r1
     60e:	4c05      	ldr	r4, [pc, #20]	; (624 <CC1101_set_RX_state+0x60>)
     610:	7931      	ldrb	r1, [r6, #4]
     612:	47a0      	blx	r4
     614:	2210      	movs	r2, #16
     616:	4b01      	ldr	r3, [pc, #4]	; (61c <CC1101_set_RX_state+0x58>)
     618:	619a      	str	r2, [r3, #24]
     61a:	bd73      	pop	{r0, r1, r4, r5, r6, pc}
     61c:	41004400 	.word	0x41004400
     620:	00001676 	.word	0x00001676
     624:	000004a1 	.word	0x000004a1

00000628 <CC1101_set_TX_state>:
     628:	2210      	movs	r2, #16
     62a:	4b15      	ldr	r3, [pc, #84]	; (680 <CC1101_set_TX_state+0x58>)
     62c:	b573      	push	{r0, r1, r4, r5, r6, lr}
     62e:	615a      	str	r2, [r3, #20]
     630:	1892      	adds	r2, r2, r2
     632:	6a19      	ldr	r1, [r3, #32]
     634:	4211      	tst	r1, r2
     636:	d1fc      	bne.n	632 <CC1101_set_TX_state+0xa>
     638:	2335      	movs	r3, #53	; 0x35
     63a:	4912      	ldr	r1, [pc, #72]	; (684 <CC1101_set_TX_state+0x5c>)
     63c:	9300      	str	r3, [sp, #0]
     63e:	784b      	ldrb	r3, [r1, #1]
     640:	780c      	ldrb	r4, [r1, #0]
     642:	788a      	ldrb	r2, [r1, #2]
     644:	021b      	lsls	r3, r3, #8
     646:	4323      	orrs	r3, r4
     648:	0412      	lsls	r2, r2, #16
     64a:	0018      	movs	r0, r3
     64c:	0013      	movs	r3, r2
     64e:	78ca      	ldrb	r2, [r1, #3]
     650:	4303      	orrs	r3, r0
     652:	0612      	lsls	r2, r2, #24
     654:	1d4e      	adds	r6, r1, #5
     656:	794d      	ldrb	r5, [r1, #5]
     658:	431a      	orrs	r2, r3
     65a:	790b      	ldrb	r3, [r1, #4]
     65c:	7989      	ldrb	r1, [r1, #6]
     65e:	78b0      	ldrb	r0, [r6, #2]
     660:	0209      	lsls	r1, r1, #8
     662:	4329      	orrs	r1, r5
     664:	0400      	lsls	r0, r0, #16
     666:	000c      	movs	r4, r1
     668:	0001      	movs	r1, r0
     66a:	78f0      	ldrb	r0, [r6, #3]
     66c:	4321      	orrs	r1, r4
     66e:	0600      	lsls	r0, r0, #24
     670:	4308      	orrs	r0, r1
     672:	4c05      	ldr	r4, [pc, #20]	; (688 <CC1101_set_TX_state+0x60>)
     674:	7931      	ldrb	r1, [r6, #4]
     676:	47a0      	blx	r4
     678:	2210      	movs	r2, #16
     67a:	4b01      	ldr	r3, [pc, #4]	; (680 <CC1101_set_TX_state+0x58>)
     67c:	619a      	str	r2, [r3, #24]
     67e:	bd73      	pop	{r0, r1, r4, r5, r6, pc}
     680:	41004400 	.word	0x41004400
     684:	00001676 	.word	0x00001676
     688:	000004a1 	.word	0x000004a1

0000068c <cc1101_read_reg>:
     68c:	b5f7      	push	{r0, r1, r2, r4, r5, r6, r7, lr}
     68e:	2210      	movs	r2, #16
     690:	4b1d      	ldr	r3, [pc, #116]	; (708 <cc1101_read_reg+0x7c>)
     692:	615a      	str	r2, [r3, #20]
     694:	1892      	adds	r2, r2, r2
     696:	6a19      	ldr	r1, [r3, #32]
     698:	4211      	tst	r1, r2
     69a:	d1fc      	bne.n	696 <cc1101_read_reg+0xa>
     69c:	4c1b      	ldr	r4, [pc, #108]	; (70c <cc1101_read_reg+0x80>)
     69e:	9000      	str	r0, [sp, #0]
     6a0:	7863      	ldrb	r3, [r4, #1]
     6a2:	7820      	ldrb	r0, [r4, #0]
     6a4:	78a2      	ldrb	r2, [r4, #2]
     6a6:	021b      	lsls	r3, r3, #8
     6a8:	4303      	orrs	r3, r0
     6aa:	0412      	lsls	r2, r2, #16
     6ac:	0019      	movs	r1, r3
     6ae:	0013      	movs	r3, r2
     6b0:	430b      	orrs	r3, r1
     6b2:	79a1      	ldrb	r1, [r4, #6]
     6b4:	7966      	ldrb	r6, [r4, #5]
     6b6:	79e5      	ldrb	r5, [r4, #7]
     6b8:	0209      	lsls	r1, r1, #8
     6ba:	4331      	orrs	r1, r6
     6bc:	042d      	lsls	r5, r5, #16
     6be:	0008      	movs	r0, r1
     6c0:	0029      	movs	r1, r5
     6c2:	7a25      	ldrb	r5, [r4, #8]
     6c4:	78e2      	ldrb	r2, [r4, #3]
     6c6:	7a66      	ldrb	r6, [r4, #9]
     6c8:	4301      	orrs	r1, r0
     6ca:	062d      	lsls	r5, r5, #24
     6cc:	430d      	orrs	r5, r1
     6ce:	0612      	lsls	r2, r2, #24
     6d0:	0028      	movs	r0, r5
     6d2:	0031      	movs	r1, r6
     6d4:	431a      	orrs	r2, r3
     6d6:	4f0e      	ldr	r7, [pc, #56]	; (710 <cc1101_read_reg+0x84>)
     6d8:	7923      	ldrb	r3, [r4, #4]
     6da:	47b8      	blx	r7
     6dc:	7ae3      	ldrb	r3, [r4, #11]
     6de:	7aa0      	ldrb	r0, [r4, #10]
     6e0:	7b22      	ldrb	r2, [r4, #12]
     6e2:	021b      	lsls	r3, r3, #8
     6e4:	4303      	orrs	r3, r0
     6e6:	0412      	lsls	r2, r2, #16
     6e8:	0019      	movs	r1, r3
     6ea:	0013      	movs	r3, r2
     6ec:	7b62      	ldrb	r2, [r4, #13]
     6ee:	430b      	orrs	r3, r1
     6f0:	0612      	lsls	r2, r2, #24
     6f2:	431a      	orrs	r2, r3
     6f4:	0028      	movs	r0, r5
     6f6:	7ba3      	ldrb	r3, [r4, #14]
     6f8:	0031      	movs	r1, r6
     6fa:	4c06      	ldr	r4, [pc, #24]	; (714 <cc1101_read_reg+0x88>)
     6fc:	47a0      	blx	r4
     6fe:	2210      	movs	r2, #16
     700:	4b01      	ldr	r3, [pc, #4]	; (708 <cc1101_read_reg+0x7c>)
     702:	619a      	str	r2, [r3, #24]
     704:	bdfe      	pop	{r1, r2, r3, r4, r5, r6, r7, pc}
     706:	46c0      	nop			; (mov r8, r8)
     708:	41004400 	.word	0x41004400
     70c:	00001676 	.word	0x00001676
     710:	000004a1 	.word	0x000004a1
     714:	0000050d 	.word	0x0000050d

00000718 <CC1101_write_burst_reg>:
     718:	2340      	movs	r3, #64	; 0x40
     71a:	b5f0      	push	{r4, r5, r6, r7, lr}
     71c:	0016      	movs	r6, r2
     71e:	2210      	movs	r2, #16
     720:	4318      	orrs	r0, r3
     722:	4b28      	ldr	r3, [pc, #160]	; (7c4 <CC1101_write_burst_reg+0xac>)
     724:	b085      	sub	sp, #20
     726:	615a      	str	r2, [r3, #20]
     728:	000d      	movs	r5, r1
     72a:	9302      	str	r3, [sp, #8]
     72c:	2320      	movs	r3, #32
     72e:	9a02      	ldr	r2, [sp, #8]
     730:	6a12      	ldr	r2, [r2, #32]
     732:	421a      	tst	r2, r3
     734:	d1fb      	bne.n	72e <CC1101_write_burst_reg+0x16>
     736:	4c24      	ldr	r4, [pc, #144]	; (7c8 <CC1101_write_burst_reg+0xb0>)
     738:	9000      	str	r0, [sp, #0]
     73a:	7863      	ldrb	r3, [r4, #1]
     73c:	7820      	ldrb	r0, [r4, #0]
     73e:	78a2      	ldrb	r2, [r4, #2]
     740:	021b      	lsls	r3, r3, #8
     742:	4303      	orrs	r3, r0
     744:	0412      	lsls	r2, r2, #16
     746:	0019      	movs	r1, r3
     748:	0013      	movs	r3, r2
     74a:	430b      	orrs	r3, r1
     74c:	79a1      	ldrb	r1, [r4, #6]
     74e:	7960      	ldrb	r0, [r4, #5]
     750:	0209      	lsls	r1, r1, #8
     752:	4301      	orrs	r1, r0
     754:	79e0      	ldrb	r0, [r4, #7]
     756:	78e2      	ldrb	r2, [r4, #3]
     758:	0400      	lsls	r0, r0, #16
     75a:	4301      	orrs	r1, r0
     75c:	7a20      	ldrb	r0, [r4, #8]
     75e:	0612      	lsls	r2, r2, #24
     760:	0600      	lsls	r0, r0, #24
     762:	431a      	orrs	r2, r3
     764:	4308      	orrs	r0, r1
     766:	7923      	ldrb	r3, [r4, #4]
     768:	4f18      	ldr	r7, [pc, #96]	; (7cc <CC1101_write_burst_reg+0xb4>)
     76a:	7a61      	ldrb	r1, [r4, #9]
     76c:	47b8      	blx	r7
     76e:	27ff      	movs	r7, #255	; 0xff
     770:	19ab      	adds	r3, r5, r6
     772:	9303      	str	r3, [sp, #12]
     774:	9b03      	ldr	r3, [sp, #12]
     776:	429d      	cmp	r5, r3
     778:	d01e      	beq.n	7b8 <CC1101_write_burst_reg+0xa0>
     77a:	782b      	ldrb	r3, [r5, #0]
     77c:	7861      	ldrb	r1, [r4, #1]
     77e:	78a2      	ldrb	r2, [r4, #2]
     780:	9300      	str	r3, [sp, #0]
     782:	7823      	ldrb	r3, [r4, #0]
     784:	0412      	lsls	r2, r2, #16
     786:	0209      	lsls	r1, r1, #8
     788:	4319      	orrs	r1, r3
     78a:	0013      	movs	r3, r2
     78c:	430b      	orrs	r3, r1
     78e:	79a1      	ldrb	r1, [r4, #6]
     790:	7960      	ldrb	r0, [r4, #5]
     792:	0209      	lsls	r1, r1, #8
     794:	4301      	orrs	r1, r0
     796:	79e0      	ldrb	r0, [r4, #7]
     798:	78e2      	ldrb	r2, [r4, #3]
     79a:	0400      	lsls	r0, r0, #16
     79c:	4301      	orrs	r1, r0
     79e:	7a20      	ldrb	r0, [r4, #8]
     7a0:	0612      	lsls	r2, r2, #24
     7a2:	0600      	lsls	r0, r0, #24
     7a4:	431a      	orrs	r2, r3
     7a6:	4308      	orrs	r0, r1
     7a8:	7923      	ldrb	r3, [r4, #4]
     7aa:	7a61      	ldrb	r1, [r4, #9]
     7ac:	403b      	ands	r3, r7
     7ae:	4039      	ands	r1, r7
     7b0:	4e06      	ldr	r6, [pc, #24]	; (7cc <CC1101_write_burst_reg+0xb4>)
     7b2:	47b0      	blx	r6
     7b4:	3501      	adds	r5, #1
     7b6:	e7dd      	b.n	774 <CC1101_write_burst_reg+0x5c>
     7b8:	2310      	movs	r3, #16
     7ba:	9a02      	ldr	r2, [sp, #8]
     7bc:	6193      	str	r3, [r2, #24]
     7be:	b005      	add	sp, #20
     7c0:	bdf0      	pop	{r4, r5, r6, r7, pc}
     7c2:	46c0      	nop			; (mov r8, r8)
     7c4:	41004400 	.word	0x41004400
     7c8:	00001676 	.word	0x00001676
     7cc:	000004a1 	.word	0x000004a1

000007d0 <cc1101_write_reg>:
     7d0:	2210      	movs	r2, #16
     7d2:	b5f0      	push	{r4, r5, r6, r7, lr}
     7d4:	4b1c      	ldr	r3, [pc, #112]	; (848 <cc1101_write_reg+0x78>)
     7d6:	b085      	sub	sp, #20
     7d8:	9103      	str	r1, [sp, #12]
     7da:	615a      	str	r2, [r3, #20]
     7dc:	1892      	adds	r2, r2, r2
     7de:	6a19      	ldr	r1, [r3, #32]
     7e0:	4211      	tst	r1, r2
     7e2:	d1fc      	bne.n	7de <cc1101_write_reg+0xe>
     7e4:	2240      	movs	r2, #64	; 0x40
     7e6:	4b19      	ldr	r3, [pc, #100]	; (84c <cc1101_write_reg+0x7c>)
     7e8:	4310      	orrs	r0, r2
     7ea:	785a      	ldrb	r2, [r3, #1]
     7ec:	9000      	str	r0, [sp, #0]
     7ee:	789c      	ldrb	r4, [r3, #2]
     7f0:	7818      	ldrb	r0, [r3, #0]
     7f2:	0212      	lsls	r2, r2, #8
     7f4:	4302      	orrs	r2, r0
     7f6:	0424      	lsls	r4, r4, #16
     7f8:	0011      	movs	r1, r2
     7fa:	0022      	movs	r2, r4
     7fc:	1d5d      	adds	r5, r3, #5
     7fe:	791f      	ldrb	r7, [r3, #4]
     800:	430a      	orrs	r2, r1
     802:	78dc      	ldrb	r4, [r3, #3]
     804:	7959      	ldrb	r1, [r3, #5]
     806:	799b      	ldrb	r3, [r3, #6]
     808:	0624      	lsls	r4, r4, #24
     80a:	021b      	lsls	r3, r3, #8
     80c:	430b      	orrs	r3, r1
     80e:	4314      	orrs	r4, r2
     810:	001a      	movs	r2, r3
     812:	78ab      	ldrb	r3, [r5, #2]
     814:	792e      	ldrb	r6, [r5, #4]
     816:	041b      	lsls	r3, r3, #16
     818:	4313      	orrs	r3, r2
     81a:	78ea      	ldrb	r2, [r5, #3]
     81c:	0031      	movs	r1, r6
     81e:	0612      	lsls	r2, r2, #24
     820:	431a      	orrs	r2, r3
     822:	9202      	str	r2, [sp, #8]
     824:	003b      	movs	r3, r7
     826:	0022      	movs	r2, r4
     828:	9802      	ldr	r0, [sp, #8]
     82a:	4d09      	ldr	r5, [pc, #36]	; (850 <cc1101_write_reg+0x80>)
     82c:	47a8      	blx	r5
     82e:	9b03      	ldr	r3, [sp, #12]
     830:	0022      	movs	r2, r4
     832:	9300      	str	r3, [sp, #0]
     834:	9802      	ldr	r0, [sp, #8]
     836:	003b      	movs	r3, r7
     838:	0031      	movs	r1, r6
     83a:	47a8      	blx	r5
     83c:	2210      	movs	r2, #16
     83e:	4b02      	ldr	r3, [pc, #8]	; (848 <cc1101_write_reg+0x78>)
     840:	619a      	str	r2, [r3, #24]
     842:	b005      	add	sp, #20
     844:	bdf0      	pop	{r4, r5, r6, r7, pc}
     846:	46c0      	nop			; (mov r8, r8)
     848:	41004400 	.word	0x41004400
     84c:	00001676 	.word	0x00001676
     850:	000004a1 	.word	0x000004a1

00000854 <CC1101_tx_data>:
     854:	b5f0      	push	{r4, r5, r6, r7, lr}
     856:	4b86      	ldr	r3, [pc, #536]	; (a70 <CC1101_tx_data+0x21c>)
     858:	b085      	sub	sp, #20
     85a:	0006      	movs	r6, r0
     85c:	000f      	movs	r7, r1
     85e:	2510      	movs	r5, #16
     860:	4798      	blx	r3
     862:	20f5      	movs	r0, #245	; 0xf5
     864:	4c83      	ldr	r4, [pc, #524]	; (a74 <CC1101_tx_data+0x220>)
     866:	47a0      	blx	r4
     868:	231f      	movs	r3, #31
     86a:	4003      	ands	r3, r0
     86c:	2b0d      	cmp	r3, #13
     86e:	d02f      	beq.n	8d0 <CC1101_tx_data+0x7c>
     870:	2811      	cmp	r0, #17
     872:	d1f6      	bne.n	862 <CC1101_tx_data+0xe>
     874:	210b      	movs	r1, #11
     876:	4c80      	ldr	r4, [pc, #512]	; (a78 <CC1101_tx_data+0x224>)
     878:	4880      	ldr	r0, [pc, #512]	; (a7c <CC1101_tx_data+0x228>)
     87a:	47a0      	blx	r4
     87c:	2101      	movs	r1, #1
     87e:	2015      	movs	r0, #21
     880:	47a0      	blx	r4
     882:	2220      	movs	r2, #32
     884:	4b7e      	ldr	r3, [pc, #504]	; (a80 <CC1101_tx_data+0x22c>)
     886:	615d      	str	r5, [r3, #20]
     888:	6a19      	ldr	r1, [r3, #32]
     88a:	4211      	tst	r1, r2
     88c:	d1fc      	bne.n	888 <CC1101_tx_data+0x34>
     88e:	233a      	movs	r3, #58	; 0x3a
     890:	497c      	ldr	r1, [pc, #496]	; (a84 <CC1101_tx_data+0x230>)
     892:	9300      	str	r3, [sp, #0]
     894:	784b      	ldrb	r3, [r1, #1]
     896:	780a      	ldrb	r2, [r1, #0]
     898:	021b      	lsls	r3, r3, #8
     89a:	4313      	orrs	r3, r2
     89c:	788a      	ldrb	r2, [r1, #2]
     89e:	0018      	movs	r0, r3
     8a0:	0412      	lsls	r2, r2, #16
     8a2:	0013      	movs	r3, r2
     8a4:	78ca      	ldrb	r2, [r1, #3]
     8a6:	4303      	orrs	r3, r0
     8a8:	0612      	lsls	r2, r2, #24
     8aa:	1d4c      	adds	r4, r1, #5
     8ac:	7948      	ldrb	r0, [r1, #5]
     8ae:	431a      	orrs	r2, r3
     8b0:	790b      	ldrb	r3, [r1, #4]
     8b2:	7989      	ldrb	r1, [r1, #6]
     8b4:	0209      	lsls	r1, r1, #8
     8b6:	4301      	orrs	r1, r0
     8b8:	78a0      	ldrb	r0, [r4, #2]
     8ba:	0400      	lsls	r0, r0, #16
     8bc:	4301      	orrs	r1, r0
     8be:	78e0      	ldrb	r0, [r4, #3]
     8c0:	0600      	lsls	r0, r0, #24
     8c2:	4308      	orrs	r0, r1
     8c4:	7921      	ldrb	r1, [r4, #4]
     8c6:	4c70      	ldr	r4, [pc, #448]	; (a88 <CC1101_tx_data+0x234>)
     8c8:	47a0      	blx	r4
     8ca:	4b6d      	ldr	r3, [pc, #436]	; (a80 <CC1101_tx_data+0x22c>)
     8cc:	619d      	str	r5, [r3, #24]
     8ce:	e7c8      	b.n	862 <CC1101_tx_data+0xe>
     8d0:	20fa      	movs	r0, #250	; 0xfa
     8d2:	4d6e      	ldr	r5, [pc, #440]	; (a8c <CC1101_tx_data+0x238>)
     8d4:	0040      	lsls	r0, r0, #1
     8d6:	47a8      	blx	r5
     8d8:	003a      	movs	r2, r7
     8da:	0031      	movs	r1, r6
     8dc:	4b6c      	ldr	r3, [pc, #432]	; (a90 <CC1101_tx_data+0x23c>)
     8de:	203f      	movs	r0, #63	; 0x3f
     8e0:	4798      	blx	r3
     8e2:	20fa      	movs	r0, #250	; 0xfa
     8e4:	0040      	lsls	r0, r0, #1
     8e6:	47a8      	blx	r5
     8e8:	4b6a      	ldr	r3, [pc, #424]	; (a94 <CC1101_tx_data+0x240>)
     8ea:	4798      	blx	r3
     8ec:	20fa      	movs	r0, #250	; 0xfa
     8ee:	0040      	lsls	r0, r0, #1
     8f0:	47a8      	blx	r5
     8f2:	20f5      	movs	r0, #245	; 0xf5
     8f4:	47a0      	blx	r4
     8f6:	231f      	movs	r3, #31
     8f8:	4018      	ands	r0, r3
     8fa:	3813      	subs	r0, #19
     8fc:	2802      	cmp	r0, #2
     8fe:	d97c      	bls.n	9fa <CC1101_tx_data+0x1a6>
     900:	210e      	movs	r1, #14
     902:	4c5d      	ldr	r4, [pc, #372]	; (a78 <CC1101_tx_data+0x224>)
     904:	4864      	ldr	r0, [pc, #400]	; (a98 <CC1101_tx_data+0x244>)
     906:	47a0      	blx	r4
     908:	2101      	movs	r1, #1
     90a:	2015      	movs	r0, #21
     90c:	47a0      	blx	r4
     90e:	2310      	movs	r3, #16
     910:	4d5b      	ldr	r5, [pc, #364]	; (a80 <CC1101_tx_data+0x22c>)
     912:	616b      	str	r3, [r5, #20]
     914:	18db      	adds	r3, r3, r3
     916:	6a2a      	ldr	r2, [r5, #32]
     918:	4f59      	ldr	r7, [pc, #356]	; (a80 <CC1101_tx_data+0x22c>)
     91a:	421a      	tst	r2, r3
     91c:	d1fb      	bne.n	916 <CC1101_tx_data+0xc2>
     91e:	2336      	movs	r3, #54	; 0x36
     920:	4c58      	ldr	r4, [pc, #352]	; (a84 <CC1101_tx_data+0x230>)
     922:	9300      	str	r3, [sp, #0]
     924:	7863      	ldrb	r3, [r4, #1]
     926:	7820      	ldrb	r0, [r4, #0]
     928:	78a2      	ldrb	r2, [r4, #2]
     92a:	021b      	lsls	r3, r3, #8
     92c:	4303      	orrs	r3, r0
     92e:	0412      	lsls	r2, r2, #16
     930:	0019      	movs	r1, r3
     932:	0013      	movs	r3, r2
     934:	430b      	orrs	r3, r1
     936:	79a1      	ldrb	r1, [r4, #6]
     938:	7960      	ldrb	r0, [r4, #5]
     93a:	0209      	lsls	r1, r1, #8
     93c:	4301      	orrs	r1, r0
     93e:	79e0      	ldrb	r0, [r4, #7]
     940:	78e2      	ldrb	r2, [r4, #3]
     942:	0400      	lsls	r0, r0, #16
     944:	4301      	orrs	r1, r0
     946:	7a20      	ldrb	r0, [r4, #8]
     948:	0612      	lsls	r2, r2, #24
     94a:	0600      	lsls	r0, r0, #24
     94c:	431a      	orrs	r2, r3
     94e:	4308      	orrs	r0, r1
     950:	7923      	ldrb	r3, [r4, #4]
     952:	7a61      	ldrb	r1, [r4, #9]
     954:	4e4c      	ldr	r6, [pc, #304]	; (a88 <CC1101_tx_data+0x234>)
     956:	47b0      	blx	r6
     958:	2310      	movs	r3, #16
     95a:	61bb      	str	r3, [r7, #24]
     95c:	617b      	str	r3, [r7, #20]
     95e:	18db      	adds	r3, r3, r3
     960:	6a2a      	ldr	r2, [r5, #32]
     962:	4f47      	ldr	r7, [pc, #284]	; (a80 <CC1101_tx_data+0x22c>)
     964:	421a      	tst	r2, r3
     966:	d1fb      	bne.n	960 <CC1101_tx_data+0x10c>
     968:	1d63      	adds	r3, r4, #5
     96a:	469c      	mov	ip, r3
     96c:	233b      	movs	r3, #59	; 0x3b
     96e:	7861      	ldrb	r1, [r4, #1]
     970:	78a2      	ldrb	r2, [r4, #2]
     972:	9300      	str	r3, [sp, #0]
     974:	7823      	ldrb	r3, [r4, #0]
     976:	0412      	lsls	r2, r2, #16
     978:	0209      	lsls	r1, r1, #8
     97a:	4319      	orrs	r1, r3
     97c:	0013      	movs	r3, r2
     97e:	430b      	orrs	r3, r1
     980:	4661      	mov	r1, ip
     982:	7849      	ldrb	r1, [r1, #1]
     984:	7960      	ldrb	r0, [r4, #5]
     986:	0209      	lsls	r1, r1, #8
     988:	4301      	orrs	r1, r0
     98a:	4660      	mov	r0, ip
     98c:	7880      	ldrb	r0, [r0, #2]
     98e:	78e2      	ldrb	r2, [r4, #3]
     990:	0400      	lsls	r0, r0, #16
     992:	4301      	orrs	r1, r0
     994:	4660      	mov	r0, ip
     996:	78c0      	ldrb	r0, [r0, #3]
     998:	0612      	lsls	r2, r2, #24
     99a:	0600      	lsls	r0, r0, #24
     99c:	4308      	orrs	r0, r1
     99e:	4661      	mov	r1, ip
     9a0:	431a      	orrs	r2, r3
     9a2:	7909      	ldrb	r1, [r1, #4]
     9a4:	7923      	ldrb	r3, [r4, #4]
     9a6:	47b0      	blx	r6
     9a8:	2310      	movs	r3, #16
     9aa:	61bb      	str	r3, [r7, #24]
     9ac:	617b      	str	r3, [r7, #20]
     9ae:	18db      	adds	r3, r3, r3
     9b0:	6a2f      	ldr	r7, [r5, #32]
     9b2:	401f      	ands	r7, r3
     9b4:	d1fc      	bne.n	9b0 <CC1101_tx_data+0x15c>
     9b6:	233a      	movs	r3, #58	; 0x3a
     9b8:	9300      	str	r3, [sp, #0]
     9ba:	7863      	ldrb	r3, [r4, #1]
     9bc:	7820      	ldrb	r0, [r4, #0]
     9be:	78a2      	ldrb	r2, [r4, #2]
     9c0:	021b      	lsls	r3, r3, #8
     9c2:	4303      	orrs	r3, r0
     9c4:	0412      	lsls	r2, r2, #16
     9c6:	0019      	movs	r1, r3
     9c8:	0013      	movs	r3, r2
     9ca:	430b      	orrs	r3, r1
     9cc:	79a1      	ldrb	r1, [r4, #6]
     9ce:	7960      	ldrb	r0, [r4, #5]
     9d0:	1d65      	adds	r5, r4, #5
     9d2:	0209      	lsls	r1, r1, #8
     9d4:	78e2      	ldrb	r2, [r4, #3]
     9d6:	4301      	orrs	r1, r0
     9d8:	78a8      	ldrb	r0, [r5, #2]
     9da:	0612      	lsls	r2, r2, #24
     9dc:	0400      	lsls	r0, r0, #16
     9de:	431a      	orrs	r2, r3
     9e0:	7923      	ldrb	r3, [r4, #4]
     9e2:	000c      	movs	r4, r1
     9e4:	0001      	movs	r1, r0
     9e6:	78e8      	ldrb	r0, [r5, #3]
     9e8:	4321      	orrs	r1, r4
     9ea:	0600      	lsls	r0, r0, #24
     9ec:	4308      	orrs	r0, r1
     9ee:	7929      	ldrb	r1, [r5, #4]
     9f0:	47b0      	blx	r6
     9f2:	2210      	movs	r2, #16
     9f4:	4b22      	ldr	r3, [pc, #136]	; (a80 <CC1101_tx_data+0x22c>)
     9f6:	619a      	str	r2, [r3, #24]
     9f8:	e037      	b.n	a6a <CC1101_tx_data+0x216>
     9fa:	4b28      	ldr	r3, [pc, #160]	; (a9c <CC1101_tx_data+0x248>)
     9fc:	2064      	movs	r0, #100	; 0x64
     9fe:	4798      	blx	r3
     a00:	20fa      	movs	r0, #250	; 0xfa
     a02:	47a0      	blx	r4
     a04:	230f      	movs	r3, #15
     a06:	446b      	add	r3, sp
     a08:	7018      	strb	r0, [r3, #0]
     a0a:	20fa      	movs	r0, #250	; 0xfa
     a0c:	47a0      	blx	r4
     a0e:	2700      	movs	r7, #0
     a10:	42b8      	cmp	r0, r7
     a12:	d12a      	bne.n	a6a <CC1101_tx_data+0x216>
     a14:	2210      	movs	r2, #16
     a16:	4b1a      	ldr	r3, [pc, #104]	; (a80 <CC1101_tx_data+0x22c>)
     a18:	615a      	str	r2, [r3, #20]
     a1a:	1892      	adds	r2, r2, r2
     a1c:	6a19      	ldr	r1, [r3, #32]
     a1e:	4211      	tst	r1, r2
     a20:	d1fc      	bne.n	a1c <CC1101_tx_data+0x1c8>
     a22:	2336      	movs	r3, #54	; 0x36
     a24:	4917      	ldr	r1, [pc, #92]	; (a84 <CC1101_tx_data+0x230>)
     a26:	9300      	str	r3, [sp, #0]
     a28:	784b      	ldrb	r3, [r1, #1]
     a2a:	780c      	ldrb	r4, [r1, #0]
     a2c:	788a      	ldrb	r2, [r1, #2]
     a2e:	021b      	lsls	r3, r3, #8
     a30:	4323      	orrs	r3, r4
     a32:	0412      	lsls	r2, r2, #16
     a34:	0018      	movs	r0, r3
     a36:	0013      	movs	r3, r2
     a38:	78ca      	ldrb	r2, [r1, #3]
     a3a:	4303      	orrs	r3, r0
     a3c:	0612      	lsls	r2, r2, #24
     a3e:	1d4e      	adds	r6, r1, #5
     a40:	431a      	orrs	r2, r3
     a42:	794d      	ldrb	r5, [r1, #5]
     a44:	790b      	ldrb	r3, [r1, #4]
     a46:	7989      	ldrb	r1, [r1, #6]
     a48:	78b0      	ldrb	r0, [r6, #2]
     a4a:	0209      	lsls	r1, r1, #8
     a4c:	4329      	orrs	r1, r5
     a4e:	0400      	lsls	r0, r0, #16
     a50:	000c      	movs	r4, r1
     a52:	0001      	movs	r1, r0
     a54:	78f0      	ldrb	r0, [r6, #3]
     a56:	4321      	orrs	r1, r4
     a58:	0600      	lsls	r0, r0, #24
     a5a:	4308      	orrs	r0, r1
     a5c:	4c0a      	ldr	r4, [pc, #40]	; (a88 <CC1101_tx_data+0x234>)
     a5e:	7931      	ldrb	r1, [r6, #4]
     a60:	47a0      	blx	r4
     a62:	2210      	movs	r2, #16
     a64:	2701      	movs	r7, #1
     a66:	4b06      	ldr	r3, [pc, #24]	; (a80 <CC1101_tx_data+0x22c>)
     a68:	619a      	str	r2, [r3, #24]
     a6a:	0038      	movs	r0, r7
     a6c:	b005      	add	sp, #20
     a6e:	bdf0      	pop	{r4, r5, r6, r7, pc}
     a70:	000005c5 	.word	0x000005c5
     a74:	0000068d 	.word	0x0000068d
     a78:	0000033d 	.word	0x0000033d
     a7c:	00001685 	.word	0x00001685
     a80:	41004400 	.word	0x41004400
     a84:	00001676 	.word	0x00001676
     a88:	000004a1 	.word	0x000004a1
     a8c:	00000e5d 	.word	0x00000e5d
     a90:	00000719 	.word	0x00000719
     a94:	00000629 	.word	0x00000629
     a98:	00001691 	.word	0x00001691
     a9c:	00000e8d 	.word	0x00000e8d

00000aa0 <write_cc1101_status_regersters>:
     aa0:	b510      	push	{r4, lr}
     aa2:	2129      	movs	r1, #41	; 0x29
     aa4:	4c60      	ldr	r4, [pc, #384]	; (c28 <write_cc1101_status_regersters+0x188>)
     aa6:	2000      	movs	r0, #0
     aa8:	47a0      	blx	r4
     aaa:	212e      	movs	r1, #46	; 0x2e
     aac:	2001      	movs	r0, #1
     aae:	47a0      	blx	r4
     ab0:	2106      	movs	r1, #6
     ab2:	2002      	movs	r0, #2
     ab4:	47a0      	blx	r4
     ab6:	2147      	movs	r1, #71	; 0x47
     ab8:	2003      	movs	r0, #3
     aba:	47a0      	blx	r4
     abc:	21d3      	movs	r1, #211	; 0xd3
     abe:	2004      	movs	r0, #4
     ac0:	47a0      	blx	r4
     ac2:	2191      	movs	r1, #145	; 0x91
     ac4:	2005      	movs	r0, #5
     ac6:	47a0      	blx	r4
     ac8:	21ff      	movs	r1, #255	; 0xff
     aca:	2006      	movs	r0, #6
     acc:	47a0      	blx	r4
     ace:	2104      	movs	r1, #4
     ad0:	2007      	movs	r0, #7
     ad2:	47a0      	blx	r4
     ad4:	2105      	movs	r1, #5
     ad6:	2008      	movs	r0, #8
     ad8:	47a0      	blx	r4
     ada:	2100      	movs	r1, #0
     adc:	2009      	movs	r0, #9
     ade:	47a0      	blx	r4
     ae0:	2100      	movs	r1, #0
     ae2:	200a      	movs	r0, #10
     ae4:	47a0      	blx	r4
     ae6:	2106      	movs	r1, #6
     ae8:	200b      	movs	r0, #11
     aea:	47a0      	blx	r4
     aec:	2100      	movs	r1, #0
     aee:	200c      	movs	r0, #12
     af0:	47a0      	blx	r4
     af2:	2111      	movs	r1, #17
     af4:	2010      	movs	r0, #16
     af6:	47a0      	blx	r4
     af8:	2113      	movs	r1, #19
     afa:	20b5      	movs	r0, #181	; 0xb5
     afc:	47a0      	blx	r4
     afe:	21b1      	movs	r1, #177	; 0xb1
     b00:	202b      	movs	r0, #43	; 0x2b
     b02:	47a0      	blx	r4
     b04:	21f5      	movs	r1, #245	; 0xf5
     b06:	2010      	movs	r0, #16
     b08:	47a0      	blx	r4
     b0a:	2183      	movs	r1, #131	; 0x83
     b0c:	2011      	movs	r0, #17
     b0e:	47a0      	blx	r4
     b10:	2103      	movs	r1, #3
     b12:	2012      	movs	r0, #18
     b14:	47a0      	blx	r4
     b16:	2122      	movs	r1, #34	; 0x22
     b18:	2013      	movs	r0, #19
     b1a:	47a0      	blx	r4
     b1c:	21f8      	movs	r1, #248	; 0xf8
     b1e:	2014      	movs	r0, #20
     b20:	47a0      	blx	r4
     b22:	2115      	movs	r1, #21
     b24:	0008      	movs	r0, r1
     b26:	47a0      	blx	r4
     b28:	2107      	movs	r1, #7
     b2a:	2016      	movs	r0, #22
     b2c:	47a0      	blx	r4
     b2e:	2130      	movs	r1, #48	; 0x30
     b30:	2017      	movs	r0, #23
     b32:	47a0      	blx	r4
     b34:	2118      	movs	r1, #24
     b36:	0008      	movs	r0, r1
     b38:	47a0      	blx	r4
     b3a:	2116      	movs	r1, #22
     b3c:	2019      	movs	r0, #25
     b3e:	47a0      	blx	r4
     b40:	216c      	movs	r1, #108	; 0x6c
     b42:	201a      	movs	r0, #26
     b44:	47a0      	blx	r4
     b46:	2103      	movs	r1, #3
     b48:	201b      	movs	r0, #27
     b4a:	47a0      	blx	r4
     b4c:	2140      	movs	r1, #64	; 0x40
     b4e:	201c      	movs	r0, #28
     b50:	47a0      	blx	r4
     b52:	2191      	movs	r1, #145	; 0x91
     b54:	201d      	movs	r0, #29
     b56:	47a0      	blx	r4
     b58:	2187      	movs	r1, #135	; 0x87
     b5a:	201e      	movs	r0, #30
     b5c:	47a0      	blx	r4
     b5e:	216b      	movs	r1, #107	; 0x6b
     b60:	201f      	movs	r0, #31
     b62:	47a0      	blx	r4
     b64:	21fb      	movs	r1, #251	; 0xfb
     b66:	2020      	movs	r0, #32
     b68:	47a0      	blx	r4
     b6a:	2156      	movs	r1, #86	; 0x56
     b6c:	2021      	movs	r0, #33	; 0x21
     b6e:	47a0      	blx	r4
     b70:	2110      	movs	r1, #16
     b72:	2022      	movs	r0, #34	; 0x22
     b74:	47a0      	blx	r4
     b76:	21e9      	movs	r1, #233	; 0xe9
     b78:	2023      	movs	r0, #35	; 0x23
     b7a:	47a0      	blx	r4
     b7c:	212a      	movs	r1, #42	; 0x2a
     b7e:	2024      	movs	r0, #36	; 0x24
     b80:	47a0      	blx	r4
     b82:	2100      	movs	r1, #0
     b84:	2025      	movs	r0, #37	; 0x25
     b86:	47a0      	blx	r4
     b88:	211f      	movs	r1, #31
     b8a:	2026      	movs	r0, #38	; 0x26
     b8c:	47a0      	blx	r4
     b8e:	2141      	movs	r1, #65	; 0x41
     b90:	2027      	movs	r0, #39	; 0x27
     b92:	47a0      	blx	r4
     b94:	2100      	movs	r1, #0
     b96:	2028      	movs	r0, #40	; 0x28
     b98:	47a0      	blx	r4
     b9a:	2159      	movs	r1, #89	; 0x59
     b9c:	2029      	movs	r0, #41	; 0x29
     b9e:	47a0      	blx	r4
     ba0:	217f      	movs	r1, #127	; 0x7f
     ba2:	202a      	movs	r0, #42	; 0x2a
     ba4:	47a0      	blx	r4
     ba6:	213f      	movs	r1, #63	; 0x3f
     ba8:	202b      	movs	r0, #43	; 0x2b
     baa:	47a0      	blx	r4
     bac:	2181      	movs	r1, #129	; 0x81
     bae:	202c      	movs	r0, #44	; 0x2c
     bb0:	47a0      	blx	r4
     bb2:	2135      	movs	r1, #53	; 0x35
     bb4:	202d      	movs	r0, #45	; 0x2d
     bb6:	47a0      	blx	r4
     bb8:	2109      	movs	r1, #9
     bba:	202e      	movs	r0, #46	; 0x2e
     bbc:	47a0      	blx	r4
     bbe:	2100      	movs	r1, #0
     bc0:	2030      	movs	r0, #48	; 0x30
     bc2:	47a0      	blx	r4
     bc4:	2104      	movs	r1, #4
     bc6:	2031      	movs	r0, #49	; 0x31
     bc8:	47a0      	blx	r4
     bca:	2100      	movs	r1, #0
     bcc:	2032      	movs	r0, #50	; 0x32
     bce:	47a0      	blx	r4
     bd0:	2100      	movs	r1, #0
     bd2:	2033      	movs	r0, #51	; 0x33
     bd4:	47a0      	blx	r4
     bd6:	2100      	movs	r1, #0
     bd8:	2034      	movs	r0, #52	; 0x34
     bda:	47a0      	blx	r4
     bdc:	2100      	movs	r1, #0
     bde:	2035      	movs	r0, #53	; 0x35
     be0:	47a0      	blx	r4
     be2:	2100      	movs	r1, #0
     be4:	2036      	movs	r0, #54	; 0x36
     be6:	47a0      	blx	r4
     be8:	2100      	movs	r1, #0
     bea:	2037      	movs	r0, #55	; 0x37
     bec:	47a0      	blx	r4
     bee:	2100      	movs	r1, #0
     bf0:	2038      	movs	r0, #56	; 0x38
     bf2:	47a0      	blx	r4
     bf4:	2100      	movs	r1, #0
     bf6:	2039      	movs	r0, #57	; 0x39
     bf8:	47a0      	blx	r4
     bfa:	2100      	movs	r1, #0
     bfc:	203a      	movs	r0, #58	; 0x3a
     bfe:	47a0      	blx	r4
     c00:	2100      	movs	r1, #0
     c02:	203b      	movs	r0, #59	; 0x3b
     c04:	47a0      	blx	r4
     c06:	2100      	movs	r1, #0
     c08:	203c      	movs	r0, #60	; 0x3c
     c0a:	47a0      	blx	r4
     c0c:	2100      	movs	r1, #0
     c0e:	203d      	movs	r0, #61	; 0x3d
     c10:	47a0      	blx	r4
     c12:	2210      	movs	r2, #16
     c14:	4b05      	ldr	r3, [pc, #20]	; (c2c <write_cc1101_status_regersters+0x18c>)
     c16:	615a      	str	r2, [r3, #20]
     c18:	1892      	adds	r2, r2, r2
     c1a:	6a19      	ldr	r1, [r3, #32]
     c1c:	4211      	tst	r1, r2
     c1e:	d1fc      	bne.n	c1a <write_cc1101_status_regersters+0x17a>
     c20:	2210      	movs	r2, #16
     c22:	4b02      	ldr	r3, [pc, #8]	; (c2c <write_cc1101_status_regersters+0x18c>)
     c24:	619a      	str	r2, [r3, #24]
     c26:	bd10      	pop	{r4, pc}
     c28:	000007d1 	.word	0x000007d1
     c2c:	41004400 	.word	0x41004400

00000c30 <CC1101_reset_chip>:
     c30:	b5f7      	push	{r0, r1, r2, r4, r5, r6, r7, lr}
     c32:	2510      	movs	r5, #16
     c34:	4c1c      	ldr	r4, [pc, #112]	; (ca8 <CC1101_reset_chip+0x78>)
     c36:	4e1d      	ldr	r6, [pc, #116]	; (cac <CC1101_reset_chip+0x7c>)
     c38:	201e      	movs	r0, #30
     c3a:	61a5      	str	r5, [r4, #24]
     c3c:	47b0      	blx	r6
     c3e:	201e      	movs	r0, #30
     c40:	6165      	str	r5, [r4, #20]
     c42:	47b0      	blx	r6
     c44:	61a5      	str	r5, [r4, #24]
     c46:	202d      	movs	r0, #45	; 0x2d
     c48:	47b0      	blx	r6
     c4a:	2320      	movs	r3, #32
     c4c:	6165      	str	r5, [r4, #20]
     c4e:	6a22      	ldr	r2, [r4, #32]
     c50:	421a      	tst	r2, r3
     c52:	d1fc      	bne.n	c4e <CC1101_reset_chip+0x1e>
     c54:	2330      	movs	r3, #48	; 0x30
     c56:	4916      	ldr	r1, [pc, #88]	; (cb0 <CC1101_reset_chip+0x80>)
     c58:	9300      	str	r3, [sp, #0]
     c5a:	784b      	ldrb	r3, [r1, #1]
     c5c:	780d      	ldrb	r5, [r1, #0]
     c5e:	788a      	ldrb	r2, [r1, #2]
     c60:	021b      	lsls	r3, r3, #8
     c62:	432b      	orrs	r3, r5
     c64:	0412      	lsls	r2, r2, #16
     c66:	0018      	movs	r0, r3
     c68:	0013      	movs	r3, r2
     c6a:	78ca      	ldrb	r2, [r1, #3]
     c6c:	4303      	orrs	r3, r0
     c6e:	0612      	lsls	r2, r2, #24
     c70:	1d4f      	adds	r7, r1, #5
     c72:	794e      	ldrb	r6, [r1, #5]
     c74:	431a      	orrs	r2, r3
     c76:	790b      	ldrb	r3, [r1, #4]
     c78:	7989      	ldrb	r1, [r1, #6]
     c7a:	78b8      	ldrb	r0, [r7, #2]
     c7c:	0209      	lsls	r1, r1, #8
     c7e:	4331      	orrs	r1, r6
     c80:	0400      	lsls	r0, r0, #16
     c82:	000d      	movs	r5, r1
     c84:	0001      	movs	r1, r0
     c86:	78f8      	ldrb	r0, [r7, #3]
     c88:	4329      	orrs	r1, r5
     c8a:	0600      	lsls	r0, r0, #24
     c8c:	4308      	orrs	r0, r1
     c8e:	4d09      	ldr	r5, [pc, #36]	; (cb4 <CC1101_reset_chip+0x84>)
     c90:	7939      	ldrb	r1, [r7, #4]
     c92:	47a8      	blx	r5
     c94:	2320      	movs	r3, #32
     c96:	6a22      	ldr	r2, [r4, #32]
     c98:	421a      	tst	r2, r3
     c9a:	d1fc      	bne.n	c96 <CC1101_reset_chip+0x66>
     c9c:	2210      	movs	r2, #16
     c9e:	4b02      	ldr	r3, [pc, #8]	; (ca8 <CC1101_reset_chip+0x78>)
     ca0:	619a      	str	r2, [r3, #24]
     ca2:	4b05      	ldr	r3, [pc, #20]	; (cb8 <CC1101_reset_chip+0x88>)
     ca4:	4798      	blx	r3
     ca6:	bdf7      	pop	{r0, r1, r2, r4, r5, r6, r7, pc}
     ca8:	41004400 	.word	0x41004400
     cac:	00000e5d 	.word	0x00000e5d
     cb0:	00001676 	.word	0x00001676
     cb4:	000004a1 	.word	0x000004a1
     cb8:	00000aa1 	.word	0x00000aa1

00000cbc <GclkInit>:
     cbc:	23c2      	movs	r3, #194	; 0xc2
     cbe:	2002      	movs	r0, #2
     cc0:	b510      	push	{r4, lr}
     cc2:	4915      	ldr	r1, [pc, #84]	; (d18 <GclkInit+0x5c>)
     cc4:	4a15      	ldr	r2, [pc, #84]	; (d1c <GclkInit+0x60>)
     cc6:	00db      	lsls	r3, r3, #3
     cc8:	608b      	str	r3, [r1, #8]
     cca:	6853      	ldr	r3, [r2, #4]
     ccc:	4303      	orrs	r3, r0
     cce:	6053      	str	r3, [r2, #4]
     cd0:	4b13      	ldr	r3, [pc, #76]	; (d20 <GclkInit+0x64>)
     cd2:	681a      	ldr	r2, [r3, #0]
     cd4:	0e92      	lsrs	r2, r2, #26
     cd6:	2a3f      	cmp	r2, #63	; 0x3f
     cd8:	d100      	bne.n	cdc <GclkInit+0x20>
     cda:	3a20      	subs	r2, #32
     cdc:	4b11      	ldr	r3, [pc, #68]	; (d24 <GclkInit+0x68>)
     cde:	4812      	ldr	r0, [pc, #72]	; (d28 <GclkInit+0x6c>)
     ce0:	681b      	ldr	r3, [r3, #0]
     ce2:	059b      	lsls	r3, r3, #22
     ce4:	0d9b      	lsrs	r3, r3, #22
     ce6:	4283      	cmp	r3, r0
     ce8:	d100      	bne.n	cec <GclkInit+0x30>
     cea:	4b10      	ldr	r3, [pc, #64]	; (d2c <GclkInit+0x70>)
     cec:	4810      	ldr	r0, [pc, #64]	; (d30 <GclkInit+0x74>)
     cee:	8488      	strh	r0, [r1, #36]	; 0x24
     cf0:	2010      	movs	r0, #16
     cf2:	68cc      	ldr	r4, [r1, #12]
     cf4:	4204      	tst	r4, r0
     cf6:	d0fc      	beq.n	cf2 <GclkInit+0x36>
     cf8:	0292      	lsls	r2, r2, #10
     cfa:	4313      	orrs	r3, r2
     cfc:	4a06      	ldr	r2, [pc, #24]	; (d18 <GclkInit+0x5c>)
     cfe:	6293      	str	r3, [r2, #40]	; 0x28
     d00:	2310      	movs	r3, #16
     d02:	68ca      	ldr	r2, [r1, #12]
     d04:	421a      	tst	r2, r3
     d06:	d0fc      	beq.n	d02 <GclkInit+0x46>
     d08:	2280      	movs	r2, #128	; 0x80
     d0a:	4b0a      	ldr	r3, [pc, #40]	; (d34 <GclkInit+0x78>)
     d0c:	0052      	lsls	r2, r2, #1
     d0e:	609a      	str	r2, [r3, #8]
     d10:	4a09      	ldr	r2, [pc, #36]	; (d38 <GclkInit+0x7c>)
     d12:	605a      	str	r2, [r3, #4]
     d14:	bd10      	pop	{r4, pc}
     d16:	46c0      	nop			; (mov r8, r8)
     d18:	40000800 	.word	0x40000800
     d1c:	41004000 	.word	0x41004000
     d20:	00806024 	.word	0x00806024
     d24:	00806028 	.word	0x00806028
     d28:	000003ff 	.word	0x000003ff
     d2c:	000001ff 	.word	0x000001ff
     d30:	00000522 	.word	0x00000522
     d34:	40000c00 	.word	0x40000c00
     d38:	00010700 	.word	0x00010700

00000d3c <RtcInit>:
     d3c:	4b27      	ldr	r3, [pc, #156]	; (ddc <RtcInit+0xa0>)
     d3e:	4a28      	ldr	r2, [pc, #160]	; (de0 <RtcInit+0xa4>)
     d40:	4828      	ldr	r0, [pc, #160]	; (de4 <RtcInit+0xa8>)
     d42:	619a      	str	r2, [r3, #24]
     d44:	4a28      	ldr	r2, [pc, #160]	; (de8 <RtcInit+0xac>)
     d46:	6999      	ldr	r1, [r3, #24]
     d48:	6812      	ldr	r2, [r2, #0]
     d4a:	4001      	ands	r1, r0
     d4c:	04d2      	lsls	r2, r2, #19
     d4e:	0e52      	lsrs	r2, r2, #25
     d50:	0412      	lsls	r2, r2, #16
     d52:	4311      	orrs	r1, r2
     d54:	6199      	str	r1, [r3, #24]
     d56:	4925      	ldr	r1, [pc, #148]	; (dec <RtcInit+0xb0>)
     d58:	6199      	str	r1, [r3, #24]
     d5a:	6999      	ldr	r1, [r3, #24]
     d5c:	4008      	ands	r0, r1
     d5e:	2102      	movs	r1, #2
     d60:	4302      	orrs	r2, r0
     d62:	619a      	str	r2, [r3, #24]
     d64:	699a      	ldr	r2, [r3, #24]
     d66:	430a      	orrs	r2, r1
     d68:	619a      	str	r2, [r3, #24]
     d6a:	2204      	movs	r2, #4
     d6c:	68d9      	ldr	r1, [r3, #12]
     d6e:	4211      	tst	r1, r2
     d70:	d0fc      	beq.n	d6c <RtcInit+0x30>
     d72:	2281      	movs	r2, #129	; 0x81
     d74:	4b1e      	ldr	r3, [pc, #120]	; (df0 <RtcInit+0xb4>)
     d76:	0052      	lsls	r2, r2, #1
     d78:	609a      	str	r2, [r3, #8]
     d7a:	4a1e      	ldr	r2, [pc, #120]	; (df4 <RtcInit+0xb8>)
     d7c:	605a      	str	r2, [r3, #4]
     d7e:	785a      	ldrb	r2, [r3, #1]
     d80:	b252      	sxtb	r2, r2
     d82:	2a00      	cmp	r2, #0
     d84:	dbfb      	blt.n	d7e <RtcInit+0x42>
     d86:	4a1c      	ldr	r2, [pc, #112]	; (df8 <RtcInit+0xbc>)
     d88:	4b19      	ldr	r3, [pc, #100]	; (df0 <RtcInit+0xb4>)
     d8a:	805a      	strh	r2, [r3, #2]
     d8c:	2204      	movs	r2, #4
     d8e:	4b1b      	ldr	r3, [pc, #108]	; (dfc <RtcInit+0xc0>)
     d90:	801a      	strh	r2, [r3, #0]
     d92:	7a9a      	ldrb	r2, [r3, #10]
     d94:	4919      	ldr	r1, [pc, #100]	; (dfc <RtcInit+0xc0>)
     d96:	09d2      	lsrs	r2, r2, #7
     d98:	d1fb      	bne.n	d92 <RtcInit+0x56>
     d9a:	20a0      	movs	r0, #160	; 0xa0
     d9c:	880a      	ldrh	r2, [r1, #0]
     d9e:	00c0      	lsls	r0, r0, #3
     da0:	4302      	orrs	r2, r0
     da2:	800a      	strh	r2, [r1, #0]
     da4:	7a9a      	ldrb	r2, [r3, #10]
     da6:	09d2      	lsrs	r2, r2, #7
     da8:	d1fc      	bne.n	da4 <RtcInit+0x68>
     daa:	4915      	ldr	r1, [pc, #84]	; (e00 <RtcInit+0xc4>)
     dac:	4a13      	ldr	r2, [pc, #76]	; (dfc <RtcInit+0xc0>)
     dae:	8291      	strh	r1, [r2, #20]
     db0:	7a99      	ldrb	r1, [r3, #10]
     db2:	4a12      	ldr	r2, [pc, #72]	; (dfc <RtcInit+0xc0>)
     db4:	09c9      	lsrs	r1, r1, #7
     db6:	d1fb      	bne.n	db0 <RtcInit+0x74>
     db8:	8851      	ldrh	r1, [r2, #2]
     dba:	4812      	ldr	r0, [pc, #72]	; (e04 <RtcInit+0xc8>)
     dbc:	4301      	orrs	r1, r0
     dbe:	8051      	strh	r1, [r2, #2]
     dc0:	2180      	movs	r1, #128	; 0x80
     dc2:	2002      	movs	r0, #2
     dc4:	71d1      	strb	r1, [r2, #7]
     dc6:	8811      	ldrh	r1, [r2, #0]
     dc8:	4301      	orrs	r1, r0
     dca:	8011      	strh	r1, [r2, #0]
     dcc:	7a9a      	ldrb	r2, [r3, #10]
     dce:	09d2      	lsrs	r2, r2, #7
     dd0:	d1fc      	bne.n	dcc <RtcInit+0x90>
     dd2:	4b0d      	ldr	r3, [pc, #52]	; (e08 <RtcInit+0xcc>)
     dd4:	3208      	adds	r2, #8
     dd6:	601a      	str	r2, [r3, #0]
     dd8:	4770      	bx	lr
     dda:	46c0      	nop			; (mov r8, r8)
     ddc:	40000800 	.word	0x40000800
     de0:	00000606 	.word	0x00000606
     de4:	ff80ffff 	.word	0xff80ffff
     de8:	00806024 	.word	0x00806024
     dec:	00000604 	.word	0x00000604
     df0:	40000c00 	.word	0x40000c00
     df4:	00230002 	.word	0x00230002
     df8:	00004204 	.word	0x00004204
     dfc:	40001400 	.word	0x40001400
     e00:	000003e6 	.word	0x000003e6
     e04:	00004010 	.word	0x00004010
     e08:	e000e100 	.word	0xe000e100

00000e0c <gclkEnable>:
     e0c:	230f      	movs	r3, #15
     e0e:	4018      	ands	r0, r3
     e10:	4b08      	ldr	r3, [pc, #32]	; (e34 <gclkEnable+0x28>)
     e12:	0212      	lsls	r2, r2, #8
     e14:	401a      	ands	r2, r3
     e16:	23f8      	movs	r3, #248	; 0xf8
     e18:	0209      	lsls	r1, r1, #8
     e1a:	015b      	lsls	r3, r3, #5
     e1c:	4019      	ands	r1, r3
     e1e:	2380      	movs	r3, #128	; 0x80
     e20:	b510      	push	{r4, lr}
     e22:	025b      	lsls	r3, r3, #9
     e24:	4c04      	ldr	r4, [pc, #16]	; (e38 <gclkEnable+0x2c>)
     e26:	4319      	orrs	r1, r3
     e28:	4302      	orrs	r2, r0
     e2a:	4308      	orrs	r0, r1
     e2c:	60a2      	str	r2, [r4, #8]
     e2e:	6060      	str	r0, [r4, #4]
     e30:	bd10      	pop	{r4, pc}
     e32:	46c0      	nop			; (mov r8, r8)
     e34:	00ffff00 	.word	0x00ffff00
     e38:	40000c00 	.word	0x40000c00

00000e3c <delayInit>:
     e3c:	4b04      	ldr	r3, [pc, #16]	; (e50 <delayInit+0x14>)
     e3e:	4a05      	ldr	r2, [pc, #20]	; (e54 <delayInit+0x18>)
     e40:	601a      	str	r2, [r3, #0]
     e42:	2230      	movs	r2, #48	; 0x30
     e44:	605a      	str	r2, [r3, #4]
     e46:	4b04      	ldr	r3, [pc, #16]	; (e58 <delayInit+0x1c>)
     e48:	3a2b      	subs	r2, #43	; 0x2b
     e4a:	601a      	str	r2, [r3, #0]
     e4c:	4770      	bx	lr
     e4e:	46c0      	nop			; (mov r8, r8)
     e50:	20000018 	.word	0x20000018
     e54:	0000bb80 	.word	0x0000bb80
     e58:	e000e010 	.word	0xe000e010

00000e5c <delay_us>:
     e5c:	b570      	push	{r4, r5, r6, lr}
     e5e:	2480      	movs	r4, #128	; 0x80
     e60:	2100      	movs	r1, #0
     e62:	4b08      	ldr	r3, [pc, #32]	; (e84 <delay_us+0x28>)
     e64:	4a08      	ldr	r2, [pc, #32]	; (e88 <delay_us+0x2c>)
     e66:	685b      	ldr	r3, [r3, #4]
     e68:	0264      	lsls	r4, r4, #9
     e6a:	3801      	subs	r0, #1
     e6c:	d308      	bcc.n	e80 <delay_us+0x24>
     e6e:	2b00      	cmp	r3, #0
     e70:	d0fb      	beq.n	e6a <delay_us+0xe>
     e72:	4e05      	ldr	r6, [pc, #20]	; (e88 <delay_us+0x2c>)
     e74:	6053      	str	r3, [r2, #4]
     e76:	6091      	str	r1, [r2, #8]
     e78:	6835      	ldr	r5, [r6, #0]
     e7a:	4225      	tst	r5, r4
     e7c:	d0fc      	beq.n	e78 <delay_us+0x1c>
     e7e:	e7f4      	b.n	e6a <delay_us+0xe>
     e80:	bd70      	pop	{r4, r5, r6, pc}
     e82:	46c0      	nop			; (mov r8, r8)
     e84:	20000018 	.word	0x20000018
     e88:	e000e010 	.word	0xe000e010

00000e8c <delay_ms>:
     e8c:	b570      	push	{r4, r5, r6, lr}
     e8e:	2480      	movs	r4, #128	; 0x80
     e90:	2100      	movs	r1, #0
     e92:	4b08      	ldr	r3, [pc, #32]	; (eb4 <delay_ms+0x28>)
     e94:	4a08      	ldr	r2, [pc, #32]	; (eb8 <delay_ms+0x2c>)
     e96:	681b      	ldr	r3, [r3, #0]
     e98:	0264      	lsls	r4, r4, #9
     e9a:	3801      	subs	r0, #1
     e9c:	d308      	bcc.n	eb0 <delay_ms+0x24>
     e9e:	2b00      	cmp	r3, #0
     ea0:	d0fb      	beq.n	e9a <delay_ms+0xe>
     ea2:	4e05      	ldr	r6, [pc, #20]	; (eb8 <delay_ms+0x2c>)
     ea4:	6053      	str	r3, [r2, #4]
     ea6:	6091      	str	r1, [r2, #8]
     ea8:	6835      	ldr	r5, [r6, #0]
     eaa:	4225      	tst	r5, r4
     eac:	d0fc      	beq.n	ea8 <delay_ms+0x1c>
     eae:	e7f4      	b.n	e9a <delay_ms+0xe>
     eb0:	bd70      	pop	{r4, r5, r6, pc}
     eb2:	46c0      	nop			; (mov r8, r8)
     eb4:	20000018 	.word	0x20000018
     eb8:	e000e010 	.word	0xe000e010

00000ebc <RTC_Handler>:
     ebc:	21fa      	movs	r1, #250	; 0xfa
     ebe:	4a04      	ldr	r2, [pc, #16]	; (ed0 <RTC_Handler+0x14>)
     ec0:	0089      	lsls	r1, r1, #2
     ec2:	6813      	ldr	r3, [r2, #0]
     ec4:	185b      	adds	r3, r3, r1
     ec6:	6013      	str	r3, [r2, #0]
     ec8:	22ff      	movs	r2, #255	; 0xff
     eca:	4b02      	ldr	r3, [pc, #8]	; (ed4 <RTC_Handler+0x18>)
     ecc:	721a      	strb	r2, [r3, #8]
     ece:	4770      	bx	lr
     ed0:	20000464 	.word	0x20000464
     ed4:	40001400 	.word	0x40001400

00000ed8 <TC1Init>:
     ed8:	4a0c      	ldr	r2, [pc, #48]	; (f0c <TC1Init+0x34>)
     eda:	4b0d      	ldr	r3, [pc, #52]	; (f10 <TC1Init+0x38>)
     edc:	490d      	ldr	r1, [pc, #52]	; (f14 <TC1Init+0x3c>)
     ede:	805a      	strh	r2, [r3, #2]
     ee0:	2240      	movs	r2, #64	; 0x40
     ee2:	6a0b      	ldr	r3, [r1, #32]
     ee4:	4313      	orrs	r3, r2
     ee6:	620b      	str	r3, [r1, #32]
     ee8:	4b0b      	ldr	r3, [pc, #44]	; (f18 <TC1Init+0x40>)
     eea:	490c      	ldr	r1, [pc, #48]	; (f1c <TC1Init+0x44>)
     eec:	8019      	strh	r1, [r3, #0]
     eee:	2102      	movs	r1, #2
     ef0:	751a      	strb	r2, [r3, #20]
     ef2:	3a3f      	subs	r2, #63	; 0x3f
     ef4:	735a      	strb	r2, [r3, #13]
     ef6:	32ff      	adds	r2, #255	; 0xff
     ef8:	815a      	strh	r2, [r3, #10]
     efa:	881a      	ldrh	r2, [r3, #0]
     efc:	430a      	orrs	r2, r1
     efe:	801a      	strh	r2, [r3, #0]
     f00:	2280      	movs	r2, #128	; 0x80
     f02:	4b07      	ldr	r3, [pc, #28]	; (f20 <TC1Init+0x48>)
     f04:	0192      	lsls	r2, r2, #6
     f06:	601a      	str	r2, [r3, #0]
     f08:	4770      	bx	lr
     f0a:	46c0      	nop			; (mov r8, r8)
     f0c:	00004212 	.word	0x00004212
     f10:	40000c00 	.word	0x40000c00
     f14:	40000400 	.word	0x40000400
     f18:	42001800 	.word	0x42001800
     f1c:	00000f04 	.word	0x00000f04
     f20:	e000e100 	.word	0xe000e100

00000f24 <TC1_Handler>:
     f24:	22ff      	movs	r2, #255	; 0xff
     f26:	4b03      	ldr	r3, [pc, #12]	; (f34 <TC1_Handler+0x10>)
     f28:	739a      	strb	r2, [r3, #14]
     f2a:	4b03      	ldr	r3, [pc, #12]	; (f38 <TC1_Handler+0x14>)
     f2c:	3afe      	subs	r2, #254	; 0xfe
     f2e:	701a      	strb	r2, [r3, #0]
     f30:	4770      	bx	lr
     f32:	46c0      	nop			; (mov r8, r8)
     f34:	42001800 	.word	0x42001800
     f38:	20000468 	.word	0x20000468

00000f3c <findNextComma>:
     f3c:	0002      	movs	r2, r0
     f3e:	2000      	movs	r0, #0
     f40:	5c13      	ldrb	r3, [r2, r0]
     f42:	2b2c      	cmp	r3, #44	; 0x2c
     f44:	d002      	beq.n	f4c <findNextComma+0x10>
     f46:	1c43      	adds	r3, r0, #1
     f48:	b2d8      	uxtb	r0, r3
     f4a:	e7f9      	b.n	f40 <findNextComma+0x4>
     f4c:	4770      	bx	lr
	...

00000f50 <sendUSARTMessage>:
     f50:	b084      	sub	sp, #16
     f52:	b570      	push	{r4, r5, r6, lr}
     f54:	4c33      	ldr	r4, [pc, #204]	; (1024 <sendUSARTMessage+0xd4>)
     f56:	9004      	str	r0, [sp, #16]
     f58:	9105      	str	r1, [sp, #20]
     f5a:	2001      	movs	r0, #1
     f5c:	210a      	movs	r1, #10
     f5e:	2525      	movs	r5, #37	; 0x25
     f60:	9206      	str	r2, [sp, #24]
     f62:	9307      	str	r3, [sp, #28]
     f64:	47a0      	blx	r4
     f66:	ae07      	add	r6, sp, #28
     f68:	446d      	add	r5, sp
     f6a:	7831      	ldrb	r1, [r6, #0]
     f6c:	2001      	movs	r0, #1
     f6e:	3601      	adds	r6, #1
     f70:	47a0      	blx	r4
     f72:	42ae      	cmp	r6, r5
     f74:	d1f9      	bne.n	f6a <sendUSARTMessage+0x1a>
     f76:	212c      	movs	r1, #44	; 0x2c
     f78:	2001      	movs	r0, #1
     f7a:	262f      	movs	r6, #47	; 0x2f
     f7c:	47a0      	blx	r4
     f7e:	446e      	add	r6, sp
     f80:	7829      	ldrb	r1, [r5, #0]
     f82:	2001      	movs	r0, #1
     f84:	3501      	adds	r5, #1
     f86:	47a0      	blx	r4
     f88:	42b5      	cmp	r5, r6
     f8a:	d1f9      	bne.n	f80 <sendUSARTMessage+0x30>
     f8c:	212c      	movs	r1, #44	; 0x2c
     f8e:	2001      	movs	r0, #1
     f90:	47a0      	blx	r4
     f92:	ab04      	add	r3, sp, #16
     f94:	7fd9      	ldrb	r1, [r3, #31]
     f96:	2001      	movs	r0, #1
     f98:	47a0      	blx	r4
     f9a:	263b      	movs	r6, #59	; 0x3b
     f9c:	212c      	movs	r1, #44	; 0x2c
     f9e:	2001      	movs	r0, #1
     fa0:	47a0      	blx	r4
     fa2:	ad0c      	add	r5, sp, #48	; 0x30
     fa4:	446e      	add	r6, sp
     fa6:	7829      	ldrb	r1, [r5, #0]
     fa8:	2001      	movs	r0, #1
     faa:	3501      	adds	r5, #1
     fac:	47a0      	blx	r4
     fae:	42b5      	cmp	r5, r6
     fb0:	d1f9      	bne.n	fa6 <sendUSARTMessage+0x56>
     fb2:	212c      	movs	r1, #44	; 0x2c
     fb4:	2001      	movs	r0, #1
     fb6:	47a0      	blx	r4
     fb8:	7829      	ldrb	r1, [r5, #0]
     fba:	2001      	movs	r0, #1
     fbc:	47a0      	blx	r4
     fbe:	2543      	movs	r5, #67	; 0x43
     fc0:	212c      	movs	r1, #44	; 0x2c
     fc2:	2001      	movs	r0, #1
     fc4:	264d      	movs	r6, #77	; 0x4d
     fc6:	47a0      	blx	r4
     fc8:	446d      	add	r5, sp
     fca:	446e      	add	r6, sp
     fcc:	7829      	ldrb	r1, [r5, #0]
     fce:	2900      	cmp	r1, #0
     fd0:	d105      	bne.n	fde <sendUSARTMessage+0x8e>
     fd2:	2557      	movs	r5, #87	; 0x57
     fd4:	212c      	movs	r1, #44	; 0x2c
     fd6:	2001      	movs	r0, #1
     fd8:	47a0      	blx	r4
     fda:	446d      	add	r5, sp
     fdc:	e00a      	b.n	ff4 <sendUSARTMessage+0xa4>
     fde:	2001      	movs	r0, #1
     fe0:	3501      	adds	r5, #1
     fe2:	47a0      	blx	r4
     fe4:	42ae      	cmp	r6, r5
     fe6:	d1f1      	bne.n	fcc <sendUSARTMessage+0x7c>
     fe8:	e7f3      	b.n	fd2 <sendUSARTMessage+0x82>
     fea:	2001      	movs	r0, #1
     fec:	3601      	adds	r6, #1
     fee:	47a0      	blx	r4
     ff0:	42b5      	cmp	r5, r6
     ff2:	d002      	beq.n	ffa <sendUSARTMessage+0xaa>
     ff4:	7831      	ldrb	r1, [r6, #0]
     ff6:	2900      	cmp	r1, #0
     ff8:	d1f7      	bne.n	fea <sendUSARTMessage+0x9a>
     ffa:	2661      	movs	r6, #97	; 0x61
     ffc:	212c      	movs	r1, #44	; 0x2c
     ffe:	2001      	movs	r0, #1
    1000:	47a0      	blx	r4
    1002:	446e      	add	r6, sp
    1004:	e004      	b.n	1010 <sendUSARTMessage+0xc0>
    1006:	2001      	movs	r0, #1
    1008:	3501      	adds	r5, #1
    100a:	47a0      	blx	r4
    100c:	42ae      	cmp	r6, r5
    100e:	d002      	beq.n	1016 <sendUSARTMessage+0xc6>
    1010:	7829      	ldrb	r1, [r5, #0]
    1012:	2900      	cmp	r1, #0
    1014:	d1f7      	bne.n	1006 <sendUSARTMessage+0xb6>
    1016:	212c      	movs	r1, #44	; 0x2c
    1018:	2001      	movs	r0, #1
    101a:	47a0      	blx	r4
    101c:	bc70      	pop	{r4, r5, r6}
    101e:	bc08      	pop	{r3}
    1020:	b004      	add	sp, #16
    1022:	4718      	bx	r3
    1024:	00001289 	.word	0x00001289

00001028 <parseGPSMessage>:
    1028:	b5f0      	push	{r4, r5, r6, r7, lr}
    102a:	4b5c      	ldr	r3, [pc, #368]	; (119c <parseGPSMessage+0x174>)
    102c:	b0c1      	sub	sp, #260	; 0x104
    102e:	7e1a      	ldrb	r2, [r3, #24]
    1030:	001d      	movs	r5, r3
    1032:	0753      	lsls	r3, r2, #29
    1034:	d400      	bmi.n	1038 <parseGPSMessage+0x10>
    1036:	e0af      	b.n	1198 <parseGPSMessage+0x170>
    1038:	2400      	movs	r4, #0
    103a:	7e2b      	ldrb	r3, [r5, #24]
    103c:	075b      	lsls	r3, r3, #29
    103e:	d5fc      	bpl.n	103a <parseGPSMessage+0x12>
    1040:	2000      	movs	r0, #0
    1042:	4b57      	ldr	r3, [pc, #348]	; (11a0 <parseGPSMessage+0x178>)
    1044:	4798      	blx	r3
    1046:	280d      	cmp	r0, #13
    1048:	d104      	bne.n	1054 <parseGPSMessage+0x2c>
    104a:	466b      	mov	r3, sp
    104c:	791b      	ldrb	r3, [r3, #4]
    104e:	2b47      	cmp	r3, #71	; 0x47
    1050:	d16e      	bne.n	1130 <parseGPSMessage+0x108>
    1052:	e005      	b.n	1060 <parseGPSMessage+0x38>
    1054:	466b      	mov	r3, sp
    1056:	5518      	strb	r0, [r3, r4]
    1058:	3401      	adds	r4, #1
    105a:	2cff      	cmp	r4, #255	; 0xff
    105c:	d1ed      	bne.n	103a <parseGPSMessage+0x12>
    105e:	e7f4      	b.n	104a <parseGPSMessage+0x22>
    1060:	466b      	mov	r3, sp
    1062:	795b      	ldrb	r3, [r3, #5]
    1064:	2b47      	cmp	r3, #71	; 0x47
    1066:	d000      	beq.n	106a <parseGPSMessage+0x42>
    1068:	e096      	b.n	1198 <parseGPSMessage+0x170>
    106a:	4c4e      	ldr	r4, [pc, #312]	; (11a4 <parseGPSMessage+0x17c>)
    106c:	4668      	mov	r0, sp
    106e:	47a0      	blx	r4
    1070:	4e4d      	ldr	r6, [pc, #308]	; (11a8 <parseGPSMessage+0x180>)
    1072:	212c      	movs	r1, #44	; 0x2c
    1074:	4668      	mov	r0, sp
    1076:	47b0      	blx	r6
    1078:	1c47      	adds	r7, r0, #1
    107a:	0038      	movs	r0, r7
    107c:	47a0      	blx	r4
    107e:	4d4b      	ldr	r5, [pc, #300]	; (11ac <parseGPSMessage+0x184>)
    1080:	0002      	movs	r2, r0
    1082:	0039      	movs	r1, r7
    1084:	484a      	ldr	r0, [pc, #296]	; (11b0 <parseGPSMessage+0x188>)
    1086:	47a8      	blx	r5
    1088:	212c      	movs	r1, #44	; 0x2c
    108a:	0038      	movs	r0, r7
    108c:	47b0      	blx	r6
    108e:	1c47      	adds	r7, r0, #1
    1090:	0038      	movs	r0, r7
    1092:	47a0      	blx	r4
    1094:	0039      	movs	r1, r7
    1096:	0002      	movs	r2, r0
    1098:	4846      	ldr	r0, [pc, #280]	; (11b4 <parseGPSMessage+0x18c>)
    109a:	47a8      	blx	r5
    109c:	212c      	movs	r1, #44	; 0x2c
    109e:	0038      	movs	r0, r7
    10a0:	47b0      	blx	r6
    10a2:	1c47      	adds	r7, r0, #1
    10a4:	0038      	movs	r0, r7
    10a6:	47a0      	blx	r4
    10a8:	0039      	movs	r1, r7
    10aa:	0002      	movs	r2, r0
    10ac:	4842      	ldr	r0, [pc, #264]	; (11b8 <parseGPSMessage+0x190>)
    10ae:	47a8      	blx	r5
    10b0:	212c      	movs	r1, #44	; 0x2c
    10b2:	0038      	movs	r0, r7
    10b4:	47b0      	blx	r6
    10b6:	1c47      	adds	r7, r0, #1
    10b8:	0038      	movs	r0, r7
    10ba:	47a0      	blx	r4
    10bc:	0039      	movs	r1, r7
    10be:	0002      	movs	r2, r0
    10c0:	483e      	ldr	r0, [pc, #248]	; (11bc <parseGPSMessage+0x194>)
    10c2:	47a8      	blx	r5
    10c4:	212c      	movs	r1, #44	; 0x2c
    10c6:	0038      	movs	r0, r7
    10c8:	47b0      	blx	r6
    10ca:	1c47      	adds	r7, r0, #1
    10cc:	0038      	movs	r0, r7
    10ce:	47a0      	blx	r4
    10d0:	0039      	movs	r1, r7
    10d2:	0002      	movs	r2, r0
    10d4:	483a      	ldr	r0, [pc, #232]	; (11c0 <parseGPSMessage+0x198>)
    10d6:	47a8      	blx	r5
    10d8:	212c      	movs	r1, #44	; 0x2c
    10da:	0038      	movs	r0, r7
    10dc:	47b0      	blx	r6
    10de:	1c47      	adds	r7, r0, #1
    10e0:	0038      	movs	r0, r7
    10e2:	47a0      	blx	r4
    10e4:	0039      	movs	r1, r7
    10e6:	0002      	movs	r2, r0
    10e8:	4836      	ldr	r0, [pc, #216]	; (11c4 <parseGPSMessage+0x19c>)
    10ea:	47a8      	blx	r5
    10ec:	212c      	movs	r1, #44	; 0x2c
    10ee:	0038      	movs	r0, r7
    10f0:	47b0      	blx	r6
    10f2:	1c47      	adds	r7, r0, #1
    10f4:	0038      	movs	r0, r7
    10f6:	47a0      	blx	r4
    10f8:	0039      	movs	r1, r7
    10fa:	0002      	movs	r2, r0
    10fc:	4832      	ldr	r0, [pc, #200]	; (11c8 <parseGPSMessage+0x1a0>)
    10fe:	47a8      	blx	r5
    1100:	212c      	movs	r1, #44	; 0x2c
    1102:	0038      	movs	r0, r7
    1104:	47b0      	blx	r6
    1106:	1c47      	adds	r7, r0, #1
    1108:	0038      	movs	r0, r7
    110a:	47a0      	blx	r4
    110c:	0039      	movs	r1, r7
    110e:	0002      	movs	r2, r0
    1110:	482e      	ldr	r0, [pc, #184]	; (11cc <parseGPSMessage+0x1a4>)
    1112:	47a8      	blx	r5
    1114:	212c      	movs	r1, #44	; 0x2c
    1116:	0038      	movs	r0, r7
    1118:	47b0      	blx	r6
    111a:	1c46      	adds	r6, r0, #1
    111c:	0030      	movs	r0, r6
    111e:	47a0      	blx	r4
    1120:	0031      	movs	r1, r6
    1122:	0002      	movs	r2, r0
    1124:	482a      	ldr	r0, [pc, #168]	; (11d0 <parseGPSMessage+0x1a8>)
    1126:	47a8      	blx	r5
    1128:	2201      	movs	r2, #1
    112a:	4b2a      	ldr	r3, [pc, #168]	; (11d4 <parseGPSMessage+0x1ac>)
    112c:	705a      	strb	r2, [r3, #1]
    112e:	e033      	b.n	1198 <parseGPSMessage+0x170>
    1130:	2b52      	cmp	r3, #82	; 0x52
    1132:	d131      	bne.n	1198 <parseGPSMessage+0x170>
    1134:	466b      	mov	r3, sp
    1136:	795b      	ldrb	r3, [r3, #5]
    1138:	2b4d      	cmp	r3, #77	; 0x4d
    113a:	d12d      	bne.n	1198 <parseGPSMessage+0x170>
    113c:	2200      	movs	r2, #0
    113e:	4b25      	ldr	r3, [pc, #148]	; (11d4 <parseGPSMessage+0x1ac>)
    1140:	4e18      	ldr	r6, [pc, #96]	; (11a4 <parseGPSMessage+0x17c>)
    1142:	4668      	mov	r0, sp
    1144:	705a      	strb	r2, [r3, #1]
    1146:	47b0      	blx	r6
    1148:	4c17      	ldr	r4, [pc, #92]	; (11a8 <parseGPSMessage+0x180>)
    114a:	212c      	movs	r1, #44	; 0x2c
    114c:	4668      	mov	r0, sp
    114e:	47a0      	blx	r4
    1150:	212c      	movs	r1, #44	; 0x2c
    1152:	3001      	adds	r0, #1
    1154:	47a0      	blx	r4
    1156:	212c      	movs	r1, #44	; 0x2c
    1158:	3001      	adds	r0, #1
    115a:	47a0      	blx	r4
    115c:	212c      	movs	r1, #44	; 0x2c
    115e:	3001      	adds	r0, #1
    1160:	47a0      	blx	r4
    1162:	212c      	movs	r1, #44	; 0x2c
    1164:	3001      	adds	r0, #1
    1166:	47a0      	blx	r4
    1168:	212c      	movs	r1, #44	; 0x2c
    116a:	3001      	adds	r0, #1
    116c:	47a0      	blx	r4
    116e:	212c      	movs	r1, #44	; 0x2c
    1170:	3001      	adds	r0, #1
    1172:	47a0      	blx	r4
    1174:	1c45      	adds	r5, r0, #1
    1176:	0028      	movs	r0, r5
    1178:	47b0      	blx	r6
    117a:	0029      	movs	r1, r5
    117c:	0002      	movs	r2, r0
    117e:	4f0b      	ldr	r7, [pc, #44]	; (11ac <parseGPSMessage+0x184>)
    1180:	4815      	ldr	r0, [pc, #84]	; (11d8 <parseGPSMessage+0x1b0>)
    1182:	47b8      	blx	r7
    1184:	212c      	movs	r1, #44	; 0x2c
    1186:	0028      	movs	r0, r5
    1188:	47a0      	blx	r4
    118a:	1c44      	adds	r4, r0, #1
    118c:	0020      	movs	r0, r4
    118e:	47b0      	blx	r6
    1190:	0021      	movs	r1, r4
    1192:	0002      	movs	r2, r0
    1194:	4811      	ldr	r0, [pc, #68]	; (11dc <parseGPSMessage+0x1b4>)
    1196:	47b8      	blx	r7
    1198:	b041      	add	sp, #260	; 0x104
    119a:	bdf0      	pop	{r4, r5, r6, r7, pc}
    119c:	42000800 	.word	0x42000800
    11a0:	000012a1 	.word	0x000012a1
    11a4:	00000f3d 	.word	0x00000f3d
    11a8:	00001375 	.word	0x00001375
    11ac:	000014b9 	.word	0x000014b9
    11b0:	20000474 	.word	0x20000474
    11b4:	2000047d 	.word	0x2000047d
    11b8:	20000487 	.word	0x20000487
    11bc:	20000488 	.word	0x20000488
    11c0:	20000493 	.word	0x20000493
    11c4:	20000494 	.word	0x20000494
    11c8:	20000495 	.word	0x20000495
    11cc:	20000497 	.word	0x20000497
    11d0:	2000049b 	.word	0x2000049b
    11d4:	20000468 	.word	0x20000468
    11d8:	200004a5 	.word	0x200004a5
    11dc:	200004af 	.word	0x200004af

000011e0 <sercomClockEnable>:
    11e0:	b570      	push	{r4, r5, r6, lr}
    11e2:	0004      	movs	r4, r0
    11e4:	2301      	movs	r3, #1
    11e6:	1ca6      	adds	r6, r4, #2
    11e8:	40b3      	lsls	r3, r6
    11ea:	480d      	ldr	r0, [pc, #52]	; (1220 <sercomClockEnable+0x40>)
    11ec:	000d      	movs	r5, r1
    11ee:	6a01      	ldr	r1, [r0, #32]
    11f0:	430b      	orrs	r3, r1
    11f2:	6203      	str	r3, [r0, #32]
    11f4:	2d00      	cmp	r5, #0
    11f6:	d003      	beq.n	1200 <sercomClockEnable+0x20>
    11f8:	2107      	movs	r1, #7
    11fa:	0028      	movs	r0, r5
    11fc:	4b09      	ldr	r3, [pc, #36]	; (1224 <sercomClockEnable+0x44>)
    11fe:	4798      	blx	r3
    1200:	23f0      	movs	r3, #240	; 0xf0
    1202:	2080      	movs	r0, #128	; 0x80
    1204:	0229      	lsls	r1, r5, #8
    1206:	011b      	lsls	r3, r3, #4
    1208:	4019      	ands	r1, r3
    120a:	01c0      	lsls	r0, r0, #7
    120c:	4301      	orrs	r1, r0
    120e:	0020      	movs	r0, r4
    1210:	233f      	movs	r3, #63	; 0x3f
    1212:	300e      	adds	r0, #14
    1214:	4018      	ands	r0, r3
    1216:	4b04      	ldr	r3, [pc, #16]	; (1228 <sercomClockEnable+0x48>)
    1218:	4308      	orrs	r0, r1
    121a:	8058      	strh	r0, [r3, #2]
    121c:	bd70      	pop	{r4, r5, r6, pc}
    121e:	46c0      	nop			; (mov r8, r8)
    1220:	40000400 	.word	0x40000400
    1224:	00000e0d 	.word	0x00000e0d
    1228:	40000c00 	.word	0x40000c00

0000122c <sercomReset>:
    122c:	4b04      	ldr	r3, [pc, #16]	; (1240 <sercomReset+0x14>)
    122e:	0280      	lsls	r0, r0, #10
    1230:	18c0      	adds	r0, r0, r3
    1232:	2301      	movs	r3, #1
    1234:	6003      	str	r3, [r0, #0]
    1236:	6802      	ldr	r2, [r0, #0]
    1238:	421a      	tst	r2, r3
    123a:	d1fc      	bne.n	1236 <sercomReset+0xa>
    123c:	4770      	bx	lr
    123e:	46c0      	nop			; (mov r8, r8)
    1240:	42000800 	.word	0x42000800

00001244 <sercomUartInit>:
    1244:	b5f8      	push	{r3, r4, r5, r6, r7, lr}
    1246:	0007      	movs	r7, r0
    1248:	001e      	movs	r6, r3
    124a:	4b0c      	ldr	r3, [pc, #48]	; (127c <sercomUartInit+0x38>)
    124c:	000d      	movs	r5, r1
    124e:	0014      	movs	r4, r2
    1250:	4798      	blx	r3
    1252:	4b0b      	ldr	r3, [pc, #44]	; (1280 <sercomUartInit+0x3c>)
    1254:	02b8      	lsls	r0, r7, #10
    1256:	18c0      	adds	r0, r0, r3
    1258:	2304      	movs	r3, #4
    125a:	22c0      	movs	r2, #192	; 0xc0
    125c:	6003      	str	r3, [r0, #0]
    125e:	23c0      	movs	r3, #192	; 0xc0
    1260:	0529      	lsls	r1, r5, #20
    1262:	0392      	lsls	r2, r2, #14
    1264:	4011      	ands	r1, r2
    1266:	4a07      	ldr	r2, [pc, #28]	; (1284 <sercomUartInit+0x40>)
    1268:	b2b6      	uxth	r6, r6
    126a:	029b      	lsls	r3, r3, #10
    126c:	0424      	lsls	r4, r4, #16
    126e:	8186      	strh	r6, [r0, #12]
    1270:	4311      	orrs	r1, r2
    1272:	6043      	str	r3, [r0, #4]
    1274:	4023      	ands	r3, r4
    1276:	430b      	orrs	r3, r1
    1278:	6003      	str	r3, [r0, #0]
    127a:	bdf8      	pop	{r3, r4, r5, r6, r7, pc}
    127c:	0000122d 	.word	0x0000122d
    1280:	42000800 	.word	0x42000800
    1284:	40000006 	.word	0x40000006

00001288 <usartDataOut>:
    1288:	4b04      	ldr	r3, [pc, #16]	; (129c <usartDataOut+0x14>)
    128a:	0280      	lsls	r0, r0, #10
    128c:	18c0      	adds	r0, r0, r3
    128e:	b289      	uxth	r1, r1
    1290:	8501      	strh	r1, [r0, #40]	; 0x28
    1292:	7e03      	ldrb	r3, [r0, #24]
    1294:	07db      	lsls	r3, r3, #31
    1296:	d5fc      	bpl.n	1292 <usartDataOut+0xa>
    1298:	4770      	bx	lr
    129a:	46c0      	nop			; (mov r8, r8)
    129c:	42000800 	.word	0x42000800

000012a0 <usartDataIn>:
    12a0:	4b02      	ldr	r3, [pc, #8]	; (12ac <usartDataIn+0xc>)
    12a2:	0280      	lsls	r0, r0, #10
    12a4:	18c0      	adds	r0, r0, r3
    12a6:	8d00      	ldrh	r0, [r0, #40]	; 0x28
    12a8:	b2c0      	uxtb	r0, r0
    12aa:	4770      	bx	lr
    12ac:	42000800 	.word	0x42000800

000012b0 <__libc_init_array>:
    12b0:	b570      	push	{r4, r5, r6, lr}
    12b2:	4e0d      	ldr	r6, [pc, #52]	; (12e8 <__libc_init_array+0x38>)
    12b4:	4d0d      	ldr	r5, [pc, #52]	; (12ec <__libc_init_array+0x3c>)
    12b6:	2400      	movs	r4, #0
    12b8:	1bad      	subs	r5, r5, r6
    12ba:	10ad      	asrs	r5, r5, #2
    12bc:	d005      	beq.n	12ca <__libc_init_array+0x1a>
    12be:	00a3      	lsls	r3, r4, #2
    12c0:	58f3      	ldr	r3, [r6, r3]
    12c2:	3401      	adds	r4, #1
    12c4:	4798      	blx	r3
    12c6:	42a5      	cmp	r5, r4
    12c8:	d1f9      	bne.n	12be <__libc_init_array+0xe>
    12ca:	f000 f9ed 	bl	16a8 <_init>
    12ce:	4e08      	ldr	r6, [pc, #32]	; (12f0 <__libc_init_array+0x40>)
    12d0:	4d08      	ldr	r5, [pc, #32]	; (12f4 <__libc_init_array+0x44>)
    12d2:	2400      	movs	r4, #0
    12d4:	1bad      	subs	r5, r5, r6
    12d6:	10ad      	asrs	r5, r5, #2
    12d8:	d005      	beq.n	12e6 <__libc_init_array+0x36>
    12da:	00a3      	lsls	r3, r4, #2
    12dc:	58f3      	ldr	r3, [r6, r3]
    12de:	3401      	adds	r4, #1
    12e0:	4798      	blx	r3
    12e2:	42a5      	cmp	r5, r4
    12e4:	d1f9      	bne.n	12da <__libc_init_array+0x2a>
    12e6:	bd70      	pop	{r4, r5, r6, pc}
    12e8:	000016b4 	.word	0x000016b4
    12ec:	000016b4 	.word	0x000016b4
    12f0:	000016b4 	.word	0x000016b4
    12f4:	000016bc 	.word	0x000016bc

000012f8 <memcpy>:
    12f8:	b570      	push	{r4, r5, r6, lr}
    12fa:	2a0f      	cmp	r2, #15
    12fc:	d932      	bls.n	1364 <memcpy+0x6c>
    12fe:	000c      	movs	r4, r1
    1300:	4304      	orrs	r4, r0
    1302:	000b      	movs	r3, r1
    1304:	07a4      	lsls	r4, r4, #30
    1306:	d131      	bne.n	136c <memcpy+0x74>
    1308:	0015      	movs	r5, r2
    130a:	0004      	movs	r4, r0
    130c:	3d10      	subs	r5, #16
    130e:	092d      	lsrs	r5, r5, #4
    1310:	3501      	adds	r5, #1
    1312:	012d      	lsls	r5, r5, #4
    1314:	1949      	adds	r1, r1, r5
    1316:	681e      	ldr	r6, [r3, #0]
    1318:	6026      	str	r6, [r4, #0]
    131a:	685e      	ldr	r6, [r3, #4]
    131c:	6066      	str	r6, [r4, #4]
    131e:	689e      	ldr	r6, [r3, #8]
    1320:	60a6      	str	r6, [r4, #8]
    1322:	68de      	ldr	r6, [r3, #12]
    1324:	3310      	adds	r3, #16
    1326:	60e6      	str	r6, [r4, #12]
    1328:	3410      	adds	r4, #16
    132a:	4299      	cmp	r1, r3
    132c:	d1f3      	bne.n	1316 <memcpy+0x1e>
    132e:	230f      	movs	r3, #15
    1330:	1945      	adds	r5, r0, r5
    1332:	4013      	ands	r3, r2
    1334:	2b03      	cmp	r3, #3
    1336:	d91b      	bls.n	1370 <memcpy+0x78>
    1338:	1f1c      	subs	r4, r3, #4
    133a:	2300      	movs	r3, #0
    133c:	08a4      	lsrs	r4, r4, #2
    133e:	3401      	adds	r4, #1
    1340:	00a4      	lsls	r4, r4, #2
    1342:	58ce      	ldr	r6, [r1, r3]
    1344:	50ee      	str	r6, [r5, r3]
    1346:	3304      	adds	r3, #4
    1348:	429c      	cmp	r4, r3
    134a:	d1fa      	bne.n	1342 <memcpy+0x4a>
    134c:	2303      	movs	r3, #3
    134e:	192d      	adds	r5, r5, r4
    1350:	1909      	adds	r1, r1, r4
    1352:	401a      	ands	r2, r3
    1354:	d005      	beq.n	1362 <memcpy+0x6a>
    1356:	2300      	movs	r3, #0
    1358:	5ccc      	ldrb	r4, [r1, r3]
    135a:	54ec      	strb	r4, [r5, r3]
    135c:	3301      	adds	r3, #1
    135e:	429a      	cmp	r2, r3
    1360:	d1fa      	bne.n	1358 <memcpy+0x60>
    1362:	bd70      	pop	{r4, r5, r6, pc}
    1364:	0005      	movs	r5, r0
    1366:	2a00      	cmp	r2, #0
    1368:	d1f5      	bne.n	1356 <memcpy+0x5e>
    136a:	e7fa      	b.n	1362 <memcpy+0x6a>
    136c:	0005      	movs	r5, r0
    136e:	e7f2      	b.n	1356 <memcpy+0x5e>
    1370:	001a      	movs	r2, r3
    1372:	e7f8      	b.n	1366 <memcpy+0x6e>

00001374 <strchr>:
    1374:	b2ca      	uxtb	r2, r1
    1376:	b570      	push	{r4, r5, r6, lr}
    1378:	2a00      	cmp	r2, #0
    137a:	d040      	beq.n	13fe <strchr+0x8a>
    137c:	0783      	lsls	r3, r0, #30
    137e:	d00e      	beq.n	139e <strchr+0x2a>
    1380:	7803      	ldrb	r3, [r0, #0]
    1382:	2b00      	cmp	r3, #0
    1384:	d05e      	beq.n	1444 <strchr+0xd0>
    1386:	2403      	movs	r4, #3
    1388:	429a      	cmp	r2, r3
    138a:	d105      	bne.n	1398 <strchr+0x24>
    138c:	e036      	b.n	13fc <strchr+0x88>
    138e:	7803      	ldrb	r3, [r0, #0]
    1390:	2b00      	cmp	r3, #0
    1392:	d057      	beq.n	1444 <strchr+0xd0>
    1394:	429a      	cmp	r2, r3
    1396:	d031      	beq.n	13fc <strchr+0x88>
    1398:	3001      	adds	r0, #1
    139a:	4220      	tst	r0, r4
    139c:	d1f7      	bne.n	138e <strchr+0x1a>
    139e:	23ff      	movs	r3, #255	; 0xff
    13a0:	25ff      	movs	r5, #255	; 0xff
    13a2:	400b      	ands	r3, r1
    13a4:	022d      	lsls	r5, r5, #8
    13a6:	0209      	lsls	r1, r1, #8
    13a8:	4029      	ands	r1, r5
    13aa:	4319      	orrs	r1, r3
    13ac:	040d      	lsls	r5, r1, #16
    13ae:	430d      	orrs	r5, r1
    13b0:	002c      	movs	r4, r5
    13b2:	6801      	ldr	r1, [r0, #0]
    13b4:	4b24      	ldr	r3, [pc, #144]	; (1448 <strchr+0xd4>)
    13b6:	404c      	eors	r4, r1
    13b8:	18cb      	adds	r3, r1, r3
    13ba:	438b      	bics	r3, r1
    13bc:	0019      	movs	r1, r3
    13be:	4b22      	ldr	r3, [pc, #136]	; (1448 <strchr+0xd4>)
    13c0:	4e22      	ldr	r6, [pc, #136]	; (144c <strchr+0xd8>)
    13c2:	18e3      	adds	r3, r4, r3
    13c4:	43a3      	bics	r3, r4
    13c6:	430b      	orrs	r3, r1
    13c8:	4233      	tst	r3, r6
    13ca:	d10d      	bne.n	13e8 <strchr+0x74>
    13cc:	002c      	movs	r4, r5
    13ce:	3004      	adds	r0, #4
    13d0:	6801      	ldr	r1, [r0, #0]
    13d2:	4b1d      	ldr	r3, [pc, #116]	; (1448 <strchr+0xd4>)
    13d4:	404c      	eors	r4, r1
    13d6:	18cb      	adds	r3, r1, r3
    13d8:	438b      	bics	r3, r1
    13da:	0019      	movs	r1, r3
    13dc:	4b1a      	ldr	r3, [pc, #104]	; (1448 <strchr+0xd4>)
    13de:	18e3      	adds	r3, r4, r3
    13e0:	43a3      	bics	r3, r4
    13e2:	430b      	orrs	r3, r1
    13e4:	4233      	tst	r3, r6
    13e6:	d0f1      	beq.n	13cc <strchr+0x58>
    13e8:	7803      	ldrb	r3, [r0, #0]
    13ea:	2b00      	cmp	r3, #0
    13ec:	d104      	bne.n	13f8 <strchr+0x84>
    13ee:	e029      	b.n	1444 <strchr+0xd0>
    13f0:	3001      	adds	r0, #1
    13f2:	7803      	ldrb	r3, [r0, #0]
    13f4:	2b00      	cmp	r3, #0
    13f6:	d025      	beq.n	1444 <strchr+0xd0>
    13f8:	429a      	cmp	r2, r3
    13fa:	d1f9      	bne.n	13f0 <strchr+0x7c>
    13fc:	bd70      	pop	{r4, r5, r6, pc}
    13fe:	0783      	lsls	r3, r0, #30
    1400:	d00a      	beq.n	1418 <strchr+0xa4>
    1402:	7803      	ldrb	r3, [r0, #0]
    1404:	2203      	movs	r2, #3
    1406:	2b00      	cmp	r3, #0
    1408:	d103      	bne.n	1412 <strchr+0x9e>
    140a:	e7f7      	b.n	13fc <strchr+0x88>
    140c:	7803      	ldrb	r3, [r0, #0]
    140e:	2b00      	cmp	r3, #0
    1410:	d0f4      	beq.n	13fc <strchr+0x88>
    1412:	3001      	adds	r0, #1
    1414:	4210      	tst	r0, r2
    1416:	d1f9      	bne.n	140c <strchr+0x98>
    1418:	6802      	ldr	r2, [r0, #0]
    141a:	4b0b      	ldr	r3, [pc, #44]	; (1448 <strchr+0xd4>)
    141c:	490b      	ldr	r1, [pc, #44]	; (144c <strchr+0xd8>)
    141e:	18d3      	adds	r3, r2, r3
    1420:	4393      	bics	r3, r2
    1422:	420b      	tst	r3, r1
    1424:	d106      	bne.n	1434 <strchr+0xc0>
    1426:	3004      	adds	r0, #4
    1428:	6802      	ldr	r2, [r0, #0]
    142a:	4b07      	ldr	r3, [pc, #28]	; (1448 <strchr+0xd4>)
    142c:	18d3      	adds	r3, r2, r3
    142e:	4393      	bics	r3, r2
    1430:	420b      	tst	r3, r1
    1432:	d0f8      	beq.n	1426 <strchr+0xb2>
    1434:	7803      	ldrb	r3, [r0, #0]
    1436:	2b00      	cmp	r3, #0
    1438:	d0e0      	beq.n	13fc <strchr+0x88>
    143a:	3001      	adds	r0, #1
    143c:	7803      	ldrb	r3, [r0, #0]
    143e:	2b00      	cmp	r3, #0
    1440:	d1fb      	bne.n	143a <strchr+0xc6>
    1442:	e7db      	b.n	13fc <strchr+0x88>
    1444:	2000      	movs	r0, #0
    1446:	e7d9      	b.n	13fc <strchr+0x88>
    1448:	fefefeff 	.word	0xfefefeff
    144c:	80808080 	.word	0x80808080

00001450 <strlen>:
    1450:	b510      	push	{r4, lr}
    1452:	0783      	lsls	r3, r0, #30
    1454:	d027      	beq.n	14a6 <strlen+0x56>
    1456:	7803      	ldrb	r3, [r0, #0]
    1458:	2b00      	cmp	r3, #0
    145a:	d026      	beq.n	14aa <strlen+0x5a>
    145c:	0003      	movs	r3, r0
    145e:	2103      	movs	r1, #3
    1460:	e002      	b.n	1468 <strlen+0x18>
    1462:	781a      	ldrb	r2, [r3, #0]
    1464:	2a00      	cmp	r2, #0
    1466:	d01c      	beq.n	14a2 <strlen+0x52>
    1468:	3301      	adds	r3, #1
    146a:	420b      	tst	r3, r1
    146c:	d1f9      	bne.n	1462 <strlen+0x12>
    146e:	6819      	ldr	r1, [r3, #0]
    1470:	4a0f      	ldr	r2, [pc, #60]	; (14b0 <strlen+0x60>)
    1472:	4c10      	ldr	r4, [pc, #64]	; (14b4 <strlen+0x64>)
    1474:	188a      	adds	r2, r1, r2
    1476:	438a      	bics	r2, r1
    1478:	4222      	tst	r2, r4
    147a:	d10f      	bne.n	149c <strlen+0x4c>
    147c:	3304      	adds	r3, #4
    147e:	6819      	ldr	r1, [r3, #0]
    1480:	4a0b      	ldr	r2, [pc, #44]	; (14b0 <strlen+0x60>)
    1482:	188a      	adds	r2, r1, r2
    1484:	438a      	bics	r2, r1
    1486:	4222      	tst	r2, r4
    1488:	d108      	bne.n	149c <strlen+0x4c>
    148a:	3304      	adds	r3, #4
    148c:	6819      	ldr	r1, [r3, #0]
    148e:	4a08      	ldr	r2, [pc, #32]	; (14b0 <strlen+0x60>)
    1490:	188a      	adds	r2, r1, r2
    1492:	438a      	bics	r2, r1
    1494:	4222      	tst	r2, r4
    1496:	d0f1      	beq.n	147c <strlen+0x2c>
    1498:	e000      	b.n	149c <strlen+0x4c>
    149a:	3301      	adds	r3, #1
    149c:	781a      	ldrb	r2, [r3, #0]
    149e:	2a00      	cmp	r2, #0
    14a0:	d1fb      	bne.n	149a <strlen+0x4a>
    14a2:	1a18      	subs	r0, r3, r0
    14a4:	bd10      	pop	{r4, pc}
    14a6:	0003      	movs	r3, r0
    14a8:	e7e1      	b.n	146e <strlen+0x1e>
    14aa:	2000      	movs	r0, #0
    14ac:	e7fa      	b.n	14a4 <strlen+0x54>
    14ae:	46c0      	nop			; (mov r8, r8)
    14b0:	fefefeff 	.word	0xfefefeff
    14b4:	80808080 	.word	0x80808080

000014b8 <strncpy>:
    14b8:	000b      	movs	r3, r1
    14ba:	4303      	orrs	r3, r0
    14bc:	b570      	push	{r4, r5, r6, lr}
    14be:	0005      	movs	r5, r0
    14c0:	079b      	lsls	r3, r3, #30
    14c2:	d101      	bne.n	14c8 <strncpy+0x10>
    14c4:	2a03      	cmp	r2, #3
    14c6:	d815      	bhi.n	14f4 <strncpy+0x3c>
    14c8:	2a00      	cmp	r2, #0
    14ca:	d012      	beq.n	14f2 <strncpy+0x3a>
    14cc:	1c4c      	adds	r4, r1, #1
    14ce:	7809      	ldrb	r1, [r1, #0]
    14d0:	3a01      	subs	r2, #1
    14d2:	1c6b      	adds	r3, r5, #1
    14d4:	7029      	strb	r1, [r5, #0]
    14d6:	2900      	cmp	r1, #0
    14d8:	d01b      	beq.n	1512 <strncpy+0x5a>
    14da:	0021      	movs	r1, r4
    14dc:	e007      	b.n	14ee <strncpy+0x36>
    14de:	780c      	ldrb	r4, [r1, #0]
    14e0:	3301      	adds	r3, #1
    14e2:	1e5d      	subs	r5, r3, #1
    14e4:	3a01      	subs	r2, #1
    14e6:	702c      	strb	r4, [r5, #0]
    14e8:	3101      	adds	r1, #1
    14ea:	2c00      	cmp	r4, #0
    14ec:	d011      	beq.n	1512 <strncpy+0x5a>
    14ee:	2a00      	cmp	r2, #0
    14f0:	d1f5      	bne.n	14de <strncpy+0x26>
    14f2:	bd70      	pop	{r4, r5, r6, pc}
    14f4:	4e0b      	ldr	r6, [pc, #44]	; (1524 <strncpy+0x6c>)
    14f6:	680c      	ldr	r4, [r1, #0]
    14f8:	4b0b      	ldr	r3, [pc, #44]	; (1528 <strncpy+0x70>)
    14fa:	18e3      	adds	r3, r4, r3
    14fc:	43a3      	bics	r3, r4
    14fe:	4233      	tst	r3, r6
    1500:	d1e4      	bne.n	14cc <strncpy+0x14>
    1502:	3504      	adds	r5, #4
    1504:	1f2b      	subs	r3, r5, #4
    1506:	3a04      	subs	r2, #4
    1508:	3104      	adds	r1, #4
    150a:	601c      	str	r4, [r3, #0]
    150c:	2a03      	cmp	r2, #3
    150e:	d8f2      	bhi.n	14f6 <strncpy+0x3e>
    1510:	e7da      	b.n	14c8 <strncpy+0x10>
    1512:	189c      	adds	r4, r3, r2
    1514:	2100      	movs	r1, #0
    1516:	2a00      	cmp	r2, #0
    1518:	d0eb      	beq.n	14f2 <strncpy+0x3a>
    151a:	7019      	strb	r1, [r3, #0]
    151c:	3301      	adds	r3, #1
    151e:	42a3      	cmp	r3, r4
    1520:	d1fb      	bne.n	151a <strncpy+0x62>
    1522:	e7e6      	b.n	14f2 <strncpy+0x3a>
    1524:	80808080 	.word	0x80808080
    1528:	fefefeff 	.word	0xfefefeff

0000152c <register_fini>:
    152c:	4b03      	ldr	r3, [pc, #12]	; (153c <register_fini+0x10>)
    152e:	b510      	push	{r4, lr}
    1530:	2b00      	cmp	r3, #0
    1532:	d002      	beq.n	153a <register_fini+0xe>
    1534:	4802      	ldr	r0, [pc, #8]	; (1540 <register_fini+0x14>)
    1536:	f000 f805 	bl	1544 <atexit>
    153a:	bd10      	pop	{r4, pc}
    153c:	00000000 	.word	0x00000000
    1540:	00001555 	.word	0x00001555

00001544 <atexit>:
    1544:	b510      	push	{r4, lr}
    1546:	0001      	movs	r1, r0
    1548:	2300      	movs	r3, #0
    154a:	2200      	movs	r2, #0
    154c:	2000      	movs	r0, #0
    154e:	f000 f81b 	bl	1588 <__register_exitproc>
    1552:	bd10      	pop	{r4, pc}

00001554 <__libc_fini_array>:
    1554:	b570      	push	{r4, r5, r6, lr}
    1556:	4b09      	ldr	r3, [pc, #36]	; (157c <__libc_fini_array+0x28>)
    1558:	4c09      	ldr	r4, [pc, #36]	; (1580 <__libc_fini_array+0x2c>)
    155a:	1ae4      	subs	r4, r4, r3
    155c:	10a4      	asrs	r4, r4, #2
    155e:	d009      	beq.n	1574 <__libc_fini_array+0x20>
    1560:	4a08      	ldr	r2, [pc, #32]	; (1584 <__libc_fini_array+0x30>)
    1562:	18a5      	adds	r5, r4, r2
    1564:	00ad      	lsls	r5, r5, #2
    1566:	18ed      	adds	r5, r5, r3
    1568:	682b      	ldr	r3, [r5, #0]
    156a:	3c01      	subs	r4, #1
    156c:	4798      	blx	r3
    156e:	3d04      	subs	r5, #4
    1570:	2c00      	cmp	r4, #0
    1572:	d1f9      	bne.n	1568 <__libc_fini_array+0x14>
    1574:	f000 f8a2 	bl	16bc <_fini>
    1578:	bd70      	pop	{r4, r5, r6, pc}
    157a:	46c0      	nop			; (mov r8, r8)
    157c:	000016c8 	.word	0x000016c8
    1580:	000016cc 	.word	0x000016cc
    1584:	3fffffff 	.word	0x3fffffff

00001588 <__register_exitproc>:
    1588:	b5f8      	push	{r3, r4, r5, r6, r7, lr}
    158a:	4644      	mov	r4, r8
    158c:	465f      	mov	r7, fp
    158e:	4656      	mov	r6, sl
    1590:	464d      	mov	r5, r9
    1592:	469b      	mov	fp, r3
    1594:	4b2f      	ldr	r3, [pc, #188]	; (1654 <__register_exitproc+0xcc>)
    1596:	b4f0      	push	{r4, r5, r6, r7}
    1598:	681c      	ldr	r4, [r3, #0]
    159a:	23a4      	movs	r3, #164	; 0xa4
    159c:	005b      	lsls	r3, r3, #1
    159e:	0005      	movs	r5, r0
    15a0:	58e0      	ldr	r0, [r4, r3]
    15a2:	000e      	movs	r6, r1
    15a4:	4690      	mov	r8, r2
    15a6:	2800      	cmp	r0, #0
    15a8:	d04b      	beq.n	1642 <__register_exitproc+0xba>
    15aa:	6843      	ldr	r3, [r0, #4]
    15ac:	2b1f      	cmp	r3, #31
    15ae:	dc0d      	bgt.n	15cc <__register_exitproc+0x44>
    15b0:	1c5c      	adds	r4, r3, #1
    15b2:	2d00      	cmp	r5, #0
    15b4:	d121      	bne.n	15fa <__register_exitproc+0x72>
    15b6:	3302      	adds	r3, #2
    15b8:	009b      	lsls	r3, r3, #2
    15ba:	6044      	str	r4, [r0, #4]
    15bc:	501e      	str	r6, [r3, r0]
    15be:	2000      	movs	r0, #0
    15c0:	bc3c      	pop	{r2, r3, r4, r5}
    15c2:	4690      	mov	r8, r2
    15c4:	4699      	mov	r9, r3
    15c6:	46a2      	mov	sl, r4
    15c8:	46ab      	mov	fp, r5
    15ca:	bdf8      	pop	{r3, r4, r5, r6, r7, pc}
    15cc:	4b22      	ldr	r3, [pc, #136]	; (1658 <__register_exitproc+0xd0>)
    15ce:	2b00      	cmp	r3, #0
    15d0:	d03c      	beq.n	164c <__register_exitproc+0xc4>
    15d2:	20c8      	movs	r0, #200	; 0xc8
    15d4:	0040      	lsls	r0, r0, #1
    15d6:	e000      	b.n	15da <__register_exitproc+0x52>
    15d8:	bf00      	nop
    15da:	2800      	cmp	r0, #0
    15dc:	d036      	beq.n	164c <__register_exitproc+0xc4>
    15de:	22a4      	movs	r2, #164	; 0xa4
    15e0:	2300      	movs	r3, #0
    15e2:	0052      	lsls	r2, r2, #1
    15e4:	58a1      	ldr	r1, [r4, r2]
    15e6:	6043      	str	r3, [r0, #4]
    15e8:	6001      	str	r1, [r0, #0]
    15ea:	50a0      	str	r0, [r4, r2]
    15ec:	3240      	adds	r2, #64	; 0x40
    15ee:	5083      	str	r3, [r0, r2]
    15f0:	3204      	adds	r2, #4
    15f2:	5083      	str	r3, [r0, r2]
    15f4:	2401      	movs	r4, #1
    15f6:	2d00      	cmp	r5, #0
    15f8:	d0dd      	beq.n	15b6 <__register_exitproc+0x2e>
    15fa:	009a      	lsls	r2, r3, #2
    15fc:	4691      	mov	r9, r2
    15fe:	4481      	add	r9, r0
    1600:	4642      	mov	r2, r8
    1602:	2188      	movs	r1, #136	; 0x88
    1604:	464f      	mov	r7, r9
    1606:	507a      	str	r2, [r7, r1]
    1608:	22c4      	movs	r2, #196	; 0xc4
    160a:	0052      	lsls	r2, r2, #1
    160c:	4690      	mov	r8, r2
    160e:	4480      	add	r8, r0
    1610:	4642      	mov	r2, r8
    1612:	3987      	subs	r1, #135	; 0x87
    1614:	4099      	lsls	r1, r3
    1616:	6812      	ldr	r2, [r2, #0]
    1618:	468a      	mov	sl, r1
    161a:	430a      	orrs	r2, r1
    161c:	4694      	mov	ip, r2
    161e:	4642      	mov	r2, r8
    1620:	4661      	mov	r1, ip
    1622:	6011      	str	r1, [r2, #0]
    1624:	2284      	movs	r2, #132	; 0x84
    1626:	4649      	mov	r1, r9
    1628:	465f      	mov	r7, fp
    162a:	0052      	lsls	r2, r2, #1
    162c:	508f      	str	r7, [r1, r2]
    162e:	2d02      	cmp	r5, #2
    1630:	d1c1      	bne.n	15b6 <__register_exitproc+0x2e>
    1632:	0002      	movs	r2, r0
    1634:	4655      	mov	r5, sl
    1636:	328d      	adds	r2, #141	; 0x8d
    1638:	32ff      	adds	r2, #255	; 0xff
    163a:	6811      	ldr	r1, [r2, #0]
    163c:	430d      	orrs	r5, r1
    163e:	6015      	str	r5, [r2, #0]
    1640:	e7b9      	b.n	15b6 <__register_exitproc+0x2e>
    1642:	0020      	movs	r0, r4
    1644:	304d      	adds	r0, #77	; 0x4d
    1646:	30ff      	adds	r0, #255	; 0xff
    1648:	50e0      	str	r0, [r4, r3]
    164a:	e7ae      	b.n	15aa <__register_exitproc+0x22>
    164c:	2001      	movs	r0, #1
    164e:	4240      	negs	r0, r0
    1650:	e7b6      	b.n	15c0 <__register_exitproc+0x38>
    1652:	46c0      	nop			; (mov r8, r8)
    1654:	000016a4 	.word	0x000016a4
    1658:	00000000 	.word	0x00000000

0000165c <spiMOSI>:
    165c:	08000000 00000000                                .....

00001661 <spiSCK>:
    1661:	09000000 00000000                                .....

00001666 <spiMISO>:
    1666:	05000000 75727400 61660065 0065736c     .....true.false.

00001676 <spiMOSI>:
    1676:	08000000 00000000                                .....

0000167b <spiSCK>:
    167b:	09000000 00000000                                .....

00001680 <spiMISO>:
    1680:	05000000 20585200 7265766f 776f6c66     .....RX overflow
    1690:	20585400 20746f6e 65746e65 00646572     .TX not entered.
    16a0:	00000043                                C...

000016a4 <_global_impure_ptr>:
    16a4:	20000020                                 .. 

000016a8 <_init>:
    16a8:	b5f8      	push	{r3, r4, r5, r6, r7, lr}
    16aa:	46c0      	nop			; (mov r8, r8)
    16ac:	bcf8      	pop	{r3, r4, r5, r6, r7}
    16ae:	bc08      	pop	{r3}
    16b0:	469e      	mov	lr, r3
    16b2:	4770      	bx	lr

000016b4 <__init_array_start>:
    16b4:	0000152d 	.word	0x0000152d

000016b8 <__frame_dummy_init_array_entry>:
    16b8:	000000b5                                ....

000016bc <_fini>:
    16bc:	b5f8      	push	{r3, r4, r5, r6, r7, lr}
    16be:	46c0      	nop			; (mov r8, r8)
    16c0:	bcf8      	pop	{r3, r4, r5, r6, r7}
    16c2:	bc08      	pop	{r3}
    16c4:	469e      	mov	lr, r3
    16c6:	4770      	bx	lr

000016c8 <__fini_array_start>:
    16c8:	0000008d 	.word	0x0000008d
