
DasAltimeter.elf:     file format elf32-littlearm

Sections:
Idx Name          Size      VMA       LMA       File off  Algn
  0 .text         000035b4  00000000  00000000  00010000  2**2
                  CONTENTS, ALLOC, LOAD, READONLY, CODE
  1 .relocate     00000438  20000000  000035b4  00020000  2**3
                  CONTENTS, ALLOC, LOAD, DATA
  2 .bss          000001b0  20000440  00003a00  00020440  2**4
                  ALLOC
  3 .stack        00002000  200005f0  00003bb0  00020440  2**0
                  ALLOC
  4 .ARM.attributes 00000028  00000000  00000000  00020438  2**0
                  CONTENTS, READONLY
  5 .comment      00000059  00000000  00000000  00020460  2**0
                  CONTENTS, READONLY
  6 .debug_info   0001b8c2  00000000  00000000  000204b9  2**0
                  CONTENTS, READONLY, DEBUGGING
  7 .debug_abbrev 000022ca  00000000  00000000  0003bd7b  2**0
                  CONTENTS, READONLY, DEBUGGING
  8 .debug_loc    00001d2d  00000000  00000000  0003e045  2**0
                  CONTENTS, READONLY, DEBUGGING
  9 .debug_aranges 00000388  00000000  00000000  0003fd72  2**0
                  CONTENTS, READONLY, DEBUGGING
 10 .debug_ranges 00000c50  00000000  00000000  000400fa  2**0
                  CONTENTS, READONLY, DEBUGGING
 11 .debug_macro  000156fa  00000000  00000000  00040d4a  2**0
                  CONTENTS, READONLY, DEBUGGING
 12 .debug_line   0000886e  00000000  00000000  00056444  2**0
                  CONTENTS, READONLY, DEBUGGING
 13 .debug_str    000726b5  00000000  00000000  0005ecb2  2**0
                  CONTENTS, READONLY, DEBUGGING
 14 .debug_frame  00000bf0  00000000  00000000  000d1368  2**2
                  CONTENTS, READONLY, DEBUGGING

Disassembly of section .text:

00000000 <_sfixed>:
 *         retrieved from cpu registers.
 */
void SystemCoreClockUpdate(void)
{
	// Not implemented
	SystemCoreClock = __SYSTEM_CLOCK;
       0:	200025f0 	.word	0x200025f0
       4:	00000119 	.word	0x00000119
	return;
}
       8:	00000115 	.word	0x00000115
       c:	00000115 	.word	0x00000115
	...
      2c:	00000115 	.word	0x00000115
	...
      38:	00000115 	.word	0x00000115
      3c:	00000115 	.word	0x00000115
      40:	00000115 	.word	0x00000115
      44:	00000115 	.word	0x00000115
      48:	00000115 	.word	0x00000115
      4c:	00000ed1 	.word	0x00000ed1
      50:	00000115 	.word	0x00000115
      54:	00000115 	.word	0x00000115
      58:	00000115 	.word	0x00000115
      5c:	00000115 	.word	0x00000115
      60:	00000115 	.word	0x00000115
      64:	00000115 	.word	0x00000115
      68:	00000115 	.word	0x00000115
      6c:	00000115 	.word	0x00000115
      70:	00000115 	.word	0x00000115
      74:	00000115 	.word	0x00000115
      78:	00000115 	.word	0x00000115
      7c:	00000115 	.word	0x00000115
      80:	00000115 	.word	0x00000115
      84:	00000115 	.word	0x00000115
      88:	00000115 	.word	0x00000115
      8c:	00000f71 	.word	0x00000f71
      90:	00000fd9 	.word	0x00000fd9
	...
      9c:	00000115 	.word	0x00000115
      a0:	00000115 	.word	0x00000115
      a4:	00000115 	.word	0x00000115
      a8:	00000115 	.word	0x00000115
      ac:	00000115 	.word	0x00000115
      b0:	00000000 	.word	0x00000000

000000b4 <__do_global_dtors_aux>:
      b4:	b510      	push	{r4, lr}
      b6:	4c06      	ldr	r4, [pc, #24]	; (d0 <__do_global_dtors_aux+0x1c>)
      b8:	7823      	ldrb	r3, [r4, #0]
      ba:	2b00      	cmp	r3, #0
      bc:	d107      	bne.n	ce <__do_global_dtors_aux+0x1a>
      be:	4b05      	ldr	r3, [pc, #20]	; (d4 <__do_global_dtors_aux+0x20>)
      c0:	2b00      	cmp	r3, #0
      c2:	d002      	beq.n	ca <__do_global_dtors_aux+0x16>
      c4:	4804      	ldr	r0, [pc, #16]	; (d8 <__do_global_dtors_aux+0x24>)
      c6:	e000      	b.n	ca <__do_global_dtors_aux+0x16>
      c8:	bf00      	nop
      ca:	2301      	movs	r3, #1
      cc:	7023      	strb	r3, [r4, #0]
      ce:	bd10      	pop	{r4, pc}
      d0:	20000440 	.word	0x20000440
      d4:	00000000 	.word	0x00000000
      d8:	000035b4 	.word	0x000035b4

000000dc <frame_dummy>:
      dc:	4b08      	ldr	r3, [pc, #32]	; (100 <frame_dummy+0x24>)
      de:	b510      	push	{r4, lr}
      e0:	2b00      	cmp	r3, #0
      e2:	d003      	beq.n	ec <frame_dummy+0x10>
      e4:	4907      	ldr	r1, [pc, #28]	; (104 <frame_dummy+0x28>)
      e6:	4808      	ldr	r0, [pc, #32]	; (108 <frame_dummy+0x2c>)
      e8:	e000      	b.n	ec <frame_dummy+0x10>
      ea:	bf00      	nop
      ec:	4807      	ldr	r0, [pc, #28]	; (10c <frame_dummy+0x30>)
      ee:	6803      	ldr	r3, [r0, #0]
      f0:	2b00      	cmp	r3, #0
      f2:	d100      	bne.n	f6 <frame_dummy+0x1a>
      f4:	bd10      	pop	{r4, pc}
      f6:	4b06      	ldr	r3, [pc, #24]	; (110 <frame_dummy+0x34>)
      f8:	2b00      	cmp	r3, #0
      fa:	d0fb      	beq.n	f4 <frame_dummy+0x18>
      fc:	4798      	blx	r3
      fe:	e7f9      	b.n	f4 <frame_dummy+0x18>
     100:	00000000 	.word	0x00000000
     104:	20000444 	.word	0x20000444
     108:	000035b4 	.word	0x000035b4
     10c:	000035b4 	.word	0x000035b4
     110:	00000000 	.word	0x00000000

00000114 <Dummy_Handler>:

/**
 * \brief Default interrupt handler for unused IRQs.
 */
void Dummy_Handler(void)
{
     114:	e7fe      	b.n	114 <Dummy_Handler>
	...

00000118 <Reset_Handler>:
/**
 * \brief This is the code that gets called on processor reset.
 * To initialize the device, and call the main() routine.
 */
void Reset_Handler(void)
{
     118:	4821      	ldr	r0, [pc, #132]	; (1a0 <Reset_Handler+0x88>)
     11a:	4922      	ldr	r1, [pc, #136]	; (1a4 <Reset_Handler+0x8c>)
     11c:	b570      	push	{r4, r5, r6, lr}

        /* Initialize the relocate segment */
        pSrc = &_etext;
        pDest = &_srelocate;

        if (pSrc != pDest) {
     11e:	4288      	cmp	r0, r1
     120:	d002      	beq.n	128 <Reset_Handler+0x10>
     122:	2300      	movs	r3, #0
                for (; pDest < &_erelocate;) {
     124:	4c20      	ldr	r4, [pc, #128]	; (1a8 <Reset_Handler+0x90>)
     126:	e003      	b.n	130 <Reset_Handler+0x18>
     128:	4b20      	ldr	r3, [pc, #128]	; (1ac <Reset_Handler+0x94>)
                        *pDest++ = *pSrc++;
                }
        }

        /* Clear the zero segment */
        for (pDest = &_szero; pDest < &_ezero;) {
     12a:	4a21      	ldr	r2, [pc, #132]	; (1b0 <Reset_Handler+0x98>)
                *pDest++ = 0;
     12c:	2100      	movs	r1, #0
     12e:	e006      	b.n	13e <Reset_Handler+0x26>
        /* Initialize the relocate segment */
        pSrc = &_etext;
        pDest = &_srelocate;

        if (pSrc != pDest) {
                for (; pDest < &_erelocate;) {
     130:	18ca      	adds	r2, r1, r3
     132:	42a2      	cmp	r2, r4
     134:	d2f8      	bcs.n	128 <Reset_Handler+0x10>
                        *pDest++ = *pSrc++;
     136:	58c5      	ldr	r5, [r0, r3]
     138:	3304      	adds	r3, #4
     13a:	6015      	str	r5, [r2, #0]
     13c:	e7f8      	b.n	130 <Reset_Handler+0x18>
                }
        }

        /* Clear the zero segment */
        for (pDest = &_szero; pDest < &_ezero;) {
     13e:	4293      	cmp	r3, r2
     140:	d201      	bcs.n	146 <Reset_Handler+0x2e>
                *pDest++ = 0;
     142:	c302      	stmia	r3!, {r1}
     144:	e7fb      	b.n	13e <Reset_Handler+0x26>
        }

        /* Set the vector table base address */
        pSrc = (uint32_t *) & _sfixed;
        SCB->VTOR = ((uint32_t) pSrc & SCB_VTOR_TBLOFF_Msk);
     146:	21ff      	movs	r1, #255	; 0xff

        /* Change default QOS values to have the best performance and correct USB behaviour */
        SBMATRIX->SFR[SBMATRIX_SLAVE_HMCRAMC0].reg = 2;
     148:	2402      	movs	r4, #2
#if defined(ID_USB)
        USB->DEVICE.QOSCTRL.bit.CQOS = 2;
     14a:	2503      	movs	r5, #3
                *pDest++ = 0;
        }

        /* Set the vector table base address */
        pSrc = (uint32_t *) & _sfixed;
        SCB->VTOR = ((uint32_t) pSrc & SCB_VTOR_TBLOFF_Msk);
     14c:	4b19      	ldr	r3, [pc, #100]	; (1b4 <Reset_Handler+0x9c>)
     14e:	4a1a      	ldr	r2, [pc, #104]	; (1b8 <Reset_Handler+0xa0>)
     150:	438b      	bics	r3, r1

        /* Change default QOS values to have the best performance and correct USB behaviour */
        SBMATRIX->SFR[SBMATRIX_SLAVE_HMCRAMC0].reg = 2;
#if defined(ID_USB)
        USB->DEVICE.QOSCTRL.bit.CQOS = 2;
        USB->DEVICE.QOSCTRL.bit.DQOS = 2;
     152:	260c      	movs	r6, #12
                *pDest++ = 0;
        }

        /* Set the vector table base address */
        pSrc = (uint32_t *) & _sfixed;
        SCB->VTOR = ((uint32_t) pSrc & SCB_VTOR_TBLOFF_Msk);
     154:	6093      	str	r3, [r2, #8]

        /* Change default QOS values to have the best performance and correct USB behaviour */
        SBMATRIX->SFR[SBMATRIX_SLAVE_HMCRAMC0].reg = 2;
#if defined(ID_USB)
        USB->DEVICE.QOSCTRL.bit.CQOS = 2;
        USB->DEVICE.QOSCTRL.bit.DQOS = 2;
     156:	2208      	movs	r2, #8
        /* Set the vector table base address */
        pSrc = (uint32_t *) & _sfixed;
        SCB->VTOR = ((uint32_t) pSrc & SCB_VTOR_TBLOFF_Msk);

        /* Change default QOS values to have the best performance and correct USB behaviour */
        SBMATRIX->SFR[SBMATRIX_SLAVE_HMCRAMC0].reg = 2;
     158:	4b18      	ldr	r3, [pc, #96]	; (1bc <Reset_Handler+0xa4>)
#if defined(ID_USB)
        USB->DEVICE.QOSCTRL.bit.CQOS = 2;
     15a:	4919      	ldr	r1, [pc, #100]	; (1c0 <Reset_Handler+0xa8>)
        /* Set the vector table base address */
        pSrc = (uint32_t *) & _sfixed;
        SCB->VTOR = ((uint32_t) pSrc & SCB_VTOR_TBLOFF_Msk);

        /* Change default QOS values to have the best performance and correct USB behaviour */
        SBMATRIX->SFR[SBMATRIX_SLAVE_HMCRAMC0].reg = 2;
     15c:	625c      	str	r4, [r3, #36]	; 0x24
#if defined(ID_USB)
        USB->DEVICE.QOSCTRL.bit.CQOS = 2;
     15e:	78cb      	ldrb	r3, [r1, #3]
     160:	43ab      	bics	r3, r5
     162:	4323      	orrs	r3, r4
     164:	70cb      	strb	r3, [r1, #3]
        USB->DEVICE.QOSCTRL.bit.DQOS = 2;
     166:	78cb      	ldrb	r3, [r1, #3]
     168:	43b3      	bics	r3, r6
     16a:	4313      	orrs	r3, r2
     16c:	70cb      	strb	r3, [r1, #3]
#endif
        DMAC->QOSCTRL.bit.DQOS = 2;
     16e:	2130      	movs	r1, #48	; 0x30
     170:	4b14      	ldr	r3, [pc, #80]	; (1c4 <Reset_Handler+0xac>)
     172:	7b98      	ldrb	r0, [r3, #14]
     174:	4388      	bics	r0, r1
     176:	3910      	subs	r1, #16
     178:	4308      	orrs	r0, r1
     17a:	7398      	strb	r0, [r3, #14]
        DMAC->QOSCTRL.bit.FQOS = 2;
     17c:	7b99      	ldrb	r1, [r3, #14]
     17e:	43b1      	bics	r1, r6
     180:	4311      	orrs	r1, r2
     182:	7399      	strb	r1, [r3, #14]
        DMAC->QOSCTRL.bit.WRBQOS = 2;

        /* Overwriting the default value of the NVMCTRL.CTRLB.MANW bit (errata reference 13134) */
        NVMCTRL->CTRLB.bit.MANW = 1;
     184:	2180      	movs	r1, #128	; 0x80
        USB->DEVICE.QOSCTRL.bit.CQOS = 2;
        USB->DEVICE.QOSCTRL.bit.DQOS = 2;
#endif
        DMAC->QOSCTRL.bit.DQOS = 2;
        DMAC->QOSCTRL.bit.FQOS = 2;
        DMAC->QOSCTRL.bit.WRBQOS = 2;
     186:	7b9a      	ldrb	r2, [r3, #14]
     188:	43aa      	bics	r2, r5
     18a:	4322      	orrs	r2, r4
     18c:	739a      	strb	r2, [r3, #14]

        /* Overwriting the default value of the NVMCTRL.CTRLB.MANW bit (errata reference 13134) */
        NVMCTRL->CTRLB.bit.MANW = 1;
     18e:	4a0e      	ldr	r2, [pc, #56]	; (1c8 <Reset_Handler+0xb0>)
     190:	6853      	ldr	r3, [r2, #4]
     192:	430b      	orrs	r3, r1
     194:	6053      	str	r3, [r2, #4]

        /* Initialize the C library */
        __libc_init_array();
     196:	4b0d      	ldr	r3, [pc, #52]	; (1cc <Reset_Handler+0xb4>)
     198:	4798      	blx	r3

        /* Branch to main function */
        main();
     19a:	4b0d      	ldr	r3, [pc, #52]	; (1d0 <Reset_Handler+0xb8>)
     19c:	4798      	blx	r3
     19e:	e7fe      	b.n	19e <Reset_Handler+0x86>
     1a0:	000035b4 	.word	0x000035b4
     1a4:	20000000 	.word	0x20000000
     1a8:	20000438 	.word	0x20000438
     1ac:	20000440 	.word	0x20000440
     1b0:	200005f0 	.word	0x200005f0
     1b4:	00000000 	.word	0x00000000
     1b8:	e000ed00 	.word	0xe000ed00
     1bc:	410070fc 	.word	0x410070fc
     1c0:	41005000 	.word	0x41005000
     1c4:	41004800 	.word	0x41004800
     1c8:	41004000 	.word	0x41004000
     1cc:	000031d9 	.word	0x000031d9
     1d0:	000009d5 	.word	0x000009d5

000001d4 <SystemInit>:
     1d4:	4a01      	ldr	r2, [pc, #4]	; (1dc <SystemInit+0x8>)
     1d6:	4b02      	ldr	r3, [pc, #8]	; (1e0 <SystemInit+0xc>)
     1d8:	601a      	str	r2, [r3, #0]
     1da:	4770      	bx	lr
     1dc:	000f4240 	.word	0x000f4240
     1e0:	20000000 	.word	0x20000000

000001e4 <AT25SEreadPage>:
    PORT->Group[p.group].OUTSET.reg = (1<<p.pin);
}


inline static void pinLow(Pin p) {
    PORT->Group[p.group].OUTCLR.reg = (1<<p.pin);
     1e4:	2380      	movs	r3, #128	; 0x80
    }
    pinHigh(cs_mem);

}

void AT25SEreadPage(u32_t startingAddress, u8_t *data) {
     1e6:	b5f7      	push	{r0, r1, r2, r4, r5, r6, r7, lr}
     1e8:	4f16      	ldr	r7, [pc, #88]	; (244 <AT25SEreadPage+0x60>)
     1ea:	02db      	lsls	r3, r3, #11
     1ec:	0006      	movs	r6, r0


    pinLow(cs_mem);
    dummy_rx = spiDataTransfer(SPI1,OPCODE_FASTREAD_ARRAY);
     1ee:	4c16      	ldr	r4, [pc, #88]	; (248 <AT25SEreadPage+0x64>)
    }
    pinHigh(cs_mem);

}

void AT25SEreadPage(u32_t startingAddress, u8_t *data) {
     1f0:	9101      	str	r1, [sp, #4]


    pinLow(cs_mem);
    dummy_rx = spiDataTransfer(SPI1,OPCODE_FASTREAD_ARRAY);
     1f2:	2001      	movs	r0, #1
     1f4:	617b      	str	r3, [r7, #20]
     1f6:	210b      	movs	r1, #11
     1f8:	47a0      	blx	r4
     1fa:	4d14      	ldr	r5, [pc, #80]	; (24c <AT25SEreadPage+0x68>)
    dummy_rx = spiDataTransfer(SPI1,((startingAddress & 0xFF0000) >> 16));
     1fc:	0c31      	lsrs	r1, r6, #16

void AT25SEreadPage(u32_t startingAddress, u8_t *data) {


    pinLow(cs_mem);
    dummy_rx = spiDataTransfer(SPI1,OPCODE_FASTREAD_ARRAY);
     1fe:	7028      	strb	r0, [r5, #0]
    dummy_rx = spiDataTransfer(SPI1,((startingAddress & 0xFF0000) >> 16));
     200:	b2c9      	uxtb	r1, r1
     202:	2001      	movs	r0, #1
     204:	47a0      	blx	r4
    dummy_rx = spiDataTransfer(SPI1,((startingAddress & 0x00FF00) >>  8));
     206:	0a31      	lsrs	r1, r6, #8
void AT25SEreadPage(u32_t startingAddress, u8_t *data) {


    pinLow(cs_mem);
    dummy_rx = spiDataTransfer(SPI1,OPCODE_FASTREAD_ARRAY);
    dummy_rx = spiDataTransfer(SPI1,((startingAddress & 0xFF0000) >> 16));
     208:	7028      	strb	r0, [r5, #0]
    dummy_rx = spiDataTransfer(SPI1,((startingAddress & 0x00FF00) >>  8));
     20a:	b2c9      	uxtb	r1, r1
     20c:	2001      	movs	r0, #1
     20e:	47a0      	blx	r4
    dummy_rx = spiDataTransfer(SPI1,((startingAddress & 0x0000FF) >>  0));
     210:	b2f1      	uxtb	r1, r6


    pinLow(cs_mem);
    dummy_rx = spiDataTransfer(SPI1,OPCODE_FASTREAD_ARRAY);
    dummy_rx = spiDataTransfer(SPI1,((startingAddress & 0xFF0000) >> 16));
    dummy_rx = spiDataTransfer(SPI1,((startingAddress & 0x00FF00) >>  8));
     212:	7028      	strb	r0, [r5, #0]
    dummy_rx = spiDataTransfer(SPI1,((startingAddress & 0x0000FF) >>  0));
     214:	2001      	movs	r0, #1
     216:	47a0      	blx	r4
    dummy_rx = spiDataTransfer(SPI1, 0xFF);
     218:	21ff      	movs	r1, #255	; 0xff

    pinLow(cs_mem);
    dummy_rx = spiDataTransfer(SPI1,OPCODE_FASTREAD_ARRAY);
    dummy_rx = spiDataTransfer(SPI1,((startingAddress & 0xFF0000) >> 16));
    dummy_rx = spiDataTransfer(SPI1,((startingAddress & 0x00FF00) >>  8));
    dummy_rx = spiDataTransfer(SPI1,((startingAddress & 0x0000FF) >>  0));
     21a:	7028      	strb	r0, [r5, #0]
    dummy_rx = spiDataTransfer(SPI1, 0xFF);
     21c:	2001      	movs	r0, #1
     21e:	47a0      	blx	r4
     220:	9e01      	ldr	r6, [sp, #4]
     222:	7028      	strb	r0, [r5, #0]
     224:	0033      	movs	r3, r6
     226:	33ff      	adds	r3, #255	; 0xff
     228:	9301      	str	r3, [sp, #4]


    for (u8_t pos = 0; pos < 255; ++pos) {
        data[pos] = spiDataTransfer(SPI1,dummy_rx);
     22a:	7829      	ldrb	r1, [r5, #0]
     22c:	2001      	movs	r0, #1
     22e:	47a0      	blx	r4
    dummy_rx = spiDataTransfer(SPI1,((startingAddress & 0x00FF00) >>  8));
    dummy_rx = spiDataTransfer(SPI1,((startingAddress & 0x0000FF) >>  0));
    dummy_rx = spiDataTransfer(SPI1, 0xFF);


    for (u8_t pos = 0; pos < 255; ++pos) {
     230:	9b01      	ldr	r3, [sp, #4]
        data[pos] = spiDataTransfer(SPI1,dummy_rx);
     232:	7030      	strb	r0, [r6, #0]
     234:	3601      	adds	r6, #1
    dummy_rx = spiDataTransfer(SPI1,((startingAddress & 0x00FF00) >>  8));
    dummy_rx = spiDataTransfer(SPI1,((startingAddress & 0x0000FF) >>  0));
    dummy_rx = spiDataTransfer(SPI1, 0xFF);


    for (u8_t pos = 0; pos < 255; ++pos) {
     236:	429e      	cmp	r6, r3
     238:	d1f7      	bne.n	22a <AT25SEreadPage+0x46>
    pinGpio(p);
    PORT->Group[p.group].DIRSET.reg = (1<<p.pin);
}

inline static void pinHigh(Pin p) {
    PORT->Group[p.group].OUTSET.reg = (1<<p.pin);
     23a:	2380      	movs	r3, #128	; 0x80
     23c:	02db      	lsls	r3, r3, #11
     23e:	61bb      	str	r3, [r7, #24]
        data[pos] = spiDataTransfer(SPI1,dummy_rx);
    }
    pinHigh(cs_mem);

     240:	bdf7      	pop	{r0, r1, r2, r4, r5, r6, r7, pc}
     242:	46c0      	nop			; (mov r8, r8)
     244:	41004400 	.word	0x41004400
     248:	00001805 	.word	0x00001805
     24c:	20000460 	.word	0x20000460

00000250 <readMS5803AdcResults>:
}


inline static void pinLow(Pin p) {
    PORT->Group[p.group].OUTCLR.reg = (1<<p.pin);
     250:	2280      	movs	r2, #128	; 0x80
     252:	4b28      	ldr	r3, [pc, #160]	; (2f4 <readMS5803AdcResults+0xa4>)
     254:	0212      	lsls	r2, r2, #8
#include <MS5803.h>
#include <boardDefines.h>
#include <math.h>


u32_t readMS5803AdcResults() {
     256:	b5f0      	push	{r4, r5, r6, r7, lr}
     258:	615a      	str	r2, [r3, #20]
    pinLow(cs_baro);
//    dummy_rx = spiDataTransfer(SPI1, cmdAdcRead_);
//    u8_t _byte1 = spiDataTransfer(SPI1,dummy_tx);
//    u8_t _byte2 = spiDataTransfer(SPI1,dummy_tx);
//    u8_t _byte3 = spiDataTransfer(SPI1,dummy_tx);
    byteOut(spi2SCK,spi2MOSI, cmdAdcRead_);
     25a:	2300      	movs	r3, #0
     25c:	4d26      	ldr	r5, [pc, #152]	; (2f8 <readMS5803AdcResults+0xa8>)
#include <MS5803.h>
#include <boardDefines.h>
#include <math.h>


u32_t readMS5803AdcResults() {
     25e:	b087      	sub	sp, #28
    pinLow(cs_baro);
//    dummy_rx = spiDataTransfer(SPI1, cmdAdcRead_);
//    u8_t _byte1 = spiDataTransfer(SPI1,dummy_tx);
//    u8_t _byte2 = spiDataTransfer(SPI1,dummy_tx);
//    u8_t _byte3 = spiDataTransfer(SPI1,dummy_tx);
    byteOut(spi2SCK,spi2MOSI, cmdAdcRead_);
     260:	9300      	str	r3, [sp, #0]
     262:	786b      	ldrb	r3, [r5, #1]
     264:	7828      	ldrb	r0, [r5, #0]
     266:	78aa      	ldrb	r2, [r5, #2]
     268:	021b      	lsls	r3, r3, #8
     26a:	4303      	orrs	r3, r0
     26c:	0412      	lsls	r2, r2, #16
     26e:	0019      	movs	r1, r3
     270:	0013      	movs	r3, r2
     272:	430b      	orrs	r3, r1
     274:	79a9      	ldrb	r1, [r5, #6]
     276:	796f      	ldrb	r7, [r5, #5]
     278:	79ec      	ldrb	r4, [r5, #7]
     27a:	0209      	lsls	r1, r1, #8
     27c:	4339      	orrs	r1, r7
     27e:	0424      	lsls	r4, r4, #16
     280:	0008      	movs	r0, r1
     282:	0021      	movs	r1, r4
     284:	7a2c      	ldrb	r4, [r5, #8]
     286:	78ea      	ldrb	r2, [r5, #3]
     288:	7a6f      	ldrb	r7, [r5, #9]
     28a:	4301      	orrs	r1, r0
     28c:	0624      	lsls	r4, r4, #24
     28e:	430c      	orrs	r4, r1
     290:	0612      	lsls	r2, r2, #24
     292:	431a      	orrs	r2, r3
     294:	0020      	movs	r0, r4
     296:	792b      	ldrb	r3, [r5, #4]
     298:	0039      	movs	r1, r7
     29a:	4e18      	ldr	r6, [pc, #96]	; (2fc <readMS5803AdcResults+0xac>)
     29c:	47b0      	blx	r6
    u8_t _byte1 = byteIn(spi2SCK,spi2MISO);
     29e:	7aeb      	ldrb	r3, [r5, #11]
     2a0:	7aa9      	ldrb	r1, [r5, #10]
     2a2:	021b      	lsls	r3, r3, #8
     2a4:	430b      	orrs	r3, r1
     2a6:	001a      	movs	r2, r3
     2a8:	7b2b      	ldrb	r3, [r5, #12]
     2aa:	4e15      	ldr	r6, [pc, #84]	; (300 <readMS5803AdcResults+0xb0>)
     2ac:	041b      	lsls	r3, r3, #16
     2ae:	4313      	orrs	r3, r2
     2b0:	7b6a      	ldrb	r2, [r5, #13]
     2b2:	7bad      	ldrb	r5, [r5, #14]
     2b4:	0612      	lsls	r2, r2, #24
     2b6:	431a      	orrs	r2, r3
     2b8:	0039      	movs	r1, r7
     2ba:	002b      	movs	r3, r5
     2bc:	0020      	movs	r0, r4
     2be:	9203      	str	r2, [sp, #12]
     2c0:	47b0      	blx	r6
    u8_t _byte2 = byteIn(spi2SCK,spi2MISO);
     2c2:	9a03      	ldr	r2, [sp, #12]
//    dummy_rx = spiDataTransfer(SPI1, cmdAdcRead_);
//    u8_t _byte1 = spiDataTransfer(SPI1,dummy_tx);
//    u8_t _byte2 = spiDataTransfer(SPI1,dummy_tx);
//    u8_t _byte3 = spiDataTransfer(SPI1,dummy_tx);
    byteOut(spi2SCK,spi2MOSI, cmdAdcRead_);
    u8_t _byte1 = byteIn(spi2SCK,spi2MISO);
     2c4:	9004      	str	r0, [sp, #16]
    u8_t _byte2 = byteIn(spi2SCK,spi2MISO);
     2c6:	002b      	movs	r3, r5
     2c8:	0039      	movs	r1, r7
     2ca:	0020      	movs	r0, r4
     2cc:	47b0      	blx	r6
    u8_t _byte3 = byteIn(spi2SCK,spi2MISO);
     2ce:	9a03      	ldr	r2, [sp, #12]
//    u8_t _byte1 = spiDataTransfer(SPI1,dummy_tx);
//    u8_t _byte2 = spiDataTransfer(SPI1,dummy_tx);
//    u8_t _byte3 = spiDataTransfer(SPI1,dummy_tx);
    byteOut(spi2SCK,spi2MOSI, cmdAdcRead_);
    u8_t _byte1 = byteIn(spi2SCK,spi2MISO);
    u8_t _byte2 = byteIn(spi2SCK,spi2MISO);
     2d0:	9005      	str	r0, [sp, #20]
    u8_t _byte3 = byteIn(spi2SCK,spi2MISO);
     2d2:	002b      	movs	r3, r5
     2d4:	0020      	movs	r0, r4
     2d6:	0039      	movs	r1, r7
     2d8:	47b0      	blx	r6
    pinGpio(p);
    PORT->Group[p.group].DIRSET.reg = (1<<p.pin);
}

inline static void pinHigh(Pin p) {
    PORT->Group[p.group].OUTSET.reg = (1<<p.pin);
     2da:	2280      	movs	r2, #128	; 0x80
     2dc:	4b05      	ldr	r3, [pc, #20]	; (2f4 <readMS5803AdcResults+0xa4>)
     2de:	0212      	lsls	r2, r2, #8
     2e0:	619a      	str	r2, [r3, #24]
    pinHigh(cs_baro);

    u32_t _receive = (_byte1 << 16) | (_byte2 << 8) | (_byte3);
    return _receive;
     2e2:	9b04      	ldr	r3, [sp, #16]
     2e4:	9a05      	ldr	r2, [sp, #20]
     2e6:	041b      	lsls	r3, r3, #16
     2e8:	0215      	lsls	r5, r2, #8
     2ea:	431d      	orrs	r5, r3
     2ec:	4328      	orrs	r0, r5
}
     2ee:	b007      	add	sp, #28
     2f0:	bdf0      	pop	{r4, r5, r6, r7, pc}
     2f2:	46c0      	nop			; (mov r8, r8)
     2f4:	41004400 	.word	0x41004400
     2f8:	000033dc 	.word	0x000033dc
     2fc:	00000c01 	.word	0x00000c01
     300:	00000c6d 	.word	0x00000c6d

00000304 <ConvertPressureTemperature>:

void ConvertPressureTemperature(Barometer *my_barometer) {
     304:	b5f0      	push	{r4, r5, r6, r7, lr}
    volatile const u16_t C1 = my_barometer->coefficients_[0];
    volatile const u16_t C2 = my_barometer->coefficients_[1];
    volatile const u16_t C3 = my_barometer->coefficients_[2];
    volatile const u16_t C4 = my_barometer->coefficients_[3];
     306:	240a      	movs	r4, #10

    u32_t _receive = (_byte1 << 16) | (_byte2 << 8) | (_byte3);
    return _receive;
}

void ConvertPressureTemperature(Barometer *my_barometer) {
     308:	b08d      	sub	sp, #52	; 0x34
    volatile const u16_t C1 = my_barometer->coefficients_[0];
     30a:	8803      	ldrh	r3, [r0, #0]
     30c:	aa04      	add	r2, sp, #16
     30e:	8093      	strh	r3, [r2, #4]
    volatile const u16_t C2 = my_barometer->coefficients_[1];
     310:	8843      	ldrh	r3, [r0, #2]
    volatile const u16_t C3 = my_barometer->coefficients_[2];
    volatile const u16_t C4 = my_barometer->coefficients_[3];
     312:	18a4      	adds	r4, r4, r2
    return _receive;
}

void ConvertPressureTemperature(Barometer *my_barometer) {
    volatile const u16_t C1 = my_barometer->coefficients_[0];
    volatile const u16_t C2 = my_barometer->coefficients_[1];
     314:	80d3      	strh	r3, [r2, #6]
    volatile const u16_t C3 = my_barometer->coefficients_[2];
     316:	8883      	ldrh	r3, [r0, #4]
    return _receive;
}

void ConvertPressureTemperature(Barometer *my_barometer) {
    volatile const u16_t C1 = my_barometer->coefficients_[0];
    volatile const u16_t C2 = my_barometer->coefficients_[1];
     318:	1d95      	adds	r5, r2, #6
    volatile const u16_t C3 = my_barometer->coefficients_[2];
     31a:	8113      	strh	r3, [r2, #8]
    volatile const u16_t C4 = my_barometer->coefficients_[3];
     31c:	88c3      	ldrh	r3, [r0, #6]
     31e:	9401      	str	r4, [sp, #4]
     320:	8023      	strh	r3, [r4, #0]
    volatile const u16_t C5 = my_barometer->coefficients_[4];
     322:	8903      	ldrh	r3, [r0, #8]
     324:	aa07      	add	r2, sp, #28
     326:	8013      	strh	r3, [r2, #0]
    volatile const u16_t C6 = my_barometer->coefficients_[5];
     328:	230e      	movs	r3, #14

    u32_t _receive = (_byte1 << 16) | (_byte2 << 8) | (_byte3);
    return _receive;
}

void ConvertPressureTemperature(Barometer *my_barometer) {
     32a:	0007      	movs	r7, r0
    volatile const u16_t C1 = my_barometer->coefficients_[0];
    volatile const u16_t C2 = my_barometer->coefficients_[1];
    volatile const u16_t C3 = my_barometer->coefficients_[2];
    volatile const u16_t C4 = my_barometer->coefficients_[3];
    volatile const u16_t C5 = my_barometer->coefficients_[4];
    volatile const u16_t C6 = my_barometer->coefficients_[5];
     32c:	8941      	ldrh	r1, [r0, #10]
     32e:	a804      	add	r0, sp, #16
     330:	181b      	adds	r3, r3, r0
     332:	8019      	strh	r1, [r3, #0]

    // calculate 1st order pressure and temperature (MS5607 1st order algorithm)
    const  int32_t dT = (my_barometer->rawTempatureData) - ((int32_t)C5 << 8);
     334:	8816      	ldrh	r6, [r2, #0]
    my_barometer->temperatureCelcus  = 2000 + (((int64_t)dT * C6) >> 32) ;
     336:	693a      	ldr	r2, [r7, #16]
     338:	0236      	lsls	r6, r6, #8
     33a:	8818      	ldrh	r0, [r3, #0]
     33c:	1b96      	subs	r6, r2, r6
     33e:	17f2      	asrs	r2, r6, #31
     340:	4c2a      	ldr	r4, [pc, #168]	; (3ec <ConvertPressureTemperature+0xe8>)
     342:	9203      	str	r2, [sp, #12]
     344:	17f3      	asrs	r3, r6, #31
     346:	0032      	movs	r2, r6
     348:	b280      	uxth	r0, r0
     34a:	2100      	movs	r1, #0
     34c:	47a0      	blx	r4
     34e:	23fa      	movs	r3, #250	; 0xfa
     350:	00db      	lsls	r3, r3, #3
     352:	18c9      	adds	r1, r1, r3

    volatile const  int64_t OFF   = ((int64_t)C2 << 16) + (((C4 * (int64_t)dT)) >> 7);
     354:	882b      	ldrh	r3, [r5, #0]
    volatile const u16_t C5 = my_barometer->coefficients_[4];
    volatile const u16_t C6 = my_barometer->coefficients_[5];

    // calculate 1st order pressure and temperature (MS5607 1st order algorithm)
    const  int32_t dT = (my_barometer->rawTempatureData) - ((int32_t)C5 << 8);
    my_barometer->temperatureCelcus  = 2000 + (((int64_t)dT * C6) >> 32) ;
     356:	6179      	str	r1, [r7, #20]

    volatile const  int64_t OFF   = ((int64_t)C2 << 16) + (((C4 * (int64_t)dT)) >> 7);
     358:	b29b      	uxth	r3, r3
     35a:	9302      	str	r3, [sp, #8]
     35c:	9b01      	ldr	r3, [sp, #4]
     35e:	0032      	movs	r2, r6
     360:	8818      	ldrh	r0, [r3, #0]
     362:	2100      	movs	r1, #0
     364:	17f3      	asrs	r3, r6, #31
     366:	b280      	uxth	r0, r0
     368:	47a0      	blx	r4
     36a:	064b      	lsls	r3, r1, #25
     36c:	09c4      	lsrs	r4, r0, #7
     36e:	431c      	orrs	r4, r3
     370:	2300      	movs	r3, #0
     372:	11cd      	asrs	r5, r1, #7
     374:	9902      	ldr	r1, [sp, #8]
     376:	040a      	lsls	r2, r1, #16
     378:	1912      	adds	r2, r2, r4
     37a:	416b      	adcs	r3, r5
     37c:	9208      	str	r2, [sp, #32]
     37e:	9309      	str	r3, [sp, #36]	; 0x24
    volatile const  int64_t SENS  =  ((int64_t)C1 << 15) + (((C3 * (int64_t)dT)) >> 8);
     380:	ab04      	add	r3, sp, #16
     382:	889c      	ldrh	r4, [r3, #4]
     384:	8918      	ldrh	r0, [r3, #8]
     386:	0032      	movs	r2, r6
     388:	9b03      	ldr	r3, [sp, #12]
     38a:	4d18      	ldr	r5, [pc, #96]	; (3ec <ConvertPressureTemperature+0xe8>)
     38c:	b280      	uxth	r0, r0
     38e:	2100      	movs	r1, #0
     390:	47a8      	blx	r5
     392:	060b      	lsls	r3, r1, #24
     394:	0a05      	lsrs	r5, r0, #8
     396:	431d      	orrs	r5, r3
     398:	2300      	movs	r3, #0
     39a:	b2a4      	uxth	r4, r4
     39c:	120e      	asrs	r6, r1, #8
     39e:	03e2      	lsls	r2, r4, #15
     3a0:	1952      	adds	r2, r2, r5
     3a2:	4173      	adcs	r3, r6
     3a4:	920a      	str	r2, [sp, #40]	; 0x28
     3a6:	930b      	str	r3, [sp, #44]	; 0x2c
    my_barometer->pressureMbar = (((my_barometer->rawPressureData * SENS) / 2097152) - OFF) / 32768;
     3a8:	9a0a      	ldr	r2, [sp, #40]	; 0x28
     3aa:	9b0b      	ldr	r3, [sp, #44]	; 0x2c
     3ac:	9c08      	ldr	r4, [sp, #32]
     3ae:	9d09      	ldr	r5, [sp, #36]	; 0x24
     3b0:	4e0e      	ldr	r6, [pc, #56]	; (3ec <ConvertPressureTemperature+0xe8>)
     3b2:	68f8      	ldr	r0, [r7, #12]
     3b4:	2100      	movs	r1, #0
     3b6:	47b0      	blx	r6
     3b8:	2300      	movs	r3, #0
     3ba:	17ce      	asrs	r6, r1, #31
     3bc:	02f6      	lsls	r6, r6, #11
     3be:	0af2      	lsrs	r2, r6, #11
     3c0:	1880      	adds	r0, r0, r2
     3c2:	4159      	adcs	r1, r3
     3c4:	02ce      	lsls	r6, r1, #11
     3c6:	0d42      	lsrs	r2, r0, #21
     3c8:	4332      	orrs	r2, r6
     3ca:	154b      	asrs	r3, r1, #21
     3cc:	1b12      	subs	r2, r2, r4
     3ce:	41ab      	sbcs	r3, r5
     3d0:	2100      	movs	r1, #0
     3d2:	17dc      	asrs	r4, r3, #31
     3d4:	0464      	lsls	r4, r4, #17
     3d6:	0c60      	lsrs	r0, r4, #17
     3d8:	1812      	adds	r2, r2, r0
     3da:	414b      	adcs	r3, r1
     3dc:	0011      	movs	r1, r2
     3de:	045b      	lsls	r3, r3, #17
     3e0:	0bca      	lsrs	r2, r1, #15
     3e2:	431a      	orrs	r2, r3
     3e4:	61fa      	str	r2, [r7, #28]
}
     3e6:	b00d      	add	sp, #52	; 0x34
     3e8:	bdf0      	pop	{r4, r5, r6, r7, pc}
     3ea:	46c0      	nop			; (mov r8, r8)
     3ec:	000019d9 	.word	0x000019d9

000003f0 <pascalToCent>:
        748275, 767202, 786555, 806356, 826627,
        847395, 868688, 890537, 912974, 936037,
        959766, 984206
    };

    my_barometer->pressurePa = my_barometer->pressureMbar *10;
     3f0:	220a      	movs	r2, #10
     3f2:	69c3      	ldr	r3, [r0, #28]
    double altFeet = (1-pow((my_barometer->pressurePa/1013.25),(0.190284)))*145366.45;
    my_barometer->heightFeet = (float)altFeet;

}

void pascalToCent(Barometer *my_barometer) {
     3f4:	b570      	push	{r4, r5, r6, lr}
        748275, 767202, 786555, 806356, 826627,
        847395, 868688, 890537, 912974, 936037,
        959766, 984206
    };

    my_barometer->pressurePa = my_barometer->pressureMbar *10;
     3f6:	435a      	muls	r2, r3

    if (my_barometer->pressurePa > PA_INIT)
     3f8:	4c0e      	ldr	r4, [pc, #56]	; (434 <pascalToCent+0x44>)
        748275, 767202, 786555, 806356, 826627,
        847395, 868688, 890537, 912974, 936037,
        959766, 984206
    };

    my_barometer->pressurePa = my_barometer->pressureMbar *10;
     3fa:	6182      	str	r2, [r0, #24]

    if (my_barometer->pressurePa > PA_INIT)
     3fc:	42a2      	cmp	r2, r4
     3fe:	d901      	bls.n	404 <pascalToCent+0x14>
        my_barometer->heightCm = lookupTable[0];
     400:	4b0d      	ldr	r3, [pc, #52]	; (438 <pascalToCent+0x48>)
     402:	e015      	b.n	430 <pascalToCent+0x40>
    else {
        const int32_t inx = (PA_INIT - my_barometer->pressurePa) >> 10;
     404:	1aa3      	subs	r3, r4, r2
     406:	0a9b      	lsrs	r3, r3, #10
        if (inx >= PZLUT_ENTRIES - 1)
     408:	2b4b      	cmp	r3, #75	; 0x4b
     40a:	d901      	bls.n	410 <pascalToCent+0x20>
            my_barometer->heightCm = lookupTable[PZLUT_ENTRIES - 1];
     40c:	4b0b      	ldr	r3, [pc, #44]	; (43c <pascalToCent+0x4c>)
     40e:	e00f      	b.n	430 <pascalToCent+0x40>
        else {
            const int32_t pa1 = PA_INIT - (inx << 10);
            const int32_t z1 = lookupTable[inx];
     410:	4d0b      	ldr	r5, [pc, #44]	; (440 <pascalToCent+0x50>)
     412:	0099      	lsls	r1, r3, #2
            const int32_t z2 = lookupTable[inx + 1];
            my_barometer->heightCm = (z1 + (((pa1 - my_barometer->pressurePa) * (z2 - z1)) >> 10));
     414:	029e      	lsls	r6, r3, #10
        if (inx >= PZLUT_ENTRIES - 1)
            my_barometer->heightCm = lookupTable[PZLUT_ENTRIES - 1];
        else {
            const int32_t pa1 = PA_INIT - (inx << 10);
            const int32_t z1 = lookupTable[inx];
            const int32_t z2 = lookupTable[inx + 1];
     416:	3301      	adds	r3, #1
     418:	009b      	lsls	r3, r3, #2
     41a:	18eb      	adds	r3, r5, r3
        const int32_t inx = (PA_INIT - my_barometer->pressurePa) >> 10;
        if (inx >= PZLUT_ENTRIES - 1)
            my_barometer->heightCm = lookupTable[PZLUT_ENTRIES - 1];
        else {
            const int32_t pa1 = PA_INIT - (inx << 10);
            const int32_t z1 = lookupTable[inx];
     41c:	1869      	adds	r1, r5, r1
            const int32_t z2 = lookupTable[inx + 1];
            my_barometer->heightCm = (z1 + (((pa1 - my_barometer->pressurePa) * (z2 - z1)) >> 10));
     41e:	1ba4      	subs	r4, r4, r6
        const int32_t inx = (PA_INIT - my_barometer->pressurePa) >> 10;
        if (inx >= PZLUT_ENTRIES - 1)
            my_barometer->heightCm = lookupTable[PZLUT_ENTRIES - 1];
        else {
            const int32_t pa1 = PA_INIT - (inx << 10);
            const int32_t z1 = lookupTable[inx];
     420:	6909      	ldr	r1, [r1, #16]
            const int32_t z2 = lookupTable[inx + 1];
            my_barometer->heightCm = (z1 + (((pa1 - my_barometer->pressurePa) * (z2 - z1)) >> 10));
     422:	1aa4      	subs	r4, r4, r2
     424:	691a      	ldr	r2, [r3, #16]
     426:	1a52      	subs	r2, r2, r1
     428:	0013      	movs	r3, r2
     42a:	4363      	muls	r3, r4
     42c:	0a9b      	lsrs	r3, r3, #10
     42e:	185b      	adds	r3, r3, r1
     430:	6203      	str	r3, [r0, #32]
        }
    }
}
     432:	bd70      	pop	{r4, r5, r6, pc}
     434:	000199cc 	.word	0x000199cc
     438:	ffff8d20 	.word	0xffff8d20
     43c:	000f048e 	.word	0x000f048e
     440:	000033dc 	.word	0x000033dc

00000444 <readMS5803Coefficients>:

void readMS5803Coefficients(Barometer *my_barometer) {
     444:	b5f0      	push	{r4, r5, r6, r7, lr}
     446:	27a2      	movs	r7, #162	; 0xa2
     448:	b087      	sub	sp, #28
     44a:	9002      	str	r0, [sp, #8]

    u8_t dummy_tx = 0xFF;
    u8_t dummy_rx;

    for (u8_t coeff_num = 0; coeff_num < 6 ; ++coeff_num ) {
        delay_us(600);
     44c:	2096      	movs	r0, #150	; 0x96
     44e:	4c2b      	ldr	r4, [pc, #172]	; (4fc <readMS5803Coefficients+0xb8>)
     450:	0080      	lsls	r0, r0, #2
     452:	47a0      	blx	r4
        u8_t _cmd = MS5803_CMD_PROM_READ + ((coeff_num+1)*2);
        delay_us(600);
     454:	2096      	movs	r0, #150	; 0x96
     456:	0080      	lsls	r0, r0, #2
     458:	47a0      	blx	r4
}


inline static void pinLow(Pin p) {
    PORT->Group[p.group].OUTCLR.reg = (1<<p.pin);
     45a:	2280      	movs	r2, #128	; 0x80
        pinLow(cs_baro);
//      dummy_rx = spiDataTransfer(SPI1, _cmd);
//      u8_t _byte1 = spiDataTransfer(SPI1,dummy_tx);
//      u8_t _byte2 = spiDataTransfer(SPI1,dummy_tx);
        byteOut(spi2SCK,spi2MOSI, _cmd);
     45c:	4c28      	ldr	r4, [pc, #160]	; (500 <readMS5803Coefficients+0xbc>)
     45e:	4b29      	ldr	r3, [pc, #164]	; (504 <readMS5803Coefficients+0xc0>)
     460:	0212      	lsls	r2, r2, #8
     462:	615a      	str	r2, [r3, #20]
     464:	7863      	ldrb	r3, [r4, #1]
     466:	7820      	ldrb	r0, [r4, #0]
     468:	78a2      	ldrb	r2, [r4, #2]
     46a:	021b      	lsls	r3, r3, #8
     46c:	4303      	orrs	r3, r0
     46e:	0412      	lsls	r2, r2, #16
     470:	0019      	movs	r1, r3
     472:	0013      	movs	r3, r2
     474:	430b      	orrs	r3, r1
     476:	79a1      	ldrb	r1, [r4, #6]
     478:	7966      	ldrb	r6, [r4, #5]
     47a:	0209      	lsls	r1, r1, #8
     47c:	4331      	orrs	r1, r6
     47e:	0008      	movs	r0, r1
     480:	79e1      	ldrb	r1, [r4, #7]
     482:	78e2      	ldrb	r2, [r4, #3]
     484:	0409      	lsls	r1, r1, #16
     486:	4301      	orrs	r1, r0
     488:	7a20      	ldrb	r0, [r4, #8]
     48a:	7a66      	ldrb	r6, [r4, #9]
     48c:	0612      	lsls	r2, r2, #24
     48e:	0600      	lsls	r0, r0, #24
     490:	4308      	orrs	r0, r1
     492:	431a      	orrs	r2, r3
     494:	9700      	str	r7, [sp, #0]
     496:	7923      	ldrb	r3, [r4, #4]
     498:	0031      	movs	r1, r6
     49a:	4d1b      	ldr	r5, [pc, #108]	; (508 <readMS5803Coefficients+0xc4>)
     49c:	9003      	str	r0, [sp, #12]
     49e:	47a8      	blx	r5
        u8_t _byte1 = byteIn(spi2SCK,spi2MISO);
     4a0:	7ae3      	ldrb	r3, [r4, #11]
     4a2:	0020      	movs	r0, r4
     4a4:	7aa1      	ldrb	r1, [r4, #10]
     4a6:	7b24      	ldrb	r4, [r4, #12]
     4a8:	021b      	lsls	r3, r3, #8
     4aa:	430b      	orrs	r3, r1
     4ac:	0424      	lsls	r4, r4, #16
     4ae:	001a      	movs	r2, r3
     4b0:	0023      	movs	r3, r4
     4b2:	7b44      	ldrb	r4, [r0, #13]
     4b4:	7b85      	ldrb	r5, [r0, #14]
     4b6:	4313      	orrs	r3, r2
     4b8:	0624      	lsls	r4, r4, #24
     4ba:	431c      	orrs	r4, r3
     4bc:	0022      	movs	r2, r4
     4be:	002b      	movs	r3, r5
     4c0:	9404      	str	r4, [sp, #16]
     4c2:	0031      	movs	r1, r6
     4c4:	4c11      	ldr	r4, [pc, #68]	; (50c <readMS5803Coefficients+0xc8>)
     4c6:	9803      	ldr	r0, [sp, #12]
     4c8:	47a0      	blx	r4
        u8_t _byte2 = byteIn(spi2SCK,spi2MISO);
     4ca:	002b      	movs	r3, r5
        pinLow(cs_baro);
//      dummy_rx = spiDataTransfer(SPI1, _cmd);
//      u8_t _byte1 = spiDataTransfer(SPI1,dummy_tx);
//      u8_t _byte2 = spiDataTransfer(SPI1,dummy_tx);
        byteOut(spi2SCK,spi2MOSI, _cmd);
        u8_t _byte1 = byteIn(spi2SCK,spi2MISO);
     4cc:	9005      	str	r0, [sp, #20]
        u8_t _byte2 = byteIn(spi2SCK,spi2MISO);
     4ce:	9a04      	ldr	r2, [sp, #16]
     4d0:	9803      	ldr	r0, [sp, #12]
     4d2:	0031      	movs	r1, r6
     4d4:	4c0d      	ldr	r4, [pc, #52]	; (50c <readMS5803Coefficients+0xc8>)
     4d6:	47a0      	blx	r4
    pinGpio(p);
    PORT->Group[p.group].DIRSET.reg = (1<<p.pin);
}

inline static void pinHigh(Pin p) {
    PORT->Group[p.group].OUTSET.reg = (1<<p.pin);
     4d8:	2280      	movs	r2, #128	; 0x80
     4da:	4b0a      	ldr	r3, [pc, #40]	; (504 <readMS5803Coefficients+0xc0>)
     4dc:	0212      	lsls	r2, r2, #8
     4de:	619a      	str	r2, [r3, #24]
        pinHigh(cs_baro);
        my_barometer->coefficients_[coeff_num] = (_byte1 << 8) | _byte2;
     4e0:	9b05      	ldr	r3, [sp, #20]
     4e2:	021d      	lsls	r5, r3, #8
     4e4:	9b02      	ldr	r3, [sp, #8]
     4e6:	4328      	orrs	r0, r5
     4e8:	8018      	strh	r0, [r3, #0]
     4ea:	1cbb      	adds	r3, r7, #2
     4ec:	b2df      	uxtb	r7, r3
     4ee:	9b02      	ldr	r3, [sp, #8]
     4f0:	3302      	adds	r3, #2
     4f2:	9302      	str	r3, [sp, #8]
void readMS5803Coefficients(Barometer *my_barometer) {

    u8_t dummy_tx = 0xFF;
    u8_t dummy_rx;

    for (u8_t coeff_num = 0; coeff_num < 6 ; ++coeff_num ) {
     4f4:	2fae      	cmp	r7, #174	; 0xae
     4f6:	d1a9      	bne.n	44c <readMS5803Coefficients+0x8>
        u8_t _byte2 = byteIn(spi2SCK,spi2MISO);
        pinHigh(cs_baro);
        my_barometer->coefficients_[coeff_num] = (_byte1 << 8) | _byte2;
    }

}
     4f8:	b007      	add	sp, #28
     4fa:	bdf0      	pop	{r4, r5, r6, r7, pc}
     4fc:	00000e71 	.word	0x00000e71
     500:	000033dc 	.word	0x000033dc
     504:	41004400 	.word	0x41004400
     508:	00000c01 	.word	0x00000c01
     50c:	00000c6d 	.word	0x00000c6d

00000510 <initMS5803Barometer>:

void initMS5803Barometer(Barometer *my_barometer) {
     510:	b5f7      	push	{r0, r1, r2, r4, r5, r6, r7, lr}
}


inline static void pinLow(Pin p) {
    PORT->Group[p.group].OUTCLR.reg = (1<<p.pin);
     512:	2680      	movs	r6, #128	; 0x80
    u8_t dummy_tx = 0xFF;
    u8_t dummy_rx;

    pinLow(cs_baro);
//   dummy_rx = spiDataTransfer(SPI1, MS5803_CMD_RES);
    byteOut(spi2SCK,spi2MOSI, MS5803_CMD_RES);
     514:	231e      	movs	r3, #30
     516:	491a      	ldr	r1, [pc, #104]	; (580 <initMS5803Barometer+0x70>)
     518:	4d1a      	ldr	r5, [pc, #104]	; (584 <initMS5803Barometer+0x74>)
     51a:	0236      	lsls	r6, r6, #8
     51c:	616e      	str	r6, [r5, #20]
     51e:	9300      	str	r3, [sp, #0]
     520:	784b      	ldrb	r3, [r1, #1]
     522:	780a      	ldrb	r2, [r1, #0]
     524:	021b      	lsls	r3, r3, #8
     526:	4313      	orrs	r3, r2
     528:	788a      	ldrb	r2, [r1, #2]
        my_barometer->coefficients_[coeff_num] = (_byte1 << 8) | _byte2;
    }

}

void initMS5803Barometer(Barometer *my_barometer) {
     52a:	0004      	movs	r4, r0
    u8_t dummy_tx = 0xFF;
    u8_t dummy_rx;

    pinLow(cs_baro);
//   dummy_rx = spiDataTransfer(SPI1, MS5803_CMD_RES);
    byteOut(spi2SCK,spi2MOSI, MS5803_CMD_RES);
     52c:	0412      	lsls	r2, r2, #16
     52e:	0018      	movs	r0, r3
     530:	0013      	movs	r3, r2
     532:	78ca      	ldrb	r2, [r1, #3]
     534:	4303      	orrs	r3, r0
     536:	0612      	lsls	r2, r2, #24
     538:	1d4f      	adds	r7, r1, #5
     53a:	431a      	orrs	r2, r3
     53c:	7948      	ldrb	r0, [r1, #5]
     53e:	790b      	ldrb	r3, [r1, #4]
     540:	7989      	ldrb	r1, [r1, #6]
     542:	0209      	lsls	r1, r1, #8
     544:	4301      	orrs	r1, r0
     546:	78b8      	ldrb	r0, [r7, #2]
     548:	0400      	lsls	r0, r0, #16
     54a:	4301      	orrs	r1, r0
     54c:	78f8      	ldrb	r0, [r7, #3]
     54e:	0600      	lsls	r0, r0, #24
     550:	4308      	orrs	r0, r1
     552:	7939      	ldrb	r1, [r7, #4]
     554:	4f0c      	ldr	r7, [pc, #48]	; (588 <initMS5803Barometer+0x78>)
     556:	47b8      	blx	r7
    pinGpio(p);
    PORT->Group[p.group].DIRSET.reg = (1<<p.pin);
}

inline static void pinHigh(Pin p) {
    PORT->Group[p.group].OUTSET.reg = (1<<p.pin);
     558:	61ae      	str	r6, [r5, #24]
    pinHigh(cs_baro);
    delay_ms(200);
     55a:	20c8      	movs	r0, #200	; 0xc8
     55c:	4b0b      	ldr	r3, [pc, #44]	; (58c <initMS5803Barometer+0x7c>)
     55e:	4798      	blx	r3
    readMS5803Coefficients(my_barometer);
     560:	0020      	movs	r0, r4
     562:	4b0b      	ldr	r3, [pc, #44]	; (590 <initMS5803Barometer+0x80>)
     564:	4798      	blx	r3

    my_barometer->heightCm = 4000;
     566:	23fa      	movs	r3, #250	; 0xfa
     568:	011b      	lsls	r3, r3, #4
     56a:	6223      	str	r3, [r4, #32]
    my_barometer->pressurePa = 10000;
     56c:	4b09      	ldr	r3, [pc, #36]	; (594 <initMS5803Barometer+0x84>)
     56e:	61a3      	str	r3, [r4, #24]
    my_barometer->rawPressureData = 4311550;
     570:	4b09      	ldr	r3, [pc, #36]	; (598 <initMS5803Barometer+0x88>)
     572:	60e3      	str	r3, [r4, #12]
    my_barometer->rawTempatureData = 8387300;
     574:	4b09      	ldr	r3, [pc, #36]	; (59c <initMS5803Barometer+0x8c>)
     576:	6123      	str	r3, [r4, #16]
    my_barometer->temperatureCelcus = 2000;
     578:	23fa      	movs	r3, #250	; 0xfa
     57a:	00db      	lsls	r3, r3, #3
     57c:	6163      	str	r3, [r4, #20]




}
     57e:	bdf7      	pop	{r0, r1, r2, r4, r5, r6, r7, pc}
     580:	000033dc 	.word	0x000033dc
     584:	41004400 	.word	0x41004400
     588:	00000c01 	.word	0x00000c01
     58c:	00000ea1 	.word	0x00000ea1
     590:	00000445 	.word	0x00000445
     594:	00002710 	.word	0x00002710
     598:	0041c9fe 	.word	0x0041c9fe
     59c:	007ffae4 	.word	0x007ffae4

000005a0 <init>:
#include <util.h>
#include <boardDefines.h>
#include "math.h"


void init() {
     5a0:	b5f0      	push	{r4, r5, r6, r7, lr}
    SystemInit();
     5a2:	4bbf      	ldr	r3, [pc, #764]	; (8a0 <init+0x300>)
#include <util.h>
#include <boardDefines.h>
#include "math.h"


void init() {
     5a4:	b085      	sub	sp, #20
    SystemInit();
     5a6:	4798      	blx	r3
    GclkInit();
     5a8:	4bbe      	ldr	r3, [pc, #760]	; (8a4 <init+0x304>)
     5aa:	4798      	blx	r3
    RtcInit();
     5ac:	4bbe      	ldr	r3, [pc, #760]	; (8a8 <init+0x308>)
     5ae:	4798      	blx	r3
    delayInit();
     5b0:	4bbe      	ldr	r3, [pc, #760]	; (8ac <init+0x30c>)
     5b2:	4798      	blx	r3
    adcInit();
     5b4:	4bbe      	ldr	r3, [pc, #760]	; (8b0 <init+0x310>)
     5b6:	4798      	blx	r3
    dmaInit();
     5b8:	4bbe      	ldr	r3, [pc, #760]	; (8b4 <init+0x314>)
     5ba:	4798      	blx	r3

    \param [in]      IRQn  External interrupt number. Value cannot be negative.
 */
__STATIC_INLINE void NVIC_EnableIRQ(IRQn_Type IRQn)
{
  NVIC->ISER[0] = (1 << ((uint32_t)(IRQn) & 0x1F));
     5bc:	2240      	movs	r2, #64	; 0x40
{
  if(IRQn < 0) {
    SCB->SHP[_SHP_IDX(IRQn)] = (SCB->SHP[_SHP_IDX(IRQn)] & ~(0xFF << _BIT_SHIFT(IRQn))) |
        (((priority << (8 - __NVIC_PRIO_BITS)) & 0xFF) << _BIT_SHIFT(IRQn)); }
  else {
    NVIC->IP[_IP_IDX(IRQn)] = (NVIC->IP[_IP_IDX(IRQn)] & ~(0xFF << _BIT_SHIFT(IRQn))) |
     5be:	21c1      	movs	r1, #193	; 0xc1

    \param [in]      IRQn  External interrupt number. Value cannot be negative.
 */
__STATIC_INLINE void NVIC_EnableIRQ(IRQn_Type IRQn)
{
  NVIC->ISER[0] = (1 << ((uint32_t)(IRQn) & 0x1F));
     5c0:	4bbd      	ldr	r3, [pc, #756]	; (8b8 <init+0x318>)
{
  if(IRQn < 0) {
    SCB->SHP[_SHP_IDX(IRQn)] = (SCB->SHP[_SHP_IDX(IRQn)] & ~(0xFF << _BIT_SHIFT(IRQn))) |
        (((priority << (8 - __NVIC_PRIO_BITS)) & 0xFF) << _BIT_SHIFT(IRQn)); }
  else {
    NVIC->IP[_IP_IDX(IRQn)] = (NVIC->IP[_IP_IDX(IRQn)] & ~(0xFF << _BIT_SHIFT(IRQn))) |
     5c2:	0089      	lsls	r1, r1, #2

    \param [in]      IRQn  External interrupt number. Value cannot be negative.
 */
__STATIC_INLINE void NVIC_EnableIRQ(IRQn_Type IRQn)
{
  NVIC->ISER[0] = (1 << ((uint32_t)(IRQn) & 0x1F));
     5c4:	601a      	str	r2, [r3, #0]
{
  if(IRQn < 0) {
    SCB->SHP[_SHP_IDX(IRQn)] = (SCB->SHP[_SHP_IDX(IRQn)] & ~(0xFF << _BIT_SHIFT(IRQn))) |
        (((priority << (8 - __NVIC_PRIO_BITS)) & 0xFF) << _BIT_SHIFT(IRQn)); }
  else {
    NVIC->IP[_IP_IDX(IRQn)] = (NVIC->IP[_IP_IDX(IRQn)] & ~(0xFF << _BIT_SHIFT(IRQn))) |
     5c6:	5858      	ldr	r0, [r3, r1]
     5c8:	4abc      	ldr	r2, [pc, #752]	; (8bc <init+0x31c>)
    PORT->Group[p.group].PINCFG[p.pin].bit.PMUXEN = 1;
}


inline static void pinGpio(Pin p) {
    PORT->Group[p.group].PINCFG[p.pin].bit.PMUXEN = 0;
     5ca:	2401      	movs	r4, #1
     5cc:	4002      	ands	r2, r0
     5ce:	505a      	str	r2, [r3, r1]
     5d0:	4bbb      	ldr	r3, [pc, #748]	; (8c0 <init+0x320>)

} _sercomPort;

inline static void pinAnalog(Pin p) {
    if (p.pin & 1) {
        PORT->Group[p.group].PMUX[p.pin/2].bit.PMUXO = 0x1;
     5d2:	2510      	movs	r5, #16
    PORT->Group[p.group].PINCFG[p.pin].bit.PMUXEN = 1;
}


inline static void pinGpio(Pin p) {
    PORT->Group[p.group].PINCFG[p.pin].bit.PMUXEN = 0;
     5d4:	0019      	movs	r1, r3
     5d6:	3154      	adds	r1, #84	; 0x54
     5d8:	780a      	ldrb	r2, [r1, #0]

inline static void pinAnalog(Pin p) {
    if (p.pin & 1) {
        PORT->Group[p.group].PMUX[p.pin/2].bit.PMUXO = 0x1;
    } else {
        PORT->Group[p.group].PMUX[p.pin/2].bit.PMUXE = 0x1;
     5da:	0018      	movs	r0, r3
    PORT->Group[p.group].PINCFG[p.pin].bit.PMUXEN = 1;
}


inline static void pinGpio(Pin p) {
    PORT->Group[p.group].PINCFG[p.pin].bit.PMUXEN = 0;
     5dc:	43a2      	bics	r2, r4
     5de:	700a      	strb	r2, [r1, #0]
}


inline static void pinOut(Pin p) {
    pinGpio(p);
    PORT->Group[p.group].DIRSET.reg = (1<<p.pin);
     5e0:	2280      	movs	r2, #128	; 0x80
     5e2:	0352      	lsls	r2, r2, #13
     5e4:	609a      	str	r2, [r3, #8]

inline static void pinAnalog(Pin p) {
    if (p.pin & 1) {
        PORT->Group[p.group].PMUX[p.pin/2].bit.PMUXO = 0x1;
    } else {
        PORT->Group[p.group].PMUX[p.pin/2].bit.PMUXE = 0x1;
     5e6:	220f      	movs	r2, #15
     5e8:	3033      	adds	r0, #51	; 0x33
     5ea:	7801      	ldrb	r1, [r0, #0]
    }

    PORT->Group[p.group].PINCFG[p.pin].bit.PMUXEN = 1;
     5ec:	001e      	movs	r6, r3

inline static void pinAnalog(Pin p) {
    if (p.pin & 1) {
        PORT->Group[p.group].PMUX[p.pin/2].bit.PMUXO = 0x1;
    } else {
        PORT->Group[p.group].PMUX[p.pin/2].bit.PMUXE = 0x1;
     5ee:	4391      	bics	r1, r2
     5f0:	4321      	orrs	r1, r4
     5f2:	7001      	strb	r1, [r0, #0]
    }

    PORT->Group[p.group].PINCFG[p.pin].bit.PMUXEN = 1;
     5f4:	7cc1      	ldrb	r1, [r0, #19]
     5f6:	36c3      	adds	r6, #195	; 0xc3
     5f8:	4321      	orrs	r1, r4
     5fa:	74c1      	strb	r1, [r0, #19]

} _sercomPort;

inline static void pinAnalog(Pin p) {
    if (p.pin & 1) {
        PORT->Group[p.group].PMUX[p.pin/2].bit.PMUXO = 0x1;
     5fc:	0019      	movs	r1, r3
     5fe:	31b1      	adds	r1, #177	; 0xb1
     600:	7808      	ldrb	r0, [r1, #0]
}


inline static void pinOut(Pin p) {
    pinGpio(p);
    PORT->Group[p.group].DIRSET.reg = (1<<p.pin);
     602:	001f      	movs	r7, r3

} _sercomPort;

inline static void pinAnalog(Pin p) {
    if (p.pin & 1) {
        PORT->Group[p.group].PMUX[p.pin/2].bit.PMUXO = 0x1;
     604:	4010      	ands	r0, r2
     606:	4328      	orrs	r0, r5
     608:	7008      	strb	r0, [r1, #0]
    } else {
        PORT->Group[p.group].PMUX[p.pin/2].bit.PMUXE = 0x1;
    }

    PORT->Group[p.group].PINCFG[p.pin].bit.PMUXEN = 1;
     60a:	7830      	ldrb	r0, [r6, #0]
}


inline static void pinOut(Pin p) {
    pinGpio(p);
    PORT->Group[p.group].DIRSET.reg = (1<<p.pin);
     60c:	3788      	adds	r7, #136	; 0x88
        PORT->Group[p.group].PMUX[p.pin/2].bit.PMUXO = 0x1;
    } else {
        PORT->Group[p.group].PMUX[p.pin/2].bit.PMUXE = 0x1;
    }

    PORT->Group[p.group].PINCFG[p.pin].bit.PMUXEN = 1;
     60e:	4320      	orrs	r0, r4
     610:	7030      	strb	r0, [r6, #0]
    return (PORT->Group[p.group].IN.reg & (1<<p.pin)) != 0;
}

inline static void pinMux(Pin p) {
    if (p.pin & 1) {
        PORT->Group[p.group].PMUX[p.pin/2].bit.PMUXO = p.mux;
     612:	7808      	ldrb	r0, [r1, #0]
     614:	4010      	ands	r0, r2
     616:	4328      	orrs	r0, r5
     618:	7008      	strb	r0, [r1, #0]
    } else {
        PORT->Group[p.group].PMUX[p.pin/2].bit.PMUXE = p.mux;
    }
    PORT->Group[p.group].PINCFG[p.pin].bit.PMUXEN = 1;
     61a:	7830      	ldrb	r0, [r6, #0]
     61c:	4320      	orrs	r0, r4
     61e:	7030      	strb	r0, [r6, #0]
}


inline static void pinGpio(Pin p) {
    PORT->Group[p.group].PINCFG[p.pin].bit.PMUXEN = 0;
     620:	7d30      	ldrb	r0, [r6, #20]
     622:	43a0      	bics	r0, r4
     624:	7530      	strb	r0, [r6, #20]
}


inline static void pinOut(Pin p) {
    pinGpio(p);
    PORT->Group[p.group].DIRSET.reg = (1<<p.pin);
     626:	2080      	movs	r0, #128	; 0x80
     628:	0400      	lsls	r0, r0, #16
     62a:	9703      	str	r7, [sp, #12]
     62c:	6038      	str	r0, [r7, #0]
    PORT->Group[p.group].OUTSET.reg = (1<<p.pin);
}


inline static void pinLow(Pin p) {
    PORT->Group[p.group].OUTCLR.reg = (1<<p.pin);
     62e:	60f8      	str	r0, [r7, #12]

inline static void pinAnalog(Pin p) {
    if (p.pin & 1) {
        PORT->Group[p.group].PMUX[p.pin/2].bit.PMUXO = 0x1;
    } else {
        PORT->Group[p.group].PMUX[p.pin/2].bit.PMUXE = 0x1;
     630:	7808      	ldrb	r0, [r1, #0]
}


inline static void pinOut(Pin p) {
    pinGpio(p);
    PORT->Group[p.group].DIRSET.reg = (1<<p.pin);
     632:	003e      	movs	r6, r7

inline static void pinAnalog(Pin p) {
    if (p.pin & 1) {
        PORT->Group[p.group].PMUX[p.pin/2].bit.PMUXO = 0x1;
    } else {
        PORT->Group[p.group].PMUX[p.pin/2].bit.PMUXE = 0x1;
     634:	4390      	bics	r0, r2
     636:	4320      	orrs	r0, r4
     638:	7008      	strb	r0, [r1, #0]
    }

    PORT->Group[p.group].PINCFG[p.pin].bit.PMUXEN = 1;
     63a:	20c2      	movs	r0, #194	; 0xc2
     63c:	4684      	mov	ip, r0
     63e:	449c      	add	ip, r3
     640:	4660      	mov	r0, ip
     642:	4667      	mov	r7, ip
     644:	7800      	ldrb	r0, [r0, #0]
     646:	4320      	orrs	r0, r4
     648:	7038      	strb	r0, [r7, #0]

inline static void pinMux(Pin p) {
    if (p.pin & 1) {
        PORT->Group[p.group].PMUX[p.pin/2].bit.PMUXO = p.mux;
    } else {
        PORT->Group[p.group].PMUX[p.pin/2].bit.PMUXE = p.mux;
     64a:	7808      	ldrb	r0, [r1, #0]
     64c:	4390      	bics	r0, r2
     64e:	4320      	orrs	r0, r4
     650:	7008      	strb	r0, [r1, #0]
    PORT->Group[p.group].PINCFG[p.pin].bit.PMUXEN = 1;
}


inline static void pinGpio(Pin p) {
    PORT->Group[p.group].PINCFG[p.pin].bit.PMUXEN = 0;
     652:	0018      	movs	r0, r3
    if (p.pin & 1) {
        PORT->Group[p.group].PMUX[p.pin/2].bit.PMUXO = p.mux;
    } else {
        PORT->Group[p.group].PMUX[p.pin/2].bit.PMUXE = p.mux;
    }
    PORT->Group[p.group].PINCFG[p.pin].bit.PMUXEN = 1;
     654:	7839      	ldrb	r1, [r7, #0]
}


inline static void pinGpio(Pin p) {
    PORT->Group[p.group].PINCFG[p.pin].bit.PMUXEN = 0;
     656:	30d6      	adds	r0, #214	; 0xd6
    if (p.pin & 1) {
        PORT->Group[p.group].PMUX[p.pin/2].bit.PMUXO = p.mux;
    } else {
        PORT->Group[p.group].PMUX[p.pin/2].bit.PMUXE = p.mux;
    }
    PORT->Group[p.group].PINCFG[p.pin].bit.PMUXEN = 1;
     658:	4321      	orrs	r1, r4
     65a:	7039      	strb	r1, [r7, #0]
}


inline static void pinGpio(Pin p) {
    PORT->Group[p.group].PINCFG[p.pin].bit.PMUXEN = 0;
     65c:	7801      	ldrb	r1, [r0, #0]
}


inline static void pinIn(Pin p) {
    pinGpio(p);
    PORT->Group[p.group].PINCFG[p.pin].bit.INEN = 1;
     65e:	2702      	movs	r7, #2
    PORT->Group[p.group].PINCFG[p.pin].bit.PMUXEN = 1;
}


inline static void pinGpio(Pin p) {
    PORT->Group[p.group].PINCFG[p.pin].bit.PMUXEN = 0;
     660:	43a1      	bics	r1, r4
     662:	7001      	strb	r1, [r0, #0]
}


inline static void pinOut(Pin p) {
    pinGpio(p);
    PORT->Group[p.group].DIRSET.reg = (1<<p.pin);
     664:	2180      	movs	r1, #128	; 0x80
     666:	9803      	ldr	r0, [sp, #12]
     668:	03c9      	lsls	r1, r1, #15
     66a:	6001      	str	r1, [r0, #0]

} _sercomPort;

inline static void pinAnalog(Pin p) {
    if (p.pin & 1) {
        PORT->Group[p.group].PMUX[p.pin/2].bit.PMUXO = 0x1;
     66c:	0018      	movs	r0, r3
    PORT->Group[p.group].OUTSET.reg = (1<<p.pin);
}


inline static void pinLow(Pin p) {
    PORT->Group[p.group].OUTCLR.reg = (1<<p.pin);
     66e:	60f1      	str	r1, [r6, #12]

} _sercomPort;

inline static void pinAnalog(Pin p) {
    if (p.pin & 1) {
        PORT->Group[p.group].PMUX[p.pin/2].bit.PMUXO = 0x1;
     670:	3031      	adds	r0, #49	; 0x31
     672:	7801      	ldrb	r1, [r0, #0]
    PORT->Group[p.group].PINCFG[p.pin].bit.PMUXEN = 1;
}


inline static void pinGpio(Pin p) {
    PORT->Group[p.group].PINCFG[p.pin].bit.PMUXEN = 0;
     674:	3e3f      	subs	r6, #63	; 0x3f

} _sercomPort;

inline static void pinAnalog(Pin p) {
    if (p.pin & 1) {
        PORT->Group[p.group].PMUX[p.pin/2].bit.PMUXO = 0x1;
     676:	4011      	ands	r1, r2
     678:	430d      	orrs	r5, r1
     67a:	7005      	strb	r5, [r0, #0]
    } else {
        PORT->Group[p.group].PMUX[p.pin/2].bit.PMUXE = 0x1;
    }

    PORT->Group[p.group].PINCFG[p.pin].bit.PMUXEN = 1;
     67c:	001d      	movs	r5, r3
     67e:	3543      	adds	r5, #67	; 0x43
     680:	7829      	ldrb	r1, [r5, #0]
}


inline static void pinIn(Pin p) {
    pinGpio(p);
    PORT->Group[p.group].PINCFG[p.pin].bit.INEN = 1;
     682:	46bc      	mov	ip, r7
        PORT->Group[p.group].PMUX[p.pin/2].bit.PMUXO = 0x1;
    } else {
        PORT->Group[p.group].PMUX[p.pin/2].bit.PMUXE = 0x1;
    }

    PORT->Group[p.group].PINCFG[p.pin].bit.PMUXEN = 1;
     684:	4321      	orrs	r1, r4
     686:	7029      	strb	r1, [r5, #0]
    PORT->Group[p.group].PINCFG[p.pin].bit.PMUXEN = 1;
}


inline static void pinGpio(Pin p) {
    PORT->Group[p.group].PINCFG[p.pin].bit.PMUXEN = 0;
     688:	7da9      	ldrb	r1, [r5, #22]
     68a:	3505      	adds	r5, #5
     68c:	43a1      	bics	r1, r4
     68e:	7469      	strb	r1, [r5, #17]
}


inline static void pinOut(Pin p) {
    pinGpio(p);
    PORT->Group[p.group].DIRSET.reg = (1<<p.pin);
     690:	2180      	movs	r1, #128	; 0x80
     692:	0489      	lsls	r1, r1, #18
     694:	6099      	str	r1, [r3, #8]
    PORT->Group[p.group].OUTSET.reg = (1<<p.pin);
}


inline static void pinLow(Pin p) {
    PORT->Group[p.group].OUTCLR.reg = (1<<p.pin);
     696:	6159      	str	r1, [r3, #20]

inline static void pinAnalog(Pin p) {
    if (p.pin & 1) {
        PORT->Group[p.group].PMUX[p.pin/2].bit.PMUXO = 0x1;
    } else {
        PORT->Group[p.group].PMUX[p.pin/2].bit.PMUXE = 0x1;
     698:	7801      	ldrb	r1, [r0, #0]
     69a:	4391      	bics	r1, r2
     69c:	4321      	orrs	r1, r4
     69e:	7001      	strb	r1, [r0, #0]
    }

    PORT->Group[p.group].PINCFG[p.pin].bit.PMUXEN = 1;
     6a0:	7c41      	ldrb	r1, [r0, #17]
     6a2:	3011      	adds	r0, #17
     6a4:	4321      	orrs	r1, r4
     6a6:	7001      	strb	r1, [r0, #0]
    PORT->Group[p.group].PINCFG[p.pin].bit.PMUXEN = 1;
}


inline static void pinGpio(Pin p) {
    PORT->Group[p.group].PINCFG[p.pin].bit.PMUXEN = 0;
     6a8:	7d81      	ldrb	r1, [r0, #22]
     6aa:	43a1      	bics	r1, r4
     6ac:	7581      	strb	r1, [r0, #22]
}


inline static void pinOut(Pin p) {
    pinGpio(p);
    PORT->Group[p.group].DIRSET.reg = (1<<p.pin);
     6ae:	2180      	movs	r1, #128	; 0x80
     6b0:	0449      	lsls	r1, r1, #17
     6b2:	6099      	str	r1, [r3, #8]
    PORT->Group[p.group].OUTSET.reg = (1<<p.pin);
}


inline static void pinLow(Pin p) {
    PORT->Group[p.group].OUTCLR.reg = (1<<p.pin);
     6b4:	6159      	str	r1, [r3, #20]
    PORT->Group[p.group].PINCFG[p.pin].bit.PMUXEN = 1;
}


inline static void pinGpio(Pin p) {
    PORT->Group[p.group].PINCFG[p.pin].bit.PMUXEN = 0;
     6b6:	7829      	ldrb	r1, [r5, #0]
     6b8:	43a1      	bics	r1, r4
     6ba:	7029      	strb	r1, [r5, #0]
}


inline static void pinOut(Pin p) {
    pinGpio(p);
    PORT->Group[p.group].DIRSET.reg = (1<<p.pin);
     6bc:	2180      	movs	r1, #128	; 0x80
     6be:	0049      	lsls	r1, r1, #1
     6c0:	6099      	str	r1, [r3, #8]
    PORT->Group[p.group].PINCFG[p.pin].bit.PMUXEN = 1;
}


inline static void pinGpio(Pin p) {
    PORT->Group[p.group].PINCFG[p.pin].bit.PMUXEN = 0;
     6c2:	7831      	ldrb	r1, [r6, #0]
     6c4:	43a1      	bics	r1, r4
     6c6:	7031      	strb	r1, [r6, #0]
}


inline static void pinOut(Pin p) {
    pinGpio(p);
    PORT->Group[p.group].DIRSET.reg = (1<<p.pin);
     6c8:	2180      	movs	r1, #128	; 0x80
     6ca:	0089      	lsls	r1, r1, #2
     6cc:	6099      	str	r1, [r3, #8]
    PORT->Group[p.group].PINCFG[p.pin].bit.PMUXEN = 1;
}


inline static void pinGpio(Pin p) {
    PORT->Group[p.group].PINCFG[p.pin].bit.PMUXEN = 0;
     6ce:	0019      	movs	r1, r3
     6d0:	314b      	adds	r1, #75	; 0x4b
     6d2:	7808      	ldrb	r0, [r1, #0]
     6d4:	43a0      	bics	r0, r4
     6d6:	7008      	strb	r0, [r1, #0]
}


inline static void pinIn(Pin p) {
    pinGpio(p);
    PORT->Group[p.group].PINCFG[p.pin].bit.INEN = 1;
     6d8:	7808      	ldrb	r0, [r1, #0]
     6da:	4338      	orrs	r0, r7
     6dc:	7008      	strb	r0, [r1, #0]
    PORT->Group[p.group].DIRCLR.reg = (1<<p.pin);
     6de:	2080      	movs	r0, #128	; 0x80
     6e0:	0100      	lsls	r0, r0, #4
     6e2:	6058      	str	r0, [r3, #4]
    return (PORT->Group[p.group].IN.reg & (1<<p.pin)) != 0;
}

inline static void pinMux(Pin p) {
    if (p.pin & 1) {
        PORT->Group[p.group].PMUX[p.pin/2].bit.PMUXO = p.mux;
     6e4:	4877      	ldr	r0, [pc, #476]	; (8c4 <init+0x324>)
     6e6:	371e      	adds	r7, #30
     6e8:	7800      	ldrb	r0, [r0, #0]
     6ea:	4010      	ands	r0, r2
     6ec:	4338      	orrs	r0, r7
     6ee:	4f75      	ldr	r7, [pc, #468]	; (8c4 <init+0x324>)
     6f0:	7038      	strb	r0, [r7, #0]
    } else {
        PORT->Group[p.group].PMUX[p.pin/2].bit.PMUXE = p.mux;
    }
    PORT->Group[p.group].PINCFG[p.pin].bit.PMUXEN = 1;
     6f2:	7808      	ldrb	r0, [r1, #0]
    return (PORT->Group[p.group].IN.reg & (1<<p.pin)) != 0;
}

inline static void pinMux(Pin p) {
    if (p.pin & 1) {
        PORT->Group[p.group].PMUX[p.pin/2].bit.PMUXO = p.mux;
     6f4:	2720      	movs	r7, #32
    } else {
        PORT->Group[p.group].PMUX[p.pin/2].bit.PMUXE = p.mux;
    }
    PORT->Group[p.group].PINCFG[p.pin].bit.PMUXEN = 1;
     6f6:	4320      	orrs	r0, r4
     6f8:	7008      	strb	r0, [r1, #0]
    return (PORT->Group[p.group].IN.reg & (1<<p.pin)) != 0;
}

inline static void pinMux(Pin p) {
    if (p.pin & 1) {
        PORT->Group[p.group].PMUX[p.pin/2].bit.PMUXO = p.mux;
     6fa:	0018      	movs	r0, r3
     6fc:	3034      	adds	r0, #52	; 0x34
     6fe:	7801      	ldrb	r1, [r0, #0]
     700:	4011      	ands	r1, r2
     702:	4339      	orrs	r1, r7
     704:	7001      	strb	r1, [r0, #0]
    } else {
        PORT->Group[p.group].PMUX[p.pin/2].bit.PMUXE = p.mux;
    }
    PORT->Group[p.group].PINCFG[p.pin].bit.PMUXEN = 1;
     706:	7831      	ldrb	r1, [r6, #0]
}


inline static void pinIn(Pin p) {
    pinGpio(p);
    PORT->Group[p.group].PINCFG[p.pin].bit.INEN = 1;
     708:	4667      	mov	r7, ip
    if (p.pin & 1) {
        PORT->Group[p.group].PMUX[p.pin/2].bit.PMUXO = p.mux;
    } else {
        PORT->Group[p.group].PMUX[p.pin/2].bit.PMUXE = p.mux;
    }
    PORT->Group[p.group].PINCFG[p.pin].bit.PMUXEN = 1;
     70a:	4321      	orrs	r1, r4
     70c:	7031      	strb	r1, [r6, #0]

inline static void pinMux(Pin p) {
    if (p.pin & 1) {
        PORT->Group[p.group].PMUX[p.pin/2].bit.PMUXO = p.mux;
    } else {
        PORT->Group[p.group].PMUX[p.pin/2].bit.PMUXE = p.mux;
     70e:	4666      	mov	r6, ip
     710:	7801      	ldrb	r1, [r0, #0]
     712:	4391      	bics	r1, r2
     714:	4331      	orrs	r1, r6
     716:	7001      	strb	r1, [r0, #0]
    }
    PORT->Group[p.group].PINCFG[p.pin].bit.PMUXEN = 1;
     718:	7829      	ldrb	r1, [r5, #0]
}


inline static void pinGpio(Pin p) {
    PORT->Group[p.group].PINCFG[p.pin].bit.PMUXEN = 0;
     71a:	3096      	adds	r0, #150	; 0x96
    if (p.pin & 1) {
        PORT->Group[p.group].PMUX[p.pin/2].bit.PMUXO = p.mux;
    } else {
        PORT->Group[p.group].PMUX[p.pin/2].bit.PMUXE = p.mux;
    }
    PORT->Group[p.group].PINCFG[p.pin].bit.PMUXEN = 1;
     71c:	4321      	orrs	r1, r4
     71e:	7029      	strb	r1, [r5, #0]
}


inline static void pinGpio(Pin p) {
    PORT->Group[p.group].PINCFG[p.pin].bit.PMUXEN = 0;
     720:	7801      	ldrb	r1, [r0, #0]
     722:	001e      	movs	r6, r3
     724:	43a1      	bics	r1, r4
     726:	7001      	strb	r1, [r0, #0]
}


inline static void pinOut(Pin p) {
    pinGpio(p);
    PORT->Group[p.group].DIRSET.reg = (1<<p.pin);
     728:	2180      	movs	r1, #128	; 0x80
     72a:	9803      	ldr	r0, [sp, #12]
     72c:	00c9      	lsls	r1, r1, #3
     72e:	6001      	str	r1, [r0, #0]
}

inline static void pinHigh(Pin p) {
    PORT->Group[p.group].OUTSET.reg = (1<<p.pin);
     730:	0018      	movs	r0, r3
     732:	3098      	adds	r0, #152	; 0x98
     734:	6001      	str	r1, [r0, #0]
    PORT->Group[p.group].PINCFG[p.pin].bit.PMUXEN = 1;
}


inline static void pinGpio(Pin p) {
    PORT->Group[p.group].PINCFG[p.pin].bit.PMUXEN = 0;
     736:	78a8      	ldrb	r0, [r5, #2]
     738:	3651      	adds	r6, #81	; 0x51
     73a:	43a0      	bics	r0, r4
     73c:	70a8      	strb	r0, [r5, #2]
}


inline static void pinOut(Pin p) {
    pinGpio(p);
    PORT->Group[p.group].DIRSET.reg = (1<<p.pin);
     73e:	6099      	str	r1, [r3, #8]
}

inline static void pinHigh(Pin p) {
    PORT->Group[p.group].OUTSET.reg = (1<<p.pin);
     740:	6199      	str	r1, [r3, #24]
    PORT->Group[p.group].PINCFG[p.pin].bit.PMUXEN = 1;
}


inline static void pinGpio(Pin p) {
    PORT->Group[p.group].PINCFG[p.pin].bit.PMUXEN = 0;
     742:	7a29      	ldrb	r1, [r5, #8]
     744:	43a1      	bics	r1, r4
     746:	7229      	strb	r1, [r5, #8]
}


inline static void pinOut(Pin p) {
    pinGpio(p);
    PORT->Group[p.group].DIRSET.reg = (1<<p.pin);
     748:	2180      	movs	r1, #128	; 0x80
     74a:	0249      	lsls	r1, r1, #9
     74c:	6099      	str	r1, [r3, #8]
    PORT->Group[p.group].PINCFG[p.pin].bit.PMUXEN = 1;
}


inline static void pinGpio(Pin p) {
    PORT->Group[p.group].PINCFG[p.pin].bit.PMUXEN = 0;
     74e:	7831      	ldrb	r1, [r6, #0]
     750:	43a1      	bics	r1, r4
     752:	7031      	strb	r1, [r6, #0]
}


inline static void pinOut(Pin p) {
    pinGpio(p);
    PORT->Group[p.group].DIRSET.reg = (1<<p.pin);
     754:	2180      	movs	r1, #128	; 0x80
     756:	0289      	lsls	r1, r1, #10
     758:	6099      	str	r1, [r3, #8]
    PORT->Group[p.group].PINCFG[p.pin].bit.PMUXEN = 1;
}


inline static void pinGpio(Pin p) {
    PORT->Group[p.group].PINCFG[p.pin].bit.PMUXEN = 0;
     75a:	0019      	movs	r1, r3
     75c:	3153      	adds	r1, #83	; 0x53
     75e:	7808      	ldrb	r0, [r1, #0]
     760:	43a0      	bics	r0, r4
     762:	7008      	strb	r0, [r1, #0]
}


inline static void pinIn(Pin p) {
    pinGpio(p);
    PORT->Group[p.group].PINCFG[p.pin].bit.INEN = 1;
     764:	7808      	ldrb	r0, [r1, #0]
     766:	4338      	orrs	r0, r7
     768:	7008      	strb	r0, [r1, #0]
    return (PORT->Group[p.group].IN.reg & (1<<p.pin)) != 0;
}

inline static void pinMux(Pin p) {
    if (p.pin & 1) {
        PORT->Group[p.group].PMUX[p.pin/2].bit.PMUXO = p.mux;
     76a:	001f      	movs	r7, r3


inline static void pinIn(Pin p) {
    pinGpio(p);
    PORT->Group[p.group].PINCFG[p.pin].bit.INEN = 1;
    PORT->Group[p.group].DIRCLR.reg = (1<<p.pin);
     76c:	2080      	movs	r0, #128	; 0x80
    return (PORT->Group[p.group].IN.reg & (1<<p.pin)) != 0;
}

inline static void pinMux(Pin p) {
    if (p.pin & 1) {
        PORT->Group[p.group].PMUX[p.pin/2].bit.PMUXO = p.mux;
     76e:	3739      	adds	r7, #57	; 0x39


inline static void pinIn(Pin p) {
    pinGpio(p);
    PORT->Group[p.group].PINCFG[p.pin].bit.INEN = 1;
    PORT->Group[p.group].DIRCLR.reg = (1<<p.pin);
     770:	0300      	lsls	r0, r0, #12
     772:	6058      	str	r0, [r3, #4]
    return (PORT->Group[p.group].IN.reg & (1<<p.pin)) != 0;
}

inline static void pinMux(Pin p) {
    if (p.pin & 1) {
        PORT->Group[p.group].PMUX[p.pin/2].bit.PMUXO = p.mux;
     774:	9703      	str	r7, [sp, #12]
     776:	7838      	ldrb	r0, [r7, #0]
     778:	2720      	movs	r7, #32
     77a:	4010      	ands	r0, r2
     77c:	4338      	orrs	r0, r7
     77e:	9f03      	ldr	r7, [sp, #12]
     780:	7038      	strb	r0, [r7, #0]
    } else {
        PORT->Group[p.group].PMUX[p.pin/2].bit.PMUXE = p.mux;
    }
    PORT->Group[p.group].PINCFG[p.pin].bit.PMUXEN = 1;
     782:	7808      	ldrb	r0, [r1, #0]
    return (PORT->Group[p.group].IN.reg & (1<<p.pin)) != 0;
}

inline static void pinMux(Pin p) {
    if (p.pin & 1) {
        PORT->Group[p.group].PMUX[p.pin/2].bit.PMUXO = p.mux;
     784:	2720      	movs	r7, #32
    } else {
        PORT->Group[p.group].PMUX[p.pin/2].bit.PMUXE = p.mux;
    }
    PORT->Group[p.group].PINCFG[p.pin].bit.PMUXEN = 1;
     786:	4320      	orrs	r0, r4
     788:	7008      	strb	r0, [r1, #0]
    return (PORT->Group[p.group].IN.reg & (1<<p.pin)) != 0;
}

inline static void pinMux(Pin p) {
    if (p.pin & 1) {
        PORT->Group[p.group].PMUX[p.pin/2].bit.PMUXO = p.mux;
     78a:	0018      	movs	r0, r3
     78c:	3038      	adds	r0, #56	; 0x38
     78e:	7801      	ldrb	r1, [r0, #0]
     790:	4011      	ands	r1, r2
     792:	4339      	orrs	r1, r7
     794:	7001      	strb	r1, [r0, #0]
    } else {
        PORT->Group[p.group].PMUX[p.pin/2].bit.PMUXE = p.mux;
    }
    PORT->Group[p.group].PINCFG[p.pin].bit.PMUXEN = 1;
     796:	7831      	ldrb	r1, [r6, #0]
     798:	4321      	orrs	r1, r4
     79a:	7031      	strb	r1, [r6, #0]

inline static void pinMux(Pin p) {
    if (p.pin & 1) {
        PORT->Group[p.group].PMUX[p.pin/2].bit.PMUXO = p.mux;
    } else {
        PORT->Group[p.group].PMUX[p.pin/2].bit.PMUXE = p.mux;
     79c:	4666      	mov	r6, ip
     79e:	7801      	ldrb	r1, [r0, #0]
     7a0:	4391      	bics	r1, r2
     7a2:	4331      	orrs	r1, r6
     7a4:	7001      	strb	r1, [r0, #0]
    }
    PORT->Group[p.group].PINCFG[p.pin].bit.PMUXEN = 1;
     7a6:	7a29      	ldrb	r1, [r5, #8]
}


inline static void pinGpio(Pin p) {
    PORT->Group[p.group].PINCFG[p.pin].bit.PMUXEN = 0;
     7a8:	3014      	adds	r0, #20
    if (p.pin & 1) {
        PORT->Group[p.group].PMUX[p.pin/2].bit.PMUXO = p.mux;
    } else {
        PORT->Group[p.group].PMUX[p.pin/2].bit.PMUXE = p.mux;
    }
    PORT->Group[p.group].PINCFG[p.pin].bit.PMUXEN = 1;
     7aa:	4321      	orrs	r1, r4
     7ac:	7229      	strb	r1, [r5, #8]
}


inline static void pinGpio(Pin p) {
    PORT->Group[p.group].PINCFG[p.pin].bit.PMUXEN = 0;
     7ae:	7981      	ldrb	r1, [r0, #6]
     7b0:	43a1      	bics	r1, r4
     7b2:	7181      	strb	r1, [r0, #6]
}


inline static void pinOut(Pin p) {
    pinGpio(p);
    PORT->Group[p.group].DIRSET.reg = (1<<p.pin);
     7b4:	2180      	movs	r1, #128	; 0x80
     7b6:	02c9      	lsls	r1, r1, #11
     7b8:	6099      	str	r1, [r3, #8]
}

inline static void pinHigh(Pin p) {
    PORT->Group[p.group].OUTSET.reg = (1<<p.pin);
     7ba:	6199      	str	r1, [r3, #24]
    PORT->Group[p.group].PINCFG[p.pin].bit.PMUXEN = 1;
}


inline static void pinGpio(Pin p) {
    PORT->Group[p.group].PINCFG[p.pin].bit.PMUXEN = 0;
     7bc:	7801      	ldrb	r1, [r0, #0]
     7be:	43a1      	bics	r1, r4
     7c0:	7001      	strb	r1, [r0, #0]
}


inline static void pinOut(Pin p) {
    pinGpio(p);
    PORT->Group[p.group].DIRSET.reg = (1<<p.pin);
     7c2:	2180      	movs	r1, #128	; 0x80
     7c4:	0149      	lsls	r1, r1, #5
     7c6:	6099      	str	r1, [r3, #8]
    PORT->Group[p.group].PINCFG[p.pin].bit.PMUXEN = 1;
}


inline static void pinGpio(Pin p) {
    PORT->Group[p.group].PINCFG[p.pin].bit.PMUXEN = 0;
     7c8:	7881      	ldrb	r1, [r0, #2]
     7ca:	43a1      	bics	r1, r4
     7cc:	7081      	strb	r1, [r0, #2]
}


inline static void pinOut(Pin p) {
    pinGpio(p);
    PORT->Group[p.group].DIRSET.reg = (1<<p.pin);
     7ce:	2180      	movs	r1, #128	; 0x80
     7d0:	01c9      	lsls	r1, r1, #7
     7d2:	6099      	str	r1, [r3, #8]
    PORT->Group[p.group].PINCFG[p.pin].bit.PMUXEN = 1;
}


inline static void pinGpio(Pin p) {
    PORT->Group[p.group].PINCFG[p.pin].bit.PMUXEN = 0;
     7d4:	0019      	movs	r1, r3
     7d6:	314d      	adds	r1, #77	; 0x4d
     7d8:	7808      	ldrb	r0, [r1, #0]
     7da:	43a0      	bics	r0, r4
     7dc:	7008      	strb	r0, [r1, #0]
}


inline static void pinIn(Pin p) {
    pinGpio(p);
    PORT->Group[p.group].PINCFG[p.pin].bit.INEN = 1;
     7de:	7808      	ldrb	r0, [r1, #0]
     7e0:	4330      	orrs	r0, r6
     7e2:	7008      	strb	r0, [r1, #0]
    PORT->Group[p.group].DIRCLR.reg = (1<<p.pin);
     7e4:	2180      	movs	r1, #128	; 0x80
    PORT->Group[p.group].PINCFG[p.pin].bit.PMUXEN = 1;
}


inline static void pinGpio(Pin p) {
    PORT->Group[p.group].PINCFG[p.pin].bit.PMUXEN = 0;
     7e6:	0018      	movs	r0, r3


inline static void pinIn(Pin p) {
    pinGpio(p);
    PORT->Group[p.group].PINCFG[p.pin].bit.INEN = 1;
    PORT->Group[p.group].DIRCLR.reg = (1<<p.pin);
     7e8:	0189      	lsls	r1, r1, #6
     7ea:	6059      	str	r1, [r3, #4]
    PORT->Group[p.group].PINCFG[p.pin].bit.PMUXEN = 1;
}


inline static void pinGpio(Pin p) {
    PORT->Group[p.group].PINCFG[p.pin].bit.PMUXEN = 0;
     7ec:	304f      	adds	r0, #79	; 0x4f
     7ee:	7801      	ldrb	r1, [r0, #0]
     7f0:	43a1      	bics	r1, r4
     7f2:	7001      	strb	r1, [r0, #0]
}


inline static void pinOut(Pin p) {
    pinGpio(p);
    PORT->Group[p.group].DIRSET.reg = (1<<p.pin);
     7f4:	2180      	movs	r1, #128	; 0x80
     7f6:	0209      	lsls	r1, r1, #8
     7f8:	6099      	str	r1, [r3, #8]
}

inline static void pinHigh(Pin p) {
    PORT->Group[p.group].OUTSET.reg = (1<<p.pin);
     7fa:	6199      	str	r1, [r3, #24]
    PORT->Group[p.group].PINCFG[p.pin].bit.PMUXEN = 1;
}


inline static void pinGpio(Pin p) {
    PORT->Group[p.group].PINCFG[p.pin].bit.PMUXEN = 0;
     7fc:	0019      	movs	r1, r3
     7fe:	3155      	adds	r1, #85	; 0x55
     800:	7808      	ldrb	r0, [r1, #0]
     802:	43a0      	bics	r0, r4
     804:	7008      	strb	r0, [r1, #0]
}


inline static void pinOut(Pin p) {
    pinGpio(p);
    PORT->Group[p.group].DIRSET.reg = (1<<p.pin);
     806:	2080      	movs	r0, #128	; 0x80
     808:	0380      	lsls	r0, r0, #14
     80a:	6098      	str	r0, [r3, #8]
    PORT->Group[p.group].PINCFG[p.pin].bit.PMUXEN = 0;
}


inline static void pinCfg(Pin p) {
    PORT->Group[p.group].PINCFG[p.pin].reg = p.cfg;
     80c:	2040      	movs	r0, #64	; 0x40
     80e:	7008      	strb	r0, [r1, #0]
    PORT->Group[p.group].PINCFG[p.pin].bit.PMUXEN = 1;
}


inline static void pinGpio(Pin p) {
    PORT->Group[p.group].PINCFG[p.pin].bit.PMUXEN = 0;
     810:	7848      	ldrb	r0, [r1, #1]
     812:	43a0      	bics	r0, r4
     814:	7048      	strb	r0, [r1, #1]
}


inline static void pinOut(Pin p) {
    pinGpio(p);
    PORT->Group[p.group].DIRSET.reg = (1<<p.pin);
     816:	2080      	movs	r0, #128	; 0x80
     818:	03c0      	lsls	r0, r0, #15
     81a:	6098      	str	r0, [r3, #8]

inline static void pinMux(Pin p) {
    if (p.pin & 1) {
        PORT->Group[p.group].PMUX[p.pin/2].bit.PMUXO = p.mux;
    } else {
        PORT->Group[p.group].PMUX[p.pin/2].bit.PMUXE = p.mux;
     81c:	0018      	movs	r0, r3
     81e:	303b      	adds	r0, #59	; 0x3b
     820:	7805      	ldrb	r5, [r0, #0]
     822:	4395      	bics	r5, r2
     824:	4335      	orrs	r5, r6
     826:	7005      	strb	r5, [r0, #0]
    }
    PORT->Group[p.group].PINCFG[p.pin].bit.PMUXEN = 1;
     828:	784d      	ldrb	r5, [r1, #1]
     82a:	4325      	orrs	r5, r4
     82c:	704d      	strb	r5, [r1, #1]
}


inline static void pinGpio(Pin p) {
    PORT->Group[p.group].PINCFG[p.pin].bit.PMUXEN = 0;
     82e:	788d      	ldrb	r5, [r1, #2]
     830:	43a5      	bics	r5, r4
     832:	708d      	strb	r5, [r1, #2]
}


inline static void pinIn(Pin p) {
    pinGpio(p);
    PORT->Group[p.group].PINCFG[p.pin].bit.INEN = 1;
     834:	788d      	ldrb	r5, [r1, #2]
     836:	4335      	orrs	r5, r6
     838:	708d      	strb	r5, [r1, #2]
    PORT->Group[p.group].DIRCLR.reg = (1<<p.pin);
     83a:	2580      	movs	r5, #128	; 0x80
     83c:	042d      	lsls	r5, r5, #16
     83e:	605d      	str	r5, [r3, #4]

//    sercomClockEnable(SPI2, 3, 4);
//   sercomSpiMasterInit(SPI2, 3, 0, 0, 0, 0x00);

    sercomClockEnable(SPI0, 3, 4);
    sercomSpiMasterInit(SPI0, 3, 0, 0, 0, 0x00);
     840:	2500      	movs	r5, #0
    return (PORT->Group[p.group].IN.reg & (1<<p.pin)) != 0;
}

inline static void pinMux(Pin p) {
    if (p.pin & 1) {
        PORT->Group[p.group].PMUX[p.pin/2].bit.PMUXO = p.mux;
     842:	7803      	ldrb	r3, [r0, #0]
    pinMux(RxPo);

//    sercomClockEnable(SPI2, 3, 4);
//   sercomSpiMasterInit(SPI2, 3, 0, 0, 0, 0x00);

    sercomClockEnable(SPI0, 3, 4);
     844:	4e20      	ldr	r6, [pc, #128]	; (8c8 <init+0x328>)
     846:	401a      	ands	r2, r3
     848:	433a      	orrs	r2, r7
     84a:	7002      	strb	r2, [r0, #0]
    } else {
        PORT->Group[p.group].PMUX[p.pin/2].bit.PMUXE = p.mux;
    }
    PORT->Group[p.group].PINCFG[p.pin].bit.PMUXEN = 1;
     84c:	788b      	ldrb	r3, [r1, #2]
     84e:	2204      	movs	r2, #4
     850:	4323      	orrs	r3, r4
     852:	708b      	strb	r3, [r1, #2]
     854:	2000      	movs	r0, #0
     856:	2103      	movs	r1, #3
     858:	47b0      	blx	r6
    sercomSpiMasterInit(SPI0, 3, 0, 0, 0, 0x00);
     85a:	002b      	movs	r3, r5
     85c:	002a      	movs	r2, r5
     85e:	0028      	movs	r0, r5
     860:	4f1a      	ldr	r7, [pc, #104]	; (8cc <init+0x32c>)
     862:	9501      	str	r5, [sp, #4]
     864:	9500      	str	r5, [sp, #0]
     866:	2103      	movs	r1, #3
     868:	47b8      	blx	r7

    sercomClockEnable(SPI1, 3, 4);
     86a:	0020      	movs	r0, r4
     86c:	2204      	movs	r2, #4
     86e:	2103      	movs	r1, #3
     870:	47b0      	blx	r6
    sercomSpiMasterInit(SPI1, 3, 0, 0, 0, 0x00);
     872:	002b      	movs	r3, r5
     874:	002a      	movs	r2, r5
     876:	0020      	movs	r0, r4
     878:	9501      	str	r5, [sp, #4]
     87a:	9500      	str	r5, [sp, #0]
     87c:	2103      	movs	r1, #3
     87e:	47b8      	blx	r7

    sercomClockEnable(USART3, 4, 8);
     880:	2208      	movs	r2, #8
     882:	2104      	movs	r1, #4
     884:	2003      	movs	r0, #3
     886:	47b0      	blx	r6
    sercomUartInit(USART3,1,0,62180);
     888:	0021      	movs	r1, r4
     88a:	002a      	movs	r2, r5
     88c:	2003      	movs	r0, #3
     88e:	4b10      	ldr	r3, [pc, #64]	; (8d0 <init+0x330>)
     890:	4c10      	ldr	r4, [pc, #64]	; (8d4 <init+0x334>)
     892:	47a0      	blx	r4

    TC4Init();
     894:	4b10      	ldr	r3, [pc, #64]	; (8d8 <init+0x338>)
     896:	4798      	blx	r3
    TC5Init();
     898:	4b10      	ldr	r3, [pc, #64]	; (8dc <init+0x33c>)
     89a:	4798      	blx	r3
}
     89c:	b005      	add	sp, #20
     89e:	bdf0      	pop	{r4, r5, r6, r7, pc}
     8a0:	000001d5 	.word	0x000001d5
     8a4:	00000cfd 	.word	0x00000cfd
     8a8:	00000d85 	.word	0x00000d85
     8ac:	00000e51 	.word	0x00000e51
     8b0:	00000b1d 	.word	0x00000b1d
     8b4:	00000ff1 	.word	0x00000ff1
     8b8:	e000e100 	.word	0xe000e100
     8bc:	ff00ffff 	.word	0xff00ffff
     8c0:	41004400 	.word	0x41004400
     8c4:	41004435 	.word	0x41004435
     8c8:	000016f9 	.word	0x000016f9
     8cc:	0000175d 	.word	0x0000175d
     8d0:	0000f2e4 	.word	0x0000f2e4
     8d4:	000017c1 	.word	0x000017c1
     8d8:	00000f21 	.word	0x00000f21
     8dc:	00000f89 	.word	0x00000f89

000008e0 <startUp>:

void startUp(Altimeter *my_altimeter) {
     8e0:	b5f0      	push	{r4, r5, r6, r7, lr}
     8e2:	0005      	movs	r5, r0

    beep(400);
     8e4:	20c8      	movs	r0, #200	; 0xc8

    TC4Init();
    TC5Init();
}

void startUp(Altimeter *my_altimeter) {
     8e6:	b0c3      	sub	sp, #268	; 0x10c

    beep(400);
     8e8:	0040      	lsls	r0, r0, #1
     8ea:	4c2f      	ldr	r4, [pc, #188]	; (9a8 <startUp+0xc8>)
     8ec:	47a0      	blx	r4

    u32_t startupTime = millis();
     8ee:	4e2f      	ldr	r6, [pc, #188]	; (9ac <startUp+0xcc>)
     8f0:	47b0      	blx	r6
     8f2:	0007      	movs	r7, r0

    while((millis() - startupTime) < 10000) {
     8f4:	47b0      	blx	r6
     8f6:	4b2e      	ldr	r3, [pc, #184]	; (9b0 <startUp+0xd0>)
     8f8:	1bc0      	subs	r0, r0, r7
     8fa:	4298      	cmp	r0, r3
     8fc:	d835      	bhi.n	96a <startUp+0x8a>

        if (sercom(USART3)->SPI.INTFLAG.bit.RXC == 1) {
     8fe:	4b2d      	ldr	r3, [pc, #180]	; (9b4 <startUp+0xd4>)
     900:	7e1b      	ldrb	r3, [r3, #24]
     902:	075b      	lsls	r3, r3, #29
     904:	d5f6      	bpl.n	8f4 <startUp+0x14>
            u8_t data1 = usartDataIn(USART3);
     906:	2003      	movs	r0, #3
     908:	4b2b      	ldr	r3, [pc, #172]	; (9b8 <startUp+0xd8>)
     90a:	4798      	blx	r3
            if (data1 == 0x41) {
     90c:	2841      	cmp	r0, #65	; 0x41
     90e:	d1f1      	bne.n	8f4 <startUp+0x14>

                usartDataOut(USART3, 'T');
     910:	4f2a      	ldr	r7, [pc, #168]	; (9bc <startUp+0xdc>)
     912:	2154      	movs	r1, #84	; 0x54
     914:	383e      	subs	r0, #62	; 0x3e
     916:	47b8      	blx	r7

                u8_t pagesToSend = (my_altimeter->myFlashMemory.endingAddress - my_altimeter->myFlashMemory.currentAddress) / 0xFF;
     918:	002e      	movs	r6, r5
     91a:	002b      	movs	r3, r5
     91c:	3688      	adds	r6, #136	; 0x88
     91e:	338c      	adds	r3, #140	; 0x8c
     920:	6818      	ldr	r0, [r3, #0]
     922:	6833      	ldr	r3, [r6, #0]
     924:	21ff      	movs	r1, #255	; 0xff
     926:	1ac0      	subs	r0, r0, r3
     928:	4b25      	ldr	r3, [pc, #148]	; (9c0 <startUp+0xe0>)
     92a:	4798      	blx	r3
     92c:	b2c3      	uxtb	r3, r0
                usartDataOut(USART3, pagesToSend);
     92e:	0019      	movs	r1, r3
     930:	2003      	movs	r0, #3
            u8_t data1 = usartDataIn(USART3);
            if (data1 == 0x41) {

                usartDataOut(USART3, 'T');

                u8_t pagesToSend = (my_altimeter->myFlashMemory.endingAddress - my_altimeter->myFlashMemory.currentAddress) / 0xFF;
     932:	9301      	str	r3, [sp, #4]
                usartDataOut(USART3, pagesToSend);
     934:	47b8      	blx	r7

                u32_t addressToSend = my_altimeter->myFlashMemory.currentAddress;

                for (u8_t page = 0; page <= pagesToSend; ++page) {
     936:	2300      	movs	r3, #0
                usartDataOut(USART3, 'T');

                u8_t pagesToSend = (my_altimeter->myFlashMemory.endingAddress - my_altimeter->myFlashMemory.currentAddress) / 0xFF;
                usartDataOut(USART3, pagesToSend);

                u32_t addressToSend = my_altimeter->myFlashMemory.currentAddress;
     938:	6837      	ldr	r7, [r6, #0]

                for (u8_t page = 0; page <= pagesToSend; ++page) {
     93a:	9300      	str	r3, [sp, #0]

                    u8_t data[256];
                    AT25SEreadPage(addressToSend, data);
     93c:	a902      	add	r1, sp, #8
     93e:	0038      	movs	r0, r7
     940:	4b20      	ldr	r3, [pc, #128]	; (9c4 <startUp+0xe4>)
     942:	4798      	blx	r3
     944:	2600      	movs	r6, #0

                    for (u8_t dataByte = 0; dataByte < 255; ++dataByte) {
                        usartDataOut(USART3, data[dataByte]);
     946:	ab02      	add	r3, sp, #8
     948:	5cf1      	ldrb	r1, [r6, r3]
     94a:	2003      	movs	r0, #3
     94c:	4b1b      	ldr	r3, [pc, #108]	; (9bc <startUp+0xdc>)
     94e:	3601      	adds	r6, #1
     950:	4798      	blx	r3
                for (u8_t page = 0; page <= pagesToSend; ++page) {

                    u8_t data[256];
                    AT25SEreadPage(addressToSend, data);

                    for (u8_t dataByte = 0; dataByte < 255; ++dataByte) {
     952:	2eff      	cmp	r6, #255	; 0xff
     954:	d1f7      	bne.n	946 <startUp+0x66>
                u8_t pagesToSend = (my_altimeter->myFlashMemory.endingAddress - my_altimeter->myFlashMemory.currentAddress) / 0xFF;
                usartDataOut(USART3, pagesToSend);

                u32_t addressToSend = my_altimeter->myFlashMemory.currentAddress;

                for (u8_t page = 0; page <= pagesToSend; ++page) {
     956:	9b00      	ldr	r3, [sp, #0]

                    for (u8_t dataByte = 0; dataByte < 255; ++dataByte) {
                        usartDataOut(USART3, data[dataByte]);
                    }

                    addressToSend = addressToSend + 0x100;
     958:	3701      	adds	r7, #1
                u8_t pagesToSend = (my_altimeter->myFlashMemory.endingAddress - my_altimeter->myFlashMemory.currentAddress) / 0xFF;
                usartDataOut(USART3, pagesToSend);

                u32_t addressToSend = my_altimeter->myFlashMemory.currentAddress;

                for (u8_t page = 0; page <= pagesToSend; ++page) {
     95a:	3301      	adds	r3, #1
     95c:	b2db      	uxtb	r3, r3
     95e:	9300      	str	r3, [sp, #0]
     960:	9a00      	ldr	r2, [sp, #0]
     962:	9b01      	ldr	r3, [sp, #4]

                    for (u8_t dataByte = 0; dataByte < 255; ++dataByte) {
                        usartDataOut(USART3, data[dataByte]);
                    }

                    addressToSend = addressToSend + 0x100;
     964:	37ff      	adds	r7, #255	; 0xff
                u8_t pagesToSend = (my_altimeter->myFlashMemory.endingAddress - my_altimeter->myFlashMemory.currentAddress) / 0xFF;
                usartDataOut(USART3, pagesToSend);

                u32_t addressToSend = my_altimeter->myFlashMemory.currentAddress;

                for (u8_t page = 0; page <= pagesToSend; ++page) {
     966:	4293      	cmp	r3, r2
     968:	d2e8      	bcs.n	93c <startUp+0x5c>
                break;
            }
        }
    }

    sampleTick(my_altimeter);
     96a:	0028      	movs	r0, r5
     96c:	4b16      	ldr	r3, [pc, #88]	; (9c8 <startUp+0xe8>)
     96e:	4798      	blx	r3
    flight(my_altimeter);
     970:	4b16      	ldr	r3, [pc, #88]	; (9cc <startUp+0xec>)
     972:	0028      	movs	r0, r5
     974:	4798      	blx	r3

    beep(300);
     976:	2096      	movs	r0, #150	; 0x96
     978:	0040      	lsls	r0, r0, #1
     97a:	47a0      	blx	r4
    delay_ms(80);
     97c:	4d14      	ldr	r5, [pc, #80]	; (9d0 <startUp+0xf0>)
     97e:	2050      	movs	r0, #80	; 0x50
     980:	47a8      	blx	r5
    beep(300);
     982:	2096      	movs	r0, #150	; 0x96
     984:	0040      	lsls	r0, r0, #1
     986:	47a0      	blx	r4
    delay_ms(250);
     988:	20fa      	movs	r0, #250	; 0xfa
     98a:	47a8      	blx	r5
    beep(300);
     98c:	2096      	movs	r0, #150	; 0x96
     98e:	0040      	lsls	r0, r0, #1
     990:	47a0      	blx	r4
    delay_ms(80);
     992:	2050      	movs	r0, #80	; 0x50
     994:	47a8      	blx	r5
    beep(300);
     996:	2096      	movs	r0, #150	; 0x96
     998:	0040      	lsls	r0, r0, #1
     99a:	47a0      	blx	r4
    delay_ms(500);
     99c:	20fa      	movs	r0, #250	; 0xfa
     99e:	0040      	lsls	r0, r0, #1
     9a0:	47a8      	blx	r5
}
     9a2:	b043      	add	sp, #268	; 0x10c
     9a4:	bdf0      	pop	{r4, r5, r6, r7, pc}
     9a6:	46c0      	nop			; (mov r8, r8)
     9a8:	00000cc1 	.word	0x00000cc1
     9ac:	00000eed 	.word	0x00000eed
     9b0:	0000270f 	.word	0x0000270f
     9b4:	42001400 	.word	0x42001400
     9b8:	00001835 	.word	0x00001835
     9bc:	0000181d 	.word	0x0000181d
     9c0:	00001845 	.word	0x00001845
     9c4:	000001e5 	.word	0x000001e5
     9c8:	00001351 	.word	0x00001351
     9cc:	00001051 	.word	0x00001051
     9d0:	00000ea1 	.word	0x00000ea1

000009d4 <main>:



int main(void) {
     9d4:	b570      	push	{r4, r5, r6, lr}
     9d6:	4c34      	ldr	r4, [pc, #208]	; (aa8 <main+0xd4>)

    init();
     9d8:	4b34      	ldr	r3, [pc, #208]	; (aac <main+0xd8>)
    delay_ms(500);
}



int main(void) {
     9da:	44a5      	add	sp, r4

    init();
     9dc:	4798      	blx	r3

    Altimeter my_altimeter;
    my_altimeter.myFlightState = flightStatrup;
     9de:	2400      	movs	r4, #0
     9e0:	466b      	mov	r3, sp
    initMS5803Barometer(&my_altimeter.myBarometer);
     9e2:	a802      	add	r0, sp, #8
int main(void) {

    init();

    Altimeter my_altimeter;
    my_altimeter.myFlightState = flightStatrup;
     9e4:	711c      	strb	r4, [r3, #4]
    initMS5803Barometer(&my_altimeter.myBarometer);
     9e6:	4b32      	ldr	r3, [pc, #200]	; (ab0 <main+0xdc>)
     9e8:	4798      	blx	r3
    IMUinit();
     9ea:	4b32      	ldr	r3, [pc, #200]	; (ab4 <main+0xe0>)
     9ec:	4798      	blx	r3

    my_altimeter.myFlashMemory.pageLocation = 0x00;
     9ee:	2390      	movs	r3, #144	; 0x90
     9f0:	466a      	mov	r2, sp
     9f2:	33ff      	adds	r3, #255	; 0xff
     9f4:	3204      	adds	r2, #4
     9f6:	54d4      	strb	r4, [r2, r3]
    my_altimeter.myFlashMemory.currentAddress = 0x002000;
     9f8:	2380      	movs	r3, #128	; 0x80
     9fa:	019b      	lsls	r3, r3, #6
     9fc:	9323      	str	r3, [sp, #140]	; 0x8c
    my_altimeter.myFlashMemory.endingAddress = 0x002FFF;
     9fe:	4b2e      	ldr	r3, [pc, #184]	; (ab8 <main+0xe4>)

    /* this looks for a USART connection	 */
    startUp(&my_altimeter);
     a00:	0010      	movs	r0, r2
    initMS5803Barometer(&my_altimeter.myBarometer);
    IMUinit();

    my_altimeter.myFlashMemory.pageLocation = 0x00;
    my_altimeter.myFlashMemory.currentAddress = 0x002000;
    my_altimeter.myFlashMemory.endingAddress = 0x002FFF;
     a02:	9324      	str	r3, [sp, #144]	; 0x90

    /* this looks for a USART connection	 */
    startUp(&my_altimeter);
     a04:	4b2d      	ldr	r3, [pc, #180]	; (abc <main+0xe8>)
     a06:	4798      	blx	r3
    //findFlight(&my_altimeter);




    u32_t timeNow = millis();
     a08:	4c2d      	ldr	r4, [pc, #180]	; (ac0 <main+0xec>)
     a0a:	47a0      	blx	r4
     a0c:	0005      	movs	r5, r0
    while((millis() - timeNow) < 3000) {
     a0e:	47a0      	blx	r4
     a10:	4b2c      	ldr	r3, [pc, #176]	; (ac4 <main+0xf0>)
     a12:	1b40      	subs	r0, r0, r5
     a14:	4298      	cmp	r0, r3
     a16:	d806      	bhi.n	a26 <main+0x52>
        sampleTick(&my_altimeter);
     a18:	a801      	add	r0, sp, #4
     a1a:	4b2b      	ldr	r3, [pc, #172]	; (ac8 <main+0xf4>)
     a1c:	4798      	blx	r3
        flight(&my_altimeter);
     a1e:	a801      	add	r0, sp, #4
     a20:	4b2a      	ldr	r3, [pc, #168]	; (acc <main+0xf8>)
     a22:	4798      	blx	r3
     a24:	e7f3      	b.n	a0e <main+0x3a>
    }

    logFlight(&my_altimeter);
     a26:	a801      	add	r0, sp, #4
     a28:	4b29      	ldr	r3, [pc, #164]	; (ad0 <main+0xfc>)
     a2a:	4798      	blx	r3

    beep(300);
     a2c:	2096      	movs	r0, #150	; 0x96
     a2e:	4b29      	ldr	r3, [pc, #164]	; (ad4 <main+0x100>)
     a30:	0040      	lsls	r0, r0, #1
    PORT->Group[p.group].OUTCLR.reg = (1<<p.pin);
}


inline static void pinToggle(Pin p) {
    PORT->Group[p.group].OUTTGL.reg = (1<<p.pin);
     a32:	2680      	movs	r6, #128	; 0x80
     a34:	4798      	blx	r3
     a36:	0376      	lsls	r6, r6, #13
    while (1) {

        if (takeSample) {
            sampleTick(&my_altimeter);
            flight(&my_altimeter);
            takeSample = false;
     a38:	2400      	movs	r4, #0

    beep(300);

    while (1) {

        if (takeSample) {
     a3a:	4d27      	ldr	r5, [pc, #156]	; (ad8 <main+0x104>)
     a3c:	782b      	ldrb	r3, [r5, #0]
     a3e:	2b00      	cmp	r3, #0
     a40:	d006      	beq.n	a50 <main+0x7c>
            sampleTick(&my_altimeter);
     a42:	a801      	add	r0, sp, #4
     a44:	4b20      	ldr	r3, [pc, #128]	; (ac8 <main+0xf4>)
     a46:	4798      	blx	r3
            flight(&my_altimeter);
     a48:	a801      	add	r0, sp, #4
     a4a:	4b20      	ldr	r3, [pc, #128]	; (acc <main+0xf8>)
     a4c:	4798      	blx	r3
            takeSample = false;
     a4e:	702c      	strb	r4, [r5, #0]
        }

        if (writeLog) {
     a50:	4b22      	ldr	r3, [pc, #136]	; (adc <main+0x108>)
     a52:	781a      	ldrb	r2, [r3, #0]
     a54:	2a00      	cmp	r2, #0
     a56:	d0f0      	beq.n	a3a <main+0x66>
            writeLog = false;
     a58:	701c      	strb	r4, [r3, #0]
            logSensors(&my_altimeter);
     a5a:	a801      	add	r0, sp, #4
     a5c:	4b20      	ldr	r3, [pc, #128]	; (ae0 <main+0x10c>)
     a5e:	4798      	blx	r3

            if (my_altimeter.myFlashMemory.pageReady) {
     a60:	466a      	mov	r2, sp
     a62:	4b20      	ldr	r3, [pc, #128]	; (ae4 <main+0x110>)
     a64:	3204      	adds	r2, #4
     a66:	5cd2      	ldrb	r2, [r2, r3]
     a68:	2a00      	cmp	r2, #0
     a6a:	d0e6      	beq.n	a3a <main+0x66>
                my_altimeter.myFlashMemory.pageReady = false;
     a6c:	4669      	mov	r1, sp
     a6e:	2200      	movs	r2, #0
     a70:	4d1d      	ldr	r5, [pc, #116]	; (ae8 <main+0x114>)
     a72:	3104      	adds	r1, #4
     a74:	54ca      	strb	r2, [r1, r3]
     a76:	61ee      	str	r6, [r5, #28]

                pinToggle(LedPin);

                if (my_altimeter.myFlashMemory.currentAddress <= my_altimeter.myFlashMemory.endingAddress) {
     a78:	9b23      	ldr	r3, [sp, #140]	; 0x8c
     a7a:	9a24      	ldr	r2, [sp, #144]	; 0x90
     a7c:	4293      	cmp	r3, r2
     a7e:	d803      	bhi.n	a88 <main+0xb4>

                    //u8_t bytesWritten = AT25SEWritePage(my_altimeter.myFlashMemory.currentAddress,my_altimeter.myFlashMemory.pageToWrite);
                    my_altimeter.myFlashMemory.currentAddress = my_altimeter.myFlashMemory.currentAddress + 0x100;
     a80:	3301      	adds	r3, #1
     a82:	33ff      	adds	r3, #255	; 0xff
     a84:	9323      	str	r3, [sp, #140]	; 0x8c
     a86:	e7d7      	b.n	a38 <main+0x64>
                } else {
                    delay_ms(80);
     a88:	4c18      	ldr	r4, [pc, #96]	; (aec <main+0x118>)
     a8a:	2050      	movs	r0, #80	; 0x50
     a8c:	47a0      	blx	r4
     a8e:	61ee      	str	r6, [r5, #28]
                    pinToggle(LedPin);
                    delay_ms(80);
     a90:	2050      	movs	r0, #80	; 0x50
     a92:	47a0      	blx	r4
     a94:	61ee      	str	r6, [r5, #28]
                    pinToggle(LedPin);
                    delay_ms(80);
     a96:	2050      	movs	r0, #80	; 0x50
     a98:	47a0      	blx	r4
     a9a:	61ee      	str	r6, [r5, #28]
                    pinToggle(LedPin);
                    delay_ms(80);
     a9c:	2050      	movs	r0, #80	; 0x50
     a9e:	47a0      	blx	r4
     aa0:	61ee      	str	r6, [r5, #28]
                    pinToggle(LedPin);
                    delay_ms(80);
     aa2:	2050      	movs	r0, #80	; 0x50
     aa4:	47a0      	blx	r4
     aa6:	e7c7      	b.n	a38 <main+0x64>
     aa8:	fffffd58 	.word	0xfffffd58
     aac:	000005a1 	.word	0x000005a1
     ab0:	00000511 	.word	0x00000511
     ab4:	00000af1 	.word	0x00000af1
     ab8:	00002fff 	.word	0x00002fff
     abc:	000008e1 	.word	0x000008e1
     ac0:	00000eed 	.word	0x00000eed
     ac4:	00000bb7 	.word	0x00000bb7
     ac8:	00001351 	.word	0x00001351
     acc:	00001051 	.word	0x00001051
     ad0:	00001179 	.word	0x00001179
     ad4:	00000cc1 	.word	0x00000cc1
     ad8:	20000463 	.word	0x20000463
     adc:	20000461 	.word	0x20000461
     ae0:	00001249 	.word	0x00001249
     ae4:	0000028f 	.word	0x0000028f
     ae8:	41004400 	.word	0x41004400
     aec:	00000ea1 	.word	0x00000ea1

00000af0 <IMUinit>:
#include <util.h>
#include <boardDefines.h>


void IMUinit() {
     af0:	b570      	push	{r4, r5, r6, lr}
    PORT->Group[p.group].OUTSET.reg = (1<<p.pin);
}


inline static void pinLow(Pin p) {
    PORT->Group[p.group].OUTCLR.reg = (1<<p.pin);
     af2:	4c08      	ldr	r4, [pc, #32]	; (b14 <IMUinit+0x24>)
     af4:	2580      	movs	r5, #128	; 0x80
     af6:	0023      	movs	r3, r4
     af8:	00ed      	lsls	r5, r5, #3
     afa:	3394      	adds	r3, #148	; 0x94
     afc:	601d      	str	r5, [r3, #0]

    uint8_t dummy_Tx = 0xFF;
    uint8_t dummy_rx;

    pinLow(cs_accel);
    dummy_rx = spiDataTransfer(SPI0, BMI_ACCEL_PMU_RANGE);
     afe:	4e06      	ldr	r6, [pc, #24]	; (b18 <IMUinit+0x28>)
     b00:	210f      	movs	r1, #15
     b02:	2000      	movs	r0, #0
     b04:	47b0      	blx	r6
    pinGpio(p);
    PORT->Group[p.group].DIRSET.reg = (1<<p.pin);
}

inline static void pinHigh(Pin p) {
    PORT->Group[p.group].OUTSET.reg = (1<<p.pin);
     b06:	3498      	adds	r4, #152	; 0x98
    dummy_rx = spiDataTransfer(SPI0, BMI_ACCEL_16G_RANGE);
     b08:	210c      	movs	r1, #12
     b0a:	2000      	movs	r0, #0
     b0c:	47b0      	blx	r6
     b0e:	6025      	str	r5, [r4, #0]
    pinHigh(cs_accel);

}
     b10:	bd70      	pop	{r4, r5, r6, pc}
     b12:	46c0      	nop			; (mov r8, r8)
     b14:	41004400 	.word	0x41004400
     b18:	00001805 	.word	0x00001805

00000b1c <adcInit>:
#include <util.h>

void adcInit() {

    // set up clock
    PM->APBCMASK.reg |= PM_APBCMASK_ADC;
     b1c:	2180      	movs	r1, #128	; 0x80


#include <util.h>

void adcInit() {
     b1e:	b510      	push	{r4, lr}

    // set up clock
    PM->APBCMASK.reg |= PM_APBCMASK_ADC;
     b20:	4a10      	ldr	r2, [pc, #64]	; (b64 <adcInit+0x48>)
     b22:	0249      	lsls	r1, r1, #9
     b24:	6a13      	ldr	r3, [r2, #32]
    // divide prescaler by 512 (93.75KHz), max adc freq is 2.1MHz
    ADC->CTRLB.reg = ADC_CTRLB_PRESCALER_DIV512 |
                     ADC_CTRLB_RESSEL_12BIT;

    // enable clock adc channel
    GCLK->CLKCTRL.reg = GCLK_CLKCTRL_CLKEN |
     b26:	4810      	ldr	r0, [pc, #64]	; (b68 <adcInit+0x4c>)
#include <util.h>

void adcInit() {

    // set up clock
    PM->APBCMASK.reg |= PM_APBCMASK_ADC;
     b28:	430b      	orrs	r3, r1
     b2a:	6213      	str	r3, [r2, #32]

    // divide prescaler by 512 (93.75KHz), max adc freq is 2.1MHz
    ADC->CTRLB.reg = ADC_CTRLB_PRESCALER_DIV512 |
     b2c:	23e0      	movs	r3, #224	; 0xe0
     b2e:	490f      	ldr	r1, [pc, #60]	; (b6c <adcInit+0x50>)
                     ADC_CTRLB_RESSEL_12BIT;

    // enable clock adc channel
    GCLK->CLKCTRL.reg = GCLK_CLKCTRL_CLKEN |
     b30:	4a0f      	ldr	r2, [pc, #60]	; (b70 <adcInit+0x54>)

    // set up clock
    PM->APBCMASK.reg |= PM_APBCMASK_ADC;

    // divide prescaler by 512 (93.75KHz), max adc freq is 2.1MHz
    ADC->CTRLB.reg = ADC_CTRLB_PRESCALER_DIV512 |
     b32:	00db      	lsls	r3, r3, #3
     b34:	808b      	strh	r3, [r1, #4]
                     ADC_CTRLB_RESSEL_12BIT;

    // enable clock adc channel
    GCLK->CLKCTRL.reg = GCLK_CLKCTRL_CLKEN |
     b36:	8050      	strh	r0, [r2, #2]
                        GCLK_CLKCTRL_GEN(0) |
                        GCLK_CLKCTRL_ID(ADC_GCLK_ID);

    ADC->CALIB.reg =
        ADC_CALIB_BIAS_CAL(
     b38:	4a0e      	ldr	r2, [pc, #56]	; (b74 <adcInit+0x58>)
    // enable clock adc channel
    GCLK->CLKCTRL.reg = GCLK_CLKCTRL_CLKEN |
                        GCLK_CLKCTRL_GEN(0) |
                        GCLK_CLKCTRL_ID(ADC_GCLK_ID);

    ADC->CALIB.reg =
     b3a:	6812      	ldr	r2, [r2, #0]
     b3c:	0150      	lsls	r0, r2, #5
     b3e:	4018      	ands	r0, r3
     b40:	4b0d      	ldr	r3, [pc, #52]	; (b78 <adcInit+0x5c>)
     b42:	0154      	lsls	r4, r2, #5
     b44:	681a      	ldr	r2, [r3, #0]
     b46:	0ed3      	lsrs	r3, r2, #27
     b48:	4323      	orrs	r3, r4
     b4a:	b2da      	uxtb	r2, r3
     b4c:	0003      	movs	r3, r0
     b4e:	4313      	orrs	r3, r2
     b50:	850b      	strh	r3, [r1, #40]	; 0x28
        ) |
        ADC_CALIB_LINEARITY_CAL(
            (*(uint64_t *)ADC_FUSES_LINEARITY_0_ADDR >> ADC_FUSES_LINEARITY_0_Pos)
        );

    ADC->REFCTRL.reg = ADC_REFCTRL_REFSEL_INTVCC1;
     b52:	2302      	movs	r3, #2
     b54:	704b      	strb	r3, [r1, #1]

    ADC->CTRLA.reg = ADC_CTRLA_ENABLE; // enable
     b56:	700b      	strb	r3, [r1, #0]
    while(ADC->STATUS.reg & ADC_STATUS_SYNCBUSY);
     b58:	7e4b      	ldrb	r3, [r1, #25]
     b5a:	b25b      	sxtb	r3, r3
     b5c:	2b00      	cmp	r3, #0
     b5e:	dbfb      	blt.n	b58 <adcInit+0x3c>
}
     b60:	bd10      	pop	{r4, pc}
     b62:	46c0      	nop			; (mov r8, r8)
     b64:	40000400 	.word	0x40000400
     b68:	0000401e 	.word	0x0000401e
     b6c:	42004000 	.word	0x42004000
     b70:	40000c00 	.word	0x40000c00
     b74:	00806024 	.word	0x00806024
     b78:	00806020 	.word	0x00806020

00000b7c <adcSample>:



u16_t adcSample() {
    ADC->SWTRIG.reg = ADC_SWTRIG_START;
     b7c:	2202      	movs	r2, #2
     b7e:	4b05      	ldr	r3, [pc, #20]	; (b94 <adcSample+0x18>)
     b80:	731a      	strb	r2, [r3, #12]
    while(!(ADC->INTFLAG.reg & ADC_INTFLAG_RESRDY)); // wait until result is ready
     b82:	3a01      	subs	r2, #1
     b84:	7e19      	ldrb	r1, [r3, #24]
     b86:	4211      	tst	r1, r2
     b88:	d0fc      	beq.n	b84 <adcSample+0x8>
    return ADC->RESULT.reg;
     b8a:	4b02      	ldr	r3, [pc, #8]	; (b94 <adcSample+0x18>)
     b8c:	8b58      	ldrh	r0, [r3, #26]
     b8e:	b280      	uxth	r0, r0
}
     b90:	4770      	bx	lr
     b92:	46c0      	nop			; (mov r8, r8)
     b94:	42004000 	.word	0x42004000

00000b98 <adc_read>:


u16_t adc_read(Pin p) {
     b98:	b537      	push	{r0, r1, r2, r4, r5, lr}
    u16_t buad;

} _sercomPort;

inline static void pinAnalog(Pin p) {
    if (p.pin & 1) {
     b9a:	2501      	movs	r5, #1
     b9c:	0c02      	lsrs	r2, r0, #16
     b9e:	b2d4      	uxtb	r4, r2
     ba0:	9000      	str	r0, [sp, #0]
     ba2:	0e00      	lsrs	r0, r0, #24
     ba4:	9101      	str	r1, [sp, #4]
     ba6:	0842      	lsrs	r2, r0, #1
     ba8:	01e3      	lsls	r3, r4, #7
        PORT->Group[p.group].PMUX[p.pin/2].bit.PMUXO = 0x1;
     baa:	4911      	ldr	r1, [pc, #68]	; (bf0 <adc_read+0x58>)
     bac:	18d2      	adds	r2, r2, r3
     bae:	1852      	adds	r2, r2, r1
    u16_t buad;

} _sercomPort;

inline static void pinAnalog(Pin p) {
    if (p.pin & 1) {
     bb0:	4228      	tst	r0, r5
     bb2:	d005      	beq.n	bc0 <adc_read+0x28>
        PORT->Group[p.group].PMUX[p.pin/2].bit.PMUXO = 0x1;
     bb4:	210f      	movs	r1, #15
     bb6:	7814      	ldrb	r4, [r2, #0]
     bb8:	4021      	ands	r1, r4
     bba:	2410      	movs	r4, #16
     bbc:	4321      	orrs	r1, r4
     bbe:	e003      	b.n	bc8 <adc_read+0x30>
    } else {
        PORT->Group[p.group].PMUX[p.pin/2].bit.PMUXE = 0x1;
     bc0:	240f      	movs	r4, #15
     bc2:	7811      	ldrb	r1, [r2, #0]
     bc4:	43a1      	bics	r1, r4
     bc6:	4329      	orrs	r1, r5
     bc8:	7011      	strb	r1, [r2, #0]
    }

    PORT->Group[p.group].PINCFG[p.pin].bit.PMUXEN = 1;
     bca:	2101      	movs	r1, #1
     bcc:	4a09      	ldr	r2, [pc, #36]	; (bf4 <adc_read+0x5c>)
     bce:	18c3      	adds	r3, r0, r3
     bd0:	189b      	adds	r3, r3, r2
     bd2:	781a      	ldrb	r2, [r3, #0]
     bd4:	430a      	orrs	r2, r1
     bd6:	701a      	strb	r2, [r3, #0]
    // switch pin mux to analog in
    pinAnalog(p);

    ADC->INPUTCTRL.reg = (ADC_INPUTCTRL_MUXPOS(p.chan) // select from proper pin
                          | ADC_INPUTCTRL_MUXNEG_GND // 0 = gnd
                          | ADC_INPUTCTRL_GAIN_1X);
     bd8:	466b      	mov	r3, sp
     bda:	791a      	ldrb	r2, [r3, #4]
     bdc:	231f      	movs	r3, #31
     bde:	4013      	ands	r3, r2
     be0:	22c0      	movs	r2, #192	; 0xc0
     be2:	0152      	lsls	r2, r2, #5
     be4:	4313      	orrs	r3, r2

u16_t adc_read(Pin p) {
    // switch pin mux to analog in
    pinAnalog(p);

    ADC->INPUTCTRL.reg = (ADC_INPUTCTRL_MUXPOS(p.chan) // select from proper pin
     be6:	4a04      	ldr	r2, [pc, #16]	; (bf8 <adc_read+0x60>)
     be8:	6113      	str	r3, [r2, #16]
                          | ADC_INPUTCTRL_MUXNEG_GND // 0 = gnd
                          | ADC_INPUTCTRL_GAIN_1X);

    return adcSample();
     bea:	4b04      	ldr	r3, [pc, #16]	; (bfc <adc_read+0x64>)
     bec:	4798      	blx	r3
     bee:	bd3e      	pop	{r1, r2, r3, r4, r5, pc}
     bf0:	41004430 	.word	0x41004430
     bf4:	41004440 	.word	0x41004440
     bf8:	42004000 	.word	0x42004000
     bfc:	00000b7d 	.word	0x00000b7d

00000c00 <byteOut>:





void byteOut(Pin SCK_PIN, Pin MOSI_PIN, uint8_t byte) {
     c00:	0c01      	lsrs	r1, r0, #16
     c02:	0c13      	lsrs	r3, r2, #16
     c04:	b5f0      	push	{r4, r5, r6, r7, lr}
     c06:	b2cd      	uxtb	r5, r1
     c08:	b2d9      	uxtb	r1, r3
    PORT->Group[p.group].OUTSET.reg = (1<<p.pin);
}


inline static void pinLow(Pin p) {
    PORT->Group[p.group].OUTCLR.reg = (1<<p.pin);
     c0a:	2301      	movs	r3, #1
     c0c:	001e      	movs	r6, r3
    pinGpio(p);
    PORT->Group[p.group].DIRSET.reg = (1<<p.pin);
}

inline static void pinHigh(Pin p) {
    PORT->Group[p.group].OUTSET.reg = (1<<p.pin);
     c0e:	0e12      	lsrs	r2, r2, #24
     c10:	4093      	lsls	r3, r2
}


inline static void pinLow(Pin p) {
    PORT->Group[p.group].OUTCLR.reg = (1<<p.pin);
     c12:	0e00      	lsrs	r0, r0, #24
     c14:	4086      	lsls	r6, r0
    pinGpio(p);
    PORT->Group[p.group].DIRSET.reg = (1<<p.pin);
}

inline static void pinHigh(Pin p) {
    PORT->Group[p.group].OUTSET.reg = (1<<p.pin);
     c16:	001a      	movs	r2, r3
     c18:	2308      	movs	r3, #8
}


inline static void pinLow(Pin p) {
    PORT->Group[p.group].OUTCLR.reg = (1<<p.pin);
     c1a:	0030      	movs	r0, r6
     c1c:	4e11      	ldr	r6, [pc, #68]	; (c64 <byteOut+0x64>)
     c1e:	01c9      	lsls	r1, r1, #7
     c20:	b087      	sub	sp, #28
     c22:	198f      	adds	r7, r1, r6
    pinGpio(p);
    PORT->Group[p.group].DIRSET.reg = (1<<p.pin);
}

inline static void pinHigh(Pin p) {
    PORT->Group[p.group].OUTSET.reg = (1<<p.pin);
     c24:	4e10      	ldr	r6, [pc, #64]	; (c68 <byteOut+0x68>)
     c26:	ac0c      	add	r4, sp, #48	; 0x30
}


inline static void pinLow(Pin p) {
    PORT->Group[p.group].OUTCLR.reg = (1<<p.pin);
     c28:	01ed      	lsls	r5, r5, #7
    pinGpio(p);
    PORT->Group[p.group].DIRSET.reg = (1<<p.pin);
}

inline static void pinHigh(Pin p) {
    PORT->Group[p.group].OUTSET.reg = (1<<p.pin);
     c2a:	19ae      	adds	r6, r5, r6
     c2c:	7824      	ldrb	r4, [r4, #0]
     c2e:	9601      	str	r6, [sp, #4]
}


inline static void pinLow(Pin p) {
    PORT->Group[p.group].OUTCLR.reg = (1<<p.pin);
     c30:	4e0c      	ldr	r6, [pc, #48]	; (c64 <byteOut+0x64>)
     c32:	46b4      	mov	ip, r6
     c34:	44ac      	add	ip, r5
     c36:	4666      	mov	r6, ip
     c38:	6030      	str	r0, [r6, #0]

	for (uint8_t i = 0; i<8; ++i) {
		pinLow(SCK_PIN);
		if (byte & 0x80) {
     c3a:	b266      	sxtb	r6, r4
     c3c:	2e00      	cmp	r6, #0
     c3e:	da05      	bge.n	c4c <byteOut+0x4c>
    pinGpio(p);
    PORT->Group[p.group].DIRSET.reg = (1<<p.pin);
}

inline static void pinHigh(Pin p) {
    PORT->Group[p.group].OUTSET.reg = (1<<p.pin);
     c40:	4e09      	ldr	r6, [pc, #36]	; (c68 <byteOut+0x68>)
     c42:	46b4      	mov	ip, r6
     c44:	448c      	add	ip, r1
     c46:	4666      	mov	r6, ip
     c48:	6032      	str	r2, [r6, #0]
     c4a:	e000      	b.n	c4e <byteOut+0x4e>
}


inline static void pinLow(Pin p) {
    PORT->Group[p.group].OUTCLR.reg = (1<<p.pin);
     c4c:	603a      	str	r2, [r7, #0]
    pinGpio(p);
    PORT->Group[p.group].DIRSET.reg = (1<<p.pin);
}

inline static void pinHigh(Pin p) {
    PORT->Group[p.group].OUTSET.reg = (1<<p.pin);
     c4e:	9e01      	ldr	r6, [sp, #4]
     c50:	3b01      	subs	r3, #1
			pinHigh(MOSI_PIN);
			} else {
			pinLow(MOSI_PIN);
		}
		pinHigh(SCK_PIN);
		byte <<= 1;
     c52:	0064      	lsls	r4, r4, #1
     c54:	b2db      	uxtb	r3, r3
     c56:	6030      	str	r0, [r6, #0]
     c58:	b2e4      	uxtb	r4, r4



void byteOut(Pin SCK_PIN, Pin MOSI_PIN, uint8_t byte) {

	for (uint8_t i = 0; i<8; ++i) {
     c5a:	2b00      	cmp	r3, #0
     c5c:	d1e8      	bne.n	c30 <byteOut+0x30>
			pinLow(MOSI_PIN);
		}
		pinHigh(SCK_PIN);
		byte <<= 1;
	}
}
     c5e:	b007      	add	sp, #28
     c60:	bdf0      	pop	{r4, r5, r6, r7, pc}
     c62:	46c0      	nop			; (mov r8, r8)
     c64:	41004414 	.word	0x41004414
     c68:	41004418 	.word	0x41004418

00000c6c <byteIn>:

uint8_t byteIn(Pin SCK_PIN, Pin MISO_PIN) {
     c6c:	b5f0      	push	{r4, r5, r6, r7, lr}
}


inline static void pinLow(Pin p) {
    PORT->Group[p.group].OUTCLR.reg = (1<<p.pin);
     c6e:	2501      	movs	r5, #1
     c70:	b085      	sub	sp, #20
     c72:	9103      	str	r1, [sp, #12]
     c74:	0011      	movs	r1, r2
     c76:	0c06      	lsrs	r6, r0, #16
     c78:	9301      	str	r3, [sp, #4]
     c7a:	b2f3      	uxtb	r3, r6
     c7c:	002e      	movs	r6, r5
    PORT->Group[p.group].PINCFG[p.pin].bit.PMUXEN = 1;
}


inline static bool pinRead(Pin p) {
    return (PORT->Group[p.group].IN.reg & (1<<p.pin)) != 0;
     c7e:	0e09      	lsrs	r1, r1, #24
     c80:	0c14      	lsrs	r4, r2, #16
     c82:	9002      	str	r0, [sp, #8]
     c84:	9200      	str	r2, [sp, #0]
     c86:	408d      	lsls	r5, r1
    PORT->Group[p.group].OUTSET.reg = (1<<p.pin);
}


inline static void pinLow(Pin p) {
    PORT->Group[p.group].OUTCLR.reg = (1<<p.pin);
     c88:	0e02      	lsrs	r2, r0, #24
    PORT->Group[p.group].PINCFG[p.pin].bit.PMUXEN = 1;
}


inline static bool pinRead(Pin p) {
    return (PORT->Group[p.group].IN.reg & (1<<p.pin)) != 0;
     c8a:	2108      	movs	r1, #8
	uint8_t byte = 0x00;
     c8c:	2000      	movs	r0, #0
    PORT->Group[p.group].OUTSET.reg = (1<<p.pin);
}


inline static void pinLow(Pin p) {
    PORT->Group[p.group].OUTCLR.reg = (1<<p.pin);
     c8e:	4096      	lsls	r6, r2
    PORT->Group[p.group].PINCFG[p.pin].bit.PMUXEN = 1;
}


inline static bool pinRead(Pin p) {
    return (PORT->Group[p.group].IN.reg & (1<<p.pin)) != 0;
     c90:	b2e2      	uxtb	r2, r4
    PORT->Group[p.group].OUTSET.reg = (1<<p.pin);
}


inline static void pinLow(Pin p) {
    PORT->Group[p.group].OUTCLR.reg = (1<<p.pin);
     c92:	4c0a      	ldr	r4, [pc, #40]	; (cbc <byteIn+0x50>)
     c94:	01db      	lsls	r3, r3, #7
    PORT->Group[p.group].PINCFG[p.pin].bit.PMUXEN = 1;
}


inline static bool pinRead(Pin p) {
    return (PORT->Group[p.group].IN.reg & (1<<p.pin)) != 0;
     c96:	01d2      	lsls	r2, r2, #7
    PORT->Group[p.group].OUTSET.reg = (1<<p.pin);
}


inline static void pinLow(Pin p) {
    PORT->Group[p.group].OUTCLR.reg = (1<<p.pin);
     c98:	191b      	adds	r3, r3, r4
    PORT->Group[p.group].PINCFG[p.pin].bit.PMUXEN = 1;
}


inline static bool pinRead(Pin p) {
    return (PORT->Group[p.group].IN.reg & (1<<p.pin)) != 0;
     c9a:	1912      	adds	r2, r2, r4
    PORT->Group[p.group].OUTSET.reg = (1<<p.pin);
}


inline static void pinLow(Pin p) {
    PORT->Group[p.group].OUTCLR.reg = (1<<p.pin);
     c9c:	615e      	str	r6, [r3, #20]
    PORT->Group[p.group].PINCFG[p.pin].bit.PMUXEN = 1;
}


inline static bool pinRead(Pin p) {
    return (PORT->Group[p.group].IN.reg & (1<<p.pin)) != 0;
     c9e:	6a14      	ldr	r4, [r2, #32]

	for (uint8_t i = 0; i<8; ++i) {
		pinLow(SCK_PIN);
		byte = (byte << 1 ) | pinRead(MISO_PIN);
     ca0:	0040      	lsls	r0, r0, #1
     ca2:	402c      	ands	r4, r5
     ca4:	1e67      	subs	r7, r4, #1
     ca6:	41bc      	sbcs	r4, r7
     ca8:	3901      	subs	r1, #1
     caa:	4304      	orrs	r4, r0
     cac:	b2c9      	uxtb	r1, r1
     cae:	b2e0      	uxtb	r0, r4
    pinGpio(p);
    PORT->Group[p.group].DIRSET.reg = (1<<p.pin);
}

inline static void pinHigh(Pin p) {
    PORT->Group[p.group].OUTSET.reg = (1<<p.pin);
     cb0:	619e      	str	r6, [r3, #24]
}

uint8_t byteIn(Pin SCK_PIN, Pin MISO_PIN) {
	uint8_t byte = 0x00;

	for (uint8_t i = 0; i<8; ++i) {
     cb2:	2900      	cmp	r1, #0
     cb4:	d1f2      	bne.n	c9c <byteIn+0x30>
		pinLow(SCK_PIN);
		byte = (byte << 1 ) | pinRead(MISO_PIN);
		pinHigh(SCK_PIN);
	}
	return byte;
     cb6:	b005      	add	sp, #20
     cb8:	bdf0      	pop	{r4, r5, r6, r7, pc}
     cba:	46c0      	nop			; (mov r8, r8)
     cbc:	41004400 	.word	0x41004400

00000cc0 <beep>:
#include <util.h>
#include <boardDefines.h>


void beep(u16_t toggles) {
     cc0:	b5f8      	push	{r3, r4, r5, r6, r7, lr}
    PORT->Group[p.group].OUTCLR.reg = (1<<p.pin);
}


inline static void pinToggle(Pin p) {
    PORT->Group[p.group].OUTTGL.reg = (1<<p.pin);
     cc2:	2380      	movs	r3, #128	; 0x80
     cc4:	2780      	movs	r7, #128	; 0x80
     cc6:	0006      	movs	r6, r0

    pinToggle(LedPin);
    for (u16_t buzz = 0; buzz < toggles; ++buzz) {
     cc8:	2500      	movs	r5, #0
     cca:	4c0a      	ldr	r4, [pc, #40]	; (cf4 <beep+0x34>)
     ccc:	035b      	lsls	r3, r3, #13
     cce:	61e3      	str	r3, [r4, #28]
     cd0:	03bf      	lsls	r7, r7, #14
     cd2:	42b5      	cmp	r5, r6
     cd4:	d006      	beq.n	ce4 <beep+0x24>
     cd6:	61e7      	str	r7, [r4, #28]
        pinToggle(buzzerPin);
        delay_us(122);
     cd8:	207a      	movs	r0, #122	; 0x7a
     cda:	4b07      	ldr	r3, [pc, #28]	; (cf8 <beep+0x38>)


void beep(u16_t toggles) {

    pinToggle(LedPin);
    for (u16_t buzz = 0; buzz < toggles; ++buzz) {
     cdc:	3501      	adds	r5, #1
        pinToggle(buzzerPin);
        delay_us(122);
     cde:	4798      	blx	r3


void beep(u16_t toggles) {

    pinToggle(LedPin);
    for (u16_t buzz = 0; buzz < toggles; ++buzz) {
     ce0:	b2ad      	uxth	r5, r5
     ce2:	e7f6      	b.n	cd2 <beep+0x12>
    PORT->Group[p.group].OUTSET.reg = (1<<p.pin);
}


inline static void pinLow(Pin p) {
    PORT->Group[p.group].OUTCLR.reg = (1<<p.pin);
     ce4:	2380      	movs	r3, #128	; 0x80
     ce6:	039b      	lsls	r3, r3, #14
     ce8:	6163      	str	r3, [r4, #20]
}


inline static void pinToggle(Pin p) {
    PORT->Group[p.group].OUTTGL.reg = (1<<p.pin);
     cea:	2380      	movs	r3, #128	; 0x80
     cec:	035b      	lsls	r3, r3, #13
     cee:	61e3      	str	r3, [r4, #28]
    }
    pinLow(buzzerPin);
    pinToggle(LedPin);


}
     cf0:	bdf8      	pop	{r3, r4, r5, r6, r7, pc}
     cf2:	46c0      	nop			; (mov r8, r8)
     cf4:	41004400 	.word	0x41004400
     cf8:	00000e71 	.word	0x00000e71

00000cfc <GclkInit>:
static uint32_t cycles_per_us = 48000000UL / 1000000;

void GclkInit() {


    SYSCTRL->INTFLAG.reg = SYSCTRL_INTFLAG_BOD33RDY | SYSCTRL_INTFLAG_BOD33DET |
     cfc:	23c2      	movs	r3, #194	; 0xc2
                           SYSCTRL_INTFLAG_DFLLRDY;
    NVMCTRL->CTRLB.reg |= NVMCTRL_CTRLB_RWS_HALF;
     cfe:	2002      	movs	r0, #2


static uint32_t cycles_per_ms = 48000000UL / 1000;
static uint32_t cycles_per_us = 48000000UL / 1000000;

void GclkInit() {
     d00:	b510      	push	{r4, lr}


    SYSCTRL->INTFLAG.reg = SYSCTRL_INTFLAG_BOD33RDY | SYSCTRL_INTFLAG_BOD33DET |
     d02:	4916      	ldr	r1, [pc, #88]	; (d5c <GclkInit+0x60>)
                           SYSCTRL_INTFLAG_DFLLRDY;
    NVMCTRL->CTRLB.reg |= NVMCTRL_CTRLB_RWS_HALF;
     d04:	4a16      	ldr	r2, [pc, #88]	; (d60 <GclkInit+0x64>)
static uint32_t cycles_per_us = 48000000UL / 1000000;

void GclkInit() {


    SYSCTRL->INTFLAG.reg = SYSCTRL_INTFLAG_BOD33RDY | SYSCTRL_INTFLAG_BOD33DET |
     d06:	00db      	lsls	r3, r3, #3
     d08:	608b      	str	r3, [r1, #8]
                           SYSCTRL_INTFLAG_DFLLRDY;
    NVMCTRL->CTRLB.reg |= NVMCTRL_CTRLB_RWS_HALF;
     d0a:	6853      	ldr	r3, [r2, #4]
     d0c:	4303      	orrs	r3, r0
     d0e:	6053      	str	r3, [r2, #4]

#define NVM_DFLL_COARSE_POS    58
#define NVM_DFLL_COARSE_SIZE   6
#define NVM_DFLL_FINE_POS      64
#define NVM_DFLL_FINE_SIZE     10
    uint32_t coarse =( *((uint32_t *)(NVMCTRL_OTP4)
     d10:	4b14      	ldr	r3, [pc, #80]	; (d64 <GclkInit+0x68>)
     d12:	681a      	ldr	r2, [r3, #0]
     d14:	0e92      	lsrs	r2, r2, #26
                         + (NVM_DFLL_COARSE_POS / 32))
                       >> (NVM_DFLL_COARSE_POS % 32))
                     & ((1 << NVM_DFLL_COARSE_SIZE) - 1);
    if (coarse == 0x3f) {
     d16:	2a3f      	cmp	r2, #63	; 0x3f
     d18:	d100      	bne.n	d1c <GclkInit+0x20>
        coarse = 0x1f;
     d1a:	3a20      	subs	r2, #32
    }
    uint32_t fine =( *((uint32_t *)(NVMCTRL_OTP4)
                       + (NVM_DFLL_FINE_POS / 32))
                     >> (NVM_DFLL_FINE_POS % 32))
     d1c:	4b12      	ldr	r3, [pc, #72]	; (d68 <GclkInit+0x6c>)
                   & ((1 << NVM_DFLL_FINE_SIZE) - 1);
    if (fine == 0x3ff) {
     d1e:	4813      	ldr	r0, [pc, #76]	; (d6c <GclkInit+0x70>)
                       >> (NVM_DFLL_COARSE_POS % 32))
                     & ((1 << NVM_DFLL_COARSE_SIZE) - 1);
    if (coarse == 0x3f) {
        coarse = 0x1f;
    }
    uint32_t fine =( *((uint32_t *)(NVMCTRL_OTP4)
     d20:	681b      	ldr	r3, [r3, #0]
     d22:	059b      	lsls	r3, r3, #22
     d24:	0d9b      	lsrs	r3, r3, #22
                       + (NVM_DFLL_FINE_POS / 32))
                     >> (NVM_DFLL_FINE_POS % 32))
                   & ((1 << NVM_DFLL_FINE_SIZE) - 1);
    if (fine == 0x3ff) {
     d26:	4283      	cmp	r3, r0
     d28:	d100      	bne.n	d2c <GclkInit+0x30>
        fine = 0x1ff;
     d2a:	4b11      	ldr	r3, [pc, #68]	; (d70 <GclkInit+0x74>)
    }


    // Disable ONDEMAND mode while writing configurations (errata 9905)
    SYSCTRL->DFLLCTRL.reg = dfll_ctrl_usb & ~SYSCTRL_DFLLCTRL_ONDEMAND;
     d2c:	4811      	ldr	r0, [pc, #68]	; (d74 <GclkInit+0x78>)
     d2e:	8488      	strh	r0, [r1, #36]	; 0x24
    while((SYSCTRL->PCLKSR.reg & (SYSCTRL_PCLKSR_DFLLRDY)) == 0);
     d30:	2010      	movs	r0, #16
     d32:	68cc      	ldr	r4, [r1, #12]
     d34:	4204      	tst	r4, r0
     d36:	d0fc      	beq.n	d32 <GclkInit+0x36>
    SYSCTRL->DFLLVAL.reg = SYSCTRL_DFLLVAL_COARSE(coarse) | SYSCTRL_DFLLVAL_FINE(fine);
     d38:	0292      	lsls	r2, r2, #10
     d3a:	4313      	orrs	r3, r2
     d3c:	4a07      	ldr	r2, [pc, #28]	; (d5c <GclkInit+0x60>)
     d3e:	6293      	str	r3, [r2, #40]	; 0x28


    //Wait and see if the DFLL output is good . . .
    while((SYSCTRL->PCLKSR.reg & (SYSCTRL_PCLKSR_DFLLRDY)) == 0);
     d40:	2310      	movs	r3, #16
     d42:	68ca      	ldr	r2, [r1, #12]
     d44:	421a      	tst	r2, r3
     d46:	d0fc      	beq.n	d42 <GclkInit+0x46>


    SYSCTRL->DFLLCTRL.reg = dfll_ctrl_usb;
     d48:	4a0b      	ldr	r2, [pc, #44]	; (d78 <GclkInit+0x7c>)
     d4a:	4b04      	ldr	r3, [pc, #16]	; (d5c <GclkInit+0x60>)
     d4c:	849a      	strh	r2, [r3, #36]	; 0x24


    //For generic clock generator 0, select the DFLL48 Clock as input
    GCLK->GENDIV.reg  = (GCLK_GENDIV_DIV(1)  | GCLK_GENDIV_ID(0));
     d4e:	2280      	movs	r2, #128	; 0x80
     d50:	4b0a      	ldr	r3, [pc, #40]	; (d7c <GclkInit+0x80>)
     d52:	0052      	lsls	r2, r2, #1
     d54:	609a      	str	r2, [r3, #8]
    GCLK->GENCTRL.reg = (GCLK_GENCTRL_ID(0)  | (GCLK_GENCTRL_SRC_DFLL48M) | (GCLK_GENCTRL_GENEN));
     d56:	4a0a      	ldr	r2, [pc, #40]	; (d80 <GclkInit+0x84>)
     d58:	605a      	str	r2, [r3, #4]
}
     d5a:	bd10      	pop	{r4, pc}
     d5c:	40000800 	.word	0x40000800
     d60:	41004000 	.word	0x41004000
     d64:	00806024 	.word	0x00806024
     d68:	00806028 	.word	0x00806028
     d6c:	000003ff 	.word	0x000003ff
     d70:	000001ff 	.word	0x000001ff
     d74:	00000522 	.word	0x00000522
     d78:	000005a2 	.word	0x000005a2
     d7c:	40000c00 	.word	0x40000c00
     d80:	00010700 	.word	0x00010700

00000d84 <RtcInit>:

void RtcInit() {
	
	    // start and enable external 32k crystal
	    SYSCTRL->XOSC32K.reg = SYSCTRL_XOSC32K_ENABLE |
     d84:	4a1d      	ldr	r2, [pc, #116]	; (dfc <RtcInit+0x78>)
     d86:	4b1e      	ldr	r3, [pc, #120]	; (e00 <RtcInit+0x7c>)
     d88:	829a      	strh	r2, [r3, #20]
	    SYSCTRL_XOSC32K_XTALEN |
	    SYSCTRL_XOSC32K_EN32K |
	    ( 6 << SYSCTRL_OSC32K_STARTUP_Pos);

	    //wait for crystal to warm up
	    while((SYSCTRL->PCLKSR.reg & (SYSCTRL_PCLKSR_XOSC32KRDY)) == 0);
     d8a:	2202      	movs	r2, #2
     d8c:	68d9      	ldr	r1, [r3, #12]
     d8e:	4211      	tst	r1, r2
     d90:	d0fc      	beq.n	d8c <RtcInit+0x8>
*/




    GCLK->GENDIV.reg = GCLK_GENDIV_ID(2) | GCLK_GENDIV_DIV(1);
     d92:	2281      	movs	r2, #129	; 0x81
     d94:	4b1b      	ldr	r3, [pc, #108]	; (e04 <RtcInit+0x80>)
     d96:	0052      	lsls	r2, r2, #1
     d98:	609a      	str	r2, [r3, #8]

    GCLK->GENCTRL.reg = GCLK_GENCTRL_ID(2) |
     d9a:	4a1b      	ldr	r2, [pc, #108]	; (e08 <RtcInit+0x84>)
     d9c:	605a      	str	r2, [r3, #4]
                        GCLK_GENCTRL_SRC(GCLK_GENCTRL_SRC_XOSC32K) |
                        GCLK_GENCTRL_IDC |
                        GCLK_GENCTRL_RUNSTDBY |
                        GCLK_GENCTRL_GENEN;
    while (GCLK->STATUS.reg & GCLK_STATUS_SYNCBUSY);
     d9e:	785a      	ldrb	r2, [r3, #1]
     da0:	b252      	sxtb	r2, r2
     da2:	2a00      	cmp	r2, #0
     da4:	dbfb      	blt.n	d9e <RtcInit+0x1a>

// Configure RTC
    GCLK->CLKCTRL.reg = GCLK_CLKCTRL_ID(RTC_GCLK_ID) |
     da6:	4a19      	ldr	r2, [pc, #100]	; (e0c <RtcInit+0x88>)
     da8:	4b16      	ldr	r3, [pc, #88]	; (e04 <RtcInit+0x80>)
     daa:	805a      	strh	r2, [r3, #2]
                        GCLK_CLKCTRL_CLKEN |
                        GCLK_CLKCTRL_GEN(2);

    RTC->MODE1.CTRL.reg = RTC_MODE1_CTRL_MODE_COUNT16;
     dac:	2204      	movs	r2, #4
     dae:	4b18      	ldr	r3, [pc, #96]	; (e10 <RtcInit+0x8c>)
     db0:	801a      	strh	r2, [r3, #0]
    while (RTC->MODE1.STATUS.bit.SYNCBUSY);
     db2:	7a9a      	ldrb	r2, [r3, #10]
     db4:	4916      	ldr	r1, [pc, #88]	; (e10 <RtcInit+0x8c>)
     db6:	09d2      	lsrs	r2, r2, #7
     db8:	d1fb      	bne.n	db2 <RtcInit+0x2e>

// Prescaler needs to be enabled separately from the mode for some reason
    RTC->MODE1.CTRL.reg |= RTC_MODE1_CTRL_PRESCALER_DIV32;
     dba:	20a0      	movs	r0, #160	; 0xa0
     dbc:	880a      	ldrh	r2, [r1, #0]
     dbe:	00c0      	lsls	r0, r0, #3
     dc0:	4302      	orrs	r2, r0
     dc2:	800a      	strh	r2, [r1, #0]
    while (RTC->MODE1.STATUS.bit.SYNCBUSY);
     dc4:	7a9a      	ldrb	r2, [r3, #10]
     dc6:	09d2      	lsrs	r2, r2, #7
     dc8:	d1fc      	bne.n	dc4 <RtcInit+0x40>

    RTC->MODE1.PER.reg = 998;
     dca:	4912      	ldr	r1, [pc, #72]	; (e14 <RtcInit+0x90>)
     dcc:	4a10      	ldr	r2, [pc, #64]	; (e10 <RtcInit+0x8c>)
     dce:	8291      	strh	r1, [r2, #20]
    while (RTC->MODE1.STATUS.bit.SYNCBUSY);
     dd0:	7a99      	ldrb	r1, [r3, #10]
     dd2:	4a0f      	ldr	r2, [pc, #60]	; (e10 <RtcInit+0x8c>)
     dd4:	09c9      	lsrs	r1, r1, #7
     dd6:	d1fb      	bne.n	dd0 <RtcInit+0x4c>

    RTC->MODE1.READREQ.reg |= RTC_READREQ_RCONT | RTC_READREQ_ADDR(0x10);
     dd8:	8851      	ldrh	r1, [r2, #2]
     dda:	480f      	ldr	r0, [pc, #60]	; (e18 <RtcInit+0x94>)
     ddc:	4301      	orrs	r1, r0
     dde:	8051      	strh	r1, [r2, #2]

    RTC->MODE1.INTENSET.reg = RTC_MODE1_INTENSET_OVF;
     de0:	2180      	movs	r1, #128	; 0x80

    RTC->MODE1.CTRL.bit.ENABLE = 1;
     de2:	2002      	movs	r0, #2
    RTC->MODE1.PER.reg = 998;
    while (RTC->MODE1.STATUS.bit.SYNCBUSY);

    RTC->MODE1.READREQ.reg |= RTC_READREQ_RCONT | RTC_READREQ_ADDR(0x10);

    RTC->MODE1.INTENSET.reg = RTC_MODE1_INTENSET_OVF;
     de4:	71d1      	strb	r1, [r2, #7]

    RTC->MODE1.CTRL.bit.ENABLE = 1;
     de6:	8811      	ldrh	r1, [r2, #0]
     de8:	4301      	orrs	r1, r0
     dea:	8011      	strh	r1, [r2, #0]
    while (RTC->MODE1.STATUS.bit.SYNCBUSY);
     dec:	7a9a      	ldrb	r2, [r3, #10]
     dee:	09d2      	lsrs	r2, r2, #7
     df0:	d1fc      	bne.n	dec <RtcInit+0x68>

    \param [in]      IRQn  External interrupt number. Value cannot be negative.
 */
__STATIC_INLINE void NVIC_EnableIRQ(IRQn_Type IRQn)
{
  NVIC->ISER[0] = (1 << ((uint32_t)(IRQn) & 0x1F));
     df2:	4b0a      	ldr	r3, [pc, #40]	; (e1c <RtcInit+0x98>)
     df4:	3208      	adds	r2, #8
     df6:	601a      	str	r2, [r3, #0]

    NVIC_EnableIRQ(RTC_IRQn);
}
     df8:	4770      	bx	lr
     dfa:	46c0      	nop			; (mov r8, r8)
     dfc:	0000060e 	.word	0x0000060e
     e00:	40000800 	.word	0x40000800
     e04:	40000c00 	.word	0x40000c00
     e08:	00230002 	.word	0x00230002
     e0c:	00004204 	.word	0x00004204
     e10:	40001400 	.word	0x40001400
     e14:	000003e6 	.word	0x000003e6
     e18:	00004010 	.word	0x00004010
     e1c:	e000e100 	.word	0xe000e100

00000e20 <gclkEnable>:


void gclkEnable(u32_t id, u32_t src, u32_t div) {
    GCLK->GENDIV.reg = GCLK_GENDIV_ID(id) | GCLK_GENDIV_DIV(div);
     e20:	230f      	movs	r3, #15
     e22:	4018      	ands	r0, r3
     e24:	4b08      	ldr	r3, [pc, #32]	; (e48 <gclkEnable+0x28>)
     e26:	0212      	lsls	r2, r2, #8
     e28:	401a      	ands	r2, r3
    GCLK->GENCTRL.reg = GCLK_GENCTRL_ID(id) | GCLK_GENCTRL_GENEN | GCLK_GENCTRL_SRC(src);
     e2a:	23f8      	movs	r3, #248	; 0xf8
     e2c:	0209      	lsls	r1, r1, #8
     e2e:	015b      	lsls	r3, r3, #5
     e30:	4019      	ands	r1, r3
     e32:	2380      	movs	r3, #128	; 0x80

    NVIC_EnableIRQ(RTC_IRQn);
}


void gclkEnable(u32_t id, u32_t src, u32_t div) {
     e34:	b510      	push	{r4, lr}
    GCLK->GENDIV.reg = GCLK_GENDIV_ID(id) | GCLK_GENDIV_DIV(div);
    GCLK->GENCTRL.reg = GCLK_GENCTRL_ID(id) | GCLK_GENCTRL_GENEN | GCLK_GENCTRL_SRC(src);
     e36:	025b      	lsls	r3, r3, #9
    NVIC_EnableIRQ(RTC_IRQn);
}


void gclkEnable(u32_t id, u32_t src, u32_t div) {
    GCLK->GENDIV.reg = GCLK_GENDIV_ID(id) | GCLK_GENDIV_DIV(div);
     e38:	4c04      	ldr	r4, [pc, #16]	; (e4c <gclkEnable+0x2c>)
    GCLK->GENCTRL.reg = GCLK_GENCTRL_ID(id) | GCLK_GENCTRL_GENEN | GCLK_GENCTRL_SRC(src);
     e3a:	4319      	orrs	r1, r3
    NVIC_EnableIRQ(RTC_IRQn);
}


void gclkEnable(u32_t id, u32_t src, u32_t div) {
    GCLK->GENDIV.reg = GCLK_GENDIV_ID(id) | GCLK_GENDIV_DIV(div);
     e3c:	4302      	orrs	r2, r0
    GCLK->GENCTRL.reg = GCLK_GENCTRL_ID(id) | GCLK_GENCTRL_GENEN | GCLK_GENCTRL_SRC(src);
     e3e:	4308      	orrs	r0, r1
    NVIC_EnableIRQ(RTC_IRQn);
}


void gclkEnable(u32_t id, u32_t src, u32_t div) {
    GCLK->GENDIV.reg = GCLK_GENDIV_ID(id) | GCLK_GENDIV_DIV(div);
     e40:	60a2      	str	r2, [r4, #8]
    GCLK->GENCTRL.reg = GCLK_GENCTRL_ID(id) | GCLK_GENCTRL_GENEN | GCLK_GENCTRL_SRC(src);
     e42:	6060      	str	r0, [r4, #4]
}
     e44:	bd10      	pop	{r4, pc}
     e46:	46c0      	nop			; (mov r8, r8)
     e48:	00ffff00 	.word	0x00ffff00
     e4c:	40000c00 	.word	0x40000c00

00000e50 <delayInit>:


void delayInit(void) {
    cycles_per_ms = 48000000UL;
    cycles_per_ms /= 1000;
     e50:	4b04      	ldr	r3, [pc, #16]	; (e64 <delayInit+0x14>)
     e52:	4a05      	ldr	r2, [pc, #20]	; (e68 <delayInit+0x18>)
     e54:	601a      	str	r2, [r3, #0]
    cycles_per_us = cycles_per_ms / 1000;
     e56:	2230      	movs	r2, #48	; 0x30
     e58:	605a      	str	r2, [r3, #4]

    SysTick->CTRL = SysTick_CTRL_CLKSOURCE_Msk | SysTick_CTRL_ENABLE_Msk;
     e5a:	4b04      	ldr	r3, [pc, #16]	; (e6c <delayInit+0x1c>)
     e5c:	3a2b      	subs	r2, #43	; 0x2b
     e5e:	601a      	str	r2, [r3, #0]
}
     e60:	4770      	bx	lr
     e62:	46c0      	nop			; (mov r8, r8)
     e64:	20000004 	.word	0x20000004
     e68:	0000bb80 	.word	0x0000bb80
     e6c:	e000e010 	.word	0xe000e010

00000e70 <delay_us>:
/**
 * \brief Delay loop to delay at least n number of microseconds
 *
 * \param n  Number of microseconds to wait
 */
void delay_us(uint32_t n) {
     e70:	b570      	push	{r4, r5, r6, lr}
    const uint32_t n) {
    if (n > 0) {
        SysTick->LOAD = n;
        SysTick->VAL = 0;

        while (!(SysTick->CTRL & SysTick_CTRL_COUNTFLAG_Msk)) {
     e72:	2480      	movs	r4, #128	; 0x80

static inline void delay_cycles(
    const uint32_t n) {
    if (n > 0) {
        SysTick->LOAD = n;
        SysTick->VAL = 0;
     e74:	2100      	movs	r1, #0
    while (n--) {
        /* Devide up to blocks of 10u */
        delay_cycles(cycles_per_us);
     e76:	4b08      	ldr	r3, [pc, #32]	; (e98 <delay_us+0x28>)


static inline void delay_cycles(
    const uint32_t n) {
    if (n > 0) {
        SysTick->LOAD = n;
     e78:	4a08      	ldr	r2, [pc, #32]	; (e9c <delay_us+0x2c>)
     e7a:	685b      	ldr	r3, [r3, #4]
        SysTick->VAL = 0;

        while (!(SysTick->CTRL & SysTick_CTRL_COUNTFLAG_Msk)) {
     e7c:	0264      	lsls	r4, r4, #9
 * \brief Delay loop to delay at least n number of microseconds
 *
 * \param n  Number of microseconds to wait
 */
void delay_us(uint32_t n) {
    while (n--) {
     e7e:	3801      	subs	r0, #1
     e80:	d308      	bcc.n	e94 <delay_us+0x24>



static inline void delay_cycles(
    const uint32_t n) {
    if (n > 0) {
     e82:	2b00      	cmp	r3, #0
     e84:	d0fb      	beq.n	e7e <delay_us+0xe>
     e86:	4e05      	ldr	r6, [pc, #20]	; (e9c <delay_us+0x2c>)
        SysTick->LOAD = n;
     e88:	6053      	str	r3, [r2, #4]
        SysTick->VAL = 0;
     e8a:	6091      	str	r1, [r2, #8]

        while (!(SysTick->CTRL & SysTick_CTRL_COUNTFLAG_Msk)) {
     e8c:	6835      	ldr	r5, [r6, #0]
     e8e:	4225      	tst	r5, r4
     e90:	d0fc      	beq.n	e8c <delay_us+0x1c>
     e92:	e7f4      	b.n	e7e <delay_us+0xe>
        /* Devide up to blocks of 10u */
        delay_cycles(cycles_per_us);
    }
}
     e94:	bd70      	pop	{r4, r5, r6, pc}
     e96:	46c0      	nop			; (mov r8, r8)
     e98:	20000004 	.word	0x20000004
     e9c:	e000e010 	.word	0xe000e010

00000ea0 <delay_ms>:
/**
 * \brief Delay loop to delay at least n number of milliseconds
 *
 * \param n  Number of milliseconds to wait
 */
void delay_ms(uint32_t n) {
     ea0:	b570      	push	{r4, r5, r6, lr}
     ea2:	2480      	movs	r4, #128	; 0x80

static inline void delay_cycles(
    const uint32_t n) {
    if (n > 0) {
        SysTick->LOAD = n;
        SysTick->VAL = 0;
     ea4:	2100      	movs	r1, #0
    while (n--) {
        /* Devide up to blocks of 1ms */
        delay_cycles(cycles_per_ms);
     ea6:	4b08      	ldr	r3, [pc, #32]	; (ec8 <delay_ms+0x28>)


static inline void delay_cycles(
    const uint32_t n) {
    if (n > 0) {
        SysTick->LOAD = n;
     ea8:	4a08      	ldr	r2, [pc, #32]	; (ecc <delay_ms+0x2c>)
     eaa:	681b      	ldr	r3, [r3, #0]
        SysTick->VAL = 0;

        while (!(SysTick->CTRL & SysTick_CTRL_COUNTFLAG_Msk)) {
     eac:	0264      	lsls	r4, r4, #9
 * \brief Delay loop to delay at least n number of milliseconds
 *
 * \param n  Number of milliseconds to wait
 */
void delay_ms(uint32_t n) {
    while (n--) {
     eae:	3801      	subs	r0, #1
     eb0:	d308      	bcc.n	ec4 <delay_ms+0x24>



static inline void delay_cycles(
    const uint32_t n) {
    if (n > 0) {
     eb2:	2b00      	cmp	r3, #0
     eb4:	d0fb      	beq.n	eae <delay_ms+0xe>
     eb6:	4e05      	ldr	r6, [pc, #20]	; (ecc <delay_ms+0x2c>)
        SysTick->LOAD = n;
     eb8:	6053      	str	r3, [r2, #4]
        SysTick->VAL = 0;
     eba:	6091      	str	r1, [r2, #8]

        while (!(SysTick->CTRL & SysTick_CTRL_COUNTFLAG_Msk)) {
     ebc:	6835      	ldr	r5, [r6, #0]
     ebe:	4225      	tst	r5, r4
     ec0:	d0fc      	beq.n	ebc <delay_ms+0x1c>
     ec2:	e7f4      	b.n	eae <delay_ms+0xe>
        /* Devide up to blocks of 1ms */
        delay_cycles(cycles_per_ms);
    }
}
     ec4:	bd70      	pop	{r4, r5, r6, pc}
     ec6:	46c0      	nop			; (mov r8, r8)
     ec8:	20000004 	.word	0x20000004
     ecc:	e000e010 	.word	0xe000e010

00000ed0 <RTC_Handler>:


volatile uint32_t time_ms = 0;

void RTC_Handler(void) {
    time_ms += 1000;
     ed0:	21fa      	movs	r1, #250	; 0xfa
     ed2:	4a04      	ldr	r2, [pc, #16]	; (ee4 <RTC_Handler+0x14>)
     ed4:	0089      	lsls	r1, r1, #2
     ed6:	6813      	ldr	r3, [r2, #0]
     ed8:	185b      	adds	r3, r3, r1
     eda:	6013      	str	r3, [r2, #0]
    RTC->MODE1.INTFLAG.reg = 0xFF;
     edc:	22ff      	movs	r2, #255	; 0xff
     ede:	4b02      	ldr	r3, [pc, #8]	; (ee8 <RTC_Handler+0x18>)
     ee0:	721a      	strb	r2, [r3, #8]
}
     ee2:	4770      	bx	lr
     ee4:	2000045c 	.word	0x2000045c
     ee8:	40001400 	.word	0x40001400

00000eec <millis>:

uint32_t millis(void) {
     eec:	b530      	push	{r4, r5, lr}
    uint32_t ms;
    ATOMIC_SECTION_ENTER
     eee:	f3ef 8110 	mrs	r1, PRIMASK
     ef2:	b672      	cpsid	i
    ms = time_ms + RTC->MODE1.COUNT.reg;
     ef4:	4a08      	ldr	r2, [pc, #32]	; (f18 <millis+0x2c>)
     ef6:	4d09      	ldr	r5, [pc, #36]	; (f1c <millis+0x30>)
     ef8:	8a10      	ldrh	r0, [r2, #16]
     efa:	682b      	ldr	r3, [r5, #0]
    if (RTC->MODE1.INTFLAG.bit.OVF)
     efc:	7a14      	ldrb	r4, [r2, #8]
}

uint32_t millis(void) {
    uint32_t ms;
    ATOMIC_SECTION_ENTER
    ms = time_ms + RTC->MODE1.COUNT.reg;
     efe:	b280      	uxth	r0, r0
    if (RTC->MODE1.INTFLAG.bit.OVF)
     f00:	09e4      	lsrs	r4, r4, #7
     f02:	d004      	beq.n	f0e <millis+0x22>
        ms = time_ms + RTC->MODE1.COUNT.reg + 1000;
     f04:	8a13      	ldrh	r3, [r2, #16]
     f06:	22fa      	movs	r2, #250	; 0xfa
     f08:	6828      	ldr	r0, [r5, #0]
     f0a:	0092      	lsls	r2, r2, #2
     f0c:	1880      	adds	r0, r0, r2
     f0e:	18c0      	adds	r0, r0, r3
    ATOMIC_SECTION_LEAVE
     f10:	f381 8810 	msr	PRIMASK, r1
    return ms;
}
     f14:	bd30      	pop	{r4, r5, pc}
     f16:	46c0      	nop			; (mov r8, r8)
     f18:	40001400 	.word	0x40001400
     f1c:	2000045c 	.word	0x2000045c

00000f20 <TC4Init>:

    GCLK->CLKCTRL.reg = GCLK_CLKCTRL_ID(TC4_GCLK_ID) |
                        GCLK_CLKCTRL_CLKEN |
                        GCLK_CLKCTRL_GEN(2);

    PM->APBCMASK.reg |= PM_APBCMASK_TC4;
     f20:	2180      	movs	r1, #128	; 0x80
    return ms;
}

void TC4Init() {

    GCLK->CLKCTRL.reg = GCLK_CLKCTRL_ID(TC4_GCLK_ID) |
     f22:	4a0d      	ldr	r2, [pc, #52]	; (f58 <TC4Init+0x38>)
     f24:	4b0d      	ldr	r3, [pc, #52]	; (f5c <TC4Init+0x3c>)
                        GCLK_CLKCTRL_CLKEN |
                        GCLK_CLKCTRL_GEN(2);

    PM->APBCMASK.reg |= PM_APBCMASK_TC4;
     f26:	0149      	lsls	r1, r1, #5
    return ms;
}

void TC4Init() {

    GCLK->CLKCTRL.reg = GCLK_CLKCTRL_ID(TC4_GCLK_ID) |
     f28:	805a      	strh	r2, [r3, #2]
                        GCLK_CLKCTRL_CLKEN |
                        GCLK_CLKCTRL_GEN(2);

    PM->APBCMASK.reg |= PM_APBCMASK_TC4;
     f2a:	4a0d      	ldr	r2, [pc, #52]	; (f60 <TC4Init+0x40>)
     f2c:	6a13      	ldr	r3, [r2, #32]
     f2e:	430b      	orrs	r3, r1
     f30:	6213      	str	r3, [r2, #32]

    TC4->COUNT8.CTRLA.reg = TC_CTRLA_MODE_COUNT8 |
     f32:	4b0c      	ldr	r3, [pc, #48]	; (f64 <TC4Init+0x44>)
     f34:	4a0c      	ldr	r2, [pc, #48]	; (f68 <TC4Init+0x48>)

    TC4->COUNT8.INTENSET.reg = TC_INTENSET_OVF;

    TC4->COUNT8.EVCTRL.reg = TC_EVCTRL_OVFEO;

    TC4->COUNT8.CTRLA.reg |= TC_CTRLA_ENABLE;
     f36:	2102      	movs	r1, #2
                        GCLK_CLKCTRL_CLKEN |
                        GCLK_CLKCTRL_GEN(2);

    PM->APBCMASK.reg |= PM_APBCMASK_TC4;

    TC4->COUNT8.CTRLA.reg = TC_CTRLA_MODE_COUNT8 |
     f38:	801a      	strh	r2, [r3, #0]
                            TC_CTRLA_RUNSTDBY |
                            TC_CTRLA_PRESCALER_DIV2;
    TC4->COUNT8.PER.reg = 0x41;
     f3a:	2241      	movs	r2, #65	; 0x41
     f3c:	751a      	strb	r2, [r3, #20]

    TC4->COUNT8.INTENSET.reg = TC_INTENSET_OVF;
     f3e:	3a40      	subs	r2, #64	; 0x40
     f40:	735a      	strb	r2, [r3, #13]

    TC4->COUNT8.EVCTRL.reg = TC_EVCTRL_OVFEO;
     f42:	32ff      	adds	r2, #255	; 0xff
     f44:	815a      	strh	r2, [r3, #10]

    TC4->COUNT8.CTRLA.reg |= TC_CTRLA_ENABLE;
     f46:	881a      	ldrh	r2, [r3, #0]
     f48:	430a      	orrs	r2, r1
     f4a:	801a      	strh	r2, [r3, #0]
     f4c:	2280      	movs	r2, #128	; 0x80
     f4e:	4b07      	ldr	r3, [pc, #28]	; (f6c <TC4Init+0x4c>)
     f50:	0312      	lsls	r2, r2, #12
     f52:	601a      	str	r2, [r3, #0]

    NVIC_EnableIRQ(TC4_IRQn);
}
     f54:	4770      	bx	lr
     f56:	46c0      	nop			; (mov r8, r8)
     f58:	0000421c 	.word	0x0000421c
     f5c:	40000c00 	.word	0x40000c00
     f60:	40000400 	.word	0x40000400
     f64:	42003000 	.word	0x42003000
     f68:	00000904 	.word	0x00000904
     f6c:	e000e100 	.word	0xe000e100

00000f70 <TC4_Handler>:

void TC4_Handler( void ) {
    TC4->COUNT8.INTFLAG.reg = 0xFF;
     f70:	22ff      	movs	r2, #255	; 0xff
     f72:	4b03      	ldr	r3, [pc, #12]	; (f80 <TC4_Handler+0x10>)
     f74:	739a      	strb	r2, [r3, #14]
    takeSample = true;
     f76:	4b03      	ldr	r3, [pc, #12]	; (f84 <TC4_Handler+0x14>)
     f78:	3afe      	subs	r2, #254	; 0xfe
     f7a:	701a      	strb	r2, [r3, #0]
}
     f7c:	4770      	bx	lr
     f7e:	46c0      	nop			; (mov r8, r8)
     f80:	42003000 	.word	0x42003000
     f84:	20000463 	.word	0x20000463

00000f88 <TC5Init>:

    GCLK->CLKCTRL.reg = GCLK_CLKCTRL_ID(TC5_GCLK_ID) |
                        GCLK_CLKCTRL_CLKEN |
                        GCLK_CLKCTRL_GEN(2);

    PM->APBCMASK.reg |= PM_APBCMASK_TC5;
     f88:	2180      	movs	r1, #128	; 0x80
    takeSample = true;
}

void TC5Init() {

    GCLK->CLKCTRL.reg = GCLK_CLKCTRL_ID(TC5_GCLK_ID) |
     f8a:	4a0d      	ldr	r2, [pc, #52]	; (fc0 <TC5Init+0x38>)
     f8c:	4b0d      	ldr	r3, [pc, #52]	; (fc4 <TC5Init+0x3c>)
                        GCLK_CLKCTRL_CLKEN |
                        GCLK_CLKCTRL_GEN(2);

    PM->APBCMASK.reg |= PM_APBCMASK_TC5;
     f8e:	0189      	lsls	r1, r1, #6
    takeSample = true;
}

void TC5Init() {

    GCLK->CLKCTRL.reg = GCLK_CLKCTRL_ID(TC5_GCLK_ID) |
     f90:	805a      	strh	r2, [r3, #2]
                        GCLK_CLKCTRL_CLKEN |
                        GCLK_CLKCTRL_GEN(2);

    PM->APBCMASK.reg |= PM_APBCMASK_TC5;
     f92:	4a0d      	ldr	r2, [pc, #52]	; (fc8 <TC5Init+0x40>)
     f94:	6a13      	ldr	r3, [r2, #32]
     f96:	430b      	orrs	r3, r1
     f98:	6213      	str	r3, [r2, #32]

    TC5->COUNT8.CTRLA.reg = TC_CTRLA_MODE_COUNT8 |
     f9a:	4b0c      	ldr	r3, [pc, #48]	; (fcc <TC5Init+0x44>)
     f9c:	4a0c      	ldr	r2, [pc, #48]	; (fd0 <TC5Init+0x48>)

    TC5->COUNT8.INTENSET.reg = TC_INTENSET_OVF;

    TC5->COUNT8.EVCTRL.reg = TC_EVCTRL_OVFEO;

    TC5->COUNT8.CTRLA.reg |= TC_CTRLA_ENABLE;
     f9e:	2102      	movs	r1, #2
                        GCLK_CLKCTRL_CLKEN |
                        GCLK_CLKCTRL_GEN(2);

    PM->APBCMASK.reg |= PM_APBCMASK_TC5;

    TC5->COUNT8.CTRLA.reg = TC_CTRLA_MODE_COUNT8 |
     fa0:	801a      	strh	r2, [r3, #0]
                            TC_CTRLA_RUNSTDBY |
                            TC_CTRLA_PRESCALER_DIV64;
							
    TC5->COUNT8.PER.reg = 0x20;
     fa2:	2220      	movs	r2, #32
     fa4:	751a      	strb	r2, [r3, #20]

    TC5->COUNT8.INTENSET.reg = TC_INTENSET_OVF;
     fa6:	3a1f      	subs	r2, #31
     fa8:	735a      	strb	r2, [r3, #13]

    TC5->COUNT8.EVCTRL.reg = TC_EVCTRL_OVFEO;
     faa:	32ff      	adds	r2, #255	; 0xff
     fac:	815a      	strh	r2, [r3, #10]

    TC5->COUNT8.CTRLA.reg |= TC_CTRLA_ENABLE;
     fae:	881a      	ldrh	r2, [r3, #0]
     fb0:	430a      	orrs	r2, r1
     fb2:	801a      	strh	r2, [r3, #0]
     fb4:	2280      	movs	r2, #128	; 0x80
     fb6:	4b07      	ldr	r3, [pc, #28]	; (fd4 <TC5Init+0x4c>)
     fb8:	0352      	lsls	r2, r2, #13
     fba:	601a      	str	r2, [r3, #0]

    NVIC_EnableIRQ(TC5_IRQn);
}
     fbc:	4770      	bx	lr
     fbe:	46c0      	nop			; (mov r8, r8)
     fc0:	0000421c 	.word	0x0000421c
     fc4:	40000c00 	.word	0x40000c00
     fc8:	40000400 	.word	0x40000400
     fcc:	42003400 	.word	0x42003400
     fd0:	00000d04 	.word	0x00000d04
     fd4:	e000e100 	.word	0xe000e100

00000fd8 <TC5_Handler>:

void TC5_Handler( void ) {
    TC5->COUNT8.INTFLAG.reg = 0xFF;
     fd8:	22ff      	movs	r2, #255	; 0xff
     fda:	4b03      	ldr	r3, [pc, #12]	; (fe8 <TC5_Handler+0x10>)
     fdc:	739a      	strb	r2, [r3, #14]
    writeLog = true;
     fde:	4b03      	ldr	r3, [pc, #12]	; (fec <TC5_Handler+0x14>)
     fe0:	3afe      	subs	r2, #254	; 0xfe
     fe2:	701a      	strb	r2, [r3, #0]
     fe4:	4770      	bx	lr
     fe6:	46c0      	nop			; (mov r8, r8)
     fe8:	42003400 	.word	0x42003400
     fec:	20000461 	.word	0x20000461

00000ff0 <dmaInit>:
#include <util.h>

DMA_DESC_ALIGN DmacDescriptor dma_descriptors[12];
DMA_DESC_ALIGN DmacDescriptor dma_descriptors_wb[12];

void dmaInit() {
     ff0:	b5f8      	push	{r3, r4, r5, r6, r7, lr}
	memset(&dma_descriptors, 0, sizeof(dma_descriptors));
     ff2:	27c0      	movs	r7, #192	; 0xc0
     ff4:	4d10      	ldr	r5, [pc, #64]	; (1038 <dmaInit+0x48>)
     ff6:	003a      	movs	r2, r7
     ff8:	4e10      	ldr	r6, [pc, #64]	; (103c <dmaInit+0x4c>)
     ffa:	0028      	movs	r0, r5
     ffc:	2100      	movs	r1, #0
     ffe:	47b0      	blx	r6
	memset(&dma_descriptors_wb, 0, sizeof(dma_descriptors_wb));
    1000:	4c0f      	ldr	r4, [pc, #60]	; (1040 <dmaInit+0x50>)
    1002:	003a      	movs	r2, r7
    1004:	2100      	movs	r1, #0
    1006:	0020      	movs	r0, r4
    1008:	47b0      	blx	r6

	PM->AHBMASK.reg |= PM_AHBMASK_DMAC;
    100a:	2120      	movs	r1, #32
    100c:	4b0d      	ldr	r3, [pc, #52]	; (1044 <dmaInit+0x54>)
    100e:	695a      	ldr	r2, [r3, #20]
    1010:	430a      	orrs	r2, r1
    1012:	615a      	str	r2, [r3, #20]
	PM->APBBMASK.reg |= PM_APBBMASK_DMAC;
    1014:	69da      	ldr	r2, [r3, #28]
    1016:	3910      	subs	r1, #16
    1018:	430a      	orrs	r2, r1
    101a:	61da      	str	r2, [r3, #28]

	DMAC->CTRL.bit.DMAENABLE = 0;
    101c:	4b0a      	ldr	r3, [pc, #40]	; (1048 <dmaInit+0x58>)
    101e:	390e      	subs	r1, #14
    1020:	881a      	ldrh	r2, [r3, #0]
    1022:	438a      	bics	r2, r1
    1024:	801a      	strh	r2, [r3, #0]
	DMAC->CTRL.bit.SWRST = 1;
    1026:	881a      	ldrh	r2, [r3, #0]
    1028:	3901      	subs	r1, #1
    102a:	430a      	orrs	r2, r1
    102c:	801a      	strh	r2, [r3, #0]

	DMAC->BASEADDR.reg = (unsigned) &dma_descriptors;
	DMAC->WRBADDR.reg = (unsigned) &dma_descriptors_wb;

	DMAC->CTRL.reg = DMAC_CTRL_DMAENABLE | DMAC_CTRL_LVLEN(0xf);
    102e:	4a07      	ldr	r2, [pc, #28]	; (104c <dmaInit+0x5c>)
	PM->APBBMASK.reg |= PM_APBBMASK_DMAC;

	DMAC->CTRL.bit.DMAENABLE = 0;
	DMAC->CTRL.bit.SWRST = 1;

	DMAC->BASEADDR.reg = (unsigned) &dma_descriptors;
    1030:	635d      	str	r5, [r3, #52]	; 0x34
	DMAC->WRBADDR.reg = (unsigned) &dma_descriptors_wb;
    1032:	639c      	str	r4, [r3, #56]	; 0x38

	DMAC->CTRL.reg = DMAC_CTRL_DMAENABLE | DMAC_CTRL_LVLEN(0xf);
    1034:	801a      	strh	r2, [r3, #0]
}
    1036:	bdf8      	pop	{r3, r4, r5, r6, r7, pc}
    1038:	20000530 	.word	0x20000530
    103c:	00003221 	.word	0x00003221
    1040:	20000470 	.word	0x20000470
    1044:	40000400 	.word	0x40000400
    1048:	41004800 	.word	0x41004800
    104c:	00000f02 	.word	0x00000f02

00001050 <flight>:
#include <util.h>
#include <boardDefines.h>



void flight(Altimeter *my_altimeter) {
    1050:	b5f0      	push	{r4, r5, r6, r7, lr}



    switch(my_altimeter->myFlightState) {
    1052:	7803      	ldrb	r3, [r0, #0]
#include <util.h>
#include <boardDefines.h>



void flight(Altimeter *my_altimeter) {
    1054:	b085      	sub	sp, #20
    1056:	0004      	movs	r4, r0



    switch(my_altimeter->myFlightState) {
    1058:	2b00      	cmp	r3, #0
    105a:	d178      	bne.n	114e <flight+0xfe>
    case flightStatrup:

        my_altimeter->myIMU.gravityOffsetBuffer = 	my_altimeter->myIMU.gravityOffsetBuffer*0.5 + my_altimeter->myIMU.accelZ*0.5;
    105c:	4d3d      	ldr	r5, [pc, #244]	; (1154 <flight+0x104>)
    105e:	6c40      	ldr	r0, [r0, #68]	; 0x44
    1060:	47a8      	blx	r5
    1062:	2200      	movs	r2, #0
    1064:	4b3c      	ldr	r3, [pc, #240]	; (1158 <flight+0x108>)
    1066:	4e3d      	ldr	r6, [pc, #244]	; (115c <flight+0x10c>)
    1068:	47b0      	blx	r6
    106a:	0006      	movs	r6, r0
    106c:	6da0      	ldr	r0, [r4, #88]	; 0x58
    106e:	000f      	movs	r7, r1
    1070:	47a8      	blx	r5
    1072:	4d3a      	ldr	r5, [pc, #232]	; (115c <flight+0x10c>)
    1074:	2200      	movs	r2, #0
    1076:	4b38      	ldr	r3, [pc, #224]	; (1158 <flight+0x108>)
    1078:	47a8      	blx	r5
    107a:	4d39      	ldr	r5, [pc, #228]	; (1160 <flight+0x110>)
    107c:	0002      	movs	r2, r0
    107e:	000b      	movs	r3, r1
    1080:	0030      	movs	r0, r6
    1082:	0039      	movs	r1, r7
    1084:	47a8      	blx	r5
    1086:	4b37      	ldr	r3, [pc, #220]	; (1164 <flight+0x114>)
    1088:	4798      	blx	r3
        my_altimeter->myIMU.gravityOffsetBufferRaw = 	my_altimeter->myIMU.gravityOffsetBufferRaw*0.5 + my_altimeter->myIMU.accelZRaw*0.5;
    108a:	0023      	movs	r3, r4
    108c:	3348      	adds	r3, #72	; 0x48
    108e:	9301      	str	r3, [sp, #4]


    switch(my_altimeter->myFlightState) {
    case flightStatrup:

        my_altimeter->myIMU.gravityOffsetBuffer = 	my_altimeter->myIMU.gravityOffsetBuffer*0.5 + my_altimeter->myIMU.accelZ*0.5;
    1090:	6460      	str	r0, [r4, #68]	; 0x44
        my_altimeter->myIMU.gravityOffsetBufferRaw = 	my_altimeter->myIMU.gravityOffsetBufferRaw*0.5 + my_altimeter->myIMU.accelZRaw*0.5;
    1092:	8818      	ldrh	r0, [r3, #0]
    1094:	4d34      	ldr	r5, [pc, #208]	; (1168 <flight+0x118>)
    1096:	47a8      	blx	r5
    1098:	2200      	movs	r2, #0
    109a:	4e30      	ldr	r6, [pc, #192]	; (115c <flight+0x10c>)
    109c:	4b2e      	ldr	r3, [pc, #184]	; (1158 <flight+0x108>)
    109e:	47b0      	blx	r6
    10a0:	0023      	movs	r3, r4
    10a2:	3370      	adds	r3, #112	; 0x70
    10a4:	0006      	movs	r6, r0
    10a6:	8818      	ldrh	r0, [r3, #0]
    10a8:	000f      	movs	r7, r1
    10aa:	47a8      	blx	r5
    10ac:	4d2b      	ldr	r5, [pc, #172]	; (115c <flight+0x10c>)
    10ae:	2200      	movs	r2, #0
    10b0:	4b29      	ldr	r3, [pc, #164]	; (1158 <flight+0x108>)
    10b2:	47a8      	blx	r5
    10b4:	4d2a      	ldr	r5, [pc, #168]	; (1160 <flight+0x110>)
    10b6:	0002      	movs	r2, r0
    10b8:	000b      	movs	r3, r1
    10ba:	0030      	movs	r0, r6
    10bc:	0039      	movs	r1, r7
    10be:	47a8      	blx	r5
    10c0:	4b2a      	ldr	r3, [pc, #168]	; (116c <flight+0x11c>)
    10c2:	4798      	blx	r3
    10c4:	9b01      	ldr	r3, [sp, #4]
        my_altimeter->myBarometer.groundOffsetBuffer = my_altimeter->myBarometer.groundOffsetBuffer*0.5 + my_altimeter->myBarometer.heightCm*0.5;
    10c6:	4d2a      	ldr	r5, [pc, #168]	; (1170 <flight+0x120>)

    switch(my_altimeter->myFlightState) {
    case flightStatrup:

        my_altimeter->myIMU.gravityOffsetBuffer = 	my_altimeter->myIMU.gravityOffsetBuffer*0.5 + my_altimeter->myIMU.accelZ*0.5;
        my_altimeter->myIMU.gravityOffsetBufferRaw = 	my_altimeter->myIMU.gravityOffsetBufferRaw*0.5 + my_altimeter->myIMU.accelZRaw*0.5;
    10c8:	8018      	strh	r0, [r3, #0]
        my_altimeter->myBarometer.groundOffsetBuffer = my_altimeter->myBarometer.groundOffsetBuffer*0.5 + my_altimeter->myBarometer.heightCm*0.5;
    10ca:	6b20      	ldr	r0, [r4, #48]	; 0x30
    10cc:	47a8      	blx	r5
    10ce:	4e23      	ldr	r6, [pc, #140]	; (115c <flight+0x10c>)
    10d0:	2200      	movs	r2, #0
    10d2:	4b21      	ldr	r3, [pc, #132]	; (1158 <flight+0x108>)
    10d4:	47b0      	blx	r6
    10d6:	9002      	str	r0, [sp, #8]
    10d8:	9103      	str	r1, [sp, #12]
    10da:	6a60      	ldr	r0, [r4, #36]	; 0x24
    10dc:	47a8      	blx	r5
    10de:	2200      	movs	r2, #0
    10e0:	4b1d      	ldr	r3, [pc, #116]	; (1158 <flight+0x108>)
    10e2:	47b0      	blx	r6
    10e4:	4e1e      	ldr	r6, [pc, #120]	; (1160 <flight+0x110>)
    10e6:	0002      	movs	r2, r0
    10e8:	000b      	movs	r3, r1
    10ea:	9802      	ldr	r0, [sp, #8]
    10ec:	9903      	ldr	r1, [sp, #12]
    10ee:	47b0      	blx	r6
    10f0:	4b1e      	ldr	r3, [pc, #120]	; (116c <flight+0x11c>)
    10f2:	4798      	blx	r3
    10f4:	6320      	str	r0, [r4, #48]	; 0x30
        my_altimeter->myBarometer.groundTemperatureBuffer = my_altimeter->myBarometer.groundTemperatureBuffer*0.5 + my_altimeter->myBarometer.temperatureCelcus*0.5;
    10f6:	6ba0      	ldr	r0, [r4, #56]	; 0x38
    10f8:	47a8      	blx	r5
    10fa:	2200      	movs	r2, #0
    10fc:	4b16      	ldr	r3, [pc, #88]	; (1158 <flight+0x108>)
    10fe:	4e17      	ldr	r6, [pc, #92]	; (115c <flight+0x10c>)
    1100:	47b0      	blx	r6
    1102:	0006      	movs	r6, r0
    1104:	69a0      	ldr	r0, [r4, #24]
    1106:	000f      	movs	r7, r1
    1108:	47a8      	blx	r5
    110a:	4d14      	ldr	r5, [pc, #80]	; (115c <flight+0x10c>)
    110c:	2200      	movs	r2, #0
    110e:	4b12      	ldr	r3, [pc, #72]	; (1158 <flight+0x108>)
    1110:	47a8      	blx	r5
    1112:	4d13      	ldr	r5, [pc, #76]	; (1160 <flight+0x110>)
    1114:	0002      	movs	r2, r0
    1116:	000b      	movs	r3, r1
    1118:	0030      	movs	r0, r6
    111a:	0039      	movs	r1, r7
    111c:	47a8      	blx	r5
    111e:	4b13      	ldr	r3, [pc, #76]	; (116c <flight+0x11c>)
    1120:	4798      	blx	r3


        if ((millis() - my_altimeter->myIMU.offsetBufferTime) > 2000) {
    1122:	4d14      	ldr	r5, [pc, #80]	; (1174 <flight+0x124>)
    case flightStatrup:

        my_altimeter->myIMU.gravityOffsetBuffer = 	my_altimeter->myIMU.gravityOffsetBuffer*0.5 + my_altimeter->myIMU.accelZ*0.5;
        my_altimeter->myIMU.gravityOffsetBufferRaw = 	my_altimeter->myIMU.gravityOffsetBufferRaw*0.5 + my_altimeter->myIMU.accelZRaw*0.5;
        my_altimeter->myBarometer.groundOffsetBuffer = my_altimeter->myBarometer.groundOffsetBuffer*0.5 + my_altimeter->myBarometer.heightCm*0.5;
        my_altimeter->myBarometer.groundTemperatureBuffer = my_altimeter->myBarometer.groundTemperatureBuffer*0.5 + my_altimeter->myBarometer.temperatureCelcus*0.5;
    1124:	63a0      	str	r0, [r4, #56]	; 0x38


        if ((millis() - my_altimeter->myIMU.offsetBufferTime) > 2000) {
    1126:	47a8      	blx	r5
    1128:	6be3      	ldr	r3, [r4, #60]	; 0x3c
    112a:	1ac0      	subs	r0, r0, r3
    112c:	23fa      	movs	r3, #250	; 0xfa
    112e:	00db      	lsls	r3, r3, #3
    1130:	4298      	cmp	r0, r3
    1132:	d90c      	bls.n	114e <flight+0xfe>
            //recursive filter
            my_altimeter->myBarometer.groundOffset = my_altimeter->myBarometer.groundOffsetBuffer;
    1134:	6b23      	ldr	r3, [r4, #48]	; 0x30
            my_altimeter->myBarometer.groundTemperature = my_altimeter->myBarometer.groundTemperatureBuffer;
            my_altimeter->myIMU.gravityOffset = my_altimeter->myIMU.gravityOffsetBuffer;
            my_altimeter->myIMU.gravityOffsetRaw = my_altimeter->myIMU.gravityOffsetBufferRaw;
    1136:	9a01      	ldr	r2, [sp, #4]
        my_altimeter->myBarometer.groundTemperatureBuffer = my_altimeter->myBarometer.groundTemperatureBuffer*0.5 + my_altimeter->myBarometer.temperatureCelcus*0.5;


        if ((millis() - my_altimeter->myIMU.offsetBufferTime) > 2000) {
            //recursive filter
            my_altimeter->myBarometer.groundOffset = my_altimeter->myBarometer.groundOffsetBuffer;
    1138:	62e3      	str	r3, [r4, #44]	; 0x2c
            my_altimeter->myBarometer.groundTemperature = my_altimeter->myBarometer.groundTemperatureBuffer;
    113a:	6ba3      	ldr	r3, [r4, #56]	; 0x38
    113c:	6363      	str	r3, [r4, #52]	; 0x34
            my_altimeter->myIMU.gravityOffset = my_altimeter->myIMU.gravityOffsetBuffer;
    113e:	6c63      	ldr	r3, [r4, #68]	; 0x44
    1140:	6423      	str	r3, [r4, #64]	; 0x40
            my_altimeter->myIMU.gravityOffsetRaw = my_altimeter->myIMU.gravityOffsetBufferRaw;
    1142:	0023      	movs	r3, r4
    1144:	8812      	ldrh	r2, [r2, #0]
    1146:	334a      	adds	r3, #74	; 0x4a
    1148:	801a      	strh	r2, [r3, #0]
            my_altimeter->myIMU.offsetBufferTime = millis();
    114a:	47a8      	blx	r5
    114c:	63e0      	str	r0, [r4, #60]	; 0x3c

        break;
    }


    114e:	b005      	add	sp, #20
    1150:	bdf0      	pop	{r4, r5, r6, r7, pc}
    1152:	46c0      	nop			; (mov r8, r8)
    1154:	00002fdd 	.word	0x00002fdd
    1158:	3fe00000 	.word	0x3fe00000
    115c:	000022e1 	.word	0x000022e1
    1160:	00001a6d 	.word	0x00001a6d
    1164:	00003085 	.word	0x00003085
    1168:	00002ee9 	.word	0x00002ee9
    116c:	00001a31 	.word	0x00001a31
    1170:	00002f6d 	.word	0x00002f6d
    1174:	00000eed 	.word	0x00000eed

00001178 <logFlight>:
#include <log.h>
#include <flight.h>
#include <boardDefines.h>


void logFlight(Altimeter *my_altimeter) {
    1178:	b5f0      	push	{r4, r5, r6, r7, lr}
    117a:	b085      	sub	sp, #20

    u8_t bytesToSend = 16;
    u8_t dataToSend[16];

    dataToSend[0] = FLIGHT_LOG;
    117c:	466a      	mov	r2, sp
    117e:	2346      	movs	r3, #70	; 0x46
    dataToSend[1] = my_altimeter->flightNumb;
	
    dataToSend[2] = my_altimeter->myIMU.offsetBufferTime >> 0;
    dataToSend[3] = my_altimeter->myIMU.offsetBufferTime >> 8;
    1180:	4669      	mov	r1, sp
void logFlight(Altimeter *my_altimeter) {

    u8_t bytesToSend = 16;
    u8_t dataToSend[16];

    dataToSend[0] = FLIGHT_LOG;
    1182:	7013      	strb	r3, [r2, #0]
    dataToSend[1] = my_altimeter->flightNumb;
    1184:	7843      	ldrb	r3, [r0, #1]
    dataToSend[13] = my_altimeter->myBarometer.groundTemperature >> 24;

    dataToSend[14] = my_altimeter->myIMU.gravityOffsetRaw >> 0;
    dataToSend[15] = my_altimeter->myIMU.gravityOffsetRaw >> 8;

    u8_t location = my_altimeter->myFlashMemory.pageLocation;
    1186:	2490      	movs	r4, #144	; 0x90

    u8_t bytesToSend = 16;
    u8_t dataToSend[16];

    dataToSend[0] = FLIGHT_LOG;
    dataToSend[1] = my_altimeter->flightNumb;
    1188:	7053      	strb	r3, [r2, #1]
	
    dataToSend[2] = my_altimeter->myIMU.offsetBufferTime >> 0;
    118a:	6bc3      	ldr	r3, [r0, #60]	; 0x3c
    dataToSend[13] = my_altimeter->myBarometer.groundTemperature >> 24;

    dataToSend[14] = my_altimeter->myIMU.gravityOffsetRaw >> 0;
    dataToSend[15] = my_altimeter->myIMU.gravityOffsetRaw >> 8;

    u8_t location = my_altimeter->myFlashMemory.pageLocation;
    118c:	34ff      	adds	r4, #255	; 0xff
    u8_t dataToSend[16];

    dataToSend[0] = FLIGHT_LOG;
    dataToSend[1] = my_altimeter->flightNumb;
	
    dataToSend[2] = my_altimeter->myIMU.offsetBufferTime >> 0;
    118e:	7093      	strb	r3, [r2, #2]
    dataToSend[3] = my_altimeter->myIMU.offsetBufferTime >> 8;
    1190:	0a1a      	lsrs	r2, r3, #8
    1192:	70ca      	strb	r2, [r1, #3]
    dataToSend[4] = my_altimeter->myIMU.offsetBufferTime >> 16;
    1194:	0c1a      	lsrs	r2, r3, #16
    dataToSend[5] = my_altimeter->myIMU.offsetBufferTime >> 24;
    1196:	0e1b      	lsrs	r3, r3, #24
    1198:	714b      	strb	r3, [r1, #5]

    dataToSend[6] = my_altimeter->myBarometer.groundOffset >> 0;
    119a:	6ac3      	ldr	r3, [r0, #44]	; 0x2c
    dataToSend[0] = FLIGHT_LOG;
    dataToSend[1] = my_altimeter->flightNumb;
	
    dataToSend[2] = my_altimeter->myIMU.offsetBufferTime >> 0;
    dataToSend[3] = my_altimeter->myIMU.offsetBufferTime >> 8;
    dataToSend[4] = my_altimeter->myIMU.offsetBufferTime >> 16;
    119c:	710a      	strb	r2, [r1, #4]
    dataToSend[5] = my_altimeter->myIMU.offsetBufferTime >> 24;

    dataToSend[6] = my_altimeter->myBarometer.groundOffset >> 0;
    dataToSend[7] = my_altimeter->myBarometer.groundOffset >> 8;
    119e:	0a1a      	lsrs	r2, r3, #8
    dataToSend[2] = my_altimeter->myIMU.offsetBufferTime >> 0;
    dataToSend[3] = my_altimeter->myIMU.offsetBufferTime >> 8;
    dataToSend[4] = my_altimeter->myIMU.offsetBufferTime >> 16;
    dataToSend[5] = my_altimeter->myIMU.offsetBufferTime >> 24;

    dataToSend[6] = my_altimeter->myBarometer.groundOffset >> 0;
    11a0:	718b      	strb	r3, [r1, #6]
    dataToSend[7] = my_altimeter->myBarometer.groundOffset >> 8;
    11a2:	71ca      	strb	r2, [r1, #7]
    dataToSend[8] = my_altimeter->myBarometer.groundOffset >> 16;
    11a4:	0c1a      	lsrs	r2, r3, #16
    dataToSend[9] = my_altimeter->myBarometer.groundOffset >> 24;
    11a6:	0e1b      	lsrs	r3, r3, #24
    11a8:	724b      	strb	r3, [r1, #9]

    dataToSend[10] = my_altimeter->myBarometer.groundTemperature >> 0;
    11aa:	6b43      	ldr	r3, [r0, #52]	; 0x34
    dataToSend[4] = my_altimeter->myIMU.offsetBufferTime >> 16;
    dataToSend[5] = my_altimeter->myIMU.offsetBufferTime >> 24;

    dataToSend[6] = my_altimeter->myBarometer.groundOffset >> 0;
    dataToSend[7] = my_altimeter->myBarometer.groundOffset >> 8;
    dataToSend[8] = my_altimeter->myBarometer.groundOffset >> 16;
    11ac:	720a      	strb	r2, [r1, #8]
    dataToSend[9] = my_altimeter->myBarometer.groundOffset >> 24;

    dataToSend[10] = my_altimeter->myBarometer.groundTemperature >> 0;
    dataToSend[11] = my_altimeter->myBarometer.groundTemperature >> 8;
    11ae:	0a1a      	lsrs	r2, r3, #8
    dataToSend[6] = my_altimeter->myBarometer.groundOffset >> 0;
    dataToSend[7] = my_altimeter->myBarometer.groundOffset >> 8;
    dataToSend[8] = my_altimeter->myBarometer.groundOffset >> 16;
    dataToSend[9] = my_altimeter->myBarometer.groundOffset >> 24;

    dataToSend[10] = my_altimeter->myBarometer.groundTemperature >> 0;
    11b0:	728b      	strb	r3, [r1, #10]
    dataToSend[11] = my_altimeter->myBarometer.groundTemperature >> 8;
    11b2:	72ca      	strb	r2, [r1, #11]
    dataToSend[12] = my_altimeter->myBarometer.groundTemperature >> 16;
    11b4:	0c1a      	lsrs	r2, r3, #16
    dataToSend[13] = my_altimeter->myBarometer.groundTemperature >> 24;
    11b6:	0e1b      	lsrs	r3, r3, #24
    11b8:	734b      	strb	r3, [r1, #13]

    dataToSend[14] = my_altimeter->myIMU.gravityOffsetRaw >> 0;
    11ba:	0003      	movs	r3, r0
    dataToSend[8] = my_altimeter->myBarometer.groundOffset >> 16;
    dataToSend[9] = my_altimeter->myBarometer.groundOffset >> 24;

    dataToSend[10] = my_altimeter->myBarometer.groundTemperature >> 0;
    dataToSend[11] = my_altimeter->myBarometer.groundTemperature >> 8;
    dataToSend[12] = my_altimeter->myBarometer.groundTemperature >> 16;
    11bc:	730a      	strb	r2, [r1, #12]
    dataToSend[13] = my_altimeter->myBarometer.groundTemperature >> 24;

    dataToSend[14] = my_altimeter->myIMU.gravityOffsetRaw >> 0;
    11be:	334a      	adds	r3, #74	; 0x4a
    11c0:	881b      	ldrh	r3, [r3, #0]
    11c2:	738b      	strb	r3, [r1, #14]
    dataToSend[15] = my_altimeter->myIMU.gravityOffsetRaw >> 8;
    11c4:	0a1b      	lsrs	r3, r3, #8
    11c6:	73cb      	strb	r3, [r1, #15]

    u8_t location = my_altimeter->myFlashMemory.pageLocation;
    11c8:	5d02      	ldrb	r2, [r0, r4]
    11ca:	2300      	movs	r3, #0
    u8_t bytesWritten = 0;

    if ((location + bytesToSend) > 0xFF) {
    11cc:	2aef      	cmp	r2, #239	; 0xef
    11ce:	dd2c      	ble.n	122a <logFlight+0xb2>
        for (u8_t dataByte = 0; (dataByte + location) < 0xFF; ++dataByte) {
    11d0:	18d1      	adds	r1, r2, r3
    11d2:	29fe      	cmp	r1, #254	; 0xfe
    11d4:	dc08      	bgt.n	11e8 <logFlight+0x70>
            my_altimeter->myFlashMemory.pageBuffer[(dataByte + location)] = dataToSend[dataByte];
    11d6:	466d      	mov	r5, sp
    11d8:	1841      	adds	r1, r0, r1
    11da:	5ced      	ldrb	r5, [r5, r3]
    11dc:	3191      	adds	r1, #145	; 0x91
    11de:	31ff      	adds	r1, #255	; 0xff
            bytesWritten++;
    11e0:	3301      	adds	r3, #1
    u8_t location = my_altimeter->myFlashMemory.pageLocation;
    u8_t bytesWritten = 0;

    if ((location + bytesToSend) > 0xFF) {
        for (u8_t dataByte = 0; (dataByte + location) < 0xFF; ++dataByte) {
            my_altimeter->myFlashMemory.pageBuffer[(dataByte + location)] = dataToSend[dataByte];
    11e2:	700d      	strb	r5, [r1, #0]
            bytesWritten++;
    11e4:	b2db      	uxtb	r3, r3
    11e6:	e7f3      	b.n	11d0 <logFlight+0x58>
    11e8:	0001      	movs	r1, r0
    11ea:	4a16      	ldr	r2, [pc, #88]	; (1244 <logFlight+0xcc>)
    11ec:	3191      	adds	r1, #145	; 0x91
    11ee:	31ff      	adds	r1, #255	; 0xff
    11f0:	1885      	adds	r5, r0, r2

    u8_t location = my_altimeter->myFlashMemory.pageLocation;
    u8_t bytesWritten = 0;

    if ((location + bytesToSend) > 0xFF) {
        for (u8_t dataByte = 0; (dataByte + location) < 0xFF; ++dataByte) {
    11f2:	000a      	movs	r2, r1
            my_altimeter->myFlashMemory.pageBuffer[(dataByte + location)] = dataToSend[dataByte];
            bytesWritten++;
        }
        for(u8_t i = 0; i < 0xFF; ++i) {
            my_altimeter->myFlashMemory.pageToWrite[i] = my_altimeter->myFlashMemory.pageBuffer[i];
    11f4:	7817      	ldrb	r7, [r2, #0]
    11f6:	46bc      	mov	ip, r7
    11f8:	4666      	mov	r6, ip
    11fa:	1e57      	subs	r7, r2, #1
    11fc:	3fff      	subs	r7, #255	; 0xff
    11fe:	703e      	strb	r6, [r7, #0]
            my_altimeter->myFlashMemory.pageBuffer[i] = 0;
    1200:	2600      	movs	r6, #0
    1202:	7016      	strb	r6, [r2, #0]
    1204:	3201      	adds	r2, #1
    if ((location + bytesToSend) > 0xFF) {
        for (u8_t dataByte = 0; (dataByte + location) < 0xFF; ++dataByte) {
            my_altimeter->myFlashMemory.pageBuffer[(dataByte + location)] = dataToSend[dataByte];
            bytesWritten++;
        }
        for(u8_t i = 0; i < 0xFF; ++i) {
    1206:	4295      	cmp	r5, r2
    1208:	d1f4      	bne.n	11f4 <logFlight+0x7c>
    120a:	001a      	movs	r2, r3
            my_altimeter->myFlashMemory.pageToWrite[i] = my_altimeter->myFlashMemory.pageBuffer[i];
            my_altimeter->myFlashMemory.pageBuffer[i] = 0;
        }
        for (u8_t dataByte = 0; bytesWritten <= bytesToSend; ++dataByte) {
    120c:	2a10      	cmp	r2, #16
    120e:	d808      	bhi.n	1222 <logFlight+0xaa>
            my_altimeter->myFlashMemory.pageBuffer[dataByte] = dataToSend[bytesWritten];
    1210:	466d      	mov	r5, sp
    1212:	5cad      	ldrb	r5, [r5, r2]
            bytesWritten++;
    1214:	3201      	adds	r2, #1
    1216:	b2d2      	uxtb	r2, r2
        for(u8_t i = 0; i < 0xFF; ++i) {
            my_altimeter->myFlashMemory.pageToWrite[i] = my_altimeter->myFlashMemory.pageBuffer[i];
            my_altimeter->myFlashMemory.pageBuffer[i] = 0;
        }
        for (u8_t dataByte = 0; bytesWritten <= bytesToSend; ++dataByte) {
            my_altimeter->myFlashMemory.pageBuffer[dataByte] = dataToSend[bytesWritten];
    1218:	700d      	strb	r5, [r1, #0]
            bytesWritten++;
            my_altimeter->myFlashMemory.pageLocation = dataByte + 1; // fix this (iterates every step)
    121a:	1ad5      	subs	r5, r2, r3
    121c:	5505      	strb	r5, [r0, r4]
    121e:	3101      	adds	r1, #1
    1220:	e7f4      	b.n	120c <logFlight+0x94>
        }
        my_altimeter->myFlashMemory.pageReady = true;
    1222:	2201      	movs	r2, #1
    1224:	4b07      	ldr	r3, [pc, #28]	; (1244 <logFlight+0xcc>)
    1226:	54c2      	strb	r2, [r0, r3]
    1228:	e00a      	b.n	1240 <logFlight+0xc8>

    } else {
        for (u8_t dataByte = 0; bytesWritten <= bytesToSend; ++dataByte) {
            my_altimeter->myFlashMemory.pageBuffer[(dataByte + location)] = dataToSend[dataByte];
    122a:	466d      	mov	r5, sp
    122c:	1899      	adds	r1, r3, r2
    122e:	5ced      	ldrb	r5, [r5, r3]
    1230:	3191      	adds	r1, #145	; 0x91
    1232:	31ff      	adds	r1, #255	; 0xff
    1234:	3301      	adds	r3, #1
    1236:	5445      	strb	r5, [r0, r1]
            my_altimeter->myFlashMemory.pageLocation = dataByte + 1; // fix this (iterates every step)
        }
        my_altimeter->myFlashMemory.pageReady = true;

    } else {
        for (u8_t dataByte = 0; bytesWritten <= bytesToSend; ++dataByte) {
    1238:	2b11      	cmp	r3, #17
    123a:	d1f6      	bne.n	122a <logFlight+0xb2>
            my_altimeter->myFlashMemory.pageBuffer[(dataByte + location)] = dataToSend[dataByte];
            bytesWritten++;
        }
        my_altimeter->myFlashMemory.pageLocation = location + bytesWritten;
    123c:	3211      	adds	r2, #17
    123e:	5502      	strb	r2, [r0, r4]
    }
}
    1240:	b005      	add	sp, #20
    1242:	bdf0      	pop	{r4, r5, r6, r7, pc}
    1244:	0000028f 	.word	0x0000028f

00001248 <logSensors>:

void logSensors(Altimeter *my_altimeter) {
    1248:	b5f0      	push	{r4, r5, r6, r7, lr}
    124a:	b087      	sub	sp, #28

    u8_t bytesToSend = 23;
    u8_t dataToSend[23];

    dataToSend[0] = SENSOR_LOG;
    124c:	466a      	mov	r2, sp
    124e:	2341      	movs	r3, #65	; 0x41
    1250:	7013      	strb	r3, [r2, #0]
    dataToSend[1] = my_altimeter->sampleTick >> 0;
    1252:	23a7      	movs	r3, #167	; 0xa7
    dataToSend[2] = my_altimeter->sampleTick >> 8;
    1254:	4669      	mov	r1, sp

    u8_t bytesToSend = 23;
    u8_t dataToSend[23];

    dataToSend[0] = SENSOR_LOG;
    dataToSend[1] = my_altimeter->sampleTick >> 0;
    1256:	009b      	lsls	r3, r3, #2
    1258:	58c3      	ldr	r3, [r0, r3]
    dataToSend[20] = my_altimeter->myIMU.gyroZRaw >> 8;

    dataToSend[21] = my_altimeter->myAnalogAccelerometer.analogRaw >> 0;
    dataToSend[22] = my_altimeter->myAnalogAccelerometer.analogRaw >> 8;

    u8_t location = my_altimeter->myFlashMemory.pageLocation;
    125a:	2490      	movs	r4, #144	; 0x90

    u8_t bytesToSend = 23;
    u8_t dataToSend[23];

    dataToSend[0] = SENSOR_LOG;
    dataToSend[1] = my_altimeter->sampleTick >> 0;
    125c:	7053      	strb	r3, [r2, #1]
    dataToSend[2] = my_altimeter->sampleTick >> 8;
    125e:	0a1a      	lsrs	r2, r3, #8
    1260:	708a      	strb	r2, [r1, #2]
    dataToSend[3] = my_altimeter->sampleTick >> 16;
    1262:	0c1a      	lsrs	r2, r3, #16
    dataToSend[4] = my_altimeter->sampleTick >> 24;
    1264:	0e1b      	lsrs	r3, r3, #24
    1266:	710b      	strb	r3, [r1, #4]

    dataToSend[5] = my_altimeter->myBarometer.heightCm >> 0;
    1268:	6a43      	ldr	r3, [r0, #36]	; 0x24
    u8_t dataToSend[23];

    dataToSend[0] = SENSOR_LOG;
    dataToSend[1] = my_altimeter->sampleTick >> 0;
    dataToSend[2] = my_altimeter->sampleTick >> 8;
    dataToSend[3] = my_altimeter->sampleTick >> 16;
    126a:	70ca      	strb	r2, [r1, #3]
    dataToSend[4] = my_altimeter->sampleTick >> 24;

    dataToSend[5] = my_altimeter->myBarometer.heightCm >> 0;
    dataToSend[6] = my_altimeter->myBarometer.heightCm >> 8;
    126c:	0a1a      	lsrs	r2, r3, #8
    dataToSend[1] = my_altimeter->sampleTick >> 0;
    dataToSend[2] = my_altimeter->sampleTick >> 8;
    dataToSend[3] = my_altimeter->sampleTick >> 16;
    dataToSend[4] = my_altimeter->sampleTick >> 24;

    dataToSend[5] = my_altimeter->myBarometer.heightCm >> 0;
    126e:	714b      	strb	r3, [r1, #5]
    dataToSend[6] = my_altimeter->myBarometer.heightCm >> 8;
    1270:	718a      	strb	r2, [r1, #6]
    dataToSend[7] = my_altimeter->myBarometer.heightCm >> 16;
    1272:	0c1a      	lsrs	r2, r3, #16
    dataToSend[8] = my_altimeter->myBarometer.heightCm >> 24;
    1274:	0e1b      	lsrs	r3, r3, #24
    1276:	720b      	strb	r3, [r1, #8]

    dataToSend[9] = my_altimeter->myIMU.accelXRaw >> 0;
    1278:	0003      	movs	r3, r0
    dataToSend[3] = my_altimeter->sampleTick >> 16;
    dataToSend[4] = my_altimeter->sampleTick >> 24;

    dataToSend[5] = my_altimeter->myBarometer.heightCm >> 0;
    dataToSend[6] = my_altimeter->myBarometer.heightCm >> 8;
    dataToSend[7] = my_altimeter->myBarometer.heightCm >> 16;
    127a:	71ca      	strb	r2, [r1, #7]
    dataToSend[8] = my_altimeter->myBarometer.heightCm >> 24;

    dataToSend[9] = my_altimeter->myIMU.accelXRaw >> 0;
    127c:	3368      	adds	r3, #104	; 0x68
    127e:	881b      	ldrh	r3, [r3, #0]
    dataToSend[20] = my_altimeter->myIMU.gyroZRaw >> 8;

    dataToSend[21] = my_altimeter->myAnalogAccelerometer.analogRaw >> 0;
    dataToSend[22] = my_altimeter->myAnalogAccelerometer.analogRaw >> 8;

    u8_t location = my_altimeter->myFlashMemory.pageLocation;
    1280:	34ff      	adds	r4, #255	; 0xff
    dataToSend[5] = my_altimeter->myBarometer.heightCm >> 0;
    dataToSend[6] = my_altimeter->myBarometer.heightCm >> 8;
    dataToSend[7] = my_altimeter->myBarometer.heightCm >> 16;
    dataToSend[8] = my_altimeter->myBarometer.heightCm >> 24;

    dataToSend[9] = my_altimeter->myIMU.accelXRaw >> 0;
    1282:	724b      	strb	r3, [r1, #9]
    dataToSend[10] = my_altimeter->myIMU.accelXRaw >> 8;
    1284:	0a1b      	lsrs	r3, r3, #8
    1286:	728b      	strb	r3, [r1, #10]
    dataToSend[11] = my_altimeter->myIMU.accelYRaw >> 0;
    1288:	0003      	movs	r3, r0
    128a:	336c      	adds	r3, #108	; 0x6c
    128c:	881b      	ldrh	r3, [r3, #0]
    128e:	72cb      	strb	r3, [r1, #11]
    dataToSend[12] = my_altimeter->myIMU.accelYRaw >> 8;
    1290:	0a1b      	lsrs	r3, r3, #8
    1292:	730b      	strb	r3, [r1, #12]
    dataToSend[13] = my_altimeter->myIMU.accelZRaw >> 0;
    1294:	0003      	movs	r3, r0
    1296:	3370      	adds	r3, #112	; 0x70
    1298:	881b      	ldrh	r3, [r3, #0]
    129a:	734b      	strb	r3, [r1, #13]
    dataToSend[14] = my_altimeter->myIMU.accelZRaw >> 8;
    129c:	0a1b      	lsrs	r3, r3, #8
    129e:	738b      	strb	r3, [r1, #14]

    dataToSend[15] = my_altimeter->myIMU.gyroXRaw >> 0;
    12a0:	0003      	movs	r3, r0
    12a2:	3374      	adds	r3, #116	; 0x74
    12a4:	881b      	ldrh	r3, [r3, #0]
    12a6:	73cb      	strb	r3, [r1, #15]
    dataToSend[16] = my_altimeter->myIMU.gyroXRaw >> 8;
    12a8:	0a1b      	lsrs	r3, r3, #8
    12aa:	740b      	strb	r3, [r1, #16]
    dataToSend[17] = my_altimeter->myIMU.gyroYRaw >> 0;
    12ac:	0003      	movs	r3, r0
    12ae:	3378      	adds	r3, #120	; 0x78
    12b0:	881b      	ldrh	r3, [r3, #0]
    12b2:	744b      	strb	r3, [r1, #17]
    dataToSend[18] = my_altimeter->myIMU.gyroYRaw >> 8;
    12b4:	0a1b      	lsrs	r3, r3, #8
    12b6:	748b      	strb	r3, [r1, #18]
    dataToSend[19] = my_altimeter->myIMU.gyroZRaw >> 0;
    12b8:	0003      	movs	r3, r0
    12ba:	337c      	adds	r3, #124	; 0x7c
    12bc:	881b      	ldrh	r3, [r3, #0]
    12be:	74cb      	strb	r3, [r1, #19]
    dataToSend[20] = my_altimeter->myIMU.gyroZRaw >> 8;
    12c0:	0a1b      	lsrs	r3, r3, #8
    12c2:	750b      	strb	r3, [r1, #20]

    dataToSend[21] = my_altimeter->myAnalogAccelerometer.analogRaw >> 0;
    12c4:	0003      	movs	r3, r0
    12c6:	3380      	adds	r3, #128	; 0x80
    12c8:	881b      	ldrh	r3, [r3, #0]
    12ca:	754b      	strb	r3, [r1, #21]
    dataToSend[22] = my_altimeter->myAnalogAccelerometer.analogRaw >> 8;
    12cc:	0a1b      	lsrs	r3, r3, #8
    12ce:	758b      	strb	r3, [r1, #22]

    u8_t location = my_altimeter->myFlashMemory.pageLocation;
    12d0:	5d02      	ldrb	r2, [r0, r4]
    12d2:	2300      	movs	r3, #0
    u8_t bytesWritten = 0;

    if ((location + bytesToSend) > 0xFF) {
    12d4:	2ae8      	cmp	r2, #232	; 0xe8
    12d6:	dd2c      	ble.n	1332 <logSensors+0xea>
        for (u8_t dataByte = 0; (dataByte + location) < 0xFF; ++dataByte) {
    12d8:	18d1      	adds	r1, r2, r3
    12da:	29fe      	cmp	r1, #254	; 0xfe
    12dc:	dc08      	bgt.n	12f0 <logSensors+0xa8>
            my_altimeter->myFlashMemory.pageBuffer[(dataByte + location)] = dataToSend[dataByte];
    12de:	466d      	mov	r5, sp
    12e0:	1841      	adds	r1, r0, r1
    12e2:	5ced      	ldrb	r5, [r5, r3]
    12e4:	3191      	adds	r1, #145	; 0x91
    12e6:	31ff      	adds	r1, #255	; 0xff
            bytesWritten++;
    12e8:	3301      	adds	r3, #1
    u8_t location = my_altimeter->myFlashMemory.pageLocation;
    u8_t bytesWritten = 0;

    if ((location + bytesToSend) > 0xFF) {
        for (u8_t dataByte = 0; (dataByte + location) < 0xFF; ++dataByte) {
            my_altimeter->myFlashMemory.pageBuffer[(dataByte + location)] = dataToSend[dataByte];
    12ea:	700d      	strb	r5, [r1, #0]
            bytesWritten++;
    12ec:	b2db      	uxtb	r3, r3
    12ee:	e7f3      	b.n	12d8 <logSensors+0x90>
    12f0:	0001      	movs	r1, r0
    12f2:	4a16      	ldr	r2, [pc, #88]	; (134c <logSensors+0x104>)
    12f4:	3191      	adds	r1, #145	; 0x91
    12f6:	31ff      	adds	r1, #255	; 0xff
    12f8:	1885      	adds	r5, r0, r2

    u8_t location = my_altimeter->myFlashMemory.pageLocation;
    u8_t bytesWritten = 0;

    if ((location + bytesToSend) > 0xFF) {
        for (u8_t dataByte = 0; (dataByte + location) < 0xFF; ++dataByte) {
    12fa:	000a      	movs	r2, r1
            my_altimeter->myFlashMemory.pageBuffer[(dataByte + location)] = dataToSend[dataByte];
            bytesWritten++;
        }

        for(u8_t i = 0; i < 0xFF; ++i) {
            my_altimeter->myFlashMemory.pageToWrite[i] = my_altimeter->myFlashMemory.pageBuffer[i];
    12fc:	7817      	ldrb	r7, [r2, #0]
    12fe:	46bc      	mov	ip, r7
    1300:	4666      	mov	r6, ip
    1302:	1e57      	subs	r7, r2, #1
    1304:	3fff      	subs	r7, #255	; 0xff
    1306:	703e      	strb	r6, [r7, #0]
            my_altimeter->myFlashMemory.pageBuffer[i] = 0;
    1308:	2600      	movs	r6, #0
    130a:	7016      	strb	r6, [r2, #0]
    130c:	3201      	adds	r2, #1
        for (u8_t dataByte = 0; (dataByte + location) < 0xFF; ++dataByte) {
            my_altimeter->myFlashMemory.pageBuffer[(dataByte + location)] = dataToSend[dataByte];
            bytesWritten++;
        }

        for(u8_t i = 0; i < 0xFF; ++i) {
    130e:	4295      	cmp	r5, r2
    1310:	d1f4      	bne.n	12fc <logSensors+0xb4>
    1312:	001a      	movs	r2, r3
            my_altimeter->myFlashMemory.pageToWrite[i] = my_altimeter->myFlashMemory.pageBuffer[i];
            my_altimeter->myFlashMemory.pageBuffer[i] = 0;
        }

        for (u8_t dataByte = 0; bytesWritten <= bytesToSend; ++dataByte) {
    1314:	2a17      	cmp	r2, #23
    1316:	d808      	bhi.n	132a <logSensors+0xe2>
            my_altimeter->myFlashMemory.pageBuffer[dataByte] = dataToSend[bytesWritten];
    1318:	466d      	mov	r5, sp
    131a:	5cad      	ldrb	r5, [r5, r2]
            bytesWritten++;
    131c:	3201      	adds	r2, #1
    131e:	b2d2      	uxtb	r2, r2
            my_altimeter->myFlashMemory.pageToWrite[i] = my_altimeter->myFlashMemory.pageBuffer[i];
            my_altimeter->myFlashMemory.pageBuffer[i] = 0;
        }

        for (u8_t dataByte = 0; bytesWritten <= bytesToSend; ++dataByte) {
            my_altimeter->myFlashMemory.pageBuffer[dataByte] = dataToSend[bytesWritten];
    1320:	700d      	strb	r5, [r1, #0]
            bytesWritten++;

            my_altimeter->myFlashMemory.pageLocation = dataByte + 1; // fix this (iterates every step)
    1322:	1ad5      	subs	r5, r2, r3
    1324:	5505      	strb	r5, [r0, r4]
    1326:	3101      	adds	r1, #1
    1328:	e7f4      	b.n	1314 <logSensors+0xcc>
        }
        my_altimeter->myFlashMemory.pageReady = true;
    132a:	2201      	movs	r2, #1
    132c:	4b07      	ldr	r3, [pc, #28]	; (134c <logSensors+0x104>)
    132e:	54c2      	strb	r2, [r0, r3]
    1330:	e00a      	b.n	1348 <logSensors+0x100>

    } else {
        for (u8_t dataByte = 0; bytesWritten <= bytesToSend; ++dataByte) {
            my_altimeter->myFlashMemory.pageBuffer[(dataByte + location)] = dataToSend[dataByte];
    1332:	466d      	mov	r5, sp
    1334:	1899      	adds	r1, r3, r2
    1336:	5ced      	ldrb	r5, [r5, r3]
    1338:	3191      	adds	r1, #145	; 0x91
    133a:	31ff      	adds	r1, #255	; 0xff
    133c:	3301      	adds	r3, #1
    133e:	5445      	strb	r5, [r0, r1]
            my_altimeter->myFlashMemory.pageLocation = dataByte + 1; // fix this (iterates every step)
        }
        my_altimeter->myFlashMemory.pageReady = true;

    } else {
        for (u8_t dataByte = 0; bytesWritten <= bytesToSend; ++dataByte) {
    1340:	2b18      	cmp	r3, #24
    1342:	d1f6      	bne.n	1332 <logSensors+0xea>
            my_altimeter->myFlashMemory.pageBuffer[(dataByte + location)] = dataToSend[dataByte];
            bytesWritten++;
        }
        my_altimeter->myFlashMemory.pageLocation = location + bytesWritten;
    1344:	3218      	adds	r2, #24
    1346:	5502      	strb	r2, [r0, r4]
    }
}
    1348:	b007      	add	sp, #28
    134a:	bdf0      	pop	{r4, r5, r6, r7, pc}
    134c:	0000028f 	.word	0x0000028f

00001350 <sampleTick>:
#include <boardDefines.h>
#include <MS5803.h>



void sampleTick(Altimeter *my_altimeter) {
    1350:	b5f0      	push	{r4, r5, r6, r7, lr}

    my_altimeter->sampleTick = millis();
    1352:	4bd2      	ldr	r3, [pc, #840]	; (169c <sampleTick+0x34c>)
#include <boardDefines.h>
#include <MS5803.h>



void sampleTick(Altimeter *my_altimeter) {
    1354:	b087      	sub	sp, #28
    1356:	0004      	movs	r4, r0

    my_altimeter->sampleTick = millis();
    1358:	4798      	blx	r3
    135a:	23a7      	movs	r3, #167	; 0xa7

    my_altimeter->batV = adc_read(senseBatPin);
    135c:	4dd0      	ldr	r5, [pc, #832]	; (16a0 <sampleTick+0x350>)



void sampleTick(Altimeter *my_altimeter) {

    my_altimeter->sampleTick = millis();
    135e:	009b      	lsls	r3, r3, #2
    1360:	50e0      	str	r0, [r4, r3]

    my_altimeter->batV = adc_read(senseBatPin);
    1362:	786b      	ldrb	r3, [r5, #1]
    1364:	7829      	ldrb	r1, [r5, #0]
    1366:	78a8      	ldrb	r0, [r5, #2]
    1368:	021b      	lsls	r3, r3, #8
    136a:	430b      	orrs	r3, r1
    136c:	0400      	lsls	r0, r0, #16
    136e:	001a      	movs	r2, r3
    1370:	0003      	movs	r3, r0
    1372:	78e8      	ldrb	r0, [r5, #3]
    1374:	4313      	orrs	r3, r2
    1376:	0600      	lsls	r0, r0, #24
    1378:	4eca      	ldr	r6, [pc, #808]	; (16a4 <sampleTick+0x354>)
    137a:	7929      	ldrb	r1, [r5, #4]
    137c:	4318      	orrs	r0, r3
    137e:	47b0      	blx	r6
    1380:	23a4      	movs	r3, #164	; 0xa4
    1382:	009b      	lsls	r3, r3, #2
    1384:	52e0      	strh	r0, [r4, r3]
    my_altimeter->batV = my_altimeter->batV;
    my_altimeter->senseA = adc_read(senseAPin);
    1386:	79ab      	ldrb	r3, [r5, #6]
    1388:	7969      	ldrb	r1, [r5, #5]
    138a:	79e8      	ldrb	r0, [r5, #7]
    138c:	021b      	lsls	r3, r3, #8
    138e:	430b      	orrs	r3, r1
    1390:	0400      	lsls	r0, r0, #16
    1392:	001a      	movs	r2, r3
    1394:	0003      	movs	r3, r0
    1396:	7a28      	ldrb	r0, [r5, #8]
    1398:	4313      	orrs	r3, r2
    139a:	0600      	lsls	r0, r0, #24
    139c:	7a69      	ldrb	r1, [r5, #9]
    139e:	4318      	orrs	r0, r3
    13a0:	47b0      	blx	r6
    13a2:	4bc1      	ldr	r3, [pc, #772]	; (16a8 <sampleTick+0x358>)
    my_altimeter->senseB = adc_read(senseBPin);
    13a4:	7aa9      	ldrb	r1, [r5, #10]

    my_altimeter->sampleTick = millis();

    my_altimeter->batV = adc_read(senseBatPin);
    my_altimeter->batV = my_altimeter->batV;
    my_altimeter->senseA = adc_read(senseAPin);
    13a6:	52e0      	strh	r0, [r4, r3]
    my_altimeter->senseB = adc_read(senseBPin);
    13a8:	7aeb      	ldrb	r3, [r5, #11]
    13aa:	7b28      	ldrb	r0, [r5, #12]
    13ac:	021b      	lsls	r3, r3, #8
    13ae:	430b      	orrs	r3, r1
    13b0:	0400      	lsls	r0, r0, #16
    13b2:	001a      	movs	r2, r3
    13b4:	0003      	movs	r3, r0
    13b6:	7b68      	ldrb	r0, [r5, #13]
    13b8:	4313      	orrs	r3, r2
    13ba:	0600      	lsls	r0, r0, #24
    13bc:	7ba9      	ldrb	r1, [r5, #14]
    13be:	4318      	orrs	r0, r3
    13c0:	47b0      	blx	r6
    13c2:	23a5      	movs	r3, #165	; 0xa5
    13c4:	009b      	lsls	r3, r3, #2
    13c6:	52e0      	strh	r0, [r4, r3]
    my_altimeter->senseC = adc_read(senseCPin);
    13c8:	7c2b      	ldrb	r3, [r5, #16]
    13ca:	7be9      	ldrb	r1, [r5, #15]
    13cc:	7c68      	ldrb	r0, [r5, #17]
    13ce:	021b      	lsls	r3, r3, #8
    13d0:	430b      	orrs	r3, r1
    13d2:	0400      	lsls	r0, r0, #16
    13d4:	001a      	movs	r2, r3
    13d6:	0003      	movs	r3, r0
    13d8:	7ca8      	ldrb	r0, [r5, #18]
    13da:	4313      	orrs	r3, r2
    13dc:	0600      	lsls	r0, r0, #24
    13de:	7ce9      	ldrb	r1, [r5, #19]
    13e0:	4318      	orrs	r0, r3
    13e2:	47b0      	blx	r6
    13e4:	4bb1      	ldr	r3, [pc, #708]	; (16ac <sampleTick+0x35c>)
    my_altimeter->senseD = adc_read(senseDPin);
    13e6:	7d29      	ldrb	r1, [r5, #20]

    my_altimeter->batV = adc_read(senseBatPin);
    my_altimeter->batV = my_altimeter->batV;
    my_altimeter->senseA = adc_read(senseAPin);
    my_altimeter->senseB = adc_read(senseBPin);
    my_altimeter->senseC = adc_read(senseCPin);
    13e8:	52e0      	strh	r0, [r4, r3]
    my_altimeter->senseD = adc_read(senseDPin);
    13ea:	7d6b      	ldrb	r3, [r5, #21]
    13ec:	7da8      	ldrb	r0, [r5, #22]
    13ee:	021b      	lsls	r3, r3, #8
    13f0:	430b      	orrs	r3, r1
    13f2:	0400      	lsls	r0, r0, #16
    13f4:	001a      	movs	r2, r3
    13f6:	0003      	movs	r3, r0
    13f8:	7de8      	ldrb	r0, [r5, #23]
    13fa:	4313      	orrs	r3, r2
    13fc:	0600      	lsls	r0, r0, #24
    13fe:	7e29      	ldrb	r1, [r5, #24]
    1400:	4318      	orrs	r0, r3
    1402:	47b0      	blx	r6
    1404:	23a6      	movs	r3, #166	; 0xa6
    1406:	009b      	lsls	r3, r3, #2
    1408:	52e0      	strh	r0, [r4, r3]

    my_altimeter->myAnalogAccelerometer.analogRaw = adc_read(analogAccelPin);
    140a:	7eab      	ldrb	r3, [r5, #26]
    140c:	7e69      	ldrb	r1, [r5, #25]
    140e:	7ee8      	ldrb	r0, [r5, #27]
    1410:	021b      	lsls	r3, r3, #8
    1412:	430b      	orrs	r3, r1
    1414:	0400      	lsls	r0, r0, #16
    1416:	001a      	movs	r2, r3
    1418:	0003      	movs	r3, r0
    141a:	7f28      	ldrb	r0, [r5, #28]
    141c:	4313      	orrs	r3, r2
    141e:	0600      	lsls	r0, r0, #24
    1420:	7f69      	ldrb	r1, [r5, #29]
    1422:	4318      	orrs	r0, r3
    1424:	47b0      	blx	r6
    1426:	0023      	movs	r3, r4
    1428:	3380      	adds	r3, #128	; 0x80
    142a:	8018      	strh	r0, [r3, #0]
    my_altimeter->myAnalogAccelerometer.analogAccel = (my_altimeter->myAnalogAccelerometer.analogRaw - 3900) * -0.0154;
    142c:	4ba0      	ldr	r3, [pc, #640]	; (16b0 <sampleTick+0x360>)
    142e:	0026      	movs	r6, r4
    1430:	18c0      	adds	r0, r0, r3
    1432:	4ba0      	ldr	r3, [pc, #640]	; (16b4 <sampleTick+0x364>)
    1434:	4798      	blx	r3
    1436:	4aa0      	ldr	r2, [pc, #640]	; (16b8 <sampleTick+0x368>)
    1438:	4fa0      	ldr	r7, [pc, #640]	; (16bc <sampleTick+0x36c>)
    143a:	4ba1      	ldr	r3, [pc, #644]	; (16c0 <sampleTick+0x370>)
    143c:	47b8      	blx	r7
    143e:	4ba1      	ldr	r3, [pc, #644]	; (16c4 <sampleTick+0x374>)
    1440:	4798      	blx	r3
    PORT->Group[p.group].OUTSET.reg = (1<<p.pin);
}


inline static void pinLow(Pin p) {
    PORT->Group[p.group].OUTCLR.reg = (1<<p.pin);
    1442:	2780      	movs	r7, #128	; 0x80
    uint8_t dummy_Tx = 0xFF;
    uint8_t dummy_rx;

    pinLow(cs_baro);
    // dummy_rx = spiDataTransfer(SPI2, 0x50);
    byteOut(spi2SCK,spi2MOSI, 0x50);
    1444:	2250      	movs	r2, #80	; 0x50
    my_altimeter->senseD = adc_read(senseDPin);

    my_altimeter->myAnalogAccelerometer.analogRaw = adc_read(analogAccelPin);
    my_altimeter->myAnalogAccelerometer.analogAccel = (my_altimeter->myAnalogAccelerometer.analogRaw - 3900) * -0.0154;

    my_altimeter->myIMU.perviousAccelX = my_altimeter->myIMU.accelX;
    1446:	6ce3      	ldr	r3, [r4, #76]	; 0x4c
    my_altimeter->senseB = adc_read(senseBPin);
    my_altimeter->senseC = adc_read(senseCPin);
    my_altimeter->senseD = adc_read(senseDPin);

    my_altimeter->myAnalogAccelerometer.analogRaw = adc_read(analogAccelPin);
    my_altimeter->myAnalogAccelerometer.analogAccel = (my_altimeter->myAnalogAccelerometer.analogRaw - 3900) * -0.0154;
    1448:	3608      	adds	r6, #8
    144a:	67f0      	str	r0, [r6, #124]	; 0x7c

    my_altimeter->myIMU.perviousAccelX = my_altimeter->myIMU.accelX;
    144c:	6523      	str	r3, [r4, #80]	; 0x50
    144e:	4b9e      	ldr	r3, [pc, #632]	; (16c8 <sampleTick+0x378>)
    1450:	023f      	lsls	r7, r7, #8
    1452:	615f      	str	r7, [r3, #20]
    uint8_t dummy_Tx = 0xFF;
    uint8_t dummy_rx;

    pinLow(cs_baro);
    // dummy_rx = spiDataTransfer(SPI2, 0x50);
    byteOut(spi2SCK,spi2MOSI, 0x50);
    1454:	002e      	movs	r6, r5
    1456:	9200      	str	r2, [sp, #0]
    1458:	7fea      	ldrb	r2, [r5, #31]
    145a:	7fa8      	ldrb	r0, [r5, #30]
    145c:	0212      	lsls	r2, r2, #8
    145e:	4302      	orrs	r2, r0
    1460:	0011      	movs	r1, r2
    1462:	002b      	movs	r3, r5
    1464:	361e      	adds	r6, #30
    1466:	78b2      	ldrb	r2, [r6, #2]
    1468:	3323      	adds	r3, #35	; 0x23
    146a:	0412      	lsls	r2, r2, #16
    146c:	430a      	orrs	r2, r1
    146e:	78f1      	ldrb	r1, [r6, #3]
    1470:	7818      	ldrb	r0, [r3, #0]
    1472:	0609      	lsls	r1, r1, #24
    1474:	4311      	orrs	r1, r2
    1476:	7932      	ldrb	r2, [r6, #4]
    1478:	789d      	ldrb	r5, [r3, #2]
    147a:	9204      	str	r2, [sp, #16]
    147c:	785a      	ldrb	r2, [r3, #1]
    147e:	042d      	lsls	r5, r5, #16
    1480:	0212      	lsls	r2, r2, #8
    1482:	4302      	orrs	r2, r0
    1484:	9103      	str	r1, [sp, #12]
    1486:	0011      	movs	r1, r2
    1488:	002a      	movs	r2, r5
    148a:	78dd      	ldrb	r5, [r3, #3]
    148c:	791b      	ldrb	r3, [r3, #4]
    148e:	430a      	orrs	r2, r1
    1490:	062d      	lsls	r5, r5, #24
    1492:	4315      	orrs	r5, r2
    1494:	9305      	str	r3, [sp, #20]
    1496:	9a03      	ldr	r2, [sp, #12]
    1498:	9905      	ldr	r1, [sp, #20]
    149a:	9b04      	ldr	r3, [sp, #16]
    149c:	0028      	movs	r0, r5
    149e:	4e8b      	ldr	r6, [pc, #556]	; (16cc <sampleTick+0x37c>)
    14a0:	47b0      	blx	r6
    pinHigh(cs_baro);
    delay_us(500);
    14a2:	20fa      	movs	r0, #250	; 0xfa
    pinGpio(p);
    PORT->Group[p.group].DIRSET.reg = (1<<p.pin);
}

inline static void pinHigh(Pin p) {
    PORT->Group[p.group].OUTSET.reg = (1<<p.pin);
    14a4:	4b88      	ldr	r3, [pc, #544]	; (16c8 <sampleTick+0x378>)
    14a6:	0040      	lsls	r0, r0, #1
    14a8:	619f      	str	r7, [r3, #24]
    14aa:	4b89      	ldr	r3, [pc, #548]	; (16d0 <sampleTick+0x380>)
    14ac:	4798      	blx	r3
    my_altimeter->myBarometer.rawTempatureData = readMS5803AdcResults();
    14ae:	4b89      	ldr	r3, [pc, #548]	; (16d4 <sampleTick+0x384>)
    14b0:	4798      	blx	r3
}


inline static void pinLow(Pin p) {
    PORT->Group[p.group].OUTCLR.reg = (1<<p.pin);
    14b2:	4b85      	ldr	r3, [pc, #532]	; (16c8 <sampleTick+0x378>)
    14b4:	6160      	str	r0, [r4, #20]
    14b6:	615f      	str	r7, [r3, #20]

    pinLow(cs_baro);
    //  dummy_rx = spiDataTransfer(SPI2, 0x42);
    byteOut(spi2SCK,spi2MOSI, 0x42);
    14b8:	2342      	movs	r3, #66	; 0x42
    14ba:	9a03      	ldr	r2, [sp, #12]
    14bc:	9300      	str	r3, [sp, #0]
    14be:	0028      	movs	r0, r5
    14c0:	9b04      	ldr	r3, [sp, #16]
    14c2:	9905      	ldr	r1, [sp, #20]
    14c4:	47b0      	blx	r6
    14c6:	2280      	movs	r2, #128	; 0x80
    pinGpio(p);
    PORT->Group[p.group].DIRSET.reg = (1<<p.pin);
}

inline static void pinHigh(Pin p) {
    PORT->Group[p.group].OUTSET.reg = (1<<p.pin);
    14c8:	4b7f      	ldr	r3, [pc, #508]	; (16c8 <sampleTick+0x378>)
}


inline static void pinLow(Pin p) {
    PORT->Group[p.group].OUTCLR.reg = (1<<p.pin);
    14ca:	00d2      	lsls	r2, r2, #3
    pinGpio(p);
    PORT->Group[p.group].DIRSET.reg = (1<<p.pin);
}

inline static void pinHigh(Pin p) {
    PORT->Group[p.group].OUTSET.reg = (1<<p.pin);
    14cc:	619f      	str	r7, [r3, #24]
}


inline static void pinLow(Pin p) {
    PORT->Group[p.group].OUTCLR.reg = (1<<p.pin);
    14ce:	4b82      	ldr	r3, [pc, #520]	; (16d8 <sampleTick+0x388>)



// Accel data
    pinLow(cs_accel);
    dummy_rx = spiDataTransfer(SPI0, BMI055_X_ACC_LSB | BMI055_READ_REG);
    14d0:	4f82      	ldr	r7, [pc, #520]	; (16dc <sampleTick+0x38c>)
    14d2:	601a      	str	r2, [r3, #0]
    14d4:	2182      	movs	r1, #130	; 0x82
    14d6:	2000      	movs	r0, #0
    14d8:	47b8      	blx	r7

    my_altimeter->myIMU.accelXRaw = spiDataTransfer(SPI0,dummy_Tx);
    14da:	21ff      	movs	r1, #255	; 0xff
    14dc:	2000      	movs	r0, #0
    14de:	47b8      	blx	r7
    14e0:	0023      	movs	r3, r4
    14e2:	3368      	adds	r3, #104	; 0x68
    14e4:	8018      	strh	r0, [r3, #0]
    14e6:	0005      	movs	r5, r0
    my_altimeter->myIMU.accelXRaw = my_altimeter->myIMU.accelXRaw |  (spiDataTransfer(SPI0,dummy_Tx) << 8);
    14e8:	21ff      	movs	r1, #255	; 0xff
    14ea:	2000      	movs	r0, #0

// Accel data
    pinLow(cs_accel);
    dummy_rx = spiDataTransfer(SPI0, BMI055_X_ACC_LSB | BMI055_READ_REG);

    my_altimeter->myIMU.accelXRaw = spiDataTransfer(SPI0,dummy_Tx);
    14ec:	9303      	str	r3, [sp, #12]
    my_altimeter->myIMU.accelXRaw = my_altimeter->myIMU.accelXRaw |  (spiDataTransfer(SPI0,dummy_Tx) << 8);
    14ee:	47b8      	blx	r7
    14f0:	9b03      	ldr	r3, [sp, #12]
    14f2:	0200      	lsls	r0, r0, #8
    14f4:	4305      	orrs	r5, r0
    14f6:	801d      	strh	r5, [r3, #0]
    my_altimeter->myIMU.accelYRaw = spiDataTransfer(SPI0,dummy_Tx);
    14f8:	21ff      	movs	r1, #255	; 0xff
    14fa:	0026      	movs	r6, r4
    14fc:	2000      	movs	r0, #0
    14fe:	47b8      	blx	r7
    1500:	366c      	adds	r6, #108	; 0x6c
    1502:	8030      	strh	r0, [r6, #0]
    1504:	0005      	movs	r5, r0
    my_altimeter->myIMU.accelYRaw = my_altimeter->myIMU.accelYRaw |  (spiDataTransfer(SPI0,dummy_Tx) << 8);
    1506:	21ff      	movs	r1, #255	; 0xff
    1508:	2000      	movs	r0, #0
    150a:	47b8      	blx	r7
    150c:	0200      	lsls	r0, r0, #8
    150e:	4305      	orrs	r5, r0
    1510:	8035      	strh	r5, [r6, #0]
    my_altimeter->myIMU.accelZRaw = spiDataTransfer(SPI0,dummy_Tx);
    1512:	21ff      	movs	r1, #255	; 0xff
    1514:	2000      	movs	r0, #0
    1516:	47b8      	blx	r7
    1518:	466b      	mov	r3, sp
    151a:	0025      	movs	r5, r4
    151c:	9004      	str	r0, [sp, #16]
    151e:	8a1b      	ldrh	r3, [r3, #16]
    1520:	3570      	adds	r5, #112	; 0x70
    1522:	802b      	strh	r3, [r5, #0]
    my_altimeter->myIMU.accelZRaw = my_altimeter->myIMU.accelZRaw |  (spiDataTransfer(SPI0,dummy_Tx) << 8);
    1524:	21ff      	movs	r1, #255	; 0xff
    1526:	2000      	movs	r0, #0
    1528:	47b8      	blx	r7
    pinGpio(p);
    PORT->Group[p.group].DIRSET.reg = (1<<p.pin);
}

inline static void pinHigh(Pin p) {
    PORT->Group[p.group].OUTSET.reg = (1<<p.pin);
    152a:	2280      	movs	r2, #128	; 0x80
    152c:	9b04      	ldr	r3, [sp, #16]
    152e:	0200      	lsls	r0, r0, #8
    1530:	4303      	orrs	r3, r0
    1532:	802b      	strh	r3, [r5, #0]
    1534:	4b6a      	ldr	r3, [pc, #424]	; (16e0 <sampleTick+0x390>)
    1536:	00d2      	lsls	r2, r2, #3
    1538:	601a      	str	r2, [r3, #0]

    pinHigh(cs_accel);

    bool negativeX = ( my_altimeter->myIMU.accelXRaw & (1<<15)) != 0;
    153a:	9b03      	ldr	r3, [sp, #12]
    bool negativeY =  ( my_altimeter->myIMU.accelYRaw & (1<<15)) != 0;
    bool negativeZ =  ( my_altimeter->myIMU.accelZRaw & (1<<15)) != 0;

    my_altimeter->myIMU.accelXint = my_altimeter->myIMU.accelXRaw;
    my_altimeter->myIMU.accelYint = my_altimeter->myIMU.accelYRaw;
    153c:	3d02      	subs	r5, #2
    my_altimeter->myIMU.accelZRaw = spiDataTransfer(SPI0,dummy_Tx);
    my_altimeter->myIMU.accelZRaw = my_altimeter->myIMU.accelZRaw |  (spiDataTransfer(SPI0,dummy_Tx) << 8);

    pinHigh(cs_accel);

    bool negativeX = ( my_altimeter->myIMU.accelXRaw & (1<<15)) != 0;
    153e:	2000      	movs	r0, #0
    1540:	5e18      	ldrsh	r0, [r3, r0]
    bool negativeY =  ( my_altimeter->myIMU.accelYRaw & (1<<15)) != 0;
    1542:	2300      	movs	r3, #0
    1544:	5ef2      	ldrsh	r2, [r6, r3]
    bool negativeZ =  ( my_altimeter->myIMU.accelZRaw & (1<<15)) != 0;
    1546:	2102      	movs	r1, #2
    1548:	5e6b      	ldrsh	r3, [r5, r1]

    if (negativeX) {
        my_altimeter->myIMU.accelXint = my_altimeter->myIMU.accelXint | ~((1 << 16) - 1);
        my_altimeter->myIMU.accelXint = my_altimeter->myIMU.accelXint >> 4;
    } else {
        my_altimeter->myIMU.accelXint = my_altimeter->myIMU.accelXint >> 4;
    154a:	0021      	movs	r1, r4
    154c:	1112      	asrs	r2, r2, #4
    154e:	1100      	asrs	r0, r0, #4
    1550:	316a      	adds	r1, #106	; 0x6a
    1552:	111b      	asrs	r3, r3, #4
    bool negativeX = ( my_altimeter->myIMU.accelXRaw & (1<<15)) != 0;
    bool negativeY =  ( my_altimeter->myIMU.accelYRaw & (1<<15)) != 0;
    bool negativeZ =  ( my_altimeter->myIMU.accelZRaw & (1<<15)) != 0;

    my_altimeter->myIMU.accelXint = my_altimeter->myIMU.accelXRaw;
    my_altimeter->myIMU.accelYint = my_altimeter->myIMU.accelYRaw;
    1554:	9503      	str	r5, [sp, #12]

    if (negativeX) {
        my_altimeter->myIMU.accelXint = my_altimeter->myIMU.accelXint | ~((1 << 16) - 1);
        my_altimeter->myIMU.accelXint = my_altimeter->myIMU.accelXint >> 4;
    } else {
        my_altimeter->myIMU.accelXint = my_altimeter->myIMU.accelXint >> 4;
    1556:	8008      	strh	r0, [r1, #0]
    }
    if (negativeY) {
        my_altimeter->myIMU.accelYint = my_altimeter->myIMU.accelYint | ~((1 << 16) - 1);
        my_altimeter->myIMU.accelYint = my_altimeter->myIMU.accelYint >> 4;
    } else {
        my_altimeter->myIMU.accelYint = my_altimeter->myIMU.accelYint >> 4;
    1558:	802a      	strh	r2, [r5, #0]
    }
    if (negativeZ) {
        my_altimeter->myIMU.accelZint = my_altimeter->myIMU.accelZint | ~((1 << 16) - 1);
        my_altimeter->myIMU.accelZint = my_altimeter->myIMU.accelZint >> 4;
    } else {
        my_altimeter->myIMU.accelZint = my_altimeter->myIMU.accelZint >> 4;
    155a:	80f3      	strh	r3, [r6, #6]
    }

    my_altimeter->myIMU.accelX = my_altimeter->myIMU.accelXint * BMI055_ACCEL_16G_DIV;
    155c:	4b55      	ldr	r3, [pc, #340]	; (16b4 <sampleTick+0x364>)
    155e:	4798      	blx	r3
    1560:	23fe      	movs	r3, #254	; 0xfe
    1562:	4d56      	ldr	r5, [pc, #344]	; (16bc <sampleTick+0x36c>)
    1564:	2200      	movs	r2, #0
    1566:	059b      	lsls	r3, r3, #22
    1568:	47a8      	blx	r5
    156a:	4b56      	ldr	r3, [pc, #344]	; (16c4 <sampleTick+0x374>)
    156c:	4798      	blx	r3
    my_altimeter->myIMU.accelY = my_altimeter->myIMU.accelYint * BMI055_ACCEL_16G_DIV;
    156e:	9b03      	ldr	r3, [sp, #12]
        my_altimeter->myIMU.accelZint = my_altimeter->myIMU.accelZint >> 4;
    } else {
        my_altimeter->myIMU.accelZint = my_altimeter->myIMU.accelZint >> 4;
    }

    my_altimeter->myIMU.accelX = my_altimeter->myIMU.accelXint * BMI055_ACCEL_16G_DIV;
    1570:	64e0      	str	r0, [r4, #76]	; 0x4c
    my_altimeter->myIMU.accelY = my_altimeter->myIMU.accelYint * BMI055_ACCEL_16G_DIV;
    1572:	2000      	movs	r0, #0
    1574:	5e18      	ldrsh	r0, [r3, r0]
    1576:	4b4f      	ldr	r3, [pc, #316]	; (16b4 <sampleTick+0x364>)
    1578:	4798      	blx	r3
    157a:	23fe      	movs	r3, #254	; 0xfe
    157c:	2200      	movs	r2, #0
    157e:	059b      	lsls	r3, r3, #22
    1580:	47a8      	blx	r5
    1582:	4b50      	ldr	r3, [pc, #320]	; (16c4 <sampleTick+0x374>)
    1584:	4798      	blx	r3
    1586:	6560      	str	r0, [r4, #84]	; 0x54
    my_altimeter->myIMU.accelZ = my_altimeter->myIMU.accelZint * BMI055_ACCEL_16G_DIV;
    1588:	2306      	movs	r3, #6
    158a:	5ef0      	ldrsh	r0, [r6, r3]
    158c:	4b49      	ldr	r3, [pc, #292]	; (16b4 <sampleTick+0x364>)
    158e:	4798      	blx	r3
    1590:	23fe      	movs	r3, #254	; 0xfe
    1592:	2200      	movs	r2, #0
    1594:	059b      	lsls	r3, r3, #22
    1596:	47a8      	blx	r5
    1598:	4b4a      	ldr	r3, [pc, #296]	; (16c4 <sampleTick+0x374>)
    159a:	4798      	blx	r3
}


inline static void pinLow(Pin p) {
    PORT->Group[p.group].OUTCLR.reg = (1<<p.pin);
    159c:	2280      	movs	r2, #128	; 0x80
    159e:	4b4a      	ldr	r3, [pc, #296]	; (16c8 <sampleTick+0x378>)
    15a0:	00d2      	lsls	r2, r2, #3
    15a2:	65a0      	str	r0, [r4, #88]	; 0x58


    // Gyro data
    pinLow(cs_gyro);
    dummy_rx = spiDataTransfer(SPI0, BMI055_X_GYRO_LSB | BMI055_READ_REG);
    15a4:	2182      	movs	r1, #130	; 0x82
    15a6:	615a      	str	r2, [r3, #20]
    15a8:	2000      	movs	r0, #0
    15aa:	47b8      	blx	r7
    my_altimeter->myIMU.gyroXRaw = spiDataTransfer(SPI0,dummy_Tx);
    15ac:	21ff      	movs	r1, #255	; 0xff
    15ae:	2000      	movs	r0, #0
    15b0:	47b8      	blx	r7
    15b2:	0023      	movs	r3, r4
    15b4:	3374      	adds	r3, #116	; 0x74
    15b6:	8018      	strh	r0, [r3, #0]
    15b8:	0005      	movs	r5, r0
    my_altimeter->myIMU.gyroXRaw = my_altimeter->myIMU.gyroXRaw |  (spiDataTransfer(SPI0,dummy_Tx) << 8);
    15ba:	21ff      	movs	r1, #255	; 0xff
    15bc:	2000      	movs	r0, #0


    // Gyro data
    pinLow(cs_gyro);
    dummy_rx = spiDataTransfer(SPI0, BMI055_X_GYRO_LSB | BMI055_READ_REG);
    my_altimeter->myIMU.gyroXRaw = spiDataTransfer(SPI0,dummy_Tx);
    15be:	9303      	str	r3, [sp, #12]
    my_altimeter->myIMU.gyroXRaw = my_altimeter->myIMU.gyroXRaw |  (spiDataTransfer(SPI0,dummy_Tx) << 8);
    15c0:	47b8      	blx	r7
    15c2:	9b03      	ldr	r3, [sp, #12]
    15c4:	0200      	lsls	r0, r0, #8
    15c6:	4305      	orrs	r5, r0
    15c8:	801d      	strh	r5, [r3, #0]
    my_altimeter->myIMU.gyroYRaw = spiDataTransfer(SPI0,dummy_Tx);
    15ca:	21ff      	movs	r1, #255	; 0xff
    15cc:	2000      	movs	r0, #0
    15ce:	47b8      	blx	r7
    my_altimeter->myIMU.gyroYRaw = my_altimeter->myIMU.gyroYRaw |  (spiDataTransfer(SPI0,dummy_Tx) << 8);
    15d0:	21ff      	movs	r1, #255	; 0xff
    // Gyro data
    pinLow(cs_gyro);
    dummy_rx = spiDataTransfer(SPI0, BMI055_X_GYRO_LSB | BMI055_READ_REG);
    my_altimeter->myIMU.gyroXRaw = spiDataTransfer(SPI0,dummy_Tx);
    my_altimeter->myIMU.gyroXRaw = my_altimeter->myIMU.gyroXRaw |  (spiDataTransfer(SPI0,dummy_Tx) << 8);
    my_altimeter->myIMU.gyroYRaw = spiDataTransfer(SPI0,dummy_Tx);
    15d2:	81b0      	strh	r0, [r6, #12]
    15d4:	0005      	movs	r5, r0
    my_altimeter->myIMU.gyroYRaw = my_altimeter->myIMU.gyroYRaw |  (spiDataTransfer(SPI0,dummy_Tx) << 8);
    15d6:	2000      	movs	r0, #0
    15d8:	47b8      	blx	r7
    15da:	0200      	lsls	r0, r0, #8
    15dc:	4305      	orrs	r5, r0
    15de:	81b5      	strh	r5, [r6, #12]
    my_altimeter->myIMU.gyroZRaw = spiDataTransfer(SPI0,dummy_Tx);
    15e0:	21ff      	movs	r1, #255	; 0xff
    15e2:	2000      	movs	r0, #0
    15e4:	47b8      	blx	r7
    15e6:	466b      	mov	r3, sp
    15e8:	0025      	movs	r5, r4
    15ea:	9004      	str	r0, [sp, #16]
    15ec:	8a1b      	ldrh	r3, [r3, #16]
    15ee:	357c      	adds	r5, #124	; 0x7c
    15f0:	802b      	strh	r3, [r5, #0]
    my_altimeter->myIMU.gyroZRaw = my_altimeter->myIMU.gyroZRaw |  (spiDataTransfer(SPI0,dummy_Tx) << 8);
    15f2:	21ff      	movs	r1, #255	; 0xff
    15f4:	2000      	movs	r0, #0
    15f6:	47b8      	blx	r7
    pinGpio(p);
    PORT->Group[p.group].DIRSET.reg = (1<<p.pin);
}

inline static void pinHigh(Pin p) {
    PORT->Group[p.group].OUTSET.reg = (1<<p.pin);
    15f8:	2280      	movs	r2, #128	; 0x80
    15fa:	9f04      	ldr	r7, [sp, #16]
    15fc:	0200      	lsls	r0, r0, #8
    15fe:	4b32      	ldr	r3, [pc, #200]	; (16c8 <sampleTick+0x378>)
    1600:	4307      	orrs	r7, r0
    1602:	00d2      	lsls	r2, r2, #3
    1604:	802f      	strh	r7, [r5, #0]
    1606:	619a      	str	r2, [r3, #24]
    pinHigh(cs_gyro);

    bool negativeXgyro = (my_altimeter->myIMU.gyroXRaw & (1<<15)) != 0;
    1608:	9b03      	ldr	r3, [sp, #12]
    160a:	2000      	movs	r0, #0
    160c:	5e18      	ldrsh	r0, [r3, r0]
    bool negativeYgyro = (my_altimeter->myIMU.gyroYRaw & (1<<15)) != 0;
    160e:	230c      	movs	r3, #12
    1610:	5ef2      	ldrsh	r2, [r6, r3]
    bool negativeZgyro = (my_altimeter->myIMU.gyroZRaw & (1<<15)) != 0;
    1612:	2100      	movs	r1, #0
    1614:	5e6b      	ldrsh	r3, [r5, r1]

    if (negativeXgyro) {
        my_altimeter->myIMU.gyroXint = my_altimeter->myIMU.gyroXint | ~((1 << 16) - 1);
        my_altimeter->myIMU.gyroXint = my_altimeter->myIMU.gyroXint >> 4;
    } else {
        my_altimeter->myIMU.gyroXint = my_altimeter->myIMU.gyroXint >> 4;
    1616:	0021      	movs	r1, r4
    1618:	1112      	asrs	r2, r2, #4
    161a:	1100      	asrs	r0, r0, #4
    161c:	3176      	adds	r1, #118	; 0x76
    161e:	111b      	asrs	r3, r3, #4
    1620:	8008      	strh	r0, [r1, #0]

    if (negativeYgyro) {
        my_altimeter->myIMU.gyroYint = my_altimeter->myIMU.gyroYint | ~((1 << 16) - 1);
        my_altimeter->myIMU.gyroYint = my_altimeter->myIMU.gyroYint >> 4;
    } else {
        my_altimeter->myIMU.gyroYint = my_altimeter->myIMU.gyroYint >> 4;
    1622:	81f2      	strh	r2, [r6, #14]

    if (negativeZgyro) {
        my_altimeter->myIMU.gyroZint = my_altimeter->myIMU.gyroZint | ~((1 << 16) - 1);
        my_altimeter->myIMU.gyroZint = my_altimeter->myIMU.gyroZint >> 4;
    } else {
        my_altimeter->myIMU.gyroZint = my_altimeter->myIMU.gyroZint >> 4;
    1624:	806b      	strh	r3, [r5, #2]
    }

    my_altimeter->myIMU.gyroX = my_altimeter->myIMU.gyroXint * BMI055_GYRO_2000DS_DIV;
    1626:	4b23      	ldr	r3, [pc, #140]	; (16b4 <sampleTick+0x364>)
    1628:	4798      	blx	r3
    162a:	23fe      	movs	r3, #254	; 0xfe
    162c:	4f23      	ldr	r7, [pc, #140]	; (16bc <sampleTick+0x36c>)
    162e:	2200      	movs	r2, #0
    1630:	059b      	lsls	r3, r3, #22
    1632:	47b8      	blx	r7
    1634:	4b23      	ldr	r3, [pc, #140]	; (16c4 <sampleTick+0x374>)
    1636:	4798      	blx	r3
    1638:	65e0      	str	r0, [r4, #92]	; 0x5c
    my_altimeter->myIMU.gyroY = my_altimeter->myIMU.gyroYint * BMI055_GYRO_2000DS_DIV;
    163a:	230e      	movs	r3, #14
    163c:	5ef0      	ldrsh	r0, [r6, r3]
    163e:	4b1d      	ldr	r3, [pc, #116]	; (16b4 <sampleTick+0x364>)
    1640:	4798      	blx	r3
    1642:	23fe      	movs	r3, #254	; 0xfe
    1644:	2200      	movs	r2, #0
    1646:	059b      	lsls	r3, r3, #22
    1648:	47b8      	blx	r7
    164a:	4b1e      	ldr	r3, [pc, #120]	; (16c4 <sampleTick+0x374>)
    164c:	4798      	blx	r3
    164e:	6620      	str	r0, [r4, #96]	; 0x60
    my_altimeter->myIMU.gyroZ = my_altimeter->myIMU.gyroZint * BMI055_GYRO_2000DS_DIV;
    1650:	2302      	movs	r3, #2
    1652:	5ee8      	ldrsh	r0, [r5, r3]
    1654:	4b17      	ldr	r3, [pc, #92]	; (16b4 <sampleTick+0x364>)
    1656:	4798      	blx	r3
    1658:	23fe      	movs	r3, #254	; 0xfe
    165a:	2200      	movs	r2, #0
    165c:	059b      	lsls	r3, r3, #22
    165e:	47b8      	blx	r7
    1660:	4b18      	ldr	r3, [pc, #96]	; (16c4 <sampleTick+0x374>)
    1662:	4798      	blx	r3
    1664:	6660      	str	r0, [r4, #100]	; 0x64

    delay_us(800);
    1666:	20c8      	movs	r0, #200	; 0xc8
    1668:	4b19      	ldr	r3, [pc, #100]	; (16d0 <sampleTick+0x380>)
    166a:	0080      	lsls	r0, r0, #2
    166c:	4798      	blx	r3
    my_altimeter->myBarometer.rawPressureData = readMS5803AdcResults();
    166e:	4b19      	ldr	r3, [pc, #100]	; (16d4 <sampleTick+0x384>)
    1670:	4798      	blx	r3
    ConvertPressureTemperature(&my_altimeter->myBarometer);
    1672:	1d25      	adds	r5, r4, #4
    my_altimeter->myIMU.gyroX = my_altimeter->myIMU.gyroXint * BMI055_GYRO_2000DS_DIV;
    my_altimeter->myIMU.gyroY = my_altimeter->myIMU.gyroYint * BMI055_GYRO_2000DS_DIV;
    my_altimeter->myIMU.gyroZ = my_altimeter->myIMU.gyroZint * BMI055_GYRO_2000DS_DIV;

    delay_us(800);
    my_altimeter->myBarometer.rawPressureData = readMS5803AdcResults();
    1674:	6120      	str	r0, [r4, #16]
    ConvertPressureTemperature(&my_altimeter->myBarometer);
    1676:	4b1b      	ldr	r3, [pc, #108]	; (16e4 <sampleTick+0x394>)
    1678:	0028      	movs	r0, r5
    167a:	4798      	blx	r3
    pascalToCent(&my_altimeter->myBarometer);
    167c:	0028      	movs	r0, r5
    167e:	4b1a      	ldr	r3, [pc, #104]	; (16e8 <sampleTick+0x398>)
    1680:	4798      	blx	r3
    my_altimeter->myBarometer.heightFeet = 0.03281 * my_altimeter->myBarometer.heightCm;
    1682:	4b1a      	ldr	r3, [pc, #104]	; (16ec <sampleTick+0x39c>)
    1684:	6a60      	ldr	r0, [r4, #36]	; 0x24
    1686:	4798      	blx	r3
    1688:	4a19      	ldr	r2, [pc, #100]	; (16f0 <sampleTick+0x3a0>)
    168a:	4b1a      	ldr	r3, [pc, #104]	; (16f4 <sampleTick+0x3a4>)
    168c:	4d0b      	ldr	r5, [pc, #44]	; (16bc <sampleTick+0x36c>)
    168e:	47a8      	blx	r5
    1690:	4b0c      	ldr	r3, [pc, #48]	; (16c4 <sampleTick+0x374>)
    1692:	4798      	blx	r3
    1694:	62a0      	str	r0, [r4, #40]	; 0x28


}
    1696:	b007      	add	sp, #28
    1698:	bdf0      	pop	{r4, r5, r6, r7, pc}
    169a:	46c0      	nop			; (mov r8, r8)
    169c:	00000eed 	.word	0x00000eed
    16a0:	00003520 	.word	0x00003520
    16a4:	00000b99 	.word	0x00000b99
    16a8:	00000292 	.word	0x00000292
    16ac:	00000296 	.word	0x00000296
    16b0:	fffff0c4 	.word	0xfffff0c4
    16b4:	00002ee9 	.word	0x00002ee9
    16b8:	02de00d2 	.word	0x02de00d2
    16bc:	000022e1 	.word	0x000022e1
    16c0:	bf8f8a09 	.word	0xbf8f8a09
    16c4:	00003085 	.word	0x00003085
    16c8:	41004400 	.word	0x41004400
    16cc:	00000c01 	.word	0x00000c01
    16d0:	00000e71 	.word	0x00000e71
    16d4:	00000251 	.word	0x00000251
    16d8:	41004494 	.word	0x41004494
    16dc:	00001805 	.word	0x00001805
    16e0:	41004498 	.word	0x41004498
    16e4:	00000305 	.word	0x00000305
    16e8:	000003f1 	.word	0x000003f1
    16ec:	00002f6d 	.word	0x00002f6d
    16f0:	e9f6a93f 	.word	0xe9f6a93f
    16f4:	3fa0cc78 	.word	0x3fa0cc78

000016f8 <sercomClockEnable>:
#include <util.h>

void sercomClockEnable(SercomId id, uint32_t clock_channel, u8_t divider) {
    16f8:	b570      	push	{r4, r5, r6, lr}
    16fa:	0004      	movs	r4, r0
    // prevent this clock write from changing any other clocks
    PM->APBCMASK.reg |= 1 << (PM_APBCMASK_SERCOM0_Pos + id);
    16fc:	2301      	movs	r3, #1
    16fe:	1ca6      	adds	r6, r4, #2
    1700:	40b3      	lsls	r3, r6
    1702:	480d      	ldr	r0, [pc, #52]	; (1738 <sercomClockEnable+0x40>)
#include <util.h>

void sercomClockEnable(SercomId id, uint32_t clock_channel, u8_t divider) {
    1704:	000d      	movs	r5, r1
    // prevent this clock write from changing any other clocks
    PM->APBCMASK.reg |= 1 << (PM_APBCMASK_SERCOM0_Pos + id);
    1706:	6a01      	ldr	r1, [r0, #32]
    1708:	430b      	orrs	r3, r1
    170a:	6203      	str	r3, [r0, #32]


    if (clock_channel != 0) {
    170c:	2d00      	cmp	r5, #0
    170e:	d003      	beq.n	1718 <sercomClockEnable+0x20>
        // clock generators 3-8 have 8 division factor bits - DIV[7:0]
        gclkEnable(clock_channel, GCLK_SOURCE_DFLL48M, divider);
    1710:	2107      	movs	r1, #7
    1712:	0028      	movs	r0, r5
    1714:	4b09      	ldr	r3, [pc, #36]	; (173c <sercomClockEnable+0x44>)
    1716:	4798      	blx	r3
    }


    // attach clock
    GCLK->CLKCTRL.reg = GCLK_CLKCTRL_CLKEN |
    1718:	22f0      	movs	r2, #240	; 0xf0
    171a:	2080      	movs	r0, #128	; 0x80
    171c:	0229      	lsls	r1, r5, #8
    171e:	0112      	lsls	r2, r2, #4
    1720:	4011      	ands	r1, r2
    1722:	01c0      	lsls	r0, r0, #7
    1724:	4301      	orrs	r1, r0
    1726:	0020      	movs	r0, r4
    1728:	3014      	adds	r0, #20
    172a:	223f      	movs	r2, #63	; 0x3f
    172c:	0003      	movs	r3, r0
    172e:	4013      	ands	r3, r2
    1730:	4319      	orrs	r1, r3
    1732:	4b03      	ldr	r3, [pc, #12]	; (1740 <sercomClockEnable+0x48>)
    1734:	8059      	strh	r1, [r3, #2]
                        GCLK_CLKCTRL_GEN(clock_channel) |
                        GCLK_CLKCTRL_ID(SERCOM0_GCLK_ID_CORE + id);
}
    1736:	bd70      	pop	{r4, r5, r6, pc}
    1738:	40000400 	.word	0x40000400
    173c:	00000e21 	.word	0x00000e21
    1740:	40000c00 	.word	0x40000c00

00001744 <sercomReset>:
//sample.c
void sampleTick(Altimeter *my_altimeter);

//dma.c
inline static Sercom* sercom(SercomId id) {
    return (Sercom*) (0x42000800U + id * 1024);
    1744:	4b04      	ldr	r3, [pc, #16]	; (1758 <sercomReset+0x14>)
    1746:	0280      	lsls	r0, r0, #10
    1748:	18c0      	adds	r0, r0, r3


void sercomReset(SercomId id) {
    sercom(id)->SPI.CTRLA.reg = SERCOM_SPI_CTRLA_SWRST;
    174a:	2301      	movs	r3, #1
    174c:	6003      	str	r3, [r0, #0]
    while(sercom(id)->SPI.CTRLA.reg & SERCOM_SPI_CTRLA_SWRST);
    174e:	6802      	ldr	r2, [r0, #0]
    1750:	421a      	tst	r2, r3
    1752:	d1fc      	bne.n	174e <sercomReset+0xa>
}
    1754:	4770      	bx	lr
    1756:	46c0      	nop			; (mov r8, r8)
    1758:	42000800 	.word	0x42000800

0000175c <sercomSpiMasterInit>:
          | (cpol ? SERCOM_SPI_CTRLA_CPOL : 0)
          | (cpha ? SERCOM_SPI_CTRLA_CPHA : 0);
}


void sercomSpiMasterInit(SercomId id, u32_t dipo, u32_t dopo, bool cpol, bool cpha, u8_t baud) {
    175c:	b5f7      	push	{r0, r1, r2, r4, r5, r6, r7, lr}
    175e:	0004      	movs	r4, r0
    1760:	9300      	str	r3, [sp, #0]
    1762:	ab08      	add	r3, sp, #32
    1764:	781b      	ldrb	r3, [r3, #0]
    1766:	000e      	movs	r6, r1
    1768:	9301      	str	r3, [sp, #4]
    176a:	ab09      	add	r3, sp, #36	; 0x24
    176c:	781f      	ldrb	r7, [r3, #0]

    sercomReset(id);
    176e:	4b12      	ldr	r3, [pc, #72]	; (17b8 <sercomSpiMasterInit+0x5c>)
          | (cpol ? SERCOM_SPI_CTRLA_CPOL : 0)
          | (cpha ? SERCOM_SPI_CTRLA_CPHA : 0);
}


void sercomSpiMasterInit(SercomId id, u32_t dipo, u32_t dopo, bool cpol, bool cpha, u8_t baud) {
    1770:	0015      	movs	r5, r2

    sercomReset(id);
    1772:	4798      	blx	r3
    1774:	4b11      	ldr	r3, [pc, #68]	; (17bc <sercomSpiMasterInit+0x60>)
    1776:	02a4      	lsls	r4, r4, #10
    1778:	18e4      	adds	r4, r4, r3

    sercom(id)->SPI.CTRLB.reg
        = SERCOM_SPI_CTRLB_RXEN;
    177a:	2380      	movs	r3, #128	; 0x80
    177c:	029b      	lsls	r3, r3, #10
    177e:	6063      	str	r3, [r4, #4]
    1780:	23c0      	movs	r3, #192	; 0xc0
    sercom(id)->SPI.BAUD.reg = baud;

    sercom(id)->SPI.CTRLA.reg
        = SERCOM_SPI_CTRLA_ENABLE
          | SERCOM_SPI_CTRLA_MODE_SPI_MASTER
          | SERCOM_SPI_CTRLA_DIPO(dipo)
    1782:	21c0      	movs	r1, #192	; 0xc0
    1784:	042d      	lsls	r5, r5, #16
    1786:	029b      	lsls	r3, r3, #10
    1788:	402b      	ands	r3, r5
    178a:	250e      	movs	r5, #14
    178c:	0536      	lsls	r6, r6, #20
    178e:	0389      	lsls	r1, r1, #14
    1790:	4031      	ands	r1, r6
          | SERCOM_SPI_CTRLA_DOPO(dopo)
          | (cpol ? SERCOM_SPI_CTRLA_CPOL : 0)
    1792:	9e00      	ldr	r6, [sp, #0]
    1794:	431d      	orrs	r5, r3
    1796:	1e73      	subs	r3, r6, #1
    1798:	419e      	sbcs	r6, r3
          | (cpha ? SERCOM_SPI_CTRLA_CPHA : 0);
    179a:	9b01      	ldr	r3, [sp, #4]
    sercom(id)->SPI.CTRLA.reg
        = SERCOM_SPI_CTRLA_ENABLE
          | SERCOM_SPI_CTRLA_MODE_SPI_MASTER
          | SERCOM_SPI_CTRLA_DIPO(dipo)
          | SERCOM_SPI_CTRLA_DOPO(dopo)
          | (cpol ? SERCOM_SPI_CTRLA_CPOL : 0)
    179c:	0772      	lsls	r2, r6, #29
    179e:	430d      	orrs	r5, r1
          | (cpha ? SERCOM_SPI_CTRLA_CPHA : 0);
    17a0:	432a      	orrs	r2, r5
    17a2:	1e59      	subs	r1, r3, #1
    17a4:	418b      	sbcs	r3, r1
    17a6:	0016      	movs	r6, r2
    17a8:	071b      	lsls	r3, r3, #28
    17aa:	431e      	orrs	r6, r3
    sercomReset(id);

    sercom(id)->SPI.CTRLB.reg
        = SERCOM_SPI_CTRLB_RXEN;

    sercom(id)->SPI.BAUD.reg = baud;
    17ac:	7327      	strb	r7, [r4, #12]

    sercom(id)->SPI.CTRLA.reg
        = SERCOM_SPI_CTRLA_ENABLE
    17ae:	6026      	str	r6, [r4, #0]
        };
    }
}

static inline void SPI_sync(SercomId id) {
    while  (sercom(id)->SPI.SYNCBUSY.bit.CTRLB);
    17b0:	69e3      	ldr	r3, [r4, #28]
    17b2:	075b      	lsls	r3, r3, #29
    17b4:	d4fc      	bmi.n	17b0 <sercomSpiMasterInit+0x54>
          | SERCOM_SPI_CTRLA_DOPO(dopo)
          | (cpol ? SERCOM_SPI_CTRLA_CPOL : 0)
          | (cpha ? SERCOM_SPI_CTRLA_CPHA : 0);

    SPI_sync(id);
}
    17b6:	bdf7      	pop	{r0, r1, r2, r4, r5, r6, r7, pc}
    17b8:	00001745 	.word	0x00001745
    17bc:	42000800 	.word	0x42000800

000017c0 <sercomUartInit>:




void sercomUartInit(SercomId id, u32_t rxpo, u32_t txpo, u32_t baud) {
    17c0:	b5f8      	push	{r3, r4, r5, r6, r7, lr}
    17c2:	0007      	movs	r7, r0
    17c4:	001e      	movs	r6, r3
    sercomReset(id);
    17c6:	4b0c      	ldr	r3, [pc, #48]	; (17f8 <sercomUartInit+0x38>)
}




void sercomUartInit(SercomId id, u32_t rxpo, u32_t txpo, u32_t baud) {
    17c8:	000d      	movs	r5, r1
    17ca:	0014      	movs	r4, r2
    sercomReset(id);
    17cc:	4798      	blx	r3
//sample.c
void sampleTick(Altimeter *my_altimeter);

//dma.c
inline static Sercom* sercom(SercomId id) {
    return (Sercom*) (0x42000800U + id * 1024);
    17ce:	4b0b      	ldr	r3, [pc, #44]	; (17fc <sercomUartInit+0x3c>)
    17d0:	02b8      	lsls	r0, r7, #10
    17d2:	18c0      	adds	r0, r0, r3
    sercom(id)->USART.CTRLA.reg = SERCOM_USART_CTRLA_MODE_USART_INT_CLK;
    17d4:	2304      	movs	r3, #4
    sercom(id)->USART.CTRLA.reg
        = SERCOM_USART_CTRLA_ENABLE
          | SERCOM_USART_CTRLA_MODE_USART_INT_CLK
          | SERCOM_SPI_CTRLA_DORD
          | SERCOM_USART_CTRLA_TXPO(txpo)
          | SERCOM_USART_CTRLA_RXPO(rxpo);
    17d6:	22c0      	movs	r2, #192	; 0xc0



void sercomUartInit(SercomId id, u32_t rxpo, u32_t txpo, u32_t baud) {
    sercomReset(id);
    sercom(id)->USART.CTRLA.reg = SERCOM_USART_CTRLA_MODE_USART_INT_CLK;
    17d8:	6003      	str	r3, [r0, #0]
    sercom(id)->USART.BAUD.reg = baud;
    sercom(id)->USART.CTRLB.reg
        = SERCOM_USART_CTRLB_RXEN
    17da:	23c0      	movs	r3, #192	; 0xc0
    sercom(id)->USART.CTRLA.reg
        = SERCOM_USART_CTRLA_ENABLE
          | SERCOM_USART_CTRLA_MODE_USART_INT_CLK
          | SERCOM_SPI_CTRLA_DORD
          | SERCOM_USART_CTRLA_TXPO(txpo)
          | SERCOM_USART_CTRLA_RXPO(rxpo);
    17dc:	0529      	lsls	r1, r5, #20
    17de:	0392      	lsls	r2, r2, #14
    17e0:	4011      	ands	r1, r2
    17e2:	4a07      	ldr	r2, [pc, #28]	; (1800 <sercomUartInit+0x40>)


void sercomUartInit(SercomId id, u32_t rxpo, u32_t txpo, u32_t baud) {
    sercomReset(id);
    sercom(id)->USART.CTRLA.reg = SERCOM_USART_CTRLA_MODE_USART_INT_CLK;
    sercom(id)->USART.BAUD.reg = baud;
    17e4:	b2b6      	uxth	r6, r6
    sercom(id)->USART.CTRLB.reg
        = SERCOM_USART_CTRLB_RXEN
    17e6:	029b      	lsls	r3, r3, #10
    sercom(id)->USART.CTRLA.reg
        = SERCOM_USART_CTRLA_ENABLE
          | SERCOM_USART_CTRLA_MODE_USART_INT_CLK
          | SERCOM_SPI_CTRLA_DORD
          | SERCOM_USART_CTRLA_TXPO(txpo)
          | SERCOM_USART_CTRLA_RXPO(rxpo);
    17e8:	0424      	lsls	r4, r4, #16


void sercomUartInit(SercomId id, u32_t rxpo, u32_t txpo, u32_t baud) {
    sercomReset(id);
    sercom(id)->USART.CTRLA.reg = SERCOM_USART_CTRLA_MODE_USART_INT_CLK;
    sercom(id)->USART.BAUD.reg = baud;
    17ea:	8186      	strh	r6, [r0, #12]
    sercom(id)->USART.CTRLA.reg
        = SERCOM_USART_CTRLA_ENABLE
          | SERCOM_USART_CTRLA_MODE_USART_INT_CLK
          | SERCOM_SPI_CTRLA_DORD
          | SERCOM_USART_CTRLA_TXPO(txpo)
          | SERCOM_USART_CTRLA_RXPO(rxpo);
    17ec:	4311      	orrs	r1, r2
void sercomUartInit(SercomId id, u32_t rxpo, u32_t txpo, u32_t baud) {
    sercomReset(id);
    sercom(id)->USART.CTRLA.reg = SERCOM_USART_CTRLA_MODE_USART_INT_CLK;
    sercom(id)->USART.BAUD.reg = baud;
    sercom(id)->USART.CTRLB.reg
        = SERCOM_USART_CTRLB_RXEN
    17ee:	6043      	str	r3, [r0, #4]
    sercom(id)->USART.CTRLA.reg
        = SERCOM_USART_CTRLA_ENABLE
          | SERCOM_USART_CTRLA_MODE_USART_INT_CLK
          | SERCOM_SPI_CTRLA_DORD
          | SERCOM_USART_CTRLA_TXPO(txpo)
          | SERCOM_USART_CTRLA_RXPO(rxpo);
    17f0:	4023      	ands	r3, r4
    17f2:	430b      	orrs	r3, r1
    sercom(id)->USART.BAUD.reg = baud;
    sercom(id)->USART.CTRLB.reg
        = SERCOM_USART_CTRLB_RXEN
          | SERCOM_USART_CTRLB_TXEN;
    sercom(id)->USART.CTRLA.reg
        = SERCOM_USART_CTRLA_ENABLE
    17f4:	6003      	str	r3, [r0, #0]
          | SERCOM_USART_CTRLA_MODE_USART_INT_CLK
          | SERCOM_SPI_CTRLA_DORD
          | SERCOM_USART_CTRLA_TXPO(txpo)
          | SERCOM_USART_CTRLA_RXPO(rxpo);
}
    17f6:	bdf8      	pop	{r3, r4, r5, r6, r7, pc}
    17f8:	00001745 	.word	0x00001745
    17fc:	42000800 	.word	0x42000800
    1800:	40000006 	.word	0x40000006

00001804 <spiDataTransfer>:
    1804:	4b04      	ldr	r3, [pc, #16]	; (1818 <spiDataTransfer+0x14>)
    1806:	0280      	lsls	r0, r0, #10
    1808:	18c0      	adds	r0, r0, r3

u8_t spiDataTransfer(SercomId id, u8_t data) {
    sercom(id)->SPI.DATA.reg = data;
    180a:	6281      	str	r1, [r0, #40]	; 0x28
    while(sercom(id)->SPI.INTFLAG.bit.RXC == 0);
    180c:	7e03      	ldrb	r3, [r0, #24]
    180e:	075b      	lsls	r3, r3, #29
    1810:	d5fc      	bpl.n	180c <spiDataTransfer+0x8>
    return sercom(id)->SPI.DATA.reg;
    1812:	6a80      	ldr	r0, [r0, #40]	; 0x28
    1814:	b2c0      	uxtb	r0, r0
}
    1816:	4770      	bx	lr
    1818:	42000800 	.word	0x42000800

0000181c <usartDataOut>:
    181c:	4b04      	ldr	r3, [pc, #16]	; (1830 <usartDataOut+0x14>)
    181e:	0280      	lsls	r0, r0, #10
    1820:	18c0      	adds	r0, r0, r3
    while(sercom(id)->SPI.INTFLAG.bit.DRE == 0);
    return sercom(id)->SPI.DATA.reg;
}

void usartDataOut(SercomId id, u8_t data) {
    sercom(id)->USART.DATA.reg = data;
    1822:	b289      	uxth	r1, r1
    1824:	8501      	strh	r1, [r0, #40]	; 0x28
    while(sercom(id)->USART.INTFLAG.bit.DRE == 0);
    1826:	7e03      	ldrb	r3, [r0, #24]
    1828:	07db      	lsls	r3, r3, #31
    182a:	d5fc      	bpl.n	1826 <usartDataOut+0xa>
}
    182c:	4770      	bx	lr
    182e:	46c0      	nop			; (mov r8, r8)
    1830:	42000800 	.word	0x42000800

00001834 <usartDataIn>:
    1834:	4b02      	ldr	r3, [pc, #8]	; (1840 <usartDataIn+0xc>)
    1836:	0280      	lsls	r0, r0, #10
    1838:	18c0      	adds	r0, r0, r3

u8_t usartDataIn(SercomId id) {
    return sercom(id)->USART.DATA.reg;
    183a:	8d00      	ldrh	r0, [r0, #40]	; 0x28
    183c:	b2c0      	uxtb	r0, r0
    183e:	4770      	bx	lr
    1840:	42000800 	.word	0x42000800

00001844 <__aeabi_uidiv>:
    1844:	2200      	movs	r2, #0
    1846:	0843      	lsrs	r3, r0, #1
    1848:	428b      	cmp	r3, r1
    184a:	d374      	bcc.n	1936 <__aeabi_uidiv+0xf2>
    184c:	0903      	lsrs	r3, r0, #4
    184e:	428b      	cmp	r3, r1
    1850:	d35f      	bcc.n	1912 <__aeabi_uidiv+0xce>
    1852:	0a03      	lsrs	r3, r0, #8
    1854:	428b      	cmp	r3, r1
    1856:	d344      	bcc.n	18e2 <__aeabi_uidiv+0x9e>
    1858:	0b03      	lsrs	r3, r0, #12
    185a:	428b      	cmp	r3, r1
    185c:	d328      	bcc.n	18b0 <__aeabi_uidiv+0x6c>
    185e:	0c03      	lsrs	r3, r0, #16
    1860:	428b      	cmp	r3, r1
    1862:	d30d      	bcc.n	1880 <__aeabi_uidiv+0x3c>
    1864:	22ff      	movs	r2, #255	; 0xff
    1866:	0209      	lsls	r1, r1, #8
    1868:	ba12      	rev	r2, r2
    186a:	0c03      	lsrs	r3, r0, #16
    186c:	428b      	cmp	r3, r1
    186e:	d302      	bcc.n	1876 <__aeabi_uidiv+0x32>
    1870:	1212      	asrs	r2, r2, #8
    1872:	0209      	lsls	r1, r1, #8
    1874:	d065      	beq.n	1942 <__aeabi_uidiv+0xfe>
    1876:	0b03      	lsrs	r3, r0, #12
    1878:	428b      	cmp	r3, r1
    187a:	d319      	bcc.n	18b0 <__aeabi_uidiv+0x6c>
    187c:	e000      	b.n	1880 <__aeabi_uidiv+0x3c>
    187e:	0a09      	lsrs	r1, r1, #8
    1880:	0bc3      	lsrs	r3, r0, #15
    1882:	428b      	cmp	r3, r1
    1884:	d301      	bcc.n	188a <__aeabi_uidiv+0x46>
    1886:	03cb      	lsls	r3, r1, #15
    1888:	1ac0      	subs	r0, r0, r3
    188a:	4152      	adcs	r2, r2
    188c:	0b83      	lsrs	r3, r0, #14
    188e:	428b      	cmp	r3, r1
    1890:	d301      	bcc.n	1896 <__aeabi_uidiv+0x52>
    1892:	038b      	lsls	r3, r1, #14
    1894:	1ac0      	subs	r0, r0, r3
    1896:	4152      	adcs	r2, r2
    1898:	0b43      	lsrs	r3, r0, #13
    189a:	428b      	cmp	r3, r1
    189c:	d301      	bcc.n	18a2 <__aeabi_uidiv+0x5e>
    189e:	034b      	lsls	r3, r1, #13
    18a0:	1ac0      	subs	r0, r0, r3
    18a2:	4152      	adcs	r2, r2
    18a4:	0b03      	lsrs	r3, r0, #12
    18a6:	428b      	cmp	r3, r1
    18a8:	d301      	bcc.n	18ae <__aeabi_uidiv+0x6a>
    18aa:	030b      	lsls	r3, r1, #12
    18ac:	1ac0      	subs	r0, r0, r3
    18ae:	4152      	adcs	r2, r2
    18b0:	0ac3      	lsrs	r3, r0, #11
    18b2:	428b      	cmp	r3, r1
    18b4:	d301      	bcc.n	18ba <__aeabi_uidiv+0x76>
    18b6:	02cb      	lsls	r3, r1, #11
    18b8:	1ac0      	subs	r0, r0, r3
    18ba:	4152      	adcs	r2, r2
    18bc:	0a83      	lsrs	r3, r0, #10
    18be:	428b      	cmp	r3, r1
    18c0:	d301      	bcc.n	18c6 <__aeabi_uidiv+0x82>
    18c2:	028b      	lsls	r3, r1, #10
    18c4:	1ac0      	subs	r0, r0, r3
    18c6:	4152      	adcs	r2, r2
    18c8:	0a43      	lsrs	r3, r0, #9
    18ca:	428b      	cmp	r3, r1
    18cc:	d301      	bcc.n	18d2 <__aeabi_uidiv+0x8e>
    18ce:	024b      	lsls	r3, r1, #9
    18d0:	1ac0      	subs	r0, r0, r3
    18d2:	4152      	adcs	r2, r2
    18d4:	0a03      	lsrs	r3, r0, #8
    18d6:	428b      	cmp	r3, r1
    18d8:	d301      	bcc.n	18de <__aeabi_uidiv+0x9a>
    18da:	020b      	lsls	r3, r1, #8
    18dc:	1ac0      	subs	r0, r0, r3
    18de:	4152      	adcs	r2, r2
    18e0:	d2cd      	bcs.n	187e <__aeabi_uidiv+0x3a>
    18e2:	09c3      	lsrs	r3, r0, #7
    18e4:	428b      	cmp	r3, r1
    18e6:	d301      	bcc.n	18ec <__aeabi_uidiv+0xa8>
    18e8:	01cb      	lsls	r3, r1, #7
    18ea:	1ac0      	subs	r0, r0, r3
    18ec:	4152      	adcs	r2, r2
    18ee:	0983      	lsrs	r3, r0, #6
    18f0:	428b      	cmp	r3, r1
    18f2:	d301      	bcc.n	18f8 <__aeabi_uidiv+0xb4>
    18f4:	018b      	lsls	r3, r1, #6
    18f6:	1ac0      	subs	r0, r0, r3
    18f8:	4152      	adcs	r2, r2
    18fa:	0943      	lsrs	r3, r0, #5
    18fc:	428b      	cmp	r3, r1
    18fe:	d301      	bcc.n	1904 <__aeabi_uidiv+0xc0>
    1900:	014b      	lsls	r3, r1, #5
    1902:	1ac0      	subs	r0, r0, r3
    1904:	4152      	adcs	r2, r2
    1906:	0903      	lsrs	r3, r0, #4
    1908:	428b      	cmp	r3, r1
    190a:	d301      	bcc.n	1910 <__aeabi_uidiv+0xcc>
    190c:	010b      	lsls	r3, r1, #4
    190e:	1ac0      	subs	r0, r0, r3
    1910:	4152      	adcs	r2, r2
    1912:	08c3      	lsrs	r3, r0, #3
    1914:	428b      	cmp	r3, r1
    1916:	d301      	bcc.n	191c <__aeabi_uidiv+0xd8>
    1918:	00cb      	lsls	r3, r1, #3
    191a:	1ac0      	subs	r0, r0, r3
    191c:	4152      	adcs	r2, r2
    191e:	0883      	lsrs	r3, r0, #2
    1920:	428b      	cmp	r3, r1
    1922:	d301      	bcc.n	1928 <__aeabi_uidiv+0xe4>
    1924:	008b      	lsls	r3, r1, #2
    1926:	1ac0      	subs	r0, r0, r3
    1928:	4152      	adcs	r2, r2
    192a:	0843      	lsrs	r3, r0, #1
    192c:	428b      	cmp	r3, r1
    192e:	d301      	bcc.n	1934 <__aeabi_uidiv+0xf0>
    1930:	004b      	lsls	r3, r1, #1
    1932:	1ac0      	subs	r0, r0, r3
    1934:	4152      	adcs	r2, r2
    1936:	1a41      	subs	r1, r0, r1
    1938:	d200      	bcs.n	193c <__aeabi_uidiv+0xf8>
    193a:	4601      	mov	r1, r0
    193c:	4152      	adcs	r2, r2
    193e:	4610      	mov	r0, r2
    1940:	4770      	bx	lr
    1942:	e7ff      	b.n	1944 <__aeabi_uidiv+0x100>
    1944:	b501      	push	{r0, lr}
    1946:	2000      	movs	r0, #0
    1948:	f000 f806 	bl	1958 <__aeabi_idiv0>
    194c:	bd02      	pop	{r1, pc}
    194e:	46c0      	nop			; (mov r8, r8)

00001950 <__aeabi_uidivmod>:
    1950:	2900      	cmp	r1, #0
    1952:	d0f7      	beq.n	1944 <__aeabi_uidiv+0x100>
    1954:	e776      	b.n	1844 <__aeabi_uidiv>
    1956:	4770      	bx	lr

00001958 <__aeabi_idiv0>:
    1958:	4770      	bx	lr
    195a:	46c0      	nop			; (mov r8, r8)

0000195c <__aeabi_cdrcmple>:
    195c:	4684      	mov	ip, r0
    195e:	1c10      	adds	r0, r2, #0
    1960:	4662      	mov	r2, ip
    1962:	468c      	mov	ip, r1
    1964:	1c19      	adds	r1, r3, #0
    1966:	4663      	mov	r3, ip
    1968:	e000      	b.n	196c <__aeabi_cdcmpeq>
    196a:	46c0      	nop			; (mov r8, r8)

0000196c <__aeabi_cdcmpeq>:
    196c:	b51f      	push	{r0, r1, r2, r3, r4, lr}
    196e:	f000 fc4d 	bl	220c <__ledf2>
    1972:	2800      	cmp	r0, #0
    1974:	d401      	bmi.n	197a <__aeabi_cdcmpeq+0xe>
    1976:	2100      	movs	r1, #0
    1978:	42c8      	cmn	r0, r1
    197a:	bd1f      	pop	{r0, r1, r2, r3, r4, pc}

0000197c <__aeabi_dcmpeq>:
    197c:	b510      	push	{r4, lr}
    197e:	f000 fba1 	bl	20c4 <__eqdf2>
    1982:	4240      	negs	r0, r0
    1984:	3001      	adds	r0, #1
    1986:	bd10      	pop	{r4, pc}

00001988 <__aeabi_dcmplt>:
    1988:	b510      	push	{r4, lr}
    198a:	f000 fc3f 	bl	220c <__ledf2>
    198e:	2800      	cmp	r0, #0
    1990:	db01      	blt.n	1996 <__aeabi_dcmplt+0xe>
    1992:	2000      	movs	r0, #0
    1994:	bd10      	pop	{r4, pc}
    1996:	2001      	movs	r0, #1
    1998:	bd10      	pop	{r4, pc}
    199a:	46c0      	nop			; (mov r8, r8)

0000199c <__aeabi_dcmple>:
    199c:	b510      	push	{r4, lr}
    199e:	f000 fc35 	bl	220c <__ledf2>
    19a2:	2800      	cmp	r0, #0
    19a4:	dd01      	ble.n	19aa <__aeabi_dcmple+0xe>
    19a6:	2000      	movs	r0, #0
    19a8:	bd10      	pop	{r4, pc}
    19aa:	2001      	movs	r0, #1
    19ac:	bd10      	pop	{r4, pc}
    19ae:	46c0      	nop			; (mov r8, r8)

000019b0 <__aeabi_dcmpgt>:
    19b0:	b510      	push	{r4, lr}
    19b2:	f000 fbc7 	bl	2144 <__gedf2>
    19b6:	2800      	cmp	r0, #0
    19b8:	dc01      	bgt.n	19be <__aeabi_dcmpgt+0xe>
    19ba:	2000      	movs	r0, #0
    19bc:	bd10      	pop	{r4, pc}
    19be:	2001      	movs	r0, #1
    19c0:	bd10      	pop	{r4, pc}
    19c2:	46c0      	nop			; (mov r8, r8)

000019c4 <__aeabi_dcmpge>:
    19c4:	b510      	push	{r4, lr}
    19c6:	f000 fbbd 	bl	2144 <__gedf2>
    19ca:	2800      	cmp	r0, #0
    19cc:	da01      	bge.n	19d2 <__aeabi_dcmpge+0xe>
    19ce:	2000      	movs	r0, #0
    19d0:	bd10      	pop	{r4, pc}
    19d2:	2001      	movs	r0, #1
    19d4:	bd10      	pop	{r4, pc}
    19d6:	46c0      	nop			; (mov r8, r8)

000019d8 <__aeabi_lmul>:
    19d8:	b5f0      	push	{r4, r5, r6, r7, lr}
    19da:	464f      	mov	r7, r9
    19dc:	4646      	mov	r6, r8
    19de:	b4c0      	push	{r6, r7}
    19e0:	0416      	lsls	r6, r2, #16
    19e2:	0c36      	lsrs	r6, r6, #16
    19e4:	4699      	mov	r9, r3
    19e6:	0033      	movs	r3, r6
    19e8:	0405      	lsls	r5, r0, #16
    19ea:	0c2c      	lsrs	r4, r5, #16
    19ec:	0c07      	lsrs	r7, r0, #16
    19ee:	0c15      	lsrs	r5, r2, #16
    19f0:	4363      	muls	r3, r4
    19f2:	437e      	muls	r6, r7
    19f4:	436f      	muls	r7, r5
    19f6:	4365      	muls	r5, r4
    19f8:	0c1c      	lsrs	r4, r3, #16
    19fa:	19ad      	adds	r5, r5, r6
    19fc:	1964      	adds	r4, r4, r5
    19fe:	469c      	mov	ip, r3
    1a00:	42a6      	cmp	r6, r4
    1a02:	d903      	bls.n	1a0c <__aeabi_lmul+0x34>
    1a04:	2380      	movs	r3, #128	; 0x80
    1a06:	025b      	lsls	r3, r3, #9
    1a08:	4698      	mov	r8, r3
    1a0a:	4447      	add	r7, r8
    1a0c:	4663      	mov	r3, ip
    1a0e:	0c25      	lsrs	r5, r4, #16
    1a10:	19ef      	adds	r7, r5, r7
    1a12:	041d      	lsls	r5, r3, #16
    1a14:	464b      	mov	r3, r9
    1a16:	434a      	muls	r2, r1
    1a18:	4343      	muls	r3, r0
    1a1a:	0c2d      	lsrs	r5, r5, #16
    1a1c:	0424      	lsls	r4, r4, #16
    1a1e:	1964      	adds	r4, r4, r5
    1a20:	1899      	adds	r1, r3, r2
    1a22:	19c9      	adds	r1, r1, r7
    1a24:	0020      	movs	r0, r4
    1a26:	bc0c      	pop	{r2, r3}
    1a28:	4690      	mov	r8, r2
    1a2a:	4699      	mov	r9, r3
    1a2c:	bdf0      	pop	{r4, r5, r6, r7, pc}
    1a2e:	46c0      	nop			; (mov r8, r8)

00001a30 <__aeabi_d2uiz>:
    1a30:	b570      	push	{r4, r5, r6, lr}
    1a32:	2200      	movs	r2, #0
    1a34:	4b0c      	ldr	r3, [pc, #48]	; (1a68 <__aeabi_d2uiz+0x38>)
    1a36:	0004      	movs	r4, r0
    1a38:	000d      	movs	r5, r1
    1a3a:	f7ff ffc3 	bl	19c4 <__aeabi_dcmpge>
    1a3e:	2800      	cmp	r0, #0
    1a40:	d104      	bne.n	1a4c <__aeabi_d2uiz+0x1c>
    1a42:	0020      	movs	r0, r4
    1a44:	0029      	movs	r1, r5
    1a46:	f001 fa19 	bl	2e7c <__aeabi_d2iz>
    1a4a:	bd70      	pop	{r4, r5, r6, pc}
    1a4c:	4b06      	ldr	r3, [pc, #24]	; (1a68 <__aeabi_d2uiz+0x38>)
    1a4e:	2200      	movs	r2, #0
    1a50:	0020      	movs	r0, r4
    1a52:	0029      	movs	r1, r5
    1a54:	f000 febe 	bl	27d4 <__aeabi_dsub>
    1a58:	f001 fa10 	bl	2e7c <__aeabi_d2iz>
    1a5c:	2380      	movs	r3, #128	; 0x80
    1a5e:	061b      	lsls	r3, r3, #24
    1a60:	469c      	mov	ip, r3
    1a62:	4460      	add	r0, ip
    1a64:	e7f1      	b.n	1a4a <__aeabi_d2uiz+0x1a>
    1a66:	46c0      	nop			; (mov r8, r8)
    1a68:	41e00000 	.word	0x41e00000

00001a6c <__aeabi_dadd>:
    1a6c:	b5f8      	push	{r3, r4, r5, r6, r7, lr}
    1a6e:	4656      	mov	r6, sl
    1a70:	465f      	mov	r7, fp
    1a72:	464d      	mov	r5, r9
    1a74:	4644      	mov	r4, r8
    1a76:	b4f0      	push	{r4, r5, r6, r7}
    1a78:	000f      	movs	r7, r1
    1a7a:	0ffd      	lsrs	r5, r7, #31
    1a7c:	46aa      	mov	sl, r5
    1a7e:	0309      	lsls	r1, r1, #12
    1a80:	007c      	lsls	r4, r7, #1
    1a82:	002e      	movs	r6, r5
    1a84:	005f      	lsls	r7, r3, #1
    1a86:	0f45      	lsrs	r5, r0, #29
    1a88:	0a49      	lsrs	r1, r1, #9
    1a8a:	0d7f      	lsrs	r7, r7, #21
    1a8c:	4329      	orrs	r1, r5
    1a8e:	00c5      	lsls	r5, r0, #3
    1a90:	0318      	lsls	r0, r3, #12
    1a92:	46bc      	mov	ip, r7
    1a94:	0a40      	lsrs	r0, r0, #9
    1a96:	0f57      	lsrs	r7, r2, #29
    1a98:	0d64      	lsrs	r4, r4, #21
    1a9a:	0fdb      	lsrs	r3, r3, #31
    1a9c:	4338      	orrs	r0, r7
    1a9e:	00d2      	lsls	r2, r2, #3
    1aa0:	459a      	cmp	sl, r3
    1aa2:	d100      	bne.n	1aa6 <__aeabi_dadd+0x3a>
    1aa4:	e0aa      	b.n	1bfc <__aeabi_dadd+0x190>
    1aa6:	4666      	mov	r6, ip
    1aa8:	1ba6      	subs	r6, r4, r6
    1aaa:	2e00      	cmp	r6, #0
    1aac:	dc00      	bgt.n	1ab0 <__aeabi_dadd+0x44>
    1aae:	e0ff      	b.n	1cb0 <__aeabi_dadd+0x244>
    1ab0:	4663      	mov	r3, ip
    1ab2:	2b00      	cmp	r3, #0
    1ab4:	d139      	bne.n	1b2a <__aeabi_dadd+0xbe>
    1ab6:	0003      	movs	r3, r0
    1ab8:	4313      	orrs	r3, r2
    1aba:	d000      	beq.n	1abe <__aeabi_dadd+0x52>
    1abc:	e0d9      	b.n	1c72 <__aeabi_dadd+0x206>
    1abe:	076b      	lsls	r3, r5, #29
    1ac0:	d009      	beq.n	1ad6 <__aeabi_dadd+0x6a>
    1ac2:	230f      	movs	r3, #15
    1ac4:	402b      	ands	r3, r5
    1ac6:	2b04      	cmp	r3, #4
    1ac8:	d005      	beq.n	1ad6 <__aeabi_dadd+0x6a>
    1aca:	1d2b      	adds	r3, r5, #4
    1acc:	42ab      	cmp	r3, r5
    1ace:	41ad      	sbcs	r5, r5
    1ad0:	426d      	negs	r5, r5
    1ad2:	1949      	adds	r1, r1, r5
    1ad4:	001d      	movs	r5, r3
    1ad6:	020b      	lsls	r3, r1, #8
    1ad8:	d400      	bmi.n	1adc <__aeabi_dadd+0x70>
    1ada:	e082      	b.n	1be2 <__aeabi_dadd+0x176>
    1adc:	4bca      	ldr	r3, [pc, #808]	; (1e08 <__aeabi_dadd+0x39c>)
    1ade:	3401      	adds	r4, #1
    1ae0:	429c      	cmp	r4, r3
    1ae2:	d100      	bne.n	1ae6 <__aeabi_dadd+0x7a>
    1ae4:	e0fe      	b.n	1ce4 <__aeabi_dadd+0x278>
    1ae6:	000a      	movs	r2, r1
    1ae8:	4656      	mov	r6, sl
    1aea:	4bc8      	ldr	r3, [pc, #800]	; (1e0c <__aeabi_dadd+0x3a0>)
    1aec:	08ed      	lsrs	r5, r5, #3
    1aee:	401a      	ands	r2, r3
    1af0:	0750      	lsls	r0, r2, #29
    1af2:	0564      	lsls	r4, r4, #21
    1af4:	0252      	lsls	r2, r2, #9
    1af6:	4305      	orrs	r5, r0
    1af8:	0b12      	lsrs	r2, r2, #12
    1afa:	0d64      	lsrs	r4, r4, #21
    1afc:	2100      	movs	r1, #0
    1afe:	0312      	lsls	r2, r2, #12
    1b00:	0d0b      	lsrs	r3, r1, #20
    1b02:	051b      	lsls	r3, r3, #20
    1b04:	0564      	lsls	r4, r4, #21
    1b06:	0b12      	lsrs	r2, r2, #12
    1b08:	431a      	orrs	r2, r3
    1b0a:	0863      	lsrs	r3, r4, #1
    1b0c:	4cc0      	ldr	r4, [pc, #768]	; (1e10 <__aeabi_dadd+0x3a4>)
    1b0e:	07f6      	lsls	r6, r6, #31
    1b10:	4014      	ands	r4, r2
    1b12:	431c      	orrs	r4, r3
    1b14:	0064      	lsls	r4, r4, #1
    1b16:	0864      	lsrs	r4, r4, #1
    1b18:	4334      	orrs	r4, r6
    1b1a:	0028      	movs	r0, r5
    1b1c:	0021      	movs	r1, r4
    1b1e:	bc3c      	pop	{r2, r3, r4, r5}
    1b20:	4690      	mov	r8, r2
    1b22:	4699      	mov	r9, r3
    1b24:	46a2      	mov	sl, r4
    1b26:	46ab      	mov	fp, r5
    1b28:	bdf8      	pop	{r3, r4, r5, r6, r7, pc}
    1b2a:	4bb7      	ldr	r3, [pc, #732]	; (1e08 <__aeabi_dadd+0x39c>)
    1b2c:	429c      	cmp	r4, r3
    1b2e:	d0c6      	beq.n	1abe <__aeabi_dadd+0x52>
    1b30:	2380      	movs	r3, #128	; 0x80
    1b32:	041b      	lsls	r3, r3, #16
    1b34:	4318      	orrs	r0, r3
    1b36:	2e38      	cmp	r6, #56	; 0x38
    1b38:	dd00      	ble.n	1b3c <__aeabi_dadd+0xd0>
    1b3a:	e0eb      	b.n	1d14 <__aeabi_dadd+0x2a8>
    1b3c:	2e1f      	cmp	r6, #31
    1b3e:	dd00      	ble.n	1b42 <__aeabi_dadd+0xd6>
    1b40:	e11e      	b.n	1d80 <__aeabi_dadd+0x314>
    1b42:	2320      	movs	r3, #32
    1b44:	1b9b      	subs	r3, r3, r6
    1b46:	469c      	mov	ip, r3
    1b48:	0003      	movs	r3, r0
    1b4a:	4667      	mov	r7, ip
    1b4c:	40bb      	lsls	r3, r7
    1b4e:	4698      	mov	r8, r3
    1b50:	0013      	movs	r3, r2
    1b52:	4647      	mov	r7, r8
    1b54:	40f3      	lsrs	r3, r6
    1b56:	433b      	orrs	r3, r7
    1b58:	4667      	mov	r7, ip
    1b5a:	40ba      	lsls	r2, r7
    1b5c:	1e57      	subs	r7, r2, #1
    1b5e:	41ba      	sbcs	r2, r7
    1b60:	4313      	orrs	r3, r2
    1b62:	0002      	movs	r2, r0
    1b64:	40f2      	lsrs	r2, r6
    1b66:	1aeb      	subs	r3, r5, r3
    1b68:	429d      	cmp	r5, r3
    1b6a:	41b6      	sbcs	r6, r6
    1b6c:	001d      	movs	r5, r3
    1b6e:	1a8a      	subs	r2, r1, r2
    1b70:	4276      	negs	r6, r6
    1b72:	1b91      	subs	r1, r2, r6
    1b74:	020b      	lsls	r3, r1, #8
    1b76:	d531      	bpl.n	1bdc <__aeabi_dadd+0x170>
    1b78:	024a      	lsls	r2, r1, #9
    1b7a:	0a56      	lsrs	r6, r2, #9
    1b7c:	2e00      	cmp	r6, #0
    1b7e:	d100      	bne.n	1b82 <__aeabi_dadd+0x116>
    1b80:	e0b4      	b.n	1cec <__aeabi_dadd+0x280>
    1b82:	0030      	movs	r0, r6
    1b84:	f001 fb0a 	bl	319c <__clzsi2>
    1b88:	0003      	movs	r3, r0
    1b8a:	3b08      	subs	r3, #8
    1b8c:	2b1f      	cmp	r3, #31
    1b8e:	dd00      	ble.n	1b92 <__aeabi_dadd+0x126>
    1b90:	e0b5      	b.n	1cfe <__aeabi_dadd+0x292>
    1b92:	2220      	movs	r2, #32
    1b94:	0029      	movs	r1, r5
    1b96:	1ad2      	subs	r2, r2, r3
    1b98:	40d1      	lsrs	r1, r2
    1b9a:	409e      	lsls	r6, r3
    1b9c:	000a      	movs	r2, r1
    1b9e:	409d      	lsls	r5, r3
    1ba0:	4332      	orrs	r2, r6
    1ba2:	429c      	cmp	r4, r3
    1ba4:	dd00      	ble.n	1ba8 <__aeabi_dadd+0x13c>
    1ba6:	e0b1      	b.n	1d0c <__aeabi_dadd+0x2a0>
    1ba8:	1b1c      	subs	r4, r3, r4
    1baa:	1c63      	adds	r3, r4, #1
    1bac:	2b1f      	cmp	r3, #31
    1bae:	dd00      	ble.n	1bb2 <__aeabi_dadd+0x146>
    1bb0:	e0d5      	b.n	1d5e <__aeabi_dadd+0x2f2>
    1bb2:	2120      	movs	r1, #32
    1bb4:	0014      	movs	r4, r2
    1bb6:	0028      	movs	r0, r5
    1bb8:	1ac9      	subs	r1, r1, r3
    1bba:	408c      	lsls	r4, r1
    1bbc:	40d8      	lsrs	r0, r3
    1bbe:	408d      	lsls	r5, r1
    1bc0:	4304      	orrs	r4, r0
    1bc2:	40da      	lsrs	r2, r3
    1bc4:	1e68      	subs	r0, r5, #1
    1bc6:	4185      	sbcs	r5, r0
    1bc8:	0011      	movs	r1, r2
    1bca:	4325      	orrs	r5, r4
    1bcc:	2400      	movs	r4, #0
    1bce:	e776      	b.n	1abe <__aeabi_dadd+0x52>
    1bd0:	4641      	mov	r1, r8
    1bd2:	4331      	orrs	r1, r6
    1bd4:	d100      	bne.n	1bd8 <__aeabi_dadd+0x16c>
    1bd6:	e234      	b.n	2042 <STACK_SIZE+0x42>
    1bd8:	0031      	movs	r1, r6
    1bda:	4645      	mov	r5, r8
    1bdc:	076b      	lsls	r3, r5, #29
    1bde:	d000      	beq.n	1be2 <__aeabi_dadd+0x176>
    1be0:	e76f      	b.n	1ac2 <__aeabi_dadd+0x56>
    1be2:	4656      	mov	r6, sl
    1be4:	0748      	lsls	r0, r1, #29
    1be6:	08ed      	lsrs	r5, r5, #3
    1be8:	08c9      	lsrs	r1, r1, #3
    1bea:	4305      	orrs	r5, r0
    1bec:	4b86      	ldr	r3, [pc, #536]	; (1e08 <__aeabi_dadd+0x39c>)
    1bee:	429c      	cmp	r4, r3
    1bf0:	d035      	beq.n	1c5e <__aeabi_dadd+0x1f2>
    1bf2:	030a      	lsls	r2, r1, #12
    1bf4:	0564      	lsls	r4, r4, #21
    1bf6:	0b12      	lsrs	r2, r2, #12
    1bf8:	0d64      	lsrs	r4, r4, #21
    1bfa:	e77f      	b.n	1afc <__aeabi_dadd+0x90>
    1bfc:	4663      	mov	r3, ip
    1bfe:	1ae3      	subs	r3, r4, r3
    1c00:	469b      	mov	fp, r3
    1c02:	2b00      	cmp	r3, #0
    1c04:	dc00      	bgt.n	1c08 <__aeabi_dadd+0x19c>
    1c06:	e08b      	b.n	1d20 <__aeabi_dadd+0x2b4>
    1c08:	4667      	mov	r7, ip
    1c0a:	2f00      	cmp	r7, #0
    1c0c:	d03c      	beq.n	1c88 <__aeabi_dadd+0x21c>
    1c0e:	4f7e      	ldr	r7, [pc, #504]	; (1e08 <__aeabi_dadd+0x39c>)
    1c10:	42bc      	cmp	r4, r7
    1c12:	d100      	bne.n	1c16 <__aeabi_dadd+0x1aa>
    1c14:	e753      	b.n	1abe <__aeabi_dadd+0x52>
    1c16:	2780      	movs	r7, #128	; 0x80
    1c18:	043f      	lsls	r7, r7, #16
    1c1a:	4338      	orrs	r0, r7
    1c1c:	465b      	mov	r3, fp
    1c1e:	2b38      	cmp	r3, #56	; 0x38
    1c20:	dc00      	bgt.n	1c24 <__aeabi_dadd+0x1b8>
    1c22:	e0f7      	b.n	1e14 <__aeabi_dadd+0x3a8>
    1c24:	4302      	orrs	r2, r0
    1c26:	1e50      	subs	r0, r2, #1
    1c28:	4182      	sbcs	r2, r0
    1c2a:	2000      	movs	r0, #0
    1c2c:	b2d2      	uxtb	r2, r2
    1c2e:	1953      	adds	r3, r2, r5
    1c30:	1842      	adds	r2, r0, r1
    1c32:	42ab      	cmp	r3, r5
    1c34:	4189      	sbcs	r1, r1
    1c36:	001d      	movs	r5, r3
    1c38:	4249      	negs	r1, r1
    1c3a:	1889      	adds	r1, r1, r2
    1c3c:	020b      	lsls	r3, r1, #8
    1c3e:	d5cd      	bpl.n	1bdc <__aeabi_dadd+0x170>
    1c40:	4b71      	ldr	r3, [pc, #452]	; (1e08 <__aeabi_dadd+0x39c>)
    1c42:	3401      	adds	r4, #1
    1c44:	429c      	cmp	r4, r3
    1c46:	d100      	bne.n	1c4a <__aeabi_dadd+0x1de>
    1c48:	e13d      	b.n	1ec6 <__aeabi_dadd+0x45a>
    1c4a:	2001      	movs	r0, #1
    1c4c:	4a6f      	ldr	r2, [pc, #444]	; (1e0c <__aeabi_dadd+0x3a0>)
    1c4e:	086b      	lsrs	r3, r5, #1
    1c50:	400a      	ands	r2, r1
    1c52:	4028      	ands	r0, r5
    1c54:	4318      	orrs	r0, r3
    1c56:	07d5      	lsls	r5, r2, #31
    1c58:	4305      	orrs	r5, r0
    1c5a:	0851      	lsrs	r1, r2, #1
    1c5c:	e72f      	b.n	1abe <__aeabi_dadd+0x52>
    1c5e:	002b      	movs	r3, r5
    1c60:	430b      	orrs	r3, r1
    1c62:	d100      	bne.n	1c66 <__aeabi_dadd+0x1fa>
    1c64:	e1cb      	b.n	1ffe <__aeabi_dadd+0x592>
    1c66:	2380      	movs	r3, #128	; 0x80
    1c68:	031b      	lsls	r3, r3, #12
    1c6a:	430b      	orrs	r3, r1
    1c6c:	031a      	lsls	r2, r3, #12
    1c6e:	0b12      	lsrs	r2, r2, #12
    1c70:	e744      	b.n	1afc <__aeabi_dadd+0x90>
    1c72:	3e01      	subs	r6, #1
    1c74:	2e00      	cmp	r6, #0
    1c76:	d16d      	bne.n	1d54 <__aeabi_dadd+0x2e8>
    1c78:	1aae      	subs	r6, r5, r2
    1c7a:	42b5      	cmp	r5, r6
    1c7c:	419b      	sbcs	r3, r3
    1c7e:	1a09      	subs	r1, r1, r0
    1c80:	425b      	negs	r3, r3
    1c82:	1ac9      	subs	r1, r1, r3
    1c84:	0035      	movs	r5, r6
    1c86:	e775      	b.n	1b74 <__aeabi_dadd+0x108>
    1c88:	0007      	movs	r7, r0
    1c8a:	4317      	orrs	r7, r2
    1c8c:	d100      	bne.n	1c90 <__aeabi_dadd+0x224>
    1c8e:	e716      	b.n	1abe <__aeabi_dadd+0x52>
    1c90:	2301      	movs	r3, #1
    1c92:	425b      	negs	r3, r3
    1c94:	469c      	mov	ip, r3
    1c96:	44e3      	add	fp, ip
    1c98:	465b      	mov	r3, fp
    1c9a:	2b00      	cmp	r3, #0
    1c9c:	d000      	beq.n	1ca0 <__aeabi_dadd+0x234>
    1c9e:	e0e0      	b.n	1e62 <__aeabi_dadd+0x3f6>
    1ca0:	18aa      	adds	r2, r5, r2
    1ca2:	42aa      	cmp	r2, r5
    1ca4:	419b      	sbcs	r3, r3
    1ca6:	1809      	adds	r1, r1, r0
    1ca8:	425b      	negs	r3, r3
    1caa:	1859      	adds	r1, r3, r1
    1cac:	0015      	movs	r5, r2
    1cae:	e7c5      	b.n	1c3c <__aeabi_dadd+0x1d0>
    1cb0:	2e00      	cmp	r6, #0
    1cb2:	d175      	bne.n	1da0 <__aeabi_dadd+0x334>
    1cb4:	1c66      	adds	r6, r4, #1
    1cb6:	0576      	lsls	r6, r6, #21
    1cb8:	0d76      	lsrs	r6, r6, #21
    1cba:	2e01      	cmp	r6, #1
    1cbc:	dc00      	bgt.n	1cc0 <__aeabi_dadd+0x254>
    1cbe:	e0f3      	b.n	1ea8 <__aeabi_dadd+0x43c>
    1cc0:	1aae      	subs	r6, r5, r2
    1cc2:	46b0      	mov	r8, r6
    1cc4:	4545      	cmp	r5, r8
    1cc6:	41bf      	sbcs	r7, r7
    1cc8:	1a0e      	subs	r6, r1, r0
    1cca:	427f      	negs	r7, r7
    1ccc:	1bf6      	subs	r6, r6, r7
    1cce:	0237      	lsls	r7, r6, #8
    1cd0:	d400      	bmi.n	1cd4 <__aeabi_dadd+0x268>
    1cd2:	e08f      	b.n	1df4 <__aeabi_dadd+0x388>
    1cd4:	1b55      	subs	r5, r2, r5
    1cd6:	42aa      	cmp	r2, r5
    1cd8:	41b6      	sbcs	r6, r6
    1cda:	1a41      	subs	r1, r0, r1
    1cdc:	4276      	negs	r6, r6
    1cde:	1b8e      	subs	r6, r1, r6
    1ce0:	469a      	mov	sl, r3
    1ce2:	e74b      	b.n	1b7c <__aeabi_dadd+0x110>
    1ce4:	4656      	mov	r6, sl
    1ce6:	2200      	movs	r2, #0
    1ce8:	2500      	movs	r5, #0
    1cea:	e707      	b.n	1afc <__aeabi_dadd+0x90>
    1cec:	0028      	movs	r0, r5
    1cee:	f001 fa55 	bl	319c <__clzsi2>
    1cf2:	3020      	adds	r0, #32
    1cf4:	0003      	movs	r3, r0
    1cf6:	3b08      	subs	r3, #8
    1cf8:	2b1f      	cmp	r3, #31
    1cfa:	dc00      	bgt.n	1cfe <__aeabi_dadd+0x292>
    1cfc:	e749      	b.n	1b92 <__aeabi_dadd+0x126>
    1cfe:	002a      	movs	r2, r5
    1d00:	3828      	subs	r0, #40	; 0x28
    1d02:	4082      	lsls	r2, r0
    1d04:	2500      	movs	r5, #0
    1d06:	429c      	cmp	r4, r3
    1d08:	dc00      	bgt.n	1d0c <__aeabi_dadd+0x2a0>
    1d0a:	e74d      	b.n	1ba8 <__aeabi_dadd+0x13c>
    1d0c:	493f      	ldr	r1, [pc, #252]	; (1e0c <__aeabi_dadd+0x3a0>)
    1d0e:	1ae4      	subs	r4, r4, r3
    1d10:	4011      	ands	r1, r2
    1d12:	e6d4      	b.n	1abe <__aeabi_dadd+0x52>
    1d14:	4302      	orrs	r2, r0
    1d16:	1e50      	subs	r0, r2, #1
    1d18:	4182      	sbcs	r2, r0
    1d1a:	b2d3      	uxtb	r3, r2
    1d1c:	2200      	movs	r2, #0
    1d1e:	e722      	b.n	1b66 <__aeabi_dadd+0xfa>
    1d20:	2b00      	cmp	r3, #0
    1d22:	d000      	beq.n	1d26 <__aeabi_dadd+0x2ba>
    1d24:	e0f3      	b.n	1f0e <__aeabi_dadd+0x4a2>
    1d26:	1c63      	adds	r3, r4, #1
    1d28:	469c      	mov	ip, r3
    1d2a:	055b      	lsls	r3, r3, #21
    1d2c:	0d5b      	lsrs	r3, r3, #21
    1d2e:	2b01      	cmp	r3, #1
    1d30:	dc00      	bgt.n	1d34 <__aeabi_dadd+0x2c8>
    1d32:	e09f      	b.n	1e74 <__aeabi_dadd+0x408>
    1d34:	4b34      	ldr	r3, [pc, #208]	; (1e08 <__aeabi_dadd+0x39c>)
    1d36:	459c      	cmp	ip, r3
    1d38:	d100      	bne.n	1d3c <__aeabi_dadd+0x2d0>
    1d3a:	e0c3      	b.n	1ec4 <__aeabi_dadd+0x458>
    1d3c:	18aa      	adds	r2, r5, r2
    1d3e:	1809      	adds	r1, r1, r0
    1d40:	42aa      	cmp	r2, r5
    1d42:	4180      	sbcs	r0, r0
    1d44:	4240      	negs	r0, r0
    1d46:	1841      	adds	r1, r0, r1
    1d48:	07cd      	lsls	r5, r1, #31
    1d4a:	0852      	lsrs	r2, r2, #1
    1d4c:	4315      	orrs	r5, r2
    1d4e:	0849      	lsrs	r1, r1, #1
    1d50:	4664      	mov	r4, ip
    1d52:	e6b4      	b.n	1abe <__aeabi_dadd+0x52>
    1d54:	4b2c      	ldr	r3, [pc, #176]	; (1e08 <__aeabi_dadd+0x39c>)
    1d56:	429c      	cmp	r4, r3
    1d58:	d000      	beq.n	1d5c <__aeabi_dadd+0x2f0>
    1d5a:	e6ec      	b.n	1b36 <__aeabi_dadd+0xca>
    1d5c:	e6af      	b.n	1abe <__aeabi_dadd+0x52>
    1d5e:	0011      	movs	r1, r2
    1d60:	3c1f      	subs	r4, #31
    1d62:	40e1      	lsrs	r1, r4
    1d64:	000c      	movs	r4, r1
    1d66:	2b20      	cmp	r3, #32
    1d68:	d100      	bne.n	1d6c <__aeabi_dadd+0x300>
    1d6a:	e07f      	b.n	1e6c <__aeabi_dadd+0x400>
    1d6c:	2140      	movs	r1, #64	; 0x40
    1d6e:	1acb      	subs	r3, r1, r3
    1d70:	409a      	lsls	r2, r3
    1d72:	4315      	orrs	r5, r2
    1d74:	1e6a      	subs	r2, r5, #1
    1d76:	4195      	sbcs	r5, r2
    1d78:	2100      	movs	r1, #0
    1d7a:	4325      	orrs	r5, r4
    1d7c:	2400      	movs	r4, #0
    1d7e:	e72d      	b.n	1bdc <__aeabi_dadd+0x170>
    1d80:	0033      	movs	r3, r6
    1d82:	0007      	movs	r7, r0
    1d84:	3b20      	subs	r3, #32
    1d86:	40df      	lsrs	r7, r3
    1d88:	003b      	movs	r3, r7
    1d8a:	2e20      	cmp	r6, #32
    1d8c:	d070      	beq.n	1e70 <__aeabi_dadd+0x404>
    1d8e:	2740      	movs	r7, #64	; 0x40
    1d90:	1bbe      	subs	r6, r7, r6
    1d92:	40b0      	lsls	r0, r6
    1d94:	4302      	orrs	r2, r0
    1d96:	1e50      	subs	r0, r2, #1
    1d98:	4182      	sbcs	r2, r0
    1d9a:	4313      	orrs	r3, r2
    1d9c:	2200      	movs	r2, #0
    1d9e:	e6e2      	b.n	1b66 <__aeabi_dadd+0xfa>
    1da0:	2c00      	cmp	r4, #0
    1da2:	d04f      	beq.n	1e44 <__aeabi_dadd+0x3d8>
    1da4:	4c18      	ldr	r4, [pc, #96]	; (1e08 <__aeabi_dadd+0x39c>)
    1da6:	45a4      	cmp	ip, r4
    1da8:	d100      	bne.n	1dac <__aeabi_dadd+0x340>
    1daa:	e0ab      	b.n	1f04 <__aeabi_dadd+0x498>
    1dac:	2480      	movs	r4, #128	; 0x80
    1dae:	0424      	lsls	r4, r4, #16
    1db0:	4276      	negs	r6, r6
    1db2:	4321      	orrs	r1, r4
    1db4:	2e38      	cmp	r6, #56	; 0x38
    1db6:	dd00      	ble.n	1dba <__aeabi_dadd+0x34e>
    1db8:	e0df      	b.n	1f7a <__aeabi_dadd+0x50e>
    1dba:	2e1f      	cmp	r6, #31
    1dbc:	dd00      	ble.n	1dc0 <__aeabi_dadd+0x354>
    1dbe:	e143      	b.n	2048 <STACK_SIZE+0x48>
    1dc0:	2720      	movs	r7, #32
    1dc2:	1bbc      	subs	r4, r7, r6
    1dc4:	46a1      	mov	r9, r4
    1dc6:	000c      	movs	r4, r1
    1dc8:	464f      	mov	r7, r9
    1dca:	40bc      	lsls	r4, r7
    1dcc:	46a0      	mov	r8, r4
    1dce:	002c      	movs	r4, r5
    1dd0:	4647      	mov	r7, r8
    1dd2:	40f4      	lsrs	r4, r6
    1dd4:	433c      	orrs	r4, r7
    1dd6:	464f      	mov	r7, r9
    1dd8:	40bd      	lsls	r5, r7
    1dda:	1e6f      	subs	r7, r5, #1
    1ddc:	41bd      	sbcs	r5, r7
    1dde:	40f1      	lsrs	r1, r6
    1de0:	432c      	orrs	r4, r5
    1de2:	1b15      	subs	r5, r2, r4
    1de4:	42aa      	cmp	r2, r5
    1de6:	4192      	sbcs	r2, r2
    1de8:	1a41      	subs	r1, r0, r1
    1dea:	4252      	negs	r2, r2
    1dec:	1a89      	subs	r1, r1, r2
    1dee:	4664      	mov	r4, ip
    1df0:	469a      	mov	sl, r3
    1df2:	e6bf      	b.n	1b74 <__aeabi_dadd+0x108>
    1df4:	4641      	mov	r1, r8
    1df6:	4645      	mov	r5, r8
    1df8:	4331      	orrs	r1, r6
    1dfa:	d000      	beq.n	1dfe <__aeabi_dadd+0x392>
    1dfc:	e6be      	b.n	1b7c <__aeabi_dadd+0x110>
    1dfe:	2600      	movs	r6, #0
    1e00:	2400      	movs	r4, #0
    1e02:	2500      	movs	r5, #0
    1e04:	e6f2      	b.n	1bec <__aeabi_dadd+0x180>
    1e06:	46c0      	nop			; (mov r8, r8)
    1e08:	000007ff 	.word	0x000007ff
    1e0c:	ff7fffff 	.word	0xff7fffff
    1e10:	800fffff 	.word	0x800fffff
    1e14:	2b1f      	cmp	r3, #31
    1e16:	dc59      	bgt.n	1ecc <__aeabi_dadd+0x460>
    1e18:	2720      	movs	r7, #32
    1e1a:	1aff      	subs	r7, r7, r3
    1e1c:	46bc      	mov	ip, r7
    1e1e:	0007      	movs	r7, r0
    1e20:	4663      	mov	r3, ip
    1e22:	409f      	lsls	r7, r3
    1e24:	465b      	mov	r3, fp
    1e26:	46b9      	mov	r9, r7
    1e28:	0017      	movs	r7, r2
    1e2a:	40df      	lsrs	r7, r3
    1e2c:	46b8      	mov	r8, r7
    1e2e:	464f      	mov	r7, r9
    1e30:	4643      	mov	r3, r8
    1e32:	431f      	orrs	r7, r3
    1e34:	4663      	mov	r3, ip
    1e36:	409a      	lsls	r2, r3
    1e38:	1e53      	subs	r3, r2, #1
    1e3a:	419a      	sbcs	r2, r3
    1e3c:	465b      	mov	r3, fp
    1e3e:	433a      	orrs	r2, r7
    1e40:	40d8      	lsrs	r0, r3
    1e42:	e6f4      	b.n	1c2e <__aeabi_dadd+0x1c2>
    1e44:	000c      	movs	r4, r1
    1e46:	432c      	orrs	r4, r5
    1e48:	d05c      	beq.n	1f04 <__aeabi_dadd+0x498>
    1e4a:	43f6      	mvns	r6, r6
    1e4c:	2e00      	cmp	r6, #0
    1e4e:	d155      	bne.n	1efc <__aeabi_dadd+0x490>
    1e50:	1b55      	subs	r5, r2, r5
    1e52:	42aa      	cmp	r2, r5
    1e54:	41a4      	sbcs	r4, r4
    1e56:	1a41      	subs	r1, r0, r1
    1e58:	4264      	negs	r4, r4
    1e5a:	1b09      	subs	r1, r1, r4
    1e5c:	469a      	mov	sl, r3
    1e5e:	4664      	mov	r4, ip
    1e60:	e688      	b.n	1b74 <__aeabi_dadd+0x108>
    1e62:	4f96      	ldr	r7, [pc, #600]	; (20bc <STACK_SIZE+0xbc>)
    1e64:	42bc      	cmp	r4, r7
    1e66:	d000      	beq.n	1e6a <__aeabi_dadd+0x3fe>
    1e68:	e6d8      	b.n	1c1c <__aeabi_dadd+0x1b0>
    1e6a:	e628      	b.n	1abe <__aeabi_dadd+0x52>
    1e6c:	2200      	movs	r2, #0
    1e6e:	e780      	b.n	1d72 <__aeabi_dadd+0x306>
    1e70:	2000      	movs	r0, #0
    1e72:	e78f      	b.n	1d94 <__aeabi_dadd+0x328>
    1e74:	000b      	movs	r3, r1
    1e76:	432b      	orrs	r3, r5
    1e78:	2c00      	cmp	r4, #0
    1e7a:	d000      	beq.n	1e7e <__aeabi_dadd+0x412>
    1e7c:	e0c2      	b.n	2004 <STACK_SIZE+0x4>
    1e7e:	2b00      	cmp	r3, #0
    1e80:	d100      	bne.n	1e84 <__aeabi_dadd+0x418>
    1e82:	e101      	b.n	2088 <STACK_SIZE+0x88>
    1e84:	0003      	movs	r3, r0
    1e86:	4313      	orrs	r3, r2
    1e88:	d100      	bne.n	1e8c <__aeabi_dadd+0x420>
    1e8a:	e618      	b.n	1abe <__aeabi_dadd+0x52>
    1e8c:	18ab      	adds	r3, r5, r2
    1e8e:	42ab      	cmp	r3, r5
    1e90:	41b6      	sbcs	r6, r6
    1e92:	1809      	adds	r1, r1, r0
    1e94:	4276      	negs	r6, r6
    1e96:	1871      	adds	r1, r6, r1
    1e98:	020a      	lsls	r2, r1, #8
    1e9a:	d400      	bmi.n	1e9e <__aeabi_dadd+0x432>
    1e9c:	e109      	b.n	20b2 <STACK_SIZE+0xb2>
    1e9e:	4a88      	ldr	r2, [pc, #544]	; (20c0 <STACK_SIZE+0xc0>)
    1ea0:	001d      	movs	r5, r3
    1ea2:	4011      	ands	r1, r2
    1ea4:	4664      	mov	r4, ip
    1ea6:	e60a      	b.n	1abe <__aeabi_dadd+0x52>
    1ea8:	2c00      	cmp	r4, #0
    1eaa:	d15b      	bne.n	1f64 <__aeabi_dadd+0x4f8>
    1eac:	000e      	movs	r6, r1
    1eae:	432e      	orrs	r6, r5
    1eb0:	d000      	beq.n	1eb4 <__aeabi_dadd+0x448>
    1eb2:	e08a      	b.n	1fca <__aeabi_dadd+0x55e>
    1eb4:	0001      	movs	r1, r0
    1eb6:	4311      	orrs	r1, r2
    1eb8:	d100      	bne.n	1ebc <__aeabi_dadd+0x450>
    1eba:	e0c2      	b.n	2042 <STACK_SIZE+0x42>
    1ebc:	0001      	movs	r1, r0
    1ebe:	0015      	movs	r5, r2
    1ec0:	469a      	mov	sl, r3
    1ec2:	e5fc      	b.n	1abe <__aeabi_dadd+0x52>
    1ec4:	4664      	mov	r4, ip
    1ec6:	2100      	movs	r1, #0
    1ec8:	2500      	movs	r5, #0
    1eca:	e68f      	b.n	1bec <__aeabi_dadd+0x180>
    1ecc:	2320      	movs	r3, #32
    1ece:	425b      	negs	r3, r3
    1ed0:	469c      	mov	ip, r3
    1ed2:	44dc      	add	ip, fp
    1ed4:	4663      	mov	r3, ip
    1ed6:	0007      	movs	r7, r0
    1ed8:	40df      	lsrs	r7, r3
    1eda:	465b      	mov	r3, fp
    1edc:	46bc      	mov	ip, r7
    1ede:	2b20      	cmp	r3, #32
    1ee0:	d100      	bne.n	1ee4 <__aeabi_dadd+0x478>
    1ee2:	e0ac      	b.n	203e <STACK_SIZE+0x3e>
    1ee4:	2340      	movs	r3, #64	; 0x40
    1ee6:	465f      	mov	r7, fp
    1ee8:	1bdb      	subs	r3, r3, r7
    1eea:	4098      	lsls	r0, r3
    1eec:	4302      	orrs	r2, r0
    1eee:	1e50      	subs	r0, r2, #1
    1ef0:	4182      	sbcs	r2, r0
    1ef2:	4663      	mov	r3, ip
    1ef4:	4313      	orrs	r3, r2
    1ef6:	001a      	movs	r2, r3
    1ef8:	2000      	movs	r0, #0
    1efa:	e698      	b.n	1c2e <__aeabi_dadd+0x1c2>
    1efc:	4c6f      	ldr	r4, [pc, #444]	; (20bc <STACK_SIZE+0xbc>)
    1efe:	45a4      	cmp	ip, r4
    1f00:	d000      	beq.n	1f04 <__aeabi_dadd+0x498>
    1f02:	e757      	b.n	1db4 <__aeabi_dadd+0x348>
    1f04:	0001      	movs	r1, r0
    1f06:	0015      	movs	r5, r2
    1f08:	4664      	mov	r4, ip
    1f0a:	469a      	mov	sl, r3
    1f0c:	e5d7      	b.n	1abe <__aeabi_dadd+0x52>
    1f0e:	2c00      	cmp	r4, #0
    1f10:	d139      	bne.n	1f86 <__aeabi_dadd+0x51a>
    1f12:	000c      	movs	r4, r1
    1f14:	432c      	orrs	r4, r5
    1f16:	d06e      	beq.n	1ff6 <__aeabi_dadd+0x58a>
    1f18:	43db      	mvns	r3, r3
    1f1a:	2b00      	cmp	r3, #0
    1f1c:	d01a      	beq.n	1f54 <__aeabi_dadd+0x4e8>
    1f1e:	4c67      	ldr	r4, [pc, #412]	; (20bc <STACK_SIZE+0xbc>)
    1f20:	45a4      	cmp	ip, r4
    1f22:	d068      	beq.n	1ff6 <__aeabi_dadd+0x58a>
    1f24:	2b38      	cmp	r3, #56	; 0x38
    1f26:	dd00      	ble.n	1f2a <__aeabi_dadd+0x4be>
    1f28:	e0a4      	b.n	2074 <STACK_SIZE+0x74>
    1f2a:	2b1f      	cmp	r3, #31
    1f2c:	dd00      	ble.n	1f30 <__aeabi_dadd+0x4c4>
    1f2e:	e0ae      	b.n	208e <STACK_SIZE+0x8e>
    1f30:	2420      	movs	r4, #32
    1f32:	000f      	movs	r7, r1
    1f34:	1ae4      	subs	r4, r4, r3
    1f36:	40a7      	lsls	r7, r4
    1f38:	46b9      	mov	r9, r7
    1f3a:	002f      	movs	r7, r5
    1f3c:	40df      	lsrs	r7, r3
    1f3e:	46b8      	mov	r8, r7
    1f40:	46a3      	mov	fp, r4
    1f42:	464f      	mov	r7, r9
    1f44:	4644      	mov	r4, r8
    1f46:	4327      	orrs	r7, r4
    1f48:	465c      	mov	r4, fp
    1f4a:	40a5      	lsls	r5, r4
    1f4c:	1e6c      	subs	r4, r5, #1
    1f4e:	41a5      	sbcs	r5, r4
    1f50:	40d9      	lsrs	r1, r3
    1f52:	433d      	orrs	r5, r7
    1f54:	18ad      	adds	r5, r5, r2
    1f56:	4295      	cmp	r5, r2
    1f58:	419b      	sbcs	r3, r3
    1f5a:	1809      	adds	r1, r1, r0
    1f5c:	425b      	negs	r3, r3
    1f5e:	1859      	adds	r1, r3, r1
    1f60:	4664      	mov	r4, ip
    1f62:	e66b      	b.n	1c3c <__aeabi_dadd+0x1d0>
    1f64:	000c      	movs	r4, r1
    1f66:	432c      	orrs	r4, r5
    1f68:	d115      	bne.n	1f96 <__aeabi_dadd+0x52a>
    1f6a:	0001      	movs	r1, r0
    1f6c:	4311      	orrs	r1, r2
    1f6e:	d07b      	beq.n	2068 <STACK_SIZE+0x68>
    1f70:	0001      	movs	r1, r0
    1f72:	0015      	movs	r5, r2
    1f74:	469a      	mov	sl, r3
    1f76:	4c51      	ldr	r4, [pc, #324]	; (20bc <STACK_SIZE+0xbc>)
    1f78:	e5a1      	b.n	1abe <__aeabi_dadd+0x52>
    1f7a:	430d      	orrs	r5, r1
    1f7c:	1e69      	subs	r1, r5, #1
    1f7e:	418d      	sbcs	r5, r1
    1f80:	2100      	movs	r1, #0
    1f82:	b2ec      	uxtb	r4, r5
    1f84:	e72d      	b.n	1de2 <__aeabi_dadd+0x376>
    1f86:	4c4d      	ldr	r4, [pc, #308]	; (20bc <STACK_SIZE+0xbc>)
    1f88:	45a4      	cmp	ip, r4
    1f8a:	d034      	beq.n	1ff6 <__aeabi_dadd+0x58a>
    1f8c:	2480      	movs	r4, #128	; 0x80
    1f8e:	0424      	lsls	r4, r4, #16
    1f90:	425b      	negs	r3, r3
    1f92:	4321      	orrs	r1, r4
    1f94:	e7c6      	b.n	1f24 <__aeabi_dadd+0x4b8>
    1f96:	0004      	movs	r4, r0
    1f98:	4314      	orrs	r4, r2
    1f9a:	d04e      	beq.n	203a <STACK_SIZE+0x3a>
    1f9c:	08ed      	lsrs	r5, r5, #3
    1f9e:	074c      	lsls	r4, r1, #29
    1fa0:	432c      	orrs	r4, r5
    1fa2:	2580      	movs	r5, #128	; 0x80
    1fa4:	08c9      	lsrs	r1, r1, #3
    1fa6:	032d      	lsls	r5, r5, #12
    1fa8:	4229      	tst	r1, r5
    1faa:	d008      	beq.n	1fbe <__aeabi_dadd+0x552>
    1fac:	08c6      	lsrs	r6, r0, #3
    1fae:	422e      	tst	r6, r5
    1fb0:	d105      	bne.n	1fbe <__aeabi_dadd+0x552>
    1fb2:	08d2      	lsrs	r2, r2, #3
    1fb4:	0741      	lsls	r1, r0, #29
    1fb6:	4311      	orrs	r1, r2
    1fb8:	000c      	movs	r4, r1
    1fba:	469a      	mov	sl, r3
    1fbc:	0031      	movs	r1, r6
    1fbe:	0f62      	lsrs	r2, r4, #29
    1fc0:	00c9      	lsls	r1, r1, #3
    1fc2:	00e5      	lsls	r5, r4, #3
    1fc4:	4311      	orrs	r1, r2
    1fc6:	4c3d      	ldr	r4, [pc, #244]	; (20bc <STACK_SIZE+0xbc>)
    1fc8:	e579      	b.n	1abe <__aeabi_dadd+0x52>
    1fca:	0006      	movs	r6, r0
    1fcc:	4316      	orrs	r6, r2
    1fce:	d100      	bne.n	1fd2 <__aeabi_dadd+0x566>
    1fd0:	e575      	b.n	1abe <__aeabi_dadd+0x52>
    1fd2:	1aae      	subs	r6, r5, r2
    1fd4:	46b0      	mov	r8, r6
    1fd6:	4545      	cmp	r5, r8
    1fd8:	41bf      	sbcs	r7, r7
    1fda:	1a0e      	subs	r6, r1, r0
    1fdc:	427f      	negs	r7, r7
    1fde:	1bf6      	subs	r6, r6, r7
    1fe0:	0237      	lsls	r7, r6, #8
    1fe2:	d400      	bmi.n	1fe6 <__aeabi_dadd+0x57a>
    1fe4:	e5f4      	b.n	1bd0 <__aeabi_dadd+0x164>
    1fe6:	1b55      	subs	r5, r2, r5
    1fe8:	42aa      	cmp	r2, r5
    1fea:	41b6      	sbcs	r6, r6
    1fec:	1a41      	subs	r1, r0, r1
    1fee:	4276      	negs	r6, r6
    1ff0:	1b89      	subs	r1, r1, r6
    1ff2:	469a      	mov	sl, r3
    1ff4:	e563      	b.n	1abe <__aeabi_dadd+0x52>
    1ff6:	0001      	movs	r1, r0
    1ff8:	0015      	movs	r5, r2
    1ffa:	4664      	mov	r4, ip
    1ffc:	e55f      	b.n	1abe <__aeabi_dadd+0x52>
    1ffe:	2200      	movs	r2, #0
    2000:	2500      	movs	r5, #0
    2002:	e57b      	b.n	1afc <__aeabi_dadd+0x90>
    2004:	2b00      	cmp	r3, #0
    2006:	d03b      	beq.n	2080 <STACK_SIZE+0x80>
    2008:	0003      	movs	r3, r0
    200a:	4313      	orrs	r3, r2
    200c:	d015      	beq.n	203a <STACK_SIZE+0x3a>
    200e:	08ed      	lsrs	r5, r5, #3
    2010:	074b      	lsls	r3, r1, #29
    2012:	432b      	orrs	r3, r5
    2014:	2580      	movs	r5, #128	; 0x80
    2016:	08c9      	lsrs	r1, r1, #3
    2018:	032d      	lsls	r5, r5, #12
    201a:	4229      	tst	r1, r5
    201c:	d007      	beq.n	202e <STACK_SIZE+0x2e>
    201e:	08c4      	lsrs	r4, r0, #3
    2020:	422c      	tst	r4, r5
    2022:	d104      	bne.n	202e <STACK_SIZE+0x2e>
    2024:	0741      	lsls	r1, r0, #29
    2026:	000b      	movs	r3, r1
    2028:	0021      	movs	r1, r4
    202a:	08d2      	lsrs	r2, r2, #3
    202c:	4313      	orrs	r3, r2
    202e:	00c9      	lsls	r1, r1, #3
    2030:	0f5a      	lsrs	r2, r3, #29
    2032:	4311      	orrs	r1, r2
    2034:	00dd      	lsls	r5, r3, #3
    2036:	4c21      	ldr	r4, [pc, #132]	; (20bc <STACK_SIZE+0xbc>)
    2038:	e541      	b.n	1abe <__aeabi_dadd+0x52>
    203a:	4c20      	ldr	r4, [pc, #128]	; (20bc <STACK_SIZE+0xbc>)
    203c:	e53f      	b.n	1abe <__aeabi_dadd+0x52>
    203e:	2000      	movs	r0, #0
    2040:	e754      	b.n	1eec <__aeabi_dadd+0x480>
    2042:	2600      	movs	r6, #0
    2044:	2500      	movs	r5, #0
    2046:	e5d1      	b.n	1bec <__aeabi_dadd+0x180>
    2048:	0034      	movs	r4, r6
    204a:	000f      	movs	r7, r1
    204c:	3c20      	subs	r4, #32
    204e:	40e7      	lsrs	r7, r4
    2050:	003c      	movs	r4, r7
    2052:	2e20      	cmp	r6, #32
    2054:	d02b      	beq.n	20ae <STACK_SIZE+0xae>
    2056:	2740      	movs	r7, #64	; 0x40
    2058:	1bbe      	subs	r6, r7, r6
    205a:	40b1      	lsls	r1, r6
    205c:	430d      	orrs	r5, r1
    205e:	1e69      	subs	r1, r5, #1
    2060:	418d      	sbcs	r5, r1
    2062:	2100      	movs	r1, #0
    2064:	432c      	orrs	r4, r5
    2066:	e6bc      	b.n	1de2 <__aeabi_dadd+0x376>
    2068:	2180      	movs	r1, #128	; 0x80
    206a:	2600      	movs	r6, #0
    206c:	0309      	lsls	r1, r1, #12
    206e:	4c13      	ldr	r4, [pc, #76]	; (20bc <STACK_SIZE+0xbc>)
    2070:	2500      	movs	r5, #0
    2072:	e5bb      	b.n	1bec <__aeabi_dadd+0x180>
    2074:	430d      	orrs	r5, r1
    2076:	1e69      	subs	r1, r5, #1
    2078:	418d      	sbcs	r5, r1
    207a:	2100      	movs	r1, #0
    207c:	b2ed      	uxtb	r5, r5
    207e:	e769      	b.n	1f54 <__aeabi_dadd+0x4e8>
    2080:	0001      	movs	r1, r0
    2082:	0015      	movs	r5, r2
    2084:	4c0d      	ldr	r4, [pc, #52]	; (20bc <STACK_SIZE+0xbc>)
    2086:	e51a      	b.n	1abe <__aeabi_dadd+0x52>
    2088:	0001      	movs	r1, r0
    208a:	0015      	movs	r5, r2
    208c:	e517      	b.n	1abe <__aeabi_dadd+0x52>
    208e:	001c      	movs	r4, r3
    2090:	000f      	movs	r7, r1
    2092:	3c20      	subs	r4, #32
    2094:	40e7      	lsrs	r7, r4
    2096:	003c      	movs	r4, r7
    2098:	2b20      	cmp	r3, #32
    209a:	d00c      	beq.n	20b6 <STACK_SIZE+0xb6>
    209c:	2740      	movs	r7, #64	; 0x40
    209e:	1afb      	subs	r3, r7, r3
    20a0:	4099      	lsls	r1, r3
    20a2:	430d      	orrs	r5, r1
    20a4:	1e69      	subs	r1, r5, #1
    20a6:	418d      	sbcs	r5, r1
    20a8:	2100      	movs	r1, #0
    20aa:	4325      	orrs	r5, r4
    20ac:	e752      	b.n	1f54 <__aeabi_dadd+0x4e8>
    20ae:	2100      	movs	r1, #0
    20b0:	e7d4      	b.n	205c <STACK_SIZE+0x5c>
    20b2:	001d      	movs	r5, r3
    20b4:	e592      	b.n	1bdc <__aeabi_dadd+0x170>
    20b6:	2100      	movs	r1, #0
    20b8:	e7f3      	b.n	20a2 <STACK_SIZE+0xa2>
    20ba:	46c0      	nop			; (mov r8, r8)
    20bc:	000007ff 	.word	0x000007ff
    20c0:	ff7fffff 	.word	0xff7fffff

000020c4 <__eqdf2>:
    20c4:	b5f0      	push	{r4, r5, r6, r7, lr}
    20c6:	465f      	mov	r7, fp
    20c8:	4656      	mov	r6, sl
    20ca:	464d      	mov	r5, r9
    20cc:	4644      	mov	r4, r8
    20ce:	b4f0      	push	{r4, r5, r6, r7}
    20d0:	031f      	lsls	r7, r3, #12
    20d2:	005c      	lsls	r4, r3, #1
    20d4:	0fdb      	lsrs	r3, r3, #31
    20d6:	469a      	mov	sl, r3
    20d8:	4b19      	ldr	r3, [pc, #100]	; (2140 <__eqdf2+0x7c>)
    20da:	030e      	lsls	r6, r1, #12
    20dc:	004d      	lsls	r5, r1, #1
    20de:	0fc9      	lsrs	r1, r1, #31
    20e0:	4680      	mov	r8, r0
    20e2:	0b36      	lsrs	r6, r6, #12
    20e4:	0d6d      	lsrs	r5, r5, #21
    20e6:	468b      	mov	fp, r1
    20e8:	4691      	mov	r9, r2
    20ea:	0b3f      	lsrs	r7, r7, #12
    20ec:	0d64      	lsrs	r4, r4, #21
    20ee:	429d      	cmp	r5, r3
    20f0:	d019      	beq.n	2126 <__eqdf2+0x62>
    20f2:	4b13      	ldr	r3, [pc, #76]	; (2140 <__eqdf2+0x7c>)
    20f4:	429c      	cmp	r4, r3
    20f6:	d01b      	beq.n	2130 <__eqdf2+0x6c>
    20f8:	2301      	movs	r3, #1
    20fa:	42a5      	cmp	r5, r4
    20fc:	d006      	beq.n	210c <__eqdf2+0x48>
    20fe:	0018      	movs	r0, r3
    2100:	bc3c      	pop	{r2, r3, r4, r5}
    2102:	4690      	mov	r8, r2
    2104:	4699      	mov	r9, r3
    2106:	46a2      	mov	sl, r4
    2108:	46ab      	mov	fp, r5
    210a:	bdf0      	pop	{r4, r5, r6, r7, pc}
    210c:	42be      	cmp	r6, r7
    210e:	d1f6      	bne.n	20fe <__eqdf2+0x3a>
    2110:	45c8      	cmp	r8, r9
    2112:	d1f4      	bne.n	20fe <__eqdf2+0x3a>
    2114:	45d3      	cmp	fp, sl
    2116:	d010      	beq.n	213a <__eqdf2+0x76>
    2118:	2d00      	cmp	r5, #0
    211a:	d1f0      	bne.n	20fe <__eqdf2+0x3a>
    211c:	4330      	orrs	r0, r6
    211e:	0003      	movs	r3, r0
    2120:	1e5a      	subs	r2, r3, #1
    2122:	4193      	sbcs	r3, r2
    2124:	e7eb      	b.n	20fe <__eqdf2+0x3a>
    2126:	0031      	movs	r1, r6
    2128:	2301      	movs	r3, #1
    212a:	4301      	orrs	r1, r0
    212c:	d1e7      	bne.n	20fe <__eqdf2+0x3a>
    212e:	e7e0      	b.n	20f2 <__eqdf2+0x2e>
    2130:	433a      	orrs	r2, r7
    2132:	2301      	movs	r3, #1
    2134:	2a00      	cmp	r2, #0
    2136:	d1e2      	bne.n	20fe <__eqdf2+0x3a>
    2138:	e7de      	b.n	20f8 <__eqdf2+0x34>
    213a:	2300      	movs	r3, #0
    213c:	e7df      	b.n	20fe <__eqdf2+0x3a>
    213e:	46c0      	nop			; (mov r8, r8)
    2140:	000007ff 	.word	0x000007ff

00002144 <__gedf2>:
    2144:	b5f0      	push	{r4, r5, r6, r7, lr}
    2146:	465f      	mov	r7, fp
    2148:	4644      	mov	r4, r8
    214a:	4656      	mov	r6, sl
    214c:	464d      	mov	r5, r9
    214e:	b4f0      	push	{r4, r5, r6, r7}
    2150:	031f      	lsls	r7, r3, #12
    2152:	0b3c      	lsrs	r4, r7, #12
    2154:	4f2c      	ldr	r7, [pc, #176]	; (2208 <__gedf2+0xc4>)
    2156:	030e      	lsls	r6, r1, #12
    2158:	004d      	lsls	r5, r1, #1
    215a:	46a3      	mov	fp, r4
    215c:	005c      	lsls	r4, r3, #1
    215e:	4684      	mov	ip, r0
    2160:	0b36      	lsrs	r6, r6, #12
    2162:	0d6d      	lsrs	r5, r5, #21
    2164:	0fc9      	lsrs	r1, r1, #31
    2166:	4690      	mov	r8, r2
    2168:	0d64      	lsrs	r4, r4, #21
    216a:	0fdb      	lsrs	r3, r3, #31
    216c:	42bd      	cmp	r5, r7
    216e:	d02b      	beq.n	21c8 <__gedf2+0x84>
    2170:	4f25      	ldr	r7, [pc, #148]	; (2208 <__gedf2+0xc4>)
    2172:	42bc      	cmp	r4, r7
    2174:	d02e      	beq.n	21d4 <__gedf2+0x90>
    2176:	2d00      	cmp	r5, #0
    2178:	d10e      	bne.n	2198 <__gedf2+0x54>
    217a:	4330      	orrs	r0, r6
    217c:	0007      	movs	r7, r0
    217e:	4681      	mov	r9, r0
    2180:	4278      	negs	r0, r7
    2182:	4178      	adcs	r0, r7
    2184:	2c00      	cmp	r4, #0
    2186:	d117      	bne.n	21b8 <__gedf2+0x74>
    2188:	465f      	mov	r7, fp
    218a:	433a      	orrs	r2, r7
    218c:	d114      	bne.n	21b8 <__gedf2+0x74>
    218e:	464b      	mov	r3, r9
    2190:	2000      	movs	r0, #0
    2192:	2b00      	cmp	r3, #0
    2194:	d00a      	beq.n	21ac <__gedf2+0x68>
    2196:	e006      	b.n	21a6 <__gedf2+0x62>
    2198:	2c00      	cmp	r4, #0
    219a:	d102      	bne.n	21a2 <__gedf2+0x5e>
    219c:	4658      	mov	r0, fp
    219e:	4302      	orrs	r2, r0
    21a0:	d001      	beq.n	21a6 <__gedf2+0x62>
    21a2:	4299      	cmp	r1, r3
    21a4:	d01a      	beq.n	21dc <__gedf2+0x98>
    21a6:	2301      	movs	r3, #1
    21a8:	4248      	negs	r0, r1
    21aa:	4318      	orrs	r0, r3
    21ac:	bc3c      	pop	{r2, r3, r4, r5}
    21ae:	4690      	mov	r8, r2
    21b0:	4699      	mov	r9, r3
    21b2:	46a2      	mov	sl, r4
    21b4:	46ab      	mov	fp, r5
    21b6:	bdf0      	pop	{r4, r5, r6, r7, pc}
    21b8:	2800      	cmp	r0, #0
    21ba:	d0f2      	beq.n	21a2 <__gedf2+0x5e>
    21bc:	4258      	negs	r0, r3
    21be:	4158      	adcs	r0, r3
    21c0:	2201      	movs	r2, #1
    21c2:	4240      	negs	r0, r0
    21c4:	4310      	orrs	r0, r2
    21c6:	e7f1      	b.n	21ac <__gedf2+0x68>
    21c8:	0037      	movs	r7, r6
    21ca:	4307      	orrs	r7, r0
    21cc:	d0d0      	beq.n	2170 <__gedf2+0x2c>
    21ce:	2002      	movs	r0, #2
    21d0:	4240      	negs	r0, r0
    21d2:	e7eb      	b.n	21ac <__gedf2+0x68>
    21d4:	465f      	mov	r7, fp
    21d6:	4317      	orrs	r7, r2
    21d8:	d0cd      	beq.n	2176 <__gedf2+0x32>
    21da:	e7f8      	b.n	21ce <__gedf2+0x8a>
    21dc:	42a5      	cmp	r5, r4
    21de:	dce2      	bgt.n	21a6 <__gedf2+0x62>
    21e0:	db05      	blt.n	21ee <__gedf2+0xaa>
    21e2:	455e      	cmp	r6, fp
    21e4:	d8df      	bhi.n	21a6 <__gedf2+0x62>
    21e6:	d008      	beq.n	21fa <__gedf2+0xb6>
    21e8:	2000      	movs	r0, #0
    21ea:	455e      	cmp	r6, fp
    21ec:	d2de      	bcs.n	21ac <__gedf2+0x68>
    21ee:	4248      	negs	r0, r1
    21f0:	4148      	adcs	r0, r1
    21f2:	2301      	movs	r3, #1
    21f4:	4240      	negs	r0, r0
    21f6:	4318      	orrs	r0, r3
    21f8:	e7d8      	b.n	21ac <__gedf2+0x68>
    21fa:	45c4      	cmp	ip, r8
    21fc:	d8d3      	bhi.n	21a6 <__gedf2+0x62>
    21fe:	2000      	movs	r0, #0
    2200:	45c4      	cmp	ip, r8
    2202:	d3f4      	bcc.n	21ee <__gedf2+0xaa>
    2204:	e7d2      	b.n	21ac <__gedf2+0x68>
    2206:	46c0      	nop			; (mov r8, r8)
    2208:	000007ff 	.word	0x000007ff

0000220c <__ledf2>:
    220c:	b5f0      	push	{r4, r5, r6, r7, lr}
    220e:	465f      	mov	r7, fp
    2210:	464d      	mov	r5, r9
    2212:	4644      	mov	r4, r8
    2214:	4656      	mov	r6, sl
    2216:	b4f0      	push	{r4, r5, r6, r7}
    2218:	031c      	lsls	r4, r3, #12
    221a:	0b24      	lsrs	r4, r4, #12
    221c:	46a4      	mov	ip, r4
    221e:	4c2f      	ldr	r4, [pc, #188]	; (22dc <__ledf2+0xd0>)
    2220:	030f      	lsls	r7, r1, #12
    2222:	004d      	lsls	r5, r1, #1
    2224:	005e      	lsls	r6, r3, #1
    2226:	0fc9      	lsrs	r1, r1, #31
    2228:	4680      	mov	r8, r0
    222a:	0b3f      	lsrs	r7, r7, #12
    222c:	0d6d      	lsrs	r5, r5, #21
    222e:	468b      	mov	fp, r1
    2230:	4691      	mov	r9, r2
    2232:	0d76      	lsrs	r6, r6, #21
    2234:	0fdb      	lsrs	r3, r3, #31
    2236:	42a5      	cmp	r5, r4
    2238:	d020      	beq.n	227c <__ledf2+0x70>
    223a:	4c28      	ldr	r4, [pc, #160]	; (22dc <__ledf2+0xd0>)
    223c:	42a6      	cmp	r6, r4
    223e:	d022      	beq.n	2286 <__ledf2+0x7a>
    2240:	2d00      	cmp	r5, #0
    2242:	d112      	bne.n	226a <__ledf2+0x5e>
    2244:	4338      	orrs	r0, r7
    2246:	4244      	negs	r4, r0
    2248:	4144      	adcs	r4, r0
    224a:	2e00      	cmp	r6, #0
    224c:	d020      	beq.n	2290 <__ledf2+0x84>
    224e:	2c00      	cmp	r4, #0
    2250:	d00d      	beq.n	226e <__ledf2+0x62>
    2252:	425c      	negs	r4, r3
    2254:	4163      	adcs	r3, r4
    2256:	2401      	movs	r4, #1
    2258:	425b      	negs	r3, r3
    225a:	431c      	orrs	r4, r3
    225c:	0020      	movs	r0, r4
    225e:	bc3c      	pop	{r2, r3, r4, r5}
    2260:	4690      	mov	r8, r2
    2262:	4699      	mov	r9, r3
    2264:	46a2      	mov	sl, r4
    2266:	46ab      	mov	fp, r5
    2268:	bdf0      	pop	{r4, r5, r6, r7, pc}
    226a:	2e00      	cmp	r6, #0
    226c:	d017      	beq.n	229e <__ledf2+0x92>
    226e:	455b      	cmp	r3, fp
    2270:	d019      	beq.n	22a6 <__ledf2+0x9a>
    2272:	465b      	mov	r3, fp
    2274:	425c      	negs	r4, r3
    2276:	2301      	movs	r3, #1
    2278:	431c      	orrs	r4, r3
    227a:	e7ef      	b.n	225c <__ledf2+0x50>
    227c:	0039      	movs	r1, r7
    227e:	2402      	movs	r4, #2
    2280:	4301      	orrs	r1, r0
    2282:	d1eb      	bne.n	225c <__ledf2+0x50>
    2284:	e7d9      	b.n	223a <__ledf2+0x2e>
    2286:	4661      	mov	r1, ip
    2288:	2402      	movs	r4, #2
    228a:	4311      	orrs	r1, r2
    228c:	d1e6      	bne.n	225c <__ledf2+0x50>
    228e:	e7d7      	b.n	2240 <__ledf2+0x34>
    2290:	4661      	mov	r1, ip
    2292:	430a      	orrs	r2, r1
    2294:	d1db      	bne.n	224e <__ledf2+0x42>
    2296:	2400      	movs	r4, #0
    2298:	2800      	cmp	r0, #0
    229a:	d0df      	beq.n	225c <__ledf2+0x50>
    229c:	e7e9      	b.n	2272 <__ledf2+0x66>
    229e:	4661      	mov	r1, ip
    22a0:	430a      	orrs	r2, r1
    22a2:	d1e4      	bne.n	226e <__ledf2+0x62>
    22a4:	e7e5      	b.n	2272 <__ledf2+0x66>
    22a6:	42b5      	cmp	r5, r6
    22a8:	dd03      	ble.n	22b2 <__ledf2+0xa6>
    22aa:	2201      	movs	r2, #1
    22ac:	425c      	negs	r4, r3
    22ae:	4314      	orrs	r4, r2
    22b0:	e7d4      	b.n	225c <__ledf2+0x50>
    22b2:	42b5      	cmp	r5, r6
    22b4:	dbcd      	blt.n	2252 <__ledf2+0x46>
    22b6:	4567      	cmp	r7, ip
    22b8:	d8db      	bhi.n	2272 <__ledf2+0x66>
    22ba:	d009      	beq.n	22d0 <__ledf2+0xc4>
    22bc:	2400      	movs	r4, #0
    22be:	4567      	cmp	r7, ip
    22c0:	d2cc      	bcs.n	225c <__ledf2+0x50>
    22c2:	4659      	mov	r1, fp
    22c4:	424c      	negs	r4, r1
    22c6:	4161      	adcs	r1, r4
    22c8:	2401      	movs	r4, #1
    22ca:	4249      	negs	r1, r1
    22cc:	430c      	orrs	r4, r1
    22ce:	e7c5      	b.n	225c <__ledf2+0x50>
    22d0:	45c8      	cmp	r8, r9
    22d2:	d8ce      	bhi.n	2272 <__ledf2+0x66>
    22d4:	2400      	movs	r4, #0
    22d6:	45c8      	cmp	r8, r9
    22d8:	d3f3      	bcc.n	22c2 <__ledf2+0xb6>
    22da:	e7bf      	b.n	225c <__ledf2+0x50>
    22dc:	000007ff 	.word	0x000007ff

000022e0 <__aeabi_dmul>:
    22e0:	b5f0      	push	{r4, r5, r6, r7, lr}
    22e2:	465f      	mov	r7, fp
    22e4:	4656      	mov	r6, sl
    22e6:	464d      	mov	r5, r9
    22e8:	4644      	mov	r4, r8
    22ea:	b4f0      	push	{r4, r5, r6, r7}
    22ec:	030d      	lsls	r5, r1, #12
    22ee:	4699      	mov	r9, r3
    22f0:	004e      	lsls	r6, r1, #1
    22f2:	0b2b      	lsrs	r3, r5, #12
    22f4:	b087      	sub	sp, #28
    22f6:	0007      	movs	r7, r0
    22f8:	4692      	mov	sl, r2
    22fa:	4680      	mov	r8, r0
    22fc:	469b      	mov	fp, r3
    22fe:	0d76      	lsrs	r6, r6, #21
    2300:	0fcc      	lsrs	r4, r1, #31
    2302:	2e00      	cmp	r6, #0
    2304:	d069      	beq.n	23da <__aeabi_dmul+0xfa>
    2306:	4b6d      	ldr	r3, [pc, #436]	; (24bc <__aeabi_dmul+0x1dc>)
    2308:	429e      	cmp	r6, r3
    230a:	d035      	beq.n	2378 <__aeabi_dmul+0x98>
    230c:	465b      	mov	r3, fp
    230e:	2280      	movs	r2, #128	; 0x80
    2310:	00dd      	lsls	r5, r3, #3
    2312:	0412      	lsls	r2, r2, #16
    2314:	0f43      	lsrs	r3, r0, #29
    2316:	4313      	orrs	r3, r2
    2318:	432b      	orrs	r3, r5
    231a:	469b      	mov	fp, r3
    231c:	00c3      	lsls	r3, r0, #3
    231e:	4698      	mov	r8, r3
    2320:	4b67      	ldr	r3, [pc, #412]	; (24c0 <__aeabi_dmul+0x1e0>)
    2322:	2700      	movs	r7, #0
    2324:	469c      	mov	ip, r3
    2326:	2300      	movs	r3, #0
    2328:	4466      	add	r6, ip
    232a:	9301      	str	r3, [sp, #4]
    232c:	464a      	mov	r2, r9
    232e:	0315      	lsls	r5, r2, #12
    2330:	0050      	lsls	r0, r2, #1
    2332:	0fd2      	lsrs	r2, r2, #31
    2334:	4653      	mov	r3, sl
    2336:	0b2d      	lsrs	r5, r5, #12
    2338:	0d40      	lsrs	r0, r0, #21
    233a:	4691      	mov	r9, r2
    233c:	d100      	bne.n	2340 <__aeabi_dmul+0x60>
    233e:	e076      	b.n	242e <__aeabi_dmul+0x14e>
    2340:	4a5e      	ldr	r2, [pc, #376]	; (24bc <__aeabi_dmul+0x1dc>)
    2342:	4290      	cmp	r0, r2
    2344:	d06c      	beq.n	2420 <__aeabi_dmul+0x140>
    2346:	2280      	movs	r2, #128	; 0x80
    2348:	0f5b      	lsrs	r3, r3, #29
    234a:	0412      	lsls	r2, r2, #16
    234c:	4313      	orrs	r3, r2
    234e:	4a5c      	ldr	r2, [pc, #368]	; (24c0 <__aeabi_dmul+0x1e0>)
    2350:	00ed      	lsls	r5, r5, #3
    2352:	4694      	mov	ip, r2
    2354:	431d      	orrs	r5, r3
    2356:	4653      	mov	r3, sl
    2358:	2200      	movs	r2, #0
    235a:	00db      	lsls	r3, r3, #3
    235c:	4460      	add	r0, ip
    235e:	4649      	mov	r1, r9
    2360:	1836      	adds	r6, r6, r0
    2362:	1c70      	adds	r0, r6, #1
    2364:	4061      	eors	r1, r4
    2366:	9002      	str	r0, [sp, #8]
    2368:	4317      	orrs	r7, r2
    236a:	2f0f      	cmp	r7, #15
    236c:	d900      	bls.n	2370 <__aeabi_dmul+0x90>
    236e:	e0af      	b.n	24d0 <__aeabi_dmul+0x1f0>
    2370:	4854      	ldr	r0, [pc, #336]	; (24c4 <__aeabi_dmul+0x1e4>)
    2372:	00bf      	lsls	r7, r7, #2
    2374:	59c7      	ldr	r7, [r0, r7]
    2376:	46bf      	mov	pc, r7
    2378:	465b      	mov	r3, fp
    237a:	431f      	orrs	r7, r3
    237c:	d000      	beq.n	2380 <__aeabi_dmul+0xa0>
    237e:	e088      	b.n	2492 <__aeabi_dmul+0x1b2>
    2380:	2300      	movs	r3, #0
    2382:	469b      	mov	fp, r3
    2384:	4698      	mov	r8, r3
    2386:	3302      	adds	r3, #2
    2388:	2708      	movs	r7, #8
    238a:	9301      	str	r3, [sp, #4]
    238c:	e7ce      	b.n	232c <__aeabi_dmul+0x4c>
    238e:	4649      	mov	r1, r9
    2390:	2a02      	cmp	r2, #2
    2392:	d06a      	beq.n	246a <__aeabi_dmul+0x18a>
    2394:	2a03      	cmp	r2, #3
    2396:	d100      	bne.n	239a <__aeabi_dmul+0xba>
    2398:	e209      	b.n	27ae <__aeabi_dmul+0x4ce>
    239a:	2a01      	cmp	r2, #1
    239c:	d000      	beq.n	23a0 <__aeabi_dmul+0xc0>
    239e:	e1bb      	b.n	2718 <__aeabi_dmul+0x438>
    23a0:	4011      	ands	r1, r2
    23a2:	2200      	movs	r2, #0
    23a4:	2300      	movs	r3, #0
    23a6:	2500      	movs	r5, #0
    23a8:	4690      	mov	r8, r2
    23aa:	b2cc      	uxtb	r4, r1
    23ac:	2100      	movs	r1, #0
    23ae:	032d      	lsls	r5, r5, #12
    23b0:	0d0a      	lsrs	r2, r1, #20
    23b2:	0512      	lsls	r2, r2, #20
    23b4:	0b2d      	lsrs	r5, r5, #12
    23b6:	4315      	orrs	r5, r2
    23b8:	4a43      	ldr	r2, [pc, #268]	; (24c8 <__aeabi_dmul+0x1e8>)
    23ba:	051b      	lsls	r3, r3, #20
    23bc:	4015      	ands	r5, r2
    23be:	431d      	orrs	r5, r3
    23c0:	006d      	lsls	r5, r5, #1
    23c2:	07e4      	lsls	r4, r4, #31
    23c4:	086d      	lsrs	r5, r5, #1
    23c6:	4325      	orrs	r5, r4
    23c8:	4640      	mov	r0, r8
    23ca:	0029      	movs	r1, r5
    23cc:	b007      	add	sp, #28
    23ce:	bc3c      	pop	{r2, r3, r4, r5}
    23d0:	4690      	mov	r8, r2
    23d2:	4699      	mov	r9, r3
    23d4:	46a2      	mov	sl, r4
    23d6:	46ab      	mov	fp, r5
    23d8:	bdf0      	pop	{r4, r5, r6, r7, pc}
    23da:	4303      	orrs	r3, r0
    23dc:	d052      	beq.n	2484 <__aeabi_dmul+0x1a4>
    23de:	465b      	mov	r3, fp
    23e0:	2b00      	cmp	r3, #0
    23e2:	d100      	bne.n	23e6 <__aeabi_dmul+0x106>
    23e4:	e18a      	b.n	26fc <__aeabi_dmul+0x41c>
    23e6:	4658      	mov	r0, fp
    23e8:	f000 fed8 	bl	319c <__clzsi2>
    23ec:	0003      	movs	r3, r0
    23ee:	3b0b      	subs	r3, #11
    23f0:	2b1c      	cmp	r3, #28
    23f2:	dd00      	ble.n	23f6 <__aeabi_dmul+0x116>
    23f4:	e17b      	b.n	26ee <__aeabi_dmul+0x40e>
    23f6:	221d      	movs	r2, #29
    23f8:	1ad3      	subs	r3, r2, r3
    23fa:	003a      	movs	r2, r7
    23fc:	0001      	movs	r1, r0
    23fe:	465d      	mov	r5, fp
    2400:	40da      	lsrs	r2, r3
    2402:	3908      	subs	r1, #8
    2404:	408d      	lsls	r5, r1
    2406:	0013      	movs	r3, r2
    2408:	408f      	lsls	r7, r1
    240a:	432b      	orrs	r3, r5
    240c:	469b      	mov	fp, r3
    240e:	46b8      	mov	r8, r7
    2410:	4b2e      	ldr	r3, [pc, #184]	; (24cc <__aeabi_dmul+0x1ec>)
    2412:	2700      	movs	r7, #0
    2414:	469c      	mov	ip, r3
    2416:	2300      	movs	r3, #0
    2418:	4460      	add	r0, ip
    241a:	4246      	negs	r6, r0
    241c:	9301      	str	r3, [sp, #4]
    241e:	e785      	b.n	232c <__aeabi_dmul+0x4c>
    2420:	4652      	mov	r2, sl
    2422:	432a      	orrs	r2, r5
    2424:	d12c      	bne.n	2480 <__aeabi_dmul+0x1a0>
    2426:	2500      	movs	r5, #0
    2428:	2300      	movs	r3, #0
    242a:	2202      	movs	r2, #2
    242c:	e797      	b.n	235e <__aeabi_dmul+0x7e>
    242e:	4652      	mov	r2, sl
    2430:	432a      	orrs	r2, r5
    2432:	d021      	beq.n	2478 <__aeabi_dmul+0x198>
    2434:	2d00      	cmp	r5, #0
    2436:	d100      	bne.n	243a <__aeabi_dmul+0x15a>
    2438:	e154      	b.n	26e4 <__aeabi_dmul+0x404>
    243a:	0028      	movs	r0, r5
    243c:	f000 feae 	bl	319c <__clzsi2>
    2440:	0003      	movs	r3, r0
    2442:	3b0b      	subs	r3, #11
    2444:	2b1c      	cmp	r3, #28
    2446:	dd00      	ble.n	244a <__aeabi_dmul+0x16a>
    2448:	e146      	b.n	26d8 <__aeabi_dmul+0x3f8>
    244a:	211d      	movs	r1, #29
    244c:	1acb      	subs	r3, r1, r3
    244e:	4651      	mov	r1, sl
    2450:	0002      	movs	r2, r0
    2452:	40d9      	lsrs	r1, r3
    2454:	4653      	mov	r3, sl
    2456:	3a08      	subs	r2, #8
    2458:	4095      	lsls	r5, r2
    245a:	4093      	lsls	r3, r2
    245c:	430d      	orrs	r5, r1
    245e:	4a1b      	ldr	r2, [pc, #108]	; (24cc <__aeabi_dmul+0x1ec>)
    2460:	4694      	mov	ip, r2
    2462:	4460      	add	r0, ip
    2464:	4240      	negs	r0, r0
    2466:	2200      	movs	r2, #0
    2468:	e779      	b.n	235e <__aeabi_dmul+0x7e>
    246a:	2401      	movs	r4, #1
    246c:	2200      	movs	r2, #0
    246e:	400c      	ands	r4, r1
    2470:	4b12      	ldr	r3, [pc, #72]	; (24bc <__aeabi_dmul+0x1dc>)
    2472:	2500      	movs	r5, #0
    2474:	4690      	mov	r8, r2
    2476:	e799      	b.n	23ac <__aeabi_dmul+0xcc>
    2478:	2500      	movs	r5, #0
    247a:	2300      	movs	r3, #0
    247c:	2201      	movs	r2, #1
    247e:	e76e      	b.n	235e <__aeabi_dmul+0x7e>
    2480:	2203      	movs	r2, #3
    2482:	e76c      	b.n	235e <__aeabi_dmul+0x7e>
    2484:	2300      	movs	r3, #0
    2486:	469b      	mov	fp, r3
    2488:	4698      	mov	r8, r3
    248a:	3301      	adds	r3, #1
    248c:	2704      	movs	r7, #4
    248e:	9301      	str	r3, [sp, #4]
    2490:	e74c      	b.n	232c <__aeabi_dmul+0x4c>
    2492:	2303      	movs	r3, #3
    2494:	270c      	movs	r7, #12
    2496:	9301      	str	r3, [sp, #4]
    2498:	e748      	b.n	232c <__aeabi_dmul+0x4c>
    249a:	2300      	movs	r3, #0
    249c:	2580      	movs	r5, #128	; 0x80
    249e:	4698      	mov	r8, r3
    24a0:	2400      	movs	r4, #0
    24a2:	032d      	lsls	r5, r5, #12
    24a4:	4b05      	ldr	r3, [pc, #20]	; (24bc <__aeabi_dmul+0x1dc>)
    24a6:	e781      	b.n	23ac <__aeabi_dmul+0xcc>
    24a8:	465d      	mov	r5, fp
    24aa:	4643      	mov	r3, r8
    24ac:	9a01      	ldr	r2, [sp, #4]
    24ae:	e76f      	b.n	2390 <__aeabi_dmul+0xb0>
    24b0:	465d      	mov	r5, fp
    24b2:	4643      	mov	r3, r8
    24b4:	0021      	movs	r1, r4
    24b6:	9a01      	ldr	r2, [sp, #4]
    24b8:	e76a      	b.n	2390 <__aeabi_dmul+0xb0>
    24ba:	46c0      	nop			; (mov r8, r8)
    24bc:	000007ff 	.word	0x000007ff
    24c0:	fffffc01 	.word	0xfffffc01
    24c4:	00003548 	.word	0x00003548
    24c8:	800fffff 	.word	0x800fffff
    24cc:	000003f3 	.word	0x000003f3
    24d0:	4642      	mov	r2, r8
    24d2:	0c12      	lsrs	r2, r2, #16
    24d4:	4691      	mov	r9, r2
    24d6:	0c1a      	lsrs	r2, r3, #16
    24d8:	4694      	mov	ip, r2
    24da:	4642      	mov	r2, r8
    24dc:	0417      	lsls	r7, r2, #16
    24de:	464a      	mov	r2, r9
    24e0:	041b      	lsls	r3, r3, #16
    24e2:	0c1b      	lsrs	r3, r3, #16
    24e4:	435a      	muls	r2, r3
    24e6:	4660      	mov	r0, ip
    24e8:	4690      	mov	r8, r2
    24ea:	464a      	mov	r2, r9
    24ec:	4342      	muls	r2, r0
    24ee:	0010      	movs	r0, r2
    24f0:	9203      	str	r2, [sp, #12]
    24f2:	4662      	mov	r2, ip
    24f4:	001c      	movs	r4, r3
    24f6:	0c3f      	lsrs	r7, r7, #16
    24f8:	437a      	muls	r2, r7
    24fa:	437c      	muls	r4, r7
    24fc:	4442      	add	r2, r8
    24fe:	9201      	str	r2, [sp, #4]
    2500:	0c22      	lsrs	r2, r4, #16
    2502:	4692      	mov	sl, r2
    2504:	9a01      	ldr	r2, [sp, #4]
    2506:	4452      	add	r2, sl
    2508:	4590      	cmp	r8, r2
    250a:	d906      	bls.n	251a <__aeabi_dmul+0x23a>
    250c:	4682      	mov	sl, r0
    250e:	2080      	movs	r0, #128	; 0x80
    2510:	0240      	lsls	r0, r0, #9
    2512:	4680      	mov	r8, r0
    2514:	44c2      	add	sl, r8
    2516:	4650      	mov	r0, sl
    2518:	9003      	str	r0, [sp, #12]
    251a:	0c10      	lsrs	r0, r2, #16
    251c:	9004      	str	r0, [sp, #16]
    251e:	4648      	mov	r0, r9
    2520:	0424      	lsls	r4, r4, #16
    2522:	0c24      	lsrs	r4, r4, #16
    2524:	0412      	lsls	r2, r2, #16
    2526:	1912      	adds	r2, r2, r4
    2528:	9205      	str	r2, [sp, #20]
    252a:	0c2a      	lsrs	r2, r5, #16
    252c:	042d      	lsls	r5, r5, #16
    252e:	0c2d      	lsrs	r5, r5, #16
    2530:	4368      	muls	r0, r5
    2532:	002c      	movs	r4, r5
    2534:	4682      	mov	sl, r0
    2536:	4648      	mov	r0, r9
    2538:	437c      	muls	r4, r7
    253a:	4350      	muls	r0, r2
    253c:	4681      	mov	r9, r0
    253e:	0c20      	lsrs	r0, r4, #16
    2540:	4680      	mov	r8, r0
    2542:	4357      	muls	r7, r2
    2544:	4457      	add	r7, sl
    2546:	4447      	add	r7, r8
    2548:	45ba      	cmp	sl, r7
    254a:	d903      	bls.n	2554 <__aeabi_dmul+0x274>
    254c:	2080      	movs	r0, #128	; 0x80
    254e:	0240      	lsls	r0, r0, #9
    2550:	4680      	mov	r8, r0
    2552:	44c1      	add	r9, r8
    2554:	0c38      	lsrs	r0, r7, #16
    2556:	043f      	lsls	r7, r7, #16
    2558:	46b8      	mov	r8, r7
    255a:	4448      	add	r0, r9
    255c:	0424      	lsls	r4, r4, #16
    255e:	0c24      	lsrs	r4, r4, #16
    2560:	9001      	str	r0, [sp, #4]
    2562:	9804      	ldr	r0, [sp, #16]
    2564:	44a0      	add	r8, r4
    2566:	4440      	add	r0, r8
    2568:	9004      	str	r0, [sp, #16]
    256a:	4658      	mov	r0, fp
    256c:	0c00      	lsrs	r0, r0, #16
    256e:	4681      	mov	r9, r0
    2570:	4658      	mov	r0, fp
    2572:	0404      	lsls	r4, r0, #16
    2574:	0c20      	lsrs	r0, r4, #16
    2576:	4682      	mov	sl, r0
    2578:	0007      	movs	r7, r0
    257a:	4648      	mov	r0, r9
    257c:	435f      	muls	r7, r3
    257e:	464c      	mov	r4, r9
    2580:	4343      	muls	r3, r0
    2582:	4660      	mov	r0, ip
    2584:	4360      	muls	r0, r4
    2586:	4664      	mov	r4, ip
    2588:	4683      	mov	fp, r0
    258a:	4650      	mov	r0, sl
    258c:	4344      	muls	r4, r0
    258e:	0c38      	lsrs	r0, r7, #16
    2590:	4684      	mov	ip, r0
    2592:	18e4      	adds	r4, r4, r3
    2594:	4464      	add	r4, ip
    2596:	42a3      	cmp	r3, r4
    2598:	d903      	bls.n	25a2 <__aeabi_dmul+0x2c2>
    259a:	2380      	movs	r3, #128	; 0x80
    259c:	025b      	lsls	r3, r3, #9
    259e:	469c      	mov	ip, r3
    25a0:	44e3      	add	fp, ip
    25a2:	4648      	mov	r0, r9
    25a4:	043f      	lsls	r7, r7, #16
    25a6:	0c23      	lsrs	r3, r4, #16
    25a8:	0c3f      	lsrs	r7, r7, #16
    25aa:	0424      	lsls	r4, r4, #16
    25ac:	19e4      	adds	r4, r4, r7
    25ae:	4657      	mov	r7, sl
    25b0:	4368      	muls	r0, r5
    25b2:	436f      	muls	r7, r5
    25b4:	4684      	mov	ip, r0
    25b6:	464d      	mov	r5, r9
    25b8:	4650      	mov	r0, sl
    25ba:	4355      	muls	r5, r2
    25bc:	4342      	muls	r2, r0
    25be:	0c38      	lsrs	r0, r7, #16
    25c0:	4681      	mov	r9, r0
    25c2:	4462      	add	r2, ip
    25c4:	444a      	add	r2, r9
    25c6:	445b      	add	r3, fp
    25c8:	4594      	cmp	ip, r2
    25ca:	d903      	bls.n	25d4 <__aeabi_dmul+0x2f4>
    25cc:	2080      	movs	r0, #128	; 0x80
    25ce:	0240      	lsls	r0, r0, #9
    25d0:	4684      	mov	ip, r0
    25d2:	4465      	add	r5, ip
    25d4:	9803      	ldr	r0, [sp, #12]
    25d6:	043f      	lsls	r7, r7, #16
    25d8:	4683      	mov	fp, r0
    25da:	9804      	ldr	r0, [sp, #16]
    25dc:	0c3f      	lsrs	r7, r7, #16
    25de:	4684      	mov	ip, r0
    25e0:	44e3      	add	fp, ip
    25e2:	45c3      	cmp	fp, r8
    25e4:	4180      	sbcs	r0, r0
    25e6:	4240      	negs	r0, r0
    25e8:	4682      	mov	sl, r0
    25ea:	0410      	lsls	r0, r2, #16
    25ec:	4684      	mov	ip, r0
    25ee:	9801      	ldr	r0, [sp, #4]
    25f0:	4467      	add	r7, ip
    25f2:	4684      	mov	ip, r0
    25f4:	4467      	add	r7, ip
    25f6:	44a3      	add	fp, r4
    25f8:	46bc      	mov	ip, r7
    25fa:	45a3      	cmp	fp, r4
    25fc:	41a4      	sbcs	r4, r4
    25fe:	4699      	mov	r9, r3
    2600:	44d4      	add	ip, sl
    2602:	4264      	negs	r4, r4
    2604:	4287      	cmp	r7, r0
    2606:	41bf      	sbcs	r7, r7
    2608:	45d4      	cmp	ip, sl
    260a:	4180      	sbcs	r0, r0
    260c:	44e1      	add	r9, ip
    260e:	46a0      	mov	r8, r4
    2610:	4599      	cmp	r9, r3
    2612:	419b      	sbcs	r3, r3
    2614:	427f      	negs	r7, r7
    2616:	4240      	negs	r0, r0
    2618:	44c8      	add	r8, r9
    261a:	4307      	orrs	r7, r0
    261c:	0c12      	lsrs	r2, r2, #16
    261e:	18ba      	adds	r2, r7, r2
    2620:	45a0      	cmp	r8, r4
    2622:	41a4      	sbcs	r4, r4
    2624:	425f      	negs	r7, r3
    2626:	003b      	movs	r3, r7
    2628:	4264      	negs	r4, r4
    262a:	4323      	orrs	r3, r4
    262c:	18d7      	adds	r7, r2, r3
    262e:	4643      	mov	r3, r8
    2630:	197d      	adds	r5, r7, r5
    2632:	0ddb      	lsrs	r3, r3, #23
    2634:	026d      	lsls	r5, r5, #9
    2636:	431d      	orrs	r5, r3
    2638:	465b      	mov	r3, fp
    263a:	025a      	lsls	r2, r3, #9
    263c:	9b05      	ldr	r3, [sp, #20]
    263e:	431a      	orrs	r2, r3
    2640:	1e53      	subs	r3, r2, #1
    2642:	419a      	sbcs	r2, r3
    2644:	465b      	mov	r3, fp
    2646:	0ddb      	lsrs	r3, r3, #23
    2648:	431a      	orrs	r2, r3
    264a:	4643      	mov	r3, r8
    264c:	025b      	lsls	r3, r3, #9
    264e:	4313      	orrs	r3, r2
    2650:	01ea      	lsls	r2, r5, #7
    2652:	d507      	bpl.n	2664 <__aeabi_dmul+0x384>
    2654:	2201      	movs	r2, #1
    2656:	085c      	lsrs	r4, r3, #1
    2658:	4013      	ands	r3, r2
    265a:	4323      	orrs	r3, r4
    265c:	07ea      	lsls	r2, r5, #31
    265e:	9e02      	ldr	r6, [sp, #8]
    2660:	4313      	orrs	r3, r2
    2662:	086d      	lsrs	r5, r5, #1
    2664:	4a57      	ldr	r2, [pc, #348]	; (27c4 <__aeabi_dmul+0x4e4>)
    2666:	18b2      	adds	r2, r6, r2
    2668:	2a00      	cmp	r2, #0
    266a:	dd4b      	ble.n	2704 <__aeabi_dmul+0x424>
    266c:	0758      	lsls	r0, r3, #29
    266e:	d009      	beq.n	2684 <__aeabi_dmul+0x3a4>
    2670:	200f      	movs	r0, #15
    2672:	4018      	ands	r0, r3
    2674:	2804      	cmp	r0, #4
    2676:	d005      	beq.n	2684 <__aeabi_dmul+0x3a4>
    2678:	1d18      	adds	r0, r3, #4
    267a:	4298      	cmp	r0, r3
    267c:	419b      	sbcs	r3, r3
    267e:	425b      	negs	r3, r3
    2680:	18ed      	adds	r5, r5, r3
    2682:	0003      	movs	r3, r0
    2684:	01e8      	lsls	r0, r5, #7
    2686:	d504      	bpl.n	2692 <__aeabi_dmul+0x3b2>
    2688:	4a4f      	ldr	r2, [pc, #316]	; (27c8 <__aeabi_dmul+0x4e8>)
    268a:	4015      	ands	r5, r2
    268c:	2280      	movs	r2, #128	; 0x80
    268e:	00d2      	lsls	r2, r2, #3
    2690:	18b2      	adds	r2, r6, r2
    2692:	484e      	ldr	r0, [pc, #312]	; (27cc <__aeabi_dmul+0x4ec>)
    2694:	4282      	cmp	r2, r0
    2696:	dd00      	ble.n	269a <__aeabi_dmul+0x3ba>
    2698:	e6e7      	b.n	246a <__aeabi_dmul+0x18a>
    269a:	2401      	movs	r4, #1
    269c:	08db      	lsrs	r3, r3, #3
    269e:	0768      	lsls	r0, r5, #29
    26a0:	4318      	orrs	r0, r3
    26a2:	026d      	lsls	r5, r5, #9
    26a4:	0553      	lsls	r3, r2, #21
    26a6:	4680      	mov	r8, r0
    26a8:	0b2d      	lsrs	r5, r5, #12
    26aa:	0d5b      	lsrs	r3, r3, #21
    26ac:	400c      	ands	r4, r1
    26ae:	e67d      	b.n	23ac <__aeabi_dmul+0xcc>
    26b0:	2280      	movs	r2, #128	; 0x80
    26b2:	4659      	mov	r1, fp
    26b4:	0312      	lsls	r2, r2, #12
    26b6:	4211      	tst	r1, r2
    26b8:	d008      	beq.n	26cc <__aeabi_dmul+0x3ec>
    26ba:	4215      	tst	r5, r2
    26bc:	d106      	bne.n	26cc <__aeabi_dmul+0x3ec>
    26be:	4315      	orrs	r5, r2
    26c0:	032d      	lsls	r5, r5, #12
    26c2:	4698      	mov	r8, r3
    26c4:	0b2d      	lsrs	r5, r5, #12
    26c6:	464c      	mov	r4, r9
    26c8:	4b41      	ldr	r3, [pc, #260]	; (27d0 <__aeabi_dmul+0x4f0>)
    26ca:	e66f      	b.n	23ac <__aeabi_dmul+0xcc>
    26cc:	465d      	mov	r5, fp
    26ce:	4315      	orrs	r5, r2
    26d0:	032d      	lsls	r5, r5, #12
    26d2:	0b2d      	lsrs	r5, r5, #12
    26d4:	4b3e      	ldr	r3, [pc, #248]	; (27d0 <__aeabi_dmul+0x4f0>)
    26d6:	e669      	b.n	23ac <__aeabi_dmul+0xcc>
    26d8:	0003      	movs	r3, r0
    26da:	4655      	mov	r5, sl
    26dc:	3b28      	subs	r3, #40	; 0x28
    26de:	409d      	lsls	r5, r3
    26e0:	2300      	movs	r3, #0
    26e2:	e6bc      	b.n	245e <__aeabi_dmul+0x17e>
    26e4:	4650      	mov	r0, sl
    26e6:	f000 fd59 	bl	319c <__clzsi2>
    26ea:	3020      	adds	r0, #32
    26ec:	e6a8      	b.n	2440 <__aeabi_dmul+0x160>
    26ee:	0003      	movs	r3, r0
    26f0:	3b28      	subs	r3, #40	; 0x28
    26f2:	409f      	lsls	r7, r3
    26f4:	2300      	movs	r3, #0
    26f6:	46bb      	mov	fp, r7
    26f8:	4698      	mov	r8, r3
    26fa:	e689      	b.n	2410 <__aeabi_dmul+0x130>
    26fc:	f000 fd4e 	bl	319c <__clzsi2>
    2700:	3020      	adds	r0, #32
    2702:	e673      	b.n	23ec <__aeabi_dmul+0x10c>
    2704:	2401      	movs	r4, #1
    2706:	1aa6      	subs	r6, r4, r2
    2708:	2e38      	cmp	r6, #56	; 0x38
    270a:	dd07      	ble.n	271c <__aeabi_dmul+0x43c>
    270c:	2200      	movs	r2, #0
    270e:	400c      	ands	r4, r1
    2710:	2300      	movs	r3, #0
    2712:	2500      	movs	r5, #0
    2714:	4690      	mov	r8, r2
    2716:	e649      	b.n	23ac <__aeabi_dmul+0xcc>
    2718:	9e02      	ldr	r6, [sp, #8]
    271a:	e7a3      	b.n	2664 <__aeabi_dmul+0x384>
    271c:	2e1f      	cmp	r6, #31
    271e:	dc20      	bgt.n	2762 <__aeabi_dmul+0x482>
    2720:	2220      	movs	r2, #32
    2722:	002c      	movs	r4, r5
    2724:	0018      	movs	r0, r3
    2726:	1b92      	subs	r2, r2, r6
    2728:	40f0      	lsrs	r0, r6
    272a:	4094      	lsls	r4, r2
    272c:	4093      	lsls	r3, r2
    272e:	4304      	orrs	r4, r0
    2730:	1e58      	subs	r0, r3, #1
    2732:	4183      	sbcs	r3, r0
    2734:	431c      	orrs	r4, r3
    2736:	40f5      	lsrs	r5, r6
    2738:	0763      	lsls	r3, r4, #29
    273a:	d009      	beq.n	2750 <__aeabi_dmul+0x470>
    273c:	230f      	movs	r3, #15
    273e:	4023      	ands	r3, r4
    2740:	2b04      	cmp	r3, #4
    2742:	d005      	beq.n	2750 <__aeabi_dmul+0x470>
    2744:	0023      	movs	r3, r4
    2746:	1d1c      	adds	r4, r3, #4
    2748:	429c      	cmp	r4, r3
    274a:	4192      	sbcs	r2, r2
    274c:	4252      	negs	r2, r2
    274e:	18ad      	adds	r5, r5, r2
    2750:	022b      	lsls	r3, r5, #8
    2752:	d51f      	bpl.n	2794 <__aeabi_dmul+0x4b4>
    2754:	2401      	movs	r4, #1
    2756:	2200      	movs	r2, #0
    2758:	400c      	ands	r4, r1
    275a:	2301      	movs	r3, #1
    275c:	2500      	movs	r5, #0
    275e:	4690      	mov	r8, r2
    2760:	e624      	b.n	23ac <__aeabi_dmul+0xcc>
    2762:	201f      	movs	r0, #31
    2764:	002c      	movs	r4, r5
    2766:	4240      	negs	r0, r0
    2768:	1a82      	subs	r2, r0, r2
    276a:	40d4      	lsrs	r4, r2
    276c:	2e20      	cmp	r6, #32
    276e:	d01c      	beq.n	27aa <__aeabi_dmul+0x4ca>
    2770:	2240      	movs	r2, #64	; 0x40
    2772:	1b96      	subs	r6, r2, r6
    2774:	40b5      	lsls	r5, r6
    2776:	432b      	orrs	r3, r5
    2778:	1e58      	subs	r0, r3, #1
    277a:	4183      	sbcs	r3, r0
    277c:	2007      	movs	r0, #7
    277e:	4323      	orrs	r3, r4
    2780:	4018      	ands	r0, r3
    2782:	2500      	movs	r5, #0
    2784:	2800      	cmp	r0, #0
    2786:	d009      	beq.n	279c <__aeabi_dmul+0x4bc>
    2788:	220f      	movs	r2, #15
    278a:	2500      	movs	r5, #0
    278c:	401a      	ands	r2, r3
    278e:	001c      	movs	r4, r3
    2790:	2a04      	cmp	r2, #4
    2792:	d1d8      	bne.n	2746 <__aeabi_dmul+0x466>
    2794:	0023      	movs	r3, r4
    2796:	0768      	lsls	r0, r5, #29
    2798:	026d      	lsls	r5, r5, #9
    279a:	0b2d      	lsrs	r5, r5, #12
    279c:	2401      	movs	r4, #1
    279e:	08db      	lsrs	r3, r3, #3
    27a0:	4303      	orrs	r3, r0
    27a2:	4698      	mov	r8, r3
    27a4:	400c      	ands	r4, r1
    27a6:	2300      	movs	r3, #0
    27a8:	e600      	b.n	23ac <__aeabi_dmul+0xcc>
    27aa:	2500      	movs	r5, #0
    27ac:	e7e3      	b.n	2776 <__aeabi_dmul+0x496>
    27ae:	2280      	movs	r2, #128	; 0x80
    27b0:	2401      	movs	r4, #1
    27b2:	0312      	lsls	r2, r2, #12
    27b4:	4315      	orrs	r5, r2
    27b6:	032d      	lsls	r5, r5, #12
    27b8:	4698      	mov	r8, r3
    27ba:	0b2d      	lsrs	r5, r5, #12
    27bc:	400c      	ands	r4, r1
    27be:	4b04      	ldr	r3, [pc, #16]	; (27d0 <__aeabi_dmul+0x4f0>)
    27c0:	e5f4      	b.n	23ac <__aeabi_dmul+0xcc>
    27c2:	46c0      	nop			; (mov r8, r8)
    27c4:	000003ff 	.word	0x000003ff
    27c8:	feffffff 	.word	0xfeffffff
    27cc:	000007fe 	.word	0x000007fe
    27d0:	000007ff 	.word	0x000007ff

000027d4 <__aeabi_dsub>:
    27d4:	b5f0      	push	{r4, r5, r6, r7, lr}
    27d6:	4657      	mov	r7, sl
    27d8:	464e      	mov	r6, r9
    27da:	4645      	mov	r5, r8
    27dc:	b4e0      	push	{r5, r6, r7}
    27de:	000e      	movs	r6, r1
    27e0:	0011      	movs	r1, r2
    27e2:	0ff2      	lsrs	r2, r6, #31
    27e4:	4692      	mov	sl, r2
    27e6:	00c5      	lsls	r5, r0, #3
    27e8:	0f42      	lsrs	r2, r0, #29
    27ea:	0318      	lsls	r0, r3, #12
    27ec:	0337      	lsls	r7, r6, #12
    27ee:	0074      	lsls	r4, r6, #1
    27f0:	0a40      	lsrs	r0, r0, #9
    27f2:	0f4e      	lsrs	r6, r1, #29
    27f4:	0a7f      	lsrs	r7, r7, #9
    27f6:	4330      	orrs	r0, r6
    27f8:	4ecf      	ldr	r6, [pc, #828]	; (2b38 <__aeabi_dsub+0x364>)
    27fa:	4317      	orrs	r7, r2
    27fc:	005a      	lsls	r2, r3, #1
    27fe:	0d64      	lsrs	r4, r4, #21
    2800:	0d52      	lsrs	r2, r2, #21
    2802:	0fdb      	lsrs	r3, r3, #31
    2804:	00c9      	lsls	r1, r1, #3
    2806:	42b2      	cmp	r2, r6
    2808:	d100      	bne.n	280c <__aeabi_dsub+0x38>
    280a:	e0e5      	b.n	29d8 <__aeabi_dsub+0x204>
    280c:	2601      	movs	r6, #1
    280e:	4073      	eors	r3, r6
    2810:	1aa6      	subs	r6, r4, r2
    2812:	46b4      	mov	ip, r6
    2814:	4553      	cmp	r3, sl
    2816:	d100      	bne.n	281a <__aeabi_dsub+0x46>
    2818:	e0af      	b.n	297a <__aeabi_dsub+0x1a6>
    281a:	2e00      	cmp	r6, #0
    281c:	dc00      	bgt.n	2820 <__aeabi_dsub+0x4c>
    281e:	e10d      	b.n	2a3c <__aeabi_dsub+0x268>
    2820:	2a00      	cmp	r2, #0
    2822:	d13a      	bne.n	289a <__aeabi_dsub+0xc6>
    2824:	0003      	movs	r3, r0
    2826:	430b      	orrs	r3, r1
    2828:	d000      	beq.n	282c <__aeabi_dsub+0x58>
    282a:	e0e4      	b.n	29f6 <__aeabi_dsub+0x222>
    282c:	076b      	lsls	r3, r5, #29
    282e:	d009      	beq.n	2844 <__aeabi_dsub+0x70>
    2830:	230f      	movs	r3, #15
    2832:	402b      	ands	r3, r5
    2834:	2b04      	cmp	r3, #4
    2836:	d005      	beq.n	2844 <__aeabi_dsub+0x70>
    2838:	1d2b      	adds	r3, r5, #4
    283a:	42ab      	cmp	r3, r5
    283c:	41ad      	sbcs	r5, r5
    283e:	426d      	negs	r5, r5
    2840:	197f      	adds	r7, r7, r5
    2842:	001d      	movs	r5, r3
    2844:	023b      	lsls	r3, r7, #8
    2846:	d400      	bmi.n	284a <__aeabi_dsub+0x76>
    2848:	e088      	b.n	295c <__aeabi_dsub+0x188>
    284a:	4bbb      	ldr	r3, [pc, #748]	; (2b38 <__aeabi_dsub+0x364>)
    284c:	3401      	adds	r4, #1
    284e:	429c      	cmp	r4, r3
    2850:	d100      	bne.n	2854 <__aeabi_dsub+0x80>
    2852:	e110      	b.n	2a76 <__aeabi_dsub+0x2a2>
    2854:	003a      	movs	r2, r7
    2856:	4bb9      	ldr	r3, [pc, #740]	; (2b3c <__aeabi_dsub+0x368>)
    2858:	4651      	mov	r1, sl
    285a:	401a      	ands	r2, r3
    285c:	2301      	movs	r3, #1
    285e:	0750      	lsls	r0, r2, #29
    2860:	08ed      	lsrs	r5, r5, #3
    2862:	0252      	lsls	r2, r2, #9
    2864:	0564      	lsls	r4, r4, #21
    2866:	4305      	orrs	r5, r0
    2868:	0b12      	lsrs	r2, r2, #12
    286a:	0d64      	lsrs	r4, r4, #21
    286c:	400b      	ands	r3, r1
    286e:	2100      	movs	r1, #0
    2870:	0028      	movs	r0, r5
    2872:	0312      	lsls	r2, r2, #12
    2874:	0d0d      	lsrs	r5, r1, #20
    2876:	0b12      	lsrs	r2, r2, #12
    2878:	0564      	lsls	r4, r4, #21
    287a:	052d      	lsls	r5, r5, #20
    287c:	4315      	orrs	r5, r2
    287e:	0862      	lsrs	r2, r4, #1
    2880:	4caf      	ldr	r4, [pc, #700]	; (2b40 <__aeabi_dsub+0x36c>)
    2882:	07db      	lsls	r3, r3, #31
    2884:	402c      	ands	r4, r5
    2886:	4314      	orrs	r4, r2
    2888:	0064      	lsls	r4, r4, #1
    288a:	0864      	lsrs	r4, r4, #1
    288c:	431c      	orrs	r4, r3
    288e:	0021      	movs	r1, r4
    2890:	bc1c      	pop	{r2, r3, r4}
    2892:	4690      	mov	r8, r2
    2894:	4699      	mov	r9, r3
    2896:	46a2      	mov	sl, r4
    2898:	bdf0      	pop	{r4, r5, r6, r7, pc}
    289a:	4ba7      	ldr	r3, [pc, #668]	; (2b38 <__aeabi_dsub+0x364>)
    289c:	429c      	cmp	r4, r3
    289e:	d0c5      	beq.n	282c <__aeabi_dsub+0x58>
    28a0:	2380      	movs	r3, #128	; 0x80
    28a2:	041b      	lsls	r3, r3, #16
    28a4:	4318      	orrs	r0, r3
    28a6:	4663      	mov	r3, ip
    28a8:	2b38      	cmp	r3, #56	; 0x38
    28aa:	dd00      	ble.n	28ae <__aeabi_dsub+0xda>
    28ac:	e0fd      	b.n	2aaa <__aeabi_dsub+0x2d6>
    28ae:	2b1f      	cmp	r3, #31
    28b0:	dd00      	ble.n	28b4 <__aeabi_dsub+0xe0>
    28b2:	e130      	b.n	2b16 <__aeabi_dsub+0x342>
    28b4:	4662      	mov	r2, ip
    28b6:	2320      	movs	r3, #32
    28b8:	1a9b      	subs	r3, r3, r2
    28ba:	0002      	movs	r2, r0
    28bc:	409a      	lsls	r2, r3
    28be:	4666      	mov	r6, ip
    28c0:	4690      	mov	r8, r2
    28c2:	000a      	movs	r2, r1
    28c4:	4099      	lsls	r1, r3
    28c6:	40f2      	lsrs	r2, r6
    28c8:	4646      	mov	r6, r8
    28ca:	1e4b      	subs	r3, r1, #1
    28cc:	4199      	sbcs	r1, r3
    28ce:	4332      	orrs	r2, r6
    28d0:	4311      	orrs	r1, r2
    28d2:	4663      	mov	r3, ip
    28d4:	0002      	movs	r2, r0
    28d6:	40da      	lsrs	r2, r3
    28d8:	1a69      	subs	r1, r5, r1
    28da:	428d      	cmp	r5, r1
    28dc:	419b      	sbcs	r3, r3
    28de:	000d      	movs	r5, r1
    28e0:	1aba      	subs	r2, r7, r2
    28e2:	425b      	negs	r3, r3
    28e4:	1ad7      	subs	r7, r2, r3
    28e6:	023b      	lsls	r3, r7, #8
    28e8:	d535      	bpl.n	2956 <__aeabi_dsub+0x182>
    28ea:	027a      	lsls	r2, r7, #9
    28ec:	0a53      	lsrs	r3, r2, #9
    28ee:	4698      	mov	r8, r3
    28f0:	4643      	mov	r3, r8
    28f2:	2b00      	cmp	r3, #0
    28f4:	d100      	bne.n	28f8 <__aeabi_dsub+0x124>
    28f6:	e0c4      	b.n	2a82 <__aeabi_dsub+0x2ae>
    28f8:	4640      	mov	r0, r8
    28fa:	f000 fc4f 	bl	319c <__clzsi2>
    28fe:	0003      	movs	r3, r0
    2900:	3b08      	subs	r3, #8
    2902:	2b1f      	cmp	r3, #31
    2904:	dd00      	ble.n	2908 <__aeabi_dsub+0x134>
    2906:	e0c5      	b.n	2a94 <__aeabi_dsub+0x2c0>
    2908:	2220      	movs	r2, #32
    290a:	0029      	movs	r1, r5
    290c:	1ad2      	subs	r2, r2, r3
    290e:	4647      	mov	r7, r8
    2910:	40d1      	lsrs	r1, r2
    2912:	409f      	lsls	r7, r3
    2914:	000a      	movs	r2, r1
    2916:	409d      	lsls	r5, r3
    2918:	433a      	orrs	r2, r7
    291a:	429c      	cmp	r4, r3
    291c:	dd00      	ble.n	2920 <__aeabi_dsub+0x14c>
    291e:	e0c0      	b.n	2aa2 <__aeabi_dsub+0x2ce>
    2920:	1b1c      	subs	r4, r3, r4
    2922:	1c63      	adds	r3, r4, #1
    2924:	2b1f      	cmp	r3, #31
    2926:	dd00      	ble.n	292a <__aeabi_dsub+0x156>
    2928:	e0e4      	b.n	2af4 <__aeabi_dsub+0x320>
    292a:	2120      	movs	r1, #32
    292c:	0014      	movs	r4, r2
    292e:	0028      	movs	r0, r5
    2930:	1ac9      	subs	r1, r1, r3
    2932:	40d8      	lsrs	r0, r3
    2934:	408c      	lsls	r4, r1
    2936:	408d      	lsls	r5, r1
    2938:	4304      	orrs	r4, r0
    293a:	40da      	lsrs	r2, r3
    293c:	1e68      	subs	r0, r5, #1
    293e:	4185      	sbcs	r5, r0
    2940:	0017      	movs	r7, r2
    2942:	4325      	orrs	r5, r4
    2944:	2400      	movs	r4, #0
    2946:	e771      	b.n	282c <__aeabi_dsub+0x58>
    2948:	4642      	mov	r2, r8
    294a:	4663      	mov	r3, ip
    294c:	431a      	orrs	r2, r3
    294e:	d100      	bne.n	2952 <__aeabi_dsub+0x17e>
    2950:	e24c      	b.n	2dec <__aeabi_dsub+0x618>
    2952:	4667      	mov	r7, ip
    2954:	4645      	mov	r5, r8
    2956:	076b      	lsls	r3, r5, #29
    2958:	d000      	beq.n	295c <__aeabi_dsub+0x188>
    295a:	e769      	b.n	2830 <__aeabi_dsub+0x5c>
    295c:	2301      	movs	r3, #1
    295e:	4651      	mov	r1, sl
    2960:	0778      	lsls	r0, r7, #29
    2962:	08ed      	lsrs	r5, r5, #3
    2964:	08fa      	lsrs	r2, r7, #3
    2966:	400b      	ands	r3, r1
    2968:	4305      	orrs	r5, r0
    296a:	4973      	ldr	r1, [pc, #460]	; (2b38 <__aeabi_dsub+0x364>)
    296c:	428c      	cmp	r4, r1
    296e:	d038      	beq.n	29e2 <__aeabi_dsub+0x20e>
    2970:	0312      	lsls	r2, r2, #12
    2972:	0564      	lsls	r4, r4, #21
    2974:	0b12      	lsrs	r2, r2, #12
    2976:	0d64      	lsrs	r4, r4, #21
    2978:	e779      	b.n	286e <__aeabi_dsub+0x9a>
    297a:	2e00      	cmp	r6, #0
    297c:	dc00      	bgt.n	2980 <__aeabi_dsub+0x1ac>
    297e:	e09a      	b.n	2ab6 <__aeabi_dsub+0x2e2>
    2980:	2a00      	cmp	r2, #0
    2982:	d047      	beq.n	2a14 <__aeabi_dsub+0x240>
    2984:	4a6c      	ldr	r2, [pc, #432]	; (2b38 <__aeabi_dsub+0x364>)
    2986:	4294      	cmp	r4, r2
    2988:	d100      	bne.n	298c <__aeabi_dsub+0x1b8>
    298a:	e74f      	b.n	282c <__aeabi_dsub+0x58>
    298c:	2280      	movs	r2, #128	; 0x80
    298e:	0412      	lsls	r2, r2, #16
    2990:	4310      	orrs	r0, r2
    2992:	4662      	mov	r2, ip
    2994:	2a38      	cmp	r2, #56	; 0x38
    2996:	dc00      	bgt.n	299a <__aeabi_dsub+0x1c6>
    2998:	e108      	b.n	2bac <__aeabi_dsub+0x3d8>
    299a:	4301      	orrs	r1, r0
    299c:	1e48      	subs	r0, r1, #1
    299e:	4181      	sbcs	r1, r0
    29a0:	2200      	movs	r2, #0
    29a2:	b2c9      	uxtb	r1, r1
    29a4:	1949      	adds	r1, r1, r5
    29a6:	19d2      	adds	r2, r2, r7
    29a8:	42a9      	cmp	r1, r5
    29aa:	41bf      	sbcs	r7, r7
    29ac:	000d      	movs	r5, r1
    29ae:	427f      	negs	r7, r7
    29b0:	18bf      	adds	r7, r7, r2
    29b2:	023a      	lsls	r2, r7, #8
    29b4:	d400      	bmi.n	29b8 <__aeabi_dsub+0x1e4>
    29b6:	e142      	b.n	2c3e <__aeabi_dsub+0x46a>
    29b8:	4a5f      	ldr	r2, [pc, #380]	; (2b38 <__aeabi_dsub+0x364>)
    29ba:	3401      	adds	r4, #1
    29bc:	4294      	cmp	r4, r2
    29be:	d100      	bne.n	29c2 <__aeabi_dsub+0x1ee>
    29c0:	e14e      	b.n	2c60 <__aeabi_dsub+0x48c>
    29c2:	2001      	movs	r0, #1
    29c4:	4a5d      	ldr	r2, [pc, #372]	; (2b3c <__aeabi_dsub+0x368>)
    29c6:	0869      	lsrs	r1, r5, #1
    29c8:	403a      	ands	r2, r7
    29ca:	4028      	ands	r0, r5
    29cc:	4308      	orrs	r0, r1
    29ce:	07d5      	lsls	r5, r2, #31
    29d0:	4305      	orrs	r5, r0
    29d2:	0857      	lsrs	r7, r2, #1
    29d4:	469a      	mov	sl, r3
    29d6:	e729      	b.n	282c <__aeabi_dsub+0x58>
    29d8:	0006      	movs	r6, r0
    29da:	430e      	orrs	r6, r1
    29dc:	d000      	beq.n	29e0 <__aeabi_dsub+0x20c>
    29de:	e717      	b.n	2810 <__aeabi_dsub+0x3c>
    29e0:	e714      	b.n	280c <__aeabi_dsub+0x38>
    29e2:	0029      	movs	r1, r5
    29e4:	4311      	orrs	r1, r2
    29e6:	d100      	bne.n	29ea <__aeabi_dsub+0x216>
    29e8:	e1f9      	b.n	2dde <__aeabi_dsub+0x60a>
    29ea:	2180      	movs	r1, #128	; 0x80
    29ec:	0309      	lsls	r1, r1, #12
    29ee:	430a      	orrs	r2, r1
    29f0:	0312      	lsls	r2, r2, #12
    29f2:	0b12      	lsrs	r2, r2, #12
    29f4:	e73b      	b.n	286e <__aeabi_dsub+0x9a>
    29f6:	2301      	movs	r3, #1
    29f8:	425b      	negs	r3, r3
    29fa:	4698      	mov	r8, r3
    29fc:	44c4      	add	ip, r8
    29fe:	4663      	mov	r3, ip
    2a00:	2b00      	cmp	r3, #0
    2a02:	d172      	bne.n	2aea <__aeabi_dsub+0x316>
    2a04:	1a69      	subs	r1, r5, r1
    2a06:	428d      	cmp	r5, r1
    2a08:	419b      	sbcs	r3, r3
    2a0a:	1a3f      	subs	r7, r7, r0
    2a0c:	425b      	negs	r3, r3
    2a0e:	1aff      	subs	r7, r7, r3
    2a10:	000d      	movs	r5, r1
    2a12:	e768      	b.n	28e6 <__aeabi_dsub+0x112>
    2a14:	0002      	movs	r2, r0
    2a16:	430a      	orrs	r2, r1
    2a18:	d100      	bne.n	2a1c <__aeabi_dsub+0x248>
    2a1a:	e707      	b.n	282c <__aeabi_dsub+0x58>
    2a1c:	2201      	movs	r2, #1
    2a1e:	4252      	negs	r2, r2
    2a20:	4690      	mov	r8, r2
    2a22:	44c4      	add	ip, r8
    2a24:	4662      	mov	r2, ip
    2a26:	2a00      	cmp	r2, #0
    2a28:	d000      	beq.n	2a2c <__aeabi_dsub+0x258>
    2a2a:	e0e6      	b.n	2bfa <__aeabi_dsub+0x426>
    2a2c:	1869      	adds	r1, r5, r1
    2a2e:	42a9      	cmp	r1, r5
    2a30:	41b6      	sbcs	r6, r6
    2a32:	183f      	adds	r7, r7, r0
    2a34:	4276      	negs	r6, r6
    2a36:	19f7      	adds	r7, r6, r7
    2a38:	000d      	movs	r5, r1
    2a3a:	e7ba      	b.n	29b2 <__aeabi_dsub+0x1de>
    2a3c:	2e00      	cmp	r6, #0
    2a3e:	d000      	beq.n	2a42 <__aeabi_dsub+0x26e>
    2a40:	e080      	b.n	2b44 <__aeabi_dsub+0x370>
    2a42:	1c62      	adds	r2, r4, #1
    2a44:	0552      	lsls	r2, r2, #21
    2a46:	0d52      	lsrs	r2, r2, #21
    2a48:	2a01      	cmp	r2, #1
    2a4a:	dc00      	bgt.n	2a4e <__aeabi_dsub+0x27a>
    2a4c:	e0f9      	b.n	2c42 <__aeabi_dsub+0x46e>
    2a4e:	1a6a      	subs	r2, r5, r1
    2a50:	4691      	mov	r9, r2
    2a52:	454d      	cmp	r5, r9
    2a54:	41b6      	sbcs	r6, r6
    2a56:	1a3a      	subs	r2, r7, r0
    2a58:	4276      	negs	r6, r6
    2a5a:	1b92      	subs	r2, r2, r6
    2a5c:	4690      	mov	r8, r2
    2a5e:	0212      	lsls	r2, r2, #8
    2a60:	d400      	bmi.n	2a64 <__aeabi_dsub+0x290>
    2a62:	e099      	b.n	2b98 <__aeabi_dsub+0x3c4>
    2a64:	1b4d      	subs	r5, r1, r5
    2a66:	42a9      	cmp	r1, r5
    2a68:	4189      	sbcs	r1, r1
    2a6a:	1bc7      	subs	r7, r0, r7
    2a6c:	4249      	negs	r1, r1
    2a6e:	1a7a      	subs	r2, r7, r1
    2a70:	4690      	mov	r8, r2
    2a72:	469a      	mov	sl, r3
    2a74:	e73c      	b.n	28f0 <__aeabi_dsub+0x11c>
    2a76:	4652      	mov	r2, sl
    2a78:	2301      	movs	r3, #1
    2a7a:	2500      	movs	r5, #0
    2a7c:	4013      	ands	r3, r2
    2a7e:	2200      	movs	r2, #0
    2a80:	e6f5      	b.n	286e <__aeabi_dsub+0x9a>
    2a82:	0028      	movs	r0, r5
    2a84:	f000 fb8a 	bl	319c <__clzsi2>
    2a88:	3020      	adds	r0, #32
    2a8a:	0003      	movs	r3, r0
    2a8c:	3b08      	subs	r3, #8
    2a8e:	2b1f      	cmp	r3, #31
    2a90:	dc00      	bgt.n	2a94 <__aeabi_dsub+0x2c0>
    2a92:	e739      	b.n	2908 <__aeabi_dsub+0x134>
    2a94:	002a      	movs	r2, r5
    2a96:	3828      	subs	r0, #40	; 0x28
    2a98:	4082      	lsls	r2, r0
    2a9a:	2500      	movs	r5, #0
    2a9c:	429c      	cmp	r4, r3
    2a9e:	dc00      	bgt.n	2aa2 <__aeabi_dsub+0x2ce>
    2aa0:	e73e      	b.n	2920 <__aeabi_dsub+0x14c>
    2aa2:	4f26      	ldr	r7, [pc, #152]	; (2b3c <__aeabi_dsub+0x368>)
    2aa4:	1ae4      	subs	r4, r4, r3
    2aa6:	4017      	ands	r7, r2
    2aa8:	e6c0      	b.n	282c <__aeabi_dsub+0x58>
    2aaa:	4301      	orrs	r1, r0
    2aac:	1e48      	subs	r0, r1, #1
    2aae:	4181      	sbcs	r1, r0
    2ab0:	2200      	movs	r2, #0
    2ab2:	b2c9      	uxtb	r1, r1
    2ab4:	e710      	b.n	28d8 <__aeabi_dsub+0x104>
    2ab6:	2e00      	cmp	r6, #0
    2ab8:	d000      	beq.n	2abc <__aeabi_dsub+0x2e8>
    2aba:	e0f1      	b.n	2ca0 <__aeabi_dsub+0x4cc>
    2abc:	1c62      	adds	r2, r4, #1
    2abe:	4694      	mov	ip, r2
    2ac0:	0552      	lsls	r2, r2, #21
    2ac2:	0d52      	lsrs	r2, r2, #21
    2ac4:	2a01      	cmp	r2, #1
    2ac6:	dc00      	bgt.n	2aca <__aeabi_dsub+0x2f6>
    2ac8:	e0a0      	b.n	2c0c <__aeabi_dsub+0x438>
    2aca:	4a1b      	ldr	r2, [pc, #108]	; (2b38 <__aeabi_dsub+0x364>)
    2acc:	4594      	cmp	ip, r2
    2ace:	d100      	bne.n	2ad2 <__aeabi_dsub+0x2fe>
    2ad0:	e0c5      	b.n	2c5e <__aeabi_dsub+0x48a>
    2ad2:	1869      	adds	r1, r5, r1
    2ad4:	42a9      	cmp	r1, r5
    2ad6:	4192      	sbcs	r2, r2
    2ad8:	183f      	adds	r7, r7, r0
    2ada:	4252      	negs	r2, r2
    2adc:	19d2      	adds	r2, r2, r7
    2ade:	0849      	lsrs	r1, r1, #1
    2ae0:	07d5      	lsls	r5, r2, #31
    2ae2:	430d      	orrs	r5, r1
    2ae4:	0857      	lsrs	r7, r2, #1
    2ae6:	4664      	mov	r4, ip
    2ae8:	e6a0      	b.n	282c <__aeabi_dsub+0x58>
    2aea:	4b13      	ldr	r3, [pc, #76]	; (2b38 <__aeabi_dsub+0x364>)
    2aec:	429c      	cmp	r4, r3
    2aee:	d000      	beq.n	2af2 <__aeabi_dsub+0x31e>
    2af0:	e6d9      	b.n	28a6 <__aeabi_dsub+0xd2>
    2af2:	e69b      	b.n	282c <__aeabi_dsub+0x58>
    2af4:	0011      	movs	r1, r2
    2af6:	3c1f      	subs	r4, #31
    2af8:	40e1      	lsrs	r1, r4
    2afa:	000c      	movs	r4, r1
    2afc:	2b20      	cmp	r3, #32
    2afe:	d100      	bne.n	2b02 <__aeabi_dsub+0x32e>
    2b00:	e080      	b.n	2c04 <__aeabi_dsub+0x430>
    2b02:	2140      	movs	r1, #64	; 0x40
    2b04:	1acb      	subs	r3, r1, r3
    2b06:	409a      	lsls	r2, r3
    2b08:	4315      	orrs	r5, r2
    2b0a:	1e6a      	subs	r2, r5, #1
    2b0c:	4195      	sbcs	r5, r2
    2b0e:	2700      	movs	r7, #0
    2b10:	4325      	orrs	r5, r4
    2b12:	2400      	movs	r4, #0
    2b14:	e71f      	b.n	2956 <__aeabi_dsub+0x182>
    2b16:	4663      	mov	r3, ip
    2b18:	0002      	movs	r2, r0
    2b1a:	3b20      	subs	r3, #32
    2b1c:	40da      	lsrs	r2, r3
    2b1e:	4663      	mov	r3, ip
    2b20:	2b20      	cmp	r3, #32
    2b22:	d071      	beq.n	2c08 <__aeabi_dsub+0x434>
    2b24:	2340      	movs	r3, #64	; 0x40
    2b26:	4666      	mov	r6, ip
    2b28:	1b9b      	subs	r3, r3, r6
    2b2a:	4098      	lsls	r0, r3
    2b2c:	4301      	orrs	r1, r0
    2b2e:	1e48      	subs	r0, r1, #1
    2b30:	4181      	sbcs	r1, r0
    2b32:	4311      	orrs	r1, r2
    2b34:	2200      	movs	r2, #0
    2b36:	e6cf      	b.n	28d8 <__aeabi_dsub+0x104>
    2b38:	000007ff 	.word	0x000007ff
    2b3c:	ff7fffff 	.word	0xff7fffff
    2b40:	800fffff 	.word	0x800fffff
    2b44:	2c00      	cmp	r4, #0
    2b46:	d048      	beq.n	2bda <__aeabi_dsub+0x406>
    2b48:	4cca      	ldr	r4, [pc, #808]	; (2e74 <__aeabi_dsub+0x6a0>)
    2b4a:	42a2      	cmp	r2, r4
    2b4c:	d100      	bne.n	2b50 <__aeabi_dsub+0x37c>
    2b4e:	e0a2      	b.n	2c96 <__aeabi_dsub+0x4c2>
    2b50:	4274      	negs	r4, r6
    2b52:	46a1      	mov	r9, r4
    2b54:	2480      	movs	r4, #128	; 0x80
    2b56:	0424      	lsls	r4, r4, #16
    2b58:	4327      	orrs	r7, r4
    2b5a:	464c      	mov	r4, r9
    2b5c:	2c38      	cmp	r4, #56	; 0x38
    2b5e:	dd00      	ble.n	2b62 <__aeabi_dsub+0x38e>
    2b60:	e0db      	b.n	2d1a <__aeabi_dsub+0x546>
    2b62:	2c1f      	cmp	r4, #31
    2b64:	dd00      	ble.n	2b68 <__aeabi_dsub+0x394>
    2b66:	e144      	b.n	2df2 <__aeabi_dsub+0x61e>
    2b68:	464e      	mov	r6, r9
    2b6a:	2420      	movs	r4, #32
    2b6c:	1ba4      	subs	r4, r4, r6
    2b6e:	003e      	movs	r6, r7
    2b70:	40a6      	lsls	r6, r4
    2b72:	46a2      	mov	sl, r4
    2b74:	46b0      	mov	r8, r6
    2b76:	464c      	mov	r4, r9
    2b78:	002e      	movs	r6, r5
    2b7a:	40e6      	lsrs	r6, r4
    2b7c:	46b4      	mov	ip, r6
    2b7e:	4646      	mov	r6, r8
    2b80:	4664      	mov	r4, ip
    2b82:	4326      	orrs	r6, r4
    2b84:	4654      	mov	r4, sl
    2b86:	40a5      	lsls	r5, r4
    2b88:	1e6c      	subs	r4, r5, #1
    2b8a:	41a5      	sbcs	r5, r4
    2b8c:	0034      	movs	r4, r6
    2b8e:	432c      	orrs	r4, r5
    2b90:	464d      	mov	r5, r9
    2b92:	40ef      	lsrs	r7, r5
    2b94:	1b0d      	subs	r5, r1, r4
    2b96:	e028      	b.n	2bea <__aeabi_dsub+0x416>
    2b98:	464a      	mov	r2, r9
    2b9a:	4643      	mov	r3, r8
    2b9c:	464d      	mov	r5, r9
    2b9e:	431a      	orrs	r2, r3
    2ba0:	d000      	beq.n	2ba4 <__aeabi_dsub+0x3d0>
    2ba2:	e6a5      	b.n	28f0 <__aeabi_dsub+0x11c>
    2ba4:	2300      	movs	r3, #0
    2ba6:	2400      	movs	r4, #0
    2ba8:	2500      	movs	r5, #0
    2baa:	e6de      	b.n	296a <__aeabi_dsub+0x196>
    2bac:	2a1f      	cmp	r2, #31
    2bae:	dc5a      	bgt.n	2c66 <__aeabi_dsub+0x492>
    2bb0:	4666      	mov	r6, ip
    2bb2:	2220      	movs	r2, #32
    2bb4:	1b92      	subs	r2, r2, r6
    2bb6:	0006      	movs	r6, r0
    2bb8:	4096      	lsls	r6, r2
    2bba:	4691      	mov	r9, r2
    2bbc:	46b0      	mov	r8, r6
    2bbe:	4662      	mov	r2, ip
    2bc0:	000e      	movs	r6, r1
    2bc2:	40d6      	lsrs	r6, r2
    2bc4:	4642      	mov	r2, r8
    2bc6:	4316      	orrs	r6, r2
    2bc8:	464a      	mov	r2, r9
    2bca:	4091      	lsls	r1, r2
    2bcc:	1e4a      	subs	r2, r1, #1
    2bce:	4191      	sbcs	r1, r2
    2bd0:	0002      	movs	r2, r0
    2bd2:	4660      	mov	r0, ip
    2bd4:	4331      	orrs	r1, r6
    2bd6:	40c2      	lsrs	r2, r0
    2bd8:	e6e4      	b.n	29a4 <__aeabi_dsub+0x1d0>
    2bda:	003c      	movs	r4, r7
    2bdc:	432c      	orrs	r4, r5
    2bde:	d05a      	beq.n	2c96 <__aeabi_dsub+0x4c2>
    2be0:	43f4      	mvns	r4, r6
    2be2:	46a1      	mov	r9, r4
    2be4:	2c00      	cmp	r4, #0
    2be6:	d152      	bne.n	2c8e <__aeabi_dsub+0x4ba>
    2be8:	1b4d      	subs	r5, r1, r5
    2bea:	42a9      	cmp	r1, r5
    2bec:	4189      	sbcs	r1, r1
    2bee:	1bc7      	subs	r7, r0, r7
    2bf0:	4249      	negs	r1, r1
    2bf2:	1a7f      	subs	r7, r7, r1
    2bf4:	0014      	movs	r4, r2
    2bf6:	469a      	mov	sl, r3
    2bf8:	e675      	b.n	28e6 <__aeabi_dsub+0x112>
    2bfa:	4a9e      	ldr	r2, [pc, #632]	; (2e74 <__aeabi_dsub+0x6a0>)
    2bfc:	4294      	cmp	r4, r2
    2bfe:	d000      	beq.n	2c02 <__aeabi_dsub+0x42e>
    2c00:	e6c7      	b.n	2992 <__aeabi_dsub+0x1be>
    2c02:	e613      	b.n	282c <__aeabi_dsub+0x58>
    2c04:	2200      	movs	r2, #0
    2c06:	e77f      	b.n	2b08 <__aeabi_dsub+0x334>
    2c08:	2000      	movs	r0, #0
    2c0a:	e78f      	b.n	2b2c <__aeabi_dsub+0x358>
    2c0c:	2c00      	cmp	r4, #0
    2c0e:	d000      	beq.n	2c12 <__aeabi_dsub+0x43e>
    2c10:	e0c8      	b.n	2da4 <__aeabi_dsub+0x5d0>
    2c12:	003b      	movs	r3, r7
    2c14:	432b      	orrs	r3, r5
    2c16:	d100      	bne.n	2c1a <__aeabi_dsub+0x446>
    2c18:	e10f      	b.n	2e3a <__aeabi_dsub+0x666>
    2c1a:	0003      	movs	r3, r0
    2c1c:	430b      	orrs	r3, r1
    2c1e:	d100      	bne.n	2c22 <__aeabi_dsub+0x44e>
    2c20:	e604      	b.n	282c <__aeabi_dsub+0x58>
    2c22:	1869      	adds	r1, r5, r1
    2c24:	42a9      	cmp	r1, r5
    2c26:	419b      	sbcs	r3, r3
    2c28:	183f      	adds	r7, r7, r0
    2c2a:	425b      	negs	r3, r3
    2c2c:	19df      	adds	r7, r3, r7
    2c2e:	023b      	lsls	r3, r7, #8
    2c30:	d400      	bmi.n	2c34 <__aeabi_dsub+0x460>
    2c32:	e11a      	b.n	2e6a <__aeabi_dsub+0x696>
    2c34:	4b90      	ldr	r3, [pc, #576]	; (2e78 <__aeabi_dsub+0x6a4>)
    2c36:	000d      	movs	r5, r1
    2c38:	401f      	ands	r7, r3
    2c3a:	4664      	mov	r4, ip
    2c3c:	e5f6      	b.n	282c <__aeabi_dsub+0x58>
    2c3e:	469a      	mov	sl, r3
    2c40:	e689      	b.n	2956 <__aeabi_dsub+0x182>
    2c42:	003a      	movs	r2, r7
    2c44:	432a      	orrs	r2, r5
    2c46:	2c00      	cmp	r4, #0
    2c48:	d15c      	bne.n	2d04 <__aeabi_dsub+0x530>
    2c4a:	2a00      	cmp	r2, #0
    2c4c:	d175      	bne.n	2d3a <__aeabi_dsub+0x566>
    2c4e:	0002      	movs	r2, r0
    2c50:	430a      	orrs	r2, r1
    2c52:	d100      	bne.n	2c56 <__aeabi_dsub+0x482>
    2c54:	e0ca      	b.n	2dec <__aeabi_dsub+0x618>
    2c56:	0007      	movs	r7, r0
    2c58:	000d      	movs	r5, r1
    2c5a:	469a      	mov	sl, r3
    2c5c:	e5e6      	b.n	282c <__aeabi_dsub+0x58>
    2c5e:	4664      	mov	r4, ip
    2c60:	2200      	movs	r2, #0
    2c62:	2500      	movs	r5, #0
    2c64:	e681      	b.n	296a <__aeabi_dsub+0x196>
    2c66:	4662      	mov	r2, ip
    2c68:	0006      	movs	r6, r0
    2c6a:	3a20      	subs	r2, #32
    2c6c:	40d6      	lsrs	r6, r2
    2c6e:	4662      	mov	r2, ip
    2c70:	46b0      	mov	r8, r6
    2c72:	2a20      	cmp	r2, #32
    2c74:	d100      	bne.n	2c78 <__aeabi_dsub+0x4a4>
    2c76:	e0b7      	b.n	2de8 <__aeabi_dsub+0x614>
    2c78:	2240      	movs	r2, #64	; 0x40
    2c7a:	4666      	mov	r6, ip
    2c7c:	1b92      	subs	r2, r2, r6
    2c7e:	4090      	lsls	r0, r2
    2c80:	4301      	orrs	r1, r0
    2c82:	4642      	mov	r2, r8
    2c84:	1e48      	subs	r0, r1, #1
    2c86:	4181      	sbcs	r1, r0
    2c88:	4311      	orrs	r1, r2
    2c8a:	2200      	movs	r2, #0
    2c8c:	e68a      	b.n	29a4 <__aeabi_dsub+0x1d0>
    2c8e:	4c79      	ldr	r4, [pc, #484]	; (2e74 <__aeabi_dsub+0x6a0>)
    2c90:	42a2      	cmp	r2, r4
    2c92:	d000      	beq.n	2c96 <__aeabi_dsub+0x4c2>
    2c94:	e761      	b.n	2b5a <__aeabi_dsub+0x386>
    2c96:	0007      	movs	r7, r0
    2c98:	000d      	movs	r5, r1
    2c9a:	0014      	movs	r4, r2
    2c9c:	469a      	mov	sl, r3
    2c9e:	e5c5      	b.n	282c <__aeabi_dsub+0x58>
    2ca0:	2c00      	cmp	r4, #0
    2ca2:	d141      	bne.n	2d28 <__aeabi_dsub+0x554>
    2ca4:	003c      	movs	r4, r7
    2ca6:	432c      	orrs	r4, r5
    2ca8:	d078      	beq.n	2d9c <__aeabi_dsub+0x5c8>
    2caa:	43f4      	mvns	r4, r6
    2cac:	46a1      	mov	r9, r4
    2cae:	2c00      	cmp	r4, #0
    2cb0:	d020      	beq.n	2cf4 <__aeabi_dsub+0x520>
    2cb2:	4c70      	ldr	r4, [pc, #448]	; (2e74 <__aeabi_dsub+0x6a0>)
    2cb4:	42a2      	cmp	r2, r4
    2cb6:	d071      	beq.n	2d9c <__aeabi_dsub+0x5c8>
    2cb8:	464c      	mov	r4, r9
    2cba:	2c38      	cmp	r4, #56	; 0x38
    2cbc:	dd00      	ble.n	2cc0 <__aeabi_dsub+0x4ec>
    2cbe:	e0b2      	b.n	2e26 <__aeabi_dsub+0x652>
    2cc0:	2c1f      	cmp	r4, #31
    2cc2:	dd00      	ble.n	2cc6 <__aeabi_dsub+0x4f2>
    2cc4:	e0bc      	b.n	2e40 <__aeabi_dsub+0x66c>
    2cc6:	2620      	movs	r6, #32
    2cc8:	1b34      	subs	r4, r6, r4
    2cca:	46a2      	mov	sl, r4
    2ccc:	003c      	movs	r4, r7
    2cce:	4656      	mov	r6, sl
    2cd0:	40b4      	lsls	r4, r6
    2cd2:	464e      	mov	r6, r9
    2cd4:	46a0      	mov	r8, r4
    2cd6:	002c      	movs	r4, r5
    2cd8:	40f4      	lsrs	r4, r6
    2cda:	46a4      	mov	ip, r4
    2cdc:	4644      	mov	r4, r8
    2cde:	4666      	mov	r6, ip
    2ce0:	4334      	orrs	r4, r6
    2ce2:	46a4      	mov	ip, r4
    2ce4:	4654      	mov	r4, sl
    2ce6:	40a5      	lsls	r5, r4
    2ce8:	4664      	mov	r4, ip
    2cea:	1e6e      	subs	r6, r5, #1
    2cec:	41b5      	sbcs	r5, r6
    2cee:	4325      	orrs	r5, r4
    2cf0:	464c      	mov	r4, r9
    2cf2:	40e7      	lsrs	r7, r4
    2cf4:	186d      	adds	r5, r5, r1
    2cf6:	428d      	cmp	r5, r1
    2cf8:	4189      	sbcs	r1, r1
    2cfa:	183f      	adds	r7, r7, r0
    2cfc:	4249      	negs	r1, r1
    2cfe:	19cf      	adds	r7, r1, r7
    2d00:	0014      	movs	r4, r2
    2d02:	e656      	b.n	29b2 <__aeabi_dsub+0x1de>
    2d04:	2a00      	cmp	r2, #0
    2d06:	d12f      	bne.n	2d68 <__aeabi_dsub+0x594>
    2d08:	0002      	movs	r2, r0
    2d0a:	430a      	orrs	r2, r1
    2d0c:	d100      	bne.n	2d10 <__aeabi_dsub+0x53c>
    2d0e:	e084      	b.n	2e1a <__aeabi_dsub+0x646>
    2d10:	0007      	movs	r7, r0
    2d12:	000d      	movs	r5, r1
    2d14:	469a      	mov	sl, r3
    2d16:	4c57      	ldr	r4, [pc, #348]	; (2e74 <__aeabi_dsub+0x6a0>)
    2d18:	e588      	b.n	282c <__aeabi_dsub+0x58>
    2d1a:	433d      	orrs	r5, r7
    2d1c:	1e6f      	subs	r7, r5, #1
    2d1e:	41bd      	sbcs	r5, r7
    2d20:	b2ec      	uxtb	r4, r5
    2d22:	2700      	movs	r7, #0
    2d24:	1b0d      	subs	r5, r1, r4
    2d26:	e760      	b.n	2bea <__aeabi_dsub+0x416>
    2d28:	4c52      	ldr	r4, [pc, #328]	; (2e74 <__aeabi_dsub+0x6a0>)
    2d2a:	42a2      	cmp	r2, r4
    2d2c:	d036      	beq.n	2d9c <__aeabi_dsub+0x5c8>
    2d2e:	4274      	negs	r4, r6
    2d30:	2680      	movs	r6, #128	; 0x80
    2d32:	0436      	lsls	r6, r6, #16
    2d34:	46a1      	mov	r9, r4
    2d36:	4337      	orrs	r7, r6
    2d38:	e7be      	b.n	2cb8 <__aeabi_dsub+0x4e4>
    2d3a:	0002      	movs	r2, r0
    2d3c:	430a      	orrs	r2, r1
    2d3e:	d100      	bne.n	2d42 <__aeabi_dsub+0x56e>
    2d40:	e574      	b.n	282c <__aeabi_dsub+0x58>
    2d42:	1a6a      	subs	r2, r5, r1
    2d44:	4690      	mov	r8, r2
    2d46:	4545      	cmp	r5, r8
    2d48:	41b6      	sbcs	r6, r6
    2d4a:	1a3a      	subs	r2, r7, r0
    2d4c:	4276      	negs	r6, r6
    2d4e:	1b92      	subs	r2, r2, r6
    2d50:	4694      	mov	ip, r2
    2d52:	0212      	lsls	r2, r2, #8
    2d54:	d400      	bmi.n	2d58 <__aeabi_dsub+0x584>
    2d56:	e5f7      	b.n	2948 <__aeabi_dsub+0x174>
    2d58:	1b4d      	subs	r5, r1, r5
    2d5a:	42a9      	cmp	r1, r5
    2d5c:	4189      	sbcs	r1, r1
    2d5e:	1bc7      	subs	r7, r0, r7
    2d60:	4249      	negs	r1, r1
    2d62:	1a7f      	subs	r7, r7, r1
    2d64:	469a      	mov	sl, r3
    2d66:	e561      	b.n	282c <__aeabi_dsub+0x58>
    2d68:	0002      	movs	r2, r0
    2d6a:	430a      	orrs	r2, r1
    2d6c:	d03a      	beq.n	2de4 <__aeabi_dsub+0x610>
    2d6e:	08ed      	lsrs	r5, r5, #3
    2d70:	077c      	lsls	r4, r7, #29
    2d72:	432c      	orrs	r4, r5
    2d74:	2580      	movs	r5, #128	; 0x80
    2d76:	08fa      	lsrs	r2, r7, #3
    2d78:	032d      	lsls	r5, r5, #12
    2d7a:	422a      	tst	r2, r5
    2d7c:	d008      	beq.n	2d90 <__aeabi_dsub+0x5bc>
    2d7e:	08c7      	lsrs	r7, r0, #3
    2d80:	422f      	tst	r7, r5
    2d82:	d105      	bne.n	2d90 <__aeabi_dsub+0x5bc>
    2d84:	0745      	lsls	r5, r0, #29
    2d86:	002c      	movs	r4, r5
    2d88:	003a      	movs	r2, r7
    2d8a:	469a      	mov	sl, r3
    2d8c:	08c9      	lsrs	r1, r1, #3
    2d8e:	430c      	orrs	r4, r1
    2d90:	0f67      	lsrs	r7, r4, #29
    2d92:	00d2      	lsls	r2, r2, #3
    2d94:	00e5      	lsls	r5, r4, #3
    2d96:	4317      	orrs	r7, r2
    2d98:	4c36      	ldr	r4, [pc, #216]	; (2e74 <__aeabi_dsub+0x6a0>)
    2d9a:	e547      	b.n	282c <__aeabi_dsub+0x58>
    2d9c:	0007      	movs	r7, r0
    2d9e:	000d      	movs	r5, r1
    2da0:	0014      	movs	r4, r2
    2da2:	e543      	b.n	282c <__aeabi_dsub+0x58>
    2da4:	003a      	movs	r2, r7
    2da6:	432a      	orrs	r2, r5
    2da8:	d043      	beq.n	2e32 <__aeabi_dsub+0x65e>
    2daa:	0002      	movs	r2, r0
    2dac:	430a      	orrs	r2, r1
    2dae:	d019      	beq.n	2de4 <__aeabi_dsub+0x610>
    2db0:	08ed      	lsrs	r5, r5, #3
    2db2:	077c      	lsls	r4, r7, #29
    2db4:	432c      	orrs	r4, r5
    2db6:	2580      	movs	r5, #128	; 0x80
    2db8:	08fa      	lsrs	r2, r7, #3
    2dba:	032d      	lsls	r5, r5, #12
    2dbc:	422a      	tst	r2, r5
    2dbe:	d007      	beq.n	2dd0 <__aeabi_dsub+0x5fc>
    2dc0:	08c6      	lsrs	r6, r0, #3
    2dc2:	422e      	tst	r6, r5
    2dc4:	d104      	bne.n	2dd0 <__aeabi_dsub+0x5fc>
    2dc6:	0747      	lsls	r7, r0, #29
    2dc8:	003c      	movs	r4, r7
    2dca:	0032      	movs	r2, r6
    2dcc:	08c9      	lsrs	r1, r1, #3
    2dce:	430c      	orrs	r4, r1
    2dd0:	00d7      	lsls	r7, r2, #3
    2dd2:	0f62      	lsrs	r2, r4, #29
    2dd4:	00e5      	lsls	r5, r4, #3
    2dd6:	4317      	orrs	r7, r2
    2dd8:	469a      	mov	sl, r3
    2dda:	4c26      	ldr	r4, [pc, #152]	; (2e74 <__aeabi_dsub+0x6a0>)
    2ddc:	e526      	b.n	282c <__aeabi_dsub+0x58>
    2dde:	2200      	movs	r2, #0
    2de0:	2500      	movs	r5, #0
    2de2:	e544      	b.n	286e <__aeabi_dsub+0x9a>
    2de4:	4c23      	ldr	r4, [pc, #140]	; (2e74 <__aeabi_dsub+0x6a0>)
    2de6:	e521      	b.n	282c <__aeabi_dsub+0x58>
    2de8:	2000      	movs	r0, #0
    2dea:	e749      	b.n	2c80 <__aeabi_dsub+0x4ac>
    2dec:	2300      	movs	r3, #0
    2dee:	2500      	movs	r5, #0
    2df0:	e5bb      	b.n	296a <__aeabi_dsub+0x196>
    2df2:	464c      	mov	r4, r9
    2df4:	003e      	movs	r6, r7
    2df6:	3c20      	subs	r4, #32
    2df8:	40e6      	lsrs	r6, r4
    2dfa:	464c      	mov	r4, r9
    2dfc:	46b4      	mov	ip, r6
    2dfe:	2c20      	cmp	r4, #32
    2e00:	d031      	beq.n	2e66 <__aeabi_dsub+0x692>
    2e02:	2440      	movs	r4, #64	; 0x40
    2e04:	464e      	mov	r6, r9
    2e06:	1ba6      	subs	r6, r4, r6
    2e08:	40b7      	lsls	r7, r6
    2e0a:	433d      	orrs	r5, r7
    2e0c:	1e6c      	subs	r4, r5, #1
    2e0e:	41a5      	sbcs	r5, r4
    2e10:	4664      	mov	r4, ip
    2e12:	432c      	orrs	r4, r5
    2e14:	2700      	movs	r7, #0
    2e16:	1b0d      	subs	r5, r1, r4
    2e18:	e6e7      	b.n	2bea <__aeabi_dsub+0x416>
    2e1a:	2280      	movs	r2, #128	; 0x80
    2e1c:	2300      	movs	r3, #0
    2e1e:	0312      	lsls	r2, r2, #12
    2e20:	4c14      	ldr	r4, [pc, #80]	; (2e74 <__aeabi_dsub+0x6a0>)
    2e22:	2500      	movs	r5, #0
    2e24:	e5a1      	b.n	296a <__aeabi_dsub+0x196>
    2e26:	433d      	orrs	r5, r7
    2e28:	1e6f      	subs	r7, r5, #1
    2e2a:	41bd      	sbcs	r5, r7
    2e2c:	2700      	movs	r7, #0
    2e2e:	b2ed      	uxtb	r5, r5
    2e30:	e760      	b.n	2cf4 <__aeabi_dsub+0x520>
    2e32:	0007      	movs	r7, r0
    2e34:	000d      	movs	r5, r1
    2e36:	4c0f      	ldr	r4, [pc, #60]	; (2e74 <__aeabi_dsub+0x6a0>)
    2e38:	e4f8      	b.n	282c <__aeabi_dsub+0x58>
    2e3a:	0007      	movs	r7, r0
    2e3c:	000d      	movs	r5, r1
    2e3e:	e4f5      	b.n	282c <__aeabi_dsub+0x58>
    2e40:	464e      	mov	r6, r9
    2e42:	003c      	movs	r4, r7
    2e44:	3e20      	subs	r6, #32
    2e46:	40f4      	lsrs	r4, r6
    2e48:	46a0      	mov	r8, r4
    2e4a:	464c      	mov	r4, r9
    2e4c:	2c20      	cmp	r4, #32
    2e4e:	d00e      	beq.n	2e6e <__aeabi_dsub+0x69a>
    2e50:	2440      	movs	r4, #64	; 0x40
    2e52:	464e      	mov	r6, r9
    2e54:	1ba4      	subs	r4, r4, r6
    2e56:	40a7      	lsls	r7, r4
    2e58:	433d      	orrs	r5, r7
    2e5a:	1e6f      	subs	r7, r5, #1
    2e5c:	41bd      	sbcs	r5, r7
    2e5e:	4644      	mov	r4, r8
    2e60:	2700      	movs	r7, #0
    2e62:	4325      	orrs	r5, r4
    2e64:	e746      	b.n	2cf4 <__aeabi_dsub+0x520>
    2e66:	2700      	movs	r7, #0
    2e68:	e7cf      	b.n	2e0a <__aeabi_dsub+0x636>
    2e6a:	000d      	movs	r5, r1
    2e6c:	e573      	b.n	2956 <__aeabi_dsub+0x182>
    2e6e:	2700      	movs	r7, #0
    2e70:	e7f2      	b.n	2e58 <__aeabi_dsub+0x684>
    2e72:	46c0      	nop			; (mov r8, r8)
    2e74:	000007ff 	.word	0x000007ff
    2e78:	ff7fffff 	.word	0xff7fffff

00002e7c <__aeabi_d2iz>:
    2e7c:	030b      	lsls	r3, r1, #12
    2e7e:	b530      	push	{r4, r5, lr}
    2e80:	4d13      	ldr	r5, [pc, #76]	; (2ed0 <__aeabi_d2iz+0x54>)
    2e82:	0b1a      	lsrs	r2, r3, #12
    2e84:	004b      	lsls	r3, r1, #1
    2e86:	0d5b      	lsrs	r3, r3, #21
    2e88:	0fc9      	lsrs	r1, r1, #31
    2e8a:	2400      	movs	r4, #0
    2e8c:	42ab      	cmp	r3, r5
    2e8e:	dd11      	ble.n	2eb4 <__aeabi_d2iz+0x38>
    2e90:	4c10      	ldr	r4, [pc, #64]	; (2ed4 <__aeabi_d2iz+0x58>)
    2e92:	42a3      	cmp	r3, r4
    2e94:	dc10      	bgt.n	2eb8 <__aeabi_d2iz+0x3c>
    2e96:	2480      	movs	r4, #128	; 0x80
    2e98:	0364      	lsls	r4, r4, #13
    2e9a:	4322      	orrs	r2, r4
    2e9c:	4c0e      	ldr	r4, [pc, #56]	; (2ed8 <__aeabi_d2iz+0x5c>)
    2e9e:	1ae4      	subs	r4, r4, r3
    2ea0:	2c1f      	cmp	r4, #31
    2ea2:	dd0c      	ble.n	2ebe <__aeabi_d2iz+0x42>
    2ea4:	480d      	ldr	r0, [pc, #52]	; (2edc <__aeabi_d2iz+0x60>)
    2ea6:	1ac3      	subs	r3, r0, r3
    2ea8:	40da      	lsrs	r2, r3
    2eaa:	0013      	movs	r3, r2
    2eac:	425c      	negs	r4, r3
    2eae:	2900      	cmp	r1, #0
    2eb0:	d100      	bne.n	2eb4 <__aeabi_d2iz+0x38>
    2eb2:	001c      	movs	r4, r3
    2eb4:	0020      	movs	r0, r4
    2eb6:	bd30      	pop	{r4, r5, pc}
    2eb8:	4b09      	ldr	r3, [pc, #36]	; (2ee0 <__aeabi_d2iz+0x64>)
    2eba:	18cc      	adds	r4, r1, r3
    2ebc:	e7fa      	b.n	2eb4 <__aeabi_d2iz+0x38>
    2ebe:	40e0      	lsrs	r0, r4
    2ec0:	4c08      	ldr	r4, [pc, #32]	; (2ee4 <__aeabi_d2iz+0x68>)
    2ec2:	46a4      	mov	ip, r4
    2ec4:	4463      	add	r3, ip
    2ec6:	409a      	lsls	r2, r3
    2ec8:	0013      	movs	r3, r2
    2eca:	4303      	orrs	r3, r0
    2ecc:	e7ee      	b.n	2eac <__aeabi_d2iz+0x30>
    2ece:	46c0      	nop			; (mov r8, r8)
    2ed0:	000003fe 	.word	0x000003fe
    2ed4:	0000041d 	.word	0x0000041d
    2ed8:	00000433 	.word	0x00000433
    2edc:	00000413 	.word	0x00000413
    2ee0:	7fffffff 	.word	0x7fffffff
    2ee4:	fffffbed 	.word	0xfffffbed

00002ee8 <__aeabi_i2d>:
    2ee8:	b570      	push	{r4, r5, r6, lr}
    2eea:	2800      	cmp	r0, #0
    2eec:	d030      	beq.n	2f50 <__aeabi_i2d+0x68>
    2eee:	17c3      	asrs	r3, r0, #31
    2ef0:	18c4      	adds	r4, r0, r3
    2ef2:	405c      	eors	r4, r3
    2ef4:	0fc5      	lsrs	r5, r0, #31
    2ef6:	0020      	movs	r0, r4
    2ef8:	f000 f950 	bl	319c <__clzsi2>
    2efc:	4b17      	ldr	r3, [pc, #92]	; (2f5c <__aeabi_i2d+0x74>)
    2efe:	4a18      	ldr	r2, [pc, #96]	; (2f60 <__aeabi_i2d+0x78>)
    2f00:	1a1b      	subs	r3, r3, r0
    2f02:	1ad2      	subs	r2, r2, r3
    2f04:	2a1f      	cmp	r2, #31
    2f06:	dd18      	ble.n	2f3a <__aeabi_i2d+0x52>
    2f08:	4a16      	ldr	r2, [pc, #88]	; (2f64 <__aeabi_i2d+0x7c>)
    2f0a:	1ad2      	subs	r2, r2, r3
    2f0c:	4094      	lsls	r4, r2
    2f0e:	2200      	movs	r2, #0
    2f10:	0324      	lsls	r4, r4, #12
    2f12:	055b      	lsls	r3, r3, #21
    2f14:	0b24      	lsrs	r4, r4, #12
    2f16:	0d5b      	lsrs	r3, r3, #21
    2f18:	2100      	movs	r1, #0
    2f1a:	0010      	movs	r0, r2
    2f1c:	0324      	lsls	r4, r4, #12
    2f1e:	0d0a      	lsrs	r2, r1, #20
    2f20:	0512      	lsls	r2, r2, #20
    2f22:	0b24      	lsrs	r4, r4, #12
    2f24:	4314      	orrs	r4, r2
    2f26:	4a10      	ldr	r2, [pc, #64]	; (2f68 <__aeabi_i2d+0x80>)
    2f28:	051b      	lsls	r3, r3, #20
    2f2a:	4014      	ands	r4, r2
    2f2c:	431c      	orrs	r4, r3
    2f2e:	0064      	lsls	r4, r4, #1
    2f30:	07ed      	lsls	r5, r5, #31
    2f32:	0864      	lsrs	r4, r4, #1
    2f34:	432c      	orrs	r4, r5
    2f36:	0021      	movs	r1, r4
    2f38:	bd70      	pop	{r4, r5, r6, pc}
    2f3a:	0021      	movs	r1, r4
    2f3c:	4091      	lsls	r1, r2
    2f3e:	000a      	movs	r2, r1
    2f40:	210b      	movs	r1, #11
    2f42:	1a08      	subs	r0, r1, r0
    2f44:	40c4      	lsrs	r4, r0
    2f46:	055b      	lsls	r3, r3, #21
    2f48:	0324      	lsls	r4, r4, #12
    2f4a:	0b24      	lsrs	r4, r4, #12
    2f4c:	0d5b      	lsrs	r3, r3, #21
    2f4e:	e7e3      	b.n	2f18 <__aeabi_i2d+0x30>
    2f50:	2500      	movs	r5, #0
    2f52:	2300      	movs	r3, #0
    2f54:	2400      	movs	r4, #0
    2f56:	2200      	movs	r2, #0
    2f58:	e7de      	b.n	2f18 <__aeabi_i2d+0x30>
    2f5a:	46c0      	nop			; (mov r8, r8)
    2f5c:	0000041e 	.word	0x0000041e
    2f60:	00000433 	.word	0x00000433
    2f64:	00000413 	.word	0x00000413
    2f68:	800fffff 	.word	0x800fffff

00002f6c <__aeabi_ui2d>:
    2f6c:	b570      	push	{r4, r5, r6, lr}
    2f6e:	1e05      	subs	r5, r0, #0
    2f70:	d028      	beq.n	2fc4 <__aeabi_ui2d+0x58>
    2f72:	f000 f913 	bl	319c <__clzsi2>
    2f76:	4b15      	ldr	r3, [pc, #84]	; (2fcc <__aeabi_ui2d+0x60>)
    2f78:	4a15      	ldr	r2, [pc, #84]	; (2fd0 <__aeabi_ui2d+0x64>)
    2f7a:	1a1b      	subs	r3, r3, r0
    2f7c:	1ad2      	subs	r2, r2, r3
    2f7e:	2a1f      	cmp	r2, #31
    2f80:	dd16      	ble.n	2fb0 <__aeabi_ui2d+0x44>
    2f82:	002c      	movs	r4, r5
    2f84:	4a13      	ldr	r2, [pc, #76]	; (2fd4 <__aeabi_ui2d+0x68>)
    2f86:	2500      	movs	r5, #0
    2f88:	1ad2      	subs	r2, r2, r3
    2f8a:	4094      	lsls	r4, r2
    2f8c:	055a      	lsls	r2, r3, #21
    2f8e:	0324      	lsls	r4, r4, #12
    2f90:	0b24      	lsrs	r4, r4, #12
    2f92:	0d52      	lsrs	r2, r2, #21
    2f94:	2100      	movs	r1, #0
    2f96:	0324      	lsls	r4, r4, #12
    2f98:	0d0b      	lsrs	r3, r1, #20
    2f9a:	0b24      	lsrs	r4, r4, #12
    2f9c:	051b      	lsls	r3, r3, #20
    2f9e:	4323      	orrs	r3, r4
    2fa0:	4c0d      	ldr	r4, [pc, #52]	; (2fd8 <__aeabi_ui2d+0x6c>)
    2fa2:	0512      	lsls	r2, r2, #20
    2fa4:	4023      	ands	r3, r4
    2fa6:	4313      	orrs	r3, r2
    2fa8:	005b      	lsls	r3, r3, #1
    2faa:	0028      	movs	r0, r5
    2fac:	0859      	lsrs	r1, r3, #1
    2fae:	bd70      	pop	{r4, r5, r6, pc}
    2fb0:	210b      	movs	r1, #11
    2fb2:	002c      	movs	r4, r5
    2fb4:	1a08      	subs	r0, r1, r0
    2fb6:	40c4      	lsrs	r4, r0
    2fb8:	4095      	lsls	r5, r2
    2fba:	0324      	lsls	r4, r4, #12
    2fbc:	055a      	lsls	r2, r3, #21
    2fbe:	0b24      	lsrs	r4, r4, #12
    2fc0:	0d52      	lsrs	r2, r2, #21
    2fc2:	e7e7      	b.n	2f94 <__aeabi_ui2d+0x28>
    2fc4:	2200      	movs	r2, #0
    2fc6:	2400      	movs	r4, #0
    2fc8:	e7e4      	b.n	2f94 <__aeabi_ui2d+0x28>
    2fca:	46c0      	nop			; (mov r8, r8)
    2fcc:	0000041e 	.word	0x0000041e
    2fd0:	00000433 	.word	0x00000433
    2fd4:	00000413 	.word	0x00000413
    2fd8:	800fffff 	.word	0x800fffff

00002fdc <__aeabi_f2d>:
    2fdc:	0042      	lsls	r2, r0, #1
    2fde:	0e12      	lsrs	r2, r2, #24
    2fe0:	1c51      	adds	r1, r2, #1
    2fe2:	0243      	lsls	r3, r0, #9
    2fe4:	b2c9      	uxtb	r1, r1
    2fe6:	b570      	push	{r4, r5, r6, lr}
    2fe8:	0a5d      	lsrs	r5, r3, #9
    2fea:	0fc4      	lsrs	r4, r0, #31
    2fec:	2901      	cmp	r1, #1
    2fee:	dd15      	ble.n	301c <__aeabi_f2d+0x40>
    2ff0:	21e0      	movs	r1, #224	; 0xe0
    2ff2:	0089      	lsls	r1, r1, #2
    2ff4:	468c      	mov	ip, r1
    2ff6:	076d      	lsls	r5, r5, #29
    2ff8:	0b1b      	lsrs	r3, r3, #12
    2ffa:	4462      	add	r2, ip
    2ffc:	2100      	movs	r1, #0
    2ffe:	0028      	movs	r0, r5
    3000:	0d0d      	lsrs	r5, r1, #20
    3002:	052d      	lsls	r5, r5, #20
    3004:	432b      	orrs	r3, r5
    3006:	4d1c      	ldr	r5, [pc, #112]	; (3078 <__aeabi_f2d+0x9c>)
    3008:	0552      	lsls	r2, r2, #21
    300a:	402b      	ands	r3, r5
    300c:	0852      	lsrs	r2, r2, #1
    300e:	4313      	orrs	r3, r2
    3010:	005b      	lsls	r3, r3, #1
    3012:	07e4      	lsls	r4, r4, #31
    3014:	085b      	lsrs	r3, r3, #1
    3016:	4323      	orrs	r3, r4
    3018:	0019      	movs	r1, r3
    301a:	bd70      	pop	{r4, r5, r6, pc}
    301c:	2a00      	cmp	r2, #0
    301e:	d115      	bne.n	304c <__aeabi_f2d+0x70>
    3020:	2d00      	cmp	r5, #0
    3022:	d01f      	beq.n	3064 <__aeabi_f2d+0x88>
    3024:	0028      	movs	r0, r5
    3026:	f000 f8b9 	bl	319c <__clzsi2>
    302a:	280a      	cmp	r0, #10
    302c:	dc1d      	bgt.n	306a <__aeabi_f2d+0x8e>
    302e:	230b      	movs	r3, #11
    3030:	002a      	movs	r2, r5
    3032:	1a1b      	subs	r3, r3, r0
    3034:	40da      	lsrs	r2, r3
    3036:	0013      	movs	r3, r2
    3038:	0002      	movs	r2, r0
    303a:	3215      	adds	r2, #21
    303c:	4095      	lsls	r5, r2
    303e:	4a0f      	ldr	r2, [pc, #60]	; (307c <__aeabi_f2d+0xa0>)
    3040:	031b      	lsls	r3, r3, #12
    3042:	1a12      	subs	r2, r2, r0
    3044:	0552      	lsls	r2, r2, #21
    3046:	0b1b      	lsrs	r3, r3, #12
    3048:	0d52      	lsrs	r2, r2, #21
    304a:	e7d7      	b.n	2ffc <__aeabi_f2d+0x20>
    304c:	2d00      	cmp	r5, #0
    304e:	d006      	beq.n	305e <__aeabi_f2d+0x82>
    3050:	2280      	movs	r2, #128	; 0x80
    3052:	0b1b      	lsrs	r3, r3, #12
    3054:	0312      	lsls	r2, r2, #12
    3056:	4313      	orrs	r3, r2
    3058:	076d      	lsls	r5, r5, #29
    305a:	4a09      	ldr	r2, [pc, #36]	; (3080 <__aeabi_f2d+0xa4>)
    305c:	e7ce      	b.n	2ffc <__aeabi_f2d+0x20>
    305e:	4a08      	ldr	r2, [pc, #32]	; (3080 <__aeabi_f2d+0xa4>)
    3060:	2300      	movs	r3, #0
    3062:	e7cb      	b.n	2ffc <__aeabi_f2d+0x20>
    3064:	2200      	movs	r2, #0
    3066:	2300      	movs	r3, #0
    3068:	e7c8      	b.n	2ffc <__aeabi_f2d+0x20>
    306a:	0003      	movs	r3, r0
    306c:	3b0b      	subs	r3, #11
    306e:	409d      	lsls	r5, r3
    3070:	002b      	movs	r3, r5
    3072:	2500      	movs	r5, #0
    3074:	e7e3      	b.n	303e <__aeabi_f2d+0x62>
    3076:	46c0      	nop			; (mov r8, r8)
    3078:	800fffff 	.word	0x800fffff
    307c:	00000389 	.word	0x00000389
    3080:	000007ff 	.word	0x000007ff

00003084 <__aeabi_d2f>:
    3084:	004b      	lsls	r3, r1, #1
    3086:	b570      	push	{r4, r5, r6, lr}
    3088:	0d5e      	lsrs	r6, r3, #21
    308a:	030c      	lsls	r4, r1, #12
    308c:	1c75      	adds	r5, r6, #1
    308e:	0a64      	lsrs	r4, r4, #9
    3090:	0f42      	lsrs	r2, r0, #29
    3092:	056d      	lsls	r5, r5, #21
    3094:	4322      	orrs	r2, r4
    3096:	0fc9      	lsrs	r1, r1, #31
    3098:	00c4      	lsls	r4, r0, #3
    309a:	0d6d      	lsrs	r5, r5, #21
    309c:	2d01      	cmp	r5, #1
    309e:	dd2a      	ble.n	30f6 <__aeabi_d2f+0x72>
    30a0:	4b3b      	ldr	r3, [pc, #236]	; (3190 <__aeabi_d2f+0x10c>)
    30a2:	18f3      	adds	r3, r6, r3
    30a4:	2bfe      	cmp	r3, #254	; 0xfe
    30a6:	dc1a      	bgt.n	30de <__aeabi_d2f+0x5a>
    30a8:	2b00      	cmp	r3, #0
    30aa:	dd42      	ble.n	3132 <__aeabi_d2f+0xae>
    30ac:	0180      	lsls	r0, r0, #6
    30ae:	1e45      	subs	r5, r0, #1
    30b0:	41a8      	sbcs	r0, r5
    30b2:	00d2      	lsls	r2, r2, #3
    30b4:	4310      	orrs	r0, r2
    30b6:	0f62      	lsrs	r2, r4, #29
    30b8:	4302      	orrs	r2, r0
    30ba:	0750      	lsls	r0, r2, #29
    30bc:	d004      	beq.n	30c8 <__aeabi_d2f+0x44>
    30be:	200f      	movs	r0, #15
    30c0:	4010      	ands	r0, r2
    30c2:	2804      	cmp	r0, #4
    30c4:	d000      	beq.n	30c8 <__aeabi_d2f+0x44>
    30c6:	3204      	adds	r2, #4
    30c8:	2080      	movs	r0, #128	; 0x80
    30ca:	04c0      	lsls	r0, r0, #19
    30cc:	4010      	ands	r0, r2
    30ce:	d021      	beq.n	3114 <__aeabi_d2f+0x90>
    30d0:	3301      	adds	r3, #1
    30d2:	2bff      	cmp	r3, #255	; 0xff
    30d4:	d003      	beq.n	30de <__aeabi_d2f+0x5a>
    30d6:	0192      	lsls	r2, r2, #6
    30d8:	0a52      	lsrs	r2, r2, #9
    30da:	b2db      	uxtb	r3, r3
    30dc:	e001      	b.n	30e2 <__aeabi_d2f+0x5e>
    30de:	23ff      	movs	r3, #255	; 0xff
    30e0:	2200      	movs	r2, #0
    30e2:	0252      	lsls	r2, r2, #9
    30e4:	0a52      	lsrs	r2, r2, #9
    30e6:	05db      	lsls	r3, r3, #23
    30e8:	4313      	orrs	r3, r2
    30ea:	005b      	lsls	r3, r3, #1
    30ec:	07c9      	lsls	r1, r1, #31
    30ee:	085b      	lsrs	r3, r3, #1
    30f0:	430b      	orrs	r3, r1
    30f2:	0018      	movs	r0, r3
    30f4:	bd70      	pop	{r4, r5, r6, pc}
    30f6:	2e00      	cmp	r6, #0
    30f8:	d007      	beq.n	310a <__aeabi_d2f+0x86>
    30fa:	4314      	orrs	r4, r2
    30fc:	d0ef      	beq.n	30de <__aeabi_d2f+0x5a>
    30fe:	2080      	movs	r0, #128	; 0x80
    3100:	00d2      	lsls	r2, r2, #3
    3102:	0480      	lsls	r0, r0, #18
    3104:	4302      	orrs	r2, r0
    3106:	23ff      	movs	r3, #255	; 0xff
    3108:	e7d7      	b.n	30ba <__aeabi_d2f+0x36>
    310a:	4322      	orrs	r2, r4
    310c:	2300      	movs	r3, #0
    310e:	2a00      	cmp	r2, #0
    3110:	d003      	beq.n	311a <__aeabi_d2f+0x96>
    3112:	2205      	movs	r2, #5
    3114:	08d2      	lsrs	r2, r2, #3
    3116:	2bff      	cmp	r3, #255	; 0xff
    3118:	d003      	beq.n	3122 <__aeabi_d2f+0x9e>
    311a:	0252      	lsls	r2, r2, #9
    311c:	0a52      	lsrs	r2, r2, #9
    311e:	b2db      	uxtb	r3, r3
    3120:	e7df      	b.n	30e2 <__aeabi_d2f+0x5e>
    3122:	2a00      	cmp	r2, #0
    3124:	d032      	beq.n	318c <__aeabi_d2f+0x108>
    3126:	2080      	movs	r0, #128	; 0x80
    3128:	03c0      	lsls	r0, r0, #15
    312a:	4302      	orrs	r2, r0
    312c:	0252      	lsls	r2, r2, #9
    312e:	0a52      	lsrs	r2, r2, #9
    3130:	e7d7      	b.n	30e2 <__aeabi_d2f+0x5e>
    3132:	0018      	movs	r0, r3
    3134:	3017      	adds	r0, #23
    3136:	db14      	blt.n	3162 <__aeabi_d2f+0xde>
    3138:	2080      	movs	r0, #128	; 0x80
    313a:	0400      	lsls	r0, r0, #16
    313c:	4302      	orrs	r2, r0
    313e:	201e      	movs	r0, #30
    3140:	1ac0      	subs	r0, r0, r3
    3142:	281f      	cmp	r0, #31
    3144:	dc0f      	bgt.n	3166 <__aeabi_d2f+0xe2>
    3146:	0025      	movs	r5, r4
    3148:	4b12      	ldr	r3, [pc, #72]	; (3194 <__aeabi_d2f+0x110>)
    314a:	18f3      	adds	r3, r6, r3
    314c:	409d      	lsls	r5, r3
    314e:	1e6e      	subs	r6, r5, #1
    3150:	41b5      	sbcs	r5, r6
    3152:	409a      	lsls	r2, r3
    3154:	002b      	movs	r3, r5
    3156:	4313      	orrs	r3, r2
    3158:	0022      	movs	r2, r4
    315a:	40c2      	lsrs	r2, r0
    315c:	431a      	orrs	r2, r3
    315e:	2300      	movs	r3, #0
    3160:	e7ab      	b.n	30ba <__aeabi_d2f+0x36>
    3162:	2300      	movs	r3, #0
    3164:	e7d5      	b.n	3112 <__aeabi_d2f+0x8e>
    3166:	2502      	movs	r5, #2
    3168:	426d      	negs	r5, r5
    316a:	1aeb      	subs	r3, r5, r3
    316c:	0015      	movs	r5, r2
    316e:	40dd      	lsrs	r5, r3
    3170:	2820      	cmp	r0, #32
    3172:	d009      	beq.n	3188 <__aeabi_d2f+0x104>
    3174:	4b08      	ldr	r3, [pc, #32]	; (3198 <__aeabi_d2f+0x114>)
    3176:	18f3      	adds	r3, r6, r3
    3178:	409a      	lsls	r2, r3
    317a:	4314      	orrs	r4, r2
    317c:	1e62      	subs	r2, r4, #1
    317e:	4194      	sbcs	r4, r2
    3180:	0022      	movs	r2, r4
    3182:	2300      	movs	r3, #0
    3184:	432a      	orrs	r2, r5
    3186:	e798      	b.n	30ba <__aeabi_d2f+0x36>
    3188:	2200      	movs	r2, #0
    318a:	e7f6      	b.n	317a <__aeabi_d2f+0xf6>
    318c:	2200      	movs	r2, #0
    318e:	e7a8      	b.n	30e2 <__aeabi_d2f+0x5e>
    3190:	fffffc80 	.word	0xfffffc80
    3194:	fffffc82 	.word	0xfffffc82
    3198:	fffffca2 	.word	0xfffffca2

0000319c <__clzsi2>:
    319c:	211c      	movs	r1, #28
    319e:	2301      	movs	r3, #1
    31a0:	041b      	lsls	r3, r3, #16
    31a2:	4298      	cmp	r0, r3
    31a4:	d301      	bcc.n	31aa <__clzsi2+0xe>
    31a6:	0c00      	lsrs	r0, r0, #16
    31a8:	3910      	subs	r1, #16
    31aa:	0a1b      	lsrs	r3, r3, #8
    31ac:	4298      	cmp	r0, r3
    31ae:	d301      	bcc.n	31b4 <__clzsi2+0x18>
    31b0:	0a00      	lsrs	r0, r0, #8
    31b2:	3908      	subs	r1, #8
    31b4:	091b      	lsrs	r3, r3, #4
    31b6:	4298      	cmp	r0, r3
    31b8:	d301      	bcc.n	31be <__clzsi2+0x22>
    31ba:	0900      	lsrs	r0, r0, #4
    31bc:	3904      	subs	r1, #4
    31be:	a202      	add	r2, pc, #8	; (adr r2, 31c8 <__clzsi2+0x2c>)
    31c0:	5c10      	ldrb	r0, [r2, r0]
    31c2:	1840      	adds	r0, r0, r1
    31c4:	4770      	bx	lr
    31c6:	46c0      	nop			; (mov r8, r8)
    31c8:	02020304 	.word	0x02020304
    31cc:	01010101 	.word	0x01010101
	...

000031d8 <__libc_init_array>:
    31d8:	b570      	push	{r4, r5, r6, lr}
    31da:	4e0d      	ldr	r6, [pc, #52]	; (3210 <__libc_init_array+0x38>)
    31dc:	4d0d      	ldr	r5, [pc, #52]	; (3214 <__libc_init_array+0x3c>)
    31de:	2400      	movs	r4, #0
    31e0:	1bad      	subs	r5, r5, r6
    31e2:	10ad      	asrs	r5, r5, #2
    31e4:	d005      	beq.n	31f2 <__libc_init_array+0x1a>
    31e6:	00a3      	lsls	r3, r4, #2
    31e8:	58f3      	ldr	r3, [r6, r3]
    31ea:	3401      	adds	r4, #1
    31ec:	4798      	blx	r3
    31ee:	42a5      	cmp	r5, r4
    31f0:	d1f9      	bne.n	31e6 <__libc_init_array+0xe>
    31f2:	f000 f9cd 	bl	3590 <_init>
    31f6:	4e08      	ldr	r6, [pc, #32]	; (3218 <__libc_init_array+0x40>)
    31f8:	4d08      	ldr	r5, [pc, #32]	; (321c <__libc_init_array+0x44>)
    31fa:	2400      	movs	r4, #0
    31fc:	1bad      	subs	r5, r5, r6
    31fe:	10ad      	asrs	r5, r5, #2
    3200:	d005      	beq.n	320e <__libc_init_array+0x36>
    3202:	00a3      	lsls	r3, r4, #2
    3204:	58f3      	ldr	r3, [r6, r3]
    3206:	3401      	adds	r4, #1
    3208:	4798      	blx	r3
    320a:	42a5      	cmp	r5, r4
    320c:	d1f9      	bne.n	3202 <__libc_init_array+0x2a>
    320e:	bd70      	pop	{r4, r5, r6, pc}
    3210:	0000359c 	.word	0x0000359c
    3214:	0000359c 	.word	0x0000359c
    3218:	0000359c 	.word	0x0000359c
    321c:	000035a4 	.word	0x000035a4

00003220 <memset>:
    3220:	b570      	push	{r4, r5, r6, lr}
    3222:	0783      	lsls	r3, r0, #30
    3224:	d03f      	beq.n	32a6 <memset+0x86>
    3226:	1e54      	subs	r4, r2, #1
    3228:	2a00      	cmp	r2, #0
    322a:	d03b      	beq.n	32a4 <memset+0x84>
    322c:	b2ce      	uxtb	r6, r1
    322e:	0003      	movs	r3, r0
    3230:	2503      	movs	r5, #3
    3232:	e003      	b.n	323c <memset+0x1c>
    3234:	1e62      	subs	r2, r4, #1
    3236:	2c00      	cmp	r4, #0
    3238:	d034      	beq.n	32a4 <memset+0x84>
    323a:	0014      	movs	r4, r2
    323c:	3301      	adds	r3, #1
    323e:	1e5a      	subs	r2, r3, #1
    3240:	7016      	strb	r6, [r2, #0]
    3242:	422b      	tst	r3, r5
    3244:	d1f6      	bne.n	3234 <memset+0x14>
    3246:	2c03      	cmp	r4, #3
    3248:	d924      	bls.n	3294 <memset+0x74>
    324a:	25ff      	movs	r5, #255	; 0xff
    324c:	400d      	ands	r5, r1
    324e:	022a      	lsls	r2, r5, #8
    3250:	4315      	orrs	r5, r2
    3252:	042a      	lsls	r2, r5, #16
    3254:	4315      	orrs	r5, r2
    3256:	2c0f      	cmp	r4, #15
    3258:	d911      	bls.n	327e <memset+0x5e>
    325a:	0026      	movs	r6, r4
    325c:	3e10      	subs	r6, #16
    325e:	0936      	lsrs	r6, r6, #4
    3260:	3601      	adds	r6, #1
    3262:	0136      	lsls	r6, r6, #4
    3264:	001a      	movs	r2, r3
    3266:	199b      	adds	r3, r3, r6
    3268:	6015      	str	r5, [r2, #0]
    326a:	6055      	str	r5, [r2, #4]
    326c:	6095      	str	r5, [r2, #8]
    326e:	60d5      	str	r5, [r2, #12]
    3270:	3210      	adds	r2, #16
    3272:	4293      	cmp	r3, r2
    3274:	d1f8      	bne.n	3268 <memset+0x48>
    3276:	220f      	movs	r2, #15
    3278:	4014      	ands	r4, r2
    327a:	2c03      	cmp	r4, #3
    327c:	d90a      	bls.n	3294 <memset+0x74>
    327e:	1f26      	subs	r6, r4, #4
    3280:	08b6      	lsrs	r6, r6, #2
    3282:	3601      	adds	r6, #1
    3284:	00b6      	lsls	r6, r6, #2
    3286:	001a      	movs	r2, r3
    3288:	199b      	adds	r3, r3, r6
    328a:	c220      	stmia	r2!, {r5}
    328c:	4293      	cmp	r3, r2
    328e:	d1fc      	bne.n	328a <memset+0x6a>
    3290:	2203      	movs	r2, #3
    3292:	4014      	ands	r4, r2
    3294:	2c00      	cmp	r4, #0
    3296:	d005      	beq.n	32a4 <memset+0x84>
    3298:	b2c9      	uxtb	r1, r1
    329a:	191c      	adds	r4, r3, r4
    329c:	7019      	strb	r1, [r3, #0]
    329e:	3301      	adds	r3, #1
    32a0:	429c      	cmp	r4, r3
    32a2:	d1fb      	bne.n	329c <memset+0x7c>
    32a4:	bd70      	pop	{r4, r5, r6, pc}
    32a6:	0014      	movs	r4, r2
    32a8:	0003      	movs	r3, r0
    32aa:	e7cc      	b.n	3246 <memset+0x26>

000032ac <register_fini>:
    32ac:	4b03      	ldr	r3, [pc, #12]	; (32bc <register_fini+0x10>)
    32ae:	b510      	push	{r4, lr}
    32b0:	2b00      	cmp	r3, #0
    32b2:	d002      	beq.n	32ba <register_fini+0xe>
    32b4:	4802      	ldr	r0, [pc, #8]	; (32c0 <register_fini+0x14>)
    32b6:	f000 f805 	bl	32c4 <atexit>
    32ba:	bd10      	pop	{r4, pc}
    32bc:	00000000 	.word	0x00000000
    32c0:	000032d5 	.word	0x000032d5

000032c4 <atexit>:
    32c4:	b510      	push	{r4, lr}
    32c6:	0001      	movs	r1, r0
    32c8:	2300      	movs	r3, #0
    32ca:	2200      	movs	r2, #0
    32cc:	2000      	movs	r0, #0
    32ce:	f000 f81b 	bl	3308 <__register_exitproc>
    32d2:	bd10      	pop	{r4, pc}

000032d4 <__libc_fini_array>:
    32d4:	b570      	push	{r4, r5, r6, lr}
    32d6:	4b09      	ldr	r3, [pc, #36]	; (32fc <__libc_fini_array+0x28>)
    32d8:	4c09      	ldr	r4, [pc, #36]	; (3300 <__libc_fini_array+0x2c>)
    32da:	1ae4      	subs	r4, r4, r3
    32dc:	10a4      	asrs	r4, r4, #2
    32de:	d009      	beq.n	32f4 <__libc_fini_array+0x20>
    32e0:	4a08      	ldr	r2, [pc, #32]	; (3304 <__libc_fini_array+0x30>)
    32e2:	18a5      	adds	r5, r4, r2
    32e4:	00ad      	lsls	r5, r5, #2
    32e6:	18ed      	adds	r5, r5, r3
    32e8:	682b      	ldr	r3, [r5, #0]
    32ea:	3c01      	subs	r4, #1
    32ec:	4798      	blx	r3
    32ee:	3d04      	subs	r5, #4
    32f0:	2c00      	cmp	r4, #0
    32f2:	d1f9      	bne.n	32e8 <__libc_fini_array+0x14>
    32f4:	f000 f956 	bl	35a4 <_fini>
    32f8:	bd70      	pop	{r4, r5, r6, pc}
    32fa:	46c0      	nop			; (mov r8, r8)
    32fc:	000035b0 	.word	0x000035b0
    3300:	000035b4 	.word	0x000035b4
    3304:	3fffffff 	.word	0x3fffffff

00003308 <__register_exitproc>:
    3308:	b5f8      	push	{r3, r4, r5, r6, r7, lr}
    330a:	4644      	mov	r4, r8
    330c:	465f      	mov	r7, fp
    330e:	4656      	mov	r6, sl
    3310:	464d      	mov	r5, r9
    3312:	469b      	mov	fp, r3
    3314:	4b2f      	ldr	r3, [pc, #188]	; (33d4 <__register_exitproc+0xcc>)
    3316:	b4f0      	push	{r4, r5, r6, r7}
    3318:	681c      	ldr	r4, [r3, #0]
    331a:	23a4      	movs	r3, #164	; 0xa4
    331c:	005b      	lsls	r3, r3, #1
    331e:	0005      	movs	r5, r0
    3320:	58e0      	ldr	r0, [r4, r3]
    3322:	000e      	movs	r6, r1
    3324:	4690      	mov	r8, r2
    3326:	2800      	cmp	r0, #0
    3328:	d04b      	beq.n	33c2 <__register_exitproc+0xba>
    332a:	6843      	ldr	r3, [r0, #4]
    332c:	2b1f      	cmp	r3, #31
    332e:	dc0d      	bgt.n	334c <__register_exitproc+0x44>
    3330:	1c5c      	adds	r4, r3, #1
    3332:	2d00      	cmp	r5, #0
    3334:	d121      	bne.n	337a <__register_exitproc+0x72>
    3336:	3302      	adds	r3, #2
    3338:	009b      	lsls	r3, r3, #2
    333a:	6044      	str	r4, [r0, #4]
    333c:	501e      	str	r6, [r3, r0]
    333e:	2000      	movs	r0, #0
    3340:	bc3c      	pop	{r2, r3, r4, r5}
    3342:	4690      	mov	r8, r2
    3344:	4699      	mov	r9, r3
    3346:	46a2      	mov	sl, r4
    3348:	46ab      	mov	fp, r5
    334a:	bdf8      	pop	{r3, r4, r5, r6, r7, pc}
    334c:	4b22      	ldr	r3, [pc, #136]	; (33d8 <__register_exitproc+0xd0>)
    334e:	2b00      	cmp	r3, #0
    3350:	d03c      	beq.n	33cc <__register_exitproc+0xc4>
    3352:	20c8      	movs	r0, #200	; 0xc8
    3354:	0040      	lsls	r0, r0, #1
    3356:	e000      	b.n	335a <__register_exitproc+0x52>
    3358:	bf00      	nop
    335a:	2800      	cmp	r0, #0
    335c:	d036      	beq.n	33cc <__register_exitproc+0xc4>
    335e:	22a4      	movs	r2, #164	; 0xa4
    3360:	2300      	movs	r3, #0
    3362:	0052      	lsls	r2, r2, #1
    3364:	58a1      	ldr	r1, [r4, r2]
    3366:	6043      	str	r3, [r0, #4]
    3368:	6001      	str	r1, [r0, #0]
    336a:	50a0      	str	r0, [r4, r2]
    336c:	3240      	adds	r2, #64	; 0x40
    336e:	5083      	str	r3, [r0, r2]
    3370:	3204      	adds	r2, #4
    3372:	5083      	str	r3, [r0, r2]
    3374:	2401      	movs	r4, #1
    3376:	2d00      	cmp	r5, #0
    3378:	d0dd      	beq.n	3336 <__register_exitproc+0x2e>
    337a:	009a      	lsls	r2, r3, #2
    337c:	4691      	mov	r9, r2
    337e:	4481      	add	r9, r0
    3380:	4642      	mov	r2, r8
    3382:	2188      	movs	r1, #136	; 0x88
    3384:	464f      	mov	r7, r9
    3386:	507a      	str	r2, [r7, r1]
    3388:	22c4      	movs	r2, #196	; 0xc4
    338a:	0052      	lsls	r2, r2, #1
    338c:	4690      	mov	r8, r2
    338e:	4480      	add	r8, r0
    3390:	4642      	mov	r2, r8
    3392:	3987      	subs	r1, #135	; 0x87
    3394:	4099      	lsls	r1, r3
    3396:	6812      	ldr	r2, [r2, #0]
    3398:	468a      	mov	sl, r1
    339a:	430a      	orrs	r2, r1
    339c:	4694      	mov	ip, r2
    339e:	4642      	mov	r2, r8
    33a0:	4661      	mov	r1, ip
    33a2:	6011      	str	r1, [r2, #0]
    33a4:	2284      	movs	r2, #132	; 0x84
    33a6:	4649      	mov	r1, r9
    33a8:	465f      	mov	r7, fp
    33aa:	0052      	lsls	r2, r2, #1
    33ac:	508f      	str	r7, [r1, r2]
    33ae:	2d02      	cmp	r5, #2
    33b0:	d1c1      	bne.n	3336 <__register_exitproc+0x2e>
    33b2:	0002      	movs	r2, r0
    33b4:	4655      	mov	r5, sl
    33b6:	328d      	adds	r2, #141	; 0x8d
    33b8:	32ff      	adds	r2, #255	; 0xff
    33ba:	6811      	ldr	r1, [r2, #0]
    33bc:	430d      	orrs	r5, r1
    33be:	6015      	str	r5, [r2, #0]
    33c0:	e7b9      	b.n	3336 <__register_exitproc+0x2e>
    33c2:	0020      	movs	r0, r4
    33c4:	304d      	adds	r0, #77	; 0x4d
    33c6:	30ff      	adds	r0, #255	; 0xff
    33c8:	50e0      	str	r0, [r4, r3]
    33ca:	e7ae      	b.n	332a <__register_exitproc+0x22>
    33cc:	2001      	movs	r0, #1
    33ce:	4240      	negs	r0, r0
    33d0:	e7b6      	b.n	3340 <__register_exitproc+0x38>
    33d2:	46c0      	nop			; (mov r8, r8)
    33d4:	0000358c 	.word	0x0000358c
    33d8:	00000000 	.word	0x00000000

000033dc <spi2MOSI>:
    33dc:	0c000002 00000200                                .....

000033e1 <spi2SCK>:
    33e1:	0e000002 00000200                                .....

000033e6 <spi2MISO>:
    33e6:	0d000002 8d200000                                ......

000033ec <lookupTable.12457>:
    33ec:	ffff8d20 ffffada1 ffffce64 ffffef6c      .......d...l...
    33fc:	000010b7 0000324a 00005425 00007649     ....J2..%T..Iv..
    340c:	000098b7 0000bb72 0000de79 000101d0     ....r...y.......
    341c:	00012576 0001496f 00016dbc 0001925e     v%..oI...m..^...
    342c:	0001b758 0001dcaa 00020258 00022862     X.......X...b(..
    343c:	00024ecc 00027596 00029cc4 0002c457     .N...u......W...
    344c:	0002ec52 000314b7 00033d89 000366ca     R........=...f..
    345c:	0003907d 0003baa4 0003e544 0004105e     }.......D...^...
    346c:	00043bf6 0004680e 000494ac 0004c1d1     .;...h..........
    347c:	0004ef81 00051dc1 00054c95 00057c00     .........L...|..
    348c:	0005ac07 0005dcae 00060dfb 00063ff2     .............?..
    349c:	00067298 0006a5f4 0006da09 00070ee0     .r..............
    34ac:	0007447d 00077ae8 0007b228 0007ea44     }D...z..(...D...
    34bc:	00082344 00085d30 00089810 0008d3ef     D#..0]..........
    34cc:	000910d6 00094ecf 00098de5 0009ce23     .....N......#...
    34dc:	000a0f98 000a524f 000a9657 000adbbf     ....OR..W.......
    34ec:	000b2298 000b6af3 000bb4e2 000c007b     ."...j......{...
    34fc:	000c4dd4 000c9d03 000cee23 000d4150     .M......#...PA..
    350c:	000d96a9 000dee4e 000e4865 000ea516     ....N...eH......
    351c:	000f048e                                ....

00003520 <senseBatPin>:
    3520:	06000000 01000106                                .....

00003525 <senseAPin>:
    3525:	03010001 0100010b                                .....

0000352a <senseBPin>:
    352a:	02010001 0000000a                                .....

0000352f <senseCPin>:
    352f:	03000000 00000001                                .....

00003534 <senseDPin>:
    3534:	02000000 00000000                                .....

00003539 <analogAccelPin>:
    3539:	07000000 00000207                                .....

0000353e <spi2MOSI>:
    353e:	0c000002 00000200                                .....

00003543 <spi2SCK>:
    3543:	0e000002 0024d000 00239000 00239000     ......$...#...#.
    3553:	00238e00 0024a800 0024a800 00249a00     ..#...$...$...$.
    3563:	00238e00 0024a800 00249a00 0024a800     ..#...$...$...$.
    3573:	00238e00 0024b000 0024b000 0024b000     ..#...$...$...$.
    3583:	0026b000 00004300 00001000                       ..&..C...

0000358c <_global_impure_ptr>:
    358c:	20000010                                ... 

00003590 <_init>:
    3590:	b5f8      	push	{r3, r4, r5, r6, r7, lr}
    3592:	46c0      	nop			; (mov r8, r8)
    3594:	bcf8      	pop	{r3, r4, r5, r6, r7}
    3596:	bc08      	pop	{r3}
    3598:	469e      	mov	lr, r3
    359a:	4770      	bx	lr

0000359c <__init_array_start>:
    359c:	000032ad 	.word	0x000032ad

000035a0 <__frame_dummy_init_array_entry>:
    35a0:	000000dd                                ....

000035a4 <_fini>:
    35a4:	b5f8      	push	{r3, r4, r5, r6, r7, lr}
    35a6:	46c0      	nop			; (mov r8, r8)
    35a8:	bcf8      	pop	{r3, r4, r5, r6, r7}
    35aa:	bc08      	pop	{r3}
    35ac:	469e      	mov	lr, r3
    35ae:	4770      	bx	lr

000035b0 <__fini_array_start>:
    35b0:	000000b5 	.word	0x000000b5
